ccopy_reg
_reconstructor
p1
(cpsychopy.data
ExperimentHandler
p2
c__builtin__
object
p3
NtRp4
(dp5
S'originPath'
p6
NsS'dataFileName'
p7
VC:\u005cUsers\u005cCCDL\u005cDesktop\u005cExperiments\u005cKRITL\u005cdata/31035_KRITL_2017_Apr_14_1720
p8
sS'runtimeInfo'
p9
NsS'name'
p10
S'KRITL'
p11
sS'dataNames'
p12
(lp13
S'practice_encoding.keys'
p14
aS'practice_encoding.rt'
p15
aS'practice_execution.keys'
p16
aS'practice_execution.corr'
p17
aS'practice_execution.rt'
p18
aS'encoding.keys'
p19
aS'encoding.rt'
p20
aS'execution.keys'
p21
aS'execution.corr'
p22
aS'execution.rt'
p23
asS'autoLog'
p24
I01
sS'extraInfo'
p25
(dp26
S'date'
p27
V2017_Apr_14_1720
p28
sS'frameRate'
p29
cnumpy.core.multiarray
scalar
p30
(cnumpy
dtype
p31
(S'f8'
I0
I1
tRp32
(I3
S'<'
NNNI-1
I-1
I0
tbS'\xbc\xf3\xe4\xd2\xb9\xfeM@'
tRp33
sS'expName'
p34
g11
sVsession
p35
V001
p36
sVparticipant
p37
V31035
p38
ssS'loopsUnfinished'
p39
(lp40
sS'saveWideText'
p41
I00
sS'thisEntry'
p42
(dp43
sS'version'
p44
S''
sS'_paramNamesSoFar'
p45
(lp46
Voperationc
p47
aVoperationb
p48
aVoperationa
p49
aVcorrectresponse
p50
aVvaluey
p51
aVoperationd
p52
aVcondition
p53
aVvaluex
p54
aVRule
p55
aVOperatora
p56
aVLength
p57
aVIntermediate
p58
aVCorrectResponse
p59
aVResult
p60
aVY
aVX
aVOperatorc
p61
aVOperatorb
p62
aVOperatord
p63
aVStructure
p64
asS'entries'
p65
(lp66
(dp67
g18
F2.5333948011975735
sg29
g33
sg17
I1
sg47
L0L
sg48
VADD
p68
sg49
Vdecrease
p69
sg35
g36
sg50
L7L
sS'practice_trials.thisTrialN'
p70
I0
sg52
L0L
sS'practice_trials.thisRepN'
p71
I0
sg37
g38
sg53
L2L
sg27
g28
sg16
S'7'
sg14
(lp72
S'space'
p73
asS'practice_trials.thisIndex'
p74
I0
sS'practice_trials.thisN'
p75
I0
sg34
g11
sg15
(lp76
F3.0000427652848884
asg51
L5L
sg54
L3L
sa(dp77
g18
F1.9167030170792714
sg29
g33
sg17
I1
sg47
L0L
sg48
g69
sg49
VTIMES
p78
sg35
g36
sg50
L8L
sS'practice_trials.thisTrialN'
p79
I1
sg52
L0L
sS'practice_trials.thisRepN'
p80
I0
sg37
g38
sg53
L2L
sg27
g28
sg16
S'8'
sg14
(lp81
S'space'
p82
asS'practice_trials.thisIndex'
p83
I1
sS'practice_trials.thisN'
p84
I1
sg34
g11
sg15
(lp85
F1.1667690181639045
asg51
L3L
sg54
L3L
sa(dp86
g18
F4.4168338787276298
sg29
g33
sg17
I1
sg47
Vincrease
p87
sg48
VDIVIDE
p88
sg49
Vdouble
p89
sg35
g36
sg50
L9L
sS'practice_trials.thisTrialN'
p90
I2
sg52
Vtriple
p91
sS'practice_trials.thisRepN'
p92
I0
sg37
g38
sg53
L4L
sg27
g28
sg16
S'9'
sg14
(lp93
S'space'
p94
asS'practice_trials.thisIndex'
p95
I5
sS'practice_trials.thisN'
p96
I2
sg34
g11
sg15
(lp97
F3.6667008787626401
asg51
L8L
sg54
L8L
sa(dp98
g18
F2.3000169349834323
sg29
g33
sg17
I1
sg47
g87
sg48
g88
sg49
g91
sg35
g36
sg50
L3L
sS'practice_trials.thisTrialN'
p99
I3
sg52
L0L
sS'practice_trials.thisRepN'
p100
I0
sg37
g38
sg53
L3L
sg27
g28
sg16
S'3'
sg14
(lp101
S'space'
p102
asS'practice_trials.thisIndex'
p103
I4
sS'practice_trials.thisN'
p104
I3
sg34
g11
sg15
(lp105
F1.7167498877970502
asg51
L3L
sg54
L2L
sa(dp106
g18
F1.5167157896794379
sg29
g33
sg17
I1
sg47
L0L
sg48
g68
sg49
Vhalf
p107
sg35
g36
sg50
L7L
sS'practice_trials.thisTrialN'
p108
I4
sg52
L0L
sS'practice_trials.thisRepN'
p109
I0
sg37
g38
sg53
L2L
sg27
g28
sg16
S'7'
sg14
(lp110
S'space'
p111
asS'practice_trials.thisIndex'
p112
I2
sS'practice_trials.thisN'
p113
I4
sg34
g11
sg15
(lp114
F1.0333557423437014
asg51
L5L
sg54
L4L
sa(dp115
g18
F2.1500652027316391
sg29
g33
sg17
I1
sg47
g68
sg48
Vtriple 
p116
sg49
g107
sg35
g36
sg50
L8L
sS'practice_trials.thisTrialN'
p117
I5
sg52
L0L
sS'practice_trials.thisRepN'
p118
I0
sg37
g38
sg53
L3L
sg27
g28
sg16
S'8'
sg14
(lp119
S'space'
p120
asS'practice_trials.thisIndex'
p121
I3
sS'practice_trials.thisN'
p122
I5
sg34
g11
sg15
(lp123
F1.3833458492299542
asg51
L2L
sg54
L4L
sa(dp124
S'block.thisTrialN'
p125
I0
sS'block.thisRepN'
p126
I0
sg29
g33
sS'block.thisN'
p127
I0
sg55
(S'SUBTRACT'
S'HALF'
S'TRIPLE'
S'x'
S'y'
tp128
sg27
g28
sg57
L3L
sg58
(I12
I6
I2
tp129
sg22
I1
sg20
F1.7501324296463281
sg23
F2.950011717621237
sVY
L4L
sVX
L4L
sg61
Vtriple
p130
sg35
g36
sg37
g38
sg21
S'2'
sg19
S'space'
p131
sg34
g11
sg60
L2L
sg56
Vhalf
p132
sg59
L2L
sS'block.thisIndex'
p133
I5
sg62
VSUBTRACT
p134
sg63
L0L
sg64
VBUUxy
p135
sa(dp136
S'block.thisTrialN'
p137
I1
sS'block.thisRepN'
p138
I0
sg29
g33
sS'block.thisN'
p139
I1
sg55
(S'ADD'
S'DOUBLE'
S'x'
S'y'
tp140
sg27
g28
sg57
L2L
sg58
(I4
I8
tp141
sg22
I1
sg20
F1.4168019474018365
sg23
F1.7668944058241323
sVY
L4L
sVX
L2L
sg61
L0L
sg35
g36
sg37
g38
sg21
S'8'
sg19
S'space'
p142
sg34
g11
sg60
L8L
sg56
Vdouble
p143
sg59
L8L
sS'block.thisIndex'
p144
I0
sg62
VADD
p145
sg63
L0L
sg64
VBUxy
p146
sa(dp147
S'block.thisTrialN'
p148
I2
sS'block.thisRepN'
p149
I0
sg29
g33
sS'block.thisN'
p150
I2
sg55
(S'INCREASE'
S'DIVIDE'
S'THIRD'
S'x'
S'y'
tp151
sg27
g28
sg57
L3L
sg58
(I3
I1
I2
tp152
sg22
I1
sg20
F1.8167960172286257
sg23
F2.616684086387977
sVY
L3L
sVX
L9L
sg61
Vthird
p153
sg35
g36
sg37
g38
sg21
S'2'
sg19
S'space'
p154
sg34
g11
sg60
L2L
sg56
VDIVIDE
p155
sg59
L2L
sS'block.thisIndex'
p156
I7
sg62
Vincrease
p157
sg63
L0L
sg64
VUBUxy
p158
sa(dp159
S'block.thisTrialN'
p160
I3
sS'block.thisRepN'
p161
I0
sg29
g33
sS'block.thisN'
p162
I3
sg55
(S'ADD'
S'THIRD'
S'INCREASE'
S'HALF'
S'x'
S'y'
tp163
sg27
g28
sg57
L4L
sg58
(I2
I3
I1
I7
tp164
sg22
I1
sg20
F1.9333811732940376
sg23
F3.7333932616747916
sVY
L6L
sVX
L4L
sg61
g157
sg35
g36
sg37
g38
sg21
S'7'
sg19
S'space'
p165
sg34
g11
sg60
L7L
sg56
g153
sg59
L7L
sS'block.thisIndex'
p166
I10
sg62
g145
sg63
g132
sg64
VBUUUxy
p167
sa(dp168
S'block.thisTrialN'
p169
I4
sS'block.thisRepN'
p170
I0
sg29
g33
sS'block.thisN'
p171
I4
sg55
(S'DECREASE'
S'ADD'
S'DOUBLE'
S'THIRD'
S'x'
S'y'
tp172
sg27
g28
sg57
L4L
sg58
(I3
I6
I10
I9
tp173
sg22
I1
sg20
F2.8833908953238279
sg23
F4.1167194389272481
sVY
L4L
sVX
L9L
sg61
g143
sg35
g36
sg37
g38
sg21
S'9'
sg19
S'space'
p174
sg34
g11
sg60
L9L
sg56
g145
sg59
L9L
sS'block.thisIndex'
p175
I12
sg62
Vdecrease 
p176
sg63
g153
sg64
VUBUUxy
p177
sa(dp178
S'block.thisTrialN'
p179
I5
sS'block.thisRepN'
p180
I0
sg29
g33
sS'block.thisN'
p181
I5
sg55
(S'DIVIDE'
S'INCREASE'
S'DOUBLE'
S'THIRD'
S'x'
S'y'
tp182
sg27
g28
sg57
L4L
sg58
(I2
I4
I5
I1
tp183
sg22
I1
sg20
F2.7500317888334394
sg23
F4.0834170107264072
sVY
L5L
sVX
L6L
sg61
g143
sg35
g36
sg37
g38
sg21
S'1'
sg19
S'space'
p184
sg34
g11
sg60
L1L
sg56
g157
sg59
L1L
sS'block.thisIndex'
p185
I11
sg62
g155
sg63
g153
sg64
g167
sa(dp186
S'block.thisTrialN'
p187
I6
sS'block.thisRepN'
p188
I0
sg29
g33
sS'block.thisN'
p189
I6
sg55
(S'DECREASE'
S'TIMES'
S'DOUBLE'
S'THIRD'
S'x'
S'y'
tp190
sg27
g28
sg57
L4L
sg58
(I1
I2
I8
I7
tp191
sg22
I1
sg20
F3.7000406555598602
sg23
F2.983397395699285
sVY
L4L
sVX
L3L
sg61
g143
sg35
g36
sg37
g38
sg21
S'7'
sg19
S'space'
p192
sg34
g11
sg60
L7L
sg56
VTIMES
p193
sg59
L7L
sS'block.thisIndex'
p194
I13
sg62
Vdecrease
p195
sg63
g153
sg64
g177
sa(dp196
S'block.thisTrialN'
p197
I7
sS'block.thisRepN'
p198
I0
sg29
g33
sS'block.thisN'
p199
I7
sg55
(S'DIVIDE'
S'DOUBLE'
S'x'
S'y'
tp200
sg27
g28
sg57
L2L
sg58
(I12
I2
tp201
sg22
I1
sg20
F1.2667521401308477
sg23
F1.8834376520244405
sVY
L6L
sVX
L6L
sg61
L0L
sg35
g36
sg37
g38
sg21
S'2'
sg19
S'space'
p202
sg34
g11
sg60
L2L
sg56
g143
sg59
L2L
sS'block.thisIndex'
p203
I1
sg62
g155
sg63
L0L
sg64
g146
sa(dp204
S'block.thisTrialN'
p205
I8
sS'block.thisRepN'
p206
I0
sg29
g33
sS'block.thisN'
p207
I8
sg55
(S'DECREASE'
S'THIRD'
S'TIMES'
S'HALF'
S'x'
S'y'
tp208
sg27
g28
sg57
L4L
sg58
(I2
I12
I4
I3
tp209
sg22
I1
sg20
F3.7500066999346018
sg23
F8.3833427131175995
sVY
L6L
sVX
L4L
sg61
g193
sg35
g36
sg37
g38
sg21
S'3'
sg19
S'space'
p210
sg34
g11
sg60
L3L
sg56
g153
sg59
L3L
sS'block.thisIndex'
p211
I14
sg62
g195
sg63
g132
sg64
VUUBUxy
p212
sa(dp213
S'block.thisTrialN'
p214
I9
sS'block.thisRepN'
p215
I0
sg29
g33
sS'block.thisN'
p216
I9
sg55
(S'DECREASE'
S'HALF'
S'TRIPLE'
S'DIVIDE'
S'x'
S'y'
tp217
sg27
g28
sg57
L4L
sg58
(I4
I12
I6
I5
tp218
sg22
I1
sg20
F3.1167875782120973
sg23
F3.9000710473628715
sVY
L2L
sVX
L8L
sg61
g130
sg35
g36
sg37
g38
sg21
S'5'
sg19
S'space'
p219
sg34
g11
sg60
L5L
sg56
g132
sg59
L5L
sS'block.thisIndex'
p220
I16
sg62
g195
sg63
g155
sg64
VUUUBxy
p221
sa(dp222
S'block.thisTrialN'
p223
I10
sS'block.thisRepN'
p224
I0
sg29
g33
sS'block.thisN'
p225
I10
sg55
(S'DOUBLE'
S'SUBTRACT'
S'x'
S'y'
tp226
sg27
g28
sg57
L2L
sg58
(I1
I2
tp227
sg22
I1
sg20
F1.0667679347097874
sg23
F1.3168136934982613
sVY
L7L
sVX
L8L
sg61
L0L
sg35
g36
sg37
g38
sg21
S'2'
sg19
S'space'
p228
sg34
g11
sg60
L2L
sg56
g134
sg59
L2L
sS'block.thisIndex'
p229
I2
sg62
g143
sg63
L0L
sg64
VUBxy
p230
sa(dp231
S'block.thisTrialN'
p232
I11
sS'block.thisRepN'
p233
I0
sg29
g33
sS'block.thisN'
p234
I11
sg55
(S'DOUBLE'
S'TRIPLE'
S'SUBTRACT'
S'x'
S'y'
tp235
sg27
g28
sg57
L3L
sg58
(I1
I3
I6
tp236
sg22
I1
sg20
F1.3167709283297881
sg23
F3.9000947107560933
sVY
L3L
sVX
L4L
sg61
g134
sg35
g36
sg37
g38
sg21
S'6'
sg19
S'space'
p237
sg34
g11
sg60
L6L
sg56
g130
sg59
L6L
sS'block.thisIndex'
p238
I9
sg62
g143
sg63
L0L
sg64
VUUBxy
p239
sa(dp240
S'block.thisTrialN'
p241
I12
sS'block.thisRepN'
p242
I0
sg29
g33
sS'block.thisN'
p243
I12
sg55
(S'DOUBLE'
S'DECREASE'
S'SUBTRACT'
S'x'
S'y'
tp244
sg27
g28
sg57
L3L
sg58
(I5
I4
I8
tp245
sg22
I1
sg20
F1.7333467900753021
sg23
F3.0833862196886912
sVY
L2L
sVX
L7L
sg61
g134
sg35
g36
sg37
g38
sg21
S'8'
sg19
S'space'
p246
sg34
g11
sg60
L8L
sg56
g195
sg59
L8L
sS'block.thisIndex'
p247
I8
sg62
g143
sg63
L0L
sg64
g239
sa(dp248
S'block.thisTrialN'
p249
I13
sS'block.thisRepN'
p250
I0
sg29
g33
sS'block.thisN'
p251
I13
sg55
(S'HALF'
S'SUBTRACT'
S'TRIPLE'
S'x'
S'y'
tp252
sg27
g28
sg57
L3L
sg58
(I9
I2
I1
tp253
sg22
I1
sg20
F2.4834447224857286
sg23
F1.8169827586971223
sVY
L7L
sVX
L3L
sg61
g130
sg35
g36
sg37
g38
sg21
S'1'
sg19
S'space'
p254
sg34
g11
sg60
L1L
sg56
g134
sg59
L1L
sS'block.thisIndex'
p255
I6
sg62
g132
sg63
L0L
sg64
g158
sa(dp256
S'block.thisTrialN'
p257
I14
sS'block.thisRepN'
p258
I0
sg29
g33
sS'block.thisN'
p259
I14
sg55
(S'HALF'
S'TIMES'
S'x'
S'y'
tp260
sg27
g28
sg57
L2L
sg58
(I16
I8
tp261
sg22
I1
sg20
F1.116759353200905
sg23
F3.583446946227923
sVY
L4L
sVX
L4L
sg61
L0L
sg35
g36
sg37
g38
sg21
S'8'
sg19
S'space'
p262
sg34
g11
sg60
L8L
sg56
g193
sg59
L8L
sS'block.thisIndex'
p263
I3
sg62
g132
sg63
L0L
sg64
g230
sa(dp264
S'block.thisTrialN'
p265
I15
sS'block.thisRepN'
p266
I0
sg29
g33
sS'block.thisN'
p267
I15
sg55
(S'DOUBLE'
S'DECREASE'
S'TRIPLE'
S'DIVIDE'
S'x'
S'y'
tp268
sg27
g28
sg57
L4L
sg58
(I1
I3
I2
I4
tp269
sg22
I1
sg20
F3.4000305630033836
sg23
F2.7167419049656019
sVY
L4L
sVX
L4L
sg61
g130
sg35
g36
sg37
g38
sg21
S'4'
sg19
S'space'
p270
sg34
g11
sg60
L4L
sg56
g195
sg59
L4L
sS'block.thisIndex'
p271
I17
sg62
g143
sg63
g155
sg64
g221
sa(dp272
S'block.thisTrialN'
p273
I16
sS'block.thisRepN'
p274
I0
sg29
g33
sS'block.thisN'
p275
I16
sg55
(S'DIVIDE'
S'DOUBLE'
S'THIRD'
S'x'
S'y'
tp276
sg27
g28
sg57
L3L
sg58
(I2
I4
I1
tp277
sg22
I1
sg20
F2.4500262577785179
sg23
F1.8667774570640177
sVY
L4L
sVX
L6L
sg61
g153
sg35
g36
sg37
g38
sg21
S'1'
sg19
S'space'
p278
sg34
g11
sg60
L1L
sg56
g143
sg59
L1L
sS'block.thisIndex'
p279
I4
sg62
g155
sg63
L0L
sg64
g135
sa(dp280
S'block.thisTrialN'
p281
I17
sS'block.thisRepN'
p282
I0
sg29
g33
sS'block.thisN'
p283
I17
sg55
(S'DOUBLE'
S'TRIPLE'
S'DIVIDE'
S'DECREASE'
S'x'
S'y'
tp284
sg27
g28
sg57
L4L
sg58
(I8
I1
I3
I6
tp285
sg22
I1
sg20
F2.4667722682934254
sg23
F3.6000184746226296
sVY
L8L
sVX
L9L
sg61
g155
sg35
g36
sg37
g38
sg21
S'6'
sg19
S'space'
p286
sg34
g11
sg60
L6L
sg56
g130
sg59
L6L
sS'block.thisIndex'
p287
I15
sg62
g143
sg63
g195
sg64
g212
sa(dp288
S'block.thisTrialN'
p289
I0
sS'block.thisRepN'
p290
I0
sg29
g33
sS'block.thisN'
p291
I0
sVRule
p292
(S'TRIPLE'
S'HALF'
S'ADD'
S'x'
S'y'
tp293
sg27
g28
sVLength
p294
L3L
sVIntermediate
p295
(I6
I3
I9
tp296
sg22
I1
sg20
F1.7834091988625005
sg23
F3.8667324110865593
sVY
L3L
sVX
L3L
sVOperatorc
p297
VADD
p298
sg35
g36
sg37
g38
sg21
S'9'
sg19
S'space'
p299
sg34
g11
sVResult
p300
L9L
sVOperatora
p301
Vhalf
p302
sVCorrectResponse
p303
L9L
sS'block.thisIndex'
p304
I8
sVOperatorb
p305
Vtriple
p306
sVOperatord
p307
L0L
sVStructure
p308
VUUBxy
p309
sa(dp310
S'block.thisTrialN'
p311
I1
sS'block.thisRepN'
p312
I0
sg29
g33
sS'block.thisN'
p313
I1
sg292
(S'TRIPLE'
S'DOUBLE'
S'SUBTRACT'
S'INCREASE'
S'x'
S'y'
tp314
sg27
g28
sg294
L4L
sg295
(I5
I1
I2
I6
tp315
sg22
I1
sg20
F3.2835409158142284
sg23
F3.3000642618862912
sVY
L4L
sVX
L4L
sg297
VSUBTRACT
p316
sg35
g36
sg37
g38
sg21
S'6'
sg19
S'space'
p317
sg34
g11
sg300
L6L
sg301
Vdouble
p318
sg303
L6L
sS'block.thisIndex'
p319
I14
sg305
g306
sg307
Vincrease
p320
sg308
VUUBUxy
p321
sa(dp322
S'block.thisTrialN'
p323
I2
sS'block.thisRepN'
p324
I0
sg29
g33
sS'block.thisN'
p325
I2
sg292
(S'ADD'
S'HALF'
S'x'
S'y'
tp326
sg27
g28
sg294
L2L
sg295
(I2
I7
tp327
sg22
I1
sg20
F0.88341969065368176
sg23
F1.5167713845148683
sVY
L5L
sVX
L4L
sg297
L0L
sg35
g36
sg37
g38
sg21
S'7'
sg19
S'space'
p328
sg34
g11
sg300
L7L
sg301
g302
sg303
L7L
sS'block.thisIndex'
p329
I0
sg305
g298
sg307
L0L
sg308
VBUxy
p330
sa(dp331
S'block.thisTrialN'
p332
I3
sS'block.thisRepN'
p333
I0
sg29
g33
sS'block.thisN'
p334
I3
sg292
(S'HALF'
S'SUBTRACT'
S'DECREASE'
S'TRIPLE'
S'x'
S'y'
tp335
sg27
g28
sg294
L4L
sg295
(I15
I14
I10
I5
tp336
sg22
I1
sg20
F3.0667528243502602
sg23
F6.0833514372352511
sVY
L4L
sVX
L5L
sg297
Vdecrease
p337
sg35
g36
sg37
g38
sg21
S'5'
sg19
S'space'
p338
sg34
g11
sg300
L5L
sg301
g316
sg303
L5L
sS'block.thisIndex'
p339
I12
sg305
g302
sg307
g306
sg308
VUBUUxy
p340
sa(dp341
S'block.thisTrialN'
p342
I4
sS'block.thisRepN'
p343
I0
sg29
g33
sS'block.thisN'
p344
I4
sg292
(S'TIMES'
S'HALF'
S'INCREASE'
S'THIRD'
S'x'
S'y'
tp345
sg27
g28
sg294
L4L
sg295
(I1
I2
I1
I9
tp346
sg22
I1
sg20
F4.4333489569835365
sg23
F3.0500589874573052
sVY
L9L
sVX
L3L
sg297
g320
sg35
g36
sg37
g38
sg21
S'9'
sg19
S'space'
p347
sg34
g11
sg300
L9L
sg301
g302
sg303
L9L
sS'block.thisIndex'
p348
I11
sg305
VTIMES
p349
sg307
Vthird
p350
sg308
VBUUUxy
p351
sa(dp352
S'block.thisTrialN'
p353
I5
sS'block.thisRepN'
p354
I0
sg29
g33
sS'block.thisN'
p355
I5
sg292
(S'DOUBLE'
S'DIVIDE'
S'x'
S'y'
tp356
sg27
g28
sg294
L2L
sg295
(I1
I2
tp357
sg22
I1
sg20
F0.93346071674022824
sg23
F2.7001256156945601
sVY
L8L
sVX
L8L
sg297
L0L
sg35
g36
sg37
g38
sg21
S'2'
sg19
S'space'
p358
sg34
g11
sg300
L2L
sg301
VDIVIDE
p359
sg303
L2L
sS'block.thisIndex'
p360
I2
sg305
g318
sg307
L0L
sg308
VUBxy
p361
sa(dp362
S'block.thisTrialN'
p363
I6
sS'block.thisRepN'
p364
I0
sg29
g33
sS'block.thisN'
p365
I6
sg292
(S'INCREASE'
S'TIMES'
S'TRIPLE'
S'HALF'
S'x'
S'y'
tp366
sg27
g28
sg294
L4L
sg295
(I1
I3
I6
I7
tp367
sg22
I1
sg20
F3.183313746820204
sg23
F3.1000236064428464
sVY
L2L
sVX
L2L
sg297
g306
sg35
g36
sg37
g38
sg21
S'7'
sg19
S'space'
p368
sg34
g11
sg300
L7L
sg301
g349
sg303
L7L
sS'block.thisIndex'
p369
I13
sg305
g320
sg307
g302
sg308
g340
sa(dp370
S'block.thisTrialN'
p371
I7
sS'block.thisRepN'
p372
I0
sg29
g33
sS'block.thisN'
p373
I7
sg292
(S'INCREASE'
S'DIVIDE'
S'x'
S'y'
tp374
sg27
g28
sg294
L2L
sg295
(I4
I5
tp375
sg22
I1
sg20
F1.333386077079922
sg23
F1.3334257062524557
sVY
L2L
sVX
L8L
sg297
L0L
sg35
g36
sg37
g38
sg21
S'5'
sg19
S'space'
p376
sg34
g11
sg300
L5L
sg301
g359
sg303
L5L
sS'block.thisIndex'
p377
I3
sg305
g320
sg307
L0L
sg308
g361
sa(dp378
S'block.thisTrialN'
p379
I8
sS'block.thisRepN'
p380
I0
sg29
g33
sS'block.thisN'
p381
I8
sg292
(S'SUBTRACT'
S'INCREASE'
S'HALF'
S'x'
S'y'
tp382
sg27
g28
sg294
L3L
sg295
(I4
I5
I3
tp383
sg22
I1
sg20
F2.6500207269564271
sg23
F4.0667687900131568
sVY
L2L
sVX
L8L
sg297
g302
sg35
g36
sg37
g38
sg21
S'3'
sg19
S'space'
p384
sg34
g11
sg300
L3L
sg301
g320
sg303
L3L
sS'block.thisIndex'
p385
I5
sg305
g316
sg307
L0L
sg308
VBUUxy
p386
sa(dp387
S'block.thisTrialN'
p388
I9
sS'block.thisRepN'
p389
I0
sg29
g33
sS'block.thisN'
p390
I9
sg292
(S'DECREASE'
S'THIRD'
S'DOUBLE'
S'ADD'
S'x'
S'y'
tp391
sg27
g28
sg294
L4L
sg295
(I9
I18
I6
I5
tp392
sg22
I1
sg20
F4.7166826038155705
sg23
F4.7834328623721376
sVY
L4L
sVX
L5L
sg297
g318
sg35
g36
sg37
g38
sg21
S'5'
sg19
S'space'
p393
sg34
g11
sg300
L5L
sg301
g350
sg303
L5L
sS'block.thisIndex'
p394
I16
sg305
g337
sg307
g298
sg308
VUUUBxy
p395
sa(dp396
S'block.thisTrialN'
p397
I10
sS'block.thisRepN'
p398
I0
sg29
g33
sS'block.thisN'
p399
I10
sg292
(S'HALF'
S'TIMES'
S'DECREASE'
S'x'
S'y'
tp400
sg27
g28
sg294
L3L
sg295
(I8
I16
I8
tp401
sg22
I1
sg20
F1.3833170540165156
sg23
F3.6834160983562469
sVY
L2L
sVX
L9L
sg297
g337
sg35
g36
sg37
g38
sg21
S'8'
sg19
S'space'
p402
sg34
g11
sg300
L8L
sg301
g349
sg303
L8L
sS'block.thisIndex'
p403
I6
sg305
g302
sg307
L0L
sg308
VUBUxy
p404
sa(dp405
S'block.thisTrialN'
p406
I11
sS'block.thisRepN'
p407
I0
sg29
g33
sS'block.thisN'
p408
I11
sg292
(S'TRIPLE'
S'INCREASE'
S'SUBTRACT'
S'x'
S'y'
tp409
sg27
g28
sg294
L3L
sg295
(I1
I2
I6
tp410
sg22
I1
sg20
F3.7834536747541279
sg23
F2.6500403988175094
sVY
L2L
sVX
L3L
sg297
g316
sg35
g36
sg37
g38
sg21
S'6'
sg19
S'space'
p411
sg34
g11
sg300
L6L
sg301
g320
sg303
L6L
sS'block.thisIndex'
p412
I9
sg305
g306
sg307
L0L
sg308
g309
sa(dp413
S'block.thisTrialN'
p414
I12
sS'block.thisRepN'
p415
I0
sg29
g33
sS'block.thisN'
p416
I12
sg292
(S'DIVIDE'
S'TRIPLE'
S'DECREASE'
S'x'
S'y'
tp417
sg27
g28
sg294
L3L
sg295
(I6
I18
I9
tp418
sg22
I1
sg20
F2.4333318507997319
sg23
F4.000019672093913
sVY
L2L
sVX
L7L
sg297
g337
sg35
g36
sg37
g38
sg21
S'9'
sg19
S'space'
p419
sg34
g11
sg300
L9L
sg301
g306
sg303
L9L
sS'block.thisIndex'
p420
I4
sg305
g359
sg307
L0L
sg308
g386
sa(dp421
S'block.thisTrialN'
p422
I13
sS'block.thisRepN'
p423
I0
sg29
g33
sS'block.thisN'
p424
I13
sg292
(S'INCREASE'
S'DIVIDE'
S'TRIPLE'
S'x'
S'y'
tp425
sg27
g28
sg294
L3L
sg295
(I6
I2
I3
tp426
sg22
I1
sg20
F1.5167055260390043
sg23
F2.9667069800198078
sVY
L3L
sVX
L2L
sg297
g306
sg35
g36
sg37
g38
sg21
S'3'
sg19
S'space'
p427
sg34
g11
sg300
L3L
sg301
g359
sg303
L3L
sS'block.thisIndex'
p428
I7
sg305
g320
sg307
L0L
sg308
g404
sa(dp429
S'block.thisTrialN'
p430
I14
sS'block.thisRepN'
p431
I0
sg29
g33
sS'block.thisN'
p432
I14
sg292
(S'DIVIDE'
S'DOUBLE'
S'INCREASE'
S'TRIPLE'
S'x'
S'y'
tp433
sg27
g28
sg294
L4L
sg295
(I9
I10
I20
I5
tp434
sg22
I1
sg20
F2.8499889665981755
sg23
F3.7735689184628427
sVY
L4L
sVX
L3L
sg297
g320
sg35
g36
sg37
g38
sg21
S'5'
sg19
S'space'
p435
sg34
g11
sg300
L5L
sg301
g318
sg303
L5L
sS'block.thisIndex'
p436
I10
sg305
g359
sg307
g306
sg308
g351
sa(dp437
S'block.thisTrialN'
p438
I15
sS'block.thisRepN'
p439
I0
sg29
g33
sS'block.thisN'
p440
I15
sg292
(S'SUBTRACT'
S'TRIPLE'
S'x'
S'y'
tp441
sg27
g28
sg294
L2L
sg295
(I12
I9
tp442
sg22
I1
sg20
F1.0334814720554277
sg23
F2.0833776666549966
sVY
L3L
sVX
L4L
sg297
L0L
sg35
g36
sg37
g38
sg21
S'9'
sg19
S'space'
p443
sg34
g11
sg300
L9L
sg301
g306
sg303
L9L
sS'block.thisIndex'
p444
I1
sg305
g316
sg307
L0L
sg308
g330
sa(dp445
S'block.thisTrialN'
p446
I16
sS'block.thisRepN'
p447
I0
sg29
g33
sS'block.thisN'
p448
I16
sg292
(S'TRIPLE'
S'INCREASE'
S'DIVIDE'
S'DOUBLE'
S'x'
S'y'
tp449
sg27
g28
sg294
L4L
sg295
(I16
I2
I3
I9
tp450
sg22
I1
sg20
F2.9001115317223594
sg23
F2.7500637202756479
sVY
L8L
sVX
L8L
sg297
g359
sg35
g36
sg37
g38
sg21
S'9'
sg19
S'space'
p451
sg34
g11
sg300
L9L
sg301
g320
sg303
L9L
sS'block.thisIndex'
p452
I15
sg305
g306
sg307
g318
sg308
g321
sa(dp453
S'block.thisTrialN'
p454
I17
sS'block.thisRepN'
p455
I0
sg29
g33
sS'block.thisN'
p456
I17
sg292
(S'THIRD'
S'INCREASE'
S'HALF'
S'TIMES'
S'x'
S'y'
tp457
sg27
g28
sg294
L4L
sg295
(I28
I14
I15
I5
tp458
sg22
I1
sg20
F2.4834512799279764
sg23
F3.4334048368036747
sVY
L4L
sVX
L7L
sg297
g302
sg35
g36
sg37
g38
sg21
S'5'
sg19
S'space'
p459
sg34
g11
sg300
L5L
sg301
g320
sg303
L5L
sS'block.thisIndex'
p460
I17
sg305
g350
sg307
g349
sg308
g395
sa(dp461
S'block.thisTrialN'
p462
I0
sS'block.thisRepN'
p463
I0
sg29
g33
sS'block.thisN'
p464
I0
sVRule
p465
(S'INCREASE'
S'SUBTRACT'
S'x'
S'y'
tp466
sg27
g28
sVLength
p467
L2L
sVIntermediate
p468
(I3
I4
tp469
sg22
I1
sg20
F1.0167360318591818
sg23
F1.4834561265306547
sVY
L3L
sVX
L6L
sVOperatorc
p470
L0L
sg35
g36
sg37
g38
sg21
S'4'
sg19
S'space'
p471
sg34
g11
sVResult
p472
L4L
sVOperatora
p473
VSUBTRACT
p474
sVCorrectResponse
p475
L4L
sS'block.thisIndex'
p476
I2
sVOperatorb
p477
Vincrease
p478
sVOperatord
p479
L0L
sVStructure
p480
VUBxy
p481
sa(dp482
S'block.thisTrialN'
p483
I1
sS'block.thisRepN'
p484
I0
sg29
g33
sS'block.thisN'
p485
I1
sg465
(S'DECREASE'
S'TRIPLE'
S'DIVIDE'
S'DOUBLE'
S'x'
S'y'
tp486
sg27
g28
sg467
L4L
sg468
(I6
I2
I6
I5
tp487
sg22
I1
sg20
F4.1333023712504655
sg23
F3.3833943165373057
sVY
L3L
sVX
L3L
sg470
VDIVIDE
p488
sg35
g36
sg37
g38
sg21
S'5'
sg19
S'space'
p489
sg34
g11
sg472
L5L
sg473
Vtriple
p490
sg475
L5L
sS'block.thisIndex'
p491
I14
sg477
Vdecrease
p492
sg479
Vdouble
p493
sg480
VUUBUxy
p494
sa(dp495
S'block.thisTrialN'
p496
I2
sS'block.thisRepN'
p497
I0
sg29
g33
sS'block.thisN'
p498
I2
sg465
(S'INCREASE'
S'ADD'
S'HALF'
S'TRIPLE'
S'x'
S'y'
tp499
sg27
g28
sg467
L4L
sg468
(I6
I3
I6
I7
tp500
sg22
I1
sg20
F2.5667476925300434
sg23
F4.6500663431361318
sVY
L3L
sVX
L2L
sg470
Vhalf
p501
sg35
g36
sg37
g38
sg21
S'7'
sg19
S'space'
p502
sg34
g11
sg472
L7L
sg473
VADD
p503
sg475
L7L
sS'block.thisIndex'
p504
I13
sg477
g478
sg479
g490
sg480
VUBUUxy
p505
sa(dp506
S'block.thisTrialN'
p507
I3
sS'block.thisRepN'
p508
I0
sg29
g33
sS'block.thisN'
p509
I3
sg465
(S'THIRD'
S'DIVIDE'
S'x'
S'y'
tp510
sg27
g28
sg467
L2L
sg468
(I3
I1
tp511
sg22
I1
sg20
F0.76679490541573614
sg23
F3.8000750957289711
sVY
L2L
sVX
L6L
sg470
L0L
sg35
g36
sg37
g38
sg21
S'1'
sg19
S'space'
p512
sg34
g11
sg472
L1L
sg473
g488
sg475
L1L
sS'block.thisIndex'
p513
I3
sg477
Vthird
p514
sg479
L0L
sg480
g481
sa(dp515
S'block.thisTrialN'
p516
I4
sS'block.thisRepN'
p517
I0
sg29
g33
sS'block.thisN'
p518
I4
sg465
(S'DIVIDE'
S'THIRD'
S'x'
S'y'
tp519
sg27
g28
sg467
L2L
sg468
(I3
I1
tp520
sg22
I1
sg20
F0.85036672605201602
sg23
F1.050117148202844
sVY
L3L
sVX
L9L
sg470
L0L
sg35
g36
sg37
g38
sg21
S'1'
sg19
S'space'
p521
sg34
g11
sg472
L1L
sg473
g514
sg475
L1L
sS'block.thisIndex'
p522
I0
sg477
g488
sg479
L0L
sg480
VBUxy
p523
sa(dp524
S'block.thisTrialN'
p525
I5
sS'block.thisRepN'
p526
I0
sg29
g33
sS'block.thisN'
p527
I5
sg465
(S'SUBTRACT'
S'TRIPLE'
S'DECREASE'
S'DOUBLE'
S'x'
S'y'
tp528
sg27
g28
sg467
L4L
sg468
(I4
I3
I9
I1
tp529
sg22
I1
sg20
F2.5833919217111543
sg23
F3.5333403467666358
sVY
L8L
sVX
L2L
sg470
g492
sg35
g36
sg37
g38
sg21
S'1'
sg19
S'space'
p530
sg34
g11
sg472
L1L
sg473
g490
sg475
L1L
sS'block.thisIndex'
p531
I11
sg477
g474
sg479
g493
sg480
VBUUUxy
p532
sa(dp533
S'block.thisTrialN'
p534
I6
sS'block.thisRepN'
p535
I0
sg29
g33
sS'block.thisN'
p536
I6
sg465
(S'DECREASE'
S'TRIPLE'
S'HALF'
S'SUBTRACT'
S'x'
S'y'
tp537
sg27
g28
sg467
L4L
sg468
(I4
I2
I6
I5
tp538
sg22
I1
sg20
F2.7334531330270693
sg23
F4.3166973720071837
sVY
L2L
sVX
L6L
sg470
g501
sg35
g36
sg37
g38
sg21
S'5'
sg19
S'space'
p539
sg34
g11
sg472
L5L
sg473
g490
sg475
L5L
sS'block.thisIndex'
p540
I16
sg477
g492
sg479
g474
sg480
VUUUBxy
p541
sa(dp542
S'block.thisTrialN'
p543
I7
sS'block.thisRepN'
p544
I0
sg29
g33
sS'block.thisN'
p545
I7
sg465
(S'DOUBLE'
S'DECREASE'
S'ADD'
S'x'
S'y'
tp546
sg27
g28
sg467
L3L
sg468
(I4
I3
I6
tp547
sg22
I1
sg20
F1.4333911519497633
sg23
F2.2500409120693803
sVY
L2L
sVX
L2L
sg470
g503
sg35
g36
sg37
g38
sg21
S'6'
sg19
S'space'
p548
sg34
g11
sg472
L6L
sg473
g492
sg475
L6L
sS'block.thisIndex'
p549
I8
sg477
g493
sg479
L0L
sg480
VUUBxy
p550
sa(dp551
S'block.thisTrialN'
p552
I8
sS'block.thisRepN'
p553
I0
sg29
g33
sS'block.thisN'
p554
I8
sg465
(S'THIRD'
S'DIVIDE'
S'DECREASE'
S'x'
S'y'
tp555
sg27
g28
sg467
L3L
sg468
(I6
I3
I1
tp556
sg22
I1
sg20
F2.2666962601942942
sg23
F2.3667435300303623
sVY
L2L
sVX
L7L
sg470
g492
sg35
g36
sg37
g38
sg21
S'1'
sg19
S'space'
p557
sg34
g11
sg472
L1L
sg473
g488
sg475
L1L
sS'block.thisIndex'
p558
I6
sg477
g514
sg479
L0L
sg480
VUBUxy
p559
sa(dp560
S'block.thisTrialN'
p561
I9
sS'block.thisRepN'
p562
I0
sg29
g33
sS'block.thisN'
p563
I9
sg465
(S'TIMES'
S'HALF'
S'INCREASE'
S'x'
S'y'
tp564
sg27
g28
sg467
L3L
sg468
(I6
I3
I9
tp565
sg22
I1
sg20
F1.5667756325565279
sg23
F3.8167022188426927
sVY
L3L
sVX
L5L
sg470
g478
sg35
g36
sg37
g38
sg21
S'9'
sg19
S'space'
p566
sg34
g11
sg472
L9L
sg473
g501
sg475
L9L
sS'block.thisIndex'
p567
I5
sg477
VTIMES
p568
sg479
L0L
sg480
VBUUxy
p569
sa(dp570
S'block.thisTrialN'
p571
I10
sS'block.thisRepN'
p572
I0
sg29
g33
sS'block.thisN'
p573
I10
sg465
(S'SUBTRACT'
S'TRIPLE'
S'DECREASE'
S'x'
S'y'
tp574
sg27
g28
sg467
L3L
sg468
(I4
I12
I3
tp575
sg22
I1
sg20
F1.200116207357496
sg23
F4.9000604986213148
sVY
L9L
sVX
L5L
sg470
g492
sg35
g36
sg37
g38
sg21
S'3'
sg19
S'space'
p576
sg34
g11
sg472
L3L
sg473
g490
sg475
L3L
sS'block.thisIndex'
p577
I4
sg477
g474
sg479
L0L
sg480
g569
sa(dp578
S'block.thisTrialN'
p579
I11
sS'block.thisRepN'
p580
I0
sg29
g33
sS'block.thisN'
p581
I11
sg465
(S'THIRD'
S'DECREASE'
S'TIMES'
S'HALF'
S'x'
S'y'
tp582
sg27
g28
sg467
L4L
sg468
(I4
I16
I15
I5
tp583
sg22
I1
sg20
F2.6334229692583904
sg23
F3.4167107149260119
sVY
L4L
sVX
L8L
sg470
g568
sg35
g36
sg37
g38
sg21
S'5'
sg19
S'space'
p584
sg34
g11
sg472
L5L
sg473
g492
sg475
L5L
sS'block.thisIndex'
p585
I15
sg477
g514
sg479
g501
sg480
g494
sa(dp586
S'block.thisTrialN'
p587
I12
sS'block.thisRepN'
p588
I0
sg29
g33
sS'block.thisN'
p589
I12
sg465
(S'DOUBLE'
S'DIVIDE'
S'TRIPLE'
S'INCREASE'
S'x'
S'y'
tp590
sg27
g28
sg467
L4L
sg468
(I5
I15
I3
I6
tp591
sg22
I1
sg20
F2.1499249327462167
sg23
F10.216634421725757
sVY
L5L
sVX
L4L
sg470
g490
sg35
g36
sg37
g38
sg21
S'6'
sg19
S'space'
p592
sg34
g11
sg472
L6L
sg473
g488
sg475
L6L
sS'block.thisIndex'
p593
I12
sg477
g493
sg479
g478
sg480
g505
sa(dp594
S'block.thisTrialN'
p595
I13
sS'block.thisRepN'
p596
I0
sg29
g33
sS'block.thisN'
p597
I13
sg465
(S'TIMES'
S'DOUBLE'
S'x'
S'y'
tp598
sg27
g28
sg467
L2L
sg468
(I4
I8
tp599
sg22
I1
sg20
F0.66678754973690957
sg23
F1.4667582982219756
sVY
L2L
sVX
L2L
sg470
L0L
sg35
g36
sg37
g38
sg21
S'8'
sg19
S'space'
p600
sg34
g11
sg472
L8L
sg473
g493
sg475
L8L
sS'block.thisIndex'
p601
I1
sg477
g568
sg479
L0L
sg480
g523
sa(dp602
S'block.thisTrialN'
p603
I14
sS'block.thisRepN'
p604
I0
sg29
g33
sS'block.thisN'
p605
I14
sg465
(S'THIRD'
S'TIMES'
S'HALF'
S'x'
S'y'
tp606
sg27
g28
sg467
L3L
sg468
(I3
I18
I6
tp607
sg22
I1
sg20
F2.3167070655617863
sg23
F2.500102921621874
sVY
L6L
sVX
L6L
sg470
g501
sg35
g36
sg37
g38
sg21
S'6'
sg19
S'space'
p608
sg34
g11
sg472
L6L
sg473
g568
sg475
L6L
sS'block.thisIndex'
p609
I7
sg477
g514
sg479
L0L
sg480
g559
sa(dp610
S'block.thisTrialN'
p611
I15
sS'block.thisRepN'
p612
I0
sg29
g33
sS'block.thisN'
p613
I15
sg465
(S'SUBTRACT'
S'DOUBLE'
S'TRIPLE'
S'DECREASE'
S'x'
S'y'
tp614
sg27
g28
sg467
L4L
sg468
(I2
I6
I12
I8
tp615
sg22
I1
sg20
F2.0667593817925081
sg23
F9.6166789544513449
sVY
L4L
sVX
L3L
sg470
g490
sg35
g36
sg37
g38
sg21
S'8'
sg19
S'space'
p616
sg34
g11
sg472
L8L
sg473
g493
sg475
L8L
sS'block.thisIndex'
p617
I10
sg477
g474
sg479
g492
sg480
g532
sa(dp618
S'block.thisTrialN'
p619
I16
sS'block.thisRepN'
p620
I0
sg29
g33
sS'block.thisN'
p621
I16
sg465
(S'DOUBLE'
S'THIRD'
S'TIMES'
S'x'
S'y'
tp622
sg27
g28
sg467
L3L
sg468
(I12
I4
I8
tp623
sg22
I1
sg20
F1.950102950213477
sg23
F4.6001305194804445
sVY
L6L
sVX
L2L
sg470
g568
sg35
g36
sg37
g38
sg21
S'8'
sg19
S'space'
p624
sg34
g11
sg472
L8L
sg473
g514
sg475
L8L
sS'block.thisIndex'
p625
I9
sg477
g493
sg479
L0L
sg480
g550
sa(dp626
S'block.thisTrialN'
p627
I17
sS'block.thisRepN'
p628
I0
sg29
g33
sS'block.thisN'
p629
I17
sg465
(S'HALF'
S'TRIPLE'
S'INCREASE'
S'SUBTRACT'
S'x'
S'y'
tp630
sg27
g28
sg467
L4L
sg468
(I1
I2
I6
I3
tp631
sg22
I1
sg20
F4.200075437896885
sg23
F3.3500935988267884
sVY
L2L
sVX
L3L
sg470
g478
sg35
g36
sg37
g38
sg21
S'3'
sg19
S'space'
p632
sg34
g11
sg472
L3L
sg473
g490
sg475
L3L
sS'block.thisIndex'
p633
I17
sg477
g501
sg479
g474
sg480
g541
sa(dp634
S'block.thisTrialN'
p635
I0
sS'block.thisRepN'
p636
I0
sg29
g33
sS'block.thisN'
p637
I0
sVRule
p638
(S'DOUBLE'
S'THIRD'
S'ADD'
S'x'
S'y'
tp639
sg27
g28
sVLength
p640
L3L
sVIntermediate
p641
(I9
I3
I6
tp642
sg22
I1
sg20
F1.4004011949291453
sg23
F2.4833802895154804
sVY
L4L
sVX
L5L
sVOperatorc
p643
VADD
p644
sg35
g36
sg37
g38
sg21
S'6'
sg19
S'space'
p645
sg34
g11
sVResult
p646
L6L
sVOperatora
p647
Vthird
p648
sVCorrectResponse
p649
L6L
sS'block.thisIndex'
p650
I8
sVOperatorb
p651
Vdouble
p652
sVOperatord
p653
L0L
sVStructure
p654
VUUBxy
p655
sa(dp656
S'block.thisTrialN'
p657
I1
sS'block.thisRepN'
p658
I0
sg29
g33
sS'block.thisN'
p659
I1
sg638
(S'ADD'
S'DECREASE'
S'x'
S'y'
tp660
sg27
g28
sg640
L2L
sg641
(I2
I7
tp661
sg22
I1
sg20
F0.71677241078577936
sg23
F1.4668931514024734
sVY
L5L
sVX
L3L
sg643
L0L
sg35
g36
sg37
g38
sg21
S'7'
sg19
S'space'
p662
sg34
g11
sg646
L7L
sg647
Vdecrease
p663
sg649
L7L
sS'block.thisIndex'
p664
I0
sg651
g644
sg653
L0L
sg654
VBUxy
p665
sa(dp666
S'block.thisTrialN'
p667
I2
sS'block.thisRepN'
p668
I0
sg29
g33
sS'block.thisN'
p669
I2
sg638
(S'DOUBLE'
S'SUBTRACT'
S'INCREASE'
S'x'
S'y'
tp670
sg27
g28
sg640
L3L
sg641
(I4
I1
I2
tp671
sg22
I1
sg20
F1.9499301787000149
sg23
F1.6500595007091761
sVY
L3L
sVX
L3L
sg643
Vincrease
p672
sg35
g36
sg37
g38
sg21
S'2'
sg19
S'space'
p673
sg34
g11
sg646
L2L
sg647
VSUBTRACT
p674
sg649
L2L
sS'block.thisIndex'
p675
I6
sg651
g652
sg653
L0L
sg654
VUBUxy
p676
sa(dp677
S'block.thisTrialN'
p678
I3
sS'block.thisRepN'
p679
I0
sg29
g33
sS'block.thisN'
p680
I3
sg638
(S'ADD'
S'TRIPLE'
S'HALF'
S'x'
S'y'
tp681
sg27
g28
sg640
L3L
sg641
(I2
I6
I8
tp682
sg22
I1
sg20
F1.1834223705809563
sg23
F2.7000135708367452
sVY
L2L
sVX
L4L
sg643
Vhalf
p683
sg35
g36
sg37
g38
sg21
S'8'
sg19
S'space'
p684
sg34
g11
sg646
L8L
sg647
Vtriple
p685
sg649
L8L
sS'block.thisIndex'
p686
I5
sg651
g644
sg653
L0L
sg654
VBUUxy
p687
sa(dp688
S'block.thisTrialN'
p689
I4
sS'block.thisRepN'
p690
I0
sg29
g33
sS'block.thisN'
p691
I4
sg638
(S'INCREASE'
S'ADD'
S'HALF'
S'x'
S'y'
tp692
sg27
g28
sg640
L3L
sg641
(I1
I4
I5
tp693
sg22
I1
sg20
F1.8499561798525974
sg23
F2.9501688085729256
sVY
L3L
sVX
L2L
sg643
g683
sg35
g36
sg37
g38
sg21
S'5'
sg19
S'space'
p694
sg34
g11
sg646
L5L
sg647
g644
sg649
L5L
sS'block.thisIndex'
p695
I7
sg651
g672
sg653
L0L
sg654
g676
sa(dp696
S'block.thisTrialN'
p697
I5
sS'block.thisRepN'
p698
I0
sg29
g33
sS'block.thisN'
p699
I5
sg638
(S'DECREASE'
S'TRIPLE'
S'SUBTRACT'
S'DOUBLE'
S'x'
S'y'
tp700
sg27
g28
sg640
L4L
sg641
(I6
I3
I9
I8
tp701
sg22
I1
sg20
F3.3334887137170881
sg23
F4.7667840715730563
sVY
L3L
sVX
L3L
sg643
g674
sg35
g36
sg37
g38
sg21
S'8'
sg19
S'space'
p702
sg34
g11
sg646
L8L
sg647
g685
sg649
L8L
sS'block.thisIndex'
p703
I15
sg651
g663
sg653
g652
sg654
VUUBUxy
p704
sa(dp705
S'block.thisTrialN'
p706
I6
sS'block.thisRepN'
p707
I0
sg29
g33
sS'block.thisN'
p708
I6
sg638
(S'DECREASE'
S'ADD'
S'THIRD'
S'HALF'
S'x'
S'y'
tp709
sg27
g28
sg640
L4L
sg641
(I3
I1
I7
I6
tp710
sg22
I1
sg20
F2.0833135187858716
sg23
F3.5167668227804825
sVY
L6L
sVX
L6L
sg643
g648
sg35
g36
sg37
g38
sg21
S'6'
sg19
S'space'
p711
sg34
g11
sg646
L6L
sg647
g644
sg649
L6L
sS'block.thisIndex'
p712
I12
sg651
g663
sg653
g683
sg654
VUBUUxy
p713
sa(dp714
S'block.thisTrialN'
p715
I7
sS'block.thisRepN'
p716
I0
sg29
g33
sS'block.thisN'
p717
I7
sg638
(S'HALF'
S'ADD'
S'x'
S'y'
tp718
sg27
g28
sg640
L2L
sg641
(I12
I6
tp719
sg22
I1
sg20
F0.93337689689360559
sg23
F1.4168538358062506
sVY
L8L
sVX
L4L
sg643
L0L
sg35
g36
sg37
g38
sg21
S'6'
sg19
S'space'
p720
sg34
g11
sg646
L6L
sg647
g644
sg649
L6L
sS'block.thisIndex'
p721
I3
sg651
g683
sg653
L0L
sg654
VUBxy
p722
sa(dp723
S'block.thisTrialN'
p724
I8
sS'block.thisRepN'
p725
I0
sg29
g33
sS'block.thisN'
p726
I8
sg638
(S'ADD'
S'DOUBLE'
S'DECREASE'
S'x'
S'y'
tp727
sg27
g28
sg640
L3L
sg641
(I1
I2
I7
tp728
sg22
I1
sg20
F1.3667654829332605
sg23
F3.3834045801777393
sVY
L5L
sVX
L2L
sg643
g663
sg35
g36
sg37
g38
sg21
S'7'
sg19
S'space'
p729
sg34
g11
sg646
L7L
sg647
g652
sg649
L7L
sS'block.thisIndex'
p730
I4
sg651
g644
sg653
L0L
sg654
g687
sa(dp731
S'block.thisTrialN'
p732
I9
sS'block.thisRepN'
p733
I0
sg29
g33
sS'block.thisN'
p734
I9
sg638
(S'DECREASE'
S'SUBTRACT'
S'DOUBLE'
S'THIRD'
S'x'
S'y'
tp735
sg27
g28
sg640
L4L
sg641
(I3
I6
I4
I3
tp736
sg22
I1
sg20
F2.2833436254877597
sg23
F7.4999509624904022
sVY
L2L
sVX
L9L
sg643
g652
sg35
g36
sg37
g38
sg21
S'3'
sg19
S'space'
p737
sg34
g11
sg646
L3L
sg647
g674
sg649
L3L
sS'block.thisIndex'
p738
I13
sg651
g663
sg653
g648
sg654
g713
sa(dp739
S'block.thisTrialN'
p740
I10
sS'block.thisRepN'
p741
I0
sg29
g33
sS'block.thisN'
p742
I10
sg638
(S'INCREASE'
S'HALF'
S'THIRD'
S'TIMES'
S'x'
S'y'
tp743
sg27
g28
sg640
L4L
sg641
(I12
I4
I2
I3
tp744
sg22
I1
sg20
F2.1501150954281911
sg23
F3.6666926109464839
sVY
L4L
sVX
L3L
sg643
g648
sg35
g36
sg37
g38
sg21
S'3'
sg19
S'space'
p745
sg34
g11
sg646
L3L
sg647
g683
sg649
L3L
sS'block.thisIndex'
p746
I16
sg651
g672
sg653
VTIMES
p747
sg654
VUUUBxy
p748
sa(dp749
S'block.thisTrialN'
p750
I11
sS'block.thisRepN'
p751
I0
sg29
g33
sS'block.thisN'
p752
I11
sg638
(S'ADD'
S'TRIPLE'
S'DOUBLE'
S'DECREASE'
S'x'
S'y'
tp753
sg27
g28
sg640
L4L
sg641
(I1
I2
I6
I8
tp754
sg22
I1
sg20
F2.4500336705241352
sg23
F3.7832101980457082
sVY
L2L
sVX
L2L
sg643
g652
sg35
g36
sg37
g38
sg21
S'8'
sg19
S'space'
p755
sg34
g11
sg646
L8L
sg647
g685
sg649
L8L
sS'block.thisIndex'
p756
I11
sg651
g644
sg653
g663
sg654
VBUUUxy
p757
sa(dp758
S'block.thisTrialN'
p759
I12
sS'block.thisRepN'
p760
I0
sg29
g33
sS'block.thisN'
p761
I12
sg638
(S'DECREASE'
S'TIMES'
S'x'
S'y'
tp762
sg27
g28
sg640
L2L
sg641
(I9
I8
tp763
sg22
I1
sg20
F0.8334282721625641
sg23
F1.1166937798261642
sVY
L3L
sVX
L3L
sg643
L0L
sg35
g36
sg37
g38
sg21
S'8'
sg19
S'space'
p764
sg34
g11
sg646
L8L
sg647
g747
sg649
L8L
sS'block.thisIndex'
p765
I2
sg651
g663
sg653
L0L
sg654
g722
sa(dp766
S'block.thisTrialN'
p767
I13
sS'block.thisRepN'
p768
I0
sg29
g33
sS'block.thisN'
p769
I13
sg638
(S'ADD'
S'DECREASE'
S'THIRD'
S'DOUBLE'
S'x'
S'y'
tp770
sg27
g28
sg640
L4L
sg641
(I18
I6
I5
I9
tp771
sg22
I1
sg20
F2.1500626368215308
sg23
F3.833441101713106
sVY
L4L
sVX
L9L
sg643
g648
sg35
g36
sg37
g38
sg21
S'9'
sg19
S'space'
p772
sg34
g11
sg646
L9L
sg647
g663
sg649
L9L
sS'block.thisIndex'
p773
I10
sg651
g644
sg653
g652
sg654
g757
sa(dp774
S'block.thisTrialN'
p775
I14
sS'block.thisRepN'
p776
I0
sg29
g33
sS'block.thisN'
p777
I14
sg638
(S'DECREASE'
S'DOUBLE'
S'TIMES'
S'THIRD'
S'x'
S'y'
tp778
sg27
g28
sg640
L4L
sg641
(I1
I3
I6
I5
tp779
sg22
I1
sg20
F2.0001716311089694
sg23
F4.03343015385326
sVY
L3L
sVX
L3L
sg643
g747
sg35
g36
sg37
g38
sg21
S'5'
sg19
S'space'
p780
sg34
g11
sg646
L5L
sg647
g652
sg649
L5L
sS'block.thisIndex'
p781
I14
sg651
g663
sg653
g648
sg654
g704
sa(dp782
S'block.thisTrialN'
p783
I15
sS'block.thisRepN'
p784
I0
sg29
g33
sS'block.thisN'
p785
I15
sg638
(S'HALF'
S'INCREASE'
S'TIMES'
S'x'
S'y'
tp786
sg27
g28
sg640
L3L
sg641
(I9
I10
I5
tp787
sg22
I1
sg20
F1.2332797913113609
sg23
F2.3833321644924581
sVY
L3L
sVX
L3L
sg643
g747
sg35
g36
sg37
g38
sg21
S'5'
sg19
S'space'
p788
sg34
g11
sg646
L5L
sg647
g672
sg649
L5L
sS'block.thisIndex'
p789
I9
sg651
g683
sg653
L0L
sg654
g655
sa(dp790
S'block.thisTrialN'
p791
I16
sS'block.thisRepN'
p792
I0
sg29
g33
sS'block.thisN'
p793
I16
sg638
(S'THIRD'
S'HALF'
S'INCREASE'
S'SUBTRACT'
S'x'
S'y'
tp794
sg27
g28
sg640
L4L
sg641
(I5
I6
I3
I1
tp795
sg22
I1
sg20
F1.9834478587144986
sg23
F2.666637871414423
sVY
L2L
sVX
L7L
sg643
g672
sg35
g36
sg37
g38
sg21
S'1'
sg19
S'space'
p796
sg34
g11
sg646
L1L
sg647
g683
sg649
L1L
sS'block.thisIndex'
p797
I17
sg651
g648
sg653
g674
sg654
g748
sa(dp798
S'block.thisTrialN'
p799
I17
sS'block.thisRepN'
p800
I0
sg29
g33
sS'block.thisN'
p801
I17
sg638
(S'DIVIDE'
S'DECREASE'
S'x'
S'y'
tp802
sg27
g28
sg640
L2L
sg641
(I8
I2
tp803
sg22
I1
sg20
F0.76675613154657185
sg23
F2.1667154190363362
sVY
L4L
sVX
L9L
sg643
L0L
sg35
g36
sg37
g38
sg21
S'2'
sg19
S'space'
p804
sg34
g11
sg646
L2L
sg647
g663
sg649
L2L
sS'block.thisIndex'
p805
I1
sg651
VDIVIDE
p806
sg653
L0L
sg654
g665
sa(dp807
S'block.thisTrialN'
p808
I0
sS'block.thisRepN'
p809
I0
sg29
g33
sS'block.thisN'
p810
I0
sVRule
p811
(S'DECREASE'
S'DIVIDE'
S'x'
S'y'
tp812
sg27
g28
sVLength
p813
L2L
sVIntermediate
p814
(I2
I1
tp815
sg22
I1
sg20
F0.90018822415731847
sg23
F1.5834138744976372
sVY
L4L
sVX
L8L
sVOperatorc
p816
L0L
sg35
g36
sg37
g38
sg21
S'1'
sg19
S'space'
p817
sg34
g11
sVResult
p818
L1L
sVOperatora
p819
VDIVIDE
p820
sVCorrectResponse
p821
L1L
sS'block.thisIndex'
p822
I2
sVOperatorb
p823
Vdecrease
p824
sVOperatord
p825
L0L
sVStructure
p826
VUBxy
p827
sa(dp828
S'block.thisTrialN'
p829
I1
sS'block.thisRepN'
p830
I0
sg29
g33
sS'block.thisN'
p831
I1
sg811
(S'DIVIDE'
S'INCREASE'
S'x'
S'y'
tp832
sg27
g28
sg813
L2L
sg814
(I4
I2
tp833
sg22
I1
sg20
F0.80017915775533766
sg23
F1.0500752383377403
sVY
L2L
sVX
L3L
sg816
L0L
sg35
g36
sg37
g38
sg21
S'2'
sg19
S'space'
p834
sg34
g11
sg818
L2L
sg819
Vincrease
p835
sg821
L2L
sS'block.thisIndex'
p836
I0
sg823
g820
sg825
L0L
sg826
VBUxy
p837
sa(dp838
S'block.thisTrialN'
p839
I2
sS'block.thisRepN'
p840
I0
sg29
g33
sS'block.thisN'
p841
I2
sg811
(S'THIRD'
S'TIMES'
S'DOUBLE'
S'DECREASE'
S'x'
S'y'
tp842
sg27
g28
sg813
L4L
sg814
(I1
I2
I6
I2
tp843
sg22
I1
sg20
F2.0333087005419657
sg23
F5.7666118701454252
sVY
L3L
sVX
L2L
sg816
Vdouble
p844
sg35
g36
sg37
g38
sg21
S'2'
sg19
S'space'
p845
sg34
g11
sg818
L2L
sg819
VTIMES
p846
sg821
L2L
sS'block.thisIndex'
p847
I13
sg823
Vthird
p848
sg825
g824
sg826
VUBUUxy
p849
sa(dp850
S'block.thisTrialN'
p851
I3
sS'block.thisRepN'
p852
I0
sg29
g33
sS'block.thisN'
p853
I3
sg811
(S'HALF'
S'TRIPLE'
S'INCREASE'
S'DIVIDE'
S'x'
S'y'
tp854
sg27
g28
sg813
L4L
sg814
(I3
I4
I12
I6
tp855
sg22
I1
sg20
F2.2833342171506956
sg23
F3.3832702974323183
sVY
L3L
sVX
L9L
sg816
g835
sg35
g36
sg37
g38
sg21
S'6'
sg19
S'space'
p856
sg34
g11
sg818
L6L
sg819
Vtriple
p857
sg821
L6L
sS'block.thisIndex'
p858
I16
sg823
Vhalf
p859
sg825
g820
sg826
VUUUBxy
p860
sa(dp861
S'block.thisTrialN'
p862
I4
sS'block.thisRepN'
p863
I0
sg29
g33
sS'block.thisN'
p864
I4
sg811
(S'HALF'
S'ADD'
S'TRIPLE'
S'x'
S'y'
tp865
sg27
g28
sg813
L3L
sg814
(I9
I12
I6
tp866
sg22
I1
sg20
F0.98325113859027624
sg23
F2.3335739589529112
sVY
L3L
sVX
L3L
sg816
g857
sg35
g36
sg37
g38
sg21
S'6'
sg19
S'space'
p867
sg34
g11
sg818
L6L
sg819
VADD
p868
sg821
L6L
sS'block.thisIndex'
p869
I6
sg823
g859
sg825
L0L
sg826
VUBUxy
p870
sa(dp871
S'block.thisTrialN'
p872
I5
sS'block.thisRepN'
p873
I0
sg29
g33
sS'block.thisN'
p874
I5
sg811
(S'ADD'
S'HALF'
S'THIRD'
S'x'
S'y'
tp875
sg27
g28
sg813
L3L
sg814
(I2
I1
I9
tp876
sg22
I1
sg20
F0.93342707469128072
sg23
F2.4500667422544211
sVY
L8L
sVX
L6L
sg816
g848
sg35
g36
sg37
g38
sg21
S'9'
sg19
S'space'
p877
sg34
g11
sg818
L9L
sg819
g859
sg821
L9L
sS'block.thisIndex'
p878
I4
sg823
g868
sg825
L0L
sg826
VBUUxy
p879
sa(dp880
S'block.thisTrialN'
p881
I6
sS'block.thisRepN'
p882
I0
sg29
g33
sS'block.thisN'
p883
I6
sg811
(S'SUBTRACT'
S'DECREASE'
S'TRIPLE'
S'DOUBLE'
S'x'
S'y'
tp884
sg27
g28
sg813
L4L
sg814
(I6
I18
I17
I8
tp885
sg22
I1
sg20
F2.2167501728981733
sg23
F9.8164838310331106
sVY
L9L
sVX
L3L
sg816
g857
sg35
g36
sg37
g38
sg21
S'8'
sg19
S'space'
p886
sg34
g11
sg818
L8L
sg819
g824
sg821
L8L
sS'block.thisIndex'
p887
I11
sg823
VSUBTRACT
p888
sg825
g844
sg826
VBUUUxy
p889
sa(dp890
S'block.thisTrialN'
p891
I7
sS'block.thisRepN'
p892
I0
sg29
g33
sS'block.thisN'
p893
I7
sg811
(S'ADD'
S'DOUBLE'
S'DECREASE'
S'THIRD'
S'x'
S'y'
tp894
sg27
g28
sg813
L4L
sg814
(I2
I1
I2
I8
tp895
sg22
I1
sg20
F2.2335110086714849
sg23
F3.6667231167666614
sVY
L6L
sVX
L6L
sg816
g824
sg35
g36
sg37
g38
sg21
S'8'
sg19
S'space'
p896
sg34
g11
sg818
L8L
sg819
g844
sg821
L8L
sS'block.thisIndex'
p897
I10
sg823
g868
sg825
g848
sg826
g889
sa(dp898
S'block.thisTrialN'
p899
I8
sS'block.thisRepN'
p900
I0
sg29
g33
sS'block.thisN'
p901
I8
sg811
(S'INCREASE'
S'ADD'
S'x'
S'y'
tp902
sg27
g28
sg813
L2L
sg814
(I5
I6
tp903
sg22
I1
sg20
F0.78335616993717849
sg23
F1.883512063533999
sVY
L2L
sVX
L3L
sg816
L0L
sg35
g36
sg37
g38
sg21
S'6'
sg19
S'space'
p904
sg34
g11
sg818
L6L
sg819
g868
sg821
L6L
sS'block.thisIndex'
p905
I3
sg823
g835
sg825
L0L
sg826
g827
sa(dp906
S'block.thisTrialN'
p907
I9
sS'block.thisRepN'
p908
I0
sg29
g33
sS'block.thisN'
p909
I9
sg811
(S'THIRD'
S'HALF'
S'ADD'
S'x'
S'y'
tp910
sg27
g28
sg813
L3L
sg814
(I6
I3
I1
tp911
sg22
I1
sg20
F1.7335258339298889
sg23
F3.0000872410601005
sVY
L3L
sVX
L3L
sg816
g868
sg35
g36
sg37
g38
sg21
S'1'
sg19
S'space'
p912
sg34
g11
sg818
L1L
sg819
g859
sg821
L1L
sS'block.thisIndex'
p913
I9
sg823
g848
sg825
L0L
sg826
VUUBxy
p914
sa(dp915
S'block.thisTrialN'
p916
I10
sS'block.thisRepN'
p917
I0
sg29
g33
sS'block.thisN'
p918
I10
sg811
(S'THIRD'
S'DOUBLE'
S'INCREASE'
S'TIMES'
S'x'
S'y'
tp919
sg27
g28
sg813
L4L
sg814
(I8
I9
I18
I6
tp920
sg22
I1
sg20
F1.4667762597091496
sg23
F5.2001832062378526
sVY
L4L
sVX
L2L
sg816
g835
sg35
g36
sg37
g38
sg21
S'6'
sg19
S'space'
p921
sg34
g11
sg818
L6L
sg819
g844
sg821
L6L
sS'block.thisIndex'
p922
I17
sg823
g848
sg825
g846
sg826
g860
sa(dp923
S'block.thisTrialN'
p924
I11
sS'block.thisRepN'
p925
I0
sg29
g33
sS'block.thisN'
p926
I11
sg811
(S'INCREASE'
S'TRIPLE'
S'DIVIDE'
S'x'
S'y'
tp927
sg27
g28
sg813
L3L
sg814
(I2
I6
I7
tp928
sg22
I1
sg20
F1.2167898020707071
sg23
F1.8000072415452451
sVY
L3L
sVX
L6L
sg816
g820
sg35
g36
sg37
g38
sg21
S'7'
sg19
S'space'
p929
sg34
g11
sg818
L7L
sg819
g857
sg821
L7L
sS'block.thisIndex'
p930
I8
sg823
g835
sg825
L0L
sg826
g914
sa(dp931
S'block.thisTrialN'
p932
I12
sS'block.thisRepN'
p933
I0
sg29
g33
sS'block.thisN'
p934
I12
sg811
(S'THIRD'
S'INCREASE'
S'DIVIDE'
S'DOUBLE'
S'x'
S'y'
tp935
sg27
g28
sg813
L4L
sg814
(I18
I2
I3
I1
tp936
sg22
I1
sg20
F2.6334779937751591
sg23
F4.499921026872471
sVY
L9L
sVX
L9L
sg816
g820
sg35
g36
sg37
g38
sg21
S'1'
sg19
S'space'
p937
sg34
g11
sg818
L1L
sg819
g835
sg821
L1L
sS'block.thisIndex'
p938
I15
sg823
g848
sg825
g844
sg826
VUUBUxy
p939
sa(dp940
S'block.thisTrialN'
p941
I13
sS'block.thisRepN'
p942
I0
sg29
g33
sS'block.thisN'
p943
I13
sg811
(S'SUBTRACT'
S'DECREASE'
S'x'
S'y'
tp944
sg27
g28
sg813
L2L
sg814
(I5
I3
tp945
sg22
I1
sg20
F0.78355117945466191
sg23
F2.9169387960573658
sVY
L2L
sVX
L6L
sg816
L0L
sg35
g36
sg37
g38
sg21
S'3'
sg19
S'space'
p946
sg34
g11
sg818
L3L
sg819
g824
sg821
L3L
sS'block.thisIndex'
p947
I1
sg823
g888
sg825
L0L
sg826
g837
sa(dp948
S'block.thisTrialN'
p949
I14
sS'block.thisRepN'
p950
I0
sg29
g33
sS'block.thisN'
p951
I14
sg811
(S'DOUBLE'
S'ADD'
S'INCREASE'
S'THIRD'
S'x'
S'y'
tp952
sg27
g28
sg813
L4L
sg814
(I1
I2
I4
I8
tp953
sg22
I1
sg20
F2.7001461430918425
sg23
F3.5833460203139111
sVY
L2L
sVX
L3L
sg816
g835
sg35
g36
sg37
g38
sg21
S'8'
sg19
S'space'
p954
sg34
g11
sg818
L8L
sg819
g868
sg821
L8L
sS'block.thisIndex'
p955
I12
sg823
g844
sg825
g848
sg826
g849
sa(dp956
S'block.thisTrialN'
p957
I15
sS'block.thisRepN'
p958
I0
sg29
g33
sS'block.thisN'
p959
I15
sg811
(S'INCREASE'
S'SUBTRACT'
S'HALF'
S'x'
S'y'
tp960
sg27
g28
sg813
L3L
sg814
(I4
I2
I3
tp961
sg22
I1
sg20
F1.1334717216668651
sg23
F3.2001284667057917
sVY
L2L
sVX
L8L
sg816
g859
sg35
g36
sg37
g38
sg21
S'3'
sg19
S'space'
p962
sg34
g11
sg818
L3L
sg819
g888
sg821
L3L
sS'block.thisIndex'
p963
I7
sg823
g835
sg825
L0L
sg826
g870
sa(dp964
S'block.thisTrialN'
p965
I16
sS'block.thisRepN'
p966
I0
sg29
g33
sS'block.thisN'
p967
I16
sg811
(S'DIVIDE'
S'DECREASE'
S'TRIPLE'
S'x'
S'y'
tp968
sg27
g28
sg813
L3L
sg814
(I9
I8
I4
tp969
sg22
I1
sg20
F1.0167830736609176
sg23
F2.8333946301136166
sVY
L2L
sVX
L3L
sg816
g857
sg35
g36
sg37
g38
sg21
S'4'
sg19
S'space'
p970
sg34
g11
sg818
L4L
sg819
g824
sg821
L4L
sS'block.thisIndex'
p971
I5
sg823
g820
sg825
L0L
sg826
g879
sa(dp972
S'block.thisTrialN'
p973
I17
sS'block.thisRepN'
p974
I0
sg29
g33
sS'block.thisN'
p975
I17
sg811
(S'THIRD'
S'DOUBLE'
S'ADD'
S'DECREASE'
S'x'
S'y'
tp976
sg27
g28
sg813
L4L
sg814
(I5
I12
I24
I8
tp977
sg22
I1
sg20
F2.1835327048320323
sg23
F4.3834630260244012
sVY
L7L
sVX
L6L
sg816
g868
sg35
g36
sg37
g38
sg21
S'8'
sg19
S'space'
p978
sg34
g11
sg818
L8L
sg819
g844
sg821
L8L
sS'block.thisIndex'
p979
I14
sg823
g848
sg825
g824
sg826
g939
sa(dp980
S'block.thisTrialN'
p981
I0
sS'block.thisRepN'
p982
I0
sg29
g33
sS'block.thisN'
p983
I0
sVRule
p984
(S'DECREASE'
S'TRIPLE'
S'DIVIDE'
S'x'
S'y'
tp985
sg27
g28
sVLength
p986
L3L
sVIntermediate
p987
(I2
I6
I5
tp988
sg22
I1
sg20
F1.0502069552894682
sg23
F2.5501536411466077
sVY
L4L
sVX
L8L
sVOperatorc
p989
VDIVIDE
p990
sg35
g36
sg37
g38
sg21
S'5'
sg19
S'space'
p991
sg34
g11
sVResult
p992
L5L
sVOperatora
p993
Vtriple
p994
sVCorrectResponse
p995
L5L
sS'block.thisIndex'
p996
I8
sVOperatorb
p997
Vdecrease
p998
sVOperatord
p999
L0L
sVStructure
p1000
VUUBxy
p1001
sa(dp1002
S'block.thisTrialN'
p1003
I1
sS'block.thisRepN'
p1004
I0
sg29
g33
sS'block.thisN'
p1005
I1
sg984
(S'SUBTRACT'
S'INCREASE'
S'x'
S'y'
tp1006
sg27
g28
sg986
L2L
sg987
(I6
I2
tp1007
sg22
I1
sg20
F0.71674789220560342
sg23
F2.516903386451304
sVY
L4L
sVX
L5L
sg989
L0L
sg35
g36
sg37
g38
sg21
S'2'
sg19
S'space'
p1008
sg34
g11
sg992
L2L
sg993
Vincrease
p1009
sg995
L2L
sS'block.thisIndex'
p1010
I1
sg997
VSUBTRACT
p1011
sg999
L0L
sg1000
VBUxy
p1012
sa(dp1013
S'block.thisTrialN'
p1014
I2
sS'block.thisRepN'
p1015
I0
sg29
g33
sS'block.thisN'
p1016
I2
sg984
(S'DOUBLE'
S'TIMES'
S'x'
S'y'
tp1017
sg27
g28
sg986
L2L
sg987
(I4
I8
tp1018
sg22
I1
sg20
F0.65010226599406451
sg23
F2.5335068461718038
sVY
L2L
sVX
L2L
sg989
L0L
sg35
g36
sg37
g38
sg21
S'8'
sg19
S'space'
p1019
sg34
g11
sg992
L8L
sg993
VTIMES
p1020
sg995
L8L
sS'block.thisIndex'
p1021
I3
sg997
Vdouble
p1022
sg999
L0L
sg1000
VUBxy
p1023
sa(dp1024
S'block.thisTrialN'
p1025
I3
sS'block.thisRepN'
p1026
I0
sg29
g33
sS'block.thisN'
p1027
I3
sg984
(S'DOUBLE'
S'ADD'
S'x'
S'y'
tp1028
sg27
g28
sg986
L2L
sg987
(I4
I8
tp1029
sg22
I1
sg20
F0.78343314735684544
sg23
F1.7500557373277843
sVY
L2L
sVX
L2L
sg989
L0L
sg35
g36
sg37
g38
sg21
S'8'
sg19
S'space'
p1030
sg34
g11
sg992
L8L
sg993
VADD
p1031
sg995
L8L
sS'block.thisIndex'
p1032
I2
sg997
g1022
sg999
L0L
sg1000
g1023
sa(dp1033
S'block.thisTrialN'
p1034
I4
sS'block.thisRepN'
p1035
I0
sg29
g33
sS'block.thisN'
p1036
I4
sg984
(S'ADD'
S'THIRD'
S'x'
S'y'
tp1037
sg27
g28
sg986
L2L
sg987
(I1
I7
tp1038
sg22
I1
sg20
F2.3500531143508852
sg23
F2.1333485577488318
sVY
L6L
sVX
L3L
sg989
L0L
sg35
g36
sg37
g38
sg21
S'7'
sg19
S'space'
p1039
sg34
g11
sg992
L7L
sg993
Vthird
p1040
sg995
L7L
sS'block.thisIndex'
p1041
I0
sg997
g1031
sg999
L0L
sg1000
g1012
sa(dp1042
S'block.thisTrialN'
p1043
I5
sS'block.thisRepN'
p1044
I0
sg29
g33
sS'block.thisN'
p1045
I5
sg984
(S'THIRD'
S'INCREASE'
S'ADD'
S'DOUBLE'
S'x'
S'y'
tp1046
sg27
g28
sg986
L4L
sg987
(I16
I20
I21
I7
tp1047
sg22
I1
sg20
F1.916874363203533
sg23
F3.566719182417728
sVY
L4L
sVX
L8L
sg989
g1031
sg35
g36
sg37
g38
sg21
S'7'
sg19
S'space'
p1048
sg34
g11
sg992
L7L
sg993
g1009
sg995
L7L
sS'block.thisIndex'
p1049
I14
sg997
g1040
sg999
g1022
sg1000
VUUBUxy
p1050
sa(dp1051
S'block.thisTrialN'
p1052
I6
sS'block.thisRepN'
p1053
I0
sg29
g33
sS'block.thisN'
p1054
I6
sg984
(S'TRIPLE'
S'DOUBLE'
S'SUBTRACT'
S'DECREASE'
S'x'
S'y'
tp1055
sg27
g28
sg986
L4L
sg987
(I4
I1
I2
I6
tp1056
sg22
I1
sg20
F2.5334050649544224
sg23
F3.750090234563686
sVY
L3L
sVX
L5L
sg989
g1011
sg35
g36
sg37
g38
sg21
S'6'
sg19
S'space'
p1057
sg34
g11
sg992
L6L
sg993
g1022
sg995
L6L
sS'block.thisIndex'
p1058
I15
sg997
g994
sg999
g998
sg1000
g1050
sa(dp1059
S'block.thisTrialN'
p1060
I7
sS'block.thisRepN'
p1061
I0
sg29
g33
sS'block.thisN'
p1062
I7
sg984
(S'DIVIDE'
S'TRIPLE'
S'HALF'
S'x'
S'y'
tp1063
sg27
g28
sg986
L3L
sg987
(I4
I12
I4
tp1064
sg22
I1
sg20
F2.0835304810898378
sg23
F2.5167434444883838
sVY
L3L
sVX
L8L
sg989
Vhalf
p1065
sg35
g36
sg37
g38
sg21
S'4'
sg19
S'space'
p1066
sg34
g11
sg992
L4L
sg993
g994
sg995
L4L
sS'block.thisIndex'
p1067
I4
sg997
g990
sg999
L0L
sg1000
VBUUxy
p1068
sa(dp1069
S'block.thisTrialN'
p1070
I8
sS'block.thisRepN'
p1071
I0
sg29
g33
sS'block.thisN'
p1072
I8
sg984
(S'THIRD'
S'TIMES'
S'HALF'
S'INCREASE'
S'x'
S'y'
tp1073
sg27
g28
sg986
L4L
sg987
(I8
I4
I12
I4
tp1074
sg22
I1
sg20
F2.5666752767283469
sg23
F5.6667824178002775
sVY
L3L
sVX
L7L
sg989
g1065
sg35
g36
sg37
g38
sg21
S'4'
sg19
S'space'
p1075
sg34
g11
sg992
L4L
sg993
g1020
sg995
L4L
sS'block.thisIndex'
p1076
I13
sg997
g1040
sg999
g1009
sg1000
VUBUUxy
p1077
sa(dp1078
S'block.thisTrialN'
p1079
I9
sS'block.thisRepN'
p1080
I0
sg29
g33
sS'block.thisN'
p1081
I9
sg984
(S'TRIPLE'
S'DECREASE'
S'HALF'
S'SUBTRACT'
S'x'
S'y'
tp1082
sg27
g28
sg986
L4L
sg987
(I4
I2
I1
I3
tp1083
sg22
I1
sg20
F2.6167753188638017
sg23
F3.0835014007752761
sVY
L5L
sVX
L9L
sg989
g1065
sg35
g36
sg37
g38
sg21
S'3'
sg19
S'space'
p1084
sg34
g11
sg992
L3L
sg993
g998
sg995
L3L
sS'block.thisIndex'
p1085
I17
sg997
g994
sg999
g1011
sg1000
VUUUBxy
p1086
sa(dp1087
S'block.thisTrialN'
p1088
I10
sS'block.thisRepN'
p1089
I0
sg29
g33
sS'block.thisN'
p1090
I10
sg984
(S'INCREASE'
S'SUBTRACT'
S'THIRD'
S'x'
S'y'
tp1091
sg27
g28
sg986
L3L
sg987
(I3
I1
I2
tp1092
sg22
I1
sg20
F1.1001142687164247
sg23
F2.7333770109107718
sVY
L2L
sVX
L9L
sg989
g1040
sg35
g36
sg37
g38
sg21
S'2'
sg19
S'space'
p1093
sg34
g11
sg992
L2L
sg993
g1011
sg995
L2L
sS'block.thisIndex'
p1094
I7
sg997
g1009
sg999
L0L
sg1000
VUBUxy
p1095
sa(dp1096
S'block.thisTrialN'
p1097
I11
sS'block.thisRepN'
p1098
I0
sg29
g33
sS'block.thisN'
p1099
I11
sg984
(S'THIRD'
S'INCREASE'
S'SUBTRACT'
S'x'
S'y'
tp1100
sg27
g28
sg986
L3L
sg987
(I2
I3
I1
tp1101
sg22
I1
sg20
F0.90021017682738602
sg23
F2.0667305863462389
sVY
L6L
sVX
L8L
sg989
g1011
sg35
g36
sg37
g38
sg21
S'1'
sg19
S'space'
p1102
sg34
g11
sg992
L1L
sg993
g1009
sg995
L1L
sS'block.thisIndex'
p1103
I9
sg997
g1040
sg999
L0L
sg1000
g1001
sa(dp1104
S'block.thisTrialN'
p1105
I12
sS'block.thisRepN'
p1106
I0
sg29
g33
sS'block.thisN'
p1107
I12
sg984
(S'TIMES'
S'THIRD'
S'DOUBLE'
S'x'
S'y'
tp1108
sg27
g28
sg986
L3L
sg987
(I6
I2
I4
tp1109
sg22
I1
sg20
F1.7167846702504903
sg23
F3.5168760167434812
sVY
L2L
sVX
L3L
sg989
g1022
sg35
g36
sg37
g38
sg21
S'4'
sg19
S'space'
p1110
sg34
g11
sg992
L4L
sg993
g1040
sg995
L4L
sS'block.thisIndex'
p1111
I5
sg997
g1020
sg999
L0L
sg1000
g1068
sa(dp1112
S'block.thisTrialN'
p1113
I13
sS'block.thisRepN'
p1114
I0
sg29
g33
sS'block.thisN'
p1115
I13
sg984
(S'DECREASE'
S'TRIPLE'
S'HALF'
S'ADD'
S'x'
S'y'
tp1116
sg27
g28
sg986
L4L
sg987
(I6
I3
I9
I8
tp1117
sg22
I1
sg20
F3.1334663047455251
sg23
F2.85017371235881
sVY
L2L
sVX
L4L
sg989
g1065
sg35
g36
sg37
g38
sg21
S'8'
sg19
S'space'
p1118
sg34
g11
sg992
L8L
sg993
g994
sg995
L8L
sS'block.thisIndex'
p1119
I16
sg997
g998
sg999
g1031
sg1000
g1086
sa(dp1120
S'block.thisTrialN'
p1121
I14
sS'block.thisRepN'
p1122
I0
sg29
g33
sS'block.thisN'
p1123
I14
sg984
(S'DIVIDE'
S'DOUBLE'
S'INCREASE'
S'THIRD'
S'x'
S'y'
tp1124
sg27
g28
sg986
L4L
sg987
(I2
I3
I6
I2
tp1125
sg22
I1
sg20
F3.2999527871143073
sg23
F3.2499958659755066
sVY
L3L
sVX
L6L
sg989
g1009
sg35
g36
sg37
g38
sg21
S'2'
sg19
S'space'
p1126
sg34
g11
sg992
L2L
sg993
g1022
sg995
L2L
sS'block.thisIndex'
p1127
I10
sg997
g990
sg999
g1040
sg1000
VBUUUxy
p1128
sa(dp1129
S'block.thisTrialN'
p1130
I15
sS'block.thisRepN'
p1131
I0
sg29
g33
sS'block.thisN'
p1132
I15
sg984
(S'INCREASE'
S'ADD'
S'TRIPLE'
S'x'
S'y'
tp1133
sg27
g28
sg986
L3L
sg987
(I6
I8
I9
tp1134
sg22
I1
sg20
F0.96676143445074558
sg23
F2.8666237874422222
sVY
L2L
sVX
L2L
sg989
g994
sg35
g36
sg37
g38
sg21
S'9'
sg19
S'space'
p1135
sg34
g11
sg992
L9L
sg993
g1031
sg995
L9L
sS'block.thisIndex'
p1136
I6
sg997
g1009
sg999
L0L
sg1000
g1095
sa(dp1137
S'block.thisTrialN'
p1138
I16
sS'block.thisRepN'
p1139
I0
sg29
g33
sS'block.thisN'
p1140
I16
sg984
(S'TIMES'
S'INCREASE'
S'HALF'
S'TRIPLE'
S'x'
S'y'
tp1141
sg27
g28
sg986
L4L
sg987
(I6
I3
I4
I8
tp1142
sg22
I1
sg20
F1.6501461715670303
sg23
F3.6833841670304537
sVY
L2L
sVX
L2L
sg989
g1065
sg35
g36
sg37
g38
sg21
S'8'
sg19
S'space'
p1143
sg34
g11
sg992
L8L
sg993
g1009
sg995
L8L
sS'block.thisIndex'
p1144
I11
sg997
g1020
sg999
g994
sg1000
g1128
sa(dp1145
S'block.thisTrialN'
p1146
I17
sS'block.thisRepN'
p1147
I0
sg29
g33
sS'block.thisN'
p1148
I17
sg984
(S'INCREASE'
S'DIVIDE'
S'TRIPLE'
S'HALF'
S'x'
S'y'
tp1149
sg27
g28
sg986
L4L
sg987
(I2
I6
I2
I3
tp1150
sg22
I1
sg20
F2.8166075650369748
sg23
F3.3331534342141822
sVY
L3L
sVX
L4L
sg989
g994
sg35
g36
sg37
g38
sg21
S'3'
sg19
S'space'
p1151
sg34
g11
sg992
L3L
sg993
g990
sg995
L3L
sS'block.thisIndex'
p1152
I12
sg997
g1009
sg999
g1065
sg1000
g1077
sa(dp1153
S'block.thisTrialN'
p1154
I0
sS'block.thisRepN'
p1155
I0
sg29
g33
sS'block.thisN'
p1156
I0
sVRule
p1157
(S'SUBTRACT'
S'THIRD'
S'x'
S'y'
tp1158
sg27
g28
sVLength
p1159
L2L
sVIntermediate
p1160
(I3
I1
tp1161
sg22
I1
sg20
F0.83354117232374847
sg23
F2.6167793102795258
sVY
L2L
sVX
L9L
sVOperatorc
p1162
L0L
sg35
g36
sg37
g38
sg21
S'1'
sg19
S'space'
p1163
sg34
g11
sVResult
p1164
L1L
sVOperatora
p1165
Vthird
p1166
sVCorrectResponse
p1167
L1L
sS'block.thisIndex'
p1168
I0
sVOperatorb
p1169
VSUBTRACT
p1170
sVOperatord
p1171
L0L
sVStructure
p1172
VBUxy
p1173
sa(dp1174
S'block.thisTrialN'
p1175
I1
sS'block.thisRepN'
p1176
I0
sg29
g33
sS'block.thisN'
p1177
I1
sg1157
(S'TRIPLE'
S'SUBTRACT'
S'x'
S'y'
tp1178
sg27
g28
sg1159
L2L
sg1160
(I2
I6
tp1179
sg22
I1
sg20
F0.80000638624187559
sg23
F1.500109764165245
sVY
L6L
sVX
L8L
sg1162
L0L
sg35
g36
sg37
g38
sg21
S'6'
sg19
S'space'
p1180
sg34
g11
sg1164
L6L
sg1165
g1170
sg1167
L6L
sS'block.thisIndex'
p1181
I3
sg1169
Vtriple
p1182
sg1171
L0L
sg1172
VUBxy
p1183
sa(dp1184
S'block.thisTrialN'
p1185
I2
sS'block.thisRepN'
p1186
I0
sg29
g33
sS'block.thisN'
p1187
I2
sg1157
(S'THIRD'
S'INCREASE'
S'SUBTRACT'
S'HALF'
S'x'
S'y'
tp1188
sg27
g28
sg1159
L4L
sg1160
(I4
I2
I3
I1
tp1189
sg22
I1
sg20
F2.1834024135023355
sg23
F3.166623046156019
sVY
L2L
sVX
L8L
sg1162
g1170
sg35
g36
sg37
g38
sg21
S'1'
sg19
S'space'
p1190
sg34
g11
sg1164
L1L
sg1165
Vincrease
p1191
sg1167
L1L
sS'block.thisIndex'
p1192
I15
sg1169
g1166
sg1171
Vhalf
p1193
sg1172
VUUBUxy
p1194
sa(dp1195
S'block.thisTrialN'
p1196
I3
sS'block.thisRepN'
p1197
I0
sg29
g33
sS'block.thisN'
p1198
I3
sg1157
(S'INCREASE'
S'TRIPLE'
S'HALF'
S'ADD'
S'x'
S'y'
tp1199
sg27
g28
sg1159
L4L
sg1160
(I4
I2
I6
I7
tp1200
sg22
I1
sg20
F3.1833183084381744
sg23
F3.2001706617884338
sVY
L2L
sVX
L2L
sg1162
g1193
sg35
g36
sg37
g38
sg21
S'7'
sg19
S'space'
p1201
sg34
g11
sg1164
L7L
sg1165
g1182
sg1167
L7L
sS'block.thisIndex'
p1202
I17
sg1169
g1191
sg1171
VADD
p1203
sg1172
VUUUBxy
p1204
sa(dp1205
S'block.thisTrialN'
p1206
I4
sS'block.thisRepN'
p1207
I0
sg29
g33
sS'block.thisN'
p1208
I4
sg1157
(S'DECREASE'
S'HALF'
S'TRIPLE'
S'ADD'
S'x'
S'y'
tp1209
sg27
g28
sg1159
L4L
sg1160
(I4
I12
I6
I5
tp1210
sg22
I1
sg20
F2.433374045882374
sg23
F3.6000364359933883
sVY
L2L
sVX
L2L
sg1162
g1182
sg35
g36
sg37
g38
sg21
S'5'
sg19
S'space'
p1211
sg34
g11
sg1164
L5L
sg1165
g1193
sg1167
L5L
sS'block.thisIndex'
p1212
I16
sg1169
Vdecrease
p1213
sg1171
g1203
sg1172
g1204
sa(dp1214
S'block.thisTrialN'
p1215
I5
sS'block.thisRepN'
p1216
I0
sg29
g33
sS'block.thisN'
p1217
I5
sg1157
(S'TRIPLE'
S'SUBTRACT'
S'INCREASE'
S'HALF'
S'x'
S'y'
tp1218
sg27
g28
sg1159
L4L
sg1160
(I3
I4
I1
I3
tp1219
sg22
I1
sg20
F2.6000250319484621
sg23
F2.6666315991897136
sVY
L3L
sVX
L6L
sg1162
g1191
sg35
g36
sg37
g38
sg21
S'3'
sg19
S'space'
p1220
sg34
g11
sg1164
L3L
sg1165
g1170
sg1167
L3L
sS'block.thisIndex'
p1221
I13
sg1169
g1182
sg1171
g1193
sg1172
VUBUUxy
p1222
sa(dp1223
S'block.thisTrialN'
p1224
I6
sS'block.thisRepN'
p1225
I0
sg29
g33
sS'block.thisN'
p1226
I6
sg1157
(S'TIMES'
S'THIRD'
S'x'
S'y'
tp1227
sg27
g28
sg1159
L2L
sg1160
(I1
I4
tp1228
sg22
I1
sg20
F0.86686526832636446
sg23
F2.1332998054567724
sVY
L4L
sVX
L3L
sg1162
L0L
sg35
g36
sg37
g38
sg21
S'4'
sg19
S'space'
p1229
sg34
g11
sg1164
L4L
sg1165
g1166
sg1167
L4L
sS'block.thisIndex'
p1230
I1
sg1169
VTIMES
p1231
sg1171
L0L
sg1172
g1173
sa(dp1232
S'block.thisTrialN'
p1233
I7
sS'block.thisRepN'
p1234
I0
sg29
g33
sS'block.thisN'
p1235
I7
sg1157
(S'INCREASE'
S'TIMES'
S'x'
S'y'
tp1236
sg27
g28
sg1159
L2L
sg1160
(I8
I9
tp1237
sg22
I1
sg20
F0.80008307856041938
sg23
F1.3001420947257429
sVY
L4L
sVX
L2L
sg1162
L0L
sg35
g36
sg37
g38
sg21
S'9'
sg19
S'space'
p1238
sg34
g11
sg1164
L9L
sg1165
g1231
sg1167
L9L
sS'block.thisIndex'
p1239
I2
sg1169
g1191
sg1171
L0L
sg1172
g1183
sa(dp1240
S'block.thisTrialN'
p1241
I8
sS'block.thisRepN'
p1242
I0
sg29
g33
sS'block.thisN'
p1243
I8
sg1157
(S'INCREASE'
S'HALF'
S'TIMES'
S'TRIPLE'
S'x'
S'y'
tp1244
sg27
g28
sg1159
L4L
sg1160
(I6
I12
I6
I7
tp1245
sg22
I1
sg20
F2.0667713559232652
sg23
F3.6667673075571656
sVY
L2L
sVX
L2L
sg1162
g1231
sg35
g36
sg37
g38
sg21
S'7'
sg19
S'space'
p1246
sg34
g11
sg1164
L7L
sg1165
g1193
sg1167
L7L
sS'block.thisIndex'
p1247
I14
sg1169
g1191
sg1171
g1182
sg1172
g1194
sa(dp1248
S'block.thisTrialN'
p1249
I9
sS'block.thisRepN'
p1250
I0
sg29
g33
sS'block.thisN'
p1251
I9
sg1157
(S'TIMES'
S'DECREASE'
S'THIRD'
S'DOUBLE'
S'x'
S'y'
tp1252
sg27
g28
sg1159
L4L
sg1160
(I6
I2
I1
I2
tp1253
sg22
I1
sg20
F2.7000711613800377
sg23
F3.4834384502610192
sVY
L2L
sVX
L3L
sg1162
g1166
sg35
g36
sg37
g38
sg21
S'2'
sg19
S'space'
p1254
sg34
g11
sg1164
L2L
sg1165
g1213
sg1167
L2L
sS'block.thisIndex'
p1255
I11
sg1169
g1231
sg1171
Vdouble
p1256
sg1172
VBUUUxy
p1257
sa(dp1258
S'block.thisTrialN'
p1259
I10
sS'block.thisRepN'
p1260
I0
sg29
g33
sS'block.thisN'
p1261
I10
sg1157
(S'DECREASE'
S'DIVIDE'
S'TRIPLE'
S'DOUBLE'
S'x'
S'y'
tp1262
sg27
g28
sg1159
L4L
sg1160
(I6
I18
I2
I1
tp1263
sg22
I1
sg20
F2.6501344824209809
sg23
F4.3833002329338342
sVY
L9L
sVX
L3L
sg1162
g1182
sg35
g36
sg37
g38
sg21
S'1'
sg19
S'space'
p1264
sg34
g11
sg1164
L1L
sg1165
VDIVIDE
p1265
sg1167
L1L
sS'block.thisIndex'
p1266
I12
sg1169
g1213
sg1171
g1256
sg1172
g1222
sa(dp1267
S'block.thisTrialN'
p1268
I11
sS'block.thisRepN'
p1269
I0
sg29
g33
sS'block.thisN'
p1270
I11
sg1157
(S'DIVIDE'
S'DECREASE'
S'THIRD'
S'DOUBLE'
S'x'
S'y'
tp1271
sg27
g28
sg1159
L4L
sg1160
(I12
I4
I3
I1
tp1272
sg22
I1
sg20
F2.5667160463053733
sg23
F2.8001016102498397
sVY
L3L
sVX
L6L
sg1162
g1166
sg35
g36
sg37
g38
sg21
S'1'
sg19
S'space'
p1273
sg34
g11
sg1164
L1L
sg1165
g1213
sg1167
L1L
sS'block.thisIndex'
p1274
I10
sg1169
g1265
sg1171
g1256
sg1172
g1257
sa(dp1275
S'block.thisTrialN'
p1276
I12
sS'block.thisRepN'
p1277
I0
sg29
g33
sS'block.thisN'
p1278
I12
sg1157
(S'DOUBLE'
S'TIMES'
S'THIRD'
S'x'
S'y'
tp1279
sg27
g28
sg1159
L3L
sg1160
(I1
I4
I8
tp1280
sg22
I1
sg20
F1.1501855156384408
sg23
F2.633442641235888
sVY
L4L
sVX
L3L
sg1162
g1166
sg35
g36
sg37
g38
sg21
S'8'
sg19
S'space'
p1281
sg34
g11
sg1164
L8L
sg1165
g1231
sg1167
L8L
sS'block.thisIndex'
p1282
I6
sg1169
g1256
sg1171
L0L
sg1172
VUBUxy
p1283
sa(dp1284
S'block.thisTrialN'
p1285
I13
sS'block.thisRepN'
p1286
I0
sg29
g33
sS'block.thisN'
p1287
I13
sg1157
(S'TRIPLE'
S'HALF'
S'TIMES'
S'x'
S'y'
tp1288
sg27
g28
sg1159
L3L
sg1160
(I6
I3
I9
tp1289
sg22
I1
sg20
F1.3501491936622187
sg23
F2.0499275556067005
sVY
L3L
sVX
L2L
sg1162
g1231
sg35
g36
sg37
g38
sg21
S'9'
sg19
S'space'
p1290
sg34
g11
sg1164
L9L
sg1165
g1193
sg1167
L9L
sS'block.thisIndex'
p1291
I9
sg1169
g1182
sg1171
L0L
sg1172
VUUBxy
p1292
sa(dp1293
S'block.thisTrialN'
p1294
I14
sS'block.thisRepN'
p1295
I0
sg29
g33
sS'block.thisN'
p1296
I14
sg1157
(S'INCREASE'
S'DIVIDE'
S'HALF'
S'x'
S'y'
tp1297
sg27
g28
sg1159
L3L
sg1160
(I2
I1
I2
tp1298
sg22
I1
sg20
F1.1501897920388728
sg23
F2.0834104532841593
sVY
L2L
sVX
L4L
sg1162
g1193
sg35
g36
sg37
g38
sg21
S'2'
sg19
S'space'
p1299
sg34
g11
sg1164
L2L
sg1165
g1265
sg1167
L2L
sS'block.thisIndex'
p1300
I7
sg1169
g1191
sg1171
L0L
sg1172
g1283
sa(dp1301
S'block.thisTrialN'
p1302
I15
sS'block.thisRepN'
p1303
I0
sg29
g33
sS'block.thisN'
p1304
I15
sg1157
(S'SUBTRACT'
S'DOUBLE'
S'DECREASE'
S'x'
S'y'
tp1305
sg27
g28
sg1159
L3L
sg1160
(I8
I16
I7
tp1306
sg22
I1
sg20
F1.3001238481374457
sg23
F5.7500392014626414
sVY
L9L
sVX
L9L
sg1162
g1213
sg35
g36
sg37
g38
sg21
S'7'
sg19
S'space'
p1307
sg34
g11
sg1164
L7L
sg1165
g1256
sg1167
L7L
sS'block.thisIndex'
p1308
I5
sg1169
g1170
sg1171
L0L
sg1172
VBUUxy
p1309
sa(dp1310
S'block.thisTrialN'
p1311
I16
sS'block.thisRepN'
p1312
I0
sg29
g33
sS'block.thisN'
p1313
I16
sg1157
(S'ADD'
S'DECREASE'
S'HALF'
S'x'
S'y'
tp1314
sg27
g28
sg1159
L3L
sg1160
(I3
I2
I6
tp1315
sg22
I1
sg20
F0.96678937436081469
sg23
F2.2833202471956611
sVY
L4L
sVX
L6L
sg1162
g1193
sg35
g36
sg37
g38
sg21
S'6'
sg19
S'space'
p1316
sg34
g11
sg1164
L6L
sg1165
g1213
sg1167
L6L
sS'block.thisIndex'
p1317
I4
sg1169
g1203
sg1171
L0L
sg1172
g1309
sa(dp1318
S'block.thisTrialN'
p1319
I17
sS'block.thisRepN'
p1320
I0
sg29
g33
sS'block.thisN'
p1321
I17
sg1157
(S'DECREASE'
S'HALF'
S'DIVIDE'
S'x'
S'y'
tp1322
sg27
g28
sg1159
L3L
sg1160
(I4
I2
I1
tp1323
sg22
I1
sg20
F1.4334798185154796
sg23
F2.0500755233224481
sVY
L2L
sVX
L8L
sg1162
g1265
sg35
g36
sg37
g38
sg21
S'1'
sg19
S'space'
p1324
sg34
g11
sg1164
L1L
sg1165
g1193
sg1167
L1L
sS'block.thisIndex'
p1325
I8
sg1169
g1213
sg1171
L0L
sg1172
g1292
sa(dp1326
S'block.thisTrialN'
p1327
I0
sS'block.thisRepN'
p1328
I0
sg29
g33
sS'block.thisN'
p1329
I0
sVRule
p1330
(S'THIRD'
S'INCREASE'
S'HALF'
S'DIVIDE'
S'x'
S'y'
tp1331
sg27
g28
sVLength
p1332
L4L
sVIntermediate
p1333
(I4
I2
I3
I1
tp1334
sg22
I1
sg20
F1.4167862667236477
sg23
F3.5668460526503623
sVY
L2L
sVX
L8L
sVOperatorc
p1335
Vhalf
p1336
sg35
g36
sg37
g38
sg21
S'1'
sg19
S'space'
p1337
sg34
g11
sVResult
p1338
L1L
sVOperatora
p1339
Vincrease
p1340
sVCorrectResponse
p1341
L1L
sS'block.thisIndex'
p1342
I16
sVOperatorb
p1343
Vthird
p1344
sVOperatord
p1345
VDIVIDE
p1346
sVStructure
p1347
VUUUBxy
p1348
sa(dp1349
S'block.thisTrialN'
p1350
I1
sS'block.thisRepN'
p1351
I0
sg29
g33
sS'block.thisN'
p1352
I1
sg1330
(S'THIRD'
S'ADD'
S'x'
S'y'
tp1353
sg27
g28
sg1332
L2L
sg1333
(I9
I3
tp1354
sg22
I1
sg20
F0.71689414919819683
sg23
F1.5167671078816056
sVY
L5L
sVX
L4L
sg1335
L0L
sg35
g36
sg37
g38
sg21
S'3'
sg19
S'space'
p1355
sg34
g11
sg1338
L3L
sg1339
VADD
p1356
sg1341
L3L
sS'block.thisIndex'
p1357
I2
sg1343
g1344
sg1345
L0L
sg1347
VUBxy
p1358
sa(dp1359
S'block.thisTrialN'
p1360
I2
sS'block.thisRepN'
p1361
I0
sg29
g33
sS'block.thisN'
p1362
I2
sg1330
(S'TIMES'
S'THIRD'
S'HALF'
S'x'
S'y'
tp1363
sg27
g28
sg1332
L3L
sg1333
(I3
I1
I5
tp1364
sg22
I1
sg20
F1.3334171532187611
sg23
F3.3500679396092892
sVY
L5L
sVX
L6L
sg1335
g1336
sg35
g36
sg37
g38
sg21
S'5'
sg19
S'space'
p1365
sg34
g11
sg1338
L5L
sg1339
g1344
sg1341
L5L
sS'block.thisIndex'
p1366
I5
sg1343
VTIMES
p1367
sg1345
L0L
sg1347
VBUUxy
p1368
sa(dp1369
S'block.thisTrialN'
p1370
I3
sS'block.thisRepN'
p1371
I0
sg29
g33
sS'block.thisN'
p1372
I3
sg1330
(S'TIMES'
S'INCREASE'
S'x'
S'y'
tp1373
sg27
g28
sg1332
L2L
sg1333
(I3
I6
tp1374
sg22
I1
sg20
F0.78353549889288843
sg23
F1.4167737222742289
sVY
L2L
sVX
L2L
sg1335
L0L
sg35
g36
sg37
g38
sg21
S'6'
sg19
S'space'
p1375
sg34
g11
sg1338
L6L
sg1339
g1340
sg1341
L6L
sS'block.thisIndex'
p1376
I1
sg1343
g1367
sg1345
L0L
sg1347
VBUxy
p1377
sa(dp1378
S'block.thisTrialN'
p1379
I4
sS'block.thisRepN'
p1380
I0
sg29
g33
sS'block.thisN'
p1381
I4
sg1330
(S'THIRD'
S'TIMES'
S'DECREASE'
S'x'
S'y'
tp1382
sg27
g28
sg1332
L3L
sg1333
(I3
I15
I5
tp1383
sg22
I1
sg20
F1.8500816245796159
sg23
F3.0499346832511947
sVY
L5L
sVX
L4L
sg1335
Vdecrease
p1384
sg35
g36
sg37
g38
sg21
S'5'
sg19
S'space'
p1385
sg34
g11
sg1338
L5L
sg1339
g1367
sg1341
L5L
sS'block.thisIndex'
p1386
I7
sg1343
g1344
sg1345
L0L
sg1347
VUBUxy
p1387
sa(dp1388
S'block.thisTrialN'
p1389
I5
sS'block.thisRepN'
p1390
I0
sg29
g33
sS'block.thisN'
p1391
I5
sg1330
(S'TRIPLE'
S'DECREASE'
S'HALF'
S'TIMES'
S'x'
S'y'
tp1392
sg27
g28
sg1332
L4L
sg1333
(I6
I3
I2
I6
tp1393
sg22
I1
sg20
F2.4166776430793107
sg23
F3.0000547395320609
sVY
L2L
sVX
L3L
sg1335
g1336
sg35
g36
sg37
g38
sg21
S'6'
sg19
S'space'
p1394
sg34
g11
sg1338
L6L
sg1339
g1384
sg1341
L6L
sS'block.thisIndex'
p1395
I17
sg1343
Vtriple
p1396
sg1345
g1367
sg1347
g1348
sa(dp1397
S'block.thisTrialN'
p1398
I6
sS'block.thisRepN'
p1399
I0
sg29
g33
sS'block.thisN'
p1400
I6
sg1330
(S'SUBTRACT'
S'HALF'
S'INCREASE'
S'TRIPLE'
S'x'
S'y'
tp1401
sg27
g28
sg1332
L4L
sg1333
(I15
I16
I8
I3
tp1402
sg22
I1
sg20
F2.5833540032617748
sg23
F3.7168456818908453
sVY
L5L
sVX
L5L
sg1335
g1340
sg35
g36
sg37
g38
sg21
S'3'
sg19
S'space'
p1403
sg34
g11
sg1338
L3L
sg1339
g1336
sg1341
L3L
sS'block.thisIndex'
p1404
I10
sg1343
VSUBTRACT
p1405
sg1345
g1396
sg1347
VBUUUxy
p1406
sa(dp1407
S'block.thisTrialN'
p1408
I7
sS'block.thisRepN'
p1409
I0
sg29
g33
sS'block.thisN'
p1410
I7
sg1330
(S'TRIPLE'
S'HALF'
S'DIVIDE'
S'x'
S'y'
tp1411
sg27
g28
sg1332
L3L
sg1333
(I2
I1
I3
tp1412
sg22
I1
sg20
F1.0166901304619387
sg23
F3.0334937314037234
sVY
L2L
sVX
L4L
sg1335
g1346
sg35
g36
sg37
g38
sg21
S'3'
sg19
S'space'
p1413
sg34
g11
sg1338
L3L
sg1339
g1336
sg1341
L3L
sS'block.thisIndex'
p1414
I9
sg1343
g1396
sg1345
L0L
sg1347
VUUBxy
p1415
sa(dp1416
S'block.thisTrialN'
p1417
I8
sS'block.thisRepN'
p1418
I0
sg29
g33
sS'block.thisN'
p1419
I8
sg1330
(S'THIRD'
S'DOUBLE'
S'ADD'
S'INCREASE'
S'x'
S'y'
tp1420
sg27
g28
sg1332
L4L
sg1333
(I10
I12
I24
I8
tp1421
sg22
I1
sg20
F1.7835480433423072
sg23
F4.233269527554512
sVY
L2L
sVX
L9L
sg1335
g1356
sg35
g36
sg37
g38
sg21
S'8'
sg19
S'space'
p1422
sg34
g11
sg1338
L8L
sg1339
Vdouble
p1423
sg1341
L8L
sS'block.thisIndex'
p1424
I14
sg1343
g1344
sg1345
g1340
sg1347
VUUBUxy
p1425
sa(dp1426
S'block.thisTrialN'
p1427
I9
sS'block.thisRepN'
p1428
I0
sg29
g33
sS'block.thisN'
p1429
I9
sg1330
(S'INCREASE'
S'DIVIDE'
S'TRIPLE'
S'DOUBLE'
S'x'
S'y'
tp1430
sg27
g28
sg1332
L4L
sg1333
(I6
I18
I3
I4
tp1431
sg22
I1
sg20
F2.0833713944302872
sg23
F6.7332931909477338
sVY
L6L
sVX
L3L
sg1335
g1396
sg35
g36
sg37
g38
sg21
S'4'
sg19
S'space'
p1432
sg34
g11
sg1338
L4L
sg1339
g1346
sg1341
L4L
sS'block.thisIndex'
p1433
I12
sg1343
g1340
sg1345
g1423
sg1347
VUBUUxy
p1434
sa(dp1435
S'block.thisTrialN'
p1436
I10
sS'block.thisRepN'
p1437
I0
sg29
g33
sS'block.thisN'
p1438
I10
sg1330
(S'TIMES'
S'INCREASE'
S'THIRD'
S'DOUBLE'
S'x'
S'y'
tp1439
sg27
g28
sg1332
L4L
sg1333
(I6
I2
I3
I9
tp1440
sg22
I1
sg20
F2.0833993344567716
sg23
F3.4334008453879505
sVY
L3L
sVX
L3L
sg1335
g1344
sg35
g36
sg37
g38
sg21
S'9'
sg19
S'space'
p1441
sg34
g11
sg1338
L9L
sg1339
g1340
sg1341
L9L
sS'block.thisIndex'
p1442
I11
sg1343
g1367
sg1345
g1423
sg1347
g1406
sa(dp1443
S'block.thisTrialN'
p1444
I11
sS'block.thisRepN'
p1445
I0
sg29
g33
sS'block.thisN'
p1446
I11
sg1330
(S'THIRD'
S'DECREASE'
S'TIMES'
S'x'
S'y'
tp1447
sg27
g28
sg1332
L3L
sg1333
(I25
I24
I8
tp1448
sg22
I1
sg20
F0.96678652334958315
sg23
F3.5667328672716394
sVY
L5L
sVX
L5L
sg1335
g1367
sg35
g36
sg37
g38
sg21
S'8'
sg19
S'space'
p1449
sg34
g11
sg1338
L8L
sg1339
g1384
sg1341
L8L
sS'block.thisIndex'
p1450
I8
sg1343
g1344
sg1345
L0L
sg1347
g1415
sa(dp1451
S'block.thisTrialN'
p1452
I12
sS'block.thisRepN'
p1453
I0
sg29
g33
sS'block.thisN'
p1454
I12
sg1330
(S'THIRD'
S'SUBTRACT'
S'x'
S'y'
tp1455
sg27
g28
sg1332
L2L
sg1333
(I3
I1
tp1456
sg22
I1
sg20
F0.7668898442061618
sg23
F1.3001178610138595
sVY
L2L
sVX
L5L
sg1335
L0L
sg35
g36
sg37
g38
sg21
S'1'
sg19
S'space'
p1457
sg34
g11
sg1338
L1L
sg1339
g1405
sg1341
L1L
sS'block.thisIndex'
p1458
I3
sg1343
g1344
sg1345
L0L
sg1347
g1358
sa(dp1459
S'block.thisTrialN'
p1460
I13
sS'block.thisRepN'
p1461
I0
sg29
g33
sS'block.thisN'
p1462
I13
sg1330
(S'TRIPLE'
S'SUBTRACT'
S'DOUBLE'
S'DECREASE'
S'x'
S'y'
tp1463
sg27
g28
sg1332
L4L
sg1333
(I2
I4
I1
I3
tp1464
sg22
I1
sg20
F2.5498340423218906
sg23
F4.7001763638108969
sVY
L3L
sVX
L3L
sg1335
g1423
sg35
g36
sg37
g38
sg21
S'3'
sg19
S'space'
p1465
sg34
g11
sg1338
L3L
sg1339
g1405
sg1341
L3L
sS'block.thisIndex'
p1466
I13
sg1343
g1396
sg1345
g1384
sg1347
g1434
sa(dp1467
S'block.thisTrialN'
p1468
I14
sS'block.thisRepN'
p1469
I0
sg29
g33
sS'block.thisN'
p1470
I14
sg1330
(S'TIMES'
S'DECREASE'
S'HALF'
S'x'
S'y'
tp1471
sg27
g28
sg1332
L3L
sg1333
(I4
I3
I9
tp1472
sg22
I1
sg20
F1.4000841620145366
sg23
F2.3332962701097131
sVY
L3L
sVX
L8L
sg1335
g1336
sg35
g36
sg37
g38
sg21
S'9'
sg19
S'space'
p1473
sg34
g11
sg1338
L9L
sg1339
g1384
sg1341
L9L
sS'block.thisIndex'
p1474
I4
sg1343
g1367
sg1345
L0L
sg1347
g1368
sa(dp1475
S'block.thisTrialN'
p1476
I15
sS'block.thisRepN'
p1477
I0
sg29
g33
sS'block.thisN'
p1478
I15
sg1330
(S'TRIPLE'
S'HALF'
S'ADD'
S'DECREASE'
S'x'
S'y'
tp1479
sg27
g28
sg1332
L4L
sg1333
(I1
I4
I2
I6
tp1480
sg22
I1
sg20
F2.3002219230402261
sg23
F2.5334278729278594
sVY
L3L
sVX
L2L
sg1335
g1356
sg35
g36
sg37
g38
sg21
S'6'
sg19
S'space'
p1481
sg34
g11
sg1338
L6L
sg1339
g1336
sg1341
L6L
sS'block.thisIndex'
p1482
I15
sg1343
g1396
sg1345
g1384
sg1347
g1425
sa(dp1483
S'block.thisTrialN'
p1484
I16
sS'block.thisRepN'
p1485
I0
sg29
g33
sS'block.thisN'
p1486
I16
sg1330
(S'THIRD'
S'ADD'
S'INCREASE'
S'x'
S'y'
tp1487
sg27
g28
sg1332
L3L
sg1333
(I8
I15
I5
tp1488
sg22
I1
sg20
F1.1500583603046834
sg23
F2.2334442948922515
sVY
L7L
sVX
L7L
sg1335
g1340
sg35
g36
sg37
g38
sg21
S'5'
sg19
S'space'
p1489
sg34
g11
sg1338
L5L
sg1339
g1356
sg1341
L5L
sS'block.thisIndex'
p1490
I6
sg1343
g1344
sg1345
L0L
sg1347
g1387
sa(dp1491
S'block.thisTrialN'
p1492
I17
sS'block.thisRepN'
p1493
I0
sg29
g33
sS'block.thisN'
p1494
I17
sg1330
(S'TIMES'
S'DECREASE'
S'x'
S'y'
tp1495
sg27
g28
sg1332
L2L
sg1333
(I2
I4
tp1496
sg22
I1
sg20
F0.85015917220152915
sg23
F1.2335252637276426
sVY
L2L
sVX
L3L
sg1335
L0L
sg35
g36
sg37
g38
sg21
S'4'
sg19
S'space'
p1497
sg34
g11
sg1338
L4L
sg1339
g1384
sg1341
L4L
sS'block.thisIndex'
p1498
I0
sg1343
g1367
sg1345
L0L
sg1347
g1377
sasS'loops'
p1499
(lp1500
g1
(cpsychopy.data
TrialHandler
p1501
g3
NtRp1502
(dp1503
S'origin'
p1504
NsS'thisTrial'
p1505
(lp1506
sS'_exp'
p1507
I355709136
sg10
S'practice_trials'
p1508
sg6
S'C:\\Users\\CCDL\\Desktop\\Experiments\\KRITL\\2. kritl_experimenter.py'
p1509
sS'thisRepN'
p1510
I1
sg24
I01
sg25
g26
sS'data'
p1511
g1
(cpsychopy.data
DataHandler
p1512
c__builtin__
dict
p1513
(dp1514
g15
cnumpy.core.multiarray
_reconstruct
p1515
(cnumpy
ndarray
p1516
(I0
tS'b'
tRp1517
(I1
(I6
I1
tg31
(S'O4'
I0
I1
tRp1518
(I3
S'|'
NNNI-1
I-1
I63
tbI00
(lp1519
(lp1520
F3.0000427652848884
aa(lp1521
F1.1667690181639045
aa(lp1522
F1.0333557423437014
aa(lp1523
F1.3833458492299542
aa(lp1524
F1.7167498877970502
aa(lp1525
F3.6667008787626401
aatbsg16
g1515
(g1516
(I0
tS'b'
tRp1526
(I1
(I6
I1
tg1518
I00
(lp1527
S'7'
aS'8'
aS'7'
aS'8'
aS'3'
aS'9'
atbsS'ran'
p1528
cnumpy.ma.core
_mareconstruct
p1529
(cnumpy.ma.core
MaskedArray
p1530
g1516
(I0
tp1531
S'b'
tRp1532
(I1
(I6
I1
tg31
(S'f4'
I0
I1
tRp1533
(I3
S'<'
NNNI-1
I-1
I0
tbI00
S'\x00\x00\x80?\x00\x00\x80?\x00\x00\x80?\x00\x00\x80?\x00\x00\x80?\x00\x00\x80?'
S'\x00\x00\x00\x00\x00\x00'
Ntbsg18
g1529
(g1530
g1516
g1531
S'b'
tRp1534
(I1
(I6
I1
tg1533
I00
S'$#"@\x86V\xf5?\xbe#\xc2?\xab\x9a\t@z3\x13@\xb4V\x8d@'
S'\x00\x00\x00\x00\x00\x00'
Ntbsg14
g1515
(g1516
(I0
tS'b'
tRp1535
(I1
(I6
I1
tg1518
I00
(lp1536
(lp1537
g73
aa(lp1538
g82
aa(lp1539
g111
aa(lp1540
g120
aa(lp1541
g102
aa(lp1542
g94
aatbsS'order'
p1543
g1529
(g1530
g1516
g1531
S'b'
tRp1544
(I1
(I6
I1
tg1533
I00
S'\x00\x00\x00\x00\x00\x00\x80?\x00\x00\x80@\x00\x00\xa0@\x00\x00@@\x00\x00\x00@'
S'\x00\x00\x00\x00\x00\x00'
Ntbsg17
g1529
(g1530
g1516
g1531
S'b'
tRp1545
(I1
(I6
I1
tg1533
I00
S'\x00\x00\x80?\x00\x00\x80?\x00\x00\x80?\x00\x00\x80?\x00\x00\x80?\x00\x00\x80?'
S'\x00\x00\x00\x00\x00\x00'
NtbstRp1546
(dp1547
S'isNumeric'
p1548
(dp1549
g16
I00
sg1528
I01
sg18
I01
sg14
I00
sg17
I01
sg1543
I01
sg15
I00
ssS'trials'
p1550
g1502
sS'dataTypes'
p1551
(lp1552
g1528
ag1543
ag14
ag15
ag16
ag17
ag18
asS'dataShape'
p1553
(lp1554
I6
aI1
asbsS'method'
p1555
S'fullRandom'
p1556
sS'sequenceIndices'
p1557
g1515
(g1516
(I0
tS'b'
tRp1558
(I1
(I6
I1
tg1518
I00
(lp1559
I0
aI1
aI5
aI4
aI2
aI3
atbsS'finished'
p1560
I01
sS'nReps'
p1561
I1
sS'nRemaining'
p1562
I-1
sS'trialList'
p1563
(lp1564
g1
(cpsychopy.data
TrialType
p1565
g1513
(dp1566
g47
L0L
sg48
g68
sg49
g69
sg50
L7L
sg53
L2L
sg52
L0L
sg51
L5L
sg54
L3L
stRp1567
ag1
(g1565
g1513
(dp1568
g47
L0L
sg48
g69
sg49
g78
sg50
L8L
sg53
L2L
sg52
L0L
sg51
L3L
sg54
L3L
stRp1569
ag1
(g1565
g1513
(dp1570
g47
L0L
sg48
g68
sg49
g107
sg50
L7L
sg53
L2L
sg52
L0L
sg51
L5L
sg54
L4L
stRp1571
ag1
(g1565
g1513
(dp1572
g47
g68
sg48
g116
sg49
g107
sg50
L8L
sg53
L3L
sg52
L0L
sg51
L2L
sg54
L4L
stRp1573
ag1
(g1565
g1513
(dp1574
g47
g87
sg48
g88
sg49
g91
sg50
L3L
sg53
L3L
sg52
L0L
sg51
L3L
sg54
L2L
stRp1575
ag1
(g1565
g1513
(dp1576
g47
g87
sg48
g88
sg49
g89
sg50
L9L
sg53
L4L
sg52
g91
sg51
L8L
sg54
L8L
stRp1577
asS'seed'
p1578
NsS'thisIndex'
p1579
I3
sS'thisN'
p1580
I6
sS'thisTrialN'
p1581
I0
sS'nTotal'
p1582
I6
sbag1
(g1501
g3
NtRp1583
(dp1584
g1504
Nsg1505
(lp1585
sg1507
I355709136
sg10
S'block'
p1586
sg6
g1509
sg1510
I1
sg24
I01
sg25
g26
sg1511
g1
(g1512
g1513
(dp1587
g22
g1529
(g1530
g1516
g1531
S'b'
tRp1588
(I1
(I18
I1
tg1533
I00
S'\x00\x00\x80?\x00\x00\x80?\x00\x00\x80?\x00\x00\x80?\x00\x00\x80?\x00\x00\x80?\x00\x00\x80?\x00\x00\x80?\x00\x00\x80?\x00\x00\x80?\x00\x00\x80?\x00\x00\x80?\x00\x00\x80?\x00\x00\x80?\x00\x00\x80?\x00\x00\x80?\x00\x00\x80?\x00\x00\x80?'
S'\x00\x00\x00\x00\x00\x00\x00\x00\x00\x00\x00\x00\x00\x00\x00\x00\x00\x00'
Ntbsg19
g1515
(g1516
(I0
tS'b'
tRp1589
(I1
(I18
I1
tg1518
I00
(lp1590
g142
ag202
ag228
ag262
ag278
ag131
ag254
ag154
ag246
ag237
ag165
ag184
ag174
ag192
ag210
ag286
ag219
ag270
atbsg23
g1529
(g1530
g1516
g1531
S'b'
tRp1591
(I1
(I18
I1
tg1533
I00
S'\x99)\xe2?|\x14\xf1?Z\x8d\xa8?2We@\x90\xf2\xee?\xfe\xcc<@\xe4\x92\xe8?\xc1w\'@3VE@\'\x9by@\xea\xefn@Z\xab\x82@*\xbc\x83@\xfc\xef>@,"\x06A\xb4ff@\xc4\x9ay@\x19\xdf-@'
S'\x00\x00\x00\x00\x00\x00\x00\x00\x00\x00\x00\x00\x00\x00\x00\x00\x00\x00'
Ntbsg1528
g1529
(g1530
g1516
g1531
S'b'
tRp1592
(I1
(I18
I1
tg1533
I00
S'\x00\x00\x80?\x00\x00\x80?\x00\x00\x80?\x00\x00\x80?\x00\x00\x80?\x00\x00\x80?\x00\x00\x80?\x00\x00\x80?\x00\x00\x80?\x00\x00\x80?\x00\x00\x80?\x00\x00\x80?\x00\x00\x80?\x00\x00\x80?\x00\x00\x80?\x00\x00\x80?\x00\x00\x80?\x00\x00\x80?'
S'\x00\x00\x00\x00\x00\x00\x00\x00\x00\x00\x00\x00\x00\x00\x00\x00\x00\x00'
Ntbsg21
g1515
(g1516
(I0
tS'b'
tRp1593
(I1
(I18
I1
tg1518
I00
(lp1594
S'8'
aS'2'
aS'2'
aS'8'
aS'1'
aS'2'
aS'1'
aS'2'
aS'8'
aS'6'
aS'7'
aS'1'
aS'9'
aS'7'
aS'3'
aS'6'
aS'5'
aS'4'
atbsg1543
g1529
(g1530
g1516
g1531
S'b'
tRp1595
(I1
(I18
I1
tg1533
I00
S'\x00\x00\x80?\x00\x00\xe0@\x00\x00 A\x00\x00`A\x00\x00\x80A\x00\x00\x00\x00\x00\x00PA\x00\x00\x00@\x00\x00@A\x00\x000A\x00\x00@@\x00\x00\xa0@\x00\x00\x80@\x00\x00\xc0@\x00\x00\x00A\x00\x00\x88A\x00\x00\x10A\x00\x00pA'
S'\x00\x00\x00\x00\x00\x00\x00\x00\x00\x00\x00\x00\x00\x00\x00\x00\x00\x00'
Ntbsg20
g1529
(g1530
g1516
g1531
S'b'
tRp1596
(I1
(I18
I1
tg1533
I00
S'\xc4Y\xb5?\xef$\xa2?\xda\x8b\x88?\xf8\xf1\x8e?;\xcd\x1c@W\x04\xe0?\xc2\xf0\x1e@\xc6\x8c\xe8?O\xde\xdd?\xf3\x8b\xa8?\ty\xf7?\x85\x000@z\x898@w\xcdl@\x1c\x00p@\x99\xdf\x1d@syG@\x1a\x9aY@'
S'\x00\x00\x00\x00\x00\x00\x00\x00\x00\x00\x00\x00\x00\x00\x00\x00\x00\x00'
NtbstRp1597
(dp1598
g1548
(dp1599
g1528
I01
sg21
I00
sg20
I01
sg22
I01
sg19
I00
sg23
I01
sg1543
I01
ssg1550
g1583
sg1551
(lp1600
g1528
ag1543
ag19
ag20
ag21
ag22
ag23
asg1553
(lp1601
I18
aI1
asbsg1555
g1556
sg1557
g1515
(g1516
(I0
tS'b'
tRp1602
(I1
(I18
I1
tg1518
I00
(lp1603
I5
aI0
aI7
aI10
aI12
aI11
aI13
aI1
aI14
aI16
aI2
aI9
aI8
aI6
aI3
aI17
aI4
aI15
atbsg1560
I01
sg1561
I1
sg1562
I-1
sg1563
(lp1604
g1
(g1565
g1513
(dp1605
g55
g140
sVY
L4L
sg57
L2L
sg58
g141
sg59
L8L
sg60
L8L
sg56
g143
sVX
L2L
sg61
L0L
sg62
g145
sg63
L0L
sg64
g146
stRp1606
ag1
(g1565
g1513
(dp1607
g55
g200
sVY
L6L
sg57
L2L
sg58
g201
sg59
L2L
sg60
L2L
sg56
g143
sVX
L6L
sg61
L0L
sg62
g155
sg63
L0L
sg64
g146
stRp1608
ag1
(g1565
g1513
(dp1609
g55
g226
sVY
L7L
sg57
L2L
sg58
g227
sg59
L2L
sg60
L2L
sg56
g134
sVX
L8L
sg61
L0L
sg62
g143
sg63
L0L
sg64
g230
stRp1610
ag1
(g1565
g1513
(dp1611
g55
g260
sVY
L4L
sg57
L2L
sg58
g261
sg59
L8L
sg60
L8L
sg56
g193
sVX
L4L
sg61
L0L
sg62
g132
sg63
L0L
sg64
g230
stRp1612
ag1
(g1565
g1513
(dp1613
g55
g276
sVY
L4L
sg57
L3L
sg58
g277
sg59
L1L
sg60
L1L
sg56
g143
sVX
L6L
sg61
g153
sg62
g155
sg63
L0L
sg64
g135
stRp1614
ag1
(g1565
g1513
(dp1615
g55
g128
sVY
L4L
sg57
L3L
sg58
g129
sg59
L2L
sg60
L2L
sg56
g132
sVX
L4L
sg61
g130
sg62
g134
sg63
L0L
sg64
g135
stRp1616
ag1
(g1565
g1513
(dp1617
g55
g252
sVY
L7L
sg57
L3L
sg58
g253
sg59
L1L
sg60
L1L
sg56
g134
sVX
L3L
sg61
g130
sg62
g132
sg63
L0L
sg64
g158
stRp1618
ag1
(g1565
g1513
(dp1619
g55
g151
sVY
L3L
sg57
L3L
sg58
g152
sg59
L2L
sg60
L2L
sg56
g155
sVX
L9L
sg61
g153
sg62
g157
sg63
L0L
sg64
g158
stRp1620
ag1
(g1565
g1513
(dp1621
g55
g244
sVY
L2L
sg57
L3L
sg58
g245
sg59
L8L
sg60
L8L
sg56
g195
sVX
L7L
sg61
g134
sg62
g143
sg63
L0L
sg64
g239
stRp1622
ag1
(g1565
g1513
(dp1623
g55
g235
sVY
L3L
sg57
L3L
sg58
g236
sg59
L6L
sg60
L6L
sg56
g130
sVX
L4L
sg61
g134
sg62
g143
sg63
L0L
sg64
g239
stRp1624
ag1
(g1565
g1513
(dp1625
g55
g163
sVY
L6L
sg57
L4L
sg58
g164
sg59
L7L
sg60
L7L
sg56
g153
sVX
L4L
sg61
g157
sg62
g145
sg63
g132
sg64
g167
stRp1626
ag1
(g1565
g1513
(dp1627
g55
g182
sVY
L5L
sg57
L4L
sg58
g183
sg59
L1L
sg60
L1L
sg56
g157
sVX
L6L
sg61
g143
sg62
g155
sg63
g153
sg64
g167
stRp1628
ag1
(g1565
g1513
(dp1629
g55
g172
sVY
L4L
sg57
L4L
sg58
g173
sg59
L9L
sg60
L9L
sg56
g145
sVX
L9L
sg61
g143
sg62
g176
sg63
g153
sg64
g177
stRp1630
ag1
(g1565
g1513
(dp1631
g55
g190
sVY
L4L
sg57
L4L
sg58
g191
sg59
L7L
sg60
L7L
sg56
g193
sVX
L3L
sg61
g143
sg62
g195
sg63
g153
sg64
g177
stRp1632
ag1
(g1565
g1513
(dp1633
g55
g208
sVY
L6L
sg57
L4L
sg58
g209
sg59
L3L
sg60
L3L
sg56
g153
sVX
L4L
sg61
g193
sg62
g195
sg63
g132
sg64
g212
stRp1634
ag1
(g1565
g1513
(dp1635
g55
g284
sVY
L8L
sg57
L4L
sg58
g285
sg59
L6L
sg60
L6L
sg56
g130
sVX
L9L
sg61
g155
sg62
g143
sg63
g195
sg64
g212
stRp1636
ag1
(g1565
g1513
(dp1637
g55
g217
sVY
L2L
sg57
L4L
sg58
g218
sg59
L5L
sg60
L5L
sg56
g132
sVX
L8L
sg61
g130
sg62
g195
sg63
g155
sg64
g221
stRp1638
ag1
(g1565
g1513
(dp1639
g55
g268
sVY
L4L
sg57
L4L
sg58
g269
sg59
L4L
sg60
L4L
sg56
g195
sVX
L4L
sg61
g130
sg62
g143
sg63
g155
sg64
g221
stRp1640
asg1578
Nsg1579
I15
sg1580
I18
sg1581
I0
sg1582
I18
sbag1
(g1501
g3
NtRp1641
(dp1642
g1504
Nsg1505
(lp1643
sg1507
I355709136
sg10
g1586
sg6
g1509
sg1510
I1
sg24
I01
sg25
g26
sg1511
g1
(g1512
g1513
(dp1644
g22
g1529
(g1530
g1516
g1531
S'b'
tRp1645
(I1
(I18
I1
tg1533
I00
S'\x00\x00\x80?\x00\x00\x80?\x00\x00\x80?\x00\x00\x80?\x00\x00\x80?\x00\x00\x80?\x00\x00\x80?\x00\x00\x80?\x00\x00\x80?\x00\x00\x80?\x00\x00\x80?\x00\x00\x80?\x00\x00\x80?\x00\x00\x80?\x00\x00\x80?\x00\x00\x80?\x00\x00\x80?\x00\x00\x80?'
S'\x00\x00\x00\x00\x00\x00\x00\x00\x00\x00\x00\x00\x00\x00\x00\x00\x00\x00'
Ntbsg19
g1515
(g1516
(I0
tS'b'
tRp1646
(I1
(I18
I1
tg1518
I00
(lp1647
g328
ag443
ag358
ag376
ag419
ag384
ag402
ag427
ag299
ag411
ag435
ag347
ag338
ag368
ag317
ag451
ag393
ag459
atbsg23
g1529
(g1530
g1516
g1531
S'b'
tRp1648
(I1
(I18
I1
tg1533
I00
S'\x91%\xc2?\x0fV\x05@\xdc\xce,@\xb2\xad\xaa?)\x00\x80@\xf8"\x82@\x17\xbdk@\x87\xde=@\x8bxw@C\x9a)@\'\x82q@+4C@\xd1\xaa\xc2@\xc9fF@A4S@\x0b\x010@\xe2\x11\x99@\xe8\xbc[@'
S'\x00\x00\x00\x00\x00\x00\x00\x00\x00\x00\x00\x00\x00\x00\x00\x00\x00\x00'
Ntbsg1528
g1529
(g1530
g1516
g1531
S'b'
tRp1649
(I1
(I18
I1
tg1533
I00
S'\x00\x00\x80?\x00\x00\x80?\x00\x00\x80?\x00\x00\x80?\x00\x00\x80?\x00\x00\x80?\x00\x00\x80?\x00\x00\x80?\x00\x00\x80?\x00\x00\x80?\x00\x00\x80?\x00\x00\x80?\x00\x00\x80?\x00\x00\x80?\x00\x00\x80?\x00\x00\x80?\x00\x00\x80?\x00\x00\x80?'
S'\x00\x00\x00\x00\x00\x00\x00\x00\x00\x00\x00\x00\x00\x00\x00\x00\x00\x00'
Ntbsg21
g1515
(g1516
(I0
tS'b'
tRp1650
(I1
(I18
I1
tg1518
I00
(lp1651
S'7'
aS'9'
aS'2'
aS'5'
aS'9'
aS'3'
aS'8'
aS'3'
aS'9'
aS'6'
aS'5'
aS'9'
aS'5'
aS'7'
aS'6'
aS'9'
aS'5'
aS'5'
atbsg1543
g1529
(g1530
g1516
g1531
S'b'
tRp1652
(I1
(I18
I1
tg1533
I00
S'\x00\x00\x00@\x00\x00pA\x00\x00\xa0@\x00\x00\xe0@\x00\x00@A\x00\x00\x00A\x00\x00 A\x00\x00PA\x00\x00\x00\x00\x00\x000A\x00\x00`A\x00\x00\x80@\x00\x00@@\x00\x00\xc0@\x00\x00\x80?\x00\x00\x80A\x00\x00\x10A\x00\x00\x88A'
S'\x00\x00\x00\x00\x00\x00\x00\x00\x00\x00\x00\x00\x00\x00\x00\x00\x00\x00'
Ntbsg20
g1529
(g1530
g1516
g1531
S'b'
tRp1653
(I1
(I18
I1
tg1533
I00
S"\xcb'b?\x1fI\x84?H\xf7n?e\xac\xaa?\xb6\xbb\x1b@\xf1\x99)@\x89\x10\xb1?h#\xc2?\xc1F\xe4?\x1b$r@8f6@\xff\xdd\x8d@\xaeED@j\xbbK@\x89%R@m\x9b9@\x10\xef\x96@\xde\xf0\x1e@"
S'\x00\x00\x00\x00\x00\x00\x00\x00\x00\x00\x00\x00\x00\x00\x00\x00\x00\x00'
NtbstRp1654
(dp1655
g1548
(dp1656
g1528
I01
sg21
I00
sg20
I01
sg22
I01
sg19
I00
sg23
I01
sg1543
I01
ssg1550
g1641
sg1551
(lp1657
g1528
ag1543
ag19
ag20
ag21
ag22
ag23
asg1553
(lp1658
I18
aI1
asbsg1555
g1556
sg1557
g1515
(g1516
(I0
tS'b'
tRp1659
(I1
(I18
I1
tg1518
I00
(lp1660
I8
aI14
aI0
aI12
aI11
aI2
aI13
aI3
aI5
aI16
aI6
aI9
aI4
aI7
aI10
aI1
aI15
aI17
atbsg1560
I01
sg1561
I1
sg1562
I-1
sg1563
(lp1661
g1
(g1565
g1513
(dp1662
g292
g326
sVY
L5L
sg294
L2L
sg295
g327
sg303
L7L
sg300
L7L
sg301
g302
sVX
L4L
sg297
L0L
sg305
g298
sg307
L0L
sg308
g330
stRp1663
ag1
(g1565
g1513
(dp1664
g292
g441
sVY
L3L
sg294
L2L
sg295
g442
sg303
L9L
sg300
L9L
sg301
g306
sVX
L4L
sg297
L0L
sg305
g316
sg307
L0L
sg308
g330
stRp1665
ag1
(g1565
g1513
(dp1666
g292
g356
sVY
L8L
sg294
L2L
sg295
g357
sg303
L2L
sg300
L2L
sg301
g359
sVX
L8L
sg297
L0L
sg305
g318
sg307
L0L
sg308
g361
stRp1667
ag1
(g1565
g1513
(dp1668
g292
g374
sVY
L2L
sg294
L2L
sg295
g375
sg303
L5L
sg300
L5L
sg301
g359
sVX
L8L
sg297
L0L
sg305
g320
sg307
L0L
sg308
g361
stRp1669
ag1
(g1565
g1513
(dp1670
g292
g417
sVY
L2L
sg294
L3L
sg295
g418
sg303
L9L
sg300
L9L
sg301
g306
sVX
L7L
sg297
g337
sg305
g359
sg307
L0L
sg308
g386
stRp1671
ag1
(g1565
g1513
(dp1672
g292
g382
sVY
L2L
sg294
L3L
sg295
g383
sg303
L3L
sg300
L3L
sg301
g320
sVX
L8L
sg297
g302
sg305
g316
sg307
L0L
sg308
g386
stRp1673
ag1
(g1565
g1513
(dp1674
g292
g400
sVY
L2L
sg294
L3L
sg295
g401
sg303
L8L
sg300
L8L
sg301
g349
sVX
L9L
sg297
g337
sg305
g302
sg307
L0L
sg308
g404
stRp1675
ag1
(g1565
g1513
(dp1676
g292
g425
sVY
L3L
sg294
L3L
sg295
g426
sg303
L3L
sg300
L3L
sg301
g359
sVX
L2L
sg297
g306
sg305
g320
sg307
L0L
sg308
g404
stRp1677
ag1
(g1565
g1513
(dp1678
g292
g293
sVY
L3L
sg294
L3L
sg295
g296
sg303
L9L
sg300
L9L
sg301
g302
sVX
L3L
sg297
g298
sg305
g306
sg307
L0L
sg308
g309
stRp1679
ag1
(g1565
g1513
(dp1680
g292
g409
sVY
L2L
sg294
L3L
sg295
g410
sg303
L6L
sg300
L6L
sg301
g320
sVX
L3L
sg297
g316
sg305
g306
sg307
L0L
sg308
g309
stRp1681
ag1
(g1565
g1513
(dp1682
g292
g433
sVY
L4L
sg294
L4L
sg295
g434
sg303
L5L
sg300
L5L
sg301
g318
sVX
L3L
sg297
g320
sg305
g359
sg307
g306
sg308
g351
stRp1683
ag1
(g1565
g1513
(dp1684
g292
g345
sVY
L9L
sg294
L4L
sg295
g346
sg303
L9L
sg300
L9L
sg301
g302
sVX
L3L
sg297
g320
sg305
g349
sg307
g350
sg308
g351
stRp1685
ag1
(g1565
g1513
(dp1686
g292
g335
sVY
L4L
sg294
L4L
sg295
g336
sg303
L5L
sg300
L5L
sg301
g316
sVX
L5L
sg297
g337
sg305
g302
sg307
g306
sg308
g340
stRp1687
ag1
(g1565
g1513
(dp1688
g292
g366
sVY
L2L
sg294
L4L
sg295
g367
sg303
L7L
sg300
L7L
sg301
g349
sVX
L2L
sg297
g306
sg305
g320
sg307
g302
sg308
g340
stRp1689
ag1
(g1565
g1513
(dp1690
g292
g314
sVY
L4L
sg294
L4L
sg295
g315
sg303
L6L
sg300
L6L
sg301
g318
sVX
L4L
sg297
g316
sg305
g306
sg307
g320
sg308
g321
stRp1691
ag1
(g1565
g1513
(dp1692
g292
g449
sVY
L8L
sg294
L4L
sg295
g450
sg303
L9L
sg300
L9L
sg301
g320
sVX
L8L
sg297
g359
sg305
g306
sg307
g318
sg308
g321
stRp1693
ag1
(g1565
g1513
(dp1694
g292
g391
sVY
L4L
sg294
L4L
sg295
g392
sg303
L5L
sg300
L5L
sg301
g350
sVX
L5L
sg297
g318
sg305
g337
sg307
g298
sg308
g395
stRp1695
ag1
(g1565
g1513
(dp1696
g292
g457
sVY
L4L
sg294
L4L
sg295
g458
sg303
L5L
sg300
L5L
sg301
g320
sVX
L7L
sg297
g302
sg305
g350
sg307
g349
sg308
g395
stRp1697
asg1578
Nsg1579
I17
sg1580
I18
sg1581
I0
sg1582
I18
sbag1
(g1501
g3
NtRp1698
(dp1699
g1504
Nsg1505
(lp1700
sg1507
I355709136
sg10
g1586
sg6
g1509
sg1510
I1
sg24
I01
sg25
g26
sg1511
g1
(g1512
g1513
(dp1701
g22
g1529
(g1530
g1516
g1531
S'b'
tRp1702
(I1
(I18
I1
tg1533
I00
S'\x00\x00\x80?\x00\x00\x80?\x00\x00\x80?\x00\x00\x80?\x00\x00\x80?\x00\x00\x80?\x00\x00\x80?\x00\x00\x80?\x00\x00\x80?\x00\x00\x80?\x00\x00\x80?\x00\x00\x80?\x00\x00\x80?\x00\x00\x80?\x00\x00\x80?\x00\x00\x80?\x00\x00\x80?\x00\x00\x80?'
S'\x00\x00\x00\x00\x00\x00\x00\x00\x00\x00\x00\x00\x00\x00\x00\x00\x00\x00'
Ntbsg19
g1515
(g1516
(I0
tS'b'
tRp1703
(I1
(I18
I1
tg1518
I00
(lp1704
g521
ag600
ag471
ag512
ag576
ag566
ag557
ag608
ag548
ag624
ag616
ag530
ag592
ag502
ag489
ag584
ag539
ag632
atbsg23
g1529
(g1530
g1516
g1531
S'b'
tRp1705
(I1
(I18
I1
tg1533
I00
S'=j\x86?\xbc\xbe\xbb?\xe4\xe1\xbd?n4s@L\xcd\x9c@\xd9Dt@\xbax\x17@\xb0\x01 @\xac\x00\x10@E4\x93@\xeb\xdd\x19A@"b@Vw#AX\xcd\x94@\x88\x89X@c\xabZ@c"\x8a@\xefgV@'
S'\x00\x00\x00\x00\x00\x00\x00\x00\x00\x00\x00\x00\x00\x00\x00\x00\x00\x00'
Ntbsg1528
g1529
(g1530
g1516
g1531
S'b'
tRp1706
(I1
(I18
I1
tg1533
I00
S'\x00\x00\x80?\x00\x00\x80?\x00\x00\x80?\x00\x00\x80?\x00\x00\x80?\x00\x00\x80?\x00\x00\x80?\x00\x00\x80?\x00\x00\x80?\x00\x00\x80?\x00\x00\x80?\x00\x00\x80?\x00\x00\x80?\x00\x00\x80?\x00\x00\x80?\x00\x00\x80?\x00\x00\x80?\x00\x00\x80?'
S'\x00\x00\x00\x00\x00\x00\x00\x00\x00\x00\x00\x00\x00\x00\x00\x00\x00\x00'
Ntbsg21
g1515
(g1516
(I0
tS'b'
tRp1707
(I1
(I18
I1
tg1518
I00
(lp1708
S'1'
aS'8'
aS'4'
aS'1'
aS'3'
aS'9'
aS'1'
aS'6'
aS'6'
aS'8'
aS'8'
aS'1'
aS'6'
aS'7'
aS'5'
aS'5'
aS'5'
aS'3'
atbsg1543
g1529
(g1530
g1516
g1531
S'b'
tRp1709
(I1
(I18
I1
tg1533
I00
S'\x00\x00\x80@\x00\x00PA\x00\x00\x00\x00\x00\x00@@\x00\x00 A\x00\x00\x10A\x00\x00\x00A\x00\x00`A\x00\x00\xe0@\x00\x00\x80A\x00\x00pA\x00\x00\xa0@\x00\x00@A\x00\x00\x00@\x00\x00\x80?\x00\x000A\x00\x00\xc0@\x00\x00\x88A'
S'\x00\x00\x00\x00\x00\x00\x00\x00\x00\x00\x00\x00\x00\x00\x00\x00\x00\x00'
Ntbsg20
g1529
(g1530
g1516
g1531
S'b'
tRp1710
(I1
(I18
I1
tg1533
I00
S'\xa2\xb1Y?\x97\xb2*?h$\x82?\xacLD?h\x9d\x99?\x1b\x8c\xc8?\x8d\x11\x11@\xeeD\x14@\\y\xb7?\xf9\x9c\xf9?\xc9E\x04@KV%@_\x98\t@\x98E$@\x03D\x84@\x00\x8a(@\xe5\xf0.@\x05g\x86@'
S'\x00\x00\x00\x00\x00\x00\x00\x00\x00\x00\x00\x00\x00\x00\x00\x00\x00\x00'
NtbstRp1711
(dp1712
g1548
(dp1713
g1528
I01
sg21
I00
sg20
I01
sg22
I01
sg19
I00
sg23
I01
sg1543
I01
ssg1550
g1698
sg1551
(lp1714
g1528
ag1543
ag19
ag20
ag21
ag22
ag23
asg1553
(lp1715
I18
aI1
asbsg1555
g1556
sg1557
g1515
(g1516
(I0
tS'b'
tRp1716
(I1
(I18
I1
tg1518
I00
(lp1717
I2
aI14
aI13
aI3
aI0
aI11
aI16
aI8
aI6
aI5
aI4
aI15
aI12
aI1
aI7
aI10
aI9
aI17
atbsg1560
I01
sg1561
I1
sg1562
I-1
sg1563
(lp1718
g1
(g1565
g1513
(dp1719
g465
g519
sVY
L3L
sg467
L2L
sg468
g520
sg475
L1L
sg472
L1L
sg473
g514
sVX
L9L
sg470
L0L
sg477
g488
sg479
L0L
sg480
g523
stRp1720
ag1
(g1565
g1513
(dp1721
g465
g598
sVY
L2L
sg467
L2L
sg468
g599
sg475
L8L
sg472
L8L
sg473
g493
sVX
L2L
sg470
L0L
sg477
g568
sg479
L0L
sg480
g523
stRp1722
ag1
(g1565
g1513
(dp1723
g465
g466
sVY
L3L
sg467
L2L
sg468
g469
sg475
L4L
sg472
L4L
sg473
g474
sVX
L6L
sg470
L0L
sg477
g478
sg479
L0L
sg480
g481
stRp1724
ag1
(g1565
g1513
(dp1725
g465
g510
sVY
L2L
sg467
L2L
sg468
g511
sg475
L1L
sg472
L1L
sg473
g488
sVX
L6L
sg470
L0L
sg477
g514
sg479
L0L
sg480
g481
stRp1726
ag1
(g1565
g1513
(dp1727
g465
g574
sVY
L9L
sg467
L3L
sg468
g575
sg475
L3L
sg472
L3L
sg473
g490
sVX
L5L
sg470
g492
sg477
g474
sg479
L0L
sg480
g569
stRp1728
ag1
(g1565
g1513
(dp1729
g465
g564
sVY
L3L
sg467
L3L
sg468
g565
sg475
L9L
sg472
L9L
sg473
g501
sVX
L5L
sg470
g478
sg477
g568
sg479
L0L
sg480
g569
stRp1730
ag1
(g1565
g1513
(dp1731
g465
g555
sVY
L2L
sg467
L3L
sg468
g556
sg475
L1L
sg472
L1L
sg473
g488
sVX
L7L
sg470
g492
sg477
g514
sg479
L0L
sg480
g559
stRp1732
ag1
(g1565
g1513
(dp1733
g465
g606
sVY
L6L
sg467
L3L
sg468
g607
sg475
L6L
sg472
L6L
sg473
g568
sVX
L6L
sg470
g501
sg477
g514
sg479
L0L
sg480
g559
stRp1734
ag1
(g1565
g1513
(dp1735
g465
g546
sVY
L2L
sg467
L3L
sg468
g547
sg475
L6L
sg472
L6L
sg473
g492
sVX
L2L
sg470
g503
sg477
g493
sg479
L0L
sg480
g550
stRp1736
ag1
(g1565
g1513
(dp1737
g465
g622
sVY
L6L
sg467
L3L
sg468
g623
sg475
L8L
sg472
L8L
sg473
g514
sVX
L2L
sg470
g568
sg477
g493
sg479
L0L
sg480
g550
stRp1738
ag1
(g1565
g1513
(dp1739
g465
g614
sVY
L4L
sg467
L4L
sg468
g615
sg475
L8L
sg472
L8L
sg473
g493
sVX
L3L
sg470
g490
sg477
g474
sg479
g492
sg480
g532
stRp1740
ag1
(g1565
g1513
(dp1741
g465
g528
sVY
L8L
sg467
L4L
sg468
g529
sg475
L1L
sg472
L1L
sg473
g490
sVX
L2L
sg470
g492
sg477
g474
sg479
g493
sg480
g532
stRp1742
ag1
(g1565
g1513
(dp1743
g465
g590
sVY
L5L
sg467
L4L
sg468
g591
sg475
L6L
sg472
L6L
sg473
g488
sVX
L4L
sg470
g490
sg477
g493
sg479
g478
sg480
g505
stRp1744
ag1
(g1565
g1513
(dp1745
g465
g499
sVY
L3L
sg467
L4L
sg468
g500
sg475
L7L
sg472
L7L
sg473
g503
sVX
L2L
sg470
g501
sg477
g478
sg479
g490
sg480
g505
stRp1746
ag1
(g1565
g1513
(dp1747
g465
g486
sVY
L3L
sg467
L4L
sg468
g487
sg475
L5L
sg472
L5L
sg473
g490
sVX
L3L
sg470
g488
sg477
g492
sg479
g493
sg480
g494
stRp1748
ag1
(g1565
g1513
(dp1749
g465
g582
sVY
L4L
sg467
L4L
sg468
g583
sg475
L5L
sg472
L5L
sg473
g492
sVX
L8L
sg470
g568
sg477
g514
sg479
g501
sg480
g494
stRp1750
ag1
(g1565
g1513
(dp1751
g465
g537
sVY
L2L
sg467
L4L
sg468
g538
sg475
L5L
sg472
L5L
sg473
g490
sVX
L6L
sg470
g501
sg477
g492
sg479
g474
sg480
g541
stRp1752
ag1
(g1565
g1513
(dp1753
g465
g630
sVY
L2L
sg467
L4L
sg468
g631
sg475
L3L
sg472
L3L
sg473
g490
sVX
L3L
sg470
g478
sg477
g501
sg479
g474
sg480
g541
stRp1754
asg1578
Nsg1579
I17
sg1580
I18
sg1581
I0
sg1582
I18
sbag1
(g1501
g3
NtRp1755
(dp1756
g1504
Nsg1505
(lp1757
sg1507
I355709136
sg10
g1586
sg6
g1509
sg1510
I1
sg24
I01
sg25
g26
sg1511
g1
(g1512
g1513
(dp1758
g22
g1529
(g1530
g1516
g1531
S'b'
tRp1759
(I1
(I18
I1
tg1533
I00
S'\x00\x00\x80?\x00\x00\x80?\x00\x00\x80?\x00\x00\x80?\x00\x00\x80?\x00\x00\x80?\x00\x00\x80?\x00\x00\x80?\x00\x00\x80?\x00\x00\x80?\x00\x00\x80?\x00\x00\x80?\x00\x00\x80?\x00\x00\x80?\x00\x00\x80?\x00\x00\x80?\x00\x00\x80?\x00\x00\x80?'
S'\x00\x00\x00\x00\x00\x00\x00\x00\x00\x00\x00\x00\x00\x00\x00\x00\x00\x00'
Ntbsg19
g1515
(g1516
(I0
tS'b'
tRp1760
(I1
(I18
I1
tg1518
I00
(lp1761
g662
ag804
ag764
ag720
ag729
ag684
ag673
ag694
ag645
ag788
ag772
ag755
ag711
ag737
ag780
ag702
ag745
ag796
atbsg23
g1529
(g1530
g1516
g1531
S'b'
tRp1762
(I1
(I18
I1
tg1533
I00
S'(\xc3\xbb?w\xab\n@\xd2\xef\x8e?w[\xb5?\xb3\x89X@\x06\xcd,@&5\xd3?\x91\xcf<@\xb4\xef\x1e@\x84\x88\x18@\x19Wu@\x1e r@\xb5\x12a@\x99\xff\xef@\xdc\x11\x81@\x7f\x89\x98@\x17\xabj@2\xaa*@'
S'\x00\x00\x00\x00\x00\x00\x00\x00\x00\x00\x00\x00\x00\x00\x00\x00\x00\x00'
Ntbsg1528
g1529
(g1530
g1516
g1531
S'b'
tRp1763
(I1
(I18
I1
tg1533
I00
S'\x00\x00\x80?\x00\x00\x80?\x00\x00\x80?\x00\x00\x80?\x00\x00\x80?\x00\x00\x80?\x00\x00\x80?\x00\x00\x80?\x00\x00\x80?\x00\x00\x80?\x00\x00\x80?\x00\x00\x80?\x00\x00\x80?\x00\x00\x80?\x00\x00\x80?\x00\x00\x80?\x00\x00\x80?\x00\x00\x80?'
S'\x00\x00\x00\x00\x00\x00\x00\x00\x00\x00\x00\x00\x00\x00\x00\x00\x00\x00'
Ntbsg21
g1515
(g1516
(I0
tS'b'
tRp1764
(I1
(I18
I1
tg1518
I00
(lp1765
S'7'
aS'2'
aS'8'
aS'6'
aS'7'
aS'8'
aS'2'
aS'5'
aS'6'
aS'5'
aS'9'
aS'8'
aS'6'
aS'3'
aS'5'
aS'8'
aS'3'
aS'1'
atbsg1543
g1529
(g1530
g1516
g1531
S'b'
tRp1766
(I1
(I18
I1
tg1533
I00
S'\x00\x00\x80?\x00\x00\x88A\x00\x00@A\x00\x00\xe0@\x00\x00\x00A\x00\x00@@\x00\x00\x00@\x00\x00\x80@\x00\x00\x00\x00\x00\x00pA\x00\x00PA\x00\x000A\x00\x00\xc0@\x00\x00\x10A\x00\x00`A\x00\x00\xa0@\x00\x00 A\x00\x00\x80A'
S'\x00\x00\x00\x00\x00\x00\x00\x00\x00\x00\x00\x00\x00\x00\x00\x00\x00\x00'
Ntbsg20
g1529
(g1530
g1516
g1531
S'b'
tRp1767
(I1
(I18
I1
tg1533
I00
S'f~7?!JD?\x8e[U?\xca\xf1n?,\xf2\xae?bz\x97?P\x97\xf9?]\xcb\xec?Y@\xb3?\x1d\xdc\x9d?\xa0\x9a\t@Z\xcd\x1c@\x02U\x05@M"\x12@\xd0\x02\x00@\xe1WU@|\x9b\t@\x9f\xe1\xfd?'
S'\x00\x00\x00\x00\x00\x00\x00\x00\x00\x00\x00\x00\x00\x00\x00\x00\x00\x00'
NtbstRp1768
(dp1769
g1548
(dp1770
g1528
I01
sg21
I00
sg20
I01
sg22
I01
sg19
I00
sg23
I01
sg1543
I01
ssg1550
g1755
sg1551
(lp1771
g1528
ag1543
ag19
ag20
ag21
ag22
ag23
asg1553
(lp1772
I18
aI1
asbsg1555
g1556
sg1557
g1515
(g1516
(I0
tS'b'
tRp1773
(I1
(I18
I1
tg1518
I00
(lp1774
I8
aI0
aI6
aI5
aI7
aI15
aI12
aI3
aI4
aI13
aI16
aI11
aI2
aI10
aI14
aI9
aI17
aI1
atbsg1560
I01
sg1561
I1
sg1562
I-1
sg1563
(lp1775
g1
(g1565
g1513
(dp1776
g638
g660
sVY
L5L
sg640
L2L
sg641
g661
sg649
L7L
sg646
L7L
sg647
g663
sVX
L3L
sg643
L0L
sg651
g644
sg653
L0L
sg654
g665
stRp1777
ag1
(g1565
g1513
(dp1778
g638
g802
sVY
L4L
sg640
L2L
sg641
g803
sg649
L2L
sg646
L2L
sg647
g663
sVX
L9L
sg643
L0L
sg651
g806
sg653
L0L
sg654
g665
stRp1779
ag1
(g1565
g1513
(dp1780
g638
g762
sVY
L3L
sg640
L2L
sg641
g763
sg649
L8L
sg646
L8L
sg647
g747
sVX
L3L
sg643
L0L
sg651
g663
sg653
L0L
sg654
g722
stRp1781
ag1
(g1565
g1513
(dp1782
g638
g718
sVY
L8L
sg640
L2L
sg641
g719
sg649
L6L
sg646
L6L
sg647
g644
sVX
L4L
sg643
L0L
sg651
g683
sg653
L0L
sg654
g722
stRp1783
ag1
(g1565
g1513
(dp1784
g638
g727
sVY
L5L
sg640
L3L
sg641
g728
sg649
L7L
sg646
L7L
sg647
g652
sVX
L2L
sg643
g663
sg651
g644
sg653
L0L
sg654
g687
stRp1785
ag1
(g1565
g1513
(dp1786
g638
g681
sVY
L2L
sg640
L3L
sg641
g682
sg649
L8L
sg646
L8L
sg647
g685
sVX
L4L
sg643
g683
sg651
g644
sg653
L0L
sg654
g687
stRp1787
ag1
(g1565
g1513
(dp1788
g638
g670
sVY
L3L
sg640
L3L
sg641
g671
sg649
L2L
sg646
L2L
sg647
g674
sVX
L3L
sg643
g672
sg651
g652
sg653
L0L
sg654
g676
stRp1789
ag1
(g1565
g1513
(dp1790
g638
g692
sVY
L3L
sg640
L3L
sg641
g693
sg649
L5L
sg646
L5L
sg647
g644
sVX
L2L
sg643
g683
sg651
g672
sg653
L0L
sg654
g676
stRp1791
ag1
(g1565
g1513
(dp1792
g638
g639
sVY
L4L
sg640
L3L
sg641
g642
sg649
L6L
sg646
L6L
sg647
g648
sVX
L5L
sg643
g644
sg651
g652
sg653
L0L
sg654
g655
stRp1793
ag1
(g1565
g1513
(dp1794
g638
g786
sVY
L3L
sg640
L3L
sg641
g787
sg649
L5L
sg646
L5L
sg647
g672
sVX
L3L
sg643
g747
sg651
g683
sg653
L0L
sg654
g655
stRp1795
ag1
(g1565
g1513
(dp1796
g638
g770
sVY
L4L
sg640
L4L
sg641
g771
sg649
L9L
sg646
L9L
sg647
g663
sVX
L9L
sg643
g648
sg651
g644
sg653
g652
sg654
g757
stRp1797
ag1
(g1565
g1513
(dp1798
g638
g753
sVY
L2L
sg640
L4L
sg641
g754
sg649
L8L
sg646
L8L
sg647
g685
sVX
L2L
sg643
g652
sg651
g644
sg653
g663
sg654
g757
stRp1799
ag1
(g1565
g1513
(dp1800
g638
g709
sVY
L6L
sg640
L4L
sg641
g710
sg649
L6L
sg646
L6L
sg647
g644
sVX
L6L
sg643
g648
sg651
g663
sg653
g683
sg654
g713
stRp1801
ag1
(g1565
g1513
(dp1802
g638
g735
sVY
L2L
sg640
L4L
sg641
g736
sg649
L3L
sg646
L3L
sg647
g674
sVX
L9L
sg643
g652
sg651
g663
sg653
g648
sg654
g713
stRp1803
ag1
(g1565
g1513
(dp1804
g638
g778
sVY
L3L
sg640
L4L
sg641
g779
sg649
L5L
sg646
L5L
sg647
g652
sVX
L3L
sg643
g747
sg651
g663
sg653
g648
sg654
g704
stRp1805
ag1
(g1565
g1513
(dp1806
g638
g700
sVY
L3L
sg640
L4L
sg641
g701
sg649
L8L
sg646
L8L
sg647
g685
sVX
L3L
sg643
g674
sg651
g663
sg653
g652
sg654
g704
stRp1807
ag1
(g1565
g1513
(dp1808
g638
g743
sVY
L4L
sg640
L4L
sg641
g744
sg649
L3L
sg646
L3L
sg647
g683
sVX
L3L
sg643
g648
sg651
g672
sg653
g747
sg654
g748
stRp1809
ag1
(g1565
g1513
(dp1810
g638
g794
sVY
L2L
sg640
L4L
sg641
g795
sg649
L1L
sg646
L1L
sg647
g683
sVX
L7L
sg643
g672
sg651
g648
sg653
g674
sg654
g748
stRp1811
asg1578
Nsg1579
I1
sg1580
I18
sg1581
I0
sg1582
I18
sbag1
(g1501
g3
NtRp1812
(dp1813
g1504
Nsg1505
(lp1814
sg1507
I355709136
sg10
g1586
sg6
g1509
sg1510
I1
sg24
I01
sg25
g26
sg1511
g1
(g1512
g1513
(dp1815
g22
g1529
(g1530
g1516
g1531
S'b'
tRp1816
(I1
(I18
I1
tg1533
I00
S'\x00\x00\x80?\x00\x00\x80?\x00\x00\x80?\x00\x00\x80?\x00\x00\x80?\x00\x00\x80?\x00\x00\x80?\x00\x00\x80?\x00\x00\x80?\x00\x00\x80?\x00\x00\x80?\x00\x00\x80?\x00\x00\x80?\x00\x00\x80?\x00\x00\x80?\x00\x00\x80?\x00\x00\x80?\x00\x00\x80?'
S'\x00\x00\x00\x00\x00\x00\x00\x00\x00\x00\x00\x00\x00\x00\x00\x00\x00\x00'
Ntbsg19
g1515
(g1516
(I0
tS'b'
tRp1817
(I1
(I18
I1
tg1518
I00
(lp1818
g834
ag946
ag817
ag904
ag877
ag970
ag867
ag962
ag929
ag912
ag896
ag886
ag954
ag845
ag978
ag937
ag856
ag921
atbsg23
g1529
(g1530
g1516
g1531
S'b'
tRp1819
(I1
(I18
I1
tg1533
I00
S'\xdeh\x86? \xaf:@N\xad\xca?\xec\x16\xf1?\xe5\xcd\x1c@VV5@GY\x15@\xe8\xceL@\xa3f\xe6?n\x01@@\x97\xabj@Q\x10\x1dA\x8bUe@\x16\x88\xb8@TE\x8c@Z\xff\x8f@\x80\x87X@\xe7g\xa6@'
S'\x00\x00\x00\x00\x00\x00\x00\x00\x00\x00\x00\x00\x00\x00\x00\x00\x00\x00'
Ntbsg1528
g1529
(g1530
g1516
g1531
S'b'
tRp1820
(I1
(I18
I1
tg1533
I00
S'\x00\x00\x80?\x00\x00\x80?\x00\x00\x80?\x00\x00\x80?\x00\x00\x80?\x00\x00\x80?\x00\x00\x80?\x00\x00\x80?\x00\x00\x80?\x00\x00\x80?\x00\x00\x80?\x00\x00\x80?\x00\x00\x80?\x00\x00\x80?\x00\x00\x80?\x00\x00\x80?\x00\x00\x80?\x00\x00\x80?'
S'\x00\x00\x00\x00\x00\x00\x00\x00\x00\x00\x00\x00\x00\x00\x00\x00\x00\x00'
Ntbsg21
g1515
(g1516
(I0
tS'b'
tRp1821
(I1
(I18
I1
tg1518
I00
(lp1822
S'2'
aS'3'
aS'1'
aS'6'
aS'9'
aS'4'
aS'6'
aS'3'
aS'7'
aS'1'
aS'8'
aS'8'
aS'8'
aS'2'
aS'8'
aS'1'
aS'6'
aS'6'
atbsg1543
g1529
(g1530
g1516
g1531
S'b'
tRp1823
(I1
(I18
I1
tg1533
I00
S'\x00\x00\x80?\x00\x00PA\x00\x00\x00\x00\x00\x00\x00A\x00\x00\xa0@\x00\x00\x80A\x00\x00\x80@\x00\x00pA\x00\x000A\x00\x00\x10A\x00\x00\xe0@\x00\x00\xc0@\x00\x00`A\x00\x00\x00@\x00\x00\x88A\x00\x00@A\x00\x00@@\x00\x00 A'
S'\x00\x00\x00\x00\x00\x00\x00\x00\x00\x00\x00\x00\x00\x00\x00\x00\x00\x00'
Ntbsg20
g1529
(g1530
g1516
g1531
S'b'
tRp1824
(I1
(I18
I1
tg1533
I00
S'\x8b\xd8L?\xcf\x96H?\xbcrf?\x08\x8aH?\x14\xf5n?\xf3%\x82?Y\xb6{?\x9a\x15\x91?\xc5\xbf\x9b?-\xe4\xdd?\xd8\xf1\x0e@<\xdf\r@2\xcf,@\xbb!\x02@\x00\xbf\x0b@\xe7\x8a(@&"\x12@S\xbf\xbb?'
S'\x00\x00\x00\x00\x00\x00\x00\x00\x00\x00\x00\x00\x00\x00\x00\x00\x00\x00'
NtbstRp1825
(dp1826
g1548
(dp1827
g1528
I01
sg21
I00
sg20
I01
sg22
I01
sg19
I00
sg23
I01
sg1543
I01
ssg1550
g1812
sg1551
(lp1828
g1528
ag1543
ag19
ag20
ag21
ag22
ag23
asg1553
(lp1829
I18
aI1
asbsg1555
g1556
sg1557
g1515
(g1516
(I0
tS'b'
tRp1830
(I1
(I18
I1
tg1518
I00
(lp1831
I2
aI0
aI13
aI16
aI6
aI4
aI11
aI10
aI3
aI9
aI17
aI8
aI15
aI1
aI12
aI7
aI5
aI14
atbsg1560
I01
sg1561
I1
sg1562
I-1
sg1563
(lp1832
g1
(g1565
g1513
(dp1833
g811
g832
sVY
L2L
sg813
L2L
sg814
g833
sg821
L2L
sg818
L2L
sg819
g835
sVX
L3L
sg816
L0L
sg823
g820
sg825
L0L
sg826
g837
stRp1834
ag1
(g1565
g1513
(dp1835
g811
g944
sVY
L2L
sg813
L2L
sg814
g945
sg821
L3L
sg818
L3L
sg819
g824
sVX
L6L
sg816
L0L
sg823
g888
sg825
L0L
sg826
g837
stRp1836
ag1
(g1565
g1513
(dp1837
g811
g812
sVY
L4L
sg813
L2L
sg814
g815
sg821
L1L
sg818
L1L
sg819
g820
sVX
L8L
sg816
L0L
sg823
g824
sg825
L0L
sg826
g827
stRp1838
ag1
(g1565
g1513
(dp1839
g811
g902
sVY
L2L
sg813
L2L
sg814
g903
sg821
L6L
sg818
L6L
sg819
g868
sVX
L3L
sg816
L0L
sg823
g835
sg825
L0L
sg826
g827
stRp1840
ag1
(g1565
g1513
(dp1841
g811
g875
sVY
L8L
sg813
L3L
sg814
g876
sg821
L9L
sg818
L9L
sg819
g859
sVX
L6L
sg816
g848
sg823
g868
sg825
L0L
sg826
g879
stRp1842
ag1
(g1565
g1513
(dp1843
g811
g968
sVY
L2L
sg813
L3L
sg814
g969
sg821
L4L
sg818
L4L
sg819
g824
sVX
L3L
sg816
g857
sg823
g820
sg825
L0L
sg826
g879
stRp1844
ag1
(g1565
g1513
(dp1845
g811
g865
sVY
L3L
sg813
L3L
sg814
g866
sg821
L6L
sg818
L6L
sg819
g868
sVX
L3L
sg816
g857
sg823
g859
sg825
L0L
sg826
g870
stRp1846
ag1
(g1565
g1513
(dp1847
g811
g960
sVY
L2L
sg813
L3L
sg814
g961
sg821
L3L
sg818
L3L
sg819
g888
sVX
L8L
sg816
g859
sg823
g835
sg825
L0L
sg826
g870
stRp1848
ag1
(g1565
g1513
(dp1849
g811
g927
sVY
L3L
sg813
L3L
sg814
g928
sg821
L7L
sg818
L7L
sg819
g857
sVX
L6L
sg816
g820
sg823
g835
sg825
L0L
sg826
g914
stRp1850
ag1
(g1565
g1513
(dp1851
g811
g910
sVY
L3L
sg813
L3L
sg814
g911
sg821
L1L
sg818
L1L
sg819
g859
sVX
L3L
sg816
g868
sg823
g848
sg825
L0L
sg826
g914
stRp1852
ag1
(g1565
g1513
(dp1853
g811
g894
sVY
L6L
sg813
L4L
sg814
g895
sg821
L8L
sg818
L8L
sg819
g844
sVX
L6L
sg816
g824
sg823
g868
sg825
g848
sg826
g889
stRp1854
ag1
(g1565
g1513
(dp1855
g811
g884
sVY
L9L
sg813
L4L
sg814
g885
sg821
L8L
sg818
L8L
sg819
g824
sVX
L3L
sg816
g857
sg823
g888
sg825
g844
sg826
g889
stRp1856
ag1
(g1565
g1513
(dp1857
g811
g952
sVY
L2L
sg813
L4L
sg814
g953
sg821
L8L
sg818
L8L
sg819
g868
sVX
L3L
sg816
g835
sg823
g844
sg825
g848
sg826
g849
stRp1858
ag1
(g1565
g1513
(dp1859
g811
g842
sVY
L3L
sg813
L4L
sg814
g843
sg821
L2L
sg818
L2L
sg819
g846
sVX
L2L
sg816
g844
sg823
g848
sg825
g824
sg826
g849
stRp1860
ag1
(g1565
g1513
(dp1861
g811
g976
sVY
L7L
sg813
L4L
sg814
g977
sg821
L8L
sg818
L8L
sg819
g844
sVX
L6L
sg816
g868
sg823
g848
sg825
g824
sg826
g939
stRp1862
ag1
(g1565
g1513
(dp1863
g811
g935
sVY
L9L
sg813
L4L
sg814
g936
sg821
L1L
sg818
L1L
sg819
g835
sVX
L9L
sg816
g820
sg823
g848
sg825
g844
sg826
g939
stRp1864
ag1
(g1565
g1513
(dp1865
g811
g854
sVY
L3L
sg813
L4L
sg814
g855
sg821
L6L
sg818
L6L
sg819
g857
sVX
L9L
sg816
g835
sg823
g859
sg825
g820
sg826
g860
stRp1866
ag1
(g1565
g1513
(dp1867
g811
g919
sVY
L4L
sg813
L4L
sg814
g920
sg821
L6L
sg818
L6L
sg819
g844
sVX
L2L
sg816
g835
sg823
g848
sg825
g846
sg826
g860
stRp1868
asg1578
Nsg1579
I14
sg1580
I18
sg1581
I0
sg1582
I18
sbag1
(g1501
g3
NtRp1869
(dp1870
g1504
Nsg1505
(lp1871
sg1507
I355709136
sg10
g1586
sg6
g1509
sg1510
I1
sg24
I01
sg25
g26
sg1511
g1
(g1512
g1513
(dp1872
g22
g1529
(g1530
g1516
g1531
S'b'
tRp1873
(I1
(I18
I1
tg1533
I00
S'\x00\x00\x80?\x00\x00\x80?\x00\x00\x80?\x00\x00\x80?\x00\x00\x80?\x00\x00\x80?\x00\x00\x80?\x00\x00\x80?\x00\x00\x80?\x00\x00\x80?\x00\x00\x80?\x00\x00\x80?\x00\x00\x80?\x00\x00\x80?\x00\x00\x80?\x00\x00\x80?\x00\x00\x80?\x00\x00\x80?'
S'\x00\x00\x00\x00\x00\x00\x00\x00\x00\x00\x00\x00\x00\x00\x00\x00\x00\x00'
Ntbsg19
g1515
(g1516
(I0
tS'b'
tRp1874
(I1
(I18
I1
tg1518
I00
(lp1875
g1039
ag1008
ag1030
ag1019
ag1066
ag1110
ag1135
ag1093
ag991
ag1102
ag1126
ag1143
ag1151
ag1075
ag1048
ag1057
ag1118
ag1084
atbsg23
g1529
(g1530
g1516
g1531
S'b'
tRp1876
(I1
(I18
I1
tg1533
I00
S'\xc8\x88\x08@\xf2\x14!@\xd4\x01\xe0?\xfa$"@S\x12!@\x7f\x14a@\xc4v7@\xa6\xef.@\xb85#@PE\x04@\xef\xffO@\x91\xbck@cRU@HV\xb5@!Ed@z\x01p@?i6@\x16XE@'
S'\x00\x00\x00\x00\x00\x00\x00\x00\x00\x00\x00\x00\x00\x00\x00\x00\x00\x00'
Ntbsg1528
g1529
(g1530
g1516
g1531
S'b'
tRp1877
(I1
(I18
I1
tg1533
I00
S'\x00\x00\x80?\x00\x00\x80?\x00\x00\x80?\x00\x00\x80?\x00\x00\x80?\x00\x00\x80?\x00\x00\x80?\x00\x00\x80?\x00\x00\x80?\x00\x00\x80?\x00\x00\x80?\x00\x00\x80?\x00\x00\x80?\x00\x00\x80?\x00\x00\x80?\x00\x00\x80?\x00\x00\x80?\x00\x00\x80?'
S'\x00\x00\x00\x00\x00\x00\x00\x00\x00\x00\x00\x00\x00\x00\x00\x00\x00\x00'
Ntbsg21
g1515
(g1516
(I0
tS'b'
tRp1878
(I1
(I18
I1
tg1518
I00
(lp1879
S'7'
aS'2'
aS'8'
aS'8'
aS'4'
aS'4'
aS'9'
aS'2'
aS'5'
aS'1'
aS'2'
aS'8'
aS'3'
aS'4'
aS'7'
aS'6'
aS'8'
aS'3'
atbsg1543
g1529
(g1530
g1516
g1531
S'b'
tRp1880
(I1
(I18
I1
tg1533
I00
S'\x00\x00\x80@\x00\x00\x80?\x00\x00@@\x00\x00\x00@\x00\x00\xe0@\x00\x00@A\x00\x00pA\x00\x00 A\x00\x00\x00\x00\x00\x000A\x00\x00`A\x00\x00\x80A\x00\x00\x88A\x00\x00\x00A\x00\x00\xa0@\x00\x00\xc0@\x00\x00PA\x00\x00\x10A'
S'\x00\x00\x00\x00\x00\x00\x00\x00\x00\x00\x00\x00\x00\x00\x00\x00\x00\x00'
Ntbsg20
g1529
(g1530
g1516
g1531
S'b'
tRp1881
(I1
(I18
I1
tg1533
I00
S'Eg\x16@\xca|7?\x13\x8fH?\x1am&?\x90X\x05@\x9a\xbf\xdb?\xad}w?\x8b\xd0\x8c?.m\x86?-tf?m2S@\xfd7\xd3?LC4@hD$@$\\\xf5?O#"@\xb6\x8aH@?y\'@'
S'\x00\x00\x00\x00\x00\x00\x00\x00\x00\x00\x00\x00\x00\x00\x00\x00\x00\x00'
NtbstRp1882
(dp1883
g1548
(dp1884
g1528
I01
sg21
I00
sg20
I01
sg22
I01
sg19
I00
sg23
I01
sg1543
I01
ssg1550
g1869
sg1551
(lp1885
g1528
ag1543
ag19
ag20
ag21
ag22
ag23
asg1553
(lp1886
I18
aI1
asbsg1555
g1556
sg1557
g1515
(g1516
(I0
tS'b'
tRp1887
(I1
(I18
I1
tg1518
I00
(lp1888
I8
aI1
aI3
aI2
aI0
aI14
aI15
aI4
aI13
aI17
aI7
aI9
aI5
aI16
aI10
aI6
aI11
aI12
atbsg1560
I01
sg1561
I1
sg1562
I-1
sg1563
(lp1889
g1
(g1565
g1513
(dp1890
g984
g1037
sVY
L6L
sg986
L2L
sg987
g1038
sg995
L7L
sg992
L7L
sg993
g1040
sVX
L3L
sg989
L0L
sg997
g1031
sg999
L0L
sg1000
g1012
stRp1891
ag1
(g1565
g1513
(dp1892
g984
g1006
sVY
L4L
sg986
L2L
sg987
g1007
sg995
L2L
sg992
L2L
sg993
g1009
sVX
L5L
sg989
L0L
sg997
g1011
sg999
L0L
sg1000
g1012
stRp1893
ag1
(g1565
g1513
(dp1894
g984
g1028
sVY
L2L
sg986
L2L
sg987
g1029
sg995
L8L
sg992
L8L
sg993
g1031
sVX
L2L
sg989
L0L
sg997
g1022
sg999
L0L
sg1000
g1023
stRp1895
ag1
(g1565
g1513
(dp1896
g984
g1017
sVY
L2L
sg986
L2L
sg987
g1018
sg995
L8L
sg992
L8L
sg993
g1020
sVX
L2L
sg989
L0L
sg997
g1022
sg999
L0L
sg1000
g1023
stRp1897
ag1
(g1565
g1513
(dp1898
g984
g1063
sVY
L3L
sg986
L3L
sg987
g1064
sg995
L4L
sg992
L4L
sg993
g994
sVX
L8L
sg989
g1065
sg997
g990
sg999
L0L
sg1000
g1068
stRp1899
ag1
(g1565
g1513
(dp1900
g984
g1108
sVY
L2L
sg986
L3L
sg987
g1109
sg995
L4L
sg992
L4L
sg993
g1040
sVX
L3L
sg989
g1022
sg997
g1020
sg999
L0L
sg1000
g1068
stRp1901
ag1
(g1565
g1513
(dp1902
g984
g1133
sVY
L2L
sg986
L3L
sg987
g1134
sg995
L9L
sg992
L9L
sg993
g1031
sVX
L2L
sg989
g994
sg997
g1009
sg999
L0L
sg1000
g1095
stRp1903
ag1
(g1565
g1513
(dp1904
g984
g1091
sVY
L2L
sg986
L3L
sg987
g1092
sg995
L2L
sg992
L2L
sg993
g1011
sVX
L9L
sg989
g1040
sg997
g1009
sg999
L0L
sg1000
g1095
stRp1905
ag1
(g1565
g1513
(dp1906
g984
g985
sVY
L4L
sg986
L3L
sg987
g988
sg995
L5L
sg992
L5L
sg993
g994
sVX
L8L
sg989
g990
sg997
g998
sg999
L0L
sg1000
g1001
stRp1907
ag1
(g1565
g1513
(dp1908
g984
g1100
sVY
L6L
sg986
L3L
sg987
g1101
sg995
L1L
sg992
L1L
sg993
g1009
sVX
L8L
sg989
g1011
sg997
g1040
sg999
L0L
sg1000
g1001
stRp1909
ag1
(g1565
g1513
(dp1910
g984
g1124
sVY
L3L
sg986
L4L
sg987
g1125
sg995
L2L
sg992
L2L
sg993
g1022
sVX
L6L
sg989
g1009
sg997
g990
sg999
g1040
sg1000
g1128
stRp1911
ag1
(g1565
g1513
(dp1912
g984
g1141
sVY
L2L
sg986
L4L
sg987
g1142
sg995
L8L
sg992
L8L
sg993
g1009
sVX
L2L
sg989
g1065
sg997
g1020
sg999
g994
sg1000
g1128
stRp1913
ag1
(g1565
g1513
(dp1914
g984
g1149
sVY
L3L
sg986
L4L
sg987
g1150
sg995
L3L
sg992
L3L
sg993
g990
sVX
L4L
sg989
g994
sg997
g1009
sg999
g1065
sg1000
g1077
stRp1915
ag1
(g1565
g1513
(dp1916
g984
g1073
sVY
L3L
sg986
L4L
sg987
g1074
sg995
L4L
sg992
L4L
sg993
g1020
sVX
L7L
sg989
g1065
sg997
g1040
sg999
g1009
sg1000
g1077
stRp1917
ag1
(g1565
g1513
(dp1918
g984
g1046
sVY
L4L
sg986
L4L
sg987
g1047
sg995
L7L
sg992
L7L
sg993
g1009
sVX
L8L
sg989
g1031
sg997
g1040
sg999
g1022
sg1000
g1050
stRp1919
ag1
(g1565
g1513
(dp1920
g984
g1055
sVY
L3L
sg986
L4L
sg987
g1056
sg995
L6L
sg992
L6L
sg993
g1022
sVX
L5L
sg989
g1011
sg997
g994
sg999
g998
sg1000
g1050
stRp1921
ag1
(g1565
g1513
(dp1922
g984
g1116
sVY
L2L
sg986
L4L
sg987
g1117
sg995
L8L
sg992
L8L
sg993
g994
sVX
L4L
sg989
g1065
sg997
g998
sg999
g1031
sg1000
g1086
stRp1923
ag1
(g1565
g1513
(dp1924
g984
g1082
sVY
L5L
sg986
L4L
sg987
g1083
sg995
L3L
sg992
L3L
sg993
g998
sVX
L9L
sg989
g1065
sg997
g994
sg999
g1011
sg1000
g1086
stRp1925
asg1578
Nsg1579
I12
sg1580
I18
sg1581
I0
sg1582
I18
sbag1
(g1501
g3
NtRp1926
(dp1927
g1504
Nsg1505
(lp1928
sg1507
I355709136
sg10
g1586
sg6
g1509
sg1510
I1
sg24
I01
sg25
g26
sg1511
g1
(g1512
g1513
(dp1929
g22
g1529
(g1530
g1516
g1531
S'b'
tRp1930
(I1
(I18
I1
tg1533
I00
S'\x00\x00\x80?\x00\x00\x80?\x00\x00\x80?\x00\x00\x80?\x00\x00\x80?\x00\x00\x80?\x00\x00\x80?\x00\x00\x80?\x00\x00\x80?\x00\x00\x80?\x00\x00\x80?\x00\x00\x80?\x00\x00\x80?\x00\x00\x80?\x00\x00\x80?\x00\x00\x80?\x00\x00\x80?\x00\x00\x80?'
S'\x00\x00\x00\x00\x00\x00\x00\x00\x00\x00\x00\x00\x00\x00\x00\x00\x00\x00'
Ntbsg19
g1515
(g1516
(I0
tS'b'
tRp1931
(I1
(I18
I1
tg1518
I00
(lp1932
g1163
ag1229
ag1238
ag1180
ag1316
ag1307
ag1281
ag1299
ag1324
ag1290
ag1273
ag1254
ag1264
ag1220
ag1246
ag1190
ag1211
ag1201
atbsg23
g1529
(g1530
g1516
g1531
S'b'
tRp1933
(I1
(I18
I1
tg1533
I00
S"Py'@\xfc\x87\x08@\x0ek\xa6?\x99\x03\xc0?\xeb!\x12@R\x00\xb8@S\x8a(@\x99V\x05@p4\x03@\x032\x03@\xdd43@\xa8\xf0^@\xffC\x8c@\x18\xaa*@Q\xacj@\xf4\xa9J@\xffff@\x99\xcfL@"
S'\x00\x00\x00\x00\x00\x00\x00\x00\x00\x00\x00\x00\x00\x00\x00\x00\x00\x00'
Ntbsg1528
g1529
(g1530
g1516
g1531
S'b'
tRp1934
(I1
(I18
I1
tg1533
I00
S'\x00\x00\x80?\x00\x00\x80?\x00\x00\x80?\x00\x00\x80?\x00\x00\x80?\x00\x00\x80?\x00\x00\x80?\x00\x00\x80?\x00\x00\x80?\x00\x00\x80?\x00\x00\x80?\x00\x00\x80?\x00\x00\x80?\x00\x00\x80?\x00\x00\x80?\x00\x00\x80?\x00\x00\x80?\x00\x00\x80?'
S'\x00\x00\x00\x00\x00\x00\x00\x00\x00\x00\x00\x00\x00\x00\x00\x00\x00\x00'
Ntbsg21
g1515
(g1516
(I0
tS'b'
tRp1935
(I1
(I18
I1
tg1518
I00
(lp1936
S'1'
aS'4'
aS'9'
aS'6'
aS'6'
aS'7'
aS'8'
aS'2'
aS'1'
aS'9'
aS'1'
aS'2'
aS'1'
aS'3'
aS'7'
aS'1'
aS'5'
aS'7'
atbsg1543
g1529
(g1530
g1516
g1531
S'b'
tRp1937
(I1
(I18
I1
tg1533
I00
S'\x00\x00\x00\x00\x00\x00\xc0@\x00\x00\xe0@\x00\x00\x80?\x00\x00\x80A\x00\x00pA\x00\x00@A\x00\x00`A\x00\x00\x88A\x00\x00PA\x00\x000A\x00\x00\x10A\x00\x00 A\x00\x00\xa0@\x00\x00\x00A\x00\x00\x00@\x00\x00\x80@\x00\x00@@'
S'\x00\x00\x00\x00\x00\x00\x00\x00\x00\x00\x00\x00\x00\x00\x00\x00\x00\x00'
Ntbsg20
g1529
(g1530
g1516
g1531
S'b'
tRp1938
(I1
(I18
I1
tg1533
I00
S'\xf4bU?\xe2\xea]??\xd2L?8\xcdL?\x82\x7fw?uj\xa6?G9\x93?k9\x93?D|\xb7?\xb0\xd1\xac?\x13E$@\xf7\xcd,@\xce\x9b)@\xcff&@\xfbE\x04@\xdd\xbc\x0b@f\xbc\x1b@}\xbbK@'
S'\x00\x00\x00\x00\x00\x00\x00\x00\x00\x00\x00\x00\x00\x00\x00\x00\x00\x00'
NtbstRp1939
(dp1940
g1548
(dp1941
g1528
I01
sg21
I00
sg20
I01
sg22
I01
sg19
I00
sg23
I01
sg1543
I01
ssg1550
g1926
sg1551
(lp1942
g1528
ag1543
ag19
ag20
ag21
ag22
ag23
asg1553
(lp1943
I18
aI1
asbsg1555
g1556
sg1557
g1515
(g1516
(I0
tS'b'
tRp1944
(I1
(I18
I1
tg1518
I00
(lp1945
I0
aI3
aI15
aI17
aI16
aI13
aI1
aI2
aI14
aI11
aI12
aI10
aI6
aI9
aI7
aI5
aI4
aI8
atbsg1560
I01
sg1561
I1
sg1562
I-1
sg1563
(lp1946
g1
(g1565
g1513
(dp1947
g1157
g1158
sVY
L2L
sg1159
L2L
sg1160
g1161
sg1167
L1L
sg1164
L1L
sg1165
g1166
sVX
L9L
sg1162
L0L
sg1169
g1170
sg1171
L0L
sg1172
g1173
stRp1948
ag1
(g1565
g1513
(dp1949
g1157
g1227
sVY
L4L
sg1159
L2L
sg1160
g1228
sg1167
L4L
sg1164
L4L
sg1165
g1166
sVX
L3L
sg1162
L0L
sg1169
g1231
sg1171
L0L
sg1172
g1173
stRp1950
ag1
(g1565
g1513
(dp1951
g1157
g1236
sVY
L4L
sg1159
L2L
sg1160
g1237
sg1167
L9L
sg1164
L9L
sg1165
g1231
sVX
L2L
sg1162
L0L
sg1169
g1191
sg1171
L0L
sg1172
g1183
stRp1952
ag1
(g1565
g1513
(dp1953
g1157
g1178
sVY
L6L
sg1159
L2L
sg1160
g1179
sg1167
L6L
sg1164
L6L
sg1165
g1170
sVX
L8L
sg1162
L0L
sg1169
g1182
sg1171
L0L
sg1172
g1183
stRp1954
ag1
(g1565
g1513
(dp1955
g1157
g1314
sVY
L4L
sg1159
L3L
sg1160
g1315
sg1167
L6L
sg1164
L6L
sg1165
g1213
sVX
L6L
sg1162
g1193
sg1169
g1203
sg1171
L0L
sg1172
g1309
stRp1956
ag1
(g1565
g1513
(dp1957
g1157
g1305
sVY
L9L
sg1159
L3L
sg1160
g1306
sg1167
L7L
sg1164
L7L
sg1165
g1256
sVX
L9L
sg1162
g1213
sg1169
g1170
sg1171
L0L
sg1172
g1309
stRp1958
ag1
(g1565
g1513
(dp1959
g1157
g1279
sVY
L4L
sg1159
L3L
sg1160
g1280
sg1167
L8L
sg1164
L8L
sg1165
g1231
sVX
L3L
sg1162
g1166
sg1169
g1256
sg1171
L0L
sg1172
g1283
stRp1960
ag1
(g1565
g1513
(dp1961
g1157
g1297
sVY
L2L
sg1159
L3L
sg1160
g1298
sg1167
L2L
sg1164
L2L
sg1165
g1265
sVX
L4L
sg1162
g1193
sg1169
g1191
sg1171
L0L
sg1172
g1283
stRp1962
ag1
(g1565
g1513
(dp1963
g1157
g1322
sVY
L2L
sg1159
L3L
sg1160
g1323
sg1167
L1L
sg1164
L1L
sg1165
g1193
sVX
L8L
sg1162
g1265
sg1169
g1213
sg1171
L0L
sg1172
g1292
stRp1964
ag1
(g1565
g1513
(dp1965
g1157
g1288
sVY
L3L
sg1159
L3L
sg1160
g1289
sg1167
L9L
sg1164
L9L
sg1165
g1193
sVX
L2L
sg1162
g1231
sg1169
g1182
sg1171
L0L
sg1172
g1292
stRp1966
ag1
(g1565
g1513
(dp1967
g1157
g1271
sVY
L3L
sg1159
L4L
sg1160
g1272
sg1167
L1L
sg1164
L1L
sg1165
g1213
sVX
L6L
sg1162
g1166
sg1169
g1265
sg1171
g1256
sg1172
g1257
stRp1968
ag1
(g1565
g1513
(dp1969
g1157
g1252
sVY
L2L
sg1159
L4L
sg1160
g1253
sg1167
L2L
sg1164
L2L
sg1165
g1213
sVX
L3L
sg1162
g1166
sg1169
g1231
sg1171
g1256
sg1172
g1257
stRp1970
ag1
(g1565
g1513
(dp1971
g1157
g1262
sVY
L9L
sg1159
L4L
sg1160
g1263
sg1167
L1L
sg1164
L1L
sg1165
g1265
sVX
L3L
sg1162
g1182
sg1169
g1213
sg1171
g1256
sg1172
g1222
stRp1972
ag1
(g1565
g1513
(dp1973
g1157
g1218
sVY
L3L
sg1159
L4L
sg1160
g1219
sg1167
L3L
sg1164
L3L
sg1165
g1170
sVX
L6L
sg1162
g1191
sg1169
g1182
sg1171
g1193
sg1172
g1222
stRp1974
ag1
(g1565
g1513
(dp1975
g1157
g1244
sVY
L2L
sg1159
L4L
sg1160
g1245
sg1167
L7L
sg1164
L7L
sg1165
g1193
sVX
L2L
sg1162
g1231
sg1169
g1191
sg1171
g1182
sg1172
g1194
stRp1976
ag1
(g1565
g1513
(dp1977
g1157
g1188
sVY
L2L
sg1159
L4L
sg1160
g1189
sg1167
L1L
sg1164
L1L
sg1165
g1191
sVX
L8L
sg1162
g1170
sg1169
g1166
sg1171
g1193
sg1172
g1194
stRp1978
ag1
(g1565
g1513
(dp1979
g1157
g1209
sVY
L2L
sg1159
L4L
sg1160
g1210
sg1167
L5L
sg1164
L5L
sg1165
g1193
sVX
L2L
sg1162
g1182
sg1169
g1213
sg1171
g1203
sg1172
g1204
stRp1980
ag1
(g1565
g1513
(dp1981
g1157
g1199
sVY
L2L
sg1159
L4L
sg1160
g1200
sg1167
L7L
sg1164
L7L
sg1165
g1182
sVX
L2L
sg1162
g1193
sg1169
g1191
sg1171
g1203
sg1172
g1204
stRp1982
asg1578
Nsg1579
I8
sg1580
I18
sg1581
I0
sg1582
I18
sbag1
(g1501
g3
NtRp1983
(dp1984
g1504
Nsg1505
(lp1985
sg1507
I355709136
sg10
g1586
sg6
g1509
sg1510
I1
sg24
I01
sg25
g26
sg1511
g1
(g1512
g1513
(dp1986
g22
g1529
(g1530
g1516
g1531
S'b'
tRp1987
(I1
(I18
I1
tg1533
I00
S'\x00\x00\x80?\x00\x00\x80?\x00\x00\x80?\x00\x00\x80?\x00\x00\x80?\x00\x00\x80?\x00\x00\x80?\x00\x00\x80?\x00\x00\x80?\x00\x00\x80?\x00\x00\x80?\x00\x00\x80?\x00\x00\x80?\x00\x00\x80?\x00\x00\x80?\x00\x00\x80?\x00\x00\x80?\x00\x00\x80?'
S'\x00\x00\x00\x00\x00\x00\x00\x00\x00\x00\x00\x00\x00\x00\x00\x00\x00\x00'
Ntbsg19
g1515
(g1516
(I0
tS'b'
tRp1988
(I1
(I18
I1
tg1518
I00
(lp1989
g1497
ag1375
ag1355
ag1457
ag1473
ag1365
ag1489
ag1385
ag1449
ag1413
ag1403
ag1441
ag1432
ag1465
ag1422
ag1481
ag1337
ag1394
atbsg23
g1529
(g1530
g1516
g1531
S'b'
tRp1990
(I1
(I18
I1
tg1533
I00
S'(\xe4\x9d?\xd7X\xb5?m%\xc2?Cj\xa6?\xbaT\x15@\x83gV@\xc0\xf0\x0e@!2C@ZEd@\xc3$B@\xcd\xe0m@\xd7\xbc[@#w\xd7@\xd8g\x96@\xf2v\x87@\xaf#"@5Gd@\xe6\x00@@'
S'\x00\x00\x00\x00\x00\x00\x00\x00\x00\x00\x00\x00\x00\x00\x00\x00\x00\x00'
Ntbsg1528
g1529
(g1530
g1516
g1531
S'b'
tRp1991
(I1
(I18
I1
tg1533
I00
S'\x00\x00\x80?\x00\x00\x80?\x00\x00\x80?\x00\x00\x80?\x00\x00\x80?\x00\x00\x80?\x00\x00\x80?\x00\x00\x80?\x00\x00\x80?\x00\x00\x80?\x00\x00\x80?\x00\x00\x80?\x00\x00\x80?\x00\x00\x80?\x00\x00\x80?\x00\x00\x80?\x00\x00\x80?\x00\x00\x80?'
S'\x00\x00\x00\x00\x00\x00\x00\x00\x00\x00\x00\x00\x00\x00\x00\x00\x00\x00'
Ntbsg21
g1515
(g1516
(I0
tS'b'
tRp1992
(I1
(I18
I1
tg1518
I00
(lp1993
S'4'
aS'6'
aS'3'
aS'1'
aS'9'
aS'5'
aS'5'
aS'5'
aS'8'
aS'3'
aS'3'
aS'9'
aS'4'
aS'3'
aS'8'
aS'6'
aS'1'
aS'6'
atbsg1543
g1529
(g1530
g1516
g1531
S'b'
tRp1994
(I1
(I18
I1
tg1533
I00
S'\x00\x00\x88A\x00\x00@@\x00\x00\x80?\x00\x00@A\x00\x00`A\x00\x00\x00@\x00\x00\x80A\x00\x00\x80@\x00\x000A\x00\x00\xe0@\x00\x00\xc0@\x00\x00 A\x00\x00\x10A\x00\x00PA\x00\x00\x00A\x00\x00pA\x00\x00\x00\x00\x00\x00\xa0@'
S'\x00\x00\x00\x00\x00\x00\x00\x00\x00\x00\x00\x00\x00\x00\x00\x00\x00\x00'
Ntbsg20
g1529
(g1530
g1516
g1531
S'b'
tRp1995
(I1
(I18
I1
tg1533
I00
S'\x08\xa4Y?\xc8\x95H?`\x867?\xe5RD?\xf55\xb3?j\xad\xaa?\x1d5\x93?z\xcf\xec?R\x7fw?\xe7"\x82?\xacU%@jV\x05@\xf5U\x05@{0#@MK\xe4?\xd66\x13@AY\xb5?\xd9\xaa\x1a@'
S'\x00\x00\x00\x00\x00\x00\x00\x00\x00\x00\x00\x00\x00\x00\x00\x00\x00\x00'
NtbstRp1996
(dp1997
g1548
(dp1998
g1528
I01
sg21
I00
sg20
I01
sg22
I01
sg19
I00
sg23
I01
sg1543
I01
ssg1550
g1983
sg1551
(lp1999
g1528
ag1543
ag19
ag20
ag21
ag22
ag23
asg1553
(lp2000
I18
aI1
asbsg1555
g1556
sg1557
g1515
(g1516
(I0
tS'b'
tRp2001
(I1
(I18
I1
tg1518
I00
(lp2002
I16
aI2
aI5
aI1
aI7
aI17
aI10
aI9
aI14
aI12
aI11
aI8
aI3
aI13
aI4
aI15
aI6
aI0
atbsg1560
I01
sg1561
I1
sg1562
I-1
sg1563
(lp2003
g1
(g1565
g1513
(dp2004
g1330
g1495
sVY
L2L
sg1332
L2L
sg1333
g1496
sg1341
L4L
sg1338
L4L
sg1339
g1384
sVX
L3L
sg1335
L0L
sg1343
g1367
sg1345
L0L
sg1347
g1377
stRp2005
ag1
(g1565
g1513
(dp2006
g1330
g1373
sVY
L2L
sg1332
L2L
sg1333
g1374
sg1341
L6L
sg1338
L6L
sg1339
g1340
sVX
L2L
sg1335
L0L
sg1343
g1367
sg1345
L0L
sg1347
g1377
stRp2007
ag1
(g1565
g1513
(dp2008
g1330
g1353
sVY
L5L
sg1332
L2L
sg1333
g1354
sg1341
L3L
sg1338
L3L
sg1339
g1356
sVX
L4L
sg1335
L0L
sg1343
g1344
sg1345
L0L
sg1347
g1358
stRp2009
ag1
(g1565
g1513
(dp2010
g1330
g1455
sVY
L2L
sg1332
L2L
sg1333
g1456
sg1341
L1L
sg1338
L1L
sg1339
g1405
sVX
L5L
sg1335
L0L
sg1343
g1344
sg1345
L0L
sg1347
g1358
stRp2011
ag1
(g1565
g1513
(dp2012
g1330
g1471
sVY
L3L
sg1332
L3L
sg1333
g1472
sg1341
L9L
sg1338
L9L
sg1339
g1384
sVX
L8L
sg1335
g1336
sg1343
g1367
sg1345
L0L
sg1347
g1368
stRp2013
ag1
(g1565
g1513
(dp2014
g1330
g1363
sVY
L5L
sg1332
L3L
sg1333
g1364
sg1341
L5L
sg1338
L5L
sg1339
g1344
sVX
L6L
sg1335
g1336
sg1343
g1367
sg1345
L0L
sg1347
g1368
stRp2015
ag1
(g1565
g1513
(dp2016
g1330
g1487
sVY
L7L
sg1332
L3L
sg1333
g1488
sg1341
L5L
sg1338
L5L
sg1339
g1356
sVX
L7L
sg1335
g1340
sg1343
g1344
sg1345
L0L
sg1347
g1387
stRp2017
ag1
(g1565
g1513
(dp2018
g1330
g1382
sVY
L5L
sg1332
L3L
sg1333
g1383
sg1341
L5L
sg1338
L5L
sg1339
g1367
sVX
L4L
sg1335
g1384
sg1343
g1344
sg1345
L0L
sg1347
g1387
stRp2019
ag1
(g1565
g1513
(dp2020
g1330
g1447
sVY
L5L
sg1332
L3L
sg1333
g1448
sg1341
L8L
sg1338
L8L
sg1339
g1384
sVX
L5L
sg1335
g1367
sg1343
g1344
sg1345
L0L
sg1347
g1415
stRp2021
ag1
(g1565
g1513
(dp2022
g1330
g1411
sVY
L2L
sg1332
L3L
sg1333
g1412
sg1341
L3L
sg1338
L3L
sg1339
g1336
sVX
L4L
sg1335
g1346
sg1343
g1396
sg1345
L0L
sg1347
g1415
stRp2023
ag1
(g1565
g1513
(dp2024
g1330
g1401
sVY
L5L
sg1332
L4L
sg1333
g1402
sg1341
L3L
sg1338
L3L
sg1339
g1336
sVX
L5L
sg1335
g1340
sg1343
g1405
sg1345
g1396
sg1347
g1406
stRp2025
ag1
(g1565
g1513
(dp2026
g1330
g1439
sVY
L3L
sg1332
L4L
sg1333
g1440
sg1341
L9L
sg1338
L9L
sg1339
g1340
sVX
L3L
sg1335
g1344
sg1343
g1367
sg1345
g1423
sg1347
g1406
stRp2027
ag1
(g1565
g1513
(dp2028
g1330
g1430
sVY
L6L
sg1332
L4L
sg1333
g1431
sg1341
L4L
sg1338
L4L
sg1339
g1346
sVX
L3L
sg1335
g1396
sg1343
g1340
sg1345
g1423
sg1347
g1434
stRp2029
ag1
(g1565
g1513
(dp2030
g1330
g1463
sVY
L3L
sg1332
L4L
sg1333
g1464
sg1341
L3L
sg1338
L3L
sg1339
g1405
sVX
L3L
sg1335
g1423
sg1343
g1396
sg1345
g1384
sg1347
g1434
stRp2031
ag1
(g1565
g1513
(dp2032
g1330
g1420
sVY
L2L
sg1332
L4L
sg1333
g1421
sg1341
L8L
sg1338
L8L
sg1339
g1423
sVX
L9L
sg1335
g1356
sg1343
g1344
sg1345
g1340
sg1347
g1425
stRp2033
ag1
(g1565
g1513
(dp2034
g1330
g1479
sVY
L3L
sg1332
L4L
sg1333
g1480
sg1341
L6L
sg1338
L6L
sg1339
g1336
sVX
L2L
sg1335
g1356
sg1343
g1396
sg1345
g1384
sg1347
g1425
stRp2035
ag1
(g1565
g1513
(dp2036
g1330
g1331
sVY
L2L
sg1332
L4L
sg1333
g1334
sg1341
L1L
sg1338
L1L
sg1339
g1340
sVX
L8L
sg1335
g1336
sg1343
g1344
sg1345
g1346
sg1347
g1348
stRp2037
ag1
(g1565
g1513
(dp2038
g1330
g1392
sVY
L2L
sg1332
L4L
sg1333
g1393
sg1341
L6L
sg1338
L6L
sg1339
g1384
sVX
L3L
sg1335
g1336
sg1343
g1396
sg1345
g1367
sg1347
g1348
stRp2039
asg1578
Nsg1579
I0
sg1580
I18
sg1581
I0
sg1582
I18
sbasS'savePickle'
p2040
I00
sb.