ccopy_reg
_reconstructor
p1
(cpsychopy.data
ExperimentHandler
p2
c__builtin__
object
p3
NtRp4
(dp5
S'originPath'
p6
NsS'dataFileName'
p7
VC:\u005cUsers\u005cexperimenter\u005cDesktop\u005cExperiments\u005cKRITL\u005cdata/31037_KRITL_2017_Apr_14_1254
p8
sS'runtimeInfo'
p9
NsS'name'
p10
S'KRITL'
p11
sS'dataNames'
p12
(lp13
S'practice_encoding.keys'
p14
aS'practice_encoding.rt'
p15
aS'practice_execution.keys'
p16
aS'practice_execution.corr'
p17
aS'practice_execution.rt'
p18
aS'encoding.keys'
p19
aS'encoding.rt'
p20
aS'execution.keys'
p21
aS'execution.corr'
p22
aS'execution.rt'
p23
asS'autoLog'
p24
I01
sS'extraInfo'
p25
(dp26
S'date'
p27
V2017_Apr_14_1254
p28
sS'frameRate'
p29
NsS'expName'
p30
g11
sVsession
p31
V001
p32
sVparticipant
p33
V31037
p34
ssS'loopsUnfinished'
p35
(lp36
sS'saveWideText'
p37
I00
sS'thisEntry'
p38
(dp39
sS'version'
p40
S''
sS'_paramNamesSoFar'
p41
(lp42
Voperationc
p43
aVoperationb
p44
aVoperationa
p45
aVcorrectresponse
p46
aVvaluey
p47
aVoperationd
p48
aVcondition
p49
aVvaluex
p50
aVRule
p51
aVOperatora
p52
aVLength
p53
aVIntermediate
p54
aVCorrectResponse
p55
aVResult
p56
aVY
aVX
aVOperatorc
p57
aVOperatorb
p58
aVOperatord
p59
aVStructure
p60
asS'entries'
p61
(lp62
(dp63
g18
F4.4201573360332986
sg29
Nsg17
I1
sg43
I0
sg44
VADD
p64
sg45
Vdecrease
p65
sg31
g32
sg46
I7
sS'practice_trials.thisTrialN'
p66
I0
sg48
I0
sS'practice_trials.thisRepN'
p67
I0
sg33
g34
sg49
I2
sg27
g28
sg16
S'7'
sg14
(lp68
S'space'
p69
asS'practice_trials.thisIndex'
p70
I0
sS'practice_trials.thisN'
p71
I0
sg30
g11
sg15
(lp72
F5.3302572817483451
asg47
I5
sg50
I3
sa(dp73
g18
F7.4764659131469671
sg29
Nsg17
I1
sg43
Vincrease
p74
sg44
VDIVIDE
p75
sg45
Vtriple
p76
sg31
g32
sg46
I3
sS'practice_trials.thisTrialN'
p77
I1
sg48
I0
sS'practice_trials.thisRepN'
p78
I0
sg33
g34
sg49
I3
sg27
g28
sg16
S'3'
sg14
(lp79
S'space'
p80
asS'practice_trials.thisIndex'
p81
I4
sS'practice_trials.thisN'
p82
I1
sg30
g11
sg15
(lp83
F13.053811596415471
asg47
I3
sg50
I2
sa(dp84
g18
F15.250617070938461
sg29
Nsg17
I1
sg43
g64
sg44
Vtriple 
p85
sg45
Vhalf
p86
sg31
g32
sg46
I8
sS'practice_trials.thisTrialN'
p87
I2
sg48
I0
sS'practice_trials.thisRepN'
p88
I0
sg33
g34
sg49
I3
sg27
g28
sg16
S'8'
sg14
(lp89
S'space'
p90
asS'practice_trials.thisIndex'
p91
I3
sS'practice_trials.thisN'
p92
I2
sg30
g11
sg15
(lp93
F2.2326094130694401
asg47
I2
sg50
I4
sa(dp94
g18
F10.120215534756426
sg29
Nsg17
I1
sg43
g74
sg44
g75
sg45
Vdouble
p95
sg31
g32
sg46
I9
sS'practice_trials.thisTrialN'
p96
I3
sg48
g76
sS'practice_trials.thisRepN'
p97
I0
sg33
g34
sg49
I4
sg27
g28
sg16
S'9'
sg14
(lp98
S'space'
p99
asS'practice_trials.thisIndex'
p100
I5
sS'practice_trials.thisN'
p101
I3
sg30
g11
sg15
(lp102
F10.812351287910133
asg47
I8
sg50
I8
sa(dp103
g18
F2.0096470595599385
sg29
Nsg17
I1
sg43
I0
sg44
g64
sg45
g86
sg31
g32
sg46
I7
sS'practice_trials.thisTrialN'
p104
I4
sg48
I0
sS'practice_trials.thisRepN'
p105
I0
sg33
g34
sg49
I2
sg27
g28
sg16
S'7'
sg14
(lp106
S'space'
p107
asS'practice_trials.thisIndex'
p108
I2
sS'practice_trials.thisN'
p109
I4
sg30
g11
sg15
(lp110
F1.7729224403155968
asg47
I5
sg50
I4
sa(dp111
g18
F1.3658557924500201
sg29
Nsg17
I1
sg43
I0
sg44
g65
sg45
VTIMES
p112
sg31
g32
sg46
I8
sS'practice_trials.thisTrialN'
p113
I5
sg48
I0
sS'practice_trials.thisRepN'
p114
I0
sg33
g34
sg49
I2
sg27
g28
sg16
S'8'
sg14
(lp115
S'space'
p116
asS'practice_trials.thisIndex'
p117
I1
sS'practice_trials.thisN'
p118
I5
sg30
g11
sg15
(lp119
F1.7342425119568361
asg47
I3
sg50
I3
sa(dp120
S'block.thisTrialN'
p121
I0
sS'block.thisRepN'
p122
I0
sg29
NsS'block.thisN'
p123
I0
sg51
(S'INCREASE'
S'SUBTRACT'
S'x'
S'y'
tp124
sg27
g28
sg53
I2
sg54
(I3
I4
tp125
sg22
I1
sg20
F8.1394893560645869
sg23
F3.1578081303887302
sVY
I3
sVX
I6
sg57
I0
sg31
g32
sg33
g34
sg21
S'4'
sg19
S'space'
p126
sg30
g11
sg56
I4
sg52
VSUBTRACT
p127
sg55
I4
sS'block.thisIndex'
p128
I2
sg58
Vincrease
p129
sg59
I0
sg60
VUBxy
p130
sa(dp131
S'block.thisTrialN'
p132
I1
sS'block.thisRepN'
p133
I0
sg29
NsS'block.thisN'
p134
I1
sg51
(S'HALF'
S'TRIPLE'
S'INCREASE'
S'SUBTRACT'
S'x'
S'y'
tp135
sg27
g28
sg53
I4
sg54
(I1
I2
I6
I3
tp136
sg22
I1
sg20
F5.8774516168487025
sg23
F8.8426030752598308
sVY
I2
sVX
I3
sg57
g129
sg31
g32
sg33
g34
sg21
S'3'
sg19
S'space'
p137
sg30
g11
sg56
I3
sg52
Vtriple
p138
sg55
I3
sS'block.thisIndex'
p139
I17
sg58
Vhalf
p140
sg59
g127
sg60
VUUUBxy
p141
sa(dp142
S'block.thisTrialN'
p143
I2
sS'block.thisRepN'
p144
I0
sg29
NsS'block.thisN'
p145
I2
sg51
(S'DECREASE'
S'TRIPLE'
S'DIVIDE'
S'DOUBLE'
S'x'
S'y'
tp146
sg27
g28
sg53
I4
sg54
(I6
I2
I6
I5
tp147
sg22
I0
sg20
F11.648737283685477
sVY
I3
sVX
I3
sg57
VDIVIDE
p148
sg31
g32
sg33
g34
sg21
Nsg19
S'space'
p149
sg30
g11
sg56
I5
sg52
g138
sg55
I5
sS'block.thisIndex'
p150
I14
sg58
Vdecrease
p151
sg59
Vdouble
p152
sg60
VUUBUxy
p153
sa(dp154
S'block.thisTrialN'
p155
I3
sS'block.thisRepN'
p156
I0
sg29
NsS'block.thisN'
p157
I3
sg51
(S'TIMES'
S'HALF'
S'INCREASE'
S'x'
S'y'
tp158
sg27
g28
sg53
I3
sg54
(I6
I3
I9
tp159
sg22
I1
sg20
F4.0754490628169151
sg23
F5.0118231248779921
sVY
I3
sVX
I5
sg57
g129
sg31
g32
sg33
g34
sg21
S'9'
sg19
S'space'
p160
sg30
g11
sg56
I9
sg52
g140
sg55
I9
sS'block.thisIndex'
p161
I5
sg58
VTIMES
p162
sg59
I0
sg60
VBUUxy
p163
sa(dp164
S'block.thisTrialN'
p165
I4
sS'block.thisRepN'
p166
I0
sg29
NsS'block.thisN'
p167
I4
sg51
(S'DOUBLE'
S'DECREASE'
S'ADD'
S'x'
S'y'
tp168
sg27
g28
sg53
I3
sg54
(I4
I3
I6
tp169
sg22
I1
sg20
F3.8740653820423177
sg23
F7.6204347861203132
sVY
I2
sVX
I2
sg57
VADD
p170
sg31
g32
sg33
g34
sg21
S'6'
sg19
S'space'
p171
sg30
g11
sg56
I6
sg52
g151
sg55
I6
sS'block.thisIndex'
p172
I8
sg58
g152
sg59
I0
sg60
VUUBxy
p173
sa(dp174
S'block.thisTrialN'
p175
I5
sS'block.thisRepN'
p176
I0
sg29
NsS'block.thisN'
p177
I5
sg51
(S'INCREASE'
S'ADD'
S'HALF'
S'TRIPLE'
S'x'
S'y'
tp178
sg27
g28
sg53
I4
sg54
(I6
I3
I6
I7
tp179
sg22
I1
sg20
F4.4225031330424827
sg23
F12.934301585584763
sVY
I3
sVX
I2
sg57
g140
sg31
g32
sg33
g34
sg21
S'7'
sg19
S'space'
p180
sg30
g11
sg56
I7
sg52
g170
sg55
I7
sS'block.thisIndex'
p181
I13
sg58
g129
sg59
g138
sg60
VUBUUxy
p182
sa(dp183
S'block.thisTrialN'
p184
I6
sS'block.thisRepN'
p185
I0
sg29
NsS'block.thisN'
p186
I6
sg51
(S'THIRD'
S'DIVIDE'
S'x'
S'y'
tp187
sg27
g28
sg53
I2
sg54
(I3
I1
tp188
sg22
I1
sg20
F1.3642060703714378
sg23
F1.7017457167239627
sVY
I2
sVX
I6
sg57
I0
sg31
g32
sg33
g34
sg21
S'1'
sg19
S'space'
p189
sg30
g11
sg56
I1
sg52
g148
sg55
I1
sS'block.thisIndex'
p190
I3
sg58
Vthird
p191
sg59
I0
sg60
g130
sa(dp192
S'block.thisTrialN'
p193
I7
sS'block.thisRepN'
p194
I0
sg29
NsS'block.thisN'
p195
I7
sg51
(S'SUBTRACT'
S'TRIPLE'
S'DECREASE'
S'x'
S'y'
tp196
sg27
g28
sg53
I3
sg54
(I4
I12
I3
tp197
sg22
I1
sg20
F4.1810281261132332
sg23
F5.8288387097418308
sVY
I9
sVX
I5
sg57
g151
sg31
g32
sg33
g34
sg21
S'3'
sg19
S'space'
p198
sg30
g11
sg56
I3
sg52
g138
sg55
I3
sS'block.thisIndex'
p199
I4
sg58
g127
sg59
I0
sg60
g163
sa(dp200
S'block.thisTrialN'
p201
I8
sS'block.thisRepN'
p202
I0
sg29
NsS'block.thisN'
p203
I8
sg51
(S'DIVIDE'
S'THIRD'
S'x'
S'y'
tp204
sg27
g28
sg53
I2
sg54
(I3
I1
tp205
sg22
I1
sg20
F2.3427127884351648
sg23
F7.2593048839626135
sVY
I3
sVX
I9
sg57
I0
sg31
g32
sg33
g34
sg21
S'1'
sg19
S'space'
p206
sg30
g11
sg56
I1
sg52
g191
sg55
I1
sS'block.thisIndex'
p207
I0
sg58
g148
sg59
I0
sg60
VBUxy
p208
sa(dp209
S'block.thisTrialN'
p210
I9
sS'block.thisRepN'
p211
I0
sg29
NsS'block.thisN'
p212
I9
sg51
(S'DOUBLE'
S'DIVIDE'
S'TRIPLE'
S'INCREASE'
S'x'
S'y'
tp213
sg27
g28
sg53
I4
sg54
(I5
I15
I3
I6
tp214
sg22
I1
sg20
F9.6968931400770089
sg23
F8.7584682991873706
sVY
I5
sVX
I4
sg57
g138
sg31
g32
sg33
g34
sg21
S'6'
sg19
S'space'
p215
sg30
g11
sg56
I6
sg52
g148
sg55
I6
sS'block.thisIndex'
p216
I12
sg58
g152
sg59
g129
sg60
g182
sa(dp217
S'block.thisTrialN'
p218
I10
sS'block.thisRepN'
p219
I0
sg29
NsS'block.thisN'
p220
I10
sg51
(S'THIRD'
S'DECREASE'
S'TIMES'
S'HALF'
S'x'
S'y'
tp221
sg27
g28
sg53
I4
sg54
(I4
I16
I15
I5
tp222
sg22
I1
sg20
F8.9641904620511923
sg23
F12.520020465788548
sVY
I4
sVX
I8
sg57
g162
sg31
g32
sg33
g34
sg21
S'5'
sg19
S'space'
p223
sg30
g11
sg56
I5
sg52
g151
sg55
I5
sS'block.thisIndex'
p224
I15
sg58
g191
sg59
g140
sg60
g153
sa(dp225
S'block.thisTrialN'
p226
I11
sS'block.thisRepN'
p227
I0
sg29
NsS'block.thisN'
p228
I11
sg51
(S'TIMES'
S'DOUBLE'
S'x'
S'y'
tp229
sg27
g28
sg53
I2
sg54
(I4
I8
tp230
sg22
I1
sg20
F4.2602025371597847
sg23
F1.7970110423630103
sVY
I2
sVX
I2
sg57
I0
sg31
g32
sg33
g34
sg21
S'8'
sg19
S'space'
p231
sg30
g11
sg56
I8
sg52
g152
sg55
I8
sS'block.thisIndex'
p232
I1
sg58
g162
sg59
I0
sg60
g208
sa(dp233
S'block.thisTrialN'
p234
I12
sS'block.thisRepN'
p235
I0
sg29
NsS'block.thisN'
p236
I12
sg51
(S'SUBTRACT'
S'TRIPLE'
S'DECREASE'
S'DOUBLE'
S'x'
S'y'
tp237
sg27
g28
sg53
I4
sg54
(I4
I3
I9
I1
tp238
sg22
I1
sg20
F4.7127184333076002
sg23
F5.2164383571216604
sVY
I8
sVX
I2
sg57
g151
sg31
g32
sg33
g34
sg21
S'1'
sg19
S'space'
p239
sg30
g11
sg56
I1
sg52
g138
sg55
I1
sS'block.thisIndex'
p240
I11
sg58
g127
sg59
g152
sg60
VBUUUxy
p241
sa(dp242
S'block.thisTrialN'
p243
I13
sS'block.thisRepN'
p244
I0
sg29
NsS'block.thisN'
p245
I13
sg51
(S'DOUBLE'
S'THIRD'
S'TIMES'
S'x'
S'y'
tp246
sg27
g28
sg53
I3
sg54
(I12
I4
I8
tp247
sg22
I1
sg20
F1.6715656716405647
sg23
F6.7694854610017501
sVY
I6
sVX
I2
sg57
g162
sg31
g32
sg33
g34
sg21
S'8'
sg19
S'space'
p248
sg30
g11
sg56
I8
sg52
g191
sg55
I8
sS'block.thisIndex'
p249
I9
sg58
g152
sg59
I0
sg60
g173
sa(dp250
S'block.thisTrialN'
p251
I14
sS'block.thisRepN'
p252
I0
sg29
NsS'block.thisN'
p253
I14
sg51
(S'THIRD'
S'TIMES'
S'HALF'
S'x'
S'y'
tp254
sg27
g28
sg53
I3
sg54
(I3
I18
I6
tp255
sg22
I1
sg20
F1.8282063279475551
sg23
F3.7031641137582483
sVY
I6
sVX
I6
sg57
g140
sg31
g32
sg33
g34
sg21
S'6'
sg19
S'space'
p256
sg30
g11
sg56
I6
sg52
g162
sg55
I6
sS'block.thisIndex'
p257
I7
sg58
g191
sg59
I0
sg60
VUBUxy
p258
sa(dp259
S'block.thisTrialN'
p260
I15
sS'block.thisRepN'
p261
I0
sg29
NsS'block.thisN'
p262
I15
sg51
(S'THIRD'
S'DIVIDE'
S'DECREASE'
S'x'
S'y'
tp263
sg27
g28
sg53
I3
sg54
(I6
I3
I1
tp264
sg22
I1
sg20
F1.7483624391024932
sg23
F4.0009015027753776
sVY
I2
sVX
I7
sg57
g151
sg31
g32
sg33
g34
sg21
S'1'
sg19
S'space'
p265
sg30
g11
sg56
I1
sg52
g148
sg55
I1
sS'block.thisIndex'
p266
I6
sg58
g191
sg59
I0
sg60
g258
sa(dp267
S'block.thisTrialN'
p268
I16
sS'block.thisRepN'
p269
I0
sg29
NsS'block.thisN'
p270
I16
sg51
(S'SUBTRACT'
S'DOUBLE'
S'TRIPLE'
S'DECREASE'
S'x'
S'y'
tp271
sg27
g28
sg53
I4
sg54
(I2
I6
I12
I8
tp272
sg22
I1
sg20
F12.544392887226422
sg23
F12.776689434045693
sVY
I4
sVX
I3
sg57
g138
sg31
g32
sg33
g34
sg21
S'8'
sg19
S'space'
p273
sg30
g11
sg56
I8
sg52
g152
sg55
I8
sS'block.thisIndex'
p274
I10
sg58
g127
sg59
g151
sg60
g241
sa(dp275
S'block.thisTrialN'
p276
I17
sS'block.thisRepN'
p277
I0
sg29
NsS'block.thisN'
p278
I17
sg51
(S'DECREASE'
S'TRIPLE'
S'HALF'
S'SUBTRACT'
S'x'
S'y'
tp279
sg27
g28
sg53
I4
sg54
(I4
I2
I6
I5
tp280
sg22
I1
sg20
F7.7453496140515199
sg23
F9.8746872649790021
sVY
I2
sVX
I6
sg57
g140
sg31
g32
sg33
g34
sg21
S'5'
sg19
S'space'
p281
sg30
g11
sg56
I5
sg52
g138
sg55
I5
sS'block.thisIndex'
p282
I16
sg58
g151
sg59
g127
sg60
g141
sa(dp283
S'block.thisTrialN'
p284
I0
sS'block.thisRepN'
p285
I0
sg29
NsS'block.thisN'
p286
I0
sVRule
p287
(S'HALF'
S'INCREASE'
S'TIMES'
S'x'
S'y'
tp288
sg27
g28
sVLength
p289
I3
sVIntermediate
p290
(I9
I10
I5
tp291
sg22
I1
sg20
F13.078243161478895
sg23
F3.4608383485756349
sVY
I3
sVX
I3
sVOperatorc
p292
VTIMES
p293
sg31
g32
sg33
g34
sg21
S'5'
sg19
S'space'
p294
sg30
g11
sVResult
p295
I5
sVOperatora
p296
Vincrease
p297
sVCorrectResponse
p298
I5
sS'block.thisIndex'
p299
I9
sVOperatorb
p300
Vhalf
p301
sVOperatord
p302
I0
sVStructure
p303
VUUBxy
p304
sa(dp305
S'block.thisTrialN'
p306
I1
sS'block.thisRepN'
p307
I0
sg29
NsS'block.thisN'
p308
I1
sg287
(S'ADD'
S'TRIPLE'
S'DOUBLE'
S'DECREASE'
S'x'
S'y'
tp309
sg27
g28
sg289
I4
sg290
(I1
I2
I6
I8
tp310
sg22
I1
sg20
F15.571647597811534
sg23
F7.3502236783824628
sVY
I2
sVX
I2
sg292
Vdouble
p311
sg31
g32
sg33
g34
sg21
S'8'
sg19
S'space'
p312
sg30
g11
sg295
I8
sg296
Vtriple
p313
sg298
I8
sS'block.thisIndex'
p314
I11
sg300
VADD
p315
sg302
Vdecrease
p316
sg303
VBUUUxy
p317
sa(dp318
S'block.thisTrialN'
p319
I2
sS'block.thisRepN'
p320
I0
sg29
NsS'block.thisN'
p321
I2
sg287
(S'DECREASE'
S'ADD'
S'THIRD'
S'HALF'
S'x'
S'y'
tp322
sg27
g28
sg289
I4
sg290
(I3
I1
I7
I6
tp323
sg22
I0
sg20
F10.568334855081048
sVY
I6
sVX
I6
sg292
Vthird
p324
sg31
g32
sg33
g34
sg21
Nsg19
S'space'
p325
sg30
g11
sg295
I6
sg296
g315
sg298
I6
sS'block.thisIndex'
p326
I12
sg300
g316
sg302
g301
sg303
VUBUUxy
p327
sa(dp328
S'block.thisTrialN'
p329
I3
sS'block.thisRepN'
p330
I0
sg29
NsS'block.thisN'
p331
I3
sg287
(S'INCREASE'
S'ADD'
S'HALF'
S'x'
S'y'
tp332
sg27
g28
sg289
I3
sg290
(I1
I4
I5
tp333
sg22
I1
sg20
F2.4897774275013944
sg23
F3.1238953878782922
sVY
I3
sVX
I2
sg292
g301
sg31
g32
sg33
g34
sg21
S'5'
sg19
S'space'
p334
sg30
g11
sg295
I5
sg296
g315
sg298
I5
sS'block.thisIndex'
p335
I7
sg300
g297
sg302
I0
sg303
VUBUxy
p336
sa(dp337
S'block.thisTrialN'
p338
I4
sS'block.thisRepN'
p339
I0
sg29
NsS'block.thisN'
p340
I4
sg287
(S'DOUBLE'
S'SUBTRACT'
S'INCREASE'
S'x'
S'y'
tp341
sg27
g28
sg289
I3
sg290
(I4
I1
I2
tp342
sg22
I1
sg20
F3.6588984378031455
sg23
F3.2805213457759237
sVY
I3
sVX
I3
sg292
g297
sg31
g32
sg33
g34
sg21
S'2'
sg19
S'space'
p343
sg30
g11
sg295
I2
sg296
VSUBTRACT
p344
sg298
I2
sS'block.thisIndex'
p345
I6
sg300
g311
sg302
I0
sg303
g336
sa(dp346
S'block.thisTrialN'
p347
I5
sS'block.thisRepN'
p348
I0
sg29
NsS'block.thisN'
p349
I5
sg287
(S'DECREASE'
S'TIMES'
S'x'
S'y'
tp350
sg27
g28
sg289
I2
sg290
(I9
I8
tp351
sg22
I1
sg20
F4.1459682073327713
sg23
F3.0921776086470345
sVY
I3
sVX
I3
sg292
I0
sg31
g32
sg33
g34
sg21
S'8'
sg19
S'space'
p352
sg30
g11
sg295
I8
sg296
g293
sg298
I8
sS'block.thisIndex'
p353
I2
sg300
g316
sg302
I0
sg303
VUBxy
p354
sa(dp355
S'block.thisTrialN'
p356
I6
sS'block.thisRepN'
p357
I0
sg29
NsS'block.thisN'
p358
I6
sg287
(S'HALF'
S'ADD'
S'x'
S'y'
tp359
sg27
g28
sg289
I2
sg290
(I12
I6
tp360
sg22
I1
sg20
F1.0561034992424538
sg23
F4.4278572056064149
sVY
I8
sVX
I4
sg292
I0
sg31
g32
sg33
g34
sg21
S'6'
sg19
S'space'
p361
sg30
g11
sg295
I6
sg296
g315
sg298
I6
sS'block.thisIndex'
p362
I3
sg300
g301
sg302
I0
sg303
g354
sa(dp363
S'block.thisTrialN'
p364
I7
sS'block.thisRepN'
p365
I0
sg29
NsS'block.thisN'
p366
I7
sg287
(S'DOUBLE'
S'THIRD'
S'ADD'
S'x'
S'y'
tp367
sg27
g28
sg289
I3
sg290
(I9
I3
I6
tp368
sg22
I1
sg20
F1.3117292300012195
sg23
F3.8650101086677751
sVY
I4
sVX
I5
sg292
g315
sg31
g32
sg33
g34
sg21
S'6'
sg19
S'space'
p369
sg30
g11
sg295
I6
sg296
g324
sg298
I6
sS'block.thisIndex'
p370
I8
sg300
g311
sg302
I0
sg303
g304
sa(dp371
S'block.thisTrialN'
p372
I8
sS'block.thisRepN'
p373
I0
sg29
NsS'block.thisN'
p374
I8
sg287
(S'DECREASE'
S'TRIPLE'
S'SUBTRACT'
S'DOUBLE'
S'x'
S'y'
tp375
sg27
g28
sg289
I4
sg290
(I6
I3
I9
I8
tp376
sg22
I1
sg20
F4.7092373587511247
sg23
F7.6342414970567916
sVY
I3
sVX
I3
sg292
g344
sg31
g32
sg33
g34
sg21
S'8'
sg19
S'space'
p377
sg30
g11
sg295
I8
sg296
g313
sg298
I8
sS'block.thisIndex'
p378
I15
sg300
g316
sg302
g311
sg303
VUUBUxy
p379
sa(dp380
S'block.thisTrialN'
p381
I9
sS'block.thisRepN'
p382
I0
sg29
NsS'block.thisN'
p383
I9
sg287
(S'ADD'
S'DECREASE'
S'x'
S'y'
tp384
sg27
g28
sg289
I2
sg290
(I2
I7
tp385
sg22
I1
sg20
F1.4726352262950968
sg23
F2.9683112676284509
sVY
I5
sVX
I3
sg292
I0
sg31
g32
sg33
g34
sg21
S'7'
sg19
S'space'
p386
sg30
g11
sg295
I7
sg296
g316
sg298
I7
sS'block.thisIndex'
p387
I0
sg300
g315
sg302
I0
sg303
VBUxy
p388
sa(dp389
S'block.thisTrialN'
p390
I10
sS'block.thisRepN'
p391
I0
sg29
NsS'block.thisN'
p392
I10
sg287
(S'ADD'
S'DOUBLE'
S'DECREASE'
S'x'
S'y'
tp393
sg27
g28
sg289
I3
sg290
(I1
I2
I7
tp394
sg22
I1
sg20
F1.3144022417254746
sg23
F5.0444186094537145
sVY
I5
sVX
I2
sg292
g316
sg31
g32
sg33
g34
sg21
S'7'
sg19
S'space'
p395
sg30
g11
sg295
I7
sg296
g311
sg298
I7
sS'block.thisIndex'
p396
I4
sg300
g315
sg302
I0
sg303
VBUUxy
p397
sa(dp398
S'block.thisTrialN'
p399
I11
sS'block.thisRepN'
p400
I0
sg29
NsS'block.thisN'
p401
I11
sg287
(S'THIRD'
S'HALF'
S'INCREASE'
S'SUBTRACT'
S'x'
S'y'
tp402
sg27
g28
sg289
I4
sg290
(I5
I6
I3
I1
tp403
sg22
I1
sg20
F2.135968035843689
sg23
F6.4203981100727106
sVY
I2
sVX
I7
sg292
g297
sg31
g32
sg33
g34
sg21
S'1'
sg19
S'space'
p404
sg30
g11
sg295
I1
sg296
g301
sg298
I1
sS'block.thisIndex'
p405
I17
sg300
g324
sg302
g344
sg303
VUUUBxy
p406
sa(dp407
S'block.thisTrialN'
p408
I12
sS'block.thisRepN'
p409
I0
sg29
NsS'block.thisN'
p410
I12
sg287
(S'DECREASE'
S'DOUBLE'
S'TIMES'
S'THIRD'
S'x'
S'y'
tp411
sg27
g28
sg289
I4
sg290
(I1
I3
I6
I5
tp412
sg22
I1
sg20
F8.2109411499986891
sg23
F5.7991472119610989
sVY
I3
sVX
I3
sg292
g293
sg31
g32
sg33
g34
sg21
S'5'
sg19
S'space'
p413
sg30
g11
sg295
I5
sg296
g311
sg298
I5
sS'block.thisIndex'
p414
I14
sg300
g316
sg302
g324
sg303
g379
sa(dp415
S'block.thisTrialN'
p416
I13
sS'block.thisRepN'
p417
I0
sg29
NsS'block.thisN'
p418
I13
sg287
(S'DIVIDE'
S'DECREASE'
S'x'
S'y'
tp419
sg27
g28
sg289
I2
sg290
(I8
I2
tp420
sg22
I1
sg20
F1.0610943109786604
sg23
F2.2132848472247133
sVY
I4
sVX
I9
sg292
I0
sg31
g32
sg33
g34
sg21
S'2'
sg19
S'space'
p421
sg30
g11
sg295
I2
sg296
g316
sg298
I2
sS'block.thisIndex'
p422
I1
sg300
VDIVIDE
p423
sg302
I0
sg303
g388
sa(dp424
S'block.thisTrialN'
p425
I14
sS'block.thisRepN'
p426
I0
sg29
NsS'block.thisN'
p427
I14
sg287
(S'INCREASE'
S'HALF'
S'THIRD'
S'TIMES'
S'x'
S'y'
tp428
sg27
g28
sg289
I4
sg290
(I12
I4
I2
I3
tp429
sg22
I1
sg20
F7.5206909934786381
sg23
F6.5323415869643213
sVY
I4
sVX
I3
sg292
g324
sg31
g32
sg33
g34
sg21
S'3'
sg19
S'space'
p430
sg30
g11
sg295
I3
sg296
g301
sg298
I3
sS'block.thisIndex'
p431
I16
sg300
g297
sg302
g293
sg303
g406
sa(dp432
S'block.thisTrialN'
p433
I15
sS'block.thisRepN'
p434
I0
sg29
NsS'block.thisN'
p435
I15
sg287
(S'ADD'
S'DECREASE'
S'THIRD'
S'DOUBLE'
S'x'
S'y'
tp436
sg27
g28
sg289
I4
sg290
(I18
I6
I5
I9
tp437
sg22
I1
sg20
F5.015514876722591
sg23
F6.5506260649854084
sVY
I4
sVX
I9
sg292
g324
sg31
g32
sg33
g34
sg21
S'9'
sg19
S'space'
p438
sg30
g11
sg295
I9
sg296
g316
sg298
I9
sS'block.thisIndex'
p439
I10
sg300
g315
sg302
g311
sg303
g317
sa(dp440
S'block.thisTrialN'
p441
I16
sS'block.thisRepN'
p442
I0
sg29
NsS'block.thisN'
p443
I16
sg287
(S'ADD'
S'TRIPLE'
S'HALF'
S'x'
S'y'
tp444
sg27
g28
sg289
I3
sg290
(I2
I6
I8
tp445
sg22
I1
sg20
F2.4673413472337415
sg23
F3.144148053630488
sVY
I2
sVX
I4
sg292
g301
sg31
g32
sg33
g34
sg21
S'8'
sg19
S'space'
p446
sg30
g11
sg295
I8
sg296
g313
sg298
I8
sS'block.thisIndex'
p447
I5
sg300
g315
sg302
I0
sg303
g397
sa(dp448
S'block.thisTrialN'
p449
I17
sS'block.thisRepN'
p450
I0
sg29
NsS'block.thisN'
p451
I17
sg287
(S'DECREASE'
S'SUBTRACT'
S'DOUBLE'
S'THIRD'
S'x'
S'y'
tp452
sg27
g28
sg289
I4
sg290
(I3
I6
I4
I3
tp453
sg22
I1
sg20
F6.2553877564350842
sg23
F5.858031861265772
sVY
I2
sVX
I9
sg292
g311
sg31
g32
sg33
g34
sg21
S'3'
sg19
S'space'
p454
sg30
g11
sg295
I3
sg296
g344
sg298
I3
sS'block.thisIndex'
p455
I13
sg300
g316
sg302
g324
sg303
g327
sa(dp456
S'block.thisTrialN'
p457
I0
sS'block.thisRepN'
p458
I0
sg29
NsS'block.thisN'
p459
I0
sVRule
p460
(S'ADD'
S'HALF'
S'THIRD'
S'x'
S'y'
tp461
sg27
g28
sVLength
p462
I3
sVIntermediate
p463
(I2
I1
I9
tp464
sg22
I1
sg20
F2.715307104124804
sg23
F4.8412427719740663
sVY
I8
sVX
I6
sVOperatorc
p465
Vthird
p466
sg31
g32
sg33
g34
sg21
S'9'
sg19
S'space'
p467
sg30
g11
sVResult
p468
I9
sVOperatora
p469
Vhalf
p470
sVCorrectResponse
p471
I9
sS'block.thisIndex'
p472
I4
sVOperatorb
p473
VADD
p474
sVOperatord
p475
I0
sVStructure
p476
VBUUxy
p477
sa(dp478
S'block.thisTrialN'
p479
I1
sS'block.thisRepN'
p480
I0
sg29
NsS'block.thisN'
p481
I1
sg460
(S'ADD'
S'DOUBLE'
S'DECREASE'
S'THIRD'
S'x'
S'y'
tp482
sg27
g28
sg462
I4
sg463
(I2
I1
I2
I8
tp483
sg22
I1
sg20
F4.6092520921665709
sg23
F7.794152550646686
sVY
I6
sVX
I6
sg465
Vdecrease
p484
sg31
g32
sg33
g34
sg21
S'8'
sg19
S'space'
p485
sg30
g11
sg468
I8
sg469
Vdouble
p486
sg471
I8
sS'block.thisIndex'
p487
I10
sg473
g474
sg475
g466
sg476
VBUUUxy
p488
sa(dp489
S'block.thisTrialN'
p490
I2
sS'block.thisRepN'
p491
I0
sg29
NsS'block.thisN'
p492
I2
sg460
(S'THIRD'
S'INCREASE'
S'DIVIDE'
S'DOUBLE'
S'x'
S'y'
tp493
sg27
g28
sg462
I4
sg463
(I18
I2
I3
I1
tp494
sg22
I1
sg20
F6.0988965340075083
sg23
F12.91901733398845
sVY
I9
sVX
I9
sg465
VDIVIDE
p495
sg31
g32
sg33
g34
sg21
S'1'
sg19
S'space'
p496
sg30
g11
sg468
I1
sg469
Vincrease
p497
sg471
I1
sS'block.thisIndex'
p498
I15
sg473
g466
sg475
g486
sg476
VUUBUxy
p499
sa(dp500
S'block.thisTrialN'
p501
I3
sS'block.thisRepN'
p502
I0
sg29
NsS'block.thisN'
p503
I3
sg460
(S'THIRD'
S'DOUBLE'
S'INCREASE'
S'TIMES'
S'x'
S'y'
tp504
sg27
g28
sg462
I4
sg463
(I8
I9
I18
I6
tp505
sg22
I1
sg20
F5.4278327082429314
sg23
F5.6374412019649753
sVY
I4
sVX
I2
sg465
g497
sg31
g32
sg33
g34
sg21
S'6'
sg19
S'space'
p506
sg30
g11
sg468
I6
sg469
g486
sg471
I6
sS'block.thisIndex'
p507
I17
sg473
g466
sg475
VTIMES
p508
sg476
VUUUBxy
p509
sa(dp510
S'block.thisTrialN'
p511
I4
sS'block.thisRepN'
p512
I0
sg29
NsS'block.thisN'
p513
I4
sg460
(S'SUBTRACT'
S'DECREASE'
S'TRIPLE'
S'DOUBLE'
S'x'
S'y'
tp514
sg27
g28
sg462
I4
sg463
(I6
I18
I17
I8
tp515
sg22
I1
sg20
F12.350530945230275
sg23
F13.397536825650604
sVY
I9
sVX
I3
sg465
Vtriple
p516
sg31
g32
sg33
g34
sg21
S'8'
sg19
S'space'
p517
sg30
g11
sg468
I8
sg469
g484
sg471
I8
sS'block.thisIndex'
p518
I11
sg473
VSUBTRACT
p519
sg475
g486
sg476
g488
sa(dp520
S'block.thisTrialN'
p521
I5
sS'block.thisRepN'
p522
I0
sg29
NsS'block.thisN'
p523
I5
sg460
(S'THIRD'
S'HALF'
S'ADD'
S'x'
S'y'
tp524
sg27
g28
sg462
I3
sg463
(I6
I3
I1
tp525
sg22
I1
sg20
F4.1976656817569165
sg23
F3.4156183255690848
sVY
I3
sVX
I3
sg465
g474
sg31
g32
sg33
g34
sg21
S'1'
sg19
S'space'
p526
sg30
g11
sg468
I1
sg469
g470
sg471
I1
sS'block.thisIndex'
p527
I9
sg473
g466
sg475
I0
sg476
VUUBxy
p528
sa(dp529
S'block.thisTrialN'
p530
I6
sS'block.thisRepN'
p531
I0
sg29
NsS'block.thisN'
p532
I6
sg460
(S'HALF'
S'ADD'
S'TRIPLE'
S'x'
S'y'
tp533
sg27
g28
sg462
I3
sg463
(I9
I12
I6
tp534
sg22
I1
sg20
F1.1704123710223939
sg23
F6.0718497010093415
sVY
I3
sVX
I3
sg465
g516
sg31
g32
sg33
g34
sg21
S'6'
sg19
S'space'
p535
sg30
g11
sg468
I6
sg469
g474
sg471
I6
sS'block.thisIndex'
p536
I6
sg473
g470
sg475
I0
sg476
VUBUxy
p537
sa(dp538
S'block.thisTrialN'
p539
I7
sS'block.thisRepN'
p540
I0
sg29
NsS'block.thisN'
p541
I7
sg460
(S'DIVIDE'
S'INCREASE'
S'x'
S'y'
tp542
sg27
g28
sg462
I2
sg463
(I4
I2
tp543
sg22
I1
sg20
F1.0294412747607566
sg23
F2.0354476769716712
sVY
I2
sVX
I3
sg465
I0
sg31
g32
sg33
g34
sg21
S'2'
sg19
S'space'
p544
sg30
g11
sg468
I2
sg469
g497
sg471
I2
sS'block.thisIndex'
p545
I0
sg473
g495
sg475
I0
sg476
VBUxy
p546
sa(dp547
S'block.thisTrialN'
p548
I8
sS'block.thisRepN'
p549
I0
sg29
NsS'block.thisN'
p550
I8
sg460
(S'INCREASE'
S'TRIPLE'
S'DIVIDE'
S'x'
S'y'
tp551
sg27
g28
sg462
I3
sg463
(I2
I6
I7
tp552
sg22
I0
sg20
F2.7100069257430732
sVY
I3
sVX
I6
sg465
g495
sg31
g32
sg33
g34
sg21
Nsg19
S'space'
p553
sg30
g11
sg468
I7
sg469
g516
sg471
I7
sS'block.thisIndex'
p554
I8
sg473
g497
sg475
I0
sg476
g528
sa(dp555
S'block.thisTrialN'
p556
I9
sS'block.thisRepN'
p557
I0
sg29
NsS'block.thisN'
p558
I9
sg460
(S'DECREASE'
S'DIVIDE'
S'x'
S'y'
tp559
sg27
g28
sg462
I2
sg463
(I2
I1
tp560
sg22
I1
sg20
F1.6539657198009081
sg23
F2.5692895521206083
sVY
I4
sVX
I8
sg465
I0
sg31
g32
sg33
g34
sg21
S'1'
sg19
S'space'
p561
sg30
g11
sg468
I1
sg469
g495
sg471
I1
sS'block.thisIndex'
p562
I2
sg473
g484
sg475
I0
sg476
VUBxy
p563
sa(dp564
S'block.thisTrialN'
p565
I10
sS'block.thisRepN'
p566
I0
sg29
NsS'block.thisN'
p567
I10
sg460
(S'INCREASE'
S'SUBTRACT'
S'HALF'
S'x'
S'y'
tp568
sg27
g28
sg462
I3
sg463
(I4
I2
I3
tp569
sg22
I1
sg20
F1.2670212017692393
sg23
F9.7360724645841401
sVY
I2
sVX
I8
sg465
g470
sg31
g32
sg33
g34
sg21
S'3'
sg19
S'space'
p570
sg30
g11
sg468
I3
sg469
g519
sg471
I3
sS'block.thisIndex'
p571
I7
sg473
g497
sg475
I0
sg476
g537
sa(dp572
S'block.thisTrialN'
p573
I11
sS'block.thisRepN'
p574
I0
sg29
NsS'block.thisN'
p575
I11
sg460
(S'INCREASE'
S'ADD'
S'x'
S'y'
tp576
sg27
g28
sg462
I2
sg463
(I5
I6
tp577
sg22
I1
sg20
F1.269158771232469
sg23
F4.9622012765903492
sVY
I2
sVX
I3
sg465
I0
sg31
g32
sg33
g34
sg21
S'6'
sg19
S'space'
p578
sg30
g11
sg468
I6
sg469
g474
sg471
I6
sS'block.thisIndex'
p579
I3
sg473
g497
sg475
I0
sg476
g563
sa(dp580
S'block.thisTrialN'
p581
I12
sS'block.thisRepN'
p582
I0
sg29
NsS'block.thisN'
p583
I12
sg460
(S'HALF'
S'TRIPLE'
S'INCREASE'
S'DIVIDE'
S'x'
S'y'
tp584
sg27
g28
sg462
I4
sg463
(I3
I4
I12
I6
tp585
sg22
I1
sg20
F7.3981006148387678
sg23
F8.6942082296445733
sVY
I3
sVX
I9
sg465
g497
sg31
g32
sg33
g34
sg21
S'6'
sg19
S'space'
p586
sg30
g11
sg468
I6
sg469
g516
sg471
I6
sS'block.thisIndex'
p587
I16
sg473
g470
sg475
g495
sg476
g509
sa(dp588
S'block.thisTrialN'
p589
I13
sS'block.thisRepN'
p590
I0
sg29
NsS'block.thisN'
p591
I13
sg460
(S'SUBTRACT'
S'DECREASE'
S'x'
S'y'
tp592
sg27
g28
sg462
I2
sg463
(I5
I3
tp593
sg22
I1
sg20
F0.95010343134345021
sg23
F4.9820098402415169
sVY
I2
sVX
I6
sg465
I0
sg31
g32
sg33
g34
sg21
S'3'
sg19
S'space'
p594
sg30
g11
sg468
I3
sg469
g484
sg471
I3
sS'block.thisIndex'
p595
I1
sg473
g519
sg475
I0
sg476
g546
sa(dp596
S'block.thisTrialN'
p597
I14
sS'block.thisRepN'
p598
I0
sg29
NsS'block.thisN'
p599
I14
sg460
(S'DIVIDE'
S'DECREASE'
S'TRIPLE'
S'x'
S'y'
tp600
sg27
g28
sg462
I3
sg463
(I9
I8
I4
tp601
sg22
I1
sg20
F3.0131095861288486
sg23
F6.1807096604607068
sVY
I2
sVX
I3
sg465
g516
sg31
g32
sg33
g34
sg21
S'4'
sg19
S'space'
p602
sg30
g11
sg468
I4
sg469
g484
sg471
I4
sS'block.thisIndex'
p603
I5
sg473
g495
sg475
I0
sg476
g477
sa(dp604
S'block.thisTrialN'
p605
I15
sS'block.thisRepN'
p606
I0
sg29
NsS'block.thisN'
p607
I15
sg460
(S'THIRD'
S'TIMES'
S'DOUBLE'
S'DECREASE'
S'x'
S'y'
tp608
sg27
g28
sg462
I4
sg463
(I1
I2
I6
I2
tp609
sg22
I1
sg20
F5.4914505970518803
sg23
F9.8762932417739648
sVY
I3
sVX
I2
sg465
g486
sg31
g32
sg33
g34
sg21
S'2'
sg19
S'space'
p610
sg30
g11
sg468
I2
sg469
g508
sg471
I2
sS'block.thisIndex'
p611
I13
sg473
g466
sg475
g484
sg476
VUBUUxy
p612
sa(dp613
S'block.thisTrialN'
p614
I16
sS'block.thisRepN'
p615
I0
sg29
NsS'block.thisN'
p616
I16
sg460
(S'DOUBLE'
S'ADD'
S'INCREASE'
S'THIRD'
S'x'
S'y'
tp617
sg27
g28
sg462
I4
sg463
(I1
I2
I4
I8
tp618
sg22
I1
sg20
F8.9184822416864336
sg23
F6.0845022364374017
sVY
I2
sVX
I3
sg465
g497
sg31
g32
sg33
g34
sg21
S'8'
sg19
S'space'
p619
sg30
g11
sg468
I8
sg469
g474
sg471
I8
sS'block.thisIndex'
p620
I12
sg473
g486
sg475
g466
sg476
g612
sa(dp621
S'block.thisTrialN'
p622
I17
sS'block.thisRepN'
p623
I0
sg29
NsS'block.thisN'
p624
I17
sg460
(S'THIRD'
S'DOUBLE'
S'ADD'
S'DECREASE'
S'x'
S'y'
tp625
sg27
g28
sg462
I4
sg463
(I5
I12
I24
I8
tp626
sg22
I1
sg20
F4.6433951098442776
sg23
F12.054616859575617
sVY
I7
sVX
I6
sg465
g474
sg31
g32
sg33
g34
sg21
S'8'
sg19
S'space'
p627
sg30
g11
sg468
I8
sg469
g486
sg471
I8
sS'block.thisIndex'
p628
I14
sg473
g466
sg475
g484
sg476
g499
sa(dp629
S'block.thisTrialN'
p630
I0
sS'block.thisRepN'
p631
I0
sg29
NsS'block.thisN'
p632
I0
sVRule
p633
(S'THIRD'
S'INCREASE'
S'HALF'
S'DIVIDE'
S'x'
S'y'
tp634
sg27
g28
sVLength
p635
I4
sVIntermediate
p636
(I4
I2
I3
I1
tp637
sg22
I1
sg20
F10.268766813489492
sg23
F10.95228229634813
sVY
I2
sVX
I8
sVOperatorc
p638
Vhalf
p639
sg31
g32
sg33
g34
sg21
S'1'
sg19
S'space'
p640
sg30
g11
sVResult
p641
I1
sVOperatora
p642
Vincrease
p643
sVCorrectResponse
p644
I1
sS'block.thisIndex'
p645
I16
sVOperatorb
p646
Vthird
p647
sVOperatord
p648
VDIVIDE
p649
sVStructure
p650
VUUUBxy
p651
sa(dp652
S'block.thisTrialN'
p653
I1
sS'block.thisRepN'
p654
I0
sg29
NsS'block.thisN'
p655
I1
sg633
(S'TIMES'
S'DECREASE'
S'HALF'
S'x'
S'y'
tp656
sg27
g28
sg635
I3
sg636
(I4
I3
I9
tp657
sg22
I1
sg20
F2.6606793957325863
sg23
F7.9894101421232335
sVY
I3
sVX
I8
sg638
g639
sg31
g32
sg33
g34
sg21
S'9'
sg19
S'space'
p658
sg30
g11
sg641
I9
sg642
Vdecrease
p659
sg644
I9
sS'block.thisIndex'
p660
I4
sg646
VTIMES
p661
sg648
I0
sg650
VBUUxy
p662
sa(dp663
S'block.thisTrialN'
p664
I2
sS'block.thisRepN'
p665
I0
sg29
NsS'block.thisN'
p666
I2
sg633
(S'TRIPLE'
S'HALF'
S'DIVIDE'
S'x'
S'y'
tp667
sg27
g28
sg635
I3
sg636
(I2
I1
I3
tp668
sg22
I1
sg20
F1.8786103418678977
sg23
F2.7925476237433031
sVY
I2
sVX
I4
sg638
g649
sg31
g32
sg33
g34
sg21
S'3'
sg19
S'space'
p669
sg30
g11
sg641
I3
sg642
g639
sg644
I3
sS'block.thisIndex'
p670
I9
sg646
Vtriple
p671
sg648
I0
sg650
VUUBxy
p672
sa(dp673
S'block.thisTrialN'
p674
I3
sS'block.thisRepN'
p675
I0
sg29
NsS'block.thisN'
p676
I3
sg633
(S'TIMES'
S'DECREASE'
S'x'
S'y'
tp677
sg27
g28
sg635
I2
sg636
(I2
I4
tp678
sg22
I1
sg20
F0.76834143437736202
sg23
F2.6135349302639952
sVY
I2
sVX
I3
sg638
I0
sg31
g32
sg33
g34
sg21
S'4'
sg19
S'space'
p679
sg30
g11
sg641
I4
sg642
g659
sg644
I4
sS'block.thisIndex'
p680
I0
sg646
g661
sg648
I0
sg650
VBUxy
p681
sa(dp682
S'block.thisTrialN'
p683
I4
sS'block.thisRepN'
p684
I0
sg29
NsS'block.thisN'
p685
I4
sg633
(S'THIRD'
S'DECREASE'
S'TIMES'
S'x'
S'y'
tp686
sg27
g28
sg635
I3
sg636
(I25
I24
I8
tp687
sg22
I1
sg20
F1.3647723093017703
sg23
F4.8841897901293123
sVY
I5
sVX
I5
sg638
g661
sg31
g32
sg33
g34
sg21
S'8'
sg19
S'space'
p688
sg30
g11
sg641
I8
sg642
g659
sg644
I8
sS'block.thisIndex'
p689
I8
sg646
g647
sg648
I0
sg650
g672
sa(dp690
S'block.thisTrialN'
p691
I5
sS'block.thisRepN'
p692
I0
sg29
NsS'block.thisN'
p693
I5
sg633
(S'TRIPLE'
S'HALF'
S'ADD'
S'DECREASE'
S'x'
S'y'
tp694
sg27
g28
sg635
I4
sg636
(I1
I4
I2
I6
tp695
sg22
I1
sg20
F4.4687509952054825
sg23
F6.1027037734020269
sVY
I3
sVX
I2
sg638
VADD
p696
sg31
g32
sg33
g34
sg21
S'6'
sg19
S'space'
p697
sg30
g11
sg641
I6
sg642
g639
sg644
I6
sS'block.thisIndex'
p698
I15
sg646
g671
sg648
g659
sg650
VUUBUxy
p699
sa(dp700
S'block.thisTrialN'
p701
I6
sS'block.thisRepN'
p702
I0
sg29
NsS'block.thisN'
p703
I6
sg633
(S'THIRD'
S'ADD'
S'INCREASE'
S'x'
S'y'
tp704
sg27
g28
sg635
I3
sg636
(I8
I15
I5
tp705
sg22
I1
sg20
F0.91555410750152078
sg23
F8.4512084371672245
sVY
I7
sVX
I7
sg638
g643
sg31
g32
sg33
g34
sg21
S'5'
sg19
S'space'
p706
sg30
g11
sg641
I5
sg642
g696
sg644
I5
sS'block.thisIndex'
p707
I6
sg646
g647
sg648
I0
sg650
VUBUxy
p708
sa(dp709
S'block.thisTrialN'
p710
I7
sS'block.thisRepN'
p711
I0
sg29
NsS'block.thisN'
p712
I7
sg633
(S'TIMES'
S'INCREASE'
S'x'
S'y'
tp713
sg27
g28
sg635
I2
sg636
(I3
I6
tp714
sg22
I1
sg20
F0.64505183116125409
sg23
F3.5757750526536256
sVY
I2
sVX
I2
sg638
I0
sg31
g32
sg33
g34
sg21
S'6'
sg19
S'space'
p715
sg30
g11
sg641
I6
sg642
g643
sg644
I6
sS'block.thisIndex'
p716
I1
sg646
g661
sg648
I0
sg650
g681
sa(dp717
S'block.thisTrialN'
p718
I8
sS'block.thisRepN'
p719
I0
sg29
NsS'block.thisN'
p720
I8
sg633
(S'THIRD'
S'SUBTRACT'
S'x'
S'y'
tp721
sg27
g28
sg635
I2
sg636
(I3
I1
tp722
sg22
I1
sg20
F0.72051909202127717
sg23
F4.7424144805991091
sVY
I2
sVX
I5
sg638
I0
sg31
g32
sg33
g34
sg21
S'1'
sg19
S'space'
p723
sg30
g11
sg641
I1
sg642
VSUBTRACT
p724
sg644
I1
sS'block.thisIndex'
p725
I3
sg646
g647
sg648
I0
sg650
VUBxy
p726
sa(dp727
S'block.thisTrialN'
p728
I9
sS'block.thisRepN'
p729
I0
sg29
NsS'block.thisN'
p730
I9
sg633
(S'THIRD'
S'TIMES'
S'DECREASE'
S'x'
S'y'
tp731
sg27
g28
sg635
I3
sg636
(I3
I15
I5
tp732
sg22
I1
sg20
F1.3354437223897548
sg23
F7.7024214938428486
sVY
I5
sVX
I4
sg638
g659
sg31
g32
sg33
g34
sg21
S'5'
sg19
S'space'
p733
sg30
g11
sg641
I5
sg642
g661
sg644
I5
sS'block.thisIndex'
p734
I7
sg646
g647
sg648
I0
sg650
g708
sa(dp735
S'block.thisTrialN'
p736
I10
sS'block.thisRepN'
p737
I0
sg29
NsS'block.thisN'
p738
I10
sg633
(S'THIRD'
S'ADD'
S'x'
S'y'
tp739
sg27
g28
sg635
I2
sg636
(I9
I3
tp740
sg22
I1
sg20
F3.2341936922020977
sg23
F2.2422939185926225
sVY
I5
sVX
I4
sg638
I0
sg31
g32
sg33
g34
sg21
S'3'
sg19
S'space'
p741
sg30
g11
sg641
I3
sg642
g696
sg644
I3
sS'block.thisIndex'
p742
I2
sg646
g647
sg648
I0
sg650
g726
sa(dp743
S'block.thisTrialN'
p744
I11
sS'block.thisRepN'
p745
I0
sg29
NsS'block.thisN'
p746
I11
sg633
(S'TIMES'
S'THIRD'
S'HALF'
S'x'
S'y'
tp747
sg27
g28
sg635
I3
sg636
(I3
I1
I5
tp748
sg22
I1
sg20
F1.3799372237699572
sg23
F6.087136752292281
sVY
I5
sVX
I6
sg638
g639
sg31
g32
sg33
g34
sg21
S'5'
sg19
S'space'
p749
sg30
g11
sg641
I5
sg642
g647
sg644
I5
sS'block.thisIndex'
p750
I5
sg646
g661
sg648
I0
sg650
g662
sa(dp751
S'block.thisTrialN'
p752
I12
sS'block.thisRepN'
p753
I0
sg29
NsS'block.thisN'
p754
I12
sg633
(S'TRIPLE'
S'DECREASE'
S'HALF'
S'TIMES'
S'x'
S'y'
tp755
sg27
g28
sg635
I4
sg636
(I6
I3
I2
I6
tp756
sg22
I0
sg20
F1.3965250847686548
sVY
I2
sVX
I3
sg638
g639
sg31
g32
sg33
g34
sg21
Nsg19
S'space'
p757
sg30
g11
sg641
I6
sg642
g659
sg644
I6
sS'block.thisIndex'
p758
I17
sg646
g671
sg648
g661
sg650
g651
sa(dp759
S'block.thisTrialN'
p760
I13
sS'block.thisRepN'
p761
I0
sg29
NsS'block.thisN'
p762
I13
sg633
(S'TRIPLE'
S'SUBTRACT'
S'DOUBLE'
S'DECREASE'
S'x'
S'y'
tp763
sg27
g28
sg635
I4
sg636
(I2
I4
I1
I3
tp764
sg22
I1
sg20
F12.334448779700324
sg23
F10.641770235073636
sVY
I3
sVX
I3
sg638
Vdouble
p765
sg31
g32
sg33
g34
sg21
S'3'
sg19
S'space'
p766
sg30
g11
sg641
I3
sg642
g724
sg644
I3
sS'block.thisIndex'
p767
I13
sg646
g671
sg648
g659
sg650
VUBUUxy
p768
sa(dp769
S'block.thisTrialN'
p770
I14
sS'block.thisRepN'
p771
I0
sg29
NsS'block.thisN'
p772
I14
sg633
(S'THIRD'
S'DOUBLE'
S'ADD'
S'INCREASE'
S'x'
S'y'
tp773
sg27
g28
sg635
I4
sg636
(I10
I12
I24
I8
tp774
sg22
I1
sg20
F4.3375172487576492
sg23
F6.0559649141796399
sVY
I2
sVX
I9
sg638
g696
sg31
g32
sg33
g34
sg21
S'8'
sg19
S'space'
p775
sg30
g11
sg641
I8
sg642
g765
sg644
I8
sS'block.thisIndex'
p776
I14
sg646
g647
sg648
g643
sg650
g699
sa(dp777
S'block.thisTrialN'
p778
I15
sS'block.thisRepN'
p779
I0
sg29
NsS'block.thisN'
p780
I15
sg633
(S'SUBTRACT'
S'HALF'
S'INCREASE'
S'TRIPLE'
S'x'
S'y'
tp781
sg27
g28
sg635
I4
sg636
(I15
I16
I8
I3
tp782
sg22
I1
sg20
F5.7609089359611971
sg23
F5.8267235378734767
sVY
I5
sVX
I5
sg638
g643
sg31
g32
sg33
g34
sg21
S'3'
sg19
S'space'
p783
sg30
g11
sg641
I3
sg642
g639
sg644
I3
sS'block.thisIndex'
p784
I10
sg646
g724
sg648
g671
sg650
VBUUUxy
p785
sa(dp786
S'block.thisTrialN'
p787
I16
sS'block.thisRepN'
p788
I0
sg29
NsS'block.thisN'
p789
I16
sg633
(S'TIMES'
S'INCREASE'
S'THIRD'
S'DOUBLE'
S'x'
S'y'
tp790
sg27
g28
sg635
I4
sg636
(I6
I2
I3
I9
tp791
sg22
I1
sg20
F3.111579166186857
sg23
F5.4911202326911734
sVY
I3
sVX
I3
sg638
g647
sg31
g32
sg33
g34
sg21
S'9'
sg19
S'space'
p792
sg30
g11
sg641
I9
sg642
g643
sg644
I9
sS'block.thisIndex'
p793
I11
sg646
g661
sg648
g765
sg650
g785
sa(dp794
S'block.thisTrialN'
p795
I17
sS'block.thisRepN'
p796
I0
sg29
NsS'block.thisN'
p797
I17
sg633
(S'INCREASE'
S'DIVIDE'
S'TRIPLE'
S'DOUBLE'
S'x'
S'y'
tp798
sg27
g28
sg635
I4
sg636
(I6
I18
I3
I4
tp799
sg22
I1
sg20
F3.2352915238152491
sg23
F6.4997408529598033
sVY
I6
sVX
I3
sg638
g671
sg31
g32
sg33
g34
sg21
S'4'
sg19
S'space'
p800
sg30
g11
sg641
I4
sg642
g649
sg644
I4
sS'block.thisIndex'
p801
I12
sg646
g643
sg648
g765
sg650
g768
sa(dp802
S'block.thisTrialN'
p803
I0
sS'block.thisRepN'
p804
I0
sg29
NsS'block.thisN'
p805
I0
sVRule
p806
(S'DIVIDE'
S'DOUBLE'
S'THIRD'
S'x'
S'y'
tp807
sg27
g28
sVLength
p808
I3
sVIntermediate
p809
(I2
I4
I1
tp810
sg22
I1
sg20
F3.8802191183640389
sg23
F3.543459887849167
sVY
I4
sVX
I6
sVOperatorc
p811
Vthird
p812
sg31
g32
sg33
g34
sg21
S'1'
sg19
S'space'
p813
sg30
g11
sVResult
p814
I1
sVOperatora
p815
Vdouble
p816
sVCorrectResponse
p817
I1
sS'block.thisIndex'
p818
I4
sVOperatorb
p819
VDIVIDE
p820
sVOperatord
p821
I0
sVStructure
p822
VBUUxy
p823
sa(dp824
S'block.thisTrialN'
p825
I1
sS'block.thisRepN'
p826
I0
sg29
NsS'block.thisN'
p827
I1
sg806
(S'DIVIDE'
S'DOUBLE'
S'x'
S'y'
tp828
sg27
g28
sg808
I2
sg809
(I12
I2
tp829
sg22
I1
sg20
F1.1523851152596762
sg23
F1.462148257312947
sVY
I6
sVX
I6
sg811
I0
sg31
g32
sg33
g34
sg21
S'2'
sg19
S'space'
p830
sg30
g11
sg814
I2
sg815
g816
sg817
I2
sS'block.thisIndex'
p831
I1
sg819
g820
sg821
I0
sg822
VBUxy
p832
sa(dp833
S'block.thisTrialN'
p834
I2
sS'block.thisRepN'
p835
I0
sg29
NsS'block.thisN'
p836
I2
sg806
(S'ADD'
S'THIRD'
S'INCREASE'
S'HALF'
S'x'
S'y'
tp837
sg27
g28
sg808
I4
sg809
(I2
I3
I1
I7
tp838
sg22
I1
sg20
F5.3814679586794227
sg23
F8.2296966772119049
sVY
I6
sVX
I4
sg811
Vincrease
p839
sg31
g32
sg33
g34
sg21
S'7'
sg19
S'space'
p840
sg30
g11
sg814
I7
sg815
g812
sg817
I7
sS'block.thisIndex'
p841
I10
sg819
VADD
p842
sg821
Vhalf
p843
sg822
VBUUUxy
p844
sa(dp845
S'block.thisTrialN'
p846
I3
sS'block.thisRepN'
p847
I0
sg29
NsS'block.thisN'
p848
I3
sg806
(S'DIVIDE'
S'INCREASE'
S'DOUBLE'
S'THIRD'
S'x'
S'y'
tp849
sg27
g28
sg808
I4
sg809
(I2
I4
I5
I1
tp850
sg22
I1
sg20
F9.0585556847654516
sg23
F5.7684940179315163
sVY
I5
sVX
I6
sg811
g816
sg31
g32
sg33
g34
sg21
S'1'
sg19
S'space'
p851
sg30
g11
sg814
I1
sg815
g839
sg817
I1
sS'block.thisIndex'
p852
I11
sg819
g820
sg821
g812
sg822
g844
sa(dp853
S'block.thisTrialN'
p854
I4
sS'block.thisRepN'
p855
I0
sg29
NsS'block.thisN'
p856
I4
sg806
(S'DECREASE'
S'TIMES'
S'DOUBLE'
S'THIRD'
S'x'
S'y'
tp857
sg27
g28
sg808
I4
sg809
(I1
I2
I8
I7
tp858
sg22
I1
sg20
F3.3321327294834191
sg23
F8.1005735531362006
sVY
I4
sVX
I3
sg811
g816
sg31
g32
sg33
g34
sg21
S'7'
sg19
S'space'
p859
sg30
g11
sg814
I7
sg815
VTIMES
p860
sg817
I7
sS'block.thisIndex'
p861
I13
sg819
Vdecrease
p862
sg821
g812
sg822
VUBUUxy
p863
sa(dp864
S'block.thisTrialN'
p865
I5
sS'block.thisRepN'
p866
I0
sg29
NsS'block.thisN'
p867
I5
sg806
(S'SUBTRACT'
S'HALF'
S'TRIPLE'
S'x'
S'y'
tp868
sg27
g28
sg808
I3
sg809
(I12
I6
I2
tp869
sg22
I1
sg20
F1.9081940512842266
sg23
F4.7921427174005657
sVY
I4
sVX
I4
sg811
Vtriple
p870
sg31
g32
sg33
g34
sg21
S'2'
sg19
S'space'
p871
sg30
g11
sg814
I2
sg815
g843
sg817
I2
sS'block.thisIndex'
p872
I5
sg819
VSUBTRACT
p873
sg821
I0
sg822
g823
sa(dp874
S'block.thisTrialN'
p875
I6
sS'block.thisRepN'
p876
I0
sg29
NsS'block.thisN'
p877
I6
sg806
(S'ADD'
S'DOUBLE'
S'x'
S'y'
tp878
sg27
g28
sg808
I2
sg809
(I4
I8
tp879
sg22
I1
sg20
F0.9478867704019649
sg23
F1.9786488027311862
sVY
I4
sVX
I2
sg811
I0
sg31
g32
sg33
g34
sg21
S'8'
sg19
S'space'
p880
sg30
g11
sg814
I8
sg815
g816
sg817
I8
sS'block.thisIndex'
p881
I0
sg819
g842
sg821
I0
sg822
g832
sa(dp882
S'block.thisTrialN'
p883
I7
sS'block.thisRepN'
p884
I0
sg29
NsS'block.thisN'
p885
I7
sg806
(S'DOUBLE'
S'SUBTRACT'
S'x'
S'y'
tp886
sg27
g28
sg808
I2
sg809
(I1
I2
tp887
sg22
I1
sg20
F1.3759857999248197
sg23
F3.4453658173006261
sVY
I7
sVX
I8
sg811
I0
sg31
g32
sg33
g34
sg21
S'2'
sg19
S'space'
p888
sg30
g11
sg814
I2
sg815
g873
sg817
I2
sS'block.thisIndex'
p889
I2
sg819
g816
sg821
I0
sg822
VUBxy
p890
sa(dp891
S'block.thisTrialN'
p892
I8
sS'block.thisRepN'
p893
I0
sg29
NsS'block.thisN'
p894
I8
sg806
(S'DOUBLE'
S'DECREASE'
S'TRIPLE'
S'DIVIDE'
S'x'
S'y'
tp895
sg27
g28
sg808
I4
sg809
(I1
I3
I2
I4
tp896
sg22
I0
sg20
F7.1228392017947044
sg23
F19.125706442559022
sVY
I4
sVX
I4
sg811
g870
sg31
g32
sg33
g34
sg21
S'3'
sg19
S'space'
p897
sg30
g11
sg814
I4
sg815
g862
sg817
I4
sS'block.thisIndex'
p898
I17
sg819
g816
sg821
g820
sg822
VUUUBxy
p899
sa(dp900
S'block.thisTrialN'
p901
I9
sS'block.thisRepN'
p902
I0
sg29
NsS'block.thisN'
p903
I9
sg806
(S'HALF'
S'TIMES'
S'x'
S'y'
tp904
sg27
g28
sg808
I2
sg809
(I16
I8
tp905
sg22
I1
sg20
F1.1745622234593611
sg23
F4.405593656731071
sVY
I4
sVX
I4
sg811
I0
sg31
g32
sg33
g34
sg21
S'8'
sg19
S'space'
p906
sg30
g11
sg814
I8
sg815
g860
sg817
I8
sS'block.thisIndex'
p907
I3
sg819
g843
sg821
I0
sg822
g890
sa(dp908
S'block.thisTrialN'
p909
I10
sS'block.thisRepN'
p910
I0
sg29
NsS'block.thisN'
p911
I10
sg806
(S'DECREASE'
S'HALF'
S'TRIPLE'
S'DIVIDE'
S'x'
S'y'
tp912
sg27
g28
sg808
I4
sg809
(I4
I12
I6
I5
tp913
sg22
I1
sg20
F8.9813904070470016
sg23
F8.900213162007276
sVY
I2
sVX
I8
sg811
g870
sg31
g32
sg33
g34
sg21
S'5'
sg19
S'space'
p914
sg30
g11
sg814
I5
sg815
g843
sg817
I5
sS'block.thisIndex'
p915
I16
sg819
g862
sg821
g820
sg822
g899
sa(dp916
S'block.thisTrialN'
p917
I11
sS'block.thisRepN'
p918
I0
sg29
NsS'block.thisN'
p919
I11
sg806
(S'DECREASE'
S'THIRD'
S'TIMES'
S'HALF'
S'x'
S'y'
tp920
sg27
g28
sg808
I4
sg809
(I2
I12
I4
I3
tp921
sg22
I1
sg20
F7.1411019821534865
sg23
F6.90313044739014
sVY
I6
sVX
I4
sg811
g860
sg31
g32
sg33
g34
sg21
S'3'
sg19
S'space'
p922
sg30
g11
sg814
I3
sg815
g812
sg817
I3
sS'block.thisIndex'
p923
I14
sg819
g862
sg821
g843
sg822
VUUBUxy
p924
sa(dp925
S'block.thisTrialN'
p926
I12
sS'block.thisRepN'
p927
I0
sg29
NsS'block.thisN'
p928
I12
sg806
(S'DECREASE'
S'ADD'
S'DOUBLE'
S'THIRD'
S'x'
S'y'
tp929
sg27
g28
sg808
I4
sg809
(I3
I6
I10
I9
tp930
sg22
I1
sg20
F9.6055638399411691
sg23
F7.1542357156868093
sVY
I4
sVX
I9
sg811
g816
sg31
g32
sg33
g34
sg21
S'9'
sg19
S'space'
p931
sg30
g11
sg814
I9
sg815
g842
sg817
I9
sS'block.thisIndex'
p932
I12
sg819
Vdecrease 
p933
sg821
g812
sg822
g863
sa(dp934
S'block.thisTrialN'
p935
I13
sS'block.thisRepN'
p936
I0
sg29
NsS'block.thisN'
p937
I13
sg806
(S'DOUBLE'
S'DECREASE'
S'SUBTRACT'
S'x'
S'y'
tp938
sg27
g28
sg808
I3
sg809
(I5
I4
I8
tp939
sg22
I1
sg20
F2.8839570652344264
sg23
F3.3520165350200841
sVY
I2
sVX
I7
sg811
g873
sg31
g32
sg33
g34
sg21
S'8'
sg19
S'space'
p940
sg30
g11
sg814
I8
sg815
g862
sg817
I8
sS'block.thisIndex'
p941
I8
sg819
g816
sg821
I0
sg822
VUUBxy
p942
sa(dp943
S'block.thisTrialN'
p944
I14
sS'block.thisRepN'
p945
I0
sg29
NsS'block.thisN'
p946
I14
sg806
(S'DOUBLE'
S'TRIPLE'
S'DIVIDE'
S'DECREASE'
S'x'
S'y'
tp947
sg27
g28
sg808
I4
sg809
(I8
I1
I3
I6
tp948
sg22
I1
sg20
F7.1239660802675644
sg23
F12.665811242259224
sVY
I8
sVX
I9
sg811
g820
sg31
g32
sg33
g34
sg21
S'6'
sg19
S'space'
p949
sg30
g11
sg814
I6
sg815
g870
sg817
I6
sS'block.thisIndex'
p950
I15
sg819
g816
sg821
g862
sg822
g924
sa(dp951
S'block.thisTrialN'
p952
I15
sS'block.thisRepN'
p953
I0
sg29
NsS'block.thisN'
p954
I15
sg806
(S'DOUBLE'
S'TRIPLE'
S'SUBTRACT'
S'x'
S'y'
tp955
sg27
g28
sg808
I3
sg809
(I1
I3
I6
tp956
sg22
I1
sg20
F1.7769379072415177
sg23
F2.5487656656187028
sVY
I3
sVX
I4
sg811
g873
sg31
g32
sg33
g34
sg21
S'6'
sg19
S'space'
p957
sg30
g11
sg814
I6
sg815
g870
sg817
I6
sS'block.thisIndex'
p958
I9
sg819
g816
sg821
I0
sg822
g942
sa(dp959
S'block.thisTrialN'
p960
I16
sS'block.thisRepN'
p961
I0
sg29
NsS'block.thisN'
p962
I16
sg806
(S'INCREASE'
S'DIVIDE'
S'THIRD'
S'x'
S'y'
tp963
sg27
g28
sg808
I3
sg809
(I3
I1
I2
tp964
sg22
I1
sg20
F4.3264843386568828
sg23
F2.2439817865524674
sVY
I3
sVX
I9
sg811
g812
sg31
g32
sg33
g34
sg21
S'2'
sg19
S'space'
p965
sg30
g11
sg814
I2
sg815
g820
sg817
I2
sS'block.thisIndex'
p966
I7
sg819
g839
sg821
I0
sg822
VUBUxy
p967
sa(dp968
S'block.thisTrialN'
p969
I17
sS'block.thisRepN'
p970
I0
sg29
NsS'block.thisN'
p971
I17
sg806
(S'HALF'
S'SUBTRACT'
S'TRIPLE'
S'x'
S'y'
tp972
sg27
g28
sg808
I3
sg809
(I9
I2
I1
tp973
sg22
I1
sg20
F4.5045069889165461
sg23
F2.5982048336154548
sVY
I7
sVX
I3
sg811
g870
sg31
g32
sg33
g34
sg21
S'1'
sg19
S'space'
p974
sg30
g11
sg814
I1
sg815
g873
sg817
I1
sS'block.thisIndex'
p975
I6
sg819
g843
sg821
I0
sg822
g967
sa(dp976
S'block.thisTrialN'
p977
I0
sS'block.thisRepN'
p978
I0
sg29
NsS'block.thisN'
p979
I0
sVRule
p980
(S'DOUBLE'
S'TIMES'
S'x'
S'y'
tp981
sg27
g28
sVLength
p982
I2
sVIntermediate
p983
(I4
I8
tp984
sg22
I1
sg20
F4.5142971830355236
sg23
F3.1069680634973338
sVY
I2
sVX
I2
sVOperatorc
p985
I0
sg31
g32
sg33
g34
sg21
S'8'
sg19
S'space'
p986
sg30
g11
sVResult
p987
I8
sVOperatora
p988
VTIMES
p989
sVCorrectResponse
p990
I8
sS'block.thisIndex'
p991
I3
sVOperatorb
p992
Vdouble
p993
sVOperatord
p994
I0
sVStructure
p995
VUBxy
p996
sa(dp997
S'block.thisTrialN'
p998
I1
sS'block.thisRepN'
p999
I0
sg29
NsS'block.thisN'
p1000
I1
sg980
(S'DIVIDE'
S'DOUBLE'
S'INCREASE'
S'THIRD'
S'x'
S'y'
tp1001
sg27
g28
sg982
I4
sg983
(I2
I3
I6
I2
tp1002
sg22
I0
sg20
F8.3456251743191388
sg23
F14.769806026422884
sVY
I3
sVX
I6
sg985
Vincrease
p1003
sg31
g32
sg33
g34
sg21
S'9'
sg19
S'space'
p1004
sg30
g11
sg987
I2
sg988
g993
sg990
I2
sS'block.thisIndex'
p1005
I10
sg992
VDIVIDE
p1006
sg994
Vthird
p1007
sg995
VBUUUxy
p1008
sa(dp1009
S'block.thisTrialN'
p1010
I2
sS'block.thisRepN'
p1011
I0
sg29
NsS'block.thisN'
p1012
I2
sg980
(S'INCREASE'
S'DIVIDE'
S'TRIPLE'
S'HALF'
S'x'
S'y'
tp1013
sg27
g28
sg982
I4
sg983
(I2
I6
I2
I3
tp1014
sg22
I1
sg20
F6.5014094729995122
sg23
F6.7732472052884987
sVY
I3
sVX
I4
sg985
Vtriple
p1015
sg31
g32
sg33
g34
sg21
S'3'
sg19
S'space'
p1016
sg30
g11
sg987
I3
sg988
g1006
sg990
I3
sS'block.thisIndex'
p1017
I12
sg992
g1003
sg994
Vhalf
p1018
sg995
VUBUUxy
p1019
sa(dp1020
S'block.thisTrialN'
p1021
I3
sS'block.thisRepN'
p1022
I0
sg29
NsS'block.thisN'
p1023
I3
sg980
(S'DOUBLE'
S'ADD'
S'x'
S'y'
tp1024
sg27
g28
sg982
I2
sg983
(I4
I8
tp1025
sg22
I1
sg20
F1.4614745799626689
sg23
F4.7724244440323673
sVY
I2
sVX
I2
sg985
I0
sg31
g32
sg33
g34
sg21
S'8'
sg19
S'space'
p1026
sg30
g11
sg987
I8
sg988
VADD
p1027
sg990
I8
sS'block.thisIndex'
p1028
I2
sg992
g993
sg994
I0
sg995
g996
sa(dp1029
S'block.thisTrialN'
p1030
I4
sS'block.thisRepN'
p1031
I0
sg29
NsS'block.thisN'
p1032
I4
sg980
(S'TIMES'
S'THIRD'
S'DOUBLE'
S'x'
S'y'
tp1033
sg27
g28
sg982
I3
sg983
(I6
I2
I4
tp1034
sg22
I1
sg20
F1.5095184484380297
sg23
F5.7964185562595958
sVY
I2
sVX
I3
sg985
g993
sg31
g32
sg33
g34
sg21
S'4'
sg19
S'space'
p1035
sg30
g11
sg987
I4
sg988
g1007
sg990
I4
sS'block.thisIndex'
p1036
I5
sg992
g989
sg994
I0
sg995
VBUUxy
p1037
sa(dp1038
S'block.thisTrialN'
p1039
I5
sS'block.thisRepN'
p1040
I0
sg29
NsS'block.thisN'
p1041
I5
sg980
(S'DIVIDE'
S'TRIPLE'
S'HALF'
S'x'
S'y'
tp1042
sg27
g28
sg982
I3
sg983
(I4
I12
I4
tp1043
sg22
I1
sg20
F1.1248871809220873
sg23
F6.730770886366372
sVY
I3
sVX
I8
sg985
g1018
sg31
g32
sg33
g34
sg21
S'4'
sg19
S'space'
p1044
sg30
g11
sg987
I4
sg988
g1015
sg990
I4
sS'block.thisIndex'
p1045
I4
sg992
g1006
sg994
I0
sg995
g1037
sa(dp1046
S'block.thisTrialN'
p1047
I6
sS'block.thisRepN'
p1048
I0
sg29
NsS'block.thisN'
p1049
I6
sg980
(S'DECREASE'
S'TRIPLE'
S'HALF'
S'ADD'
S'x'
S'y'
tp1050
sg27
g28
sg982
I4
sg983
(I6
I3
I9
I8
tp1051
sg22
I1
sg20
F9.5672776191058801
sg23
F6.6161449487699429
sVY
I2
sVX
I4
sg985
g1018
sg31
g32
sg33
g34
sg21
S'8'
sg19
S'space'
p1052
sg30
g11
sg987
I8
sg988
g1015
sg990
I8
sS'block.thisIndex'
p1053
I16
sg992
Vdecrease
p1054
sg994
g1027
sg995
VUUUBxy
p1055
sa(dp1056
S'block.thisTrialN'
p1057
I7
sS'block.thisRepN'
p1058
I0
sg29
NsS'block.thisN'
p1059
I7
sg980
(S'DECREASE'
S'TRIPLE'
S'DIVIDE'
S'x'
S'y'
tp1060
sg27
g28
sg982
I3
sg983
(I2
I6
I5
tp1061
sg22
I1
sg20
F4.4330341972527094
sg23
F5.3940882975730347
sVY
I4
sVX
I8
sg985
g1006
sg31
g32
sg33
g34
sg21
S'5'
sg19
S'space'
p1062
sg30
g11
sg987
I5
sg988
g1015
sg990
I5
sS'block.thisIndex'
p1063
I8
sg992
g1054
sg994
I0
sg995
VUUBxy
p1064
sa(dp1065
S'block.thisTrialN'
p1066
I8
sS'block.thisRepN'
p1067
I0
sg29
NsS'block.thisN'
p1068
I8
sg980
(S'TRIPLE'
S'DOUBLE'
S'SUBTRACT'
S'DECREASE'
S'x'
S'y'
tp1069
sg27
g28
sg982
I4
sg983
(I4
I1
I2
I6
tp1070
sg22
I1
sg20
F6.5346191413264023
sg23
F8.2289271102054045
sVY
I3
sVX
I5
sg985
VSUBTRACT
p1071
sg31
g32
sg33
g34
sg21
S'6'
sg19
S'space'
p1072
sg30
g11
sg987
I6
sg988
g993
sg990
I6
sS'block.thisIndex'
p1073
I15
sg992
g1015
sg994
g1054
sg995
VUUBUxy
p1074
sa(dp1075
S'block.thisTrialN'
p1076
I9
sS'block.thisRepN'
p1077
I0
sg29
NsS'block.thisN'
p1078
I9
sg980
(S'THIRD'
S'INCREASE'
S'SUBTRACT'
S'x'
S'y'
tp1079
sg27
g28
sg982
I3
sg983
(I2
I3
I1
tp1080
sg22
I1
sg20
F3.3500346987566445
sg23
F3.8282437739107991
sVY
I6
sVX
I8
sg985
g1071
sg31
g32
sg33
g34
sg21
S'1'
sg19
S'space'
p1081
sg30
g11
sg987
I1
sg988
g1003
sg990
I1
sS'block.thisIndex'
p1082
I9
sg992
g1007
sg994
I0
sg995
g1064
sa(dp1083
S'block.thisTrialN'
p1084
I10
sS'block.thisRepN'
p1085
I0
sg29
NsS'block.thisN'
p1086
I10
sg980
(S'THIRD'
S'TIMES'
S'HALF'
S'INCREASE'
S'x'
S'y'
tp1087
sg27
g28
sg982
I4
sg983
(I8
I4
I12
I4
tp1088
sg22
I1
sg20
F8.6929350669524865
sg23
F7.9218446790619055
sVY
I3
sVX
I7
sg985
g1018
sg31
g32
sg33
g34
sg21
S'4'
sg19
S'space'
p1089
sg30
g11
sg987
I4
sg988
g989
sg990
I4
sS'block.thisIndex'
p1090
I13
sg992
g1007
sg994
g1003
sg995
g1019
sa(dp1091
S'block.thisTrialN'
p1092
I11
sS'block.thisRepN'
p1093
I0
sg29
NsS'block.thisN'
p1094
I11
sg980
(S'TRIPLE'
S'DECREASE'
S'HALF'
S'SUBTRACT'
S'x'
S'y'
tp1095
sg27
g28
sg982
I4
sg983
(I4
I2
I1
I3
tp1096
sg22
I0
sg20
F10.571025714889402
sg23
F8.8362120645324467
sVY
I5
sVX
I9
sg985
g1018
sg31
g32
sg33
g34
sg21
S'2'
sg19
S'space'
p1097
sg30
g11
sg987
I3
sg988
g1054
sg990
I3
sS'block.thisIndex'
p1098
I17
sg992
g1015
sg994
g1071
sg995
g1055
sa(dp1099
S'block.thisTrialN'
p1100
I12
sS'block.thisRepN'
p1101
I0
sg29
NsS'block.thisN'
p1102
I12
sg980
(S'ADD'
S'THIRD'
S'x'
S'y'
tp1103
sg27
g28
sg982
I2
sg983
(I1
I7
tp1104
sg22
I1
sg20
F0.78380381675378885
sg23
F1.8618058542488143
sVY
I6
sVX
I3
sg985
I0
sg31
g32
sg33
g34
sg21
S'7'
sg19
S'space'
p1105
sg30
g11
sg987
I7
sg988
g1007
sg990
I7
sS'block.thisIndex'
p1106
I0
sg992
g1027
sg994
I0
sg995
VBUxy
p1107
sa(dp1108
S'block.thisTrialN'
p1109
I13
sS'block.thisRepN'
p1110
I0
sg29
NsS'block.thisN'
p1111
I13
sg980
(S'INCREASE'
S'SUBTRACT'
S'THIRD'
S'x'
S'y'
tp1112
sg27
g28
sg982
I3
sg983
(I3
I1
I2
tp1113
sg22
I1
sg20
F1.6345246165292338
sg23
F3.7533707489637891
sVY
I2
sVX
I9
sg985
g1007
sg31
g32
sg33
g34
sg21
S'2'
sg19
S'space'
p1114
sg30
g11
sg987
I2
sg988
g1071
sg990
I2
sS'block.thisIndex'
p1115
I7
sg992
g1003
sg994
I0
sg995
VUBUxy
p1116
sa(dp1117
S'block.thisTrialN'
p1118
I14
sS'block.thisRepN'
p1119
I0
sg29
NsS'block.thisN'
p1120
I14
sg980
(S'SUBTRACT'
S'INCREASE'
S'x'
S'y'
tp1121
sg27
g28
sg982
I2
sg983
(I6
I2
tp1122
sg22
I1
sg20
F0.72337933354720008
sg23
F4.9293944148084847
sVY
I4
sVX
I5
sg985
I0
sg31
g32
sg33
g34
sg21
S'2'
sg19
S'space'
p1123
sg30
g11
sg987
I2
sg988
g1003
sg990
I2
sS'block.thisIndex'
p1124
I1
sg992
g1071
sg994
I0
sg995
g1107
sa(dp1125
S'block.thisTrialN'
p1126
I15
sS'block.thisRepN'
p1127
I0
sg29
NsS'block.thisN'
p1128
I15
sg980
(S'THIRD'
S'INCREASE'
S'ADD'
S'DOUBLE'
S'x'
S'y'
tp1129
sg27
g28
sg982
I4
sg983
(I16
I20
I21
I7
tp1130
sg22
I1
sg20
F1.779238559116493
sg23
F9.0469369378552074
sVY
I4
sVX
I8
sg985
g1027
sg31
g32
sg33
g34
sg21
S'7'
sg19
S'space'
p1131
sg30
g11
sg987
I7
sg988
g1003
sg990
I7
sS'block.thisIndex'
p1132
I14
sg992
g1007
sg994
g993
sg995
g1074
sa(dp1133
S'block.thisTrialN'
p1134
I16
sS'block.thisRepN'
p1135
I0
sg29
NsS'block.thisN'
p1136
I16
sg980
(S'TIMES'
S'INCREASE'
S'HALF'
S'TRIPLE'
S'x'
S'y'
tp1137
sg27
g28
sg982
I4
sg983
(I6
I3
I4
I8
tp1138
sg22
I1
sg20
F5.7657863599306438
sg23
F14.912568929445115
sVY
I2
sVX
I2
sg985
g1018
sg31
g32
sg33
g34
sg21
S'8'
sg19
S'space'
p1139
sg30
g11
sg987
I8
sg988
g1003
sg990
I8
sS'block.thisIndex'
p1140
I11
sg992
g989
sg994
g1015
sg995
g1008
sa(dp1141
S'block.thisTrialN'
p1142
I17
sS'block.thisRepN'
p1143
I0
sg29
NsS'block.thisN'
p1144
I17
sg980
(S'INCREASE'
S'ADD'
S'TRIPLE'
S'x'
S'y'
tp1145
sg27
g28
sg982
I3
sg983
(I6
I8
I9
tp1146
sg22
I1
sg20
F4.2617105245153653
sg23
F4.6160497590317391
sVY
I2
sVX
I2
sg985
g1015
sg31
g32
sg33
g34
sg21
S'9'
sg19
S'space'
p1147
sg30
g11
sg987
I9
sg988
g1027
sg990
I9
sS'block.thisIndex'
p1148
I6
sg992
g1003
sg994
I0
sg995
g1116
sa(dp1149
S'block.thisTrialN'
p1150
I0
sS'block.thisRepN'
p1151
I0
sg29
NsS'block.thisN'
p1152
I0
sVRule
p1153
(S'SUBTRACT'
S'TRIPLE'
S'x'
S'y'
tp1154
sg27
g28
sVLength
p1155
I2
sVIntermediate
p1156
(I12
I9
tp1157
sg22
I1
sg20
F2.1574893147771945
sg23
F5.4756088555877795
sVY
I3
sVX
I4
sVOperatorc
p1158
I0
sg31
g32
sg33
g34
sg21
S'9'
sg19
S'space'
p1159
sg30
g11
sVResult
p1160
I9
sVOperatora
p1161
Vtriple
p1162
sVCorrectResponse
p1163
I9
sS'block.thisIndex'
p1164
I1
sVOperatorb
p1165
VSUBTRACT
p1166
sVOperatord
p1167
I0
sVStructure
p1168
VBUxy
p1169
sa(dp1170
S'block.thisTrialN'
p1171
I1
sS'block.thisRepN'
p1172
I0
sg29
NsS'block.thisN'
p1173
I1
sg1153
(S'INCREASE'
S'DIVIDE'
S'TRIPLE'
S'x'
S'y'
tp1174
sg27
g28
sg1155
I3
sg1156
(I6
I2
I3
tp1175
sg22
I1
sg20
F5.028073972222046
sg23
F11.124330740931327
sVY
I3
sVX
I2
sg1158
g1162
sg31
g32
sg33
g34
sg21
S'3'
sg19
S'space'
p1176
sg30
g11
sg1160
I3
sg1161
VDIVIDE
p1177
sg1163
I3
sS'block.thisIndex'
p1178
I7
sg1165
Vincrease
p1179
sg1167
I0
sg1168
VUBUxy
p1180
sa(dp1181
S'block.thisTrialN'
p1182
I2
sS'block.thisRepN'
p1183
I0
sg29
NsS'block.thisN'
p1184
I2
sg1153
(S'TRIPLE'
S'HALF'
S'ADD'
S'x'
S'y'
tp1185
sg27
g28
sg1155
I3
sg1156
(I6
I3
I9
tp1186
sg22
I1
sg20
F2.75866987745394
sg23
F4.2284329635149334
sVY
I3
sVX
I3
sg1158
VADD
p1187
sg31
g32
sg33
g34
sg21
S'9'
sg19
S'space'
p1188
sg30
g11
sg1160
I9
sg1161
Vhalf
p1189
sg1163
I9
sS'block.thisIndex'
p1190
I8
sg1165
g1162
sg1167
I0
sg1168
VUUBxy
p1191
sa(dp1192
S'block.thisTrialN'
p1193
I3
sS'block.thisRepN'
p1194
I0
sg29
NsS'block.thisN'
p1195
I3
sg1153
(S'DIVIDE'
S'TRIPLE'
S'DECREASE'
S'x'
S'y'
tp1196
sg27
g28
sg1155
I3
sg1156
(I6
I18
I9
tp1197
sg22
I1
sg20
F2.0702703213464702
sg23
F8.7720485845638905
sVY
I2
sVX
I7
sg1158
Vdecrease
p1198
sg31
g32
sg33
g34
sg21
S'9'
sg19
S'space'
p1199
sg30
g11
sg1160
I9
sg1161
g1162
sg1163
I9
sS'block.thisIndex'
p1200
I4
sg1165
g1177
sg1167
I0
sg1168
VBUUxy
p1201
sa(dp1202
S'block.thisTrialN'
p1203
I4
sS'block.thisRepN'
p1204
I0
sg29
NsS'block.thisN'
p1205
I4
sg1153
(S'DOUBLE'
S'DIVIDE'
S'x'
S'y'
tp1206
sg27
g28
sg1155
I2
sg1156
(I1
I2
tp1207
sg22
I1
sg20
F2.1959603156865342
sg23
F3.7993354916688986
sVY
I8
sVX
I8
sg1158
I0
sg31
g32
sg33
g34
sg21
S'2'
sg19
S'space'
p1208
sg30
g11
sg1160
I2
sg1161
g1177
sg1163
I2
sS'block.thisIndex'
p1209
I2
sg1165
Vdouble
p1210
sg1167
I0
sg1168
VUBxy
p1211
sa(dp1212
S'block.thisTrialN'
p1213
I5
sS'block.thisRepN'
p1214
I0
sg29
NsS'block.thisN'
p1215
I5
sg1153
(S'HALF'
S'SUBTRACT'
S'DECREASE'
S'TRIPLE'
S'x'
S'y'
tp1216
sg27
g28
sg1155
I4
sg1156
(I15
I14
I10
I5
tp1217
sg22
I1
sg20
F5.4177712933596922
sg23
F8.1287087687669555
sVY
I4
sVX
I5
sg1158
g1198
sg31
g32
sg33
g34
sg21
S'5'
sg19
S'space'
p1218
sg30
g11
sg1160
I5
sg1161
g1166
sg1163
I5
sS'block.thisIndex'
p1219
I12
sg1165
g1189
sg1167
g1162
sg1168
VUBUUxy
p1220
sa(dp1221
S'block.thisTrialN'
p1222
I6
sS'block.thisRepN'
p1223
I0
sg29
NsS'block.thisN'
p1224
I6
sg1153
(S'SUBTRACT'
S'INCREASE'
S'HALF'
S'x'
S'y'
tp1225
sg27
g28
sg1155
I3
sg1156
(I4
I5
I3
tp1226
sg22
I1
sg20
F4.2931476340309018
sg23
F4.3424898624652997
sVY
I2
sVX
I8
sg1158
g1189
sg31
g32
sg33
g34
sg21
S'3'
sg19
S'space'
p1227
sg30
g11
sg1160
I3
sg1161
g1179
sg1163
I3
sS'block.thisIndex'
p1228
I5
sg1165
g1166
sg1167
I0
sg1168
g1201
sa(dp1229
S'block.thisTrialN'
p1230
I7
sS'block.thisRepN'
p1231
I0
sg29
NsS'block.thisN'
p1232
I7
sg1153
(S'HALF'
S'TIMES'
S'DECREASE'
S'x'
S'y'
tp1233
sg27
g28
sg1155
I3
sg1156
(I8
I16
I8
tp1234
sg22
I1
sg20
F1.9672711798048113
sg23
F3.6381194288260303
sVY
I2
sVX
I9
sg1158
g1198
sg31
g32
sg33
g34
sg21
S'8'
sg19
S'space'
p1235
sg30
g11
sg1160
I8
sg1161
VTIMES
p1236
sg1163
I8
sS'block.thisIndex'
p1237
I6
sg1165
g1189
sg1167
I0
sg1168
g1180
sa(dp1238
S'block.thisTrialN'
p1239
I8
sS'block.thisRepN'
p1240
I0
sg29
NsS'block.thisN'
p1241
I8
sg1153
(S'TRIPLE'
S'INCREASE'
S'DIVIDE'
S'DOUBLE'
S'x'
S'y'
tp1242
sg27
g28
sg1155
I4
sg1156
(I16
I2
I3
I9
tp1243
sg22
I1
sg20
F3.5576039624138502
sg23
F6.3372197808494093
sVY
I8
sVX
I8
sg1158
g1177
sg31
g32
sg33
g34
sg21
S'9'
sg19
S'space'
p1244
sg30
g11
sg1160
I9
sg1161
g1179
sg1163
I9
sS'block.thisIndex'
p1245
I15
sg1165
g1162
sg1167
g1210
sg1168
VUUBUxy
p1246
sa(dp1247
S'block.thisTrialN'
p1248
I9
sS'block.thisRepN'
p1249
I0
sg29
NsS'block.thisN'
p1250
I9
sg1153
(S'INCREASE'
S'TIMES'
S'TRIPLE'
S'HALF'
S'x'
S'y'
tp1251
sg27
g28
sg1155
I4
sg1156
(I1
I3
I6
I7
tp1252
sg22
I1
sg20
F6.2446540640521562
sg23
F5.1892763865471352
sVY
I2
sVX
I2
sg1158
g1162
sg31
g32
sg33
g34
sg21
S'7'
sg19
S'space'
p1253
sg30
g11
sg1160
I7
sg1161
g1236
sg1163
I7
sS'block.thisIndex'
p1254
I13
sg1165
g1179
sg1167
g1189
sg1168
g1220
sa(dp1255
S'block.thisTrialN'
p1256
I10
sS'block.thisRepN'
p1257
I0
sg29
NsS'block.thisN'
p1258
I10
sg1153
(S'TRIPLE'
S'INCREASE'
S'SUBTRACT'
S'x'
S'y'
tp1259
sg27
g28
sg1155
I3
sg1156
(I1
I2
I6
tp1260
sg22
I1
sg20
F2.1986291278444696
sg23
F4.2126818622637074
sVY
I2
sVX
I3
sg1158
g1166
sg31
g32
sg33
g34
sg21
S'6'
sg19
S'space'
p1261
sg30
g11
sg1160
I6
sg1161
g1179
sg1163
I6
sS'block.thisIndex'
p1262
I9
sg1165
g1162
sg1167
I0
sg1168
g1191
sa(dp1263
S'block.thisTrialN'
p1264
I11
sS'block.thisRepN'
p1265
I0
sg29
NsS'block.thisN'
p1266
I11
sg1153
(S'DECREASE'
S'THIRD'
S'DOUBLE'
S'ADD'
S'x'
S'y'
tp1267
sg27
g28
sg1155
I4
sg1156
(I9
I18
I6
I5
tp1268
sg22
I1
sg20
F5.427741368097486
sg23
F5.2868952083517797
sVY
I4
sVX
I5
sg1158
g1210
sg31
g32
sg33
g34
sg21
S'5'
sg19
S'space'
p1269
sg30
g11
sg1160
I5
sg1161
Vthird
p1270
sg1163
I5
sS'block.thisIndex'
p1271
I16
sg1165
g1198
sg1167
g1187
sg1168
VUUUBxy
p1272
sa(dp1273
S'block.thisTrialN'
p1274
I12
sS'block.thisRepN'
p1275
I0
sg29
NsS'block.thisN'
p1276
I12
sg1153
(S'TIMES'
S'HALF'
S'INCREASE'
S'THIRD'
S'x'
S'y'
tp1277
sg27
g28
sg1155
I4
sg1156
(I1
I2
I1
I9
tp1278
sg22
I1
sg20
F2.0838600557035534
sg23
F6.4714810507721268
sVY
I9
sVX
I3
sg1158
g1179
sg31
g32
sg33
g34
sg21
S'9'
sg19
S'space'
p1279
sg30
g11
sg1160
I9
sg1161
g1189
sg1163
I9
sS'block.thisIndex'
p1280
I11
sg1165
g1236
sg1167
g1270
sg1168
VBUUUxy
p1281
sa(dp1282
S'block.thisTrialN'
p1283
I13
sS'block.thisRepN'
p1284
I0
sg29
NsS'block.thisN'
p1285
I13
sg1153
(S'THIRD'
S'INCREASE'
S'HALF'
S'TIMES'
S'x'
S'y'
tp1286
sg27
g28
sg1155
I4
sg1156
(I28
I14
I15
I5
tp1287
sg22
I1
sg20
F3.5414542541548144
sg23
F5.880642922653351
sVY
I4
sVX
I7
sg1158
g1189
sg31
g32
sg33
g34
sg21
S'5'
sg19
S'space'
p1288
sg30
g11
sg1160
I5
sg1161
g1179
sg1163
I5
sS'block.thisIndex'
p1289
I17
sg1165
g1270
sg1167
g1236
sg1168
g1272
sa(dp1290
S'block.thisTrialN'
p1291
I14
sS'block.thisRepN'
p1292
I0
sg29
NsS'block.thisN'
p1293
I14
sg1153
(S'INCREASE'
S'DIVIDE'
S'x'
S'y'
tp1294
sg27
g28
sg1155
I2
sg1156
(I4
I5
tp1295
sg22
I1
sg20
F0.85117715054366272
sg23
F3.6055746887723217
sVY
I2
sVX
I8
sg1158
I0
sg31
g32
sg33
g34
sg21
S'5'
sg19
S'space'
p1296
sg30
g11
sg1160
I5
sg1161
g1177
sg1163
I5
sS'block.thisIndex'
p1297
I3
sg1165
g1179
sg1167
I0
sg1168
g1211
sa(dp1298
S'block.thisTrialN'
p1299
I15
sS'block.thisRepN'
p1300
I0
sg29
NsS'block.thisN'
p1301
I15
sg1153
(S'TRIPLE'
S'DOUBLE'
S'SUBTRACT'
S'INCREASE'
S'x'
S'y'
tp1302
sg27
g28
sg1155
I4
sg1156
(I5
I1
I2
I6
tp1303
sg22
I1
sg20
F5.8607776651333552
sg23
F4.1059013785416028
sVY
I4
sVX
I4
sg1158
g1166
sg31
g32
sg33
g34
sg21
S'6'
sg19
S'space'
p1304
sg30
g11
sg1160
I6
sg1161
g1210
sg1163
I6
sS'block.thisIndex'
p1305
I14
sg1165
g1162
sg1167
g1179
sg1168
g1246
sa(dp1306
S'block.thisTrialN'
p1307
I16
sS'block.thisRepN'
p1308
I0
sg29
NsS'block.thisN'
p1309
I16
sg1153
(S'DIVIDE'
S'DOUBLE'
S'INCREASE'
S'TRIPLE'
S'x'
S'y'
tp1310
sg27
g28
sg1155
I4
sg1156
(I9
I10
I20
I5
tp1311
sg22
I1
sg20
F14.672963070930564
sg23
F7.4612012594443513
sVY
I4
sVX
I3
sg1158
g1179
sg31
g32
sg33
g34
sg21
S'5'
sg19
S'space'
p1312
sg30
g11
sg1160
I5
sg1161
g1210
sg1163
I5
sS'block.thisIndex'
p1313
I10
sg1165
g1177
sg1167
g1162
sg1168
g1281
sa(dp1314
S'block.thisTrialN'
p1315
I17
sS'block.thisRepN'
p1316
I0
sg29
NsS'block.thisN'
p1317
I17
sg1153
(S'ADD'
S'HALF'
S'x'
S'y'
tp1318
sg27
g28
sg1155
I2
sg1156
(I2
I7
tp1319
sg22
I1
sg20
F0.86626192365656607
sg23
F1.7499460183171323
sVY
I5
sVX
I4
sg1158
I0
sg31
g32
sg33
g34
sg21
S'7'
sg19
S'space'
p1320
sg30
g11
sg1160
I7
sg1161
g1189
sg1163
I7
sS'block.thisIndex'
p1321
I0
sg1165
g1187
sg1167
I0
sg1168
g1169
sa(dp1322
S'block.thisTrialN'
p1323
I0
sS'block.thisRepN'
p1324
I0
sg29
NsS'block.thisN'
p1325
I0
sVRule
p1326
(S'INCREASE'
S'TIMES'
S'x'
S'y'
tp1327
sg27
g28
sVLength
p1328
I2
sVIntermediate
p1329
(I8
I9
tp1330
sg22
I1
sg20
F0.91135840999777429
sg23
F2.5322474471176974
sVY
I4
sVX
I2
sVOperatorc
p1331
I0
sg31
g32
sg33
g34
sg21
S'9'
sg19
S'space'
p1332
sg30
g11
sVResult
p1333
I9
sVOperatora
p1334
VTIMES
p1335
sVCorrectResponse
p1336
I9
sS'block.thisIndex'
p1337
I2
sVOperatorb
p1338
Vincrease
p1339
sVOperatord
p1340
I0
sVStructure
p1341
VUBxy
p1342
sa(dp1343
S'block.thisTrialN'
p1344
I1
sS'block.thisRepN'
p1345
I0
sg29
NsS'block.thisN'
p1346
I1
sg1326
(S'TIMES'
S'THIRD'
S'x'
S'y'
tp1347
sg27
g28
sg1328
I2
sg1329
(I1
I4
tp1348
sg22
I1
sg20
F1.4470039906154852
sg23
F1.5538523670256836
sVY
I4
sVX
I3
sg1331
I0
sg31
g32
sg33
g34
sg21
S'4'
sg19
S'space'
p1349
sg30
g11
sg1333
I4
sg1334
Vthird
p1350
sg1336
I4
sS'block.thisIndex'
p1351
I1
sg1338
g1335
sg1340
I0
sg1341
VBUxy
p1352
sa(dp1353
S'block.thisTrialN'
p1354
I2
sS'block.thisRepN'
p1355
I0
sg29
NsS'block.thisN'
p1356
I2
sg1326
(S'SUBTRACT'
S'THIRD'
S'x'
S'y'
tp1357
sg27
g28
sg1328
I2
sg1329
(I3
I1
tp1358
sg22
I1
sg20
F0.83476707036606967
sg23
F2.1703791246109176
sVY
I2
sVX
I9
sg1331
I0
sg31
g32
sg33
g34
sg21
S'1'
sg19
S'space'
p1359
sg30
g11
sg1333
I1
sg1334
g1350
sg1336
I1
sS'block.thisIndex'
p1360
I0
sg1338
VSUBTRACT
p1361
sg1340
I0
sg1341
g1352
sa(dp1362
S'block.thisTrialN'
p1363
I3
sS'block.thisRepN'
p1364
I0
sg29
NsS'block.thisN'
p1365
I3
sg1326
(S'INCREASE'
S'HALF'
S'TIMES'
S'TRIPLE'
S'x'
S'y'
tp1366
sg27
g28
sg1328
I4
sg1329
(I6
I12
I6
I7
tp1367
sg22
I1
sg20
F5.8720474996662233
sg23
F6.8870153853931697
sVY
I2
sVX
I2
sg1331
g1335
sg31
g32
sg33
g34
sg21
S'7'
sg19
S'space'
p1368
sg30
g11
sg1333
I7
sg1334
Vhalf
p1369
sg1336
I7
sS'block.thisIndex'
p1370
I14
sg1338
g1339
sg1340
Vtriple
p1371
sg1341
VUUBUxy
p1372
sa(dp1373
S'block.thisTrialN'
p1374
I4
sS'block.thisRepN'
p1375
I0
sg29
NsS'block.thisN'
p1376
I4
sg1326
(S'INCREASE'
S'DIVIDE'
S'HALF'
S'x'
S'y'
tp1377
sg27
g28
sg1328
I3
sg1329
(I2
I1
I2
tp1378
sg22
I1
sg20
F3.6832953565899516
sg23
F2.5514180295722326
sVY
I2
sVX
I4
sg1331
g1369
sg31
g32
sg33
g34
sg21
S'2'
sg19
S'space'
p1379
sg30
g11
sg1333
I2
sg1334
VDIVIDE
p1380
sg1336
I2
sS'block.thisIndex'
p1381
I7
sg1338
g1339
sg1340
I0
sg1341
VUBUxy
p1382
sa(dp1383
S'block.thisTrialN'
p1384
I5
sS'block.thisRepN'
p1385
I0
sg29
NsS'block.thisN'
p1386
I5
sg1326
(S'INCREASE'
S'TRIPLE'
S'HALF'
S'ADD'
S'x'
S'y'
tp1387
sg27
g28
sg1328
I4
sg1329
(I4
I2
I6
I7
tp1388
sg22
I1
sg20
F6.6632470688055037
sg23
F4.3721040185919264
sVY
I2
sVX
I2
sg1331
g1369
sg31
g32
sg33
g34
sg21
S'7'
sg19
S'space'
p1389
sg30
g11
sg1333
I7
sg1334
g1371
sg1336
I7
sS'block.thisIndex'
p1390
I17
sg1338
g1339
sg1340
VADD
p1391
sg1341
VUUUBxy
p1392
sa(dp1393
S'block.thisTrialN'
p1394
I6
sS'block.thisRepN'
p1395
I0
sg29
NsS'block.thisN'
p1396
I6
sg1326
(S'TRIPLE'
S'HALF'
S'TIMES'
S'x'
S'y'
tp1397
sg27
g28
sg1328
I3
sg1329
(I6
I3
I9
tp1398
sg22
I1
sg20
F0.90218624920817092
sg23
F4.2107010758918477
sVY
I3
sVX
I2
sg1331
g1335
sg31
g32
sg33
g34
sg21
S'9'
sg19
S'space'
p1399
sg30
g11
sg1333
I9
sg1334
g1369
sg1336
I9
sS'block.thisIndex'
p1400
I9
sg1338
g1371
sg1340
I0
sg1341
VUUBxy
p1401
sa(dp1402
S'block.thisTrialN'
p1403
I7
sS'block.thisRepN'
p1404
I0
sg29
NsS'block.thisN'
p1405
I7
sg1326
(S'DECREASE'
S'HALF'
S'TRIPLE'
S'ADD'
S'x'
S'y'
tp1406
sg27
g28
sg1328
I4
sg1329
(I4
I12
I6
I5
tp1407
sg22
I1
sg20
F3.3022575015347684
sg23
F5.8133563795126975
sVY
I2
sVX
I2
sg1331
g1371
sg31
g32
sg33
g34
sg21
S'5'
sg19
S'space'
p1408
sg30
g11
sg1333
I5
sg1334
g1369
sg1336
I5
sS'block.thisIndex'
p1409
I16
sg1338
Vdecrease
p1410
sg1340
g1391
sg1341
g1392
sa(dp1411
S'block.thisTrialN'
p1412
I8
sS'block.thisRepN'
p1413
I0
sg29
NsS'block.thisN'
p1414
I8
sg1326
(S'SUBTRACT'
S'DOUBLE'
S'DECREASE'
S'x'
S'y'
tp1415
sg27
g28
sg1328
I3
sg1329
(I8
I16
I7
tp1416
sg22
I1
sg20
F1.8102893103059614
sg23
F6.374193643219769
sVY
I9
sVX
I9
sg1331
g1410
sg31
g32
sg33
g34
sg21
S'7'
sg19
S'space'
p1417
sg30
g11
sg1333
I7
sg1334
Vdouble
p1418
sg1336
I7
sS'block.thisIndex'
p1419
I5
sg1338
g1361
sg1340
I0
sg1341
VBUUxy
p1420
sa(dp1421
S'block.thisTrialN'
p1422
I9
sS'block.thisRepN'
p1423
I0
sg29
NsS'block.thisN'
p1424
I9
sg1326
(S'ADD'
S'DECREASE'
S'HALF'
S'x'
S'y'
tp1425
sg27
g28
sg1328
I3
sg1329
(I3
I2
I6
tp1426
sg22
I1
sg20
F2.0058016742841573
sg23
F8.2309817386121722
sVY
I4
sVX
I6
sg1331
g1369
sg31
g32
sg33
g34
sg21
S'6'
sg19
S'space'
p1427
sg30
g11
sg1333
I6
sg1334
g1410
sg1336
I6
sS'block.thisIndex'
p1428
I4
sg1338
g1391
sg1340
I0
sg1341
g1420
sa(dp1429
S'block.thisTrialN'
p1430
I10
sS'block.thisRepN'
p1431
I0
sg29
NsS'block.thisN'
p1432
I10
sg1326
(S'TIMES'
S'DECREASE'
S'THIRD'
S'DOUBLE'
S'x'
S'y'
tp1433
sg27
g28
sg1328
I4
sg1329
(I6
I2
I1
I2
tp1434
sg22
I1
sg20
F5.60771400804515
sg23
F7.7325948896468617
sVY
I2
sVX
I3
sg1331
g1350
sg31
g32
sg33
g34
sg21
S'2'
sg19
S'space'
p1435
sg30
g11
sg1333
I2
sg1334
g1410
sg1336
I2
sS'block.thisIndex'
p1436
I11
sg1338
g1335
sg1340
g1418
sg1341
VBUUUxy
p1437
sa(dp1438
S'block.thisTrialN'
p1439
I11
sS'block.thisRepN'
p1440
I0
sg29
NsS'block.thisN'
p1441
I11
sg1326
(S'TRIPLE'
S'SUBTRACT'
S'INCREASE'
S'HALF'
S'x'
S'y'
tp1442
sg27
g28
sg1328
I4
sg1329
(I3
I4
I1
I3
tp1443
sg22
I0
sg20
F7.4427778464014409
sg23
F9.713199981386424
sVY
I3
sVX
I6
sg1331
g1339
sg31
g32
sg33
g34
sg21
S'2'
sg19
S'space'
p1444
sg30
g11
sg1333
I3
sg1334
g1361
sg1336
I3
sS'block.thisIndex'
p1445
I13
sg1338
g1371
sg1340
g1369
sg1341
VUBUUxy
p1446
sa(dp1447
S'block.thisTrialN'
p1448
I12
sS'block.thisRepN'
p1449
I0
sg29
NsS'block.thisN'
p1450
I12
sg1326
(S'DIVIDE'
S'DECREASE'
S'THIRD'
S'DOUBLE'
S'x'
S'y'
tp1451
sg27
g28
sg1328
I4
sg1329
(I12
I4
I3
I1
tp1452
sg22
I1
sg20
F7.2866050896409433
sg23
F9.6699635444238083
sVY
I3
sVX
I6
sg1331
g1350
sg31
g32
sg33
g34
sg21
S'1'
sg19
S'space'
p1453
sg30
g11
sg1333
I1
sg1334
g1410
sg1336
I1
sS'block.thisIndex'
p1454
I10
sg1338
g1380
sg1340
g1418
sg1341
g1437
sa(dp1455
S'block.thisTrialN'
p1456
I13
sS'block.thisRepN'
p1457
I0
sg29
NsS'block.thisN'
p1458
I13
sg1326
(S'DECREASE'
S'DIVIDE'
S'TRIPLE'
S'DOUBLE'
S'x'
S'y'
tp1459
sg27
g28
sg1328
I4
sg1329
(I6
I18
I2
I1
tp1460
sg22
I0
sg20
F3.7019259472872363
sg23
F10.833394518398563
sVY
I9
sVX
I3
sg1331
g1371
sg31
g32
sg33
g34
sg21
S'3'
sg19
S'space'
p1461
sg30
g11
sg1333
I1
sg1334
g1380
sg1336
I1
sS'block.thisIndex'
p1462
I12
sg1338
g1410
sg1340
g1418
sg1341
g1446
sa(dp1463
S'block.thisTrialN'
p1464
I14
sS'block.thisRepN'
p1465
I0
sg29
NsS'block.thisN'
p1466
I14
sg1326
(S'THIRD'
S'INCREASE'
S'SUBTRACT'
S'HALF'
S'x'
S'y'
tp1467
sg27
g28
sg1328
I4
sg1329
(I4
I2
I3
I1
tp1468
sg22
I1
sg20
F8.5818220504879719
sg23
F5.8920180958375568
sVY
I2
sVX
I8
sg1331
g1361
sg31
g32
sg33
g34
sg21
S'1'
sg19
S'space'
p1469
sg30
g11
sg1333
I1
sg1334
g1339
sg1336
I1
sS'block.thisIndex'
p1470
I15
sg1338
g1350
sg1340
g1369
sg1341
g1372
sa(dp1471
S'block.thisTrialN'
p1472
I15
sS'block.thisRepN'
p1473
I0
sg29
NsS'block.thisN'
p1474
I15
sg1326
(S'DECREASE'
S'HALF'
S'DIVIDE'
S'x'
S'y'
tp1475
sg27
g28
sg1328
I3
sg1329
(I4
I2
I1
tp1476
sg22
I1
sg20
F2.2285124049376464
sg23
F3.7170121202507289
sVY
I2
sVX
I8
sg1331
g1380
sg31
g32
sg33
g34
sg21
S'1'
sg19
S'space'
p1477
sg30
g11
sg1333
I1
sg1334
g1369
sg1336
I1
sS'block.thisIndex'
p1478
I8
sg1338
g1410
sg1340
I0
sg1341
g1401
sa(dp1479
S'block.thisTrialN'
p1480
I16
sS'block.thisRepN'
p1481
I0
sg29
NsS'block.thisN'
p1482
I16
sg1326
(S'DOUBLE'
S'TIMES'
S'THIRD'
S'x'
S'y'
tp1483
sg27
g28
sg1328
I3
sg1329
(I1
I4
I8
tp1484
sg22
I1
sg20
F1.2660199597448809
sg23
F4.8371786602801876
sVY
I4
sVX
I3
sg1331
g1350
sg31
g32
sg33
g34
sg21
S'8'
sg19
S'space'
p1485
sg30
g11
sg1333
I8
sg1334
g1335
sg1336
I8
sS'block.thisIndex'
p1486
I6
sg1338
g1418
sg1340
I0
sg1341
g1382
sa(dp1487
S'block.thisTrialN'
p1488
I17
sS'block.thisRepN'
p1489
I0
sg29
NsS'block.thisN'
p1490
I17
sg1326
(S'TRIPLE'
S'SUBTRACT'
S'x'
S'y'
tp1491
sg27
g28
sg1328
I2
sg1329
(I2
I6
tp1492
sg22
I1
sg20
F0.67866360612970311
sg23
F3.637884954106994
sVY
I6
sVX
I8
sg1331
I0
sg31
g32
sg33
g34
sg21
S'6'
sg19
S'space'
p1493
sg30
g11
sg1333
I6
sg1334
g1361
sg1336
I6
sS'block.thisIndex'
p1494
I3
sg1338
g1371
sg1340
I0
sg1341
g1342
sasS'loops'
p1495
(lp1496
g1
(cpsychopy.data
TrialHandler
p1497
g3
NtRp1498
(dp1499
S'origin'
p1500
NsS'thisTrial'
p1501
(lp1502
sS'_exp'
p1503
I153435152
sg10
S'practice_trials'
p1504
sg6
S'C:\\Users\\experimenter\\Desktop\\Experiments\\KRITL\\2. kritl_experimenter.py'
p1505
sS'thisRepN'
p1506
I1
sg24
I01
sg25
g26
sS'data'
p1507
g1
(cpsychopy.data
DataHandler
p1508
c__builtin__
dict
p1509
(dp1510
g15
cnumpy.core.multiarray
_reconstruct
p1511
(cnumpy
ndarray
p1512
(I0
tS'b'
tRp1513
(I1
(I6
I1
tcnumpy
dtype
p1514
(S'O4'
I0
I1
tRp1515
(I3
S'|'
NNNI-1
I-1
I63
tbI00
(lp1516
(lp1517
F5.3302572817483451
aa(lp1518
F1.7342425119568361
aa(lp1519
F1.7729224403155968
aa(lp1520
F2.2326094130694401
aa(lp1521
F13.053811596415471
aa(lp1522
F10.812351287910133
aatbsg16
g1511
(g1512
(I0
tS'b'
tRp1523
(I1
(I6
I1
tg1515
I00
(lp1524
S'7'
aS'8'
aS'7'
aS'8'
aS'3'
aS'9'
atbsS'ran'
p1525
cnumpy.ma.core
_mareconstruct
p1526
(cnumpy.ma.core
MaskedArray
p1527
g1512
(I0
tp1528
S'b'
tRp1529
(I1
(I6
I1
tg1514
(S'f4'
I0
I1
tRp1530
(I3
S'<'
NNNI-1
I-1
I0
tbI00
S'\x00\x00\x80?\x00\x00\x80?\x00\x00\x80?\x00\x00\x80?\x00\x00\x80?\x00\x00\x80?'
S'\x00\x00\x00\x00\x00\x00'
Ntbsg18
g1526
(g1527
g1512
g1528
S'b'
tRp1531
(I1
(I6
I1
tg1530
I00
S'\xeeq\x8d@]\xd4\xae?\x0f\x9e\x00@\x87\x02tA5?\xef@g\xec!A'
S'\x00\x00\x00\x00\x00\x00'
Ntbsg14
g1511
(g1512
(I0
tS'b'
tRp1532
(I1
(I6
I1
tg1515
I00
(lp1533
(lp1534
g69
aa(lp1535
g116
aa(lp1536
g107
aa(lp1537
g90
aa(lp1538
g80
aa(lp1539
g99
aatbsS'order'
p1540
g1526
(g1527
g1512
g1528
S'b'
tRp1541
(I1
(I6
I1
tg1530
I00
S'\x00\x00\x00\x00\x00\x00\xa0@\x00\x00\x80@\x00\x00\x00@\x00\x00\x80?\x00\x00@@'
S'\x00\x00\x00\x00\x00\x00'
Ntbsg17
g1526
(g1527
g1512
g1528
S'b'
tRp1542
(I1
(I6
I1
tg1530
I00
S'\x00\x00\x80?\x00\x00\x80?\x00\x00\x80?\x00\x00\x80?\x00\x00\x80?\x00\x00\x80?'
S'\x00\x00\x00\x00\x00\x00'
NtbstRp1543
(dp1544
S'isNumeric'
p1545
(dp1546
g16
I00
sg1525
I01
sg18
I01
sg14
I00
sg17
I01
sg1540
I01
sg15
I00
ssS'trials'
p1547
g1498
sS'dataTypes'
p1548
(lp1549
g1525
ag1540
ag14
ag15
ag16
ag17
ag18
asS'dataShape'
p1550
(lp1551
I6
aI1
asbsS'method'
p1552
S'fullRandom'
p1553
sS'sequenceIndices'
p1554
g1511
(g1512
(I0
tS'b'
tRp1555
(I1
(I6
I1
tg1515
I00
(lp1556
I0
aI4
aI3
aI5
aI2
aI1
atbsS'finished'
p1557
I01
sS'nReps'
p1558
I1
sS'nRemaining'
p1559
I-1
sS'trialList'
p1560
(lp1561
g1
(cpsychopy.data
TrialType
p1562
g1509
(dp1563
g43
I0
sg44
g64
sg45
g65
sg46
I7
sg49
I2
sg48
I0
sg47
I5
sg50
I3
stRp1564
ag1
(g1562
g1509
(dp1565
g43
I0
sg44
g65
sg45
g112
sg46
I8
sg49
I2
sg48
I0
sg47
I3
sg50
I3
stRp1566
ag1
(g1562
g1509
(dp1567
g43
I0
sg44
g64
sg45
g86
sg46
I7
sg49
I2
sg48
I0
sg47
I5
sg50
I4
stRp1568
ag1
(g1562
g1509
(dp1569
g43
g64
sg44
g85
sg45
g86
sg46
I8
sg49
I3
sg48
I0
sg47
I2
sg50
I4
stRp1570
ag1
(g1562
g1509
(dp1571
g43
g74
sg44
g75
sg45
g76
sg46
I3
sg49
I3
sg48
I0
sg47
I3
sg50
I2
stRp1572
ag1
(g1562
g1509
(dp1573
g43
g74
sg44
g75
sg45
g95
sg46
I9
sg49
I4
sg48
g76
sg47
I8
sg50
I8
stRp1574
asS'seed'
p1575
NsS'thisIndex'
p1576
I1
sS'thisN'
p1577
I6
sS'thisTrialN'
p1578
I0
sS'nTotal'
p1579
I6
sS'_warnUseOfNext'
p1580
I01
sbag1
(g1497
g3
NtRp1581
(dp1582
g1500
Nsg1501
(lp1583
sg1503
I153435152
sg10
S'block'
p1584
sg6
g1505
sg1506
I1
sg24
I01
sg25
g26
sg1507
g1
(g1508
g1509
(dp1585
g22
g1526
(g1527
g1512
g1528
S'b'
tRp1586
(I1
(I18
I1
tg1530
I00
S'\x00\x00\x80?\x00\x00\x80?\x00\x00\x80?\x00\x00\x80?\x00\x00\x80?\x00\x00\x80?\x00\x00\x80?\x00\x00\x80?\x00\x00\x80?\x00\x00\x80?\x00\x00\x80?\x00\x00\x80?\x00\x00\x80?\x00\x00\x80?\x00\x00\x00\x00\x00\x00\x80?\x00\x00\x80?\x00\x00\x80?'
S'\x00\x00\x00\x00\x00\x00\x00\x00\x00\x00\x00\x00\x00\x00\x00\x00\x00\x00'
Ntbsg19
g1511
(g1512
(I0
tS'b'
tRp1587
(I1
(I18
I1
tg1515
I00
(lp1588
g206
ag231
ag126
ag189
ag198
ag160
ag265
ag256
ag171
ag248
ag273
ag239
ag215
ag180
ag149
ag223
ag281
ag137
atbsg23
g1526
(g1527
g1512
g1528
S'b'
tRp1589
(I1
(I18
I1
tg1530
I00
S':L\xe8@u\x04\xe6?\x87\x19J@\xce\xd2\xd9?\xd9\x85\xba@\xdb`\xa0@c\x07\x80@\xa4\x00m@\x9a\xda\xf3@\xa0\x9f\xd8@RmLA\x10\xed\xa6@\xb0"\x0cA\xe6\xf2NA\x00\x00\x00\x00\x01RHA\xb8\xfe\x1dAM{\rA'
S'\x00\x00\x00\x00\x00\x00\x00\x00\x00\x00\x00\x00\x00\x00\x01\x00\x00\x00'
Ntbsg1525
g1526
(g1527
g1512
g1528
S'b'
tRp1590
(I1
(I18
I1
tg1530
I00
S'\x00\x00\x80?\x00\x00\x80?\x00\x00\x80?\x00\x00\x80?\x00\x00\x80?\x00\x00\x80?\x00\x00\x80?\x00\x00\x80?\x00\x00\x80?\x00\x00\x80?\x00\x00\x80?\x00\x00\x80?\x00\x00\x80?\x00\x00\x80?\x00\x00\x80?\x00\x00\x80?\x00\x00\x80?\x00\x00\x80?'
S'\x00\x00\x00\x00\x00\x00\x00\x00\x00\x00\x00\x00\x00\x00\x00\x00\x00\x00'
Ntbsg21
g1511
(g1512
(I0
tS'b'
tRp1591
(I1
(I18
I1
tg1515
I00
(lp1592
S'1'
aS'8'
aS'4'
aS'1'
aS'3'
aS'9'
aS'1'
aS'6'
aS'6'
aS'8'
aS'8'
aS'1'
aS'6'
aS'7'
aNaS'5'
aS'5'
aS'3'
atbsg1540
g1526
(g1527
g1512
g1528
S'b'
tRp1593
(I1
(I18
I1
tg1530
I00
S'\x00\x00\x00A\x00\x000A\x00\x00\x00\x00\x00\x00\xc0@\x00\x00\xe0@\x00\x00@@\x00\x00pA\x00\x00`A\x00\x00\x80@\x00\x00PA\x00\x00\x80A\x00\x00@A\x00\x00\x10A\x00\x00\xa0@\x00\x00\x00@\x00\x00 A\x00\x00\x88A\x00\x00\x80?'
S'\x00\x00\x00\x00\x00\x00\x00\x00\x00\x00\x00\x00\x00\x00\x00\x00\x00\x00'
Ntbsg20
g1526
(g1527
g1512
g1528
S'b'
tRp1594
(I1
(I18
I1
tg1530
I00
S'\x02\xef\x15@\x94S\x88@Y;\x02AN\x9e\xae?\xfb\xca\x85@\x14j\x82@W\xca\xdf?\xaa\x02\xea?\xb0\xf0w@\xdd\xf5\xd5?\xd5\xb5HA\x97\xce\x96@y&\x1bA%\x85\x8d@:a:ASm\x0fA\xe7\xd9\xf7@\x15\x14\xbc@'
S'\x00\x00\x00\x00\x00\x00\x00\x00\x00\x00\x00\x00\x00\x00\x00\x00\x00\x00'
NtbstRp1595
(dp1596
g1545
(dp1597
g1525
I01
sg21
I00
sg20
I01
sg22
I01
sg19
I00
sg23
I01
sg1540
I01
ssg1547
g1581
sg1548
(lp1598
g1525
ag1540
ag19
ag20
ag21
ag22
ag23
asg1550
(lp1599
I18
aI1
asbsg1552
g1553
sg1554
g1511
(g1512
(I0
tS'b'
tRp1600
(I1
(I18
I1
tg1515
I00
(lp1601
I2
aI17
aI14
aI5
aI8
aI13
aI3
aI4
aI0
aI12
aI15
aI1
aI11
aI9
aI7
aI6
aI10
aI16
atbsg1557
I01
sg1558
I1
sg1559
I-1
sg1560
(lp1602
g1
(g1562
g1509
(dp1603
g51
g204
sVY
I3
sg53
I2
sg54
g205
sg55
I1
sg56
I1
sg52
g191
sVX
I9
sg57
I0
sg58
g148
sg59
I0
sg60
g208
stRp1604
ag1
(g1562
g1509
(dp1605
g51
g229
sVY
I2
sg53
I2
sg54
g230
sg55
I8
sg56
I8
sg52
g152
sVX
I2
sg57
I0
sg58
g162
sg59
I0
sg60
g208
stRp1606
ag1
(g1562
g1509
(dp1607
g51
g124
sVY
I3
sg53
I2
sg54
g125
sg55
I4
sg56
I4
sg52
g127
sVX
I6
sg57
I0
sg58
g129
sg59
I0
sg60
g130
stRp1608
ag1
(g1562
g1509
(dp1609
g51
g187
sVY
I2
sg53
I2
sg54
g188
sg55
I1
sg56
I1
sg52
g148
sVX
I6
sg57
I0
sg58
g191
sg59
I0
sg60
g130
stRp1610
ag1
(g1562
g1509
(dp1611
g51
g196
sVY
I9
sg53
I3
sg54
g197
sg55
I3
sg56
I3
sg52
g138
sVX
I5
sg57
g151
sg58
g127
sg59
I0
sg60
g163
stRp1612
ag1
(g1562
g1509
(dp1613
g51
g158
sVY
I3
sg53
I3
sg54
g159
sg55
I9
sg56
I9
sg52
g140
sVX
I5
sg57
g129
sg58
g162
sg59
I0
sg60
g163
stRp1614
ag1
(g1562
g1509
(dp1615
g51
g263
sVY
I2
sg53
I3
sg54
g264
sg55
I1
sg56
I1
sg52
g148
sVX
I7
sg57
g151
sg58
g191
sg59
I0
sg60
g258
stRp1616
ag1
(g1562
g1509
(dp1617
g51
g254
sVY
I6
sg53
I3
sg54
g255
sg55
I6
sg56
I6
sg52
g162
sVX
I6
sg57
g140
sg58
g191
sg59
I0
sg60
g258
stRp1618
ag1
(g1562
g1509
(dp1619
g51
g168
sVY
I2
sg53
I3
sg54
g169
sg55
I6
sg56
I6
sg52
g151
sVX
I2
sg57
g170
sg58
g152
sg59
I0
sg60
g173
stRp1620
ag1
(g1562
g1509
(dp1621
g51
g246
sVY
I6
sg53
I3
sg54
g247
sg55
I8
sg56
I8
sg52
g191
sVX
I2
sg57
g162
sg58
g152
sg59
I0
sg60
g173
stRp1622
ag1
(g1562
g1509
(dp1623
g51
g271
sVY
I4
sg53
I4
sg54
g272
sg55
I8
sg56
I8
sg52
g152
sVX
I3
sg57
g138
sg58
g127
sg59
g151
sg60
g241
stRp1624
ag1
(g1562
g1509
(dp1625
g51
g237
sVY
I8
sg53
I4
sg54
g238
sg55
I1
sg56
I1
sg52
g138
sVX
I2
sg57
g151
sg58
g127
sg59
g152
sg60
g241
stRp1626
ag1
(g1562
g1509
(dp1627
g51
g213
sVY
I5
sg53
I4
sg54
g214
sg55
I6
sg56
I6
sg52
g148
sVX
I4
sg57
g138
sg58
g152
sg59
g129
sg60
g182
stRp1628
ag1
(g1562
g1509
(dp1629
g51
g178
sVY
I3
sg53
I4
sg54
g179
sg55
I7
sg56
I7
sg52
g170
sVX
I2
sg57
g140
sg58
g129
sg59
g138
sg60
g182
stRp1630
ag1
(g1562
g1509
(dp1631
g51
g146
sVY
I3
sg53
I4
sg54
g147
sg55
I5
sg56
I5
sg52
g138
sVX
I3
sg57
g148
sg58
g151
sg59
g152
sg60
g153
stRp1632
ag1
(g1562
g1509
(dp1633
g51
g221
sVY
I4
sg53
I4
sg54
g222
sg55
I5
sg56
I5
sg52
g151
sVX
I8
sg57
g162
sg58
g191
sg59
g140
sg60
g153
stRp1634
ag1
(g1562
g1509
(dp1635
g51
g279
sVY
I2
sg53
I4
sg54
g280
sg55
I5
sg56
I5
sg52
g138
sVX
I6
sg57
g140
sg58
g151
sg59
g127
sg60
g141
stRp1636
ag1
(g1562
g1509
(dp1637
g51
g135
sVY
I2
sg53
I4
sg54
g136
sg55
I3
sg56
I3
sg52
g138
sVX
I3
sg57
g129
sg58
g140
sg59
g127
sg60
g141
stRp1638
asg1575
Nsg1576
I16
sg1577
I18
sg1578
I0
sg1579
I18
sg1580
I01
sbag1
(g1497
g3
NtRp1639
(dp1640
g1500
Nsg1501
(lp1641
sg1503
I153435152
sg10
g1584
sg6
g1505
sg1506
I1
sg24
I01
sg25
g26
sg1507
g1
(g1508
g1509
(dp1642
g22
g1526
(g1527
g1512
g1528
S'b'
tRp1643
(I1
(I18
I1
tg1530
I00
S'\x00\x00\x80?\x00\x00\x80?\x00\x00\x80?\x00\x00\x80?\x00\x00\x80?\x00\x00\x80?\x00\x00\x80?\x00\x00\x80?\x00\x00\x80?\x00\x00\x80?\x00\x00\x80?\x00\x00\x80?\x00\x00\x00\x00\x00\x00\x80?\x00\x00\x80?\x00\x00\x80?\x00\x00\x80?\x00\x00\x80?'
S'\x00\x00\x00\x00\x00\x00\x00\x00\x00\x00\x00\x00\x00\x00\x00\x00\x00\x00'
Ntbsg19
g1511
(g1512
(I0
tS'b'
tRp1644
(I1
(I18
I1
tg1515
I00
(lp1645
g386
ag421
ag352
ag361
ag395
ag446
ag343
ag334
ag369
ag294
ag438
ag312
ag325
ag454
ag413
ag377
ag430
ag404
atbsg23
g1526
(g1527
g1512
g1528
S'b'
tRp1646
(I1
(I18
I1
tg1530
I00
S'\xd0\xf8=@u\xa6\r@=\xe6E@\x02\xb1\x8d@\xe1k\xa1@\xb99I@\x10\xf4Q@\xe7\xedG@S\\w@`~]@\xbb\x9e\xd1@\x085\xeb@\x00\x00\x00\x00\xfft\xbb@\x9d\x92\xb9@\xb5K\xf4@\xf1\x08\xd1@\xe7s\xcd@'
S'\x00\x00\x00\x00\x00\x00\x00\x00\x00\x00\x00\x00\x01\x00\x00\x00\x00\x00'
Ntbsg1525
g1526
(g1527
g1512
g1528
S'b'
tRp1647
(I1
(I18
I1
tg1530
I00
S'\x00\x00\x80?\x00\x00\x80?\x00\x00\x80?\x00\x00\x80?\x00\x00\x80?\x00\x00\x80?\x00\x00\x80?\x00\x00\x80?\x00\x00\x80?\x00\x00\x80?\x00\x00\x80?\x00\x00\x80?\x00\x00\x80?\x00\x00\x80?\x00\x00\x80?\x00\x00\x80?\x00\x00\x80?\x00\x00\x80?'
S'\x00\x00\x00\x00\x00\x00\x00\x00\x00\x00\x00\x00\x00\x00\x00\x00\x00\x00'
Ntbsg21
g1511
(g1512
(I0
tS'b'
tRp1648
(I1
(I18
I1
tg1515
I00
(lp1649
S'7'
aS'2'
aS'8'
aS'6'
aS'7'
aS'8'
aS'2'
aS'5'
aS'6'
aS'5'
aS'9'
aS'8'
aNaS'3'
aS'5'
aS'8'
aS'3'
aS'1'
atbsg1540
g1526
(g1527
g1512
g1528
S'b'
tRp1650
(I1
(I18
I1
tg1530
I00
S'\x00\x00\x10A\x00\x00PA\x00\x00\xa0@\x00\x00\xc0@\x00\x00 A\x00\x00\x80A\x00\x00\x80@\x00\x00@@\x00\x00\xe0@\x00\x00\x00\x00\x00\x00pA\x00\x00\x80?\x00\x00\x00@\x00\x00\x88A\x00\x00@A\x00\x00\x00A\x00\x00`A\x00\x000A'
S'\x00\x00\x00\x00\x00\x00\x00\x00\x00\x00\x00\x00\x00\x00\x00\x00\x00\x00'
Ntbsg20
g1526
(g1527
g1512
g1528
S'b'
tRp1651
(I1
(I18
I1
tg1530
I00
S'P\x7f\xbc?\xf0\xd1\x87?\xc6\xab\x84@f.\x87?U>\xa8?\xec\xe8\x1d@d+j@\x83X\x1f@\xbe\xe6\xa7?|@QA\x19\x7f\xa0@x%yA\xe6\x17)A#,\xc8@\x04`\x03A\x13\xb2\x96@\x80\xa9\xf0@\xb3\xb3\x08@'
S'\x00\x00\x00\x00\x00\x00\x00\x00\x00\x00\x00\x00\x00\x00\x00\x00\x00\x00'
NtbstRp1652
(dp1653
g1545
(dp1654
g1525
I01
sg21
I00
sg20
I01
sg22
I01
sg19
I00
sg23
I01
sg1540
I01
ssg1547
g1639
sg1548
(lp1655
g1525
ag1540
ag19
ag20
ag21
ag22
ag23
asg1550
(lp1656
I18
aI1
asbsg1552
g1553
sg1554
g1511
(g1512
(I0
tS'b'
tRp1657
(I1
(I18
I1
tg1515
I00
(lp1658
I9
aI11
aI12
aI7
aI6
aI2
aI3
aI8
aI15
aI0
aI4
aI17
aI14
aI1
aI16
aI10
aI5
aI13
atbsg1557
I01
sg1558
I1
sg1559
I-1
sg1560
(lp1659
g1
(g1562
g1509
(dp1660
g287
g384
sVY
I5
sg289
I2
sg290
g385
sg298
I7
sg295
I7
sg296
g316
sVX
I3
sg292
I0
sg300
g315
sg302
I0
sg303
g388
stRp1661
ag1
(g1562
g1509
(dp1662
g287
g419
sVY
I4
sg289
I2
sg290
g420
sg298
I2
sg295
I2
sg296
g316
sVX
I9
sg292
I0
sg300
g423
sg302
I0
sg303
g388
stRp1663
ag1
(g1562
g1509
(dp1664
g287
g350
sVY
I3
sg289
I2
sg290
g351
sg298
I8
sg295
I8
sg296
g293
sVX
I3
sg292
I0
sg300
g316
sg302
I0
sg303
g354
stRp1665
ag1
(g1562
g1509
(dp1666
g287
g359
sVY
I8
sg289
I2
sg290
g360
sg298
I6
sg295
I6
sg296
g315
sVX
I4
sg292
I0
sg300
g301
sg302
I0
sg303
g354
stRp1667
ag1
(g1562
g1509
(dp1668
g287
g393
sVY
I5
sg289
I3
sg290
g394
sg298
I7
sg295
I7
sg296
g311
sVX
I2
sg292
g316
sg300
g315
sg302
I0
sg303
g397
stRp1669
ag1
(g1562
g1509
(dp1670
g287
g444
sVY
I2
sg289
I3
sg290
g445
sg298
I8
sg295
I8
sg296
g313
sVX
I4
sg292
g301
sg300
g315
sg302
I0
sg303
g397
stRp1671
ag1
(g1562
g1509
(dp1672
g287
g341
sVY
I3
sg289
I3
sg290
g342
sg298
I2
sg295
I2
sg296
g344
sVX
I3
sg292
g297
sg300
g311
sg302
I0
sg303
g336
stRp1673
ag1
(g1562
g1509
(dp1674
g287
g332
sVY
I3
sg289
I3
sg290
g333
sg298
I5
sg295
I5
sg296
g315
sVX
I2
sg292
g301
sg300
g297
sg302
I0
sg303
g336
stRp1675
ag1
(g1562
g1509
(dp1676
g287
g367
sVY
I4
sg289
I3
sg290
g368
sg298
I6
sg295
I6
sg296
g324
sVX
I5
sg292
g315
sg300
g311
sg302
I0
sg303
g304
stRp1677
ag1
(g1562
g1509
(dp1678
g287
g288
sVY
I3
sg289
I3
sg290
g291
sg298
I5
sg295
I5
sg296
g297
sVX
I3
sg292
g293
sg300
g301
sg302
I0
sg303
g304
stRp1679
ag1
(g1562
g1509
(dp1680
g287
g436
sVY
I4
sg289
I4
sg290
g437
sg298
I9
sg295
I9
sg296
g316
sVX
I9
sg292
g324
sg300
g315
sg302
g311
sg303
g317
stRp1681
ag1
(g1562
g1509
(dp1682
g287
g309
sVY
I2
sg289
I4
sg290
g310
sg298
I8
sg295
I8
sg296
g313
sVX
I2
sg292
g311
sg300
g315
sg302
g316
sg303
g317
stRp1683
ag1
(g1562
g1509
(dp1684
g287
g322
sVY
I6
sg289
I4
sg290
g323
sg298
I6
sg295
I6
sg296
g315
sVX
I6
sg292
g324
sg300
g316
sg302
g301
sg303
g327
stRp1685
ag1
(g1562
g1509
(dp1686
g287
g452
sVY
I2
sg289
I4
sg290
g453
sg298
I3
sg295
I3
sg296
g344
sVX
I9
sg292
g311
sg300
g316
sg302
g324
sg303
g327
stRp1687
ag1
(g1562
g1509
(dp1688
g287
g411
sVY
I3
sg289
I4
sg290
g412
sg298
I5
sg295
I5
sg296
g311
sVX
I3
sg292
g293
sg300
g316
sg302
g324
sg303
g379
stRp1689
ag1
(g1562
g1509
(dp1690
g287
g375
sVY
I3
sg289
I4
sg290
g376
sg298
I8
sg295
I8
sg296
g313
sVX
I3
sg292
g344
sg300
g316
sg302
g311
sg303
g379
stRp1691
ag1
(g1562
g1509
(dp1692
g287
g428
sVY
I4
sg289
I4
sg290
g429
sg298
I3
sg295
I3
sg296
g301
sVX
I3
sg292
g324
sg300
g297
sg302
g293
sg303
g406
stRp1693
ag1
(g1562
g1509
(dp1694
g287
g402
sVY
I2
sg289
I4
sg290
g403
sg298
I1
sg295
I1
sg296
g301
sVX
I7
sg292
g297
sg300
g324
sg302
g344
sg303
g406
stRp1695
asg1575
Nsg1576
I13
sg1577
I18
sg1578
I0
sg1579
I18
sg1580
I01
sbag1
(g1497
g3
NtRp1696
(dp1697
g1500
Nsg1501
(lp1698
sg1503
I153435152
sg10
g1584
sg6
g1505
sg1506
I1
sg24
I01
sg25
g26
sg1507
g1
(g1508
g1509
(dp1699
g22
g1526
(g1527
g1512
g1528
S'b'
tRp1700
(I1
(I18
I1
tg1530
I00
S'\x00\x00\x80?\x00\x00\x80?\x00\x00\x80?\x00\x00\x80?\x00\x00\x80?\x00\x00\x80?\x00\x00\x80?\x00\x00\x80?\x00\x00\x00\x00\x00\x00\x80?\x00\x00\x80?\x00\x00\x80?\x00\x00\x80?\x00\x00\x80?\x00\x00\x80?\x00\x00\x80?\x00\x00\x80?\x00\x00\x80?'
S'\x00\x00\x00\x00\x00\x00\x00\x00\x00\x00\x00\x00\x00\x00\x00\x00\x00\x00'
Ntbsg19
g1511
(g1512
(I0
tS'b'
tRp1701
(I1
(I18
I1
tg1515
I00
(lp1702
g544
ag594
ag561
ag578
ag467
ag602
ag535
ag570
ag553
ag526
ag485
ag517
ag619
ag610
ag627
ag496
ag586
ag506
atbsg23
g1526
(g1527
g1512
g1528
S'b'
tRp1703
(I1
(I18
I1
tg1530
I00
S'\xc6D\x02@\xa0l\x9f@=o$@Z\xca\x9e@v\xeb\x9a@`\xc8\xc5@\x98L\xc2@\xf4\xc6\x1bA\x00\x00\x00\x00~\x99Z@\xb3i\xf9@P\\VA>\xb4\xc2@L\x05\x1eA\xb6\xdf@AL\xb4NAz\x1b\x0bA\xebe\xb4@'
S'\x00\x00\x00\x00\x00\x00\x00\x00\x01\x00\x00\x00\x00\x00\x00\x00\x00\x00'
Ntbsg1525
g1526
(g1527
g1512
g1528
S'b'
tRp1704
(I1
(I18
I1
tg1530
I00
S'\x00\x00\x80?\x00\x00\x80?\x00\x00\x80?\x00\x00\x80?\x00\x00\x80?\x00\x00\x80?\x00\x00\x80?\x00\x00\x80?\x00\x00\x80?\x00\x00\x80?\x00\x00\x80?\x00\x00\x80?\x00\x00\x80?\x00\x00\x80?\x00\x00\x80?\x00\x00\x80?\x00\x00\x80?\x00\x00\x80?'
S'\x00\x00\x00\x00\x00\x00\x00\x00\x00\x00\x00\x00\x00\x00\x00\x00\x00\x00'
Ntbsg21
g1511
(g1512
(I0
tS'b'
tRp1705
(I1
(I18
I1
tg1515
I00
(lp1706
S'2'
aS'3'
aS'1'
aS'6'
aS'9'
aS'4'
aS'6'
aS'3'
aNaS'1'
aS'8'
aS'8'
aS'8'
aS'2'
aS'8'
aS'1'
aS'6'
aS'6'
atbsg1540
g1526
(g1527
g1512
g1528
S'b'
tRp1707
(I1
(I18
I1
tg1530
I00
S'\x00\x00\xe0@\x00\x00PA\x00\x00\x10A\x00\x000A\x00\x00\x00\x00\x00\x00`A\x00\x00\xc0@\x00\x00 A\x00\x00\x00A\x00\x00\xa0@\x00\x00\x80?\x00\x00\x80@\x00\x00\x80A\x00\x00pA\x00\x00\x88A\x00\x00\x00@\x00\x00@A\x00\x00@@'
S'\x00\x00\x00\x00\x00\x00\x00\x00\x00\x00\x00\x00\x00\x00\x00\x00\x00\x00'
Ntbsg20
g1526
(g1527
g1512
g1528
S'b'
tRp1708
(I1
(I18
I1
tg1530
I00
S'\xbb\xc4\x83?\xfa9s?&\xb5\xd3?\xcbs\xa2?\x97\xc7-@\xca\xd6@@\x13\xd0\x95?\xc0-\xa2?\xc1p-@GS\x86@\xfe~\x93@\xc6\x9bEA\x1a\xb2\x0eA\xf7\xb9\xaf@\xb1\x96\x94@)*\xc3@>\xbd\xec@\xce\xb0\xad@'
S'\x00\x00\x00\x00\x00\x00\x00\x00\x00\x00\x00\x00\x00\x00\x00\x00\x00\x00'
NtbstRp1709
(dp1710
g1545
(dp1711
g1525
I01
sg21
I00
sg20
I01
sg22
I01
sg19
I00
sg23
I01
sg1540
I01
ssg1547
g1696
sg1548
(lp1712
g1525
ag1540
ag19
ag20
ag21
ag22
ag23
asg1550
(lp1713
I18
aI1
asbsg1552
g1553
sg1554
g1511
(g1512
(I0
tS'b'
tRp1714
(I1
(I18
I1
tg1515
I00
(lp1715
I4
aI10
aI15
aI17
aI11
aI9
aI6
aI0
aI8
aI2
aI7
aI3
aI16
aI1
aI5
aI13
aI12
aI14
atbsg1557
I01
sg1558
I1
sg1559
I-1
sg1560
(lp1716
g1
(g1562
g1509
(dp1717
g460
g542
sVY
I2
sg462
I2
sg463
g543
sg471
I2
sg468
I2
sg469
g497
sVX
I3
sg465
I0
sg473
g495
sg475
I0
sg476
g546
stRp1718
ag1
(g1562
g1509
(dp1719
g460
g592
sVY
I2
sg462
I2
sg463
g593
sg471
I3
sg468
I3
sg469
g484
sVX
I6
sg465
I0
sg473
g519
sg475
I0
sg476
g546
stRp1720
ag1
(g1562
g1509
(dp1721
g460
g559
sVY
I4
sg462
I2
sg463
g560
sg471
I1
sg468
I1
sg469
g495
sVX
I8
sg465
I0
sg473
g484
sg475
I0
sg476
g563
stRp1722
ag1
(g1562
g1509
(dp1723
g460
g576
sVY
I2
sg462
I2
sg463
g577
sg471
I6
sg468
I6
sg469
g474
sVX
I3
sg465
I0
sg473
g497
sg475
I0
sg476
g563
stRp1724
ag1
(g1562
g1509
(dp1725
g460
g461
sVY
I8
sg462
I3
sg463
g464
sg471
I9
sg468
I9
sg469
g470
sVX
I6
sg465
g466
sg473
g474
sg475
I0
sg476
g477
stRp1726
ag1
(g1562
g1509
(dp1727
g460
g600
sVY
I2
sg462
I3
sg463
g601
sg471
I4
sg468
I4
sg469
g484
sVX
I3
sg465
g516
sg473
g495
sg475
I0
sg476
g477
stRp1728
ag1
(g1562
g1509
(dp1729
g460
g533
sVY
I3
sg462
I3
sg463
g534
sg471
I6
sg468
I6
sg469
g474
sVX
I3
sg465
g516
sg473
g470
sg475
I0
sg476
g537
stRp1730
ag1
(g1562
g1509
(dp1731
g460
g568
sVY
I2
sg462
I3
sg463
g569
sg471
I3
sg468
I3
sg469
g519
sVX
I8
sg465
g470
sg473
g497
sg475
I0
sg476
g537
stRp1732
ag1
(g1562
g1509
(dp1733
g460
g551
sVY
I3
sg462
I3
sg463
g552
sg471
I7
sg468
I7
sg469
g516
sVX
I6
sg465
g495
sg473
g497
sg475
I0
sg476
g528
stRp1734
ag1
(g1562
g1509
(dp1735
g460
g524
sVY
I3
sg462
I3
sg463
g525
sg471
I1
sg468
I1
sg469
g470
sVX
I3
sg465
g474
sg473
g466
sg475
I0
sg476
g528
stRp1736
ag1
(g1562
g1509
(dp1737
g460
g482
sVY
I6
sg462
I4
sg463
g483
sg471
I8
sg468
I8
sg469
g486
sVX
I6
sg465
g484
sg473
g474
sg475
g466
sg476
g488
stRp1738
ag1
(g1562
g1509
(dp1739
g460
g514
sVY
I9
sg462
I4
sg463
g515
sg471
I8
sg468
I8
sg469
g484
sVX
I3
sg465
g516
sg473
g519
sg475
g486
sg476
g488
stRp1740
ag1
(g1562
g1509
(dp1741
g460
g617
sVY
I2
sg462
I4
sg463
g618
sg471
I8
sg468
I8
sg469
g474
sVX
I3
sg465
g497
sg473
g486
sg475
g466
sg476
g612
stRp1742
ag1
(g1562
g1509
(dp1743
g460
g608
sVY
I3
sg462
I4
sg463
g609
sg471
I2
sg468
I2
sg469
g508
sVX
I2
sg465
g486
sg473
g466
sg475
g484
sg476
g612
stRp1744
ag1
(g1562
g1509
(dp1745
g460
g625
sVY
I7
sg462
I4
sg463
g626
sg471
I8
sg468
I8
sg469
g486
sVX
I6
sg465
g474
sg473
g466
sg475
g484
sg476
g499
stRp1746
ag1
(g1562
g1509
(dp1747
g460
g493
sVY
I9
sg462
I4
sg463
g494
sg471
I1
sg468
I1
sg469
g497
sVX
I9
sg465
g495
sg473
g466
sg475
g486
sg476
g499
stRp1748
ag1
(g1562
g1509
(dp1749
g460
g584
sVY
I3
sg462
I4
sg463
g585
sg471
I6
sg468
I6
sg469
g516
sVX
I9
sg465
g497
sg473
g470
sg475
g495
sg476
g509
stRp1750
ag1
(g1562
g1509
(dp1751
g460
g504
sVY
I4
sg462
I4
sg463
g505
sg471
I6
sg468
I6
sg469
g486
sVX
I2
sg465
g497
sg473
g466
sg475
g508
sg476
g509
stRp1752
asg1575
Nsg1576
I14
sg1577
I18
sg1578
I0
sg1579
I18
sg1580
I01
sbag1
(g1497
g3
NtRp1753
(dp1754
g1500
Nsg1501
(lp1755
sg1503
I153435152
sg10
g1584
sg6
g1505
sg1506
I1
sg24
I01
sg25
g26
sg1507
g1
(g1508
g1509
(dp1756
g22
g1526
(g1527
g1512
g1528
S'b'
tRp1757
(I1
(I18
I1
tg1530
I00
S'\x00\x00\x80?\x00\x00\x80?\x00\x00\x80?\x00\x00\x80?\x00\x00\x80?\x00\x00\x80?\x00\x00\x80?\x00\x00\x80?\x00\x00\x80?\x00\x00\x80?\x00\x00\x80?\x00\x00\x80?\x00\x00\x80?\x00\x00\x80?\x00\x00\x80?\x00\x00\x80?\x00\x00\x80?\x00\x00\x00\x00'
S'\x00\x00\x00\x00\x00\x00\x00\x00\x00\x00\x00\x00\x00\x00\x00\x00\x00\x00'
Ntbsg19
g1511
(g1512
(I0
tS'b'
tRp1758
(I1
(I18
I1
tg1515
I00
(lp1759
g679
ag715
ag741
ag723
ag658
ag749
ag706
ag733
ag688
ag669
ag783
ag792
ag800
ag766
ag775
ag697
ag640
ag757
atbsg23
g1526
(g1527
g1512
g1528
S'b'
tRp1760
(I1
(I18
I1
tg1530
I00
S"(D'@\x80\xd9d@\xbe\x81\x0f@\xdc\xc1\x97@?\xa9\xff@\xd3\xc9\xc2@&8\x07A=z\xf6@HK\x9c@\x1a\xb92@\x85t\xba@B\xb7\xaf@\xe1\xfd\xcf@\xb1D*Aw\xca\xc1@YI\xc3@\x8c</A\x00\x00\x00\x00"
S'\x00\x00\x00\x00\x00\x00\x00\x00\x00\x00\x00\x00\x00\x00\x00\x00\x00\x01'
Ntbsg1525
g1526
(g1527
g1512
g1528
S'b'
tRp1761
(I1
(I18
I1
tg1530
I00
S'\x00\x00\x80?\x00\x00\x80?\x00\x00\x80?\x00\x00\x80?\x00\x00\x80?\x00\x00\x80?\x00\x00\x80?\x00\x00\x80?\x00\x00\x80?\x00\x00\x80?\x00\x00\x80?\x00\x00\x80?\x00\x00\x80?\x00\x00\x80?\x00\x00\x80?\x00\x00\x80?\x00\x00\x80?\x00\x00\x80?'
S'\x00\x00\x00\x00\x00\x00\x00\x00\x00\x00\x00\x00\x00\x00\x00\x00\x00\x00'
Ntbsg21
g1511
(g1512
(I0
tS'b'
tRp1762
(I1
(I18
I1
tg1515
I00
(lp1763
S'4'
aS'6'
aS'3'
aS'1'
aS'9'
aS'5'
aS'5'
aS'5'
aS'8'
aS'3'
aS'3'
aS'9'
aS'4'
aS'3'
aS'8'
aS'6'
aS'1'
aNatbsg1540
g1526
(g1527
g1512
g1528
S'b'
tRp1764
(I1
(I18
I1
tg1530
I00
S'\x00\x00@@\x00\x00\xe0@\x00\x00 A\x00\x00\x00A\x00\x00\x80?\x00\x000A\x00\x00\xc0@\x00\x00\x10A\x00\x00\x80@\x00\x00\x00@\x00\x00pA\x00\x00\x80A\x00\x00\x88A\x00\x00PA\x00\x00`A\x00\x00\xa0@\x00\x00\x00\x00\x00\x00@A'
S'\x00\x00\x00\x00\x00\x00\x00\x00\x00\x00\x00\x00\x00\x00\x00\x00\x00\x00'
Ntbsg20
g1526
(g1527
g1512
g1528
S'b'
tRp1765
(I1
(I18
I1
tg1530
I00
S'\x06\xb2D?\x1e"%?\x08\xfdN@\xf0s8?\x92H*@\xc8\xa1\xb0?\xc1aj?\xd2\xef\xaa?\xdc\xb0\xae?Nv\xf0?^Y\xb8@\x1d$G@\x04\x0fO@\xe7YEA\xf1\xcc\x8a@\x02\x00\x8f@\xdeL$AU\xc1\xb2?'
S'\x00\x00\x00\x00\x00\x00\x00\x00\x00\x00\x00\x00\x00\x00\x00\x00\x00\x00'
NtbstRp1766
(dp1767
g1545
(dp1768
g1525
I01
sg21
I00
sg20
I01
sg22
I01
sg19
I00
sg23
I01
sg1540
I01
ssg1547
g1753
sg1548
(lp1769
g1525
ag1540
ag19
ag20
ag21
ag22
ag23
asg1550
(lp1770
I18
aI1
asbsg1552
g1553
sg1554
g1511
(g1512
(I0
tS'b'
tRp1771
(I1
(I18
I1
tg1515
I00
(lp1772
I16
aI4
aI9
aI0
aI8
aI15
aI6
aI1
aI3
aI7
aI2
aI5
aI17
aI13
aI14
aI10
aI11
aI12
atbsg1557
I01
sg1558
I1
sg1559
I-1
sg1560
(lp1773
g1
(g1562
g1509
(dp1774
g633
g677
sVY
I2
sg635
I2
sg636
g678
sg644
I4
sg641
I4
sg642
g659
sVX
I3
sg638
I0
sg646
g661
sg648
I0
sg650
g681
stRp1775
ag1
(g1562
g1509
(dp1776
g633
g713
sVY
I2
sg635
I2
sg636
g714
sg644
I6
sg641
I6
sg642
g643
sVX
I2
sg638
I0
sg646
g661
sg648
I0
sg650
g681
stRp1777
ag1
(g1562
g1509
(dp1778
g633
g739
sVY
I5
sg635
I2
sg636
g740
sg644
I3
sg641
I3
sg642
g696
sVX
I4
sg638
I0
sg646
g647
sg648
I0
sg650
g726
stRp1779
ag1
(g1562
g1509
(dp1780
g633
g721
sVY
I2
sg635
I2
sg636
g722
sg644
I1
sg641
I1
sg642
g724
sVX
I5
sg638
I0
sg646
g647
sg648
I0
sg650
g726
stRp1781
ag1
(g1562
g1509
(dp1782
g633
g656
sVY
I3
sg635
I3
sg636
g657
sg644
I9
sg641
I9
sg642
g659
sVX
I8
sg638
g639
sg646
g661
sg648
I0
sg650
g662
stRp1783
ag1
(g1562
g1509
(dp1784
g633
g747
sVY
I5
sg635
I3
sg636
g748
sg644
I5
sg641
I5
sg642
g647
sVX
I6
sg638
g639
sg646
g661
sg648
I0
sg650
g662
stRp1785
ag1
(g1562
g1509
(dp1786
g633
g704
sVY
I7
sg635
I3
sg636
g705
sg644
I5
sg641
I5
sg642
g696
sVX
I7
sg638
g643
sg646
g647
sg648
I0
sg650
g708
stRp1787
ag1
(g1562
g1509
(dp1788
g633
g731
sVY
I5
sg635
I3
sg636
g732
sg644
I5
sg641
I5
sg642
g661
sVX
I4
sg638
g659
sg646
g647
sg648
I0
sg650
g708
stRp1789
ag1
(g1562
g1509
(dp1790
g633
g686
sVY
I5
sg635
I3
sg636
g687
sg644
I8
sg641
I8
sg642
g659
sVX
I5
sg638
g661
sg646
g647
sg648
I0
sg650
g672
stRp1791
ag1
(g1562
g1509
(dp1792
g633
g667
sVY
I2
sg635
I3
sg636
g668
sg644
I3
sg641
I3
sg642
g639
sVX
I4
sg638
g649
sg646
g671
sg648
I0
sg650
g672
stRp1793
ag1
(g1562
g1509
(dp1794
g633
g781
sVY
I5
sg635
I4
sg636
g782
sg644
I3
sg641
I3
sg642
g639
sVX
I5
sg638
g643
sg646
g724
sg648
g671
sg650
g785
stRp1795
ag1
(g1562
g1509
(dp1796
g633
g790
sVY
I3
sg635
I4
sg636
g791
sg644
I9
sg641
I9
sg642
g643
sVX
I3
sg638
g647
sg646
g661
sg648
g765
sg650
g785
stRp1797
ag1
(g1562
g1509
(dp1798
g633
g798
sVY
I6
sg635
I4
sg636
g799
sg644
I4
sg641
I4
sg642
g649
sVX
I3
sg638
g671
sg646
g643
sg648
g765
sg650
g768
stRp1799
ag1
(g1562
g1509
(dp1800
g633
g763
sVY
I3
sg635
I4
sg636
g764
sg644
I3
sg641
I3
sg642
g724
sVX
I3
sg638
g765
sg646
g671
sg648
g659
sg650
g768
stRp1801
ag1
(g1562
g1509
(dp1802
g633
g773
sVY
I2
sg635
I4
sg636
g774
sg644
I8
sg641
I8
sg642
g765
sVX
I9
sg638
g696
sg646
g647
sg648
g643
sg650
g699
stRp1803
ag1
(g1562
g1509
(dp1804
g633
g694
sVY
I3
sg635
I4
sg636
g695
sg644
I6
sg641
I6
sg642
g639
sVX
I2
sg638
g696
sg646
g671
sg648
g659
sg650
g699
stRp1805
ag1
(g1562
g1509
(dp1806
g633
g634
sVY
I2
sg635
I4
sg636
g637
sg644
I1
sg641
I1
sg642
g643
sVX
I8
sg638
g639
sg646
g647
sg648
g649
sg650
g651
stRp1807
ag1
(g1562
g1509
(dp1808
g633
g755
sVY
I2
sg635
I4
sg636
g756
sg644
I6
sg641
I6
sg642
g659
sVX
I3
sg638
g639
sg646
g671
sg648
g661
sg650
g651
stRp1809
asg1575
Nsg1576
I12
sg1577
I18
sg1578
I0
sg1579
I18
sg1580
I01
sbag1
(g1497
g3
NtRp1810
(dp1811
g1500
Nsg1501
(lp1812
sg1503
I153435152
sg10
g1584
sg6
g1505
sg1506
I1
sg24
I01
sg25
g26
sg1507
g1
(g1508
g1509
(dp1813
g22
g1526
(g1527
g1512
g1528
S'b'
tRp1814
(I1
(I18
I1
tg1530
I00
S'\x00\x00\x80?\x00\x00\x80?\x00\x00\x80?\x00\x00\x80?\x00\x00\x80?\x00\x00\x80?\x00\x00\x80?\x00\x00\x80?\x00\x00\x80?\x00\x00\x80?\x00\x00\x80?\x00\x00\x80?\x00\x00\x80?\x00\x00\x80?\x00\x00\x80?\x00\x00\x80?\x00\x00\x80?\x00\x00\x00\x00'
S'\x00\x00\x00\x00\x00\x00\x00\x00\x00\x00\x00\x00\x00\x00\x00\x00\x00\x00'
Ntbsg19
g1511
(g1512
(I0
tS'b'
tRp1815
(I1
(I18
I1
tg1515
I00
(lp1816
g880
ag830
ag888
ag906
ag813
ag871
ag974
ag965
ag940
ag957
ag840
ag851
ag931
ag859
ag922
ag949
ag914
ag897
atbsg23
g1526
(g1527
g1512
g1528
S'b'
tRp1817
(I1
(I18
I1
tg1530
I00
S"]D\xfd?\xad'\xbb?\xe0\x80\\@\xa0\xfa\x8c@\x0c\xc8b@<Y\x99@\xfdH&@f\x9d\x0f@p\x87V@\xfa\x1e#@\xd6\xac\x03A\x81\x97\xb8@\x80\xef\xe4@\xf3\x9b\x01Ar\xe6\xdc@*\xa7JAFg\x0eAr\x01\x99A"
S'\x00\x00\x00\x00\x00\x00\x00\x00\x00\x00\x00\x00\x00\x00\x00\x00\x00\x00'
Ntbsg1525
g1526
(g1527
g1512
g1528
S'b'
tRp1818
(I1
(I18
I1
tg1530
I00
S'\x00\x00\x80?\x00\x00\x80?\x00\x00\x80?\x00\x00\x80?\x00\x00\x80?\x00\x00\x80?\x00\x00\x80?\x00\x00\x80?\x00\x00\x80?\x00\x00\x80?\x00\x00\x80?\x00\x00\x80?\x00\x00\x80?\x00\x00\x80?\x00\x00\x80?\x00\x00\x80?\x00\x00\x80?\x00\x00\x80?'
S'\x00\x00\x00\x00\x00\x00\x00\x00\x00\x00\x00\x00\x00\x00\x00\x00\x00\x00'
Ntbsg21
g1511
(g1512
(I0
tS'b'
tRp1819
(I1
(I18
I1
tg1515
I00
(lp1820
S'8'
aS'2'
aS'2'
aS'8'
aS'1'
aS'2'
aS'1'
aS'2'
aS'8'
aS'6'
aS'7'
aS'1'
aS'9'
aS'7'
aS'3'
aS'6'
aS'5'
aS'3'
atbsg1540
g1526
(g1527
g1512
g1528
S'b'
tRp1821
(I1
(I18
I1
tg1530
I00
S'\x00\x00\xc0@\x00\x00\x80?\x00\x00\xe0@\x00\x00\x10A\x00\x00\x00\x00\x00\x00\xa0@\x00\x00\x88A\x00\x00\x80A\x00\x00PA\x00\x00pA\x00\x00\x00@\x00\x00@@\x00\x00@A\x00\x00\x80@\x00\x000A\x00\x00`A\x00\x00 A\x00\x00\x00A'
S'\x00\x00\x00\x00\x00\x00\x00\x00\x00\x00\x00\x00\x00\x00\x00\x00\x00\x00'
Ntbsg20
g1526
(g1527
g1512
g1528
S'b'
tRp1822
(I1
(I18
I1
tg1530
I00
S'\xb5\xa8r?[\x81\x93?M \xb0?\x0eX\x96?\x83Ux@\xb4?\xf4?\xec$\x90@\x8fr\x8a@\xc1\x928@\xb4r\xe3?\xfc4\xac@\xd8\xef\x10Ad\xb0\x19A\xaaAU@\xe8\x83\xe4@\x88\xf7\xe3@\xc6\xb3\x0fAL\xee\xe3@'
S'\x00\x00\x00\x00\x00\x00\x00\x00\x00\x00\x00\x00\x00\x00\x00\x00\x00\x00'
NtbstRp1823
(dp1824
g1545
(dp1825
g1525
I01
sg21
I00
sg20
I01
sg22
I01
sg19
I00
sg23
I01
sg1540
I01
ssg1547
g1810
sg1548
(lp1826
g1525
ag1540
ag19
ag20
ag21
ag22
ag23
asg1550
(lp1827
I18
aI1
asbsg1552
g1553
sg1554
g1511
(g1512
(I0
tS'b'
tRp1828
(I1
(I18
I1
tg1515
I00
(lp1829
I4
aI1
aI10
aI11
aI13
aI5
aI0
aI2
aI17
aI3
aI16
aI14
aI12
aI8
aI15
aI9
aI7
aI6
atbsg1557
I01
sg1558
I1
sg1559
I-1
sg1560
(lp1830
g1
(g1562
g1509
(dp1831
g806
g878
sVY
I4
sg808
I2
sg809
g879
sg817
I8
sg814
I8
sg815
g816
sVX
I2
sg811
I0
sg819
g842
sg821
I0
sg822
g832
stRp1832
ag1
(g1562
g1509
(dp1833
g806
g828
sVY
I6
sg808
I2
sg809
g829
sg817
I2
sg814
I2
sg815
g816
sVX
I6
sg811
I0
sg819
g820
sg821
I0
sg822
g832
stRp1834
ag1
(g1562
g1509
(dp1835
g806
g886
sVY
I7
sg808
I2
sg809
g887
sg817
I2
sg814
I2
sg815
g873
sVX
I8
sg811
I0
sg819
g816
sg821
I0
sg822
g890
stRp1836
ag1
(g1562
g1509
(dp1837
g806
g904
sVY
I4
sg808
I2
sg809
g905
sg817
I8
sg814
I8
sg815
g860
sVX
I4
sg811
I0
sg819
g843
sg821
I0
sg822
g890
stRp1838
ag1
(g1562
g1509
(dp1839
g806
g807
sVY
I4
sg808
I3
sg809
g810
sg817
I1
sg814
I1
sg815
g816
sVX
I6
sg811
g812
sg819
g820
sg821
I0
sg822
g823
stRp1840
ag1
(g1562
g1509
(dp1841
g806
g868
sVY
I4
sg808
I3
sg809
g869
sg817
I2
sg814
I2
sg815
g843
sVX
I4
sg811
g870
sg819
g873
sg821
I0
sg822
g823
stRp1842
ag1
(g1562
g1509
(dp1843
g806
g972
sVY
I7
sg808
I3
sg809
g973
sg817
I1
sg814
I1
sg815
g873
sVX
I3
sg811
g870
sg819
g843
sg821
I0
sg822
g967
stRp1844
ag1
(g1562
g1509
(dp1845
g806
g963
sVY
I3
sg808
I3
sg809
g964
sg817
I2
sg814
I2
sg815
g820
sVX
I9
sg811
g812
sg819
g839
sg821
I0
sg822
g967
stRp1846
ag1
(g1562
g1509
(dp1847
g806
g938
sVY
I2
sg808
I3
sg809
g939
sg817
I8
sg814
I8
sg815
g862
sVX
I7
sg811
g873
sg819
g816
sg821
I0
sg822
g942
stRp1848
ag1
(g1562
g1509
(dp1849
g806
g955
sVY
I3
sg808
I3
sg809
g956
sg817
I6
sg814
I6
sg815
g870
sVX
I4
sg811
g873
sg819
g816
sg821
I0
sg822
g942
stRp1850
ag1
(g1562
g1509
(dp1851
g806
g837
sVY
I6
sg808
I4
sg809
g838
sg817
I7
sg814
I7
sg815
g812
sVX
I4
sg811
g839
sg819
g842
sg821
g843
sg822
g844
stRp1852
ag1
(g1562
g1509
(dp1853
g806
g849
sVY
I5
sg808
I4
sg809
g850
sg817
I1
sg814
I1
sg815
g839
sVX
I6
sg811
g816
sg819
g820
sg821
g812
sg822
g844
stRp1854
ag1
(g1562
g1509
(dp1855
g806
g929
sVY
I4
sg808
I4
sg809
g930
sg817
I9
sg814
I9
sg815
g842
sVX
I9
sg811
g816
sg819
g933
sg821
g812
sg822
g863
stRp1856
ag1
(g1562
g1509
(dp1857
g806
g857
sVY
I4
sg808
I4
sg809
g858
sg817
I7
sg814
I7
sg815
g860
sVX
I3
sg811
g816
sg819
g862
sg821
g812
sg822
g863
stRp1858
ag1
(g1562
g1509
(dp1859
g806
g920
sVY
I6
sg808
I4
sg809
g921
sg817
I3
sg814
I3
sg815
g812
sVX
I4
sg811
g860
sg819
g862
sg821
g843
sg822
g924
stRp1860
ag1
(g1562
g1509
(dp1861
g806
g947
sVY
I8
sg808
I4
sg809
g948
sg817
I6
sg814
I6
sg815
g870
sVX
I9
sg811
g820
sg819
g816
sg821
g862
sg822
g924
stRp1862
ag1
(g1562
g1509
(dp1863
g806
g912
sVY
I2
sg808
I4
sg809
g913
sg817
I5
sg814
I5
sg815
g843
sVX
I8
sg811
g870
sg819
g862
sg821
g820
sg822
g899
stRp1864
ag1
(g1562
g1509
(dp1865
g806
g895
sVY
I4
sg808
I4
sg809
g896
sg817
I4
sg814
I4
sg815
g862
sVX
I4
sg811
g870
sg819
g816
sg821
g820
sg822
g899
stRp1866
asg1575
Nsg1576
I6
sg1577
I18
sg1578
I0
sg1579
I18
sg1580
I01
sbag1
(g1497
g3
NtRp1867
(dp1868
g1500
Nsg1501
(lp1869
sg1503
I153435152
sg10
g1584
sg6
g1505
sg1506
I1
sg24
I01
sg25
g26
sg1507
g1
(g1508
g1509
(dp1870
g22
g1526
(g1527
g1512
g1528
S'b'
tRp1871
(I1
(I18
I1
tg1530
I00
S'\x00\x00\x80?\x00\x00\x80?\x00\x00\x80?\x00\x00\x80?\x00\x00\x80?\x00\x00\x80?\x00\x00\x80?\x00\x00\x80?\x00\x00\x80?\x00\x00\x80?\x00\x00\x00\x00\x00\x00\x80?\x00\x00\x80?\x00\x00\x80?\x00\x00\x80?\x00\x00\x80?\x00\x00\x80?\x00\x00\x00\x00'
S'\x00\x00\x00\x00\x00\x00\x00\x00\x00\x00\x00\x00\x00\x00\x00\x00\x00\x00'
Ntbsg19
g1511
(g1512
(I0
tS'b'
tRp1872
(I1
(I18
I1
tg1515
I00
(lp1873
g1105
ag1123
ag1026
ag986
ag1044
ag1035
ag1147
ag1114
ag1062
ag1081
ag1004
ag1139
ag1016
ag1089
ag1131
ag1072
ag1052
ag1097
atbsg23
g1526
(g1527
g1512
g1528
S'b'
tRp1874
(I1
(I18
I1
tg1530
I00
S'\xa7O\xee?\x99\xbd\x9d@\xb3\xb7\x98@\x91\xd8F@zb\xd7@C|\xb9@\xae\xb6\x93@:7p@_\x9c\xac@\xf2\x01u@ QlA\xe2\x99nAq\xbe\xd8@\xc0\x7f\xfd@A\xc0\x10A\xaf\xa9\x03Av\xb7\xd3@ a\rA'
S'\x00\x00\x00\x00\x00\x00\x00\x00\x00\x00\x00\x00\x00\x00\x00\x00\x00\x00'
Ntbsg1525
g1526
(g1527
g1512
g1528
S'b'
tRp1875
(I1
(I18
I1
tg1530
I00
S'\x00\x00\x80?\x00\x00\x80?\x00\x00\x80?\x00\x00\x80?\x00\x00\x80?\x00\x00\x80?\x00\x00\x80?\x00\x00\x80?\x00\x00\x80?\x00\x00\x80?\x00\x00\x80?\x00\x00\x80?\x00\x00\x80?\x00\x00\x80?\x00\x00\x80?\x00\x00\x80?\x00\x00\x80?\x00\x00\x80?'
S'\x00\x00\x00\x00\x00\x00\x00\x00\x00\x00\x00\x00\x00\x00\x00\x00\x00\x00'
Ntbsg21
g1511
(g1512
(I0
tS'b'
tRp1876
(I1
(I18
I1
tg1515
I00
(lp1877
S'7'
aS'2'
aS'8'
aS'8'
aS'4'
aS'4'
aS'9'
aS'2'
aS'5'
aS'1'
aS'9'
aS'8'
aS'3'
aS'4'
aS'7'
aS'6'
aS'8'
aS'2'
atbsg1540
g1526
(g1527
g1512
g1528
S'b'
tRp1878
(I1
(I18
I1
tg1530
I00
S'\x00\x00@A\x00\x00`A\x00\x00@@\x00\x00\x00\x00\x00\x00\xa0@\x00\x00\x80@\x00\x00\x88A\x00\x00PA\x00\x00\xe0@\x00\x00\x10A\x00\x00\x80?\x00\x00\x80A\x00\x00\x00@\x00\x00 A\x00\x00pA\x00\x00\x00A\x00\x00\xc0@\x00\x000A'
S'\x00\x00\x00\x00\x00\x00\x00\x00\x00\x00\x00\x00\x00\x00\x00\x00\x00\x00'
Ntbsg20
g1526
(g1527
g1512
g1528
S'b'
tRp1879
(I1
(I18
I1
tg1530
I00
S'^\xa7H?c/9?\x99\x11\xbb?\x1fu\x90@N\xfc\x8f?\xe77\xc1?\xef_\x88@\x1a8\xd1?k\xdb\x8d@\xf8fV@\xae\x87\x05AR\x81\xb8@\x8c\x0b\xd0@C\x16\x0bA\x17\xbe\xe3?\x9a\x1b\xd1@\x92\x13\x19A\xec")A'
S'\x00\x00\x00\x00\x00\x00\x00\x00\x00\x00\x00\x00\x00\x00\x00\x00\x00\x00'
NtbstRp1880
(dp1881
g1545
(dp1882
g1525
I01
sg21
I00
sg20
I01
sg22
I01
sg19
I00
sg23
I01
sg1540
I01
ssg1547
g1867
sg1548
(lp1883
g1525
ag1540
ag19
ag20
ag21
ag22
ag23
asg1550
(lp1884
I18
aI1
asbsg1552
g1553
sg1554
g1511
(g1512
(I0
tS'b'
tRp1885
(I1
(I18
I1
tg1515
I00
(lp1886
I3
aI10
aI12
aI2
aI5
aI4
aI16
aI8
aI15
aI9
aI13
aI17
aI0
aI7
aI1
aI14
aI11
aI6
atbsg1557
I01
sg1558
I1
sg1559
I-1
sg1560
(lp1887
g1
(g1562
g1509
(dp1888
g980
g1103
sVY
I6
sg982
I2
sg983
g1104
sg990
I7
sg987
I7
sg988
g1007
sVX
I3
sg985
I0
sg992
g1027
sg994
I0
sg995
g1107
stRp1889
ag1
(g1562
g1509
(dp1890
g980
g1121
sVY
I4
sg982
I2
sg983
g1122
sg990
I2
sg987
I2
sg988
g1003
sVX
I5
sg985
I0
sg992
g1071
sg994
I0
sg995
g1107
stRp1891
ag1
(g1562
g1509
(dp1892
g980
g1024
sVY
I2
sg982
I2
sg983
g1025
sg990
I8
sg987
I8
sg988
g1027
sVX
I2
sg985
I0
sg992
g993
sg994
I0
sg995
g996
stRp1893
ag1
(g1562
g1509
(dp1894
g980
g981
sVY
I2
sg982
I2
sg983
g984
sg990
I8
sg987
I8
sg988
g989
sVX
I2
sg985
I0
sg992
g993
sg994
I0
sg995
g996
stRp1895
ag1
(g1562
g1509
(dp1896
g980
g1042
sVY
I3
sg982
I3
sg983
g1043
sg990
I4
sg987
I4
sg988
g1015
sVX
I8
sg985
g1018
sg992
g1006
sg994
I0
sg995
g1037
stRp1897
ag1
(g1562
g1509
(dp1898
g980
g1033
sVY
I2
sg982
I3
sg983
g1034
sg990
I4
sg987
I4
sg988
g1007
sVX
I3
sg985
g993
sg992
g989
sg994
I0
sg995
g1037
stRp1899
ag1
(g1562
g1509
(dp1900
g980
g1145
sVY
I2
sg982
I3
sg983
g1146
sg990
I9
sg987
I9
sg988
g1027
sVX
I2
sg985
g1015
sg992
g1003
sg994
I0
sg995
g1116
stRp1901
ag1
(g1562
g1509
(dp1902
g980
g1112
sVY
I2
sg982
I3
sg983
g1113
sg990
I2
sg987
I2
sg988
g1071
sVX
I9
sg985
g1007
sg992
g1003
sg994
I0
sg995
g1116
stRp1903
ag1
(g1562
g1509
(dp1904
g980
g1060
sVY
I4
sg982
I3
sg983
g1061
sg990
I5
sg987
I5
sg988
g1015
sVX
I8
sg985
g1006
sg992
g1054
sg994
I0
sg995
g1064
stRp1905
ag1
(g1562
g1509
(dp1906
g980
g1079
sVY
I6
sg982
I3
sg983
g1080
sg990
I1
sg987
I1
sg988
g1003
sVX
I8
sg985
g1071
sg992
g1007
sg994
I0
sg995
g1064
stRp1907
ag1
(g1562
g1509
(dp1908
g980
g1001
sVY
I3
sg982
I4
sg983
g1002
sg990
I2
sg987
I2
sg988
g993
sVX
I6
sg985
g1003
sg992
g1006
sg994
g1007
sg995
g1008
stRp1909
ag1
(g1562
g1509
(dp1910
g980
g1137
sVY
I2
sg982
I4
sg983
g1138
sg990
I8
sg987
I8
sg988
g1003
sVX
I2
sg985
g1018
sg992
g989
sg994
g1015
sg995
g1008
stRp1911
ag1
(g1562
g1509
(dp1912
g980
g1013
sVY
I3
sg982
I4
sg983
g1014
sg990
I3
sg987
I3
sg988
g1006
sVX
I4
sg985
g1015
sg992
g1003
sg994
g1018
sg995
g1019
stRp1913
ag1
(g1562
g1509
(dp1914
g980
g1087
sVY
I3
sg982
I4
sg983
g1088
sg990
I4
sg987
I4
sg988
g989
sVX
I7
sg985
g1018
sg992
g1007
sg994
g1003
sg995
g1019
stRp1915
ag1
(g1562
g1509
(dp1916
g980
g1129
sVY
I4
sg982
I4
sg983
g1130
sg990
I7
sg987
I7
sg988
g1003
sVX
I8
sg985
g1027
sg992
g1007
sg994
g993
sg995
g1074
stRp1917
ag1
(g1562
g1509
(dp1918
g980
g1069
sVY
I3
sg982
I4
sg983
g1070
sg990
I6
sg987
I6
sg988
g993
sVX
I5
sg985
g1071
sg992
g1015
sg994
g1054
sg995
g1074
stRp1919
ag1
(g1562
g1509
(dp1920
g980
g1050
sVY
I2
sg982
I4
sg983
g1051
sg990
I8
sg987
I8
sg988
g1015
sVX
I4
sg985
g1018
sg992
g1054
sg994
g1027
sg995
g1055
stRp1921
ag1
(g1562
g1509
(dp1922
g980
g1095
sVY
I5
sg982
I4
sg983
g1096
sg990
I3
sg987
I3
sg988
g1054
sVX
I9
sg985
g1018
sg992
g1015
sg994
g1071
sg995
g1055
stRp1923
asg1575
Nsg1576
I6
sg1577
I18
sg1578
I0
sg1579
I18
sg1580
I01
sbag1
(g1497
g3
NtRp1924
(dp1925
g1500
Nsg1501
(lp1926
sg1503
I153435152
sg10
g1584
sg6
g1505
sg1506
I1
sg24
I01
sg25
g26
sg1507
g1
(g1508
g1509
(dp1927
g22
g1526
(g1527
g1512
g1528
S'b'
tRp1928
(I1
(I18
I1
tg1530
I00
S'\x00\x00\x80?\x00\x00\x80?\x00\x00\x80?\x00\x00\x80?\x00\x00\x80?\x00\x00\x80?\x00\x00\x80?\x00\x00\x80?\x00\x00\x80?\x00\x00\x80?\x00\x00\x80?\x00\x00\x80?\x00\x00\x80?\x00\x00\x80?\x00\x00\x80?\x00\x00\x80?\x00\x00\x80?\x00\x00\x80?'
S'\x00\x00\x00\x00\x00\x00\x00\x00\x00\x00\x00\x00\x00\x00\x00\x00\x00\x00'
Ntbsg19
g1511
(g1512
(I0
tS'b'
tRp1929
(I1
(I18
I1
tg1515
I00
(lp1930
g1320
ag1159
ag1208
ag1296
ag1199
ag1227
ag1235
ag1176
ag1188
ag1261
ag1312
ag1279
ag1218
ag1253
ag1304
ag1244
ag1269
ag1288
atbsg23
g1526
(g1527
g1512
g1528
S'b'
tRp1931
(I1
(I18
I1
tg1530
I00
S';\xfe\xdf?08\xaf@P(s@\xbc\xc1f@PZ\x0cA\xad\xf5\x8a@\xf3\xd6h@B\xfd1ASO\x87@J\xce\x86@)\xc2\xee@_\x16\xcf@1\x0f\x02A\x8d\x0e\xa6@\x8bc\x83@\x81\xca\xca@?.\xa9@:.\xbc@'
S'\x00\x00\x00\x00\x00\x00\x00\x00\x00\x00\x00\x00\x00\x00\x00\x00\x00\x00'
Ntbsg1525
g1526
(g1527
g1512
g1528
S'b'
tRp1932
(I1
(I18
I1
tg1530
I00
S'\x00\x00\x80?\x00\x00\x80?\x00\x00\x80?\x00\x00\x80?\x00\x00\x80?\x00\x00\x80?\x00\x00\x80?\x00\x00\x80?\x00\x00\x80?\x00\x00\x80?\x00\x00\x80?\x00\x00\x80?\x00\x00\x80?\x00\x00\x80?\x00\x00\x80?\x00\x00\x80?\x00\x00\x80?\x00\x00\x80?'
S'\x00\x00\x00\x00\x00\x00\x00\x00\x00\x00\x00\x00\x00\x00\x00\x00\x00\x00'
Ntbsg21
g1511
(g1512
(I0
tS'b'
tRp1933
(I1
(I18
I1
tg1515
I00
(lp1934
S'7'
aS'9'
aS'2'
aS'5'
aS'9'
aS'3'
aS'8'
aS'3'
aS'9'
aS'6'
aS'5'
aS'9'
aS'5'
aS'7'
aS'6'
aS'9'
aS'5'
aS'5'
atbsg1540
g1526
(g1527
g1512
g1528
S'b'
tRp1935
(I1
(I18
I1
tg1530
I00
S'\x00\x00\x88A\x00\x00\x00\x00\x00\x00\x80@\x00\x00`A\x00\x00@@\x00\x00\xc0@\x00\x00\xe0@\x00\x00\x80?\x00\x00\x00@\x00\x00 A\x00\x00\x80A\x00\x00@A\x00\x00\xa0@\x00\x00\x10A\x00\x00pA\x00\x00\x00A\x00\x000A\x00\x00PA'
S'\x00\x00\x00\x00\x00\x00\x00\x00\x00\x00\x00\x00\x00\x00\x00\x00\x00\x00'
Ntbsg20
g1526
(g1527
g1512
g1528
S'b'
tRp1936
(I1
(I18
I1
tg1530
I00
S'W\xc3]?N\x14\n@\x9d\x8a\x0c@\xbf\xe6Y?O\x7f\x04@wa\x89@\x8b\xcf\xfb?\xfb\xe5\xa0@\x0c\x8e0@W\xb6\x0c@u\xc4jA\xf7]\x05@b^\xad@5\xd4\xc7@~\x8b\xbb@\xc9\xafc@\x0f\xb0\xad@0\xa7b@'
S'\x00\x00\x00\x00\x00\x00\x00\x00\x00\x00\x00\x00\x00\x00\x00\x00\x00\x00'
NtbstRp1937
(dp1938
g1545
(dp1939
g1525
I01
sg21
I00
sg20
I01
sg22
I01
sg19
I00
sg23
I01
sg1540
I01
ssg1547
g1924
sg1548
(lp1940
g1525
ag1540
ag19
ag20
ag21
ag22
ag23
asg1550
(lp1941
I18
aI1
asbsg1552
g1553
sg1554
g1511
(g1512
(I0
tS'b'
tRp1942
(I1
(I18
I1
tg1515
I00
(lp1943
I1
aI7
aI8
aI4
aI2
aI12
aI5
aI6
aI15
aI13
aI9
aI16
aI11
aI17
aI3
aI14
aI10
aI0
atbsg1557
I01
sg1558
I1
sg1559
I-1
sg1560
(lp1944
g1
(g1562
g1509
(dp1945
g1153
g1318
sVY
I5
sg1155
I2
sg1156
g1319
sg1163
I7
sg1160
I7
sg1161
g1189
sVX
I4
sg1158
I0
sg1165
g1187
sg1167
I0
sg1168
g1169
stRp1946
ag1
(g1562
g1509
(dp1947
g1153
g1154
sVY
I3
sg1155
I2
sg1156
g1157
sg1163
I9
sg1160
I9
sg1161
g1162
sVX
I4
sg1158
I0
sg1165
g1166
sg1167
I0
sg1168
g1169
stRp1948
ag1
(g1562
g1509
(dp1949
g1153
g1206
sVY
I8
sg1155
I2
sg1156
g1207
sg1163
I2
sg1160
I2
sg1161
g1177
sVX
I8
sg1158
I0
sg1165
g1210
sg1167
I0
sg1168
g1211
stRp1950
ag1
(g1562
g1509
(dp1951
g1153
g1294
sVY
I2
sg1155
I2
sg1156
g1295
sg1163
I5
sg1160
I5
sg1161
g1177
sVX
I8
sg1158
I0
sg1165
g1179
sg1167
I0
sg1168
g1211
stRp1952
ag1
(g1562
g1509
(dp1953
g1153
g1196
sVY
I2
sg1155
I3
sg1156
g1197
sg1163
I9
sg1160
I9
sg1161
g1162
sVX
I7
sg1158
g1198
sg1165
g1177
sg1167
I0
sg1168
g1201
stRp1954
ag1
(g1562
g1509
(dp1955
g1153
g1225
sVY
I2
sg1155
I3
sg1156
g1226
sg1163
I3
sg1160
I3
sg1161
g1179
sVX
I8
sg1158
g1189
sg1165
g1166
sg1167
I0
sg1168
g1201
stRp1956
ag1
(g1562
g1509
(dp1957
g1153
g1233
sVY
I2
sg1155
I3
sg1156
g1234
sg1163
I8
sg1160
I8
sg1161
g1236
sVX
I9
sg1158
g1198
sg1165
g1189
sg1167
I0
sg1168
g1180
stRp1958
ag1
(g1562
g1509
(dp1959
g1153
g1174
sVY
I3
sg1155
I3
sg1156
g1175
sg1163
I3
sg1160
I3
sg1161
g1177
sVX
I2
sg1158
g1162
sg1165
g1179
sg1167
I0
sg1168
g1180
stRp1960
ag1
(g1562
g1509
(dp1961
g1153
g1185
sVY
I3
sg1155
I3
sg1156
g1186
sg1163
I9
sg1160
I9
sg1161
g1189
sVX
I3
sg1158
g1187
sg1165
g1162
sg1167
I0
sg1168
g1191
stRp1962
ag1
(g1562
g1509
(dp1963
g1153
g1259
sVY
I2
sg1155
I3
sg1156
g1260
sg1163
I6
sg1160
I6
sg1161
g1179
sVX
I3
sg1158
g1166
sg1165
g1162
sg1167
I0
sg1168
g1191
stRp1964
ag1
(g1562
g1509
(dp1965
g1153
g1310
sVY
I4
sg1155
I4
sg1156
g1311
sg1163
I5
sg1160
I5
sg1161
g1210
sVX
I3
sg1158
g1179
sg1165
g1177
sg1167
g1162
sg1168
g1281
stRp1966
ag1
(g1562
g1509
(dp1967
g1153
g1277
sVY
I9
sg1155
I4
sg1156
g1278
sg1163
I9
sg1160
I9
sg1161
g1189
sVX
I3
sg1158
g1179
sg1165
g1236
sg1167
g1270
sg1168
g1281
stRp1968
ag1
(g1562
g1509
(dp1969
g1153
g1216
sVY
I4
sg1155
I4
sg1156
g1217
sg1163
I5
sg1160
I5
sg1161
g1166
sVX
I5
sg1158
g1198
sg1165
g1189
sg1167
g1162
sg1168
g1220
stRp1970
ag1
(g1562
g1509
(dp1971
g1153
g1251
sVY
I2
sg1155
I4
sg1156
g1252
sg1163
I7
sg1160
I7
sg1161
g1236
sVX
I2
sg1158
g1162
sg1165
g1179
sg1167
g1189
sg1168
g1220
stRp1972
ag1
(g1562
g1509
(dp1973
g1153
g1302
sVY
I4
sg1155
I4
sg1156
g1303
sg1163
I6
sg1160
I6
sg1161
g1210
sVX
I4
sg1158
g1166
sg1165
g1162
sg1167
g1179
sg1168
g1246
stRp1974
ag1
(g1562
g1509
(dp1975
g1153
g1242
sVY
I8
sg1155
I4
sg1156
g1243
sg1163
I9
sg1160
I9
sg1161
g1179
sVX
I8
sg1158
g1177
sg1165
g1162
sg1167
g1210
sg1168
g1246
stRp1976
ag1
(g1562
g1509
(dp1977
g1153
g1267
sVY
I4
sg1155
I4
sg1156
g1268
sg1163
I5
sg1160
I5
sg1161
g1270
sVX
I5
sg1158
g1210
sg1165
g1198
sg1167
g1187
sg1168
g1272
stRp1978
ag1
(g1562
g1509
(dp1979
g1153
g1286
sVY
I4
sg1155
I4
sg1156
g1287
sg1163
I5
sg1160
I5
sg1161
g1179
sVX
I7
sg1158
g1189
sg1165
g1270
sg1167
g1236
sg1168
g1272
stRp1980
asg1575
Nsg1576
I0
sg1577
I18
sg1578
I0
sg1579
I18
sg1580
I01
sbag1
(g1497
g3
NtRp1981
(dp1982
g1500
Nsg1501
(lp1983
sg1503
I153435152
sg10
g1584
sg6
g1505
sg1506
I1
sg24
I01
sg25
g26
sg1507
g1
(g1508
g1509
(dp1984
g22
g1526
(g1527
g1512
g1528
S'b'
tRp1985
(I1
(I18
I1
tg1530
I00
S'\x00\x00\x80?\x00\x00\x80?\x00\x00\x80?\x00\x00\x80?\x00\x00\x80?\x00\x00\x80?\x00\x00\x80?\x00\x00\x80?\x00\x00\x80?\x00\x00\x80?\x00\x00\x80?\x00\x00\x80?\x00\x00\x00\x00\x00\x00\x00\x00\x00\x00\x80?\x00\x00\x80?\x00\x00\x80?\x00\x00\x80?'
S'\x00\x00\x00\x00\x00\x00\x00\x00\x00\x00\x00\x00\x00\x00\x00\x00\x00\x00'
Ntbsg19
g1511
(g1512
(I0
tS'b'
tRp1986
(I1
(I18
I1
tg1515
I00
(lp1987
g1359
ag1349
ag1332
ag1493
ag1427
ag1417
ag1485
ag1379
ag1477
ag1399
ag1453
ag1435
ag1461
ag1444
ag1368
ag1469
ag1408
ag1389
atbsg23
g1526
(g1527
g1512
g1528
S'b'
tRp1988
(I1
(I18
I1
tg1530
I00
S'~\xe7\n@\xa2\xe4\xc6?X\x10"@\x1b\xd3h@\x1a\xb2\x03Ae\xf9\xcb@+\xca\x9a@oJ#@\x87\xe3m@\x10\xbe\x86@,\xb8\x1aAkq\xf7@\x95U-ADi\x1bAnb\xdc@j\x8b\xbc@\x04\x07\xba@G\xe8\x8b@'
S'\x00\x00\x00\x00\x00\x00\x00\x00\x00\x00\x00\x00\x00\x00\x00\x00\x00\x00'
Ntbsg1525
g1526
(g1527
g1512
g1528
S'b'
tRp1989
(I1
(I18
I1
tg1530
I00
S'\x00\x00\x80?\x00\x00\x80?\x00\x00\x80?\x00\x00\x80?\x00\x00\x80?\x00\x00\x80?\x00\x00\x80?\x00\x00\x80?\x00\x00\x80?\x00\x00\x80?\x00\x00\x80?\x00\x00\x80?\x00\x00\x80?\x00\x00\x80?\x00\x00\x80?\x00\x00\x80?\x00\x00\x80?\x00\x00\x80?'
S'\x00\x00\x00\x00\x00\x00\x00\x00\x00\x00\x00\x00\x00\x00\x00\x00\x00\x00'
Ntbsg21
g1511
(g1512
(I0
tS'b'
tRp1990
(I1
(I18
I1
tg1515
I00
(lp1991
S'1'
aS'4'
aS'9'
aS'6'
aS'6'
aS'7'
aS'8'
aS'2'
aS'1'
aS'9'
aS'1'
aS'2'
aS'3'
aS'2'
aS'7'
aS'1'
aS'5'
aS'7'
atbsg1540
g1526
(g1527
g1512
g1528
S'b'
tRp1992
(I1
(I18
I1
tg1530
I00
S'\x00\x00\x00@\x00\x00\x80?\x00\x00\x00\x00\x00\x00\x88A\x00\x00\x10A\x00\x00\x00A\x00\x00\x80A\x00\x00\x80@\x00\x00pA\x00\x00\xc0@\x00\x00@A\x00\x00 A\x00\x00PA\x00\x000A\x00\x00@@\x00\x00`A\x00\x00\xe0@\x00\x00\xa0@'
S'\x00\x00\x00\x00\x00\x00\x00\x00\x00\x00\x00\x00\x00\x00\x00\x00\x00\x00'
Ntbsg20
g1526
(g1527
g1512
g1528
S'b'
tRp1993
(I1
(I18
I1
tg1530
I00
S'K\xb3U?m7\xb9?\xc9Ni?\xe6\xbc-?\x0e_\x00@\x8f\xb7\xe7?\xf1\x0c\xa2?\x1c\xbbk@\xf2\x9f\x0e@\xae\xf5f?\xde+\xe9@er\xb3@[\xecl@<+\xee@\xd0\xe7\xbb@%O\tA0XS@R9\xd5@'
S'\x00\x00\x00\x00\x00\x00\x00\x00\x00\x00\x00\x00\x00\x00\x00\x00\x00\x00'
NtbstRp1994
(dp1995
g1545
(dp1996
g1525
I01
sg21
I00
sg20
I01
sg22
I01
sg19
I00
sg23
I01
sg1540
I01
ssg1547
g1981
sg1548
(lp1997
g1525
ag1540
ag19
ag20
ag21
ag22
ag23
asg1550
(lp1998
I18
aI1
asbsg1552
g1553
sg1554
g1511
(g1512
(I0
tS'b'
tRp1999
(I1
(I18
I1
tg1515
I00
(lp2000
I2
aI1
aI0
aI14
aI7
aI17
aI9
aI16
aI5
aI4
aI11
aI13
aI10
aI12
aI15
aI8
aI6
aI3
atbsg1557
I01
sg1558
I1
sg1559
I-1
sg1560
(lp2001
g1
(g1562
g1509
(dp2002
g1326
g1357
sVY
I2
sg1328
I2
sg1329
g1358
sg1336
I1
sg1333
I1
sg1334
g1350
sVX
I9
sg1331
I0
sg1338
g1361
sg1340
I0
sg1341
g1352
stRp2003
ag1
(g1562
g1509
(dp2004
g1326
g1347
sVY
I4
sg1328
I2
sg1329
g1348
sg1336
I4
sg1333
I4
sg1334
g1350
sVX
I3
sg1331
I0
sg1338
g1335
sg1340
I0
sg1341
g1352
stRp2005
ag1
(g1562
g1509
(dp2006
g1326
g1327
sVY
I4
sg1328
I2
sg1329
g1330
sg1336
I9
sg1333
I9
sg1334
g1335
sVX
I2
sg1331
I0
sg1338
g1339
sg1340
I0
sg1341
g1342
stRp2007
ag1
(g1562
g1509
(dp2008
g1326
g1491
sVY
I6
sg1328
I2
sg1329
g1492
sg1336
I6
sg1333
I6
sg1334
g1361
sVX
I8
sg1331
I0
sg1338
g1371
sg1340
I0
sg1341
g1342
stRp2009
ag1
(g1562
g1509
(dp2010
g1326
g1425
sVY
I4
sg1328
I3
sg1329
g1426
sg1336
I6
sg1333
I6
sg1334
g1410
sVX
I6
sg1331
g1369
sg1338
g1391
sg1340
I0
sg1341
g1420
stRp2011
ag1
(g1562
g1509
(dp2012
g1326
g1415
sVY
I9
sg1328
I3
sg1329
g1416
sg1336
I7
sg1333
I7
sg1334
g1418
sVX
I9
sg1331
g1410
sg1338
g1361
sg1340
I0
sg1341
g1420
stRp2013
ag1
(g1562
g1509
(dp2014
g1326
g1483
sVY
I4
sg1328
I3
sg1329
g1484
sg1336
I8
sg1333
I8
sg1334
g1335
sVX
I3
sg1331
g1350
sg1338
g1418
sg1340
I0
sg1341
g1382
stRp2015
ag1
(g1562
g1509
(dp2016
g1326
g1377
sVY
I2
sg1328
I3
sg1329
g1378
sg1336
I2
sg1333
I2
sg1334
g1380
sVX
I4
sg1331
g1369
sg1338
g1339
sg1340
I0
sg1341
g1382
stRp2017
ag1
(g1562
g1509
(dp2018
g1326
g1475
sVY
I2
sg1328
I3
sg1329
g1476
sg1336
I1
sg1333
I1
sg1334
g1369
sVX
I8
sg1331
g1380
sg1338
g1410
sg1340
I0
sg1341
g1401
stRp2019
ag1
(g1562
g1509
(dp2020
g1326
g1397
sVY
I3
sg1328
I3
sg1329
g1398
sg1336
I9
sg1333
I9
sg1334
g1369
sVX
I2
sg1331
g1335
sg1338
g1371
sg1340
I0
sg1341
g1401
stRp2021
ag1
(g1562
g1509
(dp2022
g1326
g1451
sVY
I3
sg1328
I4
sg1329
g1452
sg1336
I1
sg1333
I1
sg1334
g1410
sVX
I6
sg1331
g1350
sg1338
g1380
sg1340
g1418
sg1341
g1437
stRp2023
ag1
(g1562
g1509
(dp2024
g1326
g1433
sVY
I2
sg1328
I4
sg1329
g1434
sg1336
I2
sg1333
I2
sg1334
g1410
sVX
I3
sg1331
g1350
sg1338
g1335
sg1340
g1418
sg1341
g1437
stRp2025
ag1
(g1562
g1509
(dp2026
g1326
g1459
sVY
I9
sg1328
I4
sg1329
g1460
sg1336
I1
sg1333
I1
sg1334
g1380
sVX
I3
sg1331
g1371
sg1338
g1410
sg1340
g1418
sg1341
g1446
stRp2027
ag1
(g1562
g1509
(dp2028
g1326
g1442
sVY
I3
sg1328
I4
sg1329
g1443
sg1336
I3
sg1333
I3
sg1334
g1361
sVX
I6
sg1331
g1339
sg1338
g1371
sg1340
g1369
sg1341
g1446
stRp2029
ag1
(g1562
g1509
(dp2030
g1326
g1366
sVY
I2
sg1328
I4
sg1329
g1367
sg1336
I7
sg1333
I7
sg1334
g1369
sVX
I2
sg1331
g1335
sg1338
g1339
sg1340
g1371
sg1341
g1372
stRp2031
ag1
(g1562
g1509
(dp2032
g1326
g1467
sVY
I2
sg1328
I4
sg1329
g1468
sg1336
I1
sg1333
I1
sg1334
g1339
sVX
I8
sg1331
g1361
sg1338
g1350
sg1340
g1369
sg1341
g1372
stRp2033
ag1
(g1562
g1509
(dp2034
g1326
g1406
sVY
I2
sg1328
I4
sg1329
g1407
sg1336
I5
sg1333
I5
sg1334
g1369
sVX
I2
sg1331
g1371
sg1338
g1410
sg1340
g1391
sg1341
g1392
stRp2035
ag1
(g1562
g1509
(dp2036
g1326
g1387
sVY
I2
sg1328
I4
sg1329
g1388
sg1336
I7
sg1333
I7
sg1334
g1371
sVX
I2
sg1331
g1369
sg1338
g1339
sg1340
g1391
sg1341
g1392
stRp2037
asg1575
Nsg1576
I3
sg1577
I18
sg1578
I0
sg1579
I18
sg1580
I01
sbasS'savePickle'
p2038
I00
sb.