ccopy_reg
_reconstructor
p1
(cpsychopy.data
ExperimentHandler
p2
c__builtin__
object
p3
NtRp4
(dp5
S'originPath'
p6
NsS'dataFileName'
p7
VC:\u005cUsers\u005cCCDL\u005cDesktop\u005cExperiments\u005cKRITL\u005cdata/31036_KRITL_2017_Apr_14_1248
p8
sS'runtimeInfo'
p9
NsS'name'
p10
S'KRITL'
p11
sS'dataNames'
p12
(lp13
S'practice_encoding.keys'
p14
aS'practice_encoding.rt'
p15
aS'practice_execution.keys'
p16
aS'practice_execution.corr'
p17
aS'practice_execution.rt'
p18
aS'encoding.keys'
p19
aS'encoding.rt'
p20
aS'execution.keys'
p21
aS'execution.corr'
p22
aS'execution.rt'
p23
asS'autoLog'
p24
I01
sS'extraInfo'
p25
(dp26
S'date'
p27
V2017_Apr_14_1248
p28
sS'frameRate'
p29
cnumpy.core.multiarray
scalar
p30
(cnumpy
dtype
p31
(S'f8'
I0
I1
tRp32
(I3
S'<'
NNNI-1
I-1
I0
tbS'6*,\x8a<\x00N@'
tRp33
sS'expName'
p34
g11
sVsession
p35
V001
p36
sVparticipant
p37
V31036
p38
ssS'loopsUnfinished'
p39
(lp40
sS'saveWideText'
p41
I00
sS'thisEntry'
p42
(dp43
sS'version'
p44
S''
sS'_paramNamesSoFar'
p45
(lp46
Voperationc
p47
aVoperationb
p48
aVoperationa
p49
aVcorrectresponse
p50
aVvaluey
p51
aVoperationd
p52
aVcondition
p53
aVvaluex
p54
aVRule
p55
aVOperatora
p56
aVLength
p57
aVIntermediate
p58
aVCorrectResponse
p59
aVResult
p60
aVY
aVX
aVOperatorc
p61
aVOperatorb
p62
aVOperatord
p63
aVStructure
p64
asS'entries'
p65
(lp66
(dp67
g35
g36
sg47
Vincrease
p68
sg27
g28
sg16
Nsg29
g33
sg14
(lp69
S'space'
p70
asg53
L3L
sg49
Vtriple
p71
sg17
I0
sS'practice_trials.thisN'
p72
I0
sg48
VDIVIDE
p73
sS'practice_trials.thisIndex'
p74
I4
sg34
g11
sg50
L3L
sS'practice_trials.thisTrialN'
p75
I0
sg52
L0L
sS'practice_trials.thisRepN'
p76
I0
sg37
g38
sg54
L2L
sg51
L3L
sg15
(lp77
F7.2333302542101592
asa(dp78
g18
F8.2832649374613538
sg29
g33
sg17
I1
sg47
VADD
p79
sg48
Vtriple 
p80
sg49
Vhalf
p81
sg35
g36
sg50
L8L
sS'practice_trials.thisTrialN'
p82
I1
sg52
L0L
sS'practice_trials.thisRepN'
p83
I0
sg37
g38
sg53
L3L
sg27
g28
sg16
S'8'
sg14
(lp84
S'space'
p85
asS'practice_trials.thisIndex'
p86
I3
sS'practice_trials.thisN'
p87
I1
sg34
g11
sg15
(lp88
F2.9333760415902361
asg51
L2L
sg54
L4L
sa(dp89
g18
F2.8167236014269292
sg29
g33
sg17
I1
sg47
L0L
sg48
g79
sg49
g81
sg35
g36
sg50
L7L
sS'practice_trials.thisTrialN'
p90
I2
sg52
L0L
sS'practice_trials.thisRepN'
p91
I0
sg37
g38
sg53
L2L
sg27
g28
sg16
S'7'
sg14
(lp92
S'space'
p93
asS'practice_trials.thisIndex'
p94
I2
sS'practice_trials.thisN'
p95
I2
sg34
g11
sg15
(lp96
F2.2334020998096094
asg51
L5L
sg54
L4L
sa(dp97
g18
F7.649920086027123
sg29
g33
sg17
I1
sg47
g68
sg48
g73
sg49
Vdouble
p98
sg35
g36
sg50
L9L
sS'practice_trials.thisTrialN'
p99
I3
sg52
g71
sS'practice_trials.thisRepN'
p100
I0
sg37
g38
sg53
L4L
sg27
g28
sg16
S'9'
sg14
(lp101
S'space'
p102
asS'practice_trials.thisIndex'
p103
I5
sS'practice_trials.thisN'
p104
I3
sg34
g11
sg15
(lp105
F6.1333177668275312
asg51
L8L
sg54
L8L
sa(dp106
g18
F2.9000279969768599
sg29
g33
sg17
I1
sg47
L0L
sg48
g79
sg49
Vdecrease
p107
sg35
g36
sg50
L7L
sS'practice_trials.thisTrialN'
p108
I4
sg52
L0L
sS'practice_trials.thisRepN'
p109
I0
sg37
g38
sg53
L2L
sg27
g28
sg16
S'7'
sg14
(lp110
S'space'
p111
asS'practice_trials.thisIndex'
p112
I0
sS'practice_trials.thisN'
p113
I4
sg34
g11
sg15
(lp114
F1.7667270512320101
asg51
L5L
sg54
L3L
sa(dp115
g18
F3.0667094889795408
sg29
g33
sg17
I1
sg47
L0L
sg48
g107
sg49
VTIMES
p116
sg35
g36
sg50
L8L
sS'practice_trials.thisTrialN'
p117
I5
sg52
L0L
sS'practice_trials.thisRepN'
p118
I0
sg37
g38
sg53
L2L
sg27
g28
sg16
S'8'
sg14
(lp119
S'space'
p120
asS'practice_trials.thisIndex'
p121
I1
sS'practice_trials.thisN'
p122
I5
sg34
g11
sg15
(lp123
F4.1165974155301228
asg51
L3L
sg54
L3L
sa(dp124
S'block.thisTrialN'
p125
I0
sS'block.thisRepN'
p126
I0
sg29
g33
sS'block.thisN'
p127
I0
sg55
(S'HALF'
S'SUBTRACT'
S'DECREASE'
S'TRIPLE'
S'x'
S'y'
tp128
sg27
g28
sg57
L4L
sg58
(I15
I14
I10
I5
tp129
sg22
I0
sg20
F7.5999734285287559
sVY
L4L
sVX
L5L
sg61
Vdecrease
p130
sg35
g36
sg37
g38
sg21
Nsg19
S'space'
p131
sg34
g11
sg60
L5L
sg56
VSUBTRACT
p132
sg59
L5L
sS'block.thisIndex'
p133
I12
sg62
Vhalf
p134
sg63
Vtriple
p135
sg64
VUBUUxy
p136
sa(dp137
S'block.thisTrialN'
p138
I1
sS'block.thisRepN'
p139
I0
sg29
g33
sS'block.thisN'
p140
I1
sg55
(S'INCREASE'
S'DIVIDE'
S'x'
S'y'
tp141
sg27
g28
sg57
L2L
sg58
(I4
I5
tp142
sg22
I1
sg20
F3.9667314987163991
sg23
F1.6167838718974963
sVY
L2L
sVX
L8L
sg61
L0L
sg35
g36
sg37
g38
sg21
S'5'
sg19
S'space'
p143
sg34
g11
sg60
L5L
sg56
VDIVIDE
p144
sg59
L5L
sS'block.thisIndex'
p145
I3
sg62
Vincrease
p146
sg63
L0L
sg64
VUBxy
p147
sa(dp148
S'block.thisTrialN'
p149
I2
sS'block.thisRepN'
p150
I0
sg29
g33
sS'block.thisN'
p151
I2
sg55
(S'INCREASE'
S'DIVIDE'
S'TRIPLE'
S'x'
S'y'
tp152
sg27
g28
sg57
L3L
sg58
(I6
I2
I3
tp153
sg22
I1
sg20
F4.0000285102287307
sg23
F4.1000355806900188
sVY
L3L
sVX
L2L
sg61
g135
sg35
g36
sg37
g38
sg21
S'3'
sg19
S'space'
p154
sg34
g11
sg60
L3L
sg56
g144
sg59
L3L
sS'block.thisIndex'
p155
I7
sg62
g146
sg63
L0L
sg64
VUBUxy
p156
sa(dp157
S'block.thisTrialN'
p158
I3
sS'block.thisRepN'
p159
I0
sg29
g33
sS'block.thisN'
p160
I3
sg55
(S'DECREASE'
S'THIRD'
S'DOUBLE'
S'ADD'
S'x'
S'y'
tp161
sg27
g28
sg57
L4L
sg58
(I9
I18
I6
I5
tp162
sg22
I1
sg20
F8.2666041724151
sg23
F6.8999846614897251
sVY
L4L
sVX
L5L
sg61
Vdouble
p163
sg35
g36
sg37
g38
sg21
S'5'
sg19
S'space'
p164
sg34
g11
sg60
L5L
sg56
Vthird
p165
sg59
L5L
sS'block.thisIndex'
p166
I16
sg62
g130
sg63
VADD
p167
sg64
VUUUBxy
p168
sa(dp169
S'block.thisTrialN'
p170
I4
sS'block.thisRepN'
p171
I0
sg29
g33
sS'block.thisN'
p172
I4
sg55
(S'SUBTRACT'
S'INCREASE'
S'HALF'
S'x'
S'y'
tp173
sg27
g28
sg57
L3L
sg58
(I4
I5
I3
tp174
sg22
I1
sg20
F5.7333265478955582
sg23
F2.5334073457634076
sVY
L2L
sVX
L8L
sg61
g134
sg35
g36
sg37
g38
sg21
S'3'
sg19
S'space'
p175
sg34
g11
sg60
L3L
sg56
g146
sg59
L3L
sS'block.thisIndex'
p176
I5
sg62
g132
sg63
L0L
sg64
VBUUxy
p177
sa(dp178
S'block.thisTrialN'
p179
I5
sS'block.thisRepN'
p180
I0
sg29
g33
sS'block.thisN'
p181
I5
sg55
(S'TRIPLE'
S'DOUBLE'
S'SUBTRACT'
S'INCREASE'
S'x'
S'y'
tp182
sg27
g28
sg57
L4L
sg58
(I5
I1
I2
I6
tp183
sg22
I1
sg20
F7.5499554956331849
sg23
F5.6500318459002301
sVY
L4L
sVX
L4L
sg61
g132
sg35
g36
sg37
g38
sg21
S'6'
sg19
S'space'
p184
sg34
g11
sg60
L6L
sg56
g163
sg59
L6L
sS'block.thisIndex'
p185
I14
sg62
g135
sg63
g146
sg64
VUUBUxy
p186
sa(dp187
S'block.thisTrialN'
p188
I6
sS'block.thisRepN'
p189
I0
sg29
g33
sS'block.thisN'
p190
I6
sg55
(S'THIRD'
S'INCREASE'
S'HALF'
S'TIMES'
S'x'
S'y'
tp191
sg27
g28
sg57
L4L
sg58
(I28
I14
I15
I5
tp192
sg22
I1
sg20
F7.2166469661751762
sg23
F8.9332959280582145
sVY
L4L
sVX
L7L
sg61
g134
sg35
g36
sg37
g38
sg21
S'5'
sg19
S'space'
p193
sg34
g11
sg60
L5L
sg56
g146
sg59
L5L
sS'block.thisIndex'
p194
I17
sg62
g165
sg63
VTIMES
p195
sg64
g168
sa(dp196
S'block.thisTrialN'
p197
I7
sS'block.thisRepN'
p198
I0
sg29
g33
sS'block.thisN'
p199
I7
sg55
(S'TRIPLE'
S'HALF'
S'ADD'
S'x'
S'y'
tp200
sg27
g28
sg57
L3L
sg58
(I6
I3
I9
tp201
sg22
I1
sg20
F4.0667120547732338
sg23
F3.6000626654131338
sVY
L3L
sVX
L3L
sg61
g167
sg35
g36
sg37
g38
sg21
S'9'
sg19
S'space'
p202
sg34
g11
sg60
L9L
sg56
g134
sg59
L9L
sS'block.thisIndex'
p203
I8
sg62
g135
sg63
L0L
sg64
VUUBxy
p204
sa(dp205
S'block.thisTrialN'
p206
I8
sS'block.thisRepN'
p207
I0
sg29
g33
sS'block.thisN'
p208
I8
sg55
(S'TRIPLE'
S'INCREASE'
S'SUBTRACT'
S'x'
S'y'
tp209
sg27
g28
sg57
L3L
sg58
(I1
I2
I6
tp210
sg22
I1
sg20
F5.5333423425909132
sg23
F3.099918688996695
sVY
L2L
sVX
L3L
sg61
g132
sg35
g36
sg37
g38
sg21
S'6'
sg19
S'space'
p211
sg34
g11
sg60
L6L
sg56
g146
sg59
L6L
sS'block.thisIndex'
p212
I9
sg62
g135
sg63
L0L
sg64
g204
sa(dp213
S'block.thisTrialN'
p214
I9
sS'block.thisRepN'
p215
I0
sg29
g33
sS'block.thisN'
p216
I9
sg55
(S'TRIPLE'
S'INCREASE'
S'DIVIDE'
S'DOUBLE'
S'x'
S'y'
tp217
sg27
g28
sg57
L4L
sg58
(I16
I2
I3
I9
tp218
sg22
I1
sg20
F7.183286092011258
sg23
F7.0166137233609334
sVY
L8L
sVX
L8L
sg61
g144
sg35
g36
sg37
g38
sg21
S'9'
sg19
S'space'
p219
sg34
g11
sg60
L9L
sg56
g146
sg59
L9L
sS'block.thisIndex'
p220
I15
sg62
g135
sg63
g163
sg64
g186
sa(dp221
S'block.thisTrialN'
p222
I10
sS'block.thisRepN'
p223
I0
sg29
g33
sS'block.thisN'
p224
I10
sg55
(S'INCREASE'
S'TIMES'
S'TRIPLE'
S'HALF'
S'x'
S'y'
tp225
sg27
g28
sg57
L4L
sg58
(I1
I3
I6
I7
tp226
sg22
I0
sg20
F4.8166691471124068
sg23
F10.149894141824916
sVY
L2L
sVX
L2L
sg61
g135
sg35
g36
sg37
g38
sg21
S'5'
sg19
S'space'
p227
sg34
g11
sg60
L7L
sg56
g195
sg59
L7L
sS'block.thisIndex'
p228
I13
sg62
g146
sg63
g134
sg64
g136
sa(dp229
S'block.thisTrialN'
p230
I11
sS'block.thisRepN'
p231
I0
sg29
g33
sS'block.thisN'
p232
I11
sg55
(S'HALF'
S'TIMES'
S'DECREASE'
S'x'
S'y'
tp233
sg27
g28
sg57
L3L
sg58
(I8
I16
I8
tp234
sg22
I1
sg20
F5.399986372096464
sg23
F3.71671510534361
sVY
L2L
sVX
L9L
sg61
g130
sg35
g36
sg37
g38
sg21
S'8'
sg19
S'space'
p235
sg34
g11
sg60
L8L
sg56
g195
sg59
L8L
sS'block.thisIndex'
p236
I6
sg62
g134
sg63
L0L
sg64
g156
sa(dp237
S'block.thisTrialN'
p238
I12
sS'block.thisRepN'
p239
I0
sg29
g33
sS'block.thisN'
p240
I12
sg55
(S'DOUBLE'
S'DIVIDE'
S'x'
S'y'
tp241
sg27
g28
sg57
L2L
sg58
(I1
I2
tp242
sg22
I1
sg20
F2.8000562790548429
sg23
F1.7167313562240452
sVY
L8L
sVX
L8L
sg61
L0L
sg35
g36
sg37
g38
sg21
S'2'
sg19
S'space'
p243
sg34
g11
sg60
L2L
sg56
g144
sg59
L2L
sS'block.thisIndex'
p244
I2
sg62
g163
sg63
L0L
sg64
g147
sa(dp245
S'block.thisTrialN'
p246
I13
sS'block.thisRepN'
p247
I0
sg29
g33
sS'block.thisN'
p248
I13
sg55
(S'ADD'
S'HALF'
S'x'
S'y'
tp249
sg27
g28
sg57
L2L
sg58
(I2
I7
tp250
sg22
I1
sg20
F1.4334270746912807
sg23
F1.6334281010786071
sVY
L5L
sVX
L4L
sg61
L0L
sg35
g36
sg37
g38
sg21
S'7'
sg19
S'space'
p251
sg34
g11
sg60
L7L
sg56
g134
sg59
L7L
sS'block.thisIndex'
p252
I0
sg62
g167
sg63
L0L
sg64
VBUxy
p253
sa(dp254
S'block.thisTrialN'
p255
I14
sS'block.thisRepN'
p256
I0
sg29
g33
sS'block.thisN'
p257
I14
sg55
(S'TIMES'
S'HALF'
S'INCREASE'
S'THIRD'
S'x'
S'y'
tp258
sg27
g28
sg57
L4L
sg58
(I1
I2
I1
I9
tp259
sg22
I1
sg20
F7.7166255834745243
sg23
F5.2333704535849392
sVY
L9L
sVX
L3L
sg61
g146
sg35
g36
sg37
g38
sg21
S'9'
sg19
S'space'
p260
sg34
g11
sg60
L9L
sg56
g134
sg59
L9L
sS'block.thisIndex'
p261
I11
sg62
g195
sg63
g165
sg64
VBUUUxy
p262
sa(dp263
S'block.thisTrialN'
p264
I15
sS'block.thisRepN'
p265
I0
sg29
g33
sS'block.thisN'
p266
I15
sg55
(S'DIVIDE'
S'TRIPLE'
S'DECREASE'
S'x'
S'y'
tp267
sg27
g28
sg57
L3L
sg58
(I6
I18
I9
tp268
sg22
I1
sg20
F2.9167158467462286
sg23
F6.0500538557535037
sVY
L2L
sVX
L7L
sg61
g130
sg35
g36
sg37
g38
sg21
S'9'
sg19
S'space'
p269
sg34
g11
sg60
L9L
sg56
g135
sg59
L9L
sS'block.thisIndex'
p270
I4
sg62
g144
sg63
L0L
sg64
g177
sa(dp271
S'block.thisTrialN'
p272
I16
sS'block.thisRepN'
p273
I0
sg29
g33
sS'block.thisN'
p274
I16
sg55
(S'SUBTRACT'
S'TRIPLE'
S'x'
S'y'
tp275
sg27
g28
sg57
L2L
sg58
(I12
I9
tp276
sg22
I1
sg20
F6.5833012594375759
sg23
F5.2833652932895347
sVY
L3L
sVX
L4L
sg61
L0L
sg35
g36
sg37
g38
sg21
S'9'
sg19
S'space'
p277
sg34
g11
sg60
L9L
sg56
g135
sg59
L9L
sS'block.thisIndex'
p278
I1
sg62
g132
sg63
L0L
sg64
g253
sa(dp279
S'block.thisTrialN'
p280
I17
sS'block.thisRepN'
p281
I0
sg29
g33
sS'block.thisN'
p282
I17
sg55
(S'DIVIDE'
S'DOUBLE'
S'INCREASE'
S'TRIPLE'
S'x'
S'y'
tp283
sg27
g28
sg57
L4L
sg58
(I9
I10
I20
I5
tp284
sg22
I0
sg20
F7.6166045430582017
sg23
F5.5500005417270586
sVY
L4L
sVX
L3L
sg61
g146
sg35
g36
sg37
g38
sg21
S'4'
sg19
S'space'
p285
sg34
g11
sg60
L5L
sg56
g163
sg59
L5L
sS'block.thisIndex'
p286
I10
sg62
g144
sg63
g135
sg64
g262
sa(dp287
S'block.thisTrialN'
p288
I0
sS'block.thisRepN'
p289
I0
sg29
g33
sS'block.thisN'
p290
I0
sVRule
p291
(S'ADD'
S'DECREASE'
S'x'
S'y'
tp292
sg27
g28
sVLength
p293
L2L
sVIntermediate
p294
(I2
I7
tp295
sg22
I1
sg20
F5.1166621336014941
sg23
F1.6334078588988632
sVY
L5L
sVX
L3L
sVOperatorc
p296
L0L
sg35
g36
sg37
g38
sg21
S'7'
sg19
S'space'
p297
sg34
g11
sVResult
p298
L7L
sVOperatora
p299
Vdecrease
p300
sVCorrectResponse
p301
L7L
sS'block.thisIndex'
p302
I0
sVOperatorb
p303
VADD
p304
sVOperatord
p305
L0L
sVStructure
p306
VBUxy
p307
sa(dp308
S'block.thisTrialN'
p309
I1
sS'block.thisRepN'
p310
I0
sg29
g33
sS'block.thisN'
p311
I1
sg291
(S'DECREASE'
S'ADD'
S'THIRD'
S'HALF'
S'x'
S'y'
tp312
sg27
g28
sg293
L4L
sg294
(I3
I1
I7
I6
tp313
sg22
I1
sg20
F7.4999826088314876
sg23
F6.999988881056197
sVY
L6L
sVX
L6L
sg296
Vthird
p314
sg35
g36
sg37
g38
sg21
S'6'
sg19
S'space'
p315
sg34
g11
sg298
L6L
sg299
g304
sg301
L6L
sS'block.thisIndex'
p316
I12
sg303
g300
sg305
Vhalf
p317
sg306
VUBUUxy
p318
sa(dp319
S'block.thisTrialN'
p320
I2
sS'block.thisRepN'
p321
I0
sg29
g33
sS'block.thisN'
p322
I2
sg291
(S'INCREASE'
S'HALF'
S'THIRD'
S'TIMES'
S'x'
S'y'
tp323
sg27
g28
sg293
L4L
sg294
(I12
I4
I2
I3
tp324
sg22
I1
sg20
F9.3166169734904543
sg23
F4.9000391159206629
sVY
L4L
sVX
L3L
sg296
g314
sg35
g36
sg37
g38
sg21
S'3'
sg19
S'space'
p325
sg34
g11
sg298
L3L
sg299
g317
sg301
L3L
sS'block.thisIndex'
p326
I16
sg303
Vincrease
p327
sg305
VTIMES
p328
sg306
VUUUBxy
p329
sa(dp330
S'block.thisTrialN'
p331
I3
sS'block.thisRepN'
p332
I0
sg29
g33
sS'block.thisN'
p333
I3
sg291
(S'DOUBLE'
S'SUBTRACT'
S'INCREASE'
S'x'
S'y'
tp334
sg27
g28
sg293
L3L
sg294
(I4
I1
I2
tp335
sg22
I1
sg20
F2.3833897549193352
sg23
F3.1334221139550209
sVY
L3L
sVX
L3L
sg296
g327
sg35
g36
sg37
g38
sg21
S'2'
sg19
S'space'
p336
sg34
g11
sg298
L2L
sg299
VSUBTRACT
p337
sg301
L2L
sS'block.thisIndex'
p338
I6
sg303
Vdouble
p339
sg305
L0L
sg306
VUBUxy
p340
sa(dp341
S'block.thisTrialN'
p342
I4
sS'block.thisRepN'
p343
I0
sg29
g33
sS'block.thisN'
p344
I4
sg291
(S'DIVIDE'
S'DECREASE'
S'x'
S'y'
tp345
sg27
g28
sg293
L2L
sg294
(I8
I2
tp346
sg22
I1
sg20
F1.383414558833465
sg23
F1.6500954235671088
sVY
L4L
sVX
L9L
sg296
L0L
sg35
g36
sg37
g38
sg21
S'2'
sg19
S'space'
p347
sg34
g11
sg298
L2L
sg299
g300
sg301
L2L
sS'block.thisIndex'
p348
I1
sg303
VDIVIDE
p349
sg305
L0L
sg306
g307
sa(dp350
S'block.thisTrialN'
p351
I5
sS'block.thisRepN'
p352
I0
sg29
g33
sS'block.thisN'
p353
I5
sg291
(S'HALF'
S'ADD'
S'x'
S'y'
tp354
sg27
g28
sg293
L2L
sg294
(I12
I6
tp355
sg22
I1
sg20
F1.2500597288599238
sg23
F3.7333992487983778
sVY
L8L
sVX
L4L
sg296
L0L
sg35
g36
sg37
g38
sg21
S'6'
sg19
S'space'
p356
sg34
g11
sg298
L6L
sg299
g304
sg301
L6L
sS'block.thisIndex'
p357
I3
sg303
g317
sg305
L0L
sg306
VUBxy
p358
sa(dp359
S'block.thisTrialN'
p360
I6
sS'block.thisRepN'
p361
I0
sg29
g33
sS'block.thisN'
p362
I6
sg291
(S'INCREASE'
S'ADD'
S'HALF'
S'x'
S'y'
tp363
sg27
g28
sg293
L3L
sg294
(I1
I4
I5
tp364
sg22
I1
sg20
F2.2334038104163483
sg23
F3.6167462384328246
sVY
L3L
sVX
L2L
sg296
g317
sg35
g36
sg37
g38
sg21
S'5'
sg19
S'space'
p365
sg34
g11
sg298
L5L
sg299
g304
sg301
L5L
sS'block.thisIndex'
p366
I7
sg303
g327
sg305
L0L
sg306
g340
sa(dp367
S'block.thisTrialN'
p368
I7
sS'block.thisRepN'
p369
I0
sg29
g33
sS'block.thisN'
p370
I7
sg291
(S'DECREASE'
S'DOUBLE'
S'TIMES'
S'THIRD'
S'x'
S'y'
tp371
sg27
g28
sg293
L4L
sg294
(I1
I3
I6
I5
tp372
sg22
I1
sg20
F6.5666470517171547
sg23
F4.6833616439253092
sVY
L3L
sVX
L3L
sg296
g328
sg35
g36
sg37
g38
sg21
S'5'
sg19
S'space'
p373
sg34
g11
sg298
L5L
sg299
g339
sg301
L5L
sS'block.thisIndex'
p374
I14
sg303
g300
sg305
g314
sg306
VUUBUxy
p375
sa(dp376
S'block.thisTrialN'
p377
I8
sS'block.thisRepN'
p378
I0
sg29
g33
sS'block.thisN'
p379
I8
sg291
(S'ADD'
S'DOUBLE'
S'DECREASE'
S'x'
S'y'
tp380
sg27
g28
sg293
L3L
sg294
(I1
I2
I7
tp381
sg22
I1
sg20
F1.8000500068301335
sg23
F2.5667419905075803
sVY
L5L
sVX
L2L
sg296
g300
sg35
g36
sg37
g38
sg21
S'7'
sg19
S'space'
p382
sg34
g11
sg298
L7L
sg299
g339
sg301
L7L
sS'block.thisIndex'
p383
I4
sg303
g304
sg305
L0L
sg306
VBUUxy
p384
sa(dp385
S'block.thisTrialN'
p386
I9
sS'block.thisRepN'
p387
I0
sg29
g33
sS'block.thisN'
p388
I9
sg291
(S'ADD'
S'TRIPLE'
S'DOUBLE'
S'DECREASE'
S'x'
S'y'
tp389
sg27
g28
sg293
L4L
sg294
(I1
I2
I6
I8
tp390
sg22
I1
sg20
F1.9167537651956081
sg23
F4.9166859110118821
sVY
L2L
sVX
L2L
sg296
g339
sg35
g36
sg37
g38
sg21
S'8'
sg19
S'space'
p391
sg34
g11
sg298
L8L
sg299
Vtriple
p392
sg301
L8L
sS'block.thisIndex'
p393
I11
sg303
g304
sg305
g300
sg306
VBUUUxy
p394
sa(dp395
S'block.thisTrialN'
p396
I10
sS'block.thisRepN'
p397
I0
sg29
g33
sS'block.thisN'
p398
I10
sg291
(S'DECREASE'
S'SUBTRACT'
S'DOUBLE'
S'THIRD'
S'x'
S'y'
tp399
sg27
g28
sg293
L4L
sg294
(I3
I6
I4
I3
tp400
sg22
I1
sg20
F5.0500048182439059
sg23
F6.6500292798737064
sVY
L2L
sVX
L9L
sg296
g339
sg35
g36
sg37
g38
sg21
S'3'
sg19
S'space'
p401
sg34
g11
sg298
L3L
sg299
g337
sg301
L3L
sS'block.thisIndex'
p402
I13
sg303
g300
sg305
g314
sg306
g318
sa(dp403
S'block.thisTrialN'
p404
I11
sS'block.thisRepN'
p405
I0
sg29
g33
sS'block.thisN'
p406
I11
sg291
(S'HALF'
S'INCREASE'
S'TIMES'
S'x'
S'y'
tp407
sg27
g28
sg293
L3L
sg294
(I9
I10
I5
tp408
sg22
I1
sg20
F3.1333579660858959
sg23
F3.1834189492510632
sVY
L3L
sVX
L3L
sg296
g328
sg35
g36
sg37
g38
sg21
S'5'
sg19
S'space'
p409
sg34
g11
sg298
L5L
sg299
g327
sg301
L5L
sS'block.thisIndex'
p410
I9
sg303
g317
sg305
L0L
sg306
VUUBxy
p411
sa(dp412
S'block.thisTrialN'
p413
I12
sS'block.thisRepN'
p414
I0
sg29
g33
sS'block.thisN'
p415
I12
sg291
(S'ADD'
S'DECREASE'
S'THIRD'
S'DOUBLE'
S'x'
S'y'
tp416
sg27
g28
sg293
L4L
sg294
(I18
I6
I5
I9
tp417
sg22
I1
sg20
F2.08339876413811
sg23
F4.5500199286034331
sVY
L4L
sVX
L9L
sg296
g314
sg35
g36
sg37
g38
sg21
S'9'
sg19
S'space'
p418
sg34
g11
sg298
L9L
sg299
g300
sg301
L9L
sS'block.thisIndex'
p419
I10
sg303
g304
sg305
g339
sg306
g394
sa(dp420
S'block.thisTrialN'
p421
I13
sS'block.thisRepN'
p422
I0
sg29
g33
sS'block.thisN'
p423
I13
sg291
(S'THIRD'
S'HALF'
S'INCREASE'
S'SUBTRACT'
S'x'
S'y'
tp424
sg27
g28
sg293
L4L
sg294
(I5
I6
I3
I1
tp425
sg22
I1
sg20
F6.3333102400647476
sg23
F14.999810977722518
sVY
L2L
sVX
L7L
sg296
g327
sg35
g36
sg37
g38
sg21
S'1'
sg19
S'space'
p426
sg34
g11
sg298
L1L
sg299
g317
sg301
L1L
sS'block.thisIndex'
p427
I17
sg303
g314
sg305
g337
sg306
g329
sa(dp428
S'block.thisTrialN'
p429
I14
sS'block.thisRepN'
p430
I0
sg29
g33
sS'block.thisN'
p431
I14
sg291
(S'DOUBLE'
S'THIRD'
S'ADD'
S'x'
S'y'
tp432
sg27
g28
sg293
L3L
sg294
(I9
I3
I6
tp433
sg22
I1
sg20
F3.9833586218301207
sg23
F5.3000289092306048
sVY
L4L
sVX
L5L
sg296
g304
sg35
g36
sg37
g38
sg21
S'6'
sg19
S'space'
p434
sg34
g11
sg298
L6L
sg299
g314
sg301
L6L
sS'block.thisIndex'
p435
I8
sg303
g339
sg305
L0L
sg306
g411
sa(dp436
S'block.thisTrialN'
p437
I15
sS'block.thisRepN'
p438
I0
sg29
g33
sS'block.thisN'
p439
I15
sg291
(S'DECREASE'
S'TIMES'
S'x'
S'y'
tp440
sg27
g28
sg293
L2L
sg294
(I9
I8
tp441
sg22
I1
sg20
F2.1833930050488561
sg23
F1.5834586354903877
sVY
L3L
sVX
L3L
sg296
L0L
sg35
g36
sg37
g38
sg21
S'8'
sg19
S'space'
p442
sg34
g11
sg298
L8L
sg299
g328
sg301
L8L
sS'block.thisIndex'
p443
I2
sg303
g300
sg305
L0L
sg306
g358
sa(dp444
S'block.thisTrialN'
p445
I16
sS'block.thisRepN'
p446
I0
sg29
g33
sS'block.thisN'
p447
I16
sg291
(S'DECREASE'
S'TRIPLE'
S'SUBTRACT'
S'DOUBLE'
S'x'
S'y'
tp448
sg27
g28
sg293
L4L
sg294
(I6
I3
I9
I8
tp449
sg22
I0
sg20
F9.7831260929815471
sg23
F8.5666042864322662
sVY
L3L
sVX
L3L
sg296
g337
sg35
g36
sg37
g38
sg21
S'2'
sg19
S'space'
p450
sg34
g11
sg298
L8L
sg299
g392
sg301
L8L
sS'block.thisIndex'
p451
I15
sg303
g300
sg305
g339
sg306
g375
sa(dp452
S'block.thisTrialN'
p453
I17
sS'block.thisRepN'
p454
I0
sg29
g33
sS'block.thisN'
p455
I17
sg291
(S'ADD'
S'TRIPLE'
S'HALF'
S'x'
S'y'
tp456
sg27
g28
sg293
L3L
sg294
(I2
I6
I8
tp457
sg22
I1
sg20
F1.9333954284666106
sg23
F2.4666992822894827
sVY
L2L
sVX
L4L
sg296
g317
sg35
g36
sg37
g38
sg21
S'8'
sg19
S'space'
p458
sg34
g11
sg298
L8L
sg299
g392
sg301
L8L
sS'block.thisIndex'
p459
I5
sg303
g304
sg305
L0L
sg306
g384
sa(dp460
S'block.thisTrialN'
p461
I0
sS'block.thisRepN'
p462
I0
sg29
g33
sS'block.thisN'
p463
I0
sVRule
p464
(S'TIMES'
S'INCREASE'
S'x'
S'y'
tp465
sg27
g28
sVLength
p466
L2L
sVIntermediate
p467
(I3
I6
tp468
sg22
I1
sg20
F2.1667239720700309
sg23
F2.8167381415842101
sVY
L2L
sVX
L2L
sVOperatorc
p469
L0L
sg35
g36
sg37
g38
sg21
S'6'
sg19
S'space'
p470
sg34
g11
sVResult
p471
L6L
sVOperatora
p472
Vincrease
p473
sVCorrectResponse
p474
L6L
sS'block.thisIndex'
p475
I1
sVOperatorb
p476
VTIMES
p477
sVOperatord
p478
L0L
sVStructure
p479
VBUxy
p480
sa(dp481
S'block.thisTrialN'
p482
I1
sS'block.thisRepN'
p483
I0
sg29
g33
sS'block.thisN'
p484
I1
sg464
(S'TRIPLE'
S'SUBTRACT'
S'DOUBLE'
S'DECREASE'
S'x'
S'y'
tp485
sg27
g28
sg466
L4L
sg467
(I2
I4
I1
I3
tp486
sg22
I1
sg20
F5.6166789545677602
sg23
F5.0666866808896884
sVY
L3L
sVX
L3L
sg469
Vdouble
p487
sg35
g36
sg37
g38
sg21
S'3'
sg19
S'space'
p488
sg34
g11
sg471
L3L
sg472
VSUBTRACT
p489
sg474
L3L
sS'block.thisIndex'
p490
I13
sg476
Vtriple
p491
sg478
Vdecrease
p492
sg479
VUBUUxy
p493
sa(dp494
S'block.thisTrialN'
p495
I2
sS'block.thisRepN'
p496
I0
sg29
g33
sS'block.thisN'
p497
I2
sg464
(S'THIRD'
S'INCREASE'
S'HALF'
S'DIVIDE'
S'x'
S'y'
tp498
sg27
g28
sg466
L4L
sg467
(I4
I2
I3
I1
tp499
sg22
I1
sg20
F8.6999428656417876
sg23
F4.3000368921784684
sVY
L2L
sVX
L8L
sg469
Vhalf
p500
sg35
g36
sg37
g38
sg21
S'1'
sg19
S'space'
p501
sg34
g11
sg471
L1L
sg472
g473
sg474
L1L
sS'block.thisIndex'
p502
I16
sg476
Vthird
p503
sg478
VDIVIDE
p504
sg479
VUUUBxy
p505
sa(dp506
S'block.thisTrialN'
p507
I3
sS'block.thisRepN'
p508
I0
sg29
g33
sS'block.thisN'
p509
I3
sg464
(S'INCREASE'
S'DIVIDE'
S'TRIPLE'
S'DOUBLE'
S'x'
S'y'
tp510
sg27
g28
sg466
L4L
sg467
(I6
I18
I3
I4
tp511
sg22
I1
sg20
F6.8166357901645824
sg23
F5.8166451985016465
sVY
L6L
sVX
L3L
sg469
g491
sg35
g36
sg37
g38
sg21
S'4'
sg19
S'space'
p512
sg34
g11
sg471
L4L
sg472
g504
sg474
L4L
sS'block.thisIndex'
p513
I12
sg476
g473
sg478
g487
sg479
g493
sa(dp514
S'block.thisTrialN'
p515
I4
sS'block.thisRepN'
p516
I0
sg29
g33
sS'block.thisN'
p517
I4
sg464
(S'TIMES'
S'DECREASE'
S'x'
S'y'
tp518
sg27
g28
sg466
L2L
sg467
(I2
I4
tp519
sg22
I1
sg20
F2.050117148202844
sg23
F1.833331337547861
sVY
L2L
sVX
L3L
sg469
L0L
sg35
g36
sg37
g38
sg21
S'4'
sg19
S'space'
p520
sg34
g11
sg471
L4L
sg472
g492
sg474
L4L
sS'block.thisIndex'
p521
I0
sg476
g477
sg478
L0L
sg479
g480
sa(dp522
S'block.thisTrialN'
p523
I5
sS'block.thisRepN'
p524
I0
sg29
g33
sS'block.thisN'
p525
I5
sg464
(S'THIRD'
S'DOUBLE'
S'ADD'
S'INCREASE'
S'x'
S'y'
tp526
sg27
g28
sg466
L4L
sg467
(I10
I12
I24
I8
tp527
sg22
I1
sg20
F6.9999144694302231
sg23
F5.833361558499746
sVY
L2L
sVX
L9L
sg469
VADD
p528
sg35
g36
sg37
g38
sg21
S'8'
sg19
S'space'
p529
sg34
g11
sg471
L8L
sg472
g487
sg474
L8L
sS'block.thisIndex'
p530
I14
sg476
g503
sg478
g473
sg479
VUUBUxy
p531
sa(dp532
S'block.thisTrialN'
p533
I6
sS'block.thisRepN'
p534
I0
sg29
g33
sS'block.thisN'
p535
I6
sg464
(S'TRIPLE'
S'HALF'
S'ADD'
S'DECREASE'
S'x'
S'y'
tp536
sg27
g28
sg466
L4L
sg467
(I1
I4
I2
I6
tp537
sg22
I0
sg20
F7.2499345692340285
sg23
F14.949841512017883
sVY
L3L
sVX
L2L
sg469
g528
sg35
g36
sg37
g38
sg21
S'9'
sg19
S'space'
p538
sg34
g11
sg471
L6L
sg472
g500
sg474
L6L
sS'block.thisIndex'
p539
I15
sg476
g491
sg478
g492
sg479
g531
sa(dp540
S'block.thisTrialN'
p541
I7
sS'block.thisRepN'
p542
I0
sg29
g33
sS'block.thisN'
p543
I7
sg464
(S'TIMES'
S'DECREASE'
S'HALF'
S'x'
S'y'
tp544
sg27
g28
sg466
L3L
sg467
(I4
I3
I9
tp545
sg22
I1
sg20
F2.7333787214010954
sg23
F3.2501027791295201
sVY
L3L
sVX
L8L
sg469
g500
sg35
g36
sg37
g38
sg21
S'9'
sg19
S'space'
p546
sg34
g11
sg471
L9L
sg472
g492
sg474
L9L
sS'block.thisIndex'
p547
I4
sg476
g477
sg478
L0L
sg479
VBUUxy
p548
sa(dp549
S'block.thisTrialN'
p550
I8
sS'block.thisRepN'
p551
I0
sg29
g33
sS'block.thisN'
p552
I8
sg464
(S'TRIPLE'
S'DECREASE'
S'HALF'
S'TIMES'
S'x'
S'y'
tp553
sg27
g28
sg466
L4L
sg467
(I6
I3
I2
I6
tp554
sg22
I1
sg20
F8.4332708390429616
sg23
F5.7666868518572301
sVY
L2L
sVX
L3L
sg469
g500
sg35
g36
sg37
g38
sg21
S'6'
sg19
S'space'
p555
sg34
g11
sg471
L6L
sg472
g492
sg474
L6L
sS'block.thisIndex'
p556
I17
sg476
g491
sg478
g477
sg479
g505
sa(dp557
S'block.thisTrialN'
p558
I9
sS'block.thisRepN'
p559
I0
sg29
g33
sS'block.thisN'
p560
I9
sg464
(S'THIRD'
S'ADD'
S'x'
S'y'
tp561
sg27
g28
sg466
L2L
sg467
(I9
I3
tp562
sg22
I1
sg20
F0.96675003028940409
sg23
F1.7334494267124683
sVY
L5L
sVX
L4L
sg469
L0L
sg35
g36
sg37
g38
sg21
S'3'
sg19
S'space'
p563
sg34
g11
sg471
L3L
sg472
g528
sg474
L3L
sS'block.thisIndex'
p564
I2
sg476
g503
sg478
L0L
sg479
VUBxy
p565
sa(dp566
S'block.thisTrialN'
p567
I10
sS'block.thisRepN'
p568
I0
sg29
g33
sS'block.thisN'
p569
I10
sg464
(S'TIMES'
S'INCREASE'
S'THIRD'
S'DOUBLE'
S'x'
S'y'
tp570
sg27
g28
sg466
L4L
sg467
(I6
I2
I3
I9
tp571
sg22
I1
sg20
F3.6333710808539763
sg23
F6.5333144025644287
sVY
L3L
sVX
L3L
sg469
g503
sg35
g36
sg37
g38
sg21
S'9'
sg19
S'space'
p572
sg34
g11
sg471
L9L
sg472
g473
sg474
L9L
sS'block.thisIndex'
p573
I11
sg476
g477
sg478
g487
sg479
VBUUUxy
p574
sa(dp575
S'block.thisTrialN'
p576
I11
sS'block.thisRepN'
p577
I0
sg29
g33
sS'block.thisN'
p578
I11
sg464
(S'TRIPLE'
S'HALF'
S'DIVIDE'
S'x'
S'y'
tp579
sg27
g28
sg466
L3L
sg467
(I2
I1
I3
tp580
sg22
I1
sg20
F1.2500825368333608
sg23
F3.5000821092398837
sVY
L2L
sVX
L4L
sg469
g504
sg35
g36
sg37
g38
sg21
S'3'
sg19
S'space'
p581
sg34
g11
sg471
L3L
sg472
g500
sg474
L3L
sS'block.thisIndex'
p582
I9
sg476
g491
sg478
L0L
sg479
VUUBxy
p583
sa(dp584
S'block.thisTrialN'
p585
I12
sS'block.thisRepN'
p586
I0
sg29
g33
sS'block.thisN'
p587
I12
sg464
(S'THIRD'
S'SUBTRACT'
S'x'
S'y'
tp588
sg27
g28
sg466
L2L
sg467
(I3
I1
tp589
sg22
I1
sg20
F1.6667510566767305
sg23
F1.9667414772557095
sVY
L2L
sVX
L5L
sg469
L0L
sg35
g36
sg37
g38
sg21
S'1'
sg19
S'space'
p590
sg34
g11
sg471
L1L
sg472
g489
sg474
L1L
sS'block.thisIndex'
p591
I3
sg476
g503
sg478
L0L
sg479
g565
sa(dp592
S'block.thisTrialN'
p593
I13
sS'block.thisRepN'
p594
I0
sg29
g33
sS'block.thisN'
p595
I13
sg464
(S'THIRD'
S'DECREASE'
S'TIMES'
S'x'
S'y'
tp596
sg27
g28
sg466
L3L
sg467
(I25
I24
I8
tp597
sg22
I1
sg20
F2.3667167305247858
sg23
F3.4500527722993866
sVY
L5L
sVX
L5L
sg469
g477
sg35
g36
sg37
g38
sg21
S'8'
sg19
S'space'
p598
sg34
g11
sg471
L8L
sg472
g492
sg474
L8L
sS'block.thisIndex'
p599
I8
sg476
g503
sg478
L0L
sg479
g583
sa(dp600
S'block.thisTrialN'
p601
I14
sS'block.thisRepN'
p602
I0
sg29
g33
sS'block.thisN'
p603
I14
sg464
(S'THIRD'
S'ADD'
S'INCREASE'
S'x'
S'y'
tp604
sg27
g28
sg466
L3L
sg467
(I8
I15
I5
tp605
sg22
I1
sg20
F1.5501026080455631
sg23
F3.7000774336047471
sVY
L7L
sVX
L7L
sg469
g473
sg35
g36
sg37
g38
sg21
S'5'
sg19
S'space'
p606
sg34
g11
sg471
L5L
sg472
g528
sg474
L5L
sS'block.thisIndex'
p607
I6
sg476
g503
sg478
L0L
sg479
VUBUxy
p608
sa(dp609
S'block.thisTrialN'
p610
I15
sS'block.thisRepN'
p611
I0
sg29
g33
sS'block.thisN'
p612
I15
sg464
(S'TIMES'
S'THIRD'
S'HALF'
S'x'
S'y'
tp613
sg27
g28
sg466
L3L
sg467
(I3
I1
I5
tp614
sg22
I1
sg20
F1.3166768447263166
sg23
F3.9833671749802306
sVY
L5L
sVX
L6L
sg469
g500
sg35
g36
sg37
g38
sg21
S'5'
sg19
S'space'
p615
sg34
g11
sg471
L5L
sg472
g503
sg474
L5L
sS'block.thisIndex'
p616
I5
sg476
g477
sg478
L0L
sg479
g548
sa(dp617
S'block.thisTrialN'
p618
I16
sS'block.thisRepN'
p619
I0
sg29
g33
sS'block.thisN'
p620
I16
sg464
(S'THIRD'
S'TIMES'
S'DECREASE'
S'x'
S'y'
tp621
sg27
g28
sg466
L3L
sg467
(I3
I15
I5
tp622
sg22
I1
sg20
F2.1167148773092777
sg23
F4.1333764976589009
sVY
L5L
sVX
L4L
sg469
g492
sg35
g36
sg37
g38
sg21
S'5'
sg19
S'space'
p623
sg34
g11
sg471
L5L
sg472
g477
sg474
L5L
sS'block.thisIndex'
p624
I7
sg476
g503
sg478
L0L
sg479
g608
sa(dp625
S'block.thisTrialN'
p626
I17
sS'block.thisRepN'
p627
I0
sg29
g33
sS'block.thisN'
p628
I17
sg464
(S'SUBTRACT'
S'HALF'
S'INCREASE'
S'TRIPLE'
S'x'
S'y'
tp629
sg27
g28
sg466
L4L
sg467
(I15
I16
I8
I3
tp630
sg22
I0
sg20
F3.1167345494031906
sg23
F7.4166420054389164
sVY
L5L
sVX
L5L
sg469
g473
sg35
g36
sg37
g38
sg21
S'4'
sg19
S'space'
p631
sg34
g11
sg471
L3L
sg472
g500
sg474
L3L
sS'block.thisIndex'
p632
I10
sg476
g489
sg478
g491
sg479
g574
sa(dp633
S'block.thisTrialN'
p634
I0
sS'block.thisRepN'
p635
I0
sg29
g33
sS'block.thisN'
p636
I0
sVRule
p637
(S'TIMES'
S'THIRD'
S'DOUBLE'
S'x'
S'y'
tp638
sg27
g28
sVLength
p639
L3L
sVIntermediate
p640
(I6
I2
I4
tp641
sg22
I1
sg20
F2.1334147013258189
sg23
F3.6000344402855262
sVY
L2L
sVX
L3L
sVOperatorc
p642
Vdouble
p643
sg35
g36
sg37
g38
sg21
S'4'
sg19
S'space'
p644
sg34
g11
sVResult
p645
L4L
sVOperatora
p646
Vthird
p647
sVCorrectResponse
p648
L4L
sS'block.thisIndex'
p649
I5
sVOperatorb
p650
VTIMES
p651
sVOperatord
p652
L0L
sVStructure
p653
VBUUxy
p654
sa(dp655
S'block.thisTrialN'
p656
I1
sS'block.thisRepN'
p657
I0
sg29
g33
sS'block.thisN'
p658
I1
sg637
(S'DOUBLE'
S'ADD'
S'x'
S'y'
tp659
sg27
g28
sg639
L2L
sg640
(I4
I8
tp660
sg22
I1
sg20
F1.1834249364910647
sg23
F1.8500582462875172
sVY
L2L
sVX
L2L
sg642
L0L
sg35
g36
sg37
g38
sg21
S'8'
sg19
S'space'
p661
sg34
g11
sg645
L8L
sg646
VADD
p662
sg648
L8L
sS'block.thisIndex'
p663
I2
sg650
g643
sg652
L0L
sg653
VUBxy
p664
sa(dp665
S'block.thisTrialN'
p666
I2
sS'block.thisRepN'
p667
I0
sg29
g33
sS'block.thisN'
p668
I2
sg637
(S'DECREASE'
S'TRIPLE'
S'HALF'
S'ADD'
S'x'
S'y'
tp669
sg27
g28
sg639
L4L
sg640
(I6
I3
I9
I8
tp670
sg22
I1
sg20
F4.7833424850832671
sg23
F4.4167392250383273
sVY
L2L
sVX
L4L
sg642
Vhalf
p671
sg35
g36
sg37
g38
sg21
S'8'
sg19
S'space'
p672
sg34
g11
sg645
L8L
sg646
Vtriple
p673
sg648
L8L
sS'block.thisIndex'
p674
I16
sg650
Vdecrease
p675
sg652
g662
sg653
VUUUBxy
p676
sa(dp677
S'block.thisTrialN'
p678
I3
sS'block.thisRepN'
p679
I0
sg29
g33
sS'block.thisN'
p680
I3
sg637
(S'DOUBLE'
S'TIMES'
S'x'
S'y'
tp681
sg27
g28
sg639
L2L
sg640
(I4
I8
tp682
sg22
I1
sg20
F0.98342790151946247
sg23
F1.7667584123555571
sVY
L2L
sVX
L2L
sg642
L0L
sg35
g36
sg37
g38
sg21
S'8'
sg19
S'space'
p683
sg34
g11
sg645
L8L
sg646
g651
sg648
L8L
sS'block.thisIndex'
p684
I3
sg650
g643
sg652
L0L
sg653
g664
sa(dp685
S'block.thisTrialN'
p686
I4
sS'block.thisRepN'
p687
I0
sg29
g33
sS'block.thisN'
p688
I4
sg637
(S'SUBTRACT'
S'INCREASE'
S'x'
S'y'
tp689
sg27
g28
sg639
L2L
sg640
(I6
I2
tp690
sg22
I1
sg20
F1.6166187981143594
sg23
F3.3334143022075295
sVY
L4L
sVX
L5L
sg642
L0L
sg35
g36
sg37
g38
sg21
S'2'
sg19
S'space'
p691
sg34
g11
sg645
L2L
sg646
Vincrease
p692
sg648
L2L
sS'block.thisIndex'
p693
I1
sg650
VSUBTRACT
p694
sg652
L0L
sg653
VBUxy
p695
sa(dp696
S'block.thisTrialN'
p697
I5
sS'block.thisRepN'
p698
I0
sg29
g33
sS'block.thisN'
p699
I5
sg637
(S'DIVIDE'
S'DOUBLE'
S'INCREASE'
S'THIRD'
S'x'
S'y'
tp700
sg27
g28
sg639
L4L
sg640
(I2
I3
I6
I2
tp701
sg22
I1
sg20
F3.6167034732643515
sg23
F7.0333243811037391
sVY
L3L
sVX
L6L
sg642
g692
sg35
g36
sg37
g38
sg21
S'2'
sg19
S'space'
p702
sg34
g11
sg645
L2L
sg646
g643
sg648
L2L
sS'block.thisIndex'
p703
I10
sg650
VDIVIDE
p704
sg652
g647
sg653
VBUUUxy
p705
sa(dp706
S'block.thisTrialN'
p707
I6
sS'block.thisRepN'
p708
I0
sg29
g33
sS'block.thisN'
p709
I6
sg637
(S'INCREASE'
S'ADD'
S'TRIPLE'
S'x'
S'y'
tp710
sg27
g28
sg639
L3L
sg640
(I6
I8
I9
tp711
sg22
I1
sg20
F2.1667633161414415
sg23
F3.1167305578710511
sVY
L2L
sVX
L2L
sg642
g673
sg35
g36
sg37
g38
sg21
S'9'
sg19
S'space'
p712
sg34
g11
sg645
L9L
sg646
g662
sg648
L9L
sS'block.thisIndex'
p713
I6
sg650
g692
sg652
L0L
sg653
VUBUxy
p714
sa(dp715
S'block.thisTrialN'
p716
I7
sS'block.thisRepN'
p717
I0
sg29
g33
sS'block.thisN'
p718
I7
sg637
(S'INCREASE'
S'DIVIDE'
S'TRIPLE'
S'HALF'
S'x'
S'y'
tp719
sg27
g28
sg639
L4L
sg640
(I2
I6
I2
I3
tp720
sg22
I1
sg20
F3.0834004747448489
sg23
F5.6666877642273903
sVY
L3L
sVX
L4L
sg642
g673
sg35
g36
sg37
g38
sg21
S'3'
sg19
S'space'
p721
sg34
g11
sg645
L3L
sg646
g704
sg648
L3L
sS'block.thisIndex'
p722
I12
sg650
g692
sg652
g671
sg653
VUBUUxy
p723
sa(dp724
S'block.thisTrialN'
p725
I8
sS'block.thisRepN'
p726
I0
sg29
g33
sS'block.thisN'
p727
I8
sg637
(S'DECREASE'
S'TRIPLE'
S'DIVIDE'
S'x'
S'y'
tp728
sg27
g28
sg639
L3L
sg640
(I2
I6
I5
tp729
sg22
I1
sg20
F2.4835906944936141
sg23
F3.266745297703892
sVY
L4L
sVX
L8L
sg642
g704
sg35
g36
sg37
g38
sg21
S'5'
sg19
S'space'
p730
sg34
g11
sg645
L5L
sg646
g673
sg648
L5L
sS'block.thisIndex'
p731
I8
sg650
g675
sg652
L0L
sg653
VUUBxy
p732
sa(dp733
S'block.thisTrialN'
p734
I9
sS'block.thisRepN'
p735
I0
sg29
g33
sS'block.thisN'
p736
I9
sg637
(S'DIVIDE'
S'TRIPLE'
S'HALF'
S'x'
S'y'
tp737
sg27
g28
sg639
L3L
sg640
(I4
I12
I4
tp738
sg22
I1
sg20
F1.3334123063832521
sg23
F5.883376355166547
sVY
L3L
sVX
L8L
sg642
g671
sg35
g36
sg37
g38
sg21
S'4'
sg19
S'space'
p739
sg34
g11
sg645
L4L
sg646
g673
sg648
L4L
sS'block.thisIndex'
p740
I4
sg650
g704
sg652
L0L
sg653
g654
sa(dp741
S'block.thisTrialN'
p742
I10
sS'block.thisRepN'
p743
I0
sg29
g33
sS'block.thisN'
p744
I10
sg637
(S'TRIPLE'
S'DOUBLE'
S'SUBTRACT'
S'DECREASE'
S'x'
S'y'
tp745
sg27
g28
sg639
L4L
sg640
(I4
I1
I2
I6
tp746
sg22
I0
sg20
F3.933368913945742
sg23
F12.116531557054259
sVY
L3L
sVX
L5L
sg642
g694
sg35
g36
sg37
g38
sg21
S'4'
sg19
S'space'
p747
sg34
g11
sg645
L6L
sg646
g643
sg648
L6L
sS'block.thisIndex'
p748
I15
sg650
g673
sg652
g675
sg653
VUUBUxy
p749
sa(dp750
S'block.thisTrialN'
p751
I11
sS'block.thisRepN'
p752
I0
sg29
g33
sS'block.thisN'
p753
I11
sg637
(S'THIRD'
S'TIMES'
S'HALF'
S'INCREASE'
S'x'
S'y'
tp754
sg27
g28
sg639
L4L
sg640
(I8
I4
I12
I4
tp755
sg22
I1
sg20
F7.549983435543254
sg23
F4.8000311901560053
sVY
L3L
sVX
L7L
sg642
g671
sg35
g36
sg37
g38
sg21
S'4'
sg19
S'space'
p756
sg34
g11
sg645
L4L
sg646
g651
sg648
L4L
sS'block.thisIndex'
p757
I13
sg650
g647
sg652
g692
sg653
g723
sa(dp758
S'block.thisTrialN'
p759
I12
sS'block.thisRepN'
p760
I0
sg29
g33
sS'block.thisN'
p761
I12
sg637
(S'INCREASE'
S'SUBTRACT'
S'THIRD'
S'x'
S'y'
tp762
sg27
g28
sg639
L3L
sg640
(I3
I1
I2
tp763
sg22
I1
sg20
F1.5832955574151129
sg23
F5.3833871890092269
sVY
L2L
sVX
L9L
sg642
g647
sg35
g36
sg37
g38
sg21
S'2'
sg19
S'space'
p764
sg34
g11
sg645
L2L
sg646
g694
sg648
L2L
sS'block.thisIndex'
p765
I7
sg650
g692
sg652
L0L
sg653
g714
sa(dp766
S'block.thisTrialN'
p767
I13
sS'block.thisRepN'
p768
I0
sg29
g33
sS'block.thisN'
p769
I13
sg637
(S'ADD'
S'THIRD'
S'x'
S'y'
tp770
sg27
g28
sg639
L2L
sg640
(I1
I7
tp771
sg22
I1
sg20
F0.88342197134625167
sg23
F2.0834255636436865
sVY
L6L
sVX
L3L
sg642
L0L
sg35
g36
sg37
g38
sg21
S'7'
sg19
S'space'
p772
sg34
g11
sg645
L7L
sg646
g647
sg648
L7L
sS'block.thisIndex'
p773
I0
sg650
g662
sg652
L0L
sg653
g695
sa(dp774
S'block.thisTrialN'
p775
I14
sS'block.thisRepN'
p776
I0
sg29
g33
sS'block.thisN'
p777
I14
sg637
(S'TIMES'
S'INCREASE'
S'HALF'
S'TRIPLE'
S'x'
S'y'
tp778
sg27
g28
sg639
L4L
sg640
(I6
I3
I4
I8
tp779
sg22
I1
sg20
F2.7167481771903113
sg23
F4.1833998475922272
sVY
L2L
sVX
L2L
sg642
g671
sg35
g36
sg37
g38
sg21
S'8'
sg19
S'space'
p780
sg34
g11
sg645
L8L
sg646
g692
sg648
L8L
sS'block.thisIndex'
p781
I11
sg650
g651
sg652
g673
sg653
g705
sa(dp782
S'block.thisTrialN'
p783
I15
sS'block.thisRepN'
p784
I0
sg29
g33
sS'block.thisN'
p785
I15
sg637
(S'THIRD'
S'INCREASE'
S'ADD'
S'DOUBLE'
S'x'
S'y'
tp786
sg27
g28
sg639
L4L
sg640
(I16
I20
I21
I7
tp787
sg22
I1
sg20
F4.0000433354871348
sg23
F7.8666411786107346
sVY
L4L
sVX
L8L
sg642
g662
sg35
g36
sg37
g38
sg21
S'7'
sg19
S'space'
p788
sg34
g11
sg645
L7L
sg646
g692
sg648
L7L
sS'block.thisIndex'
p789
I14
sg650
g647
sg652
g643
sg653
g749
sa(dp790
S'block.thisTrialN'
p791
I16
sS'block.thisRepN'
p792
I0
sg29
g33
sS'block.thisN'
p793
I16
sg637
(S'TRIPLE'
S'DECREASE'
S'HALF'
S'SUBTRACT'
S'x'
S'y'
tp794
sg27
g28
sg639
L4L
sg640
(I4
I2
I1
I3
tp795
sg22
I1
sg20
F3.9000220098532736
sg23
F3.8167258822359145
sVY
L5L
sVX
L9L
sg642
g671
sg35
g36
sg37
g38
sg21
S'3'
sg19
S'space'
p796
sg34
g11
sg645
L3L
sg646
g675
sg648
L3L
sS'block.thisIndex'
p797
I17
sg650
g673
sg652
g694
sg653
g676
sa(dp798
S'block.thisTrialN'
p799
I17
sS'block.thisRepN'
p800
I0
sg29
g33
sS'block.thisN'
p801
I17
sg637
(S'THIRD'
S'INCREASE'
S'SUBTRACT'
S'x'
S'y'
tp802
sg27
g28
sg639
L3L
sg640
(I2
I3
I1
tp803
sg22
I1
sg20
F2.616605113260448
sg23
F2.91673494852148
sVY
L6L
sVX
L8L
sg642
g694
sg35
g36
sg37
g38
sg21
S'1'
sg19
S'space'
p804
sg34
g11
sg645
L1L
sg646
g692
sg648
L1L
sS'block.thisIndex'
p805
I9
sg650
g647
sg652
L0L
sg653
g732
sa(dp806
S'block.thisTrialN'
p807
I0
sS'block.thisRepN'
p808
I0
sg29
g33
sS'block.thisN'
p809
I0
sVRule
p810
(S'DOUBLE'
S'ADD'
S'INCREASE'
S'THIRD'
S'x'
S'y'
tp811
sg27
g28
sVLength
p812
L4L
sVIntermediate
p813
(I1
I2
I4
I8
tp814
sg22
I1
sg20
F2.0833731050370261
sg23
F6.3165830463403836
sVY
L2L
sVX
L3L
sVOperatorc
p815
Vincrease
p816
sg35
g36
sg37
g38
sg21
S'8'
sg19
S'space'
p817
sg34
g11
sVResult
p818
L8L
sVOperatora
p819
VADD
p820
sVCorrectResponse
p821
L8L
sS'block.thisIndex'
p822
I12
sVOperatorb
p823
Vdouble
p824
sVOperatord
p825
Vthird
p826
sVStructure
p827
VUBUUxy
p828
sa(dp829
S'block.thisTrialN'
p830
I1
sS'block.thisRepN'
p831
I0
sg29
g33
sS'block.thisN'
p832
I1
sg810
(S'DIVIDE'
S'INCREASE'
S'x'
S'y'
tp833
sg27
g28
sg812
L2L
sg813
(I4
I2
tp834
sg22
I1
sg20
F2.1832886579213664
sg23
F1.7501158937811852
sVY
L2L
sVX
L3L
sg815
L0L
sg35
g36
sg37
g38
sg21
S'2'
sg19
S'space'
p835
sg34
g11
sg818
L2L
sg819
g816
sg821
L2L
sS'block.thisIndex'
p836
I0
sg823
VDIVIDE
p837
sg825
L0L
sg827
VBUxy
p838
sa(dp839
S'block.thisTrialN'
p840
I2
sS'block.thisRepN'
p841
I0
sg29
g33
sS'block.thisN'
p842
I2
sg810
(S'THIRD'
S'DOUBLE'
S'INCREASE'
S'TIMES'
S'x'
S'y'
tp843
sg27
g28
sg812
L4L
sg813
(I8
I9
I18
I6
tp844
sg22
I0
sg20
F4.7000221238704398
sg23
F5.0669301575981081
sVY
L4L
sVX
L2L
sg815
g816
sg35
g36
sg37
g38
sg21
S'4'
sg19
S'space'
p845
sg34
g11
sg818
L6L
sg819
g824
sg821
L6L
sS'block.thisIndex'
p846
I17
sg823
g826
sg825
VTIMES
p847
sg827
VUUUBxy
p848
sa(dp849
S'block.thisTrialN'
p850
I3
sS'block.thisRepN'
p851
I0
sg29
g33
sS'block.thisN'
p852
I3
sg810
(S'SUBTRACT'
S'DECREASE'
S'x'
S'y'
tp853
sg27
g28
sg812
L2L
sg813
(I5
I3
tp854
sg22
I1
sg20
F1.2168123250594363
sg23
F3.1167359749088064
sVY
L2L
sVX
L6L
sg815
L0L
sg35
g36
sg37
g38
sg21
S'3'
sg19
S'space'
p855
sg34
g11
sg818
L3L
sg819
Vdecrease
p856
sg821
L3L
sS'block.thisIndex'
p857
I1
sg823
VSUBTRACT
p858
sg825
L0L
sg827
g838
sa(dp859
S'block.thisTrialN'
p860
I4
sS'block.thisRepN'
p861
I0
sg29
g33
sS'block.thisN'
p862
I4
sg810
(S'INCREASE'
S'SUBTRACT'
S'HALF'
S'x'
S'y'
tp863
sg27
g28
sg812
L3L
sg813
(I4
I2
I3
tp864
sg22
I1
sg20
F1.6667402228340507
sg23
F3.3500548249576241
sVY
L2L
sVX
L8L
sg815
Vhalf
p865
sg35
g36
sg37
g38
sg21
S'3'
sg19
S'space'
p866
sg34
g11
sg818
L3L
sg819
g858
sg821
L3L
sS'block.thisIndex'
p867
I7
sg823
g816
sg825
L0L
sg827
VUBUxy
p868
sa(dp869
S'block.thisTrialN'
p870
I5
sS'block.thisRepN'
p871
I0
sg29
g33
sS'block.thisN'
p872
I5
sg810
(S'THIRD'
S'HALF'
S'ADD'
S'x'
S'y'
tp873
sg27
g28
sg812
L3L
sg813
(I6
I3
I1
tp874
sg22
I1
sg20
F2.5667551051592454
sg23
F3.0500527152325958
sVY
L3L
sVX
L3L
sg815
g820
sg35
g36
sg37
g38
sg21
S'1'
sg19
S'space'
p875
sg34
g11
sg818
L1L
sg819
g865
sg821
L1L
sS'block.thisIndex'
p876
I9
sg823
g826
sg825
L0L
sg827
VUUBxy
p877
sa(dp878
S'block.thisTrialN'
p879
I6
sS'block.thisRepN'
p880
I0
sg29
g33
sS'block.thisN'
p881
I6
sg810
(S'INCREASE'
S'ADD'
S'x'
S'y'
tp882
sg27
g28
sg812
L2L
sg813
(I5
I6
tp883
sg22
I1
sg20
F1.1834183791652322
sg23
F2.4167705862782896
sVY
L2L
sVX
L3L
sg815
L0L
sg35
g36
sg37
g38
sg21
S'6'
sg19
S'space'
p884
sg34
g11
sg818
L6L
sg819
g820
sg821
L6L
sS'block.thisIndex'
p885
I3
sg823
g816
sg825
L0L
sg827
VUBxy
p886
sa(dp887
S'block.thisTrialN'
p888
I7
sS'block.thisRepN'
p889
I0
sg29
g33
sS'block.thisN'
p890
I7
sg810
(S'DIVIDE'
S'DECREASE'
S'TRIPLE'
S'x'
S'y'
tp891
sg27
g28
sg812
L3L
sg813
(I9
I8
I4
tp892
sg22
I1
sg20
F3.1000381466001272
sg23
F4.4833734470885247
sVY
L2L
sVX
L3L
sg815
Vtriple
p893
sg35
g36
sg37
g38
sg21
S'4'
sg19
S'space'
p894
sg34
g11
sg818
L4L
sg819
g856
sg821
L4L
sS'block.thisIndex'
p895
I5
sg823
g837
sg825
L0L
sg827
VBUUxy
p896
sa(dp897
S'block.thisTrialN'
p898
I8
sS'block.thisRepN'
p899
I0
sg29
g33
sS'block.thisN'
p900
I8
sg810
(S'ADD'
S'HALF'
S'THIRD'
S'x'
S'y'
tp901
sg27
g28
sg812
L3L
sg813
(I2
I1
I9
tp902
sg22
I1
sg20
F1.3167512563522905
sg23
F3.7333881298545748
sVY
L8L
sVX
L6L
sg815
g826
sg35
g36
sg37
g38
sg21
S'9'
sg19
S'space'
p903
sg34
g11
sg818
L9L
sg819
g865
sg821
L9L
sS'block.thisIndex'
p904
I4
sg823
g820
sg825
L0L
sg827
g896
sa(dp905
S'block.thisTrialN'
p906
I9
sS'block.thisRepN'
p907
I0
sg29
g33
sS'block.thisN'
p908
I9
sg810
(S'THIRD'
S'TIMES'
S'DOUBLE'
S'DECREASE'
S'x'
S'y'
tp909
sg27
g28
sg812
L4L
sg813
(I1
I2
I6
I2
tp910
sg22
I1
sg20
F4.5333454787032679
sg23
F6.4999868853483349
sVY
L3L
sVX
L2L
sg815
g824
sg35
g36
sg37
g38
sg21
S'2'
sg19
S'space'
p911
sg34
g11
sg818
L2L
sg819
g847
sg821
L2L
sS'block.thisIndex'
p912
I13
sg823
g826
sg825
g856
sg827
g828
sa(dp913
S'block.thisTrialN'
p914
I10
sS'block.thisRepN'
p915
I0
sg29
g33
sS'block.thisN'
p916
I10
sg810
(S'THIRD'
S'DOUBLE'
S'ADD'
S'DECREASE'
S'x'
S'y'
tp917
sg27
g28
sg812
L4L
sg813
(I5
I12
I24
I8
tp918
sg22
I1
sg20
F4.400013456819579
sg23
F3.8667267090640962
sVY
L7L
sVX
L6L
sg815
g820
sg35
g36
sg37
g38
sg21
S'8'
sg19
S'space'
p919
sg34
g11
sg818
L8L
sg819
g824
sg821
L8L
sS'block.thisIndex'
p920
I14
sg823
g826
sg825
g856
sg827
VUUBUxy
p921
sa(dp922
S'block.thisTrialN'
p923
I11
sS'block.thisRepN'
p924
I0
sg29
g33
sS'block.thisN'
p925
I11
sg810
(S'DECREASE'
S'DIVIDE'
S'x'
S'y'
tp926
sg27
g28
sg812
L2L
sg813
(I2
I1
tp927
sg22
I1
sg20
F1.1834354852326214
sg23
F1.6501011255895719
sVY
L4L
sVX
L8L
sg815
L0L
sg35
g36
sg37
g38
sg21
S'1'
sg19
S'space'
p928
sg34
g11
sg818
L1L
sg819
g837
sg821
L1L
sS'block.thisIndex'
p929
I2
sg823
g856
sg825
L0L
sg827
g886
sa(dp930
S'block.thisTrialN'
p931
I12
sS'block.thisRepN'
p932
I0
sg29
g33
sS'block.thisN'
p933
I12
sg810
(S'THIRD'
S'INCREASE'
S'DIVIDE'
S'DOUBLE'
S'x'
S'y'
tp934
sg27
g28
sg812
L4L
sg813
(I18
I2
I3
I1
tp935
sg22
I1
sg20
F5.4833013163879514
sg23
F3.6833719075657427
sVY
L9L
sVX
L9L
sg815
g837
sg35
g36
sg37
g38
sg21
S'1'
sg19
S'space'
p936
sg34
g11
sg818
L1L
sg819
g816
sg821
L1L
sS'block.thisIndex'
p937
I15
sg823
g826
sg825
g824
sg827
g921
sa(dp938
S'block.thisTrialN'
p939
I13
sS'block.thisRepN'
p940
I0
sg29
g33
sS'block.thisN'
p941
I13
sg810
(S'HALF'
S'TRIPLE'
S'INCREASE'
S'DIVIDE'
S'x'
S'y'
tp942
sg27
g28
sg812
L4L
sg813
(I3
I4
I12
I6
tp943
sg22
I1
sg20
F8.3166426325915381
sg23
F7.3166546069551259
sVY
L3L
sVX
L9L
sg815
g816
sg35
g36
sg37
g38
sg21
S'6'
sg19
S'space'
p944
sg34
g11
sg818
L6L
sg819
g893
sg821
L6L
sS'block.thisIndex'
p945
I16
sg823
g865
sg825
g837
sg827
g848
sa(dp946
S'block.thisTrialN'
p947
I14
sS'block.thisRepN'
p948
I0
sg29
g33
sS'block.thisN'
p949
I14
sg810
(S'SUBTRACT'
S'DECREASE'
S'TRIPLE'
S'DOUBLE'
S'x'
S'y'
tp950
sg27
g28
sg812
L4L
sg813
(I6
I18
I17
I8
tp951
sg22
I0
sg20
F5.7833196769934148
sg23
F16.699792332132347
sVY
L9L
sVX
L3L
sg815
g893
sg35
g36
sg37
g38
sg21
S'9'
sg19
S'space'
p952
sg34
g11
sg818
L8L
sg819
g856
sg821
L8L
sS'block.thisIndex'
p953
I11
sg823
g858
sg825
g824
sg827
VBUUUxy
p954
sa(dp955
S'block.thisTrialN'
p956
I15
sS'block.thisRepN'
p957
I0
sg29
g33
sS'block.thisN'
p958
I15
sg810
(S'HALF'
S'ADD'
S'TRIPLE'
S'x'
S'y'
tp959
sg27
g28
sg812
L3L
sg813
(I9
I12
I6
tp960
sg22
I1
sg20
F2.4167278208769858
sg23
F4.1167148773092777
sVY
L3L
sVX
L3L
sg815
g893
sg35
g36
sg37
g38
sg21
S'6'
sg19
S'space'
p961
sg34
g11
sg818
L6L
sg819
g820
sg821
L6L
sS'block.thisIndex'
p962
I6
sg823
g865
sg825
L0L
sg827
g868
sa(dp963
S'block.thisTrialN'
p964
I16
sS'block.thisRepN'
p965
I0
sg29
g33
sS'block.thisN'
p966
I16
sg810
(S'INCREASE'
S'TRIPLE'
S'DIVIDE'
S'x'
S'y'
tp967
sg27
g28
sg812
L3L
sg813
(I2
I6
I7
tp968
sg22
I1
sg20
F3.3500331573886797
sg23
F3.916707863798365
sVY
L3L
sVX
L6L
sg815
g837
sg35
g36
sg37
g38
sg21
S'7'
sg19
S'space'
p969
sg34
g11
sg818
L7L
sg819
g893
sg821
L7L
sS'block.thisIndex'
p970
I8
sg823
g816
sg825
L0L
sg827
g877
sa(dp971
S'block.thisTrialN'
p972
I17
sS'block.thisRepN'
p973
I0
sg29
g33
sS'block.thisN'
p974
I17
sg810
(S'ADD'
S'DOUBLE'
S'DECREASE'
S'THIRD'
S'x'
S'y'
tp975
sg27
g28
sg812
L4L
sg813
(I2
I1
I2
I8
tp976
sg22
I1
sg20
F4.8500083534745499
sg23
F7.5333064197329804
sVY
L6L
sVX
L6L
sg815
g856
sg35
g36
sg37
g38
sg21
S'8'
sg19
S'space'
p977
sg34
g11
sg818
L8L
sg819
g824
sg821
L8L
sS'block.thisIndex'
p978
I10
sg823
g820
sg825
g826
sg827
g954
sa(dp979
S'block.thisTrialN'
p980
I0
sS'block.thisRepN'
p981
I0
sg29
g33
sS'block.thisN'
p982
I0
sVRule
p983
(S'THIRD'
S'DIVIDE'
S'x'
S'y'
tp984
sg27
g28
sVLength
p985
L2L
sVIntermediate
p986
(I3
I1
tp987
sg22
I1
sg20
F1.6167399663245305
sg23
F2.1167573574930429
sVY
L2L
sVX
L6L
sVOperatorc
p988
L0L
sg35
g36
sg37
g38
sg21
S'1'
sg19
S'space'
p989
sg34
g11
sVResult
p990
L1L
sVOperatora
p991
VDIVIDE
p992
sVCorrectResponse
p993
L1L
sS'block.thisIndex'
p994
I3
sVOperatorb
p995
Vthird
p996
sVOperatord
p997
L0L
sVStructure
p998
VUBxy
p999
sa(dp1000
S'block.thisTrialN'
p1001
I1
sS'block.thisRepN'
p1002
I0
sg29
g33
sS'block.thisN'
p1003
I1
sg983
(S'DECREASE'
S'TRIPLE'
S'HALF'
S'SUBTRACT'
S'x'
S'y'
tp1004
sg27
g28
sg985
L4L
sg986
(I4
I2
I6
I5
tp1005
sg22
I1
sg20
F7.2666161466622725
sg23
F8.6835087563376874
sVY
L2L
sVX
L6L
sg988
Vhalf
p1006
sg35
g36
sg37
g38
sg21
S'5'
sg19
S'space'
p1007
sg34
g11
sg990
L5L
sg991
Vtriple
p1008
sg993
L5L
sS'block.thisIndex'
p1009
I16
sg995
Vdecrease
p1010
sg997
VSUBTRACT
p1011
sg998
VUUUBxy
p1012
sa(dp1013
S'block.thisTrialN'
p1014
I2
sS'block.thisRepN'
p1015
I0
sg29
g33
sS'block.thisN'
p1016
I2
sg983
(S'SUBTRACT'
S'TRIPLE'
S'DECREASE'
S'x'
S'y'
tp1017
sg27
g28
sg985
L3L
sg986
(I4
I12
I3
tp1018
sg22
I1
sg20
F5.5833323354599997
sg23
F2.9667429027613252
sVY
L9L
sVX
L5L
sg988
g1010
sg35
g36
sg37
g38
sg21
S'3'
sg19
S'space'
p1019
sg34
g11
sg990
L3L
sg991
g1008
sg993
L3L
sS'block.thisIndex'
p1020
I4
sg995
g1011
sg997
L0L
sg998
VBUUxy
p1021
sa(dp1022
S'block.thisTrialN'
p1023
I3
sS'block.thisRepN'
p1024
I0
sg29
g33
sS'block.thisN'
p1025
I3
sg983
(S'INCREASE'
S'SUBTRACT'
S'x'
S'y'
tp1026
sg27
g28
sg985
L2L
sg986
(I3
I4
tp1027
sg22
I1
sg20
F2.2667079494567588
sg23
F2.1334186927415431
sVY
L3L
sVX
L6L
sg988
L0L
sg35
g36
sg37
g38
sg21
S'4'
sg19
S'space'
p1028
sg34
g11
sg990
L4L
sg991
g1011
sg993
L4L
sS'block.thisIndex'
p1029
I2
sg995
Vincrease
p1030
sg997
L0L
sg998
g999
sa(dp1031
S'block.thisTrialN'
p1032
I4
sS'block.thisRepN'
p1033
I0
sg29
g33
sS'block.thisN'
p1034
I4
sg983
(S'DECREASE'
S'TRIPLE'
S'DIVIDE'
S'DOUBLE'
S'x'
S'y'
tp1035
sg27
g28
sg985
L4L
sg986
(I6
I2
I6
I5
tp1036
sg22
I1
sg20
F8.8832731483271345
sg23
F7.5833157995948568
sVY
L3L
sVX
L3L
sg988
g992
sg35
g36
sg37
g38
sg21
S'5'
sg19
S'space'
p1037
sg34
g11
sg990
L5L
sg991
g1008
sg993
L5L
sS'block.thisIndex'
p1038
I14
sg995
g1010
sg997
Vdouble
p1039
sg998
VUUBUxy
p1040
sa(dp1041
S'block.thisTrialN'
p1042
I5
sS'block.thisRepN'
p1043
I0
sg29
g33
sS'block.thisN'
p1044
I5
sg983
(S'TIMES'
S'HALF'
S'INCREASE'
S'x'
S'y'
tp1045
sg27
g28
sg985
L3L
sg986
(I6
I3
I9
tp1046
sg22
I1
sg20
F1.4000850172014907
sg23
F2.7500851027434692
sVY
L3L
sVX
L5L
sg988
g1030
sg35
g36
sg37
g38
sg21
S'9'
sg19
S'space'
p1047
sg34
g11
sg990
L9L
sg991
g1006
sg993
L9L
sS'block.thisIndex'
p1048
I5
sg995
VTIMES
p1049
sg997
L0L
sg998
g1021
sa(dp1050
S'block.thisTrialN'
p1051
I6
sS'block.thisRepN'
p1052
I0
sg29
g33
sS'block.thisN'
p1053
I6
sg983
(S'HALF'
S'TRIPLE'
S'INCREASE'
S'SUBTRACT'
S'x'
S'y'
tp1054
sg27
g28
sg985
L4L
sg986
(I1
I2
I6
I3
tp1055
sg22
I0
sg20
F7.6666344500845298
sg23
F12.183246748056263
sVY
L2L
sVX
L3L
sg988
g1030
sg35
g36
sg37
g38
sg21
S'6'
sg19
S'space'
p1056
sg34
g11
sg990
L3L
sg991
g1008
sg993
L3L
sS'block.thisIndex'
p1057
I17
sg995
g1006
sg997
g1011
sg998
g1012
sa(dp1058
S'block.thisTrialN'
p1059
I7
sS'block.thisRepN'
p1060
I0
sg29
g33
sS'block.thisN'
p1061
I7
sg983
(S'DOUBLE'
S'DIVIDE'
S'TRIPLE'
S'INCREASE'
S'x'
S'y'
tp1062
sg27
g28
sg985
L4L
sg986
(I5
I15
I3
I6
tp1063
sg22
I1
sg20
F10.699877007165924
sg23
F5.8502164775272831
sVY
L5L
sVX
L4L
sg988
g1008
sg35
g36
sg37
g38
sg21
S'6'
sg19
S'space'
p1064
sg34
g11
sg990
L6L
sg991
g992
sg993
L6L
sS'block.thisIndex'
p1065
I12
sg995
g1039
sg997
g1030
sg998
VUBUUxy
p1066
sa(dp1067
S'block.thisTrialN'
p1068
I8
sS'block.thisRepN'
p1069
I0
sg29
g33
sS'block.thisN'
p1070
I8
sg983
(S'DOUBLE'
S'THIRD'
S'TIMES'
S'x'
S'y'
tp1071
sg27
g28
sg985
L3L
sg986
(I12
I4
I8
tp1072
sg22
I1
sg20
F2.1667154190363362
sg23
F6.9833432263694704
sVY
L6L
sVX
L2L
sg988
g1049
sg35
g36
sg37
g38
sg21
S'8'
sg19
S'space'
p1073
sg34
g11
sg990
L8L
sg991
g996
sg993
L8L
sS'block.thisIndex'
p1074
I9
sg995
g1039
sg997
L0L
sg998
VUUBxy
p1075
sa(dp1076
S'block.thisTrialN'
p1077
I9
sS'block.thisRepN'
p1078
I0
sg29
g33
sS'block.thisN'
p1079
I9
sg983
(S'SUBTRACT'
S'TRIPLE'
S'DECREASE'
S'DOUBLE'
S'x'
S'y'
tp1080
sg27
g28
sg985
L4L
sg986
(I4
I3
I9
I1
tp1081
sg22
I1
sg20
F7.2166503873886541
sg23
F8.5499209983972833
sVY
L8L
sVX
L2L
sg988
g1010
sg35
g36
sg37
g38
sg21
S'1'
sg19
S'space'
p1082
sg34
g11
sg990
L1L
sg991
g1008
sg993
L1L
sS'block.thisIndex'
p1083
I11
sg995
g1011
sg997
g1039
sg998
VBUUUxy
p1084
sa(dp1085
S'block.thisTrialN'
p1086
I10
sS'block.thisRepN'
p1087
I0
sg29
g33
sS'block.thisN'
p1088
I10
sg983
(S'THIRD'
S'DIVIDE'
S'DECREASE'
S'x'
S'y'
tp1089
sg27
g28
sg985
L3L
sg986
(I6
I3
I1
tp1090
sg22
I1
sg20
F2.3167073506629094
sg23
F6.7166406939504668
sVY
L2L
sVX
L7L
sg988
g1010
sg35
g36
sg37
g38
sg21
S'1'
sg19
S'space'
p1091
sg34
g11
sg990
L1L
sg991
g992
sg993
L1L
sS'block.thisIndex'
p1092
I6
sg995
g996
sg997
L0L
sg998
VUBUxy
p1093
sa(dp1094
S'block.thisTrialN'
p1095
I11
sS'block.thisRepN'
p1096
I0
sg29
g33
sS'block.thisN'
p1097
I11
sg983
(S'TIMES'
S'DOUBLE'
S'x'
S'y'
tp1098
sg27
g28
sg985
L2L
sg986
(I4
I8
tp1099
sg22
I1
sg20
F1.2334146442590281
sg23
F3.2665961895836517
sVY
L2L
sVX
L2L
sg988
L0L
sg35
g36
sg37
g38
sg21
S'8'
sg19
S'space'
p1100
sg34
g11
sg990
L8L
sg991
g1039
sg993
L8L
sS'block.thisIndex'
p1101
I1
sg995
g1049
sg997
L0L
sg998
VBUxy
p1102
sa(dp1103
S'block.thisTrialN'
p1104
I12
sS'block.thisRepN'
p1105
I0
sg29
g33
sS'block.thisN'
p1106
I12
sg983
(S'INCREASE'
S'ADD'
S'HALF'
S'TRIPLE'
S'x'
S'y'
tp1107
sg27
g28
sg985
L4L
sg986
(I6
I3
I6
I7
tp1108
sg22
I0
sg20
F6.9999655027640983
sg23
F11.799869537586346
sVY
L3L
sVX
L2L
sg988
g1006
sg35
g36
sg37
g38
sg21
S'4'
sg19
S'space'
p1109
sg34
g11
sg990
L7L
sg991
VADD
p1110
sg993
L7L
sS'block.thisIndex'
p1111
I13
sg995
g1030
sg997
g1008
sg998
g1066
sa(dp1112
S'block.thisTrialN'
p1113
I13
sS'block.thisRepN'
p1114
I0
sg29
g33
sS'block.thisN'
p1115
I13
sg983
(S'DIVIDE'
S'THIRD'
S'x'
S'y'
tp1116
sg27
g28
sg985
L2L
sg986
(I3
I1
tp1117
sg22
I1
sg20
F1.3000805127667263
sg23
F1.7500828220508993
sVY
L3L
sVX
L9L
sg988
L0L
sg35
g36
sg37
g38
sg21
S'1'
sg19
S'space'
p1118
sg34
g11
sg990
L1L
sg991
g996
sg993
L1L
sS'block.thisIndex'
p1119
I0
sg995
g992
sg997
L0L
sg998
g1102
sa(dp1120
S'block.thisTrialN'
p1121
I14
sS'block.thisRepN'
p1122
I0
sg29
g33
sS'block.thisN'
p1123
I14
sg983
(S'THIRD'
S'DECREASE'
S'TIMES'
S'HALF'
S'x'
S'y'
tp1124
sg27
g28
sg985
L4L
sg986
(I4
I16
I15
I5
tp1125
sg22
I1
sg20
F8.3666029749438167
sg23
F6.0833391778869554
sVY
L4L
sVX
L8L
sg988
g1049
sg35
g36
sg37
g38
sg21
S'5'
sg19
S'space'
p1126
sg34
g11
sg990
L5L
sg991
g1010
sg993
L5L
sS'block.thisIndex'
p1127
I15
sg995
g996
sg997
g1006
sg998
g1040
sa(dp1128
S'block.thisTrialN'
p1129
I15
sS'block.thisRepN'
p1130
I0
sg29
g33
sS'block.thisN'
p1131
I15
sg983
(S'DOUBLE'
S'DECREASE'
S'ADD'
S'x'
S'y'
tp1132
sg27
g28
sg985
L3L
sg986
(I4
I3
I6
tp1133
sg22
I1
sg20
F1.7500802561407909
sg23
F3.250051460810937
sVY
L2L
sVX
L2L
sg988
g1110
sg35
g36
sg37
g38
sg21
S'6'
sg19
S'space'
p1134
sg34
g11
sg990
L6L
sg991
g1010
sg993
L6L
sS'block.thisIndex'
p1135
I8
sg995
g1039
sg997
L0L
sg998
g1075
sa(dp1136
S'block.thisTrialN'
p1137
I16
sS'block.thisRepN'
p1138
I0
sg29
g33
sS'block.thisN'
p1139
I16
sg983
(S'THIRD'
S'TIMES'
S'HALF'
S'x'
S'y'
tp1140
sg27
g28
sg985
L3L
sg986
(I3
I18
I6
tp1141
sg22
I1
sg20
F1.1666278928751126
sg23
F2.9667240860871971
sVY
L6L
sVX
L6L
sg988
g1006
sg35
g36
sg37
g38
sg21
S'6'
sg19
S'space'
p1142
sg34
g11
sg990
L6L
sg991
g1049
sg993
L6L
sS'block.thisIndex'
p1143
I7
sg995
g996
sg997
L0L
sg998
g1093
sa(dp1144
S'block.thisTrialN'
p1145
I17
sS'block.thisRepN'
p1146
I0
sg29
g33
sS'block.thisN'
p1147
I17
sg983
(S'SUBTRACT'
S'DOUBLE'
S'TRIPLE'
S'DECREASE'
S'x'
S'y'
tp1148
sg27
g28
sg985
L4L
sg986
(I2
I6
I12
I8
tp1149
sg22
I0
sg20
F8.2332997483899817
sg23
F4.3000497217290103
sVY
L4L
sVX
L3L
sg988
g1008
sg35
g36
sg37
g38
sg21
S'3'
sg19
S'space'
p1150
sg34
g11
sg990
L8L
sg991
g1039
sg993
L8L
sS'block.thisIndex'
p1151
I10
sg995
g1011
sg997
g1010
sg998
g1084
sa(dp1152
S'block.thisTrialN'
p1153
I0
sS'block.thisRepN'
p1154
I0
sg29
g33
sS'block.thisN'
p1155
I0
sVRule
p1156
(S'INCREASE'
S'DIVIDE'
S'THIRD'
S'x'
S'y'
tp1157
sg27
g28
sVLength
p1158
L3L
sVIntermediate
p1159
(I3
I1
I2
tp1160
sg22
I1
sg20
F3.20004835317377
sg23
F2.8334040384506807
sVY
L3L
sVX
L9L
sVOperatorc
p1161
Vthird
p1162
sg35
g36
sg37
g38
sg21
S'2'
sg19
S'space'
p1163
sg34
g11
sVResult
p1164
L2L
sVOperatora
p1165
VDIVIDE
p1166
sVCorrectResponse
p1167
L2L
sS'block.thisIndex'
p1168
I7
sVOperatorb
p1169
Vincrease
p1170
sVOperatord
p1171
L0L
sVStructure
p1172
VUBUxy
p1173
sa(dp1174
S'block.thisTrialN'
p1175
I1
sS'block.thisRepN'
p1176
I0
sg29
g33
sS'block.thisN'
p1177
I1
sg1156
(S'DECREASE'
S'TIMES'
S'DOUBLE'
S'THIRD'
S'x'
S'y'
tp1178
sg27
g28
sg1158
L4L
sg1159
(I1
I2
I8
I7
tp1179
sg22
I0
sg20
F6.3499487672233954
sg23
F5.2167022757930681
sVY
L4L
sVX
L3L
sg1161
Vdouble
p1180
sg35
g36
sg37
g38
sg21
S'9'
sg19
S'space'
p1181
sg34
g11
sg1164
L7L
sg1165
VTIMES
p1182
sg1167
L7L
sS'block.thisIndex'
p1183
I13
sg1169
Vdecrease
p1184
sg1171
g1162
sg1172
VUBUUxy
p1185
sa(dp1186
S'block.thisTrialN'
p1187
I2
sS'block.thisRepN'
p1188
I0
sg29
g33
sS'block.thisN'
p1189
I2
sg1156
(S'ADD'
S'THIRD'
S'INCREASE'
S'HALF'
S'x'
S'y'
tp1190
sg27
g28
sg1158
L4L
sg1159
(I2
I3
I1
I7
tp1191
sg22
I1
sg20
F7.3831975965294987
sg23
F3.7500483246985823
sVY
L6L
sVX
L4L
sg1161
g1170
sg35
g36
sg37
g38
sg21
S'7'
sg19
S'space'
p1192
sg34
g11
sg1164
L7L
sg1165
g1162
sg1167
L7L
sS'block.thisIndex'
p1193
I10
sg1169
VADD
p1194
sg1171
Vhalf
p1195
sg1172
VBUUUxy
p1196
sa(dp1197
S'block.thisTrialN'
p1198
I3
sS'block.thisRepN'
p1199
I0
sg29
g33
sS'block.thisN'
p1200
I3
sg1156
(S'ADD'
S'DOUBLE'
S'x'
S'y'
tp1201
sg27
g28
sg1158
L2L
sg1159
(I4
I8
tp1202
sg22
I1
sg20
F1.0167571293422952
sg23
F2.0667824749834836
sVY
L4L
sVX
L2L
sg1161
L0L
sg35
g36
sg37
g38
sg21
S'8'
sg19
S'space'
p1203
sg34
g11
sg1164
L8L
sg1165
g1180
sg1167
L8L
sS'block.thisIndex'
p1204
I0
sg1169
g1194
sg1171
L0L
sg1172
VBUxy
p1205
sa(dp1206
S'block.thisTrialN'
p1207
I4
sS'block.thisRepN'
p1208
I0
sg29
g33
sS'block.thisN'
p1209
I4
sg1156
(S'DECREASE'
S'THIRD'
S'TIMES'
S'HALF'
S'x'
S'y'
tp1210
sg27
g28
sg1158
L4L
sg1159
(I2
I12
I4
I3
tp1211
sg22
I0
sg20
F2.833347303327173
sg23
F8.6999457166530192
sVY
L6L
sVX
L4L
sg1161
g1182
sg35
g36
sg37
g38
sg21
S'4'
sg19
S'space'
p1212
sg34
g11
sg1164
L3L
sg1165
g1162
sg1167
L3L
sS'block.thisIndex'
p1213
I14
sg1169
g1184
sg1171
g1195
sg1172
VUUBUxy
p1214
sa(dp1215
S'block.thisTrialN'
p1216
I5
sS'block.thisRepN'
p1217
I0
sg29
g33
sS'block.thisN'
p1218
I5
sg1156
(S'DIVIDE'
S'INCREASE'
S'DOUBLE'
S'THIRD'
S'x'
S'y'
tp1219
sg27
g28
sg1158
L4L
sg1159
(I2
I4
I5
I1
tp1220
sg22
I1
sg20
F7.2332735189702362
sg23
F4.633397024939768
sVY
L5L
sVX
L6L
sg1161
g1180
sg35
g36
sg37
g38
sg21
S'1'
sg19
S'space'
p1221
sg34
g11
sg1164
L1L
sg1165
g1170
sg1167
L1L
sS'block.thisIndex'
p1222
I11
sg1169
g1166
sg1171
g1162
sg1172
g1196
sa(dp1223
S'block.thisTrialN'
p1224
I6
sS'block.thisRepN'
p1225
I0
sg29
g33
sS'block.thisN'
p1226
I6
sg1156
(S'DOUBLE'
S'SUBTRACT'
S'x'
S'y'
tp1227
sg27
g28
sg1158
L2L
sg1159
(I1
I2
tp1228
sg22
I1
sg20
F0.7334517075214535
sg23
F3.0167343212524429
sVY
L7L
sVX
L8L
sg1161
L0L
sg35
g36
sg37
g38
sg21
S'2'
sg19
S'space'
p1229
sg34
g11
sg1164
L2L
sg1165
VSUBTRACT
p1230
sg1167
L2L
sS'block.thisIndex'
p1231
I2
sg1169
g1180
sg1171
L0L
sg1172
VUBxy
p1232
sa(dp1233
S'block.thisTrialN'
p1234
I7
sS'block.thisRepN'
p1235
I0
sg29
g33
sS'block.thisN'
p1236
I7
sg1156
(S'DOUBLE'
S'DECREASE'
S'TRIPLE'
S'DIVIDE'
S'x'
S'y'
tp1237
sg27
g28
sg1158
L4L
sg1159
(I1
I3
I2
I4
tp1238
sg22
I1
sg20
F6.2499704919755459
sg23
F12.133224823744968
sVY
L4L
sVX
L4L
sg1161
Vtriple
p1239
sg35
g36
sg37
g38
sg21
S'4'
sg19
S'space'
p1240
sg34
g11
sg1164
L4L
sg1165
g1184
sg1167
L4L
sS'block.thisIndex'
p1241
I17
sg1169
g1180
sg1171
g1166
sg1172
VUUUBxy
p1242
sa(dp1243
S'block.thisTrialN'
p1244
I8
sS'block.thisRepN'
p1245
I0
sg29
g33
sS'block.thisN'
p1246
I8
sg1156
(S'DIVIDE'
S'DOUBLE'
S'THIRD'
S'x'
S'y'
tp1247
sg27
g28
sg1158
L3L
sg1159
(I2
I4
I1
tp1248
sg22
I1
sg20
F1.4834116507554427
sg23
F3.7665961895836517
sVY
L4L
sVX
L6L
sg1161
g1162
sg35
g36
sg37
g38
sg21
S'1'
sg19
S'space'
p1249
sg34
g11
sg1164
L1L
sg1165
g1180
sg1167
L1L
sS'block.thisIndex'
p1250
I4
sg1169
g1166
sg1171
L0L
sg1172
VBUUxy
p1251
sa(dp1252
S'block.thisTrialN'
p1253
I9
sS'block.thisRepN'
p1254
I0
sg29
g33
sS'block.thisN'
p1255
I9
sg1156
(S'DECREASE'
S'HALF'
S'TRIPLE'
S'DIVIDE'
S'x'
S'y'
tp1256
sg27
g28
sg1158
L4L
sg1159
(I4
I12
I6
I5
tp1257
sg22
I0
sg20
F4.6500107483007014
sg23
F7.2999852887587622
sVY
L2L
sVX
L8L
sg1161
g1239
sg35
g36
sg37
g38
sg21
S'4'
sg19
S'space'
p1258
sg34
g11
sg1164
L5L
sg1165
g1195
sg1167
L5L
sS'block.thisIndex'
p1259
I16
sg1169
g1184
sg1171
g1166
sg1172
g1242
sa(dp1260
S'block.thisTrialN'
p1261
I10
sS'block.thisRepN'
p1262
I0
sg29
g33
sS'block.thisN'
p1263
I10
sg1156
(S'DOUBLE'
S'DECREASE'
S'SUBTRACT'
S'x'
S'y'
tp1264
sg27
g28
sg1158
L3L
sg1159
(I5
I4
I8
tp1265
sg22
I1
sg20
F2.8167133377864957
sg23
F2.7834017862332985
sVY
L2L
sVX
L7L
sg1161
g1230
sg35
g36
sg37
g38
sg21
S'8'
sg19
S'space'
p1266
sg34
g11
sg1164
L8L
sg1165
g1184
sg1167
L8L
sS'block.thisIndex'
p1267
I8
sg1169
g1180
sg1171
L0L
sg1172
VUUBxy
p1268
sa(dp1269
S'block.thisTrialN'
p1270
I11
sS'block.thisRepN'
p1271
I0
sg29
g33
sS'block.thisN'
p1272
I11
sg1156
(S'DOUBLE'
S'TRIPLE'
S'DIVIDE'
S'DECREASE'
S'x'
S'y'
tp1273
sg27
g28
sg1158
L4L
sg1159
(I8
I1
I3
I6
tp1274
sg22
I0
sg20
F7.4832870613317937
sg23
F16.349799944204278
sVY
L8L
sVX
L9L
sg1161
g1166
sg35
g36
sg37
g38
sg21
S'4'
sg19
S'space'
p1275
sg34
g11
sg1164
L6L
sg1165
g1239
sg1167
L6L
sS'block.thisIndex'
p1276
I15
sg1169
g1180
sg1171
g1184
sg1172
g1214
sa(dp1277
S'block.thisTrialN'
p1278
I12
sS'block.thisRepN'
p1279
I0
sg29
g33
sS'block.thisN'
p1280
I12
sg1156
(S'HALF'
S'SUBTRACT'
S'TRIPLE'
S'x'
S'y'
tp1281
sg27
g28
sg1158
L3L
sg1159
(I9
I2
I1
tp1282
sg22
I0
sg20
F2.3667181560304016
sg23
F4.9833540602121502
sVY
L7L
sVX
L3L
sg1161
g1239
sg35
g36
sg37
g38
sg21
S'4'
sg19
S'space'
p1283
sg34
g11
sg1164
L1L
sg1165
g1230
sg1167
L1L
sS'block.thisIndex'
p1284
I6
sg1169
g1195
sg1171
L0L
sg1172
g1173
sa(dp1285
S'block.thisTrialN'
p1286
I13
sS'block.thisRepN'
p1287
I0
sg29
g33
sS'block.thisN'
p1288
I13
sg1156
(S'SUBTRACT'
S'HALF'
S'TRIPLE'
S'x'
S'y'
tp1289
sg27
g28
sg1158
L3L
sg1159
(I12
I6
I2
tp1290
sg22
I1
sg20
F3.0000504630152136
sg23
F3.0833936323178932
sVY
L4L
sVX
L4L
sg1161
g1239
sg35
g36
sg37
g38
sg21
S'2'
sg19
S'space'
p1291
sg34
g11
sg1164
L2L
sg1165
g1195
sg1167
L2L
sS'block.thisIndex'
p1292
I5
sg1169
g1230
sg1171
L0L
sg1172
g1251
sa(dp1293
S'block.thisTrialN'
p1294
I14
sS'block.thisRepN'
p1295
I0
sg29
g33
sS'block.thisN'
p1296
I14
sg1156
(S'DECREASE'
S'ADD'
S'DOUBLE'
S'THIRD'
S'x'
S'y'
tp1297
sg27
g28
sg1158
L4L
sg1159
(I3
I6
I10
I9
tp1298
sg22
I1
sg20
F3.5167029601288959
sg23
F6.0334566683741286
sVY
L4L
sVX
L9L
sg1161
g1180
sg35
g36
sg37
g38
sg21
S'9'
sg19
S'space'
p1299
sg34
g11
sg1164
L9L
sg1165
g1194
sg1167
L9L
sS'block.thisIndex'
p1300
I12
sg1169
Vdecrease 
p1301
sg1171
g1162
sg1172
g1185
sa(dp1302
S'block.thisTrialN'
p1303
I15
sS'block.thisRepN'
p1304
I0
sg29
g33
sS'block.thisN'
p1305
I15
sg1156
(S'DOUBLE'
S'TRIPLE'
S'SUBTRACT'
S'x'
S'y'
tp1306
sg27
g28
sg1158
L3L
sg1159
(I1
I3
I6
tp1307
sg22
I1
sg20
F2.4333994198823348
sg23
F3.3833997334586456
sVY
L3L
sVX
L4L
sg1161
g1230
sg35
g36
sg37
g38
sg21
S'6'
sg19
S'space'
p1308
sg34
g11
sg1164
L6L
sg1165
g1239
sg1167
L6L
sS'block.thisIndex'
p1309
I9
sg1169
g1180
sg1171
L0L
sg1172
g1268
sa(dp1310
S'block.thisTrialN'
p1311
I16
sS'block.thisRepN'
p1312
I0
sg29
g33
sS'block.thisN'
p1313
I16
sg1156
(S'DIVIDE'
S'DOUBLE'
S'x'
S'y'
tp1314
sg27
g28
sg1158
L2L
sg1159
(I12
I2
tp1315
sg22
I1
sg20
F0.96677597460802644
sg23
F2.0500874976860359
sVY
L6L
sVX
L6L
sg1161
L0L
sg35
g36
sg37
g38
sg21
S'2'
sg19
S'space'
p1316
sg34
g11
sg1164
L2L
sg1165
g1180
sg1167
L2L
sS'block.thisIndex'
p1317
I1
sg1169
g1166
sg1171
L0L
sg1172
g1205
sa(dp1318
S'block.thisTrialN'
p1319
I17
sS'block.thisRepN'
p1320
I0
sg29
g33
sS'block.thisN'
p1321
I17
sg1156
(S'HALF'
S'TIMES'
S'x'
S'y'
tp1322
sg27
g28
sg1158
L2L
sg1159
(I16
I8
tp1323
sg22
I1
sg20
F0.88345760910306126
sg23
F3.2000802846159786
sVY
L4L
sVX
L4L
sg1161
L0L
sg35
g36
sg37
g38
sg21
S'8'
sg19
S'space'
p1324
sg34
g11
sg1164
L8L
sg1165
g1182
sg1167
L8L
sS'block.thisIndex'
p1325
I3
sg1169
g1195
sg1171
L0L
sg1172
g1232
sa(dp1326
S'block.thisTrialN'
p1327
I0
sS'block.thisRepN'
p1328
I0
sg29
g33
sS'block.thisN'
p1329
I0
sVRule
p1330
(S'TRIPLE'
S'HALF'
S'TIMES'
S'x'
S'y'
tp1331
sg27
g28
sVLength
p1332
L3L
sVIntermediate
p1333
(I6
I3
I9
tp1334
sg22
I1
sg20
F1.150103121297434
sg23
F3.7332675318466499
sVY
L3L
sVX
L2L
sVOperatorc
p1335
VTIMES
p1336
sg35
g36
sg37
g38
sg21
S'9'
sg19
S'space'
p1337
sg34
g11
sVResult
p1338
L9L
sVOperatora
p1339
Vhalf
p1340
sVCorrectResponse
p1341
L9L
sS'block.thisIndex'
p1342
I9
sVOperatorb
p1343
Vtriple
p1344
sVOperatord
p1345
L0L
sVStructure
p1346
VUUBxy
p1347
sa(dp1348
S'block.thisTrialN'
p1349
I1
sS'block.thisRepN'
p1350
I0
sg29
g33
sS'block.thisN'
p1351
I1
sg1330
(S'INCREASE'
S'HALF'
S'TIMES'
S'TRIPLE'
S'x'
S'y'
tp1352
sg27
g28
sg1332
L4L
sg1333
(I6
I12
I6
I7
tp1353
sg22
I1
sg20
F2.0500812254613265
sg23
F4.5167149343760684
sVY
L2L
sVX
L2L
sg1335
g1336
sg35
g36
sg37
g38
sg21
S'7'
sg19
S'space'
p1354
sg34
g11
sg1338
L7L
sg1339
g1340
sg1341
L7L
sS'block.thisIndex'
p1355
I14
sg1343
Vincrease
p1356
sg1345
g1344
sg1346
VUUBUxy
p1357
sa(dp1358
S'block.thisTrialN'
p1359
I2
sS'block.thisRepN'
p1360
I0
sg29
g33
sS'block.thisN'
p1361
I2
sg1330
(S'INCREASE'
S'DIVIDE'
S'HALF'
S'x'
S'y'
tp1362
sg27
g28
sg1332
L3L
sg1333
(I2
I1
I2
tp1363
sg22
I1
sg20
F1.2167581557296216
sg23
F2.7336122196866199
sVY
L2L
sVX
L4L
sg1335
g1340
sg35
g36
sg37
g38
sg21
S'2'
sg19
S'space'
p1364
sg34
g11
sg1338
L2L
sg1339
VDIVIDE
p1365
sg1341
L2L
sS'block.thisIndex'
p1366
I7
sg1343
g1356
sg1345
L0L
sg1346
VUBUxy
p1367
sa(dp1368
S'block.thisTrialN'
p1369
I3
sS'block.thisRepN'
p1370
I0
sg29
g33
sS'block.thisN'
p1371
I3
sg1330
(S'DIVIDE'
S'DECREASE'
S'THIRD'
S'DOUBLE'
S'x'
S'y'
tp1372
sg27
g28
sg1332
L4L
sg1333
(I12
I4
I3
I1
tp1373
sg22
I0
sg20
F1.7000554807018489
sg23
F9.3333053934620693
sVY
L3L
sVX
L6L
sg1335
Vthird
p1374
sg35
g36
sg37
g38
sg21
S'2'
sg19
S'space'
p1375
sg34
g11
sg1338
L1L
sg1339
Vdecrease
p1376
sg1341
L1L
sS'block.thisIndex'
p1377
I10
sg1343
g1365
sg1345
Vdouble
p1378
sg1346
VBUUUxy
p1379
sa(dp1380
S'block.thisTrialN'
p1381
I4
sS'block.thisRepN'
p1382
I0
sg29
g33
sS'block.thisN'
p1383
I4
sg1330
(S'DECREASE'
S'HALF'
S'DIVIDE'
S'x'
S'y'
tp1384
sg27
g28
sg1332
L3L
sg1333
(I4
I2
I1
tp1385
sg22
I0
sg20
F1.7334468608023599
sg23
F8.7166059114970267
sVY
L2L
sVX
L8L
sg1335
g1365
sg35
g36
sg37
g38
sg21
S'3'
sg19
S'space'
p1386
sg34
g11
sg1338
L1L
sg1339
g1340
sg1341
L1L
sS'block.thisIndex'
p1387
I8
sg1343
g1376
sg1345
L0L
sg1346
g1347
sa(dp1388
S'block.thisTrialN'
p1389
I5
sS'block.thisRepN'
p1390
I0
sg29
g33
sS'block.thisN'
p1391
I5
sg1330
(S'TIMES'
S'DECREASE'
S'THIRD'
S'DOUBLE'
S'x'
S'y'
tp1392
sg27
g28
sg1332
L4L
sg1333
(I6
I2
I1
I2
tp1393
sg22
I0
sg20
F4.799981297343038
sg23
F9.3165724975988269
sVY
L2L
sVX
L3L
sg1335
g1374
sg35
g36
sg37
g38
sg21
S'4'
sg19
S'space'
p1394
sg34
g11
sg1338
L2L
sg1339
g1376
sg1341
L2L
sS'block.thisIndex'
p1395
I11
sg1343
g1336
sg1345
g1378
sg1346
g1379
sa(dp1396
S'block.thisTrialN'
p1397
I6
sS'block.thisRepN'
p1398
I0
sg29
g33
sS'block.thisN'
p1399
I6
sg1330
(S'TRIPLE'
S'SUBTRACT'
S'x'
S'y'
tp1400
sg27
g28
sg1332
L2L
sg1333
(I2
I6
tp1401
sg22
I1
sg20
F1.083474030951038
sg23
F2.5000695647904649
sVY
L6L
sVX
L8L
sg1335
L0L
sg35
g36
sg37
g38
sg21
S'6'
sg19
S'space'
p1402
sg34
g11
sg1338
L6L
sg1339
VSUBTRACT
p1403
sg1341
L6L
sS'block.thisIndex'
p1404
I3
sg1343
g1344
sg1345
L0L
sg1346
VUBxy
p1405
sa(dp1406
S'block.thisTrialN'
p1407
I7
sS'block.thisRepN'
p1408
I0
sg29
g33
sS'block.thisN'
p1409
I7
sg1330
(S'THIRD'
S'INCREASE'
S'SUBTRACT'
S'HALF'
S'x'
S'y'
tp1410
sg27
g28
sg1332
L4L
sg1333
(I4
I2
I3
I1
tp1411
sg22
I1
sg20
F7.9832953292643651
sg23
F3.8500608121976256
sVY
L2L
sVX
L8L
sg1335
g1403
sg35
g36
sg37
g38
sg21
S'1'
sg19
S'space'
p1412
sg34
g11
sg1338
L1L
sg1339
g1356
sg1341
L1L
sS'block.thisIndex'
p1413
I15
sg1343
g1374
sg1345
g1340
sg1346
g1357
sa(dp1414
S'block.thisTrialN'
p1415
I8
sS'block.thisRepN'
p1416
I0
sg29
g33
sS'block.thisN'
p1417
I8
sg1330
(S'INCREASE'
S'TRIPLE'
S'HALF'
S'ADD'
S'x'
S'y'
tp1418
sg27
g28
sg1332
L4L
sg1333
(I4
I2
I6
I7
tp1419
sg22
I1
sg20
F2.183366775745526
sg23
F4.3500565356807783
sVY
L2L
sVX
L2L
sg1335
g1340
sg35
g36
sg37
g38
sg21
S'7'
sg19
S'space'
p1420
sg34
g11
sg1338
L7L
sg1339
g1344
sg1341
L7L
sS'block.thisIndex'
p1421
I17
sg1343
g1356
sg1345
VADD
p1422
sg1346
VUUUBxy
p1423
sa(dp1424
S'block.thisTrialN'
p1425
I9
sS'block.thisRepN'
p1426
I0
sg29
g33
sS'block.thisN'
p1427
I9
sg1330
(S'DECREASE'
S'HALF'
S'TRIPLE'
S'ADD'
S'x'
S'y'
tp1428
sg27
g28
sg1332
L4L
sg1333
(I4
I12
I6
I5
tp1429
sg22
I1
sg20
F2.0333939458942041
sg23
F3.9500359512167051
sVY
L2L
sVX
L2L
sg1335
g1344
sg35
g36
sg37
g38
sg21
S'5'
sg19
S'space'
p1430
sg34
g11
sg1338
L5L
sg1339
g1340
sg1341
L5L
sS'block.thisIndex'
p1431
I16
sg1343
g1376
sg1345
g1422
sg1346
g1423
sa(dp1432
S'block.thisTrialN'
p1433
I10
sS'block.thisRepN'
p1434
I0
sg29
g33
sS'block.thisN'
p1435
I10
sg1330
(S'TRIPLE'
S'SUBTRACT'
S'INCREASE'
S'HALF'
S'x'
S'y'
tp1436
sg27
g28
sg1332
L4L
sg1333
(I3
I4
I1
I3
tp1437
sg22
I1
sg20
F2.0500789446523413
sg23
F3.4667215201770887
sVY
L3L
sVX
L6L
sg1335
g1356
sg35
g36
sg37
g38
sg21
S'3'
sg19
S'space'
p1438
sg34
g11
sg1338
L3L
sg1339
g1403
sg1341
L3L
sS'block.thisIndex'
p1439
I13
sg1343
g1344
sg1345
g1340
sg1346
VUBUUxy
p1440
sa(dp1441
S'block.thisTrialN'
p1442
I11
sS'block.thisRepN'
p1443
I0
sg29
g33
sS'block.thisN'
p1444
I11
sg1330
(S'INCREASE'
S'TIMES'
S'x'
S'y'
tp1445
sg27
g28
sg1332
L2L
sg1333
(I8
I9
tp1446
sg22
I1
sg20
F0.71675159852020442
sg23
F6.5333258066093549
sVY
L4L
sVX
L2L
sg1335
L0L
sg35
g36
sg37
g38
sg21
S'9'
sg19
S'space'
p1447
sg34
g11
sg1338
L9L
sg1339
g1336
sg1341
L9L
sS'block.thisIndex'
p1448
I2
sg1343
g1356
sg1345
L0L
sg1346
g1405
sa(dp1449
S'block.thisTrialN'
p1450
I12
sS'block.thisRepN'
p1451
I0
sg29
g33
sS'block.thisN'
p1452
I12
sg1330
(S'SUBTRACT'
S'DOUBLE'
S'DECREASE'
S'x'
S'y'
tp1453
sg27
g28
sg1332
L3L
sg1333
(I8
I16
I7
tp1454
sg22
I0
sg20
F1.2334123634500429
sg23
F6.4720666042994708
sVY
L9L
sVX
L9L
sg1335
g1376
sg35
g36
sg37
g38
sg21
S'9'
sg19
S'space'
p1455
sg34
g11
sg1338
L7L
sg1339
g1378
sg1341
L7L
sS'block.thisIndex'
p1456
I5
sg1343
g1403
sg1345
L0L
sg1346
VBUUxy
p1457
sa(dp1458
S'block.thisTrialN'
p1459
I13
sS'block.thisRepN'
p1460
I0
sg29
g33
sS'block.thisN'
p1461
I13
sg1330
(S'TIMES'
S'THIRD'
S'x'
S'y'
tp1462
sg27
g28
sg1332
L2L
sg1333
(I1
I4
tp1463
sg22
I1
sg20
F1.1166373296873644
sg23
F2.1334184076404199
sVY
L4L
sVX
L3L
sg1335
L0L
sg35
g36
sg37
g38
sg21
S'4'
sg19
S'space'
p1464
sg34
g11
sg1338
L4L
sg1339
g1374
sg1341
L4L
sS'block.thisIndex'
p1465
I1
sg1343
g1336
sg1345
L0L
sg1346
VBUxy
p1466
sa(dp1467
S'block.thisTrialN'
p1468
I14
sS'block.thisRepN'
p1469
I0
sg29
g33
sS'block.thisN'
p1470
I14
sg1330
(S'SUBTRACT'
S'THIRD'
S'x'
S'y'
tp1471
sg27
g28
sg1332
L2L
sg1333
(I3
I1
tp1472
sg22
I1
sg20
F0.73343460145406425
sg23
F3.8333886429900303
sVY
L2L
sVX
L9L
sg1335
L0L
sg35
g36
sg37
g38
sg21
S'1'
sg19
S'space'
p1473
sg34
g11
sg1338
L1L
sg1339
g1374
sg1341
L1L
sS'block.thisIndex'
p1474
I0
sg1343
g1403
sg1345
L0L
sg1346
g1466
sa(dp1475
S'block.thisTrialN'
p1476
I15
sS'block.thisRepN'
p1477
I0
sg29
g33
sS'block.thisN'
p1478
I15
sg1330
(S'DECREASE'
S'DIVIDE'
S'TRIPLE'
S'DOUBLE'
S'x'
S'y'
tp1479
sg27
g28
sg1332
L4L
sg1333
(I6
I18
I2
I1
tp1480
sg22
I0
sg20
F1.383417124627158
sg23
F5.700029821600765
sVY
L9L
sVX
L3L
sg1335
g1344
sg35
g36
sg37
g38
sg21
S'3'
sg19
S'space'
p1481
sg34
g11
sg1338
L1L
sg1339
g1365
sg1341
L1L
sS'block.thisIndex'
p1482
I12
sg1343
g1376
sg1345
g1378
sg1346
g1440
sa(dp1483
S'block.thisTrialN'
p1484
I16
sS'block.thisRepN'
p1485
I0
sg29
g33
sS'block.thisN'
p1486
I16
sg1330
(S'DOUBLE'
S'TIMES'
S'THIRD'
S'x'
S'y'
tp1487
sg27
g28
sg1332
L3L
sg1333
(I1
I4
I8
tp1488
sg22
I1
sg20
F1.8334274168591946
sg23
F4.2000506339827552
sVY
L4L
sVX
L3L
sg1335
g1374
sg35
g36
sg37
g38
sg21
S'8'
sg19
S'space'
p1489
sg34
g11
sg1338
L8L
sg1339
g1336
sg1341
L8L
sS'block.thisIndex'
p1490
I6
sg1343
g1378
sg1345
L0L
sg1346
g1367
sa(dp1491
S'block.thisTrialN'
p1492
I17
sS'block.thisRepN'
p1493
I0
sg29
g33
sS'block.thisN'
p1494
I17
sg1330
(S'ADD'
S'DECREASE'
S'HALF'
S'x'
S'y'
tp1495
sg27
g28
sg1332
L3L
sg1333
(I3
I2
I6
tp1496
sg22
I1
sg20
F1.8667264239629731
sg23
F2.8667364025022835
sVY
L4L
sVX
L6L
sg1335
g1340
sg35
g36
sg37
g38
sg21
S'6'
sg19
S'space'
p1497
sg34
g11
sg1338
L6L
sg1339
g1376
sg1341
L6L
sS'block.thisIndex'
p1498
I4
sg1343
g1422
sg1345
L0L
sg1346
g1457
sasS'loops'
p1499
(lp1500
g1
(cpsychopy.data
TrialHandler
p1501
g3
NtRp1502
(dp1503
S'origin'
p1504
NsS'thisTrial'
p1505
(lp1506
sS'_exp'
p1507
I357732560
sg10
S'practice_trials'
p1508
sg6
S'C:\\Users\\CCDL\\Desktop\\Experiments\\KRITL\\2. kritl_experimenter.py'
p1509
sS'thisRepN'
p1510
I1
sg24
I01
sg25
g26
sS'data'
p1511
g1
(cpsychopy.data
DataHandler
p1512
c__builtin__
dict
p1513
(dp1514
g15
cnumpy.core.multiarray
_reconstruct
p1515
(cnumpy
ndarray
p1516
(I0
tS'b'
tRp1517
(I1
(I6
I1
tg31
(S'O4'
I0
I1
tRp1518
(I3
S'|'
NNNI-1
I-1
I63
tbI00
(lp1519
(lp1520
F1.7667270512320101
aa(lp1521
F4.1165974155301228
aa(lp1522
F2.2334020998096094
aa(lp1523
F2.9333760415902361
aa(lp1524
F7.2333302542101592
aa(lp1525
F6.1333177668275312
aatbsg16
g1515
(g1516
(I0
tS'b'
tRp1526
(I1
(I6
I1
tg1518
I00
(lp1527
S'7'
aS'8'
aS'7'
aS'8'
aNaS'9'
atbsS'ran'
p1528
cnumpy.ma.core
_mareconstruct
p1529
(cnumpy.ma.core
MaskedArray
p1530
g1516
(I0
tp1531
S'b'
tRp1532
(I1
(I6
I1
tg31
(S'f4'
I0
I1
tRp1533
(I3
S'<'
NNNI-1
I-1
I0
tbI00
S'\x00\x00\x80?\x00\x00\x80?\x00\x00\x80?\x00\x00\x80?\x00\x00\x80?\x00\x00\x80?'
S'\x00\x00\x00\x00\x00\x00'
Ntbsg18
g1529
(g1530
g1516
g1531
S'b'
tRp1534
(I1
(I6
I1
tg1533
I00
S'\x0f\x9a9@\xf8DD@3E4@A\x88\x04A\x00\x00\x00\x00%\xcc\xf4@'
S'\x00\x00\x00\x00\x01\x00'
Ntbsg14
g1515
(g1516
(I0
tS'b'
tRp1535
(I1
(I6
I1
tg1518
I00
(lp1536
(lp1537
g111
aa(lp1538
g120
aa(lp1539
g93
aa(lp1540
g85
aa(lp1541
g70
aa(lp1542
g102
aatbsS'order'
p1543
g1529
(g1530
g1516
g1531
S'b'
tRp1544
(I1
(I6
I1
tg1533
I00
S'\x00\x00\x80@\x00\x00\xa0@\x00\x00\x00@\x00\x00\x80?\x00\x00\x00\x00\x00\x00@@'
S'\x00\x00\x00\x00\x00\x00'
Ntbsg17
g1529
(g1530
g1516
g1531
S'b'
tRp1545
(I1
(I6
I1
tg1533
I00
S'\x00\x00\x80?\x00\x00\x80?\x00\x00\x80?\x00\x00\x80?\x00\x00\x00\x00\x00\x00\x80?'
S'\x00\x00\x00\x00\x00\x00'
NtbstRp1546
(dp1547
S'isNumeric'
p1548
(dp1549
g16
I00
sg1528
I01
sg18
I01
sg14
I00
sg17
I01
sg1543
I01
sg15
I00
ssS'trials'
p1550
g1502
sS'dataTypes'
p1551
(lp1552
g1528
ag1543
ag14
ag15
ag16
ag17
ag18
asS'dataShape'
p1553
(lp1554
I6
aI1
asbsS'method'
p1555
S'fullRandom'
p1556
sS'sequenceIndices'
p1557
g1515
(g1516
(I0
tS'b'
tRp1558
(I1
(I6
I1
tg1518
I00
(lp1559
I4
aI3
aI2
aI5
aI0
aI1
atbsS'finished'
p1560
I01
sS'nReps'
p1561
I1
sS'nRemaining'
p1562
I-1
sS'trialList'
p1563
(lp1564
g1
(cpsychopy.data
TrialType
p1565
g1513
(dp1566
g47
L0L
sg48
g79
sg49
g107
sg50
L7L
sg53
L2L
sg52
L0L
sg51
L5L
sg54
L3L
stRp1567
ag1
(g1565
g1513
(dp1568
g47
L0L
sg48
g107
sg49
g116
sg50
L8L
sg53
L2L
sg52
L0L
sg51
L3L
sg54
L3L
stRp1569
ag1
(g1565
g1513
(dp1570
g47
L0L
sg48
g79
sg49
g81
sg50
L7L
sg53
L2L
sg52
L0L
sg51
L5L
sg54
L4L
stRp1571
ag1
(g1565
g1513
(dp1572
g47
g79
sg48
g80
sg49
g81
sg50
L8L
sg53
L3L
sg52
L0L
sg51
L2L
sg54
L4L
stRp1573
ag1
(g1565
g1513
(dp1574
g47
g68
sg48
g73
sg49
g71
sg50
L3L
sg53
L3L
sg52
L0L
sg51
L3L
sg54
L2L
stRp1575
ag1
(g1565
g1513
(dp1576
g47
g68
sg48
g73
sg49
g98
sg50
L9L
sg53
L4L
sg52
g71
sg51
L8L
sg54
L8L
stRp1577
asS'seed'
p1578
NsS'thisIndex'
p1579
I1
sS'thisN'
p1580
I6
sS'thisTrialN'
p1581
I0
sS'nTotal'
p1582
I6
sbag1
(g1501
g3
NtRp1583
(dp1584
g1504
Nsg1505
(lp1585
sg1507
I357732560
sg10
S'block'
p1586
sg6
g1509
sg1510
I1
sg24
I01
sg25
g26
sg1511
g1
(g1512
g1513
(dp1587
g22
g1529
(g1530
g1516
g1531
S'b'
tRp1588
(I1
(I18
I1
tg1533
I00
S'\x00\x00\x80?\x00\x00\x80?\x00\x00\x80?\x00\x00\x80?\x00\x00\x80?\x00\x00\x80?\x00\x00\x80?\x00\x00\x80?\x00\x00\x80?\x00\x00\x80?\x00\x00\x00\x00\x00\x00\x80?\x00\x00\x00\x00\x00\x00\x00\x00\x00\x00\x80?\x00\x00\x80?\x00\x00\x80?\x00\x00\x80?'
S'\x00\x00\x00\x00\x00\x00\x00\x00\x00\x00\x00\x00\x00\x00\x00\x00\x00\x00'
Ntbsg19
g1515
(g1516
(I0
tS'b'
tRp1589
(I1
(I18
I1
tg1518
I00
(lp1590
g251
ag277
ag243
ag143
ag269
ag175
ag235
ag154
ag202
ag211
ag285
ag260
ag131
ag227
ag184
ag219
ag164
ag193
atbsg23
g1529
(g1530
g1516
g1531
S'b'
tRp1591
(I1
(I18
I1
tg1533
I00
S',\x14\xd1?T\x11\xa9@\xda\xbd\xdb?\xc6\xf2\xce?\x0b\x9a\xc1@Y#"@\xa9\xdem@~3\x83@mgf@\x11eF@\x9b\x99\xb1@\xc5w\xa7@\x00\x00\x00\x00\xf7e"A\x10\xcd\xb4@\x1a\x88\xe0@\xad\xcc\xdc@\xc8\xee\x0eA'
S'\x00\x00\x00\x00\x00\x00\x00\x00\x00\x00\x00\x00\x01\x00\x00\x00\x00\x00'
Ntbsg1528
g1529
(g1530
g1516
g1531
S'b'
tRp1592
(I1
(I18
I1
tg1533
I00
S'\x00\x00\x80?\x00\x00\x80?\x00\x00\x80?\x00\x00\x80?\x00\x00\x80?\x00\x00\x80?\x00\x00\x80?\x00\x00\x80?\x00\x00\x80?\x00\x00\x80?\x00\x00\x80?\x00\x00\x80?\x00\x00\x80?\x00\x00\x80?\x00\x00\x80?\x00\x00\x80?\x00\x00\x80?\x00\x00\x80?'
S'\x00\x00\x00\x00\x00\x00\x00\x00\x00\x00\x00\x00\x00\x00\x00\x00\x00\x00'
Ntbsg21
g1515
(g1516
(I0
tS'b'
tRp1593
(I1
(I18
I1
tg1518
I00
(lp1594
S'7'
aS'9'
aS'2'
aS'5'
aS'9'
aS'3'
aS'8'
aS'3'
aS'9'
aS'6'
aS'4'
aS'9'
aNaS'5'
aS'6'
aS'9'
aS'5'
aS'5'
atbsg1543
g1529
(g1530
g1516
g1531
S'b'
tRp1595
(I1
(I18
I1
tg1533
I00
S'\x00\x00PA\x00\x00\x80A\x00\x00@A\x00\x00\x80?\x00\x00pA\x00\x00\x80@\x00\x000A\x00\x00\x00@\x00\x00\xe0@\x00\x00\x00A\x00\x00\x88A\x00\x00`A\x00\x00\x00\x00\x00\x00 A\x00\x00\xa0@\x00\x00\x10A\x00\x00@@\x00\x00\xc0@'
S'\x00\x00\x00\x00\x00\x00\x00\x00\x00\x00\x00\x00\x00\x00\x00\x00\x00\x00'
Ntbsg20
g1529
(g1530
g1516
g1531
S'b'
tRp1596
(I1
(I18
I1
tg1533
I00
S'\x8az\xb7?g\xaa\xd2@\x1f43@\xee\xde}@y\xab:@iw\xb7@\xb0\xcc\xac@<\x00\x80@\x81"\x82@$\x11\xb1@9\xbb\xf3@\x99\xee\xf6@\xfb2\xf3@\'"\x9a@<\x99\xf1@{\xdd\xe5@\x03D\x04A\xc6\xee\xe6@'
S'\x00\x00\x00\x00\x00\x00\x00\x00\x00\x00\x00\x00\x00\x00\x00\x00\x00\x00'
NtbstRp1597
(dp1598
g1548
(dp1599
g1528
I01
sg21
I00
sg20
I01
sg22
I01
sg19
I00
sg23
I01
sg1543
I01
ssg1550
g1583
sg1551
(lp1600
g1528
ag1543
ag19
ag20
ag21
ag22
ag23
asg1553
(lp1601
I18
aI1
asbsg1555
g1556
sg1557
g1515
(g1516
(I0
tS'b'
tRp1602
(I1
(I18
I1
tg1518
I00
(lp1603
I12
aI3
aI7
aI16
aI5
aI14
aI17
aI8
aI9
aI15
aI13
aI6
aI2
aI0
aI11
aI4
aI1
aI10
atbsg1560
I01
sg1561
I1
sg1562
I-1
sg1563
(lp1604
g1
(g1565
g1513
(dp1605
g55
g249
sVY
L5L
sg57
L2L
sg58
g250
sg59
L7L
sg60
L7L
sg56
g134
sVX
L4L
sg61
L0L
sg62
g167
sg63
L0L
sg64
g253
stRp1606
ag1
(g1565
g1513
(dp1607
g55
g275
sVY
L3L
sg57
L2L
sg58
g276
sg59
L9L
sg60
L9L
sg56
g135
sVX
L4L
sg61
L0L
sg62
g132
sg63
L0L
sg64
g253
stRp1608
ag1
(g1565
g1513
(dp1609
g55
g241
sVY
L8L
sg57
L2L
sg58
g242
sg59
L2L
sg60
L2L
sg56
g144
sVX
L8L
sg61
L0L
sg62
g163
sg63
L0L
sg64
g147
stRp1610
ag1
(g1565
g1513
(dp1611
g55
g141
sVY
L2L
sg57
L2L
sg58
g142
sg59
L5L
sg60
L5L
sg56
g144
sVX
L8L
sg61
L0L
sg62
g146
sg63
L0L
sg64
g147
stRp1612
ag1
(g1565
g1513
(dp1613
g55
g267
sVY
L2L
sg57
L3L
sg58
g268
sg59
L9L
sg60
L9L
sg56
g135
sVX
L7L
sg61
g130
sg62
g144
sg63
L0L
sg64
g177
stRp1614
ag1
(g1565
g1513
(dp1615
g55
g173
sVY
L2L
sg57
L3L
sg58
g174
sg59
L3L
sg60
L3L
sg56
g146
sVX
L8L
sg61
g134
sg62
g132
sg63
L0L
sg64
g177
stRp1616
ag1
(g1565
g1513
(dp1617
g55
g233
sVY
L2L
sg57
L3L
sg58
g234
sg59
L8L
sg60
L8L
sg56
g195
sVX
L9L
sg61
g130
sg62
g134
sg63
L0L
sg64
g156
stRp1618
ag1
(g1565
g1513
(dp1619
g55
g152
sVY
L3L
sg57
L3L
sg58
g153
sg59
L3L
sg60
L3L
sg56
g144
sVX
L2L
sg61
g135
sg62
g146
sg63
L0L
sg64
g156
stRp1620
ag1
(g1565
g1513
(dp1621
g55
g200
sVY
L3L
sg57
L3L
sg58
g201
sg59
L9L
sg60
L9L
sg56
g134
sVX
L3L
sg61
g167
sg62
g135
sg63
L0L
sg64
g204
stRp1622
ag1
(g1565
g1513
(dp1623
g55
g209
sVY
L2L
sg57
L3L
sg58
g210
sg59
L6L
sg60
L6L
sg56
g146
sVX
L3L
sg61
g132
sg62
g135
sg63
L0L
sg64
g204
stRp1624
ag1
(g1565
g1513
(dp1625
g55
g283
sVY
L4L
sg57
L4L
sg58
g284
sg59
L5L
sg60
L5L
sg56
g163
sVX
L3L
sg61
g146
sg62
g144
sg63
g135
sg64
g262
stRp1626
ag1
(g1565
g1513
(dp1627
g55
g258
sVY
L9L
sg57
L4L
sg58
g259
sg59
L9L
sg60
L9L
sg56
g134
sVX
L3L
sg61
g146
sg62
g195
sg63
g165
sg64
g262
stRp1628
ag1
(g1565
g1513
(dp1629
g55
g128
sVY
L4L
sg57
L4L
sg58
g129
sg59
L5L
sg60
L5L
sg56
g132
sVX
L5L
sg61
g130
sg62
g134
sg63
g135
sg64
g136
stRp1630
ag1
(g1565
g1513
(dp1631
g55
g225
sVY
L2L
sg57
L4L
sg58
g226
sg59
L7L
sg60
L7L
sg56
g195
sVX
L2L
sg61
g135
sg62
g146
sg63
g134
sg64
g136
stRp1632
ag1
(g1565
g1513
(dp1633
g55
g182
sVY
L4L
sg57
L4L
sg58
g183
sg59
L6L
sg60
L6L
sg56
g163
sVX
L4L
sg61
g132
sg62
g135
sg63
g146
sg64
g186
stRp1634
ag1
(g1565
g1513
(dp1635
g55
g217
sVY
L8L
sg57
L4L
sg58
g218
sg59
L9L
sg60
L9L
sg56
g146
sVX
L8L
sg61
g144
sg62
g135
sg63
g163
sg64
g186
stRp1636
ag1
(g1565
g1513
(dp1637
g55
g161
sVY
L4L
sg57
L4L
sg58
g162
sg59
L5L
sg60
L5L
sg56
g165
sVX
L5L
sg61
g163
sg62
g130
sg63
g167
sg64
g168
stRp1638
ag1
(g1565
g1513
(dp1639
g55
g191
sVY
L4L
sg57
L4L
sg58
g192
sg59
L5L
sg60
L5L
sg56
g146
sVX
L7L
sg61
g134
sg62
g165
sg63
g195
sg64
g168
stRp1640
asg1578
Nsg1579
I10
sg1580
I18
sg1581
I0
sg1582
I18
sbag1
(g1501
g3
NtRp1641
(dp1642
g1504
Nsg1505
(lp1643
sg1507
I357732560
sg10
g1586
sg6
g1509
sg1510
I1
sg24
I01
sg25
g26
sg1511
g1
(g1512
g1513
(dp1644
g22
g1529
(g1530
g1516
g1531
S'b'
tRp1645
(I1
(I18
I1
tg1533
I00
S'\x00\x00\x80?\x00\x00\x80?\x00\x00\x80?\x00\x00\x80?\x00\x00\x80?\x00\x00\x80?\x00\x00\x80?\x00\x00\x80?\x00\x00\x80?\x00\x00\x80?\x00\x00\x80?\x00\x00\x80?\x00\x00\x80?\x00\x00\x80?\x00\x00\x80?\x00\x00\x00\x00\x00\x00\x80?\x00\x00\x80?'
S'\x00\x00\x00\x00\x00\x00\x00\x00\x00\x00\x00\x00\x00\x00\x00\x00\x00\x00'
Ntbsg19
g1515
(g1516
(I0
tS'b'
tRp1646
(I1
(I18
I1
tg1518
I00
(lp1647
g297
ag347
ag442
ag356
ag382
ag458
ag336
ag365
ag434
ag409
ag418
ag391
ag315
ag401
ag373
ag450
ag325
ag426
atbsg23
g1529
(g1530
g1516
g1531
S'b'
tRp1648
(I1
(I18
I1
tg1533
I00
S'\x82\x13\xd1?T6\xd3?\xc6\xae\xca?\x03\xf0n@\x80E$@g\xde\x1d@\xfd\x89H@\xc5xg@\xd6\x99\xa9@#\xbdK@\xc3\x99\x91@~U\x9d@\xe9\xff\xdf@\n\xcd\xd4@\x19\xde\x95@\xd0\x10\tA\x1f\xcd\x9c@:\xffoA'
S'\x00\x00\x00\x00\x00\x00\x00\x00\x00\x00\x00\x00\x00\x00\x00\x00\x00\x00'
Ntbsg1528
g1529
(g1530
g1516
g1531
S'b'
tRp1649
(I1
(I18
I1
tg1533
I00
S'\x00\x00\x80?\x00\x00\x80?\x00\x00\x80?\x00\x00\x80?\x00\x00\x80?\x00\x00\x80?\x00\x00\x80?\x00\x00\x80?\x00\x00\x80?\x00\x00\x80?\x00\x00\x80?\x00\x00\x80?\x00\x00\x80?\x00\x00\x80?\x00\x00\x80?\x00\x00\x80?\x00\x00\x80?\x00\x00\x80?'
S'\x00\x00\x00\x00\x00\x00\x00\x00\x00\x00\x00\x00\x00\x00\x00\x00\x00\x00'
Ntbsg21
g1515
(g1516
(I0
tS'b'
tRp1650
(I1
(I18
I1
tg1518
I00
(lp1651
S'7'
aS'2'
aS'8'
aS'6'
aS'7'
aS'8'
aS'2'
aS'5'
aS'6'
aS'5'
aS'9'
aS'8'
aS'6'
aS'3'
aS'5'
aS'2'
aS'3'
aS'1'
atbsg1543
g1529
(g1530
g1516
g1531
S'b'
tRp1652
(I1
(I18
I1
tg1533
I00
S'\x00\x00\x00\x00\x00\x00\x80@\x00\x00pA\x00\x00\xa0@\x00\x00\x00A\x00\x00\x88A\x00\x00@@\x00\x00\xc0@\x00\x00`A\x00\x000A\x00\x00@A\x00\x00\x10A\x00\x00\x80?\x00\x00 A\x00\x00\xe0@\x00\x00\x80A\x00\x00\x00@\x00\x00PA'
S'\x00\x00\x00\x00\x00\x00\x00\x00\x00\x00\x00\x00\x00\x00\x00\x00\x00\x00'
Ntbsg20
g1529
(g1530
g1516
g1531
S'b'
tRp1653
(I1
(I18
I1
tg1533
I00
S'\xb2\xbb\xa3@\xba\x13\xb1?\xb6\xbc\x0b@\xf5\x01\xa0?\nh\xe6?\x80y\xf7?u\x89\x18@\x17\xf0\x0e@Y\xef~@\xf0\x88H@hV\x05@0X\xf5?\xdc\xff\xef@\xa4\x99\xa1@\xf9!\xd2@\xaf\x87\x1cA\xdd\x10\x15Az\xaa\xca@'
S'\x00\x00\x00\x00\x00\x00\x00\x00\x00\x00\x00\x00\x00\x00\x00\x00\x00\x00'
NtbstRp1654
(dp1655
g1548
(dp1656
g1528
I01
sg21
I00
sg20
I01
sg22
I01
sg19
I00
sg23
I01
sg1543
I01
ssg1550
g1641
sg1551
(lp1657
g1528
ag1543
ag19
ag20
ag21
ag22
ag23
asg1553
(lp1658
I18
aI1
asbsg1555
g1556
sg1557
g1515
(g1516
(I0
tS'b'
tRp1659
(I1
(I18
I1
tg1518
I00
(lp1660
I0
aI12
aI16
aI6
aI1
aI3
aI7
aI14
aI4
aI11
aI13
aI9
aI10
aI17
aI8
aI2
aI15
aI5
atbsg1560
I01
sg1561
I1
sg1562
I-1
sg1563
(lp1661
g1
(g1565
g1513
(dp1662
g291
g292
sVY
L5L
sg293
L2L
sg294
g295
sg301
L7L
sg298
L7L
sg299
g300
sVX
L3L
sg296
L0L
sg303
g304
sg305
L0L
sg306
g307
stRp1663
ag1
(g1565
g1513
(dp1664
g291
g345
sVY
L4L
sg293
L2L
sg294
g346
sg301
L2L
sg298
L2L
sg299
g300
sVX
L9L
sg296
L0L
sg303
g349
sg305
L0L
sg306
g307
stRp1665
ag1
(g1565
g1513
(dp1666
g291
g440
sVY
L3L
sg293
L2L
sg294
g441
sg301
L8L
sg298
L8L
sg299
g328
sVX
L3L
sg296
L0L
sg303
g300
sg305
L0L
sg306
g358
stRp1667
ag1
(g1565
g1513
(dp1668
g291
g354
sVY
L8L
sg293
L2L
sg294
g355
sg301
L6L
sg298
L6L
sg299
g304
sVX
L4L
sg296
L0L
sg303
g317
sg305
L0L
sg306
g358
stRp1669
ag1
(g1565
g1513
(dp1670
g291
g380
sVY
L5L
sg293
L3L
sg294
g381
sg301
L7L
sg298
L7L
sg299
g339
sVX
L2L
sg296
g300
sg303
g304
sg305
L0L
sg306
g384
stRp1671
ag1
(g1565
g1513
(dp1672
g291
g456
sVY
L2L
sg293
L3L
sg294
g457
sg301
L8L
sg298
L8L
sg299
g392
sVX
L4L
sg296
g317
sg303
g304
sg305
L0L
sg306
g384
stRp1673
ag1
(g1565
g1513
(dp1674
g291
g334
sVY
L3L
sg293
L3L
sg294
g335
sg301
L2L
sg298
L2L
sg299
g337
sVX
L3L
sg296
g327
sg303
g339
sg305
L0L
sg306
g340
stRp1675
ag1
(g1565
g1513
(dp1676
g291
g363
sVY
L3L
sg293
L3L
sg294
g364
sg301
L5L
sg298
L5L
sg299
g304
sVX
L2L
sg296
g317
sg303
g327
sg305
L0L
sg306
g340
stRp1677
ag1
(g1565
g1513
(dp1678
g291
g432
sVY
L4L
sg293
L3L
sg294
g433
sg301
L6L
sg298
L6L
sg299
g314
sVX
L5L
sg296
g304
sg303
g339
sg305
L0L
sg306
g411
stRp1679
ag1
(g1565
g1513
(dp1680
g291
g407
sVY
L3L
sg293
L3L
sg294
g408
sg301
L5L
sg298
L5L
sg299
g327
sVX
L3L
sg296
g328
sg303
g317
sg305
L0L
sg306
g411
stRp1681
ag1
(g1565
g1513
(dp1682
g291
g416
sVY
L4L
sg293
L4L
sg294
g417
sg301
L9L
sg298
L9L
sg299
g300
sVX
L9L
sg296
g314
sg303
g304
sg305
g339
sg306
g394
stRp1683
ag1
(g1565
g1513
(dp1684
g291
g389
sVY
L2L
sg293
L4L
sg294
g390
sg301
L8L
sg298
L8L
sg299
g392
sVX
L2L
sg296
g339
sg303
g304
sg305
g300
sg306
g394
stRp1685
ag1
(g1565
g1513
(dp1686
g291
g312
sVY
L6L
sg293
L4L
sg294
g313
sg301
L6L
sg298
L6L
sg299
g304
sVX
L6L
sg296
g314
sg303
g300
sg305
g317
sg306
g318
stRp1687
ag1
(g1565
g1513
(dp1688
g291
g399
sVY
L2L
sg293
L4L
sg294
g400
sg301
L3L
sg298
L3L
sg299
g337
sVX
L9L
sg296
g339
sg303
g300
sg305
g314
sg306
g318
stRp1689
ag1
(g1565
g1513
(dp1690
g291
g371
sVY
L3L
sg293
L4L
sg294
g372
sg301
L5L
sg298
L5L
sg299
g339
sVX
L3L
sg296
g328
sg303
g300
sg305
g314
sg306
g375
stRp1691
ag1
(g1565
g1513
(dp1692
g291
g448
sVY
L3L
sg293
L4L
sg294
g449
sg301
L8L
sg298
L8L
sg299
g392
sVX
L3L
sg296
g337
sg303
g300
sg305
g339
sg306
g375
stRp1693
ag1
(g1565
g1513
(dp1694
g291
g323
sVY
L4L
sg293
L4L
sg294
g324
sg301
L3L
sg298
L3L
sg299
g317
sVX
L3L
sg296
g314
sg303
g327
sg305
g328
sg306
g329
stRp1695
ag1
(g1565
g1513
(dp1696
g291
g424
sVY
L2L
sg293
L4L
sg294
g425
sg301
L1L
sg298
L1L
sg299
g317
sVX
L7L
sg296
g327
sg303
g314
sg305
g337
sg306
g329
stRp1697
asg1578
Nsg1579
I5
sg1580
I18
sg1581
I0
sg1582
I18
sbag1
(g1501
g3
NtRp1698
(dp1699
g1504
Nsg1505
(lp1700
sg1507
I357732560
sg10
g1586
sg6
g1509
sg1510
I1
sg24
I01
sg25
g26
sg1511
g1
(g1512
g1513
(dp1701
g22
g1529
(g1530
g1516
g1531
S'b'
tRp1702
(I1
(I18
I1
tg1533
I00
S'\x00\x00\x80?\x00\x00\x80?\x00\x00\x80?\x00\x00\x80?\x00\x00\x80?\x00\x00\x80?\x00\x00\x80?\x00\x00\x80?\x00\x00\x80?\x00\x00\x80?\x00\x00\x00\x00\x00\x00\x80?\x00\x00\x80?\x00\x00\x80?\x00\x00\x80?\x00\x00\x00\x00\x00\x00\x80?\x00\x00\x80?'
S'\x00\x00\x00\x00\x00\x00\x00\x00\x00\x00\x00\x00\x00\x00\x00\x00\x00\x00'
Ntbsg19
g1515
(g1516
(I0
tS'b'
tRp1703
(I1
(I18
I1
tg1518
I00
(lp1704
g520
ag470
ag563
ag590
ag546
ag615
ag606
ag623
ag598
ag581
ag631
ag572
ag512
ag488
ag529
ag538
ag501
ag555
atbsg23
g1529
(g1530
g1516
g1531
S'b'
tRp1705
(I1
(I18
I1
tg1533
I00
S'\x9a\xaa\xea?pE4@\xac\xe1\xdd?/\xbe\xfb?\xaf\x01P@}\xef~@\x12\xcel@\x9fD\x84@\xaa\xcd\\@X\x01`@"U\xed@\xe9\x10\xd1@\xf5!\xba@L"\xa2@\xe6\xaa\xba@\x8d2oA\xe7\x99\x89@\xb3\x88\xb8@'
S'\x00\x00\x00\x00\x00\x00\x00\x00\x00\x00\x00\x00\x00\x00\x00\x00\x00\x00'
Ntbsg1528
g1529
(g1530
g1516
g1531
S'b'
tRp1706
(I1
(I18
I1
tg1533
I00
S'\x00\x00\x80?\x00\x00\x80?\x00\x00\x80?\x00\x00\x80?\x00\x00\x80?\x00\x00\x80?\x00\x00\x80?\x00\x00\x80?\x00\x00\x80?\x00\x00\x80?\x00\x00\x80?\x00\x00\x80?\x00\x00\x80?\x00\x00\x80?\x00\x00\x80?\x00\x00\x80?\x00\x00\x80?\x00\x00\x80?'
S'\x00\x00\x00\x00\x00\x00\x00\x00\x00\x00\x00\x00\x00\x00\x00\x00\x00\x00'
Ntbsg21
g1515
(g1516
(I0
tS'b'
tRp1707
(I1
(I18
I1
tg1518
I00
(lp1708
S'4'
aS'6'
aS'3'
aS'1'
aS'9'
aS'5'
aS'5'
aS'5'
aS'8'
aS'3'
aS'4'
aS'9'
aS'4'
aS'3'
aS'8'
aS'9'
aS'1'
aS'6'
atbsg1543
g1529
(g1530
g1516
g1531
S'b'
tRp1709
(I1
(I18
I1
tg1533
I00
S'\x00\x00\x80@\x00\x00\x00\x00\x00\x00\x10A\x00\x00@A\x00\x00\xe0@\x00\x00pA\x00\x00`A\x00\x00\x80A\x00\x00PA\x00\x000A\x00\x00\x88A\x00\x00 A\x00\x00@@\x00\x00\x80?\x00\x00\xa0@\x00\x00\xc0@\x00\x00\x00@\x00\x00\x00A'
S'\x00\x00\x00\x00\x00\x00\x00\x00\x00\x00\x00\x00\x00\x00\x00\x00\x00\x00'
Ntbsg20
g1529
(g1530
g1516
g1531
S'b'
tRp1710
(I1
(I18
I1
tg1533
I00
S"\x1f5\x03@\x9b\xab\n@\xee|w?\x19X\xd5?\xad\xef.@\xde\x88\xa8?\xc3i\xc6?Bx\x07@Ix\x17@\xb4\x02\xa0?\x94xG@'\x89h@\xe1!\xda@\xd6\xbb\xb3@M\xff\xdf@w\xff\xe7@\xf72\x0bA\xad\xee\x06A"
S'\x00\x00\x00\x00\x00\x00\x00\x00\x00\x00\x00\x00\x00\x00\x00\x00\x00\x00'
NtbstRp1711
(dp1712
g1548
(dp1713
g1528
I01
sg21
I00
sg20
I01
sg22
I01
sg19
I00
sg23
I01
sg1543
I01
ssg1550
g1698
sg1551
(lp1714
g1528
ag1543
ag19
ag20
ag21
ag22
ag23
asg1553
(lp1715
I18
aI1
asbsg1555
g1556
sg1557
g1515
(g1516
(I0
tS'b'
tRp1716
(I1
(I18
I1
tg1518
I00
(lp1717
I1
aI13
aI16
aI12
aI0
aI14
aI15
aI4
aI17
aI2
aI11
aI9
aI3
aI8
aI6
aI5
aI7
aI10
atbsg1560
I01
sg1561
I1
sg1562
I-1
sg1563
(lp1718
g1
(g1565
g1513
(dp1719
g464
g518
sVY
L2L
sg466
L2L
sg467
g519
sg474
L4L
sg471
L4L
sg472
g492
sVX
L3L
sg469
L0L
sg476
g477
sg478
L0L
sg479
g480
stRp1720
ag1
(g1565
g1513
(dp1721
g464
g465
sVY
L2L
sg466
L2L
sg467
g468
sg474
L6L
sg471
L6L
sg472
g473
sVX
L2L
sg469
L0L
sg476
g477
sg478
L0L
sg479
g480
stRp1722
ag1
(g1565
g1513
(dp1723
g464
g561
sVY
L5L
sg466
L2L
sg467
g562
sg474
L3L
sg471
L3L
sg472
g528
sVX
L4L
sg469
L0L
sg476
g503
sg478
L0L
sg479
g565
stRp1724
ag1
(g1565
g1513
(dp1725
g464
g588
sVY
L2L
sg466
L2L
sg467
g589
sg474
L1L
sg471
L1L
sg472
g489
sVX
L5L
sg469
L0L
sg476
g503
sg478
L0L
sg479
g565
stRp1726
ag1
(g1565
g1513
(dp1727
g464
g544
sVY
L3L
sg466
L3L
sg467
g545
sg474
L9L
sg471
L9L
sg472
g492
sVX
L8L
sg469
g500
sg476
g477
sg478
L0L
sg479
g548
stRp1728
ag1
(g1565
g1513
(dp1729
g464
g613
sVY
L5L
sg466
L3L
sg467
g614
sg474
L5L
sg471
L5L
sg472
g503
sVX
L6L
sg469
g500
sg476
g477
sg478
L0L
sg479
g548
stRp1730
ag1
(g1565
g1513
(dp1731
g464
g604
sVY
L7L
sg466
L3L
sg467
g605
sg474
L5L
sg471
L5L
sg472
g528
sVX
L7L
sg469
g473
sg476
g503
sg478
L0L
sg479
g608
stRp1732
ag1
(g1565
g1513
(dp1733
g464
g621
sVY
L5L
sg466
L3L
sg467
g622
sg474
L5L
sg471
L5L
sg472
g477
sVX
L4L
sg469
g492
sg476
g503
sg478
L0L
sg479
g608
stRp1734
ag1
(g1565
g1513
(dp1735
g464
g596
sVY
L5L
sg466
L3L
sg467
g597
sg474
L8L
sg471
L8L
sg472
g492
sVX
L5L
sg469
g477
sg476
g503
sg478
L0L
sg479
g583
stRp1736
ag1
(g1565
g1513
(dp1737
g464
g579
sVY
L2L
sg466
L3L
sg467
g580
sg474
L3L
sg471
L3L
sg472
g500
sVX
L4L
sg469
g504
sg476
g491
sg478
L0L
sg479
g583
stRp1738
ag1
(g1565
g1513
(dp1739
g464
g629
sVY
L5L
sg466
L4L
sg467
g630
sg474
L3L
sg471
L3L
sg472
g500
sVX
L5L
sg469
g473
sg476
g489
sg478
g491
sg479
g574
stRp1740
ag1
(g1565
g1513
(dp1741
g464
g570
sVY
L3L
sg466
L4L
sg467
g571
sg474
L9L
sg471
L9L
sg472
g473
sVX
L3L
sg469
g503
sg476
g477
sg478
g487
sg479
g574
stRp1742
ag1
(g1565
g1513
(dp1743
g464
g510
sVY
L6L
sg466
L4L
sg467
g511
sg474
L4L
sg471
L4L
sg472
g504
sVX
L3L
sg469
g491
sg476
g473
sg478
g487
sg479
g493
stRp1744
ag1
(g1565
g1513
(dp1745
g464
g485
sVY
L3L
sg466
L4L
sg467
g486
sg474
L3L
sg471
L3L
sg472
g489
sVX
L3L
sg469
g487
sg476
g491
sg478
g492
sg479
g493
stRp1746
ag1
(g1565
g1513
(dp1747
g464
g526
sVY
L2L
sg466
L4L
sg467
g527
sg474
L8L
sg471
L8L
sg472
g487
sVX
L9L
sg469
g528
sg476
g503
sg478
g473
sg479
g531
stRp1748
ag1
(g1565
g1513
(dp1749
g464
g536
sVY
L3L
sg466
L4L
sg467
g537
sg474
L6L
sg471
L6L
sg472
g500
sVX
L2L
sg469
g528
sg476
g491
sg478
g492
sg479
g531
stRp1750
ag1
(g1565
g1513
(dp1751
g464
g498
sVY
L2L
sg466
L4L
sg467
g499
sg474
L1L
sg471
L1L
sg472
g473
sVX
L8L
sg469
g500
sg476
g503
sg478
g504
sg479
g505
stRp1752
ag1
(g1565
g1513
(dp1753
g464
g553
sVY
L2L
sg466
L4L
sg467
g554
sg474
L6L
sg471
L6L
sg472
g492
sVX
L3L
sg469
g500
sg476
g491
sg478
g477
sg479
g505
stRp1754
asg1578
Nsg1579
I10
sg1580
I18
sg1581
I0
sg1582
I18
sbag1
(g1501
g3
NtRp1755
(dp1756
g1504
Nsg1505
(lp1757
sg1507
I357732560
sg10
g1586
sg6
g1509
sg1510
I1
sg24
I01
sg25
g26
sg1511
g1
(g1512
g1513
(dp1758
g22
g1529
(g1530
g1516
g1531
S'b'
tRp1759
(I1
(I18
I1
tg1533
I00
S'\x00\x00\x80?\x00\x00\x80?\x00\x00\x80?\x00\x00\x80?\x00\x00\x80?\x00\x00\x80?\x00\x00\x80?\x00\x00\x80?\x00\x00\x80?\x00\x00\x80?\x00\x00\x80?\x00\x00\x80?\x00\x00\x80?\x00\x00\x80?\x00\x00\x80?\x00\x00\x00\x00\x00\x00\x80?\x00\x00\x80?'
S'\x00\x00\x00\x00\x00\x00\x00\x00\x00\x00\x00\x00\x00\x00\x00\x00\x00\x00'
Ntbsg19
g1515
(g1516
(I0
tS'b'
tRp1760
(I1
(I18
I1
tg1518
I00
(lp1761
g772
ag691
ag661
ag683
ag739
ag644
ag712
ag764
ag730
ag804
ag702
ag780
ag721
ag756
ag788
ag747
ag672
ag796
atbsg23
g1529
(g1530
g1516
g1531
S'b'
tRp1762
(I1
(I18
I1
tg1533
I00
S'\xd8V\x05@\xa9VU@\xb5\xce\xec?$%\xe2?\x9eD\xbc@\xf7ff@\x83xG@\xb5D\xac@[\x12Q@\xc9\xab:@\xfe\x10\xe1@i\xde\x85@\x82U\xb5@\xdb\x99\x99@\x86\xbb\xfb@P\xddAA\xedU\x8d@=Et@'
S'\x00\x00\x00\x00\x00\x00\x00\x00\x00\x00\x00\x00\x00\x00\x00\x00\x00\x00'
Ntbsg1528
g1529
(g1530
g1516
g1531
S'b'
tRp1763
(I1
(I18
I1
tg1533
I00
S'\x00\x00\x80?\x00\x00\x80?\x00\x00\x80?\x00\x00\x80?\x00\x00\x80?\x00\x00\x80?\x00\x00\x80?\x00\x00\x80?\x00\x00\x80?\x00\x00\x80?\x00\x00\x80?\x00\x00\x80?\x00\x00\x80?\x00\x00\x80?\x00\x00\x80?\x00\x00\x80?\x00\x00\x80?\x00\x00\x80?'
S'\x00\x00\x00\x00\x00\x00\x00\x00\x00\x00\x00\x00\x00\x00\x00\x00\x00\x00'
Ntbsg21
g1515
(g1516
(I0
tS'b'
tRp1764
(I1
(I18
I1
tg1518
I00
(lp1765
S'7'
aS'2'
aS'8'
aS'8'
aS'4'
aS'4'
aS'9'
aS'2'
aS'5'
aS'1'
aS'2'
aS'8'
aS'3'
aS'4'
aS'7'
aS'4'
aS'8'
aS'3'
atbsg1543
g1529
(g1530
g1516
g1531
S'b'
tRp1766
(I1
(I18
I1
tg1533
I00
S'\x00\x00PA\x00\x00\x80@\x00\x00\x80?\x00\x00@@\x00\x00\x10A\x00\x00\x00\x00\x00\x00\xc0@\x00\x00@A\x00\x00\x00A\x00\x00\x88A\x00\x00\xa0@\x00\x00`A\x00\x00\xe0@\x00\x000A\x00\x00pA\x00\x00 A\x00\x00\x00@\x00\x00\x80A'
S'\x00\x00\x00\x00\x00\x00\x00\x00\x00\x00\x00\x00\x00\x00\x00\x00\x00\x00'
Ntbsg20
g1529
(g1530
g1516
g1531
S'b'
tRp1767
(I1
(I18
I1
tg1533
I00
S"\xf1'b?]\xed\xce?xz\x97?\xee\xc1{?A\xad\xaa?\xde\x89\x08@@\xac\n@n\xa9\xca?&\xf3\x1e@uv'@\x12xg@4\xdf-@oVE@w\x99\xf1@[\x00\x80@Q\xbc{@$\x11\x99@\xf6\x99y@"
S'\x00\x00\x00\x00\x00\x00\x00\x00\x00\x00\x00\x00\x00\x00\x00\x00\x00\x00'
NtbstRp1768
(dp1769
g1548
(dp1770
g1528
I01
sg21
I00
sg20
I01
sg22
I01
sg19
I00
sg23
I01
sg1543
I01
ssg1550
g1755
sg1551
(lp1771
g1528
ag1543
ag19
ag20
ag21
ag22
ag23
asg1553
(lp1772
I18
aI1
asbsg1555
g1556
sg1557
g1515
(g1516
(I0
tS'b'
tRp1773
(I1
(I18
I1
tg1518
I00
(lp1774
I5
aI2
aI16
aI3
aI1
aI10
aI6
aI12
aI8
aI4
aI15
aI13
aI7
aI0
aI11
aI14
aI17
aI9
atbsg1560
I01
sg1561
I1
sg1562
I-1
sg1563
(lp1775
g1
(g1565
g1513
(dp1776
g637
g770
sVY
L6L
sg639
L2L
sg640
g771
sg648
L7L
sg645
L7L
sg646
g647
sVX
L3L
sg642
L0L
sg650
g662
sg652
L0L
sg653
g695
stRp1777
ag1
(g1565
g1513
(dp1778
g637
g689
sVY
L4L
sg639
L2L
sg640
g690
sg648
L2L
sg645
L2L
sg646
g692
sVX
L5L
sg642
L0L
sg650
g694
sg652
L0L
sg653
g695
stRp1779
ag1
(g1565
g1513
(dp1780
g637
g659
sVY
L2L
sg639
L2L
sg640
g660
sg648
L8L
sg645
L8L
sg646
g662
sVX
L2L
sg642
L0L
sg650
g643
sg652
L0L
sg653
g664
stRp1781
ag1
(g1565
g1513
(dp1782
g637
g681
sVY
L2L
sg639
L2L
sg640
g682
sg648
L8L
sg645
L8L
sg646
g651
sVX
L2L
sg642
L0L
sg650
g643
sg652
L0L
sg653
g664
stRp1783
ag1
(g1565
g1513
(dp1784
g637
g737
sVY
L3L
sg639
L3L
sg640
g738
sg648
L4L
sg645
L4L
sg646
g673
sVX
L8L
sg642
g671
sg650
g704
sg652
L0L
sg653
g654
stRp1785
ag1
(g1565
g1513
(dp1786
g637
g638
sVY
L2L
sg639
L3L
sg640
g641
sg648
L4L
sg645
L4L
sg646
g647
sVX
L3L
sg642
g643
sg650
g651
sg652
L0L
sg653
g654
stRp1787
ag1
(g1565
g1513
(dp1788
g637
g710
sVY
L2L
sg639
L3L
sg640
g711
sg648
L9L
sg645
L9L
sg646
g662
sVX
L2L
sg642
g673
sg650
g692
sg652
L0L
sg653
g714
stRp1789
ag1
(g1565
g1513
(dp1790
g637
g762
sVY
L2L
sg639
L3L
sg640
g763
sg648
L2L
sg645
L2L
sg646
g694
sVX
L9L
sg642
g647
sg650
g692
sg652
L0L
sg653
g714
stRp1791
ag1
(g1565
g1513
(dp1792
g637
g728
sVY
L4L
sg639
L3L
sg640
g729
sg648
L5L
sg645
L5L
sg646
g673
sVX
L8L
sg642
g704
sg650
g675
sg652
L0L
sg653
g732
stRp1793
ag1
(g1565
g1513
(dp1794
g637
g802
sVY
L6L
sg639
L3L
sg640
g803
sg648
L1L
sg645
L1L
sg646
g692
sVX
L8L
sg642
g694
sg650
g647
sg652
L0L
sg653
g732
stRp1795
ag1
(g1565
g1513
(dp1796
g637
g700
sVY
L3L
sg639
L4L
sg640
g701
sg648
L2L
sg645
L2L
sg646
g643
sVX
L6L
sg642
g692
sg650
g704
sg652
g647
sg653
g705
stRp1797
ag1
(g1565
g1513
(dp1798
g637
g778
sVY
L2L
sg639
L4L
sg640
g779
sg648
L8L
sg645
L8L
sg646
g692
sVX
L2L
sg642
g671
sg650
g651
sg652
g673
sg653
g705
stRp1799
ag1
(g1565
g1513
(dp1800
g637
g719
sVY
L3L
sg639
L4L
sg640
g720
sg648
L3L
sg645
L3L
sg646
g704
sVX
L4L
sg642
g673
sg650
g692
sg652
g671
sg653
g723
stRp1801
ag1
(g1565
g1513
(dp1802
g637
g754
sVY
L3L
sg639
L4L
sg640
g755
sg648
L4L
sg645
L4L
sg646
g651
sVX
L7L
sg642
g671
sg650
g647
sg652
g692
sg653
g723
stRp1803
ag1
(g1565
g1513
(dp1804
g637
g786
sVY
L4L
sg639
L4L
sg640
g787
sg648
L7L
sg645
L7L
sg646
g692
sVX
L8L
sg642
g662
sg650
g647
sg652
g643
sg653
g749
stRp1805
ag1
(g1565
g1513
(dp1806
g637
g745
sVY
L3L
sg639
L4L
sg640
g746
sg648
L6L
sg645
L6L
sg646
g643
sVX
L5L
sg642
g694
sg650
g673
sg652
g675
sg653
g749
stRp1807
ag1
(g1565
g1513
(dp1808
g637
g669
sVY
L2L
sg639
L4L
sg640
g670
sg648
L8L
sg645
L8L
sg646
g673
sVX
L4L
sg642
g671
sg650
g675
sg652
g662
sg653
g676
stRp1809
ag1
(g1565
g1513
(dp1810
g637
g794
sVY
L5L
sg639
L4L
sg640
g795
sg648
L3L
sg645
L3L
sg646
g675
sVX
L9L
sg642
g671
sg650
g673
sg652
g694
sg653
g676
stRp1811
asg1578
Nsg1579
I9
sg1580
I18
sg1581
I0
sg1582
I18
sbag1
(g1501
g3
NtRp1812
(dp1813
g1504
Nsg1505
(lp1814
sg1507
I357732560
sg10
g1586
sg6
g1509
sg1510
I1
sg24
I01
sg25
g26
sg1511
g1
(g1512
g1513
(dp1815
g22
g1529
(g1530
g1516
g1531
S'b'
tRp1816
(I1
(I18
I1
tg1533
I00
S'\x00\x00\x80?\x00\x00\x80?\x00\x00\x80?\x00\x00\x80?\x00\x00\x80?\x00\x00\x80?\x00\x00\x80?\x00\x00\x80?\x00\x00\x80?\x00\x00\x80?\x00\x00\x80?\x00\x00\x00\x00\x00\x00\x80?\x00\x00\x80?\x00\x00\x80?\x00\x00\x80?\x00\x00\x80?\x00\x00\x00\x00'
S'\x00\x00\x00\x00\x00\x00\x00\x00\x00\x00\x00\x00\x00\x00\x00\x00\x00\x00'
Ntbsg19
g1515
(g1516
(I0
tS'b'
tRp1817
(I1
(I18
I1
tg1518
I00
(lp1818
g835
ag855
ag928
ag884
ag903
ag894
ag961
ag866
ag969
ag875
ag977
ag952
ag817
ag911
ag919
ag936
ag944
ag845
atbsg23
g1529
(g1530
g1516
g1531
S'b'
tRp1819
(I1
(I18
I1
tg1533
I00
S'\xcc\x03\xe0?\x9axG@\x846\xd3?_\xac\x1a@\xd5\xefn@\xccw\x8f@!\xbc\x83@LgV@W\xabz@\x104C@\xd9\x10\xf1@-\x99\x85As!\xca@\xe4\xff\xcf@sxw@^\xbck@\t"\xea@K$\xa2@'
S'\x00\x00\x00\x00\x00\x00\x00\x00\x00\x00\x00\x00\x00\x00\x00\x00\x00\x00'
Ntbsg1528
g1529
(g1530
g1516
g1531
S'b'
tRp1820
(I1
(I18
I1
tg1533
I00
S'\x00\x00\x80?\x00\x00\x80?\x00\x00\x80?\x00\x00\x80?\x00\x00\x80?\x00\x00\x80?\x00\x00\x80?\x00\x00\x80?\x00\x00\x80?\x00\x00\x80?\x00\x00\x80?\x00\x00\x80?\x00\x00\x80?\x00\x00\x80?\x00\x00\x80?\x00\x00\x80?\x00\x00\x80?\x00\x00\x80?'
S'\x00\x00\x00\x00\x00\x00\x00\x00\x00\x00\x00\x00\x00\x00\x00\x00\x00\x00'
Ntbsg21
g1515
(g1516
(I0
tS'b'
tRp1821
(I1
(I18
I1
tg1518
I00
(lp1822
S'2'
aS'3'
aS'1'
aS'6'
aS'9'
aS'4'
aS'6'
aS'3'
aS'7'
aS'1'
aS'8'
aS'9'
aS'8'
aS'2'
aS'8'
aS'1'
aS'6'
aS'4'
atbsg1543
g1529
(g1530
g1516
g1531
S'b'
tRp1823
(I1
(I18
I1
tg1533
I00
S'\x00\x00\x80?\x00\x00@@\x00\x000A\x00\x00\xc0@\x00\x00\x00A\x00\x00\xe0@\x00\x00pA\x00\x00\x80@\x00\x00\x80A\x00\x00\xa0@\x00\x00\x88A\x00\x00`A\x00\x00\x00\x00\x00\x00\x10A\x00\x00 A\x00\x00@A\x00\x00PA\x00\x00\x00@'
S'\x00\x00\x00\x00\x00\x00\x00\x00\x00\x00\x00\x00\x00\x00\x00\x00\x00\x00'
Ntbsg20
g1529
(g1530
g1516
g1531
S'b'
tRp1824
(I1
(I18
I1
tg1533
I00
S'\x00\xbb\x0b@\x82\xc0\x9b?\xd0z\x97?Az\x97?N\x8b\xa8?\x06gF@\xab\xab\x1a@\xbeW\xd5?\xf1fV@\xb7E$@E3\x9b@\xf4\x10\xb9@\xfcU\x05@+\x11\x91@\xe9\xcc\x8c@4w\xaf@\xf8\x10\x05A\x95f\x96@'
S'\x00\x00\x00\x00\x00\x00\x00\x00\x00\x00\x00\x00\x00\x00\x00\x00\x00\x00'
NtbstRp1825
(dp1826
g1548
(dp1827
g1528
I01
sg21
I00
sg20
I01
sg22
I01
sg19
I00
sg23
I01
sg1543
I01
ssg1550
g1812
sg1551
(lp1828
g1528
ag1543
ag19
ag20
ag21
ag22
ag23
asg1553
(lp1829
I18
aI1
asbsg1555
g1556
sg1557
g1515
(g1516
(I0
tS'b'
tRp1830
(I1
(I18
I1
tg1518
I00
(lp1831
I12
aI0
aI17
aI1
aI7
aI9
aI3
aI5
aI4
aI13
aI14
aI2
aI15
aI16
aI11
aI6
aI8
aI10
atbsg1560
I01
sg1561
I1
sg1562
I-1
sg1563
(lp1832
g1
(g1565
g1513
(dp1833
g810
g833
sVY
L2L
sg812
L2L
sg813
g834
sg821
L2L
sg818
L2L
sg819
g816
sVX
L3L
sg815
L0L
sg823
g837
sg825
L0L
sg827
g838
stRp1834
ag1
(g1565
g1513
(dp1835
g810
g853
sVY
L2L
sg812
L2L
sg813
g854
sg821
L3L
sg818
L3L
sg819
g856
sVX
L6L
sg815
L0L
sg823
g858
sg825
L0L
sg827
g838
stRp1836
ag1
(g1565
g1513
(dp1837
g810
g926
sVY
L4L
sg812
L2L
sg813
g927
sg821
L1L
sg818
L1L
sg819
g837
sVX
L8L
sg815
L0L
sg823
g856
sg825
L0L
sg827
g886
stRp1838
ag1
(g1565
g1513
(dp1839
g810
g882
sVY
L2L
sg812
L2L
sg813
g883
sg821
L6L
sg818
L6L
sg819
g820
sVX
L3L
sg815
L0L
sg823
g816
sg825
L0L
sg827
g886
stRp1840
ag1
(g1565
g1513
(dp1841
g810
g901
sVY
L8L
sg812
L3L
sg813
g902
sg821
L9L
sg818
L9L
sg819
g865
sVX
L6L
sg815
g826
sg823
g820
sg825
L0L
sg827
g896
stRp1842
ag1
(g1565
g1513
(dp1843
g810
g891
sVY
L2L
sg812
L3L
sg813
g892
sg821
L4L
sg818
L4L
sg819
g856
sVX
L3L
sg815
g893
sg823
g837
sg825
L0L
sg827
g896
stRp1844
ag1
(g1565
g1513
(dp1845
g810
g959
sVY
L3L
sg812
L3L
sg813
g960
sg821
L6L
sg818
L6L
sg819
g820
sVX
L3L
sg815
g893
sg823
g865
sg825
L0L
sg827
g868
stRp1846
ag1
(g1565
g1513
(dp1847
g810
g863
sVY
L2L
sg812
L3L
sg813
g864
sg821
L3L
sg818
L3L
sg819
g858
sVX
L8L
sg815
g865
sg823
g816
sg825
L0L
sg827
g868
stRp1848
ag1
(g1565
g1513
(dp1849
g810
g967
sVY
L3L
sg812
L3L
sg813
g968
sg821
L7L
sg818
L7L
sg819
g893
sVX
L6L
sg815
g837
sg823
g816
sg825
L0L
sg827
g877
stRp1850
ag1
(g1565
g1513
(dp1851
g810
g873
sVY
L3L
sg812
L3L
sg813
g874
sg821
L1L
sg818
L1L
sg819
g865
sVX
L3L
sg815
g820
sg823
g826
sg825
L0L
sg827
g877
stRp1852
ag1
(g1565
g1513
(dp1853
g810
g975
sVY
L6L
sg812
L4L
sg813
g976
sg821
L8L
sg818
L8L
sg819
g824
sVX
L6L
sg815
g856
sg823
g820
sg825
g826
sg827
g954
stRp1854
ag1
(g1565
g1513
(dp1855
g810
g950
sVY
L9L
sg812
L4L
sg813
g951
sg821
L8L
sg818
L8L
sg819
g856
sVX
L3L
sg815
g893
sg823
g858
sg825
g824
sg827
g954
stRp1856
ag1
(g1565
g1513
(dp1857
g810
g811
sVY
L2L
sg812
L4L
sg813
g814
sg821
L8L
sg818
L8L
sg819
g820
sVX
L3L
sg815
g816
sg823
g824
sg825
g826
sg827
g828
stRp1858
ag1
(g1565
g1513
(dp1859
g810
g909
sVY
L3L
sg812
L4L
sg813
g910
sg821
L2L
sg818
L2L
sg819
g847
sVX
L2L
sg815
g824
sg823
g826
sg825
g856
sg827
g828
stRp1860
ag1
(g1565
g1513
(dp1861
g810
g917
sVY
L7L
sg812
L4L
sg813
g918
sg821
L8L
sg818
L8L
sg819
g824
sVX
L6L
sg815
g820
sg823
g826
sg825
g856
sg827
g921
stRp1862
ag1
(g1565
g1513
(dp1863
g810
g934
sVY
L9L
sg812
L4L
sg813
g935
sg821
L1L
sg818
L1L
sg819
g816
sVX
L9L
sg815
g837
sg823
g826
sg825
g824
sg827
g921
stRp1864
ag1
(g1565
g1513
(dp1865
g810
g942
sVY
L3L
sg812
L4L
sg813
g943
sg821
L6L
sg818
L6L
sg819
g893
sVX
L9L
sg815
g816
sg823
g865
sg825
g837
sg827
g848
stRp1866
ag1
(g1565
g1513
(dp1867
g810
g843
sVY
L4L
sg812
L4L
sg813
g844
sg821
L6L
sg818
L6L
sg819
g824
sVX
L2L
sg815
g816
sg823
g826
sg825
g847
sg827
g848
stRp1868
asg1578
Nsg1579
I10
sg1580
I18
sg1581
I0
sg1582
I18
sbag1
(g1501
g3
NtRp1869
(dp1870
g1504
Nsg1505
(lp1871
sg1507
I357732560
sg10
g1586
sg6
g1509
sg1510
I1
sg24
I01
sg25
g26
sg1511
g1
(g1512
g1513
(dp1872
g22
g1529
(g1530
g1516
g1531
S'b'
tRp1873
(I1
(I18
I1
tg1533
I00
S'\x00\x00\x80?\x00\x00\x80?\x00\x00\x80?\x00\x00\x80?\x00\x00\x80?\x00\x00\x80?\x00\x00\x80?\x00\x00\x80?\x00\x00\x80?\x00\x00\x80?\x00\x00\x00\x00\x00\x00\x80?\x00\x00\x80?\x00\x00\x00\x00\x00\x00\x80?\x00\x00\x80?\x00\x00\x80?\x00\x00\x00\x00'
S'\x00\x00\x00\x00\x00\x00\x00\x00\x00\x00\x00\x00\x00\x00\x00\x00\x00\x00'
Ntbsg19
g1515
(g1516
(I0
tS'b'
tRp1874
(I1
(I18
I1
tg1518
I00
(lp1875
g1118
ag1100
ag1028
ag989
ag1019
ag1047
ag1091
ag1142
ag1134
ag1073
ag1150
ag1082
ag1064
ag1109
ag1037
ag1126
ag1007
ag1056
atbsg23
g1529
(g1530
g1516
g1531
S'b'
tRp1876
(I1
(I18
I1
tg1533
I00
S'\xb7\x02\xe0?\xe9\x0fQ@\xef\x89\x08@\xf4x\x07@\x1e\xdf=@e\x010@\xb8\xee\xd6@\xcf\xde=@\xd8\x00P@\x8cw\xdf@\x02\x9a\x89@z\xcc\x08A\xf94\xbb@D\xcc<A\x86\xaa\xf2@\xb7\xaa\xc2@\xa7\xef\nA\x94\xeeBA'
S'\x00\x00\x00\x00\x00\x00\x00\x00\x00\x00\x00\x00\x00\x00\x00\x00\x00\x00'
Ntbsg1528
g1529
(g1530
g1516
g1531
S'b'
tRp1877
(I1
(I18
I1
tg1533
I00
S'\x00\x00\x80?\x00\x00\x80?\x00\x00\x80?\x00\x00\x80?\x00\x00\x80?\x00\x00\x80?\x00\x00\x80?\x00\x00\x80?\x00\x00\x80?\x00\x00\x80?\x00\x00\x80?\x00\x00\x80?\x00\x00\x80?\x00\x00\x80?\x00\x00\x80?\x00\x00\x80?\x00\x00\x80?\x00\x00\x80?'
S'\x00\x00\x00\x00\x00\x00\x00\x00\x00\x00\x00\x00\x00\x00\x00\x00\x00\x00'
Ntbsg21
g1515
(g1516
(I0
tS'b'
tRp1878
(I1
(I18
I1
tg1518
I00
(lp1879
S'1'
aS'8'
aS'4'
aS'1'
aS'3'
aS'9'
aS'1'
aS'6'
aS'6'
aS'8'
aS'3'
aS'1'
aS'6'
aS'4'
aS'5'
aS'5'
aS'5'
aS'6'
atbsg1543
g1529
(g1530
g1516
g1531
S'b'
tRp1880
(I1
(I18
I1
tg1533
I00
S'\x00\x00PA\x00\x000A\x00\x00@@\x00\x00\x00\x00\x00\x00\x00@\x00\x00\xa0@\x00\x00 A\x00\x00\x80A\x00\x00pA\x00\x00\x00A\x00\x00\x88A\x00\x00\x10A\x00\x00\xe0@\x00\x00@A\x00\x00\x80@\x00\x00`A\x00\x00\x80?\x00\x00\xc0@'
S'\x00\x00\x00\x00\x00\x00\x00\x00\x00\x00\x00\x00\x00\x00\x00\x00\x00\x00'
Ntbsg20
g1529
(g1530
g1516
g1531
S'b'
tRp1881
(I1
(I18
I1
tg1533
I00
S'\ni\xa6?\x88\xe0\x9d?\xbe\x11\x11@V\xf1\xce?\xa9\xaa\xb2@\xfc5\xb3?\xefD\x14@\x10T\x95?\xa1\x02\xe0?w\xab\n@\x99\xbb\x03A\xcd\xee\xe6@\xb22+A\xb8\xff\xdf@\xe3!\x0eA\x9b\xdd\x05A\x1f\x88\xe8@\x12U\xf5@'
S'\x00\x00\x00\x00\x00\x00\x00\x00\x00\x00\x00\x00\x00\x00\x00\x00\x00\x00'
NtbstRp1882
(dp1883
g1548
(dp1884
g1528
I01
sg21
I00
sg20
I01
sg22
I01
sg19
I00
sg23
I01
sg1543
I01
ssg1550
g1869
sg1551
(lp1885
g1528
ag1543
ag19
ag20
ag21
ag22
ag23
asg1553
(lp1886
I18
aI1
asbsg1555
g1556
sg1557
g1515
(g1516
(I0
tS'b'
tRp1887
(I1
(I18
I1
tg1518
I00
(lp1888
I3
aI16
aI4
aI2
aI14
aI5
aI17
aI12
aI9
aI11
aI6
aI1
aI13
aI0
aI15
aI8
aI7
aI10
atbsg1560
I01
sg1561
I1
sg1562
I-1
sg1563
(lp1889
g1
(g1565
g1513
(dp1890
g983
g1116
sVY
L3L
sg985
L2L
sg986
g1117
sg993
L1L
sg990
L1L
sg991
g996
sVX
L9L
sg988
L0L
sg995
g992
sg997
L0L
sg998
g1102
stRp1891
ag1
(g1565
g1513
(dp1892
g983
g1098
sVY
L2L
sg985
L2L
sg986
g1099
sg993
L8L
sg990
L8L
sg991
g1039
sVX
L2L
sg988
L0L
sg995
g1049
sg997
L0L
sg998
g1102
stRp1893
ag1
(g1565
g1513
(dp1894
g983
g1026
sVY
L3L
sg985
L2L
sg986
g1027
sg993
L4L
sg990
L4L
sg991
g1011
sVX
L6L
sg988
L0L
sg995
g1030
sg997
L0L
sg998
g999
stRp1895
ag1
(g1565
g1513
(dp1896
g983
g984
sVY
L2L
sg985
L2L
sg986
g987
sg993
L1L
sg990
L1L
sg991
g992
sVX
L6L
sg988
L0L
sg995
g996
sg997
L0L
sg998
g999
stRp1897
ag1
(g1565
g1513
(dp1898
g983
g1017
sVY
L9L
sg985
L3L
sg986
g1018
sg993
L3L
sg990
L3L
sg991
g1008
sVX
L5L
sg988
g1010
sg995
g1011
sg997
L0L
sg998
g1021
stRp1899
ag1
(g1565
g1513
(dp1900
g983
g1045
sVY
L3L
sg985
L3L
sg986
g1046
sg993
L9L
sg990
L9L
sg991
g1006
sVX
L5L
sg988
g1030
sg995
g1049
sg997
L0L
sg998
g1021
stRp1901
ag1
(g1565
g1513
(dp1902
g983
g1089
sVY
L2L
sg985
L3L
sg986
g1090
sg993
L1L
sg990
L1L
sg991
g992
sVX
L7L
sg988
g1010
sg995
g996
sg997
L0L
sg998
g1093
stRp1903
ag1
(g1565
g1513
(dp1904
g983
g1140
sVY
L6L
sg985
L3L
sg986
g1141
sg993
L6L
sg990
L6L
sg991
g1049
sVX
L6L
sg988
g1006
sg995
g996
sg997
L0L
sg998
g1093
stRp1905
ag1
(g1565
g1513
(dp1906
g983
g1132
sVY
L2L
sg985
L3L
sg986
g1133
sg993
L6L
sg990
L6L
sg991
g1010
sVX
L2L
sg988
g1110
sg995
g1039
sg997
L0L
sg998
g1075
stRp1907
ag1
(g1565
g1513
(dp1908
g983
g1071
sVY
L6L
sg985
L3L
sg986
g1072
sg993
L8L
sg990
L8L
sg991
g996
sVX
L2L
sg988
g1049
sg995
g1039
sg997
L0L
sg998
g1075
stRp1909
ag1
(g1565
g1513
(dp1910
g983
g1148
sVY
L4L
sg985
L4L
sg986
g1149
sg993
L8L
sg990
L8L
sg991
g1039
sVX
L3L
sg988
g1008
sg995
g1011
sg997
g1010
sg998
g1084
stRp1911
ag1
(g1565
g1513
(dp1912
g983
g1080
sVY
L8L
sg985
L4L
sg986
g1081
sg993
L1L
sg990
L1L
sg991
g1008
sVX
L2L
sg988
g1010
sg995
g1011
sg997
g1039
sg998
g1084
stRp1913
ag1
(g1565
g1513
(dp1914
g983
g1062
sVY
L5L
sg985
L4L
sg986
g1063
sg993
L6L
sg990
L6L
sg991
g992
sVX
L4L
sg988
g1008
sg995
g1039
sg997
g1030
sg998
g1066
stRp1915
ag1
(g1565
g1513
(dp1916
g983
g1107
sVY
L3L
sg985
L4L
sg986
g1108
sg993
L7L
sg990
L7L
sg991
g1110
sVX
L2L
sg988
g1006
sg995
g1030
sg997
g1008
sg998
g1066
stRp1917
ag1
(g1565
g1513
(dp1918
g983
g1035
sVY
L3L
sg985
L4L
sg986
g1036
sg993
L5L
sg990
L5L
sg991
g1008
sVX
L3L
sg988
g992
sg995
g1010
sg997
g1039
sg998
g1040
stRp1919
ag1
(g1565
g1513
(dp1920
g983
g1124
sVY
L4L
sg985
L4L
sg986
g1125
sg993
L5L
sg990
L5L
sg991
g1010
sVX
L8L
sg988
g1049
sg995
g996
sg997
g1006
sg998
g1040
stRp1921
ag1
(g1565
g1513
(dp1922
g983
g1004
sVY
L2L
sg985
L4L
sg986
g1005
sg993
L5L
sg990
L5L
sg991
g1008
sVX
L6L
sg988
g1006
sg995
g1010
sg997
g1011
sg998
g1012
stRp1923
ag1
(g1565
g1513
(dp1924
g983
g1054
sVY
L2L
sg985
L4L
sg986
g1055
sg993
L3L
sg990
L3L
sg991
g1008
sVX
L3L
sg988
g1030
sg995
g1006
sg997
g1011
sg998
g1012
stRp1925
asg1578
Nsg1579
I10
sg1580
I18
sg1581
I0
sg1582
I18
sbag1
(g1501
g3
NtRp1926
(dp1927
g1504
Nsg1505
(lp1928
sg1507
I357732560
sg10
g1586
sg6
g1509
sg1510
I1
sg24
I01
sg25
g26
sg1511
g1
(g1512
g1513
(dp1929
g22
g1529
(g1530
g1516
g1531
S'b'
tRp1930
(I1
(I18
I1
tg1533
I00
S'\x00\x00\x80?\x00\x00\x80?\x00\x00\x80?\x00\x00\x80?\x00\x00\x80?\x00\x00\x80?\x00\x00\x00\x00\x00\x00\x80?\x00\x00\x80?\x00\x00\x80?\x00\x00\x80?\x00\x00\x80?\x00\x00\x80?\x00\x00\x00\x00\x00\x00\x00\x00\x00\x00\x00\x00\x00\x00\x00\x00\x00\x00\x80?'
S'\x00\x00\x00\x00\x00\x00\x00\x00\x00\x00\x00\x00\x00\x00\x00\x00\x00\x00'
Ntbsg19
g1515
(g1516
(I0
tS'b'
tRp1931
(I1
(I18
I1
tg1518
I00
(lp1932
g1203
ag1316
ag1229
ag1324
ag1249
ag1291
ag1283
ag1163
ag1266
ag1308
ag1192
ag1221
ag1299
ag1181
ag1212
ag1275
ag1258
ag1240
atbsg23
g1529
(g1530
g1516
g1531
S'b'
tRp1933
(I1
(I18
I1
tg1533
I00
S'*F\x04@\xa24\x03@-\x12A@\x1e\xceL@\xe9\x0fq@RVE@\xa3w\x9f@~V5@A#2@\x9f\x89X@\xcb\x00p@\xcaD\x94@\x14\x12\xc1@:\xef\xa6@\xfa2\x0bAd\xcc\x82A{\x99\xe9@\xb0!BA'
S'\x00\x00\x00\x00\x00\x00\x00\x00\x00\x00\x00\x00\x00\x00\x00\x00\x00\x00'
Ntbsg1528
g1529
(g1530
g1516
g1531
S'b'
tRp1934
(I1
(I18
I1
tg1533
I00
S'\x00\x00\x80?\x00\x00\x80?\x00\x00\x80?\x00\x00\x80?\x00\x00\x80?\x00\x00\x80?\x00\x00\x80?\x00\x00\x80?\x00\x00\x80?\x00\x00\x80?\x00\x00\x80?\x00\x00\x80?\x00\x00\x80?\x00\x00\x80?\x00\x00\x80?\x00\x00\x80?\x00\x00\x80?\x00\x00\x80?'
S'\x00\x00\x00\x00\x00\x00\x00\x00\x00\x00\x00\x00\x00\x00\x00\x00\x00\x00'
Ntbsg21
g1515
(g1516
(I0
tS'b'
tRp1935
(I1
(I18
I1
tg1518
I00
(lp1936
S'8'
aS'2'
aS'2'
aS'8'
aS'1'
aS'2'
aS'4'
aS'2'
aS'8'
aS'6'
aS'7'
aS'1'
aS'9'
aS'9'
aS'4'
aS'4'
aS'4'
aS'4'
atbsg1543
g1529
(g1530
g1516
g1531
S'b'
tRp1937
(I1
(I18
I1
tg1533
I00
S'\x00\x00@@\x00\x00\x80A\x00\x00\xc0@\x00\x00\x88A\x00\x00\x00A\x00\x00PA\x00\x00@A\x00\x00\x00\x00\x00\x00 A\x00\x00pA\x00\x00\x00@\x00\x00\xa0@\x00\x00`A\x00\x00\x80?\x00\x00\x80@\x00\x000A\x00\x00\x10A\x00\x00\xe0@'
S'\x00\x00\x00\x00\x00\x00\x00\x00\x00\x00\x00\x00\x00\x00\x00\x00\x00\x00'
Ntbsg20
g1529
(g1530
g1516
g1531
S'b'
tRp1938
(I1
(I18
I1
tg1533
I00
S'\x19%\x82?\xa1~w?~\xc3;?G*b?o\xe0\xbd?\xd4\x00@@Ox\x17@\x98\xcdL@\x08E4@\xd1\xbc\x1b@(C\xec@\xfav\xe7@\xa9\x11a@\xc82\xcb@\x90U5@\x16w\xef@\xe3\xcc\x94@\xc2\xff\xc7@'
S'\x00\x00\x00\x00\x00\x00\x00\x00\x00\x00\x00\x00\x00\x00\x00\x00\x00\x00'
NtbstRp1939
(dp1940
g1548
(dp1941
g1528
I01
sg21
I00
sg20
I01
sg22
I01
sg19
I00
sg23
I01
sg1543
I01
ssg1550
g1926
sg1551
(lp1942
g1528
ag1543
ag19
ag20
ag21
ag22
ag23
asg1553
(lp1943
I18
aI1
asbsg1555
g1556
sg1557
g1515
(g1516
(I0
tS'b'
tRp1944
(I1
(I18
I1
tg1518
I00
(lp1945
I7
aI13
aI10
aI0
aI14
aI11
aI2
aI17
aI4
aI16
aI8
aI15
aI6
aI5
aI12
aI9
aI1
aI3
atbsg1560
I01
sg1561
I1
sg1562
I-1
sg1563
(lp1946
g1
(g1565
g1513
(dp1947
g1156
g1201
sVY
L4L
sg1158
L2L
sg1159
g1202
sg1167
L8L
sg1164
L8L
sg1165
g1180
sVX
L2L
sg1161
L0L
sg1169
g1194
sg1171
L0L
sg1172
g1205
stRp1948
ag1
(g1565
g1513
(dp1949
g1156
g1314
sVY
L6L
sg1158
L2L
sg1159
g1315
sg1167
L2L
sg1164
L2L
sg1165
g1180
sVX
L6L
sg1161
L0L
sg1169
g1166
sg1171
L0L
sg1172
g1205
stRp1950
ag1
(g1565
g1513
(dp1951
g1156
g1227
sVY
L7L
sg1158
L2L
sg1159
g1228
sg1167
L2L
sg1164
L2L
sg1165
g1230
sVX
L8L
sg1161
L0L
sg1169
g1180
sg1171
L0L
sg1172
g1232
stRp1952
ag1
(g1565
g1513
(dp1953
g1156
g1322
sVY
L4L
sg1158
L2L
sg1159
g1323
sg1167
L8L
sg1164
L8L
sg1165
g1182
sVX
L4L
sg1161
L0L
sg1169
g1195
sg1171
L0L
sg1172
g1232
stRp1954
ag1
(g1565
g1513
(dp1955
g1156
g1247
sVY
L4L
sg1158
L3L
sg1159
g1248
sg1167
L1L
sg1164
L1L
sg1165
g1180
sVX
L6L
sg1161
g1162
sg1169
g1166
sg1171
L0L
sg1172
g1251
stRp1956
ag1
(g1565
g1513
(dp1957
g1156
g1289
sVY
L4L
sg1158
L3L
sg1159
g1290
sg1167
L2L
sg1164
L2L
sg1165
g1195
sVX
L4L
sg1161
g1239
sg1169
g1230
sg1171
L0L
sg1172
g1251
stRp1958
ag1
(g1565
g1513
(dp1959
g1156
g1281
sVY
L7L
sg1158
L3L
sg1159
g1282
sg1167
L1L
sg1164
L1L
sg1165
g1230
sVX
L3L
sg1161
g1239
sg1169
g1195
sg1171
L0L
sg1172
g1173
stRp1960
ag1
(g1565
g1513
(dp1961
g1156
g1157
sVY
L3L
sg1158
L3L
sg1159
g1160
sg1167
L2L
sg1164
L2L
sg1165
g1166
sVX
L9L
sg1161
g1162
sg1169
g1170
sg1171
L0L
sg1172
g1173
stRp1962
ag1
(g1565
g1513
(dp1963
g1156
g1264
sVY
L2L
sg1158
L3L
sg1159
g1265
sg1167
L8L
sg1164
L8L
sg1165
g1184
sVX
L7L
sg1161
g1230
sg1169
g1180
sg1171
L0L
sg1172
g1268
stRp1964
ag1
(g1565
g1513
(dp1965
g1156
g1306
sVY
L3L
sg1158
L3L
sg1159
g1307
sg1167
L6L
sg1164
L6L
sg1165
g1239
sVX
L4L
sg1161
g1230
sg1169
g1180
sg1171
L0L
sg1172
g1268
stRp1966
ag1
(g1565
g1513
(dp1967
g1156
g1190
sVY
L6L
sg1158
L4L
sg1159
g1191
sg1167
L7L
sg1164
L7L
sg1165
g1162
sVX
L4L
sg1161
g1170
sg1169
g1194
sg1171
g1195
sg1172
g1196
stRp1968
ag1
(g1565
g1513
(dp1969
g1156
g1219
sVY
L5L
sg1158
L4L
sg1159
g1220
sg1167
L1L
sg1164
L1L
sg1165
g1170
sVX
L6L
sg1161
g1180
sg1169
g1166
sg1171
g1162
sg1172
g1196
stRp1970
ag1
(g1565
g1513
(dp1971
g1156
g1297
sVY
L4L
sg1158
L4L
sg1159
g1298
sg1167
L9L
sg1164
L9L
sg1165
g1194
sVX
L9L
sg1161
g1180
sg1169
g1301
sg1171
g1162
sg1172
g1185
stRp1972
ag1
(g1565
g1513
(dp1973
g1156
g1178
sVY
L4L
sg1158
L4L
sg1159
g1179
sg1167
L7L
sg1164
L7L
sg1165
g1182
sVX
L3L
sg1161
g1180
sg1169
g1184
sg1171
g1162
sg1172
g1185
stRp1974
ag1
(g1565
g1513
(dp1975
g1156
g1210
sVY
L6L
sg1158
L4L
sg1159
g1211
sg1167
L3L
sg1164
L3L
sg1165
g1162
sVX
L4L
sg1161
g1182
sg1169
g1184
sg1171
g1195
sg1172
g1214
stRp1976
ag1
(g1565
g1513
(dp1977
g1156
g1273
sVY
L8L
sg1158
L4L
sg1159
g1274
sg1167
L6L
sg1164
L6L
sg1165
g1239
sVX
L9L
sg1161
g1166
sg1169
g1180
sg1171
g1184
sg1172
g1214
stRp1978
ag1
(g1565
g1513
(dp1979
g1156
g1256
sVY
L2L
sg1158
L4L
sg1159
g1257
sg1167
L5L
sg1164
L5L
sg1165
g1195
sVX
L8L
sg1161
g1239
sg1169
g1184
sg1171
g1166
sg1172
g1242
stRp1980
ag1
(g1565
g1513
(dp1981
g1156
g1237
sVY
L4L
sg1158
L4L
sg1159
g1238
sg1167
L4L
sg1164
L4L
sg1165
g1184
sVX
L4L
sg1161
g1239
sg1169
g1180
sg1171
g1166
sg1172
g1242
stRp1982
asg1578
Nsg1579
I3
sg1580
I18
sg1581
I0
sg1582
I18
sbag1
(g1501
g3
NtRp1983
(dp1984
g1504
Nsg1505
(lp1985
sg1507
I357732560
sg10
g1586
sg6
g1509
sg1510
I1
sg24
I01
sg25
g26
sg1511
g1
(g1512
g1513
(dp1986
g22
g1529
(g1530
g1516
g1531
S'b'
tRp1987
(I1
(I18
I1
tg1533
I00
S'\x00\x00\x80?\x00\x00\x80?\x00\x00\x80?\x00\x00\x80?\x00\x00\x80?\x00\x00\x00\x00\x00\x00\x80?\x00\x00\x80?\x00\x00\x00\x00\x00\x00\x80?\x00\x00\x00\x00\x00\x00\x00\x00\x00\x00\x00\x00\x00\x00\x80?\x00\x00\x80?\x00\x00\x80?\x00\x00\x80?\x00\x00\x80?'
S'\x00\x00\x00\x00\x00\x00\x00\x00\x00\x00\x00\x00\x00\x00\x00\x00\x00\x00'
Ntbsg19
g1515
(g1516
(I0
tS'b'
tRp1988
(I1
(I18
I1
tg1518
I00
(lp1989
g1473
ag1464
ag1447
ag1402
ag1497
ag1455
ag1489
ag1364
ag1386
ag1337
ag1375
ag1394
ag1481
ag1438
ag1354
ag1412
ag1430
ag1420
atbsg23
g1529
(g1530
g1516
g1531
S'b'
tRp1990
(I1
(I18
I1
tg1533
I00
S'=Vu@\xed\x89\x08@\x01\x11\xd1@$\x01 @\x9cx7@+\x1b\xcf@\xd1f\x86@\x81\xf3.@8w\x0bA\xdb\xedn@8U\x15A\xae\x10\x15A\xa5f\xb6@\xc4\xde]@\xee\x88\x90@egv@d\xcd|@\xaa3\x8b@'
S'\x00\x00\x00\x00\x00\x00\x00\x00\x00\x00\x00\x00\x00\x00\x00\x00\x00\x00'
Ntbsg1528
g1529
(g1530
g1516
g1531
S'b'
tRp1991
(I1
(I18
I1
tg1533
I00
S'\x00\x00\x80?\x00\x00\x80?\x00\x00\x80?\x00\x00\x80?\x00\x00\x80?\x00\x00\x80?\x00\x00\x80?\x00\x00\x80?\x00\x00\x80?\x00\x00\x80?\x00\x00\x80?\x00\x00\x80?\x00\x00\x80?\x00\x00\x80?\x00\x00\x80?\x00\x00\x80?\x00\x00\x80?\x00\x00\x80?'
S'\x00\x00\x00\x00\x00\x00\x00\x00\x00\x00\x00\x00\x00\x00\x00\x00\x00\x00'
Ntbsg21
g1515
(g1516
(I0
tS'b'
tRp1992
(I1
(I18
I1
tg1518
I00
(lp1993
S'1'
aS'4'
aS'9'
aS'6'
aS'6'
aS'9'
aS'8'
aS'2'
aS'3'
aS'9'
aS'2'
aS'4'
aS'3'
aS'3'
aS'7'
aS'1'
aS'5'
aS'7'
atbsg1543
g1529
(g1530
g1516
g1531
S'b'
tRp1994
(I1
(I18
I1
tg1533
I00
S'\x00\x00`A\x00\x00PA\x00\x000A\x00\x00\xc0@\x00\x00\x88A\x00\x00@A\x00\x00\x80A\x00\x00\x00@\x00\x00\x80@\x00\x00\x00\x00\x00\x00@@\x00\x00\xa0@\x00\x00pA\x00\x00 A\x00\x00\x80?\x00\x00\xe0@\x00\x00\x10A\x00\x00\x00A'
S'\x00\x00\x00\x00\x00\x00\x00\x00\x00\x00\x00\x00\x00\x00\x00\x00\x00\x00'
Ntbsg20
g1529
(g1530
g1516
g1531
S'b'
tRp1995
(I1
(I18
I1
tg1533
I00
S'_\xc2;?\xf9\xed\x8e?\x08}7?G\xaf\x8a?\xe4\xf0\xee?u\xe0\x9d?\xc0\xad\xea?\xbb\xbe\x9b?\x96\xe1\xdd?\x946\x93?k\x9b\xd9?r\x99\x99@\xd0\x13\xb1?~4\x03@\x884\x03@(w\xff@ #\x02@H\xbc\x0b@'
S'\x00\x00\x00\x00\x00\x00\x00\x00\x00\x00\x00\x00\x00\x00\x00\x00\x00\x00'
NtbstRp1996
(dp1997
g1548
(dp1998
g1528
I01
sg21
I00
sg20
I01
sg22
I01
sg19
I00
sg23
I01
sg1543
I01
ssg1550
g1983
sg1551
(lp1999
g1528
ag1543
ag19
ag20
ag21
ag22
ag23
asg1553
(lp2000
I18
aI1
asbsg1555
g1556
sg1557
g1515
(g1516
(I0
tS'b'
tRp2001
(I1
(I18
I1
tg1518
I00
(lp2002
I9
aI14
aI7
aI10
aI8
aI11
aI3
aI15
aI17
aI16
aI13
aI2
aI5
aI1
aI0
aI12
aI6
aI4
atbsg1560
I01
sg1561
I1
sg1562
I-1
sg1563
(lp2003
g1
(g1565
g1513
(dp2004
g1330
g1471
sVY
L2L
sg1332
L2L
sg1333
g1472
sg1341
L1L
sg1338
L1L
sg1339
g1374
sVX
L9L
sg1335
L0L
sg1343
g1403
sg1345
L0L
sg1346
g1466
stRp2005
ag1
(g1565
g1513
(dp2006
g1330
g1462
sVY
L4L
sg1332
L2L
sg1333
g1463
sg1341
L4L
sg1338
L4L
sg1339
g1374
sVX
L3L
sg1335
L0L
sg1343
g1336
sg1345
L0L
sg1346
g1466
stRp2007
ag1
(g1565
g1513
(dp2008
g1330
g1445
sVY
L4L
sg1332
L2L
sg1333
g1446
sg1341
L9L
sg1338
L9L
sg1339
g1336
sVX
L2L
sg1335
L0L
sg1343
g1356
sg1345
L0L
sg1346
g1405
stRp2009
ag1
(g1565
g1513
(dp2010
g1330
g1400
sVY
L6L
sg1332
L2L
sg1333
g1401
sg1341
L6L
sg1338
L6L
sg1339
g1403
sVX
L8L
sg1335
L0L
sg1343
g1344
sg1345
L0L
sg1346
g1405
stRp2011
ag1
(g1565
g1513
(dp2012
g1330
g1495
sVY
L4L
sg1332
L3L
sg1333
g1496
sg1341
L6L
sg1338
L6L
sg1339
g1376
sVX
L6L
sg1335
g1340
sg1343
g1422
sg1345
L0L
sg1346
g1457
stRp2013
ag1
(g1565
g1513
(dp2014
g1330
g1453
sVY
L9L
sg1332
L3L
sg1333
g1454
sg1341
L7L
sg1338
L7L
sg1339
g1378
sVX
L9L
sg1335
g1376
sg1343
g1403
sg1345
L0L
sg1346
g1457
stRp2015
ag1
(g1565
g1513
(dp2016
g1330
g1487
sVY
L4L
sg1332
L3L
sg1333
g1488
sg1341
L8L
sg1338
L8L
sg1339
g1336
sVX
L3L
sg1335
g1374
sg1343
g1378
sg1345
L0L
sg1346
g1367
stRp2017
ag1
(g1565
g1513
(dp2018
g1330
g1362
sVY
L2L
sg1332
L3L
sg1333
g1363
sg1341
L2L
sg1338
L2L
sg1339
g1365
sVX
L4L
sg1335
g1340
sg1343
g1356
sg1345
L0L
sg1346
g1367
stRp2019
ag1
(g1565
g1513
(dp2020
g1330
g1384
sVY
L2L
sg1332
L3L
sg1333
g1385
sg1341
L1L
sg1338
L1L
sg1339
g1340
sVX
L8L
sg1335
g1365
sg1343
g1376
sg1345
L0L
sg1346
g1347
stRp2021
ag1
(g1565
g1513
(dp2022
g1330
g1331
sVY
L3L
sg1332
L3L
sg1333
g1334
sg1341
L9L
sg1338
L9L
sg1339
g1340
sVX
L2L
sg1335
g1336
sg1343
g1344
sg1345
L0L
sg1346
g1347
stRp2023
ag1
(g1565
g1513
(dp2024
g1330
g1372
sVY
L3L
sg1332
L4L
sg1333
g1373
sg1341
L1L
sg1338
L1L
sg1339
g1376
sVX
L6L
sg1335
g1374
sg1343
g1365
sg1345
g1378
sg1346
g1379
stRp2025
ag1
(g1565
g1513
(dp2026
g1330
g1392
sVY
L2L
sg1332
L4L
sg1333
g1393
sg1341
L2L
sg1338
L2L
sg1339
g1376
sVX
L3L
sg1335
g1374
sg1343
g1336
sg1345
g1378
sg1346
g1379
stRp2027
ag1
(g1565
g1513
(dp2028
g1330
g1479
sVY
L9L
sg1332
L4L
sg1333
g1480
sg1341
L1L
sg1338
L1L
sg1339
g1365
sVX
L3L
sg1335
g1344
sg1343
g1376
sg1345
g1378
sg1346
g1440
stRp2029
ag1
(g1565
g1513
(dp2030
g1330
g1436
sVY
L3L
sg1332
L4L
sg1333
g1437
sg1341
L3L
sg1338
L3L
sg1339
g1403
sVX
L6L
sg1335
g1356
sg1343
g1344
sg1345
g1340
sg1346
g1440
stRp2031
ag1
(g1565
g1513
(dp2032
g1330
g1352
sVY
L2L
sg1332
L4L
sg1333
g1353
sg1341
L7L
sg1338
L7L
sg1339
g1340
sVX
L2L
sg1335
g1336
sg1343
g1356
sg1345
g1344
sg1346
g1357
stRp2033
ag1
(g1565
g1513
(dp2034
g1330
g1410
sVY
L2L
sg1332
L4L
sg1333
g1411
sg1341
L1L
sg1338
L1L
sg1339
g1356
sVX
L8L
sg1335
g1403
sg1343
g1374
sg1345
g1340
sg1346
g1357
stRp2035
ag1
(g1565
g1513
(dp2036
g1330
g1428
sVY
L2L
sg1332
L4L
sg1333
g1429
sg1341
L5L
sg1338
L5L
sg1339
g1340
sVX
L2L
sg1335
g1344
sg1343
g1376
sg1345
g1422
sg1346
g1423
stRp2037
ag1
(g1565
g1513
(dp2038
g1330
g1418
sVY
L2L
sg1332
L4L
sg1333
g1419
sg1341
L7L
sg1338
L7L
sg1339
g1344
sVX
L2L
sg1335
g1340
sg1343
g1356
sg1345
g1422
sg1346
g1423
stRp2039
asg1578
Nsg1579
I4
sg1580
I18
sg1581
I0
sg1582
I18
sbasS'savePickle'
p2040
I00
sb.