ccopy_reg
_reconstructor
p1
(cpsychopy.data
ExperimentHandler
p2
c__builtin__
object
p3
NtRp4
(dp5
S'originPath'
p6
NsS'dataFileName'
p7
VC:\u005cUsers\u005cexperimenter\u005cDesktop\u005cExperiments\u005cKRITL\u005cdata/31038_KRITL_2017_Apr_14_1720
p8
sS'runtimeInfo'
p9
NsS'name'
p10
S'KRITL'
p11
sS'dataNames'
p12
(lp13
S'practice_encoding.keys'
p14
aS'practice_encoding.rt'
p15
aS'practice_execution.keys'
p16
aS'practice_execution.corr'
p17
aS'practice_execution.rt'
p18
aS'encoding.keys'
p19
aS'encoding.rt'
p20
aS'execution.keys'
p21
aS'execution.corr'
p22
aS'execution.rt'
p23
asS'autoLog'
p24
I01
sS'extraInfo'
p25
(dp26
S'date'
p27
V2017_Apr_14_1720
p28
sS'frameRate'
p29
NsS'expName'
p30
g11
sVsession
p31
V001
p32
sVparticipant
p33
V31038
p34
ssS'loopsUnfinished'
p35
(lp36
sS'saveWideText'
p37
I00
sS'thisEntry'
p38
(dp39
sS'version'
p40
S''
sS'_paramNamesSoFar'
p41
(lp42
Voperationc
p43
aVoperationb
p44
aVoperationa
p45
aVcorrectresponse
p46
aVvaluey
p47
aVoperationd
p48
aVcondition
p49
aVvaluex
p50
aVRule
p51
aVOperatora
p52
aVLength
p53
aVIntermediate
p54
aVCorrectResponse
p55
aVResult
p56
aVY
aVX
aVOperatorc
p57
aVOperatorb
p58
aVOperatord
p59
aVStructure
p60
asS'entries'
p61
(lp62
(dp63
g18
F10.945311748131644
sg29
Nsg17
I1
sg43
I0
sg44
Vdecrease
p64
sg45
VTIMES
p65
sg31
g32
sg46
I8
sS'practice_trials.thisTrialN'
p66
I0
sg48
I0
sS'practice_trials.thisRepN'
p67
I0
sg33
g34
sg49
I2
sg27
g28
sg16
S'8'
sg14
(lp68
S'space'
p69
asS'practice_trials.thisIndex'
p70
I1
sS'practice_trials.thisN'
p71
I0
sg30
g11
sg15
(lp72
F11.239467273451737
asg47
I3
sg50
I3
sa(dp73
g18
F10.9851664997841
sg29
Nsg17
I1
sg43
Vincrease
p74
sg44
VDIVIDE
p75
sg45
Vdouble
p76
sg31
g32
sg46
I9
sS'practice_trials.thisTrialN'
p77
I1
sg48
Vtriple
p78
sS'practice_trials.thisRepN'
p79
I0
sg33
g34
sg49
I4
sg27
g28
sg16
S'9'
sg14
(lp80
S'space'
p81
asS'practice_trials.thisIndex'
p82
I5
sS'practice_trials.thisN'
p83
I1
sg30
g11
sg15
(lp84
F5.5913249256118434
asg47
I8
sg50
I8
sa(dp85
g18
F2.0860238723253133
sg29
Nsg17
I1
sg43
I0
sg44
VADD
p86
sg45
Vhalf
p87
sg31
g32
sg46
I7
sS'practice_trials.thisTrialN'
p88
I2
sg48
I0
sS'practice_trials.thisRepN'
p89
I0
sg33
g34
sg49
I2
sg27
g28
sg16
S'7'
sg14
(lp90
S'space'
p91
asS'practice_trials.thisIndex'
p92
I2
sS'practice_trials.thisN'
p93
I2
sg30
g11
sg15
(lp94
F3.2219012679561274
asg47
I5
sg50
I4
sa(dp95
g18
F4.4060115116590168
sg29
Nsg17
I0
sg43
g74
sg44
g75
sg45
g78
sg31
g32
sg46
I3
sS'practice_trials.thisTrialN'
p96
I3
sg48
I0
sS'practice_trials.thisRepN'
p97
I0
sg33
g34
sg49
I3
sg27
g28
sg16
S'4'
sg14
(lp98
S'space'
p99
asS'practice_trials.thisIndex'
p100
I4
sS'practice_trials.thisN'
p101
I3
sg30
g11
sg15
(lp102
F3.3059426040999824
asg47
I3
sg50
I2
sa(dp103
g18
F2.35951832596038
sg29
Nsg17
I1
sg43
I0
sg44
g86
sg45
g64
sg31
g32
sg46
I7
sS'practice_trials.thisTrialN'
p104
I4
sg48
I0
sS'practice_trials.thisRepN'
p105
I0
sg33
g34
sg49
I2
sg27
g28
sg16
S'7'
sg14
(lp106
S'space'
p107
asS'practice_trials.thisIndex'
p108
I0
sS'practice_trials.thisN'
p109
I4
sg30
g11
sg15
(lp110
F2.310481264590635
asg47
I5
sg50
I3
sa(dp111
g18
F5.3990854086441686
sg29
Nsg17
I1
sg43
g86
sg44
Vtriple 
p112
sg45
g87
sg31
g32
sg46
I8
sS'practice_trials.thisTrialN'
p113
I5
sg48
I0
sS'practice_trials.thisRepN'
p114
I0
sg33
g34
sg49
I3
sg27
g28
sg16
S'8'
sg14
(lp115
S'space'
p116
asS'practice_trials.thisIndex'
p117
I3
sS'practice_trials.thisN'
p118
I5
sg30
g11
sg15
(lp119
F3.3155077724804869
asg47
I2
sg50
I4
sa(dp120
S'block.thisTrialN'
p121
I0
sS'block.thisRepN'
p122
I0
sg29
NsS'block.thisN'
p123
I0
sg51
(S'THIRD'
S'INCREASE'
S'SUBTRACT'
S'HALF'
S'x'
S'y'
tp124
sg27
g28
sg53
I4
sg54
(I4
I2
I3
I1
tp125
sg22
I0
sg20
F6.0391639261652017
sg23
F4.1364530835417099
sVY
I2
sVX
I8
sg57
VSUBTRACT
p126
sg31
g32
sg33
g34
sg21
S'9'
sg19
S'space'
p127
sg30
g11
sg56
I1
sg52
Vincrease
p128
sg55
I1
sS'block.thisIndex'
p129
I15
sg58
Vthird
p130
sg59
Vhalf
p131
sg60
VUUBUxy
p132
sa(dp133
S'block.thisTrialN'
p134
I1
sS'block.thisRepN'
p135
I0
sg29
NsS'block.thisN'
p136
I1
sg51
(S'TIMES'
S'THIRD'
S'x'
S'y'
tp137
sg27
g28
sg53
I2
sg54
(I1
I4
tp138
sg22
I1
sg20
F1.5270879535673885
sg23
F4.3533981859945925
sVY
I4
sVX
I3
sg57
I0
sg31
g32
sg33
g34
sg21
S'4'
sg19
S'space'
p139
sg30
g11
sg56
I4
sg52
g130
sg55
I4
sS'block.thisIndex'
p140
I1
sg58
VTIMES
p141
sg59
I0
sg60
VBUxy
p142
sa(dp143
S'block.thisTrialN'
p144
I2
sS'block.thisRepN'
p145
I0
sg29
NsS'block.thisN'
p146
I2
sg51
(S'SUBTRACT'
S'DOUBLE'
S'DECREASE'
S'x'
S'y'
tp147
sg27
g28
sg53
I3
sg54
(I8
I16
I7
tp148
sg22
I1
sg20
F3.0941783428716008
sg23
F4.9680019009974785
sVY
I9
sVX
I9
sg57
Vdecrease
p149
sg31
g32
sg33
g34
sg21
S'7'
sg19
S'space'
p150
sg30
g11
sg56
I7
sg52
Vdouble
p151
sg55
I7
sS'block.thisIndex'
p152
I5
sg58
g126
sg59
I0
sg60
VBUUxy
p153
sa(dp154
S'block.thisTrialN'
p155
I3
sS'block.thisRepN'
p156
I0
sg29
NsS'block.thisN'
p157
I3
sg51
(S'INCREASE'
S'TRIPLE'
S'HALF'
S'ADD'
S'x'
S'y'
tp158
sg27
g28
sg53
I4
sg54
(I4
I2
I6
I7
tp159
sg22
I1
sg20
F4.0211272214219207
sg23
F3.9562561177735915
sVY
I2
sVX
I2
sg57
g131
sg31
g32
sg33
g34
sg21
S'7'
sg19
S'space'
p160
sg30
g11
sg56
I7
sg52
Vtriple
p161
sg55
I7
sS'block.thisIndex'
p162
I17
sg58
g128
sg59
VADD
p163
sg60
VUUUBxy
p164
sa(dp165
S'block.thisTrialN'
p166
I4
sS'block.thisRepN'
p167
I0
sg29
NsS'block.thisN'
p168
I4
sg51
(S'TIMES'
S'DECREASE'
S'THIRD'
S'DOUBLE'
S'x'
S'y'
tp169
sg27
g28
sg53
I4
sg54
(I6
I2
I1
I2
tp170
sg22
I1
sg20
F4.2899678769608727
sg23
F3.5079394187341677
sVY
I2
sVX
I3
sg57
g130
sg31
g32
sg33
g34
sg21
S'2'
sg19
S'space'
p171
sg30
g11
sg56
I2
sg52
g149
sg55
I2
sS'block.thisIndex'
p172
I11
sg58
g141
sg59
g151
sg60
VBUUUxy
p173
sa(dp174
S'block.thisTrialN'
p175
I5
sS'block.thisRepN'
p176
I0
sg29
NsS'block.thisN'
p177
I5
sg51
(S'ADD'
S'DECREASE'
S'HALF'
S'x'
S'y'
tp178
sg27
g28
sg53
I3
sg54
(I3
I2
I6
tp179
sg22
I1
sg20
F2.3270061323855771
sg23
F3.1262639324268093
sVY
I4
sVX
I6
sg57
g131
sg31
g32
sg33
g34
sg21
S'6'
sg19
S'space'
p180
sg30
g11
sg56
I6
sg52
g149
sg55
I6
sS'block.thisIndex'
p181
I4
sg58
g163
sg59
I0
sg60
g153
sa(dp182
S'block.thisTrialN'
p183
I6
sS'block.thisRepN'
p184
I0
sg29
NsS'block.thisN'
p185
I6
sg51
(S'SUBTRACT'
S'THIRD'
S'x'
S'y'
tp186
sg27
g28
sg53
I2
sg54
(I3
I1
tp187
sg22
I1
sg20
F1.4894313148251968
sg23
F3.0483045903529273
sVY
I2
sVX
I9
sg57
I0
sg31
g32
sg33
g34
sg21
S'1'
sg19
S'space'
p188
sg30
g11
sg56
I1
sg52
g130
sg55
I1
sS'block.thisIndex'
p189
I0
sg58
g126
sg59
I0
sg60
g142
sa(dp190
S'block.thisTrialN'
p191
I7
sS'block.thisRepN'
p192
I0
sg29
NsS'block.thisN'
p193
I7
sg51
(S'INCREASE'
S'DIVIDE'
S'HALF'
S'x'
S'y'
tp194
sg27
g28
sg53
I3
sg54
(I2
I1
I2
tp195
sg22
I1
sg20
F1.9581994581967592
sg23
F6.5468660704937065
sVY
I2
sVX
I4
sg57
g131
sg31
g32
sg33
g34
sg21
S'2'
sg19
S'space'
p196
sg30
g11
sg56
I2
sg52
VDIVIDE
p197
sg55
I2
sS'block.thisIndex'
p198
I7
sg58
g128
sg59
I0
sg60
VUBUxy
p199
sa(dp200
S'block.thisTrialN'
p201
I8
sS'block.thisRepN'
p202
I0
sg29
NsS'block.thisN'
p203
I8
sg51
(S'INCREASE'
S'HALF'
S'TIMES'
S'TRIPLE'
S'x'
S'y'
tp204
sg27
g28
sg53
I4
sg54
(I6
I12
I6
I7
tp205
sg22
I0
sg20
F5.1420699777518166
sg23
F7.9249964391347021
sVY
I2
sVX
I2
sg57
g141
sg31
g32
sg33
g34
sg21
S'2'
sg19
S'space'
p206
sg30
g11
sg56
I7
sg52
g131
sg55
I7
sS'block.thisIndex'
p207
I14
sg58
g128
sg59
g161
sg60
g132
sa(dp208
S'block.thisTrialN'
p209
I9
sS'block.thisRepN'
p210
I0
sg29
NsS'block.thisN'
p211
I9
sg51
(S'TRIPLE'
S'HALF'
S'TIMES'
S'x'
S'y'
tp212
sg27
g28
sg53
I3
sg54
(I6
I3
I9
tp213
sg22
I1
sg20
F5.2227495764673222
sg23
F5.6662840412755031
sVY
I3
sVX
I2
sg57
g141
sg31
g32
sg33
g34
sg21
S'9'
sg19
S'space'
p214
sg30
g11
sg56
I9
sg52
g131
sg55
I9
sS'block.thisIndex'
p215
I9
sg58
g161
sg59
I0
sg60
VUUBxy
p216
sa(dp217
S'block.thisTrialN'
p218
I10
sS'block.thisRepN'
p219
I0
sg29
NsS'block.thisN'
p220
I10
sg51
(S'DECREASE'
S'HALF'
S'DIVIDE'
S'x'
S'y'
tp221
sg27
g28
sg53
I3
sg54
(I4
I2
I1
tp222
sg22
I1
sg20
F2.9830800248164451
sg23
F4.1168341994343791
sVY
I2
sVX
I8
sg57
g197
sg31
g32
sg33
g34
sg21
S'1'
sg19
S'space'
p223
sg30
g11
sg56
I1
sg52
g131
sg55
I1
sS'block.thisIndex'
p224
I8
sg58
g149
sg59
I0
sg60
g216
sa(dp225
S'block.thisTrialN'
p226
I11
sS'block.thisRepN'
p227
I0
sg29
NsS'block.thisN'
p228
I11
sg51
(S'DECREASE'
S'DIVIDE'
S'TRIPLE'
S'DOUBLE'
S'x'
S'y'
tp229
sg27
g28
sg53
I4
sg54
(I6
I18
I2
I1
tp230
sg22
I1
sg20
F2.2096350908541353
sg23
F5.6390954735543346
sVY
I9
sVX
I3
sg57
g161
sg31
g32
sg33
g34
sg21
S'1'
sg19
S'space'
p231
sg30
g11
sg56
I1
sg52
g197
sg55
I1
sS'block.thisIndex'
p232
I12
sg58
g149
sg59
g151
sg60
VUBUUxy
p233
sa(dp234
S'block.thisTrialN'
p235
I12
sS'block.thisRepN'
p236
I0
sg29
NsS'block.thisN'
p237
I12
sg51
(S'INCREASE'
S'TIMES'
S'x'
S'y'
tp238
sg27
g28
sg53
I2
sg54
(I8
I9
tp239
sg22
I1
sg20
F2.2775729137647431
sg23
F1.8296989169612061
sVY
I4
sVX
I2
sg57
I0
sg31
g32
sg33
g34
sg21
S'9'
sg19
S'space'
p240
sg30
g11
sg56
I9
sg52
g141
sg55
I9
sS'block.thisIndex'
p241
I2
sg58
g128
sg59
I0
sg60
VUBxy
p242
sa(dp243
S'block.thisTrialN'
p244
I13
sS'block.thisRepN'
p245
I0
sg29
NsS'block.thisN'
p246
I13
sg51
(S'TRIPLE'
S'SUBTRACT'
S'INCREASE'
S'HALF'
S'x'
S'y'
tp247
sg27
g28
sg53
I4
sg54
(I3
I4
I1
I3
tp248
sg22
I1
sg20
F7.1699791177525185
sg23
F3.9264960274012992
sVY
I3
sVX
I6
sg57
g128
sg31
g32
sg33
g34
sg21
S'3'
sg19
S'space'
p249
sg30
g11
sg56
I3
sg52
g126
sg55
I3
sS'block.thisIndex'
p250
I13
sg58
g161
sg59
g131
sg60
g233
sa(dp251
S'block.thisTrialN'
p252
I14
sS'block.thisRepN'
p253
I0
sg29
NsS'block.thisN'
p254
I14
sg51
(S'DIVIDE'
S'DECREASE'
S'THIRD'
S'DOUBLE'
S'x'
S'y'
tp255
sg27
g28
sg53
I4
sg54
(I12
I4
I3
I1
tp256
sg22
I0
sg20
F3.23271055216901
sg23
F17.338425400812412
sVY
I3
sVX
I6
sg57
g130
sg31
g32
sg33
g34
sg21
S'2'
sg19
S'space'
p257
sg30
g11
sg56
I1
sg52
g149
sg55
I1
sS'block.thisIndex'
p258
I10
sg58
g197
sg59
g151
sg60
g173
sa(dp259
S'block.thisTrialN'
p260
I15
sS'block.thisRepN'
p261
I0
sg29
NsS'block.thisN'
p262
I15
sg51
(S'TRIPLE'
S'SUBTRACT'
S'x'
S'y'
tp263
sg27
g28
sg53
I2
sg54
(I2
I6
tp264
sg22
I1
sg20
F3.955686379224062
sg23
F2.1013242221815744
sVY
I6
sVX
I8
sg57
I0
sg31
g32
sg33
g34
sg21
S'6'
sg19
S'space'
p265
sg30
g11
sg56
I6
sg52
g126
sg55
I6
sS'block.thisIndex'
p266
I3
sg58
g161
sg59
I0
sg60
g242
sa(dp267
S'block.thisTrialN'
p268
I16
sS'block.thisRepN'
p269
I0
sg29
NsS'block.thisN'
p270
I16
sg51
(S'DECREASE'
S'HALF'
S'TRIPLE'
S'ADD'
S'x'
S'y'
tp271
sg27
g28
sg53
I4
sg54
(I4
I12
I6
I5
tp272
sg22
I1
sg20
F8.5835015193588333
sg23
F3.7487806440185523
sVY
I2
sVX
I2
sg57
g161
sg31
g32
sg33
g34
sg21
S'5'
sg19
S'space'
p273
sg30
g11
sg56
I5
sg52
g131
sg55
I5
sS'block.thisIndex'
p274
I16
sg58
g149
sg59
g163
sg60
g164
sa(dp275
S'block.thisTrialN'
p276
I17
sS'block.thisRepN'
p277
I0
sg29
NsS'block.thisN'
p278
I17
sg51
(S'DOUBLE'
S'TIMES'
S'THIRD'
S'x'
S'y'
tp279
sg27
g28
sg53
I3
sg54
(I1
I4
I8
tp280
sg22
I1
sg20
F3.3757975202461239
sg23
F4.4402626676746877
sVY
I4
sVX
I3
sg57
g130
sg31
g32
sg33
g34
sg21
S'8'
sg19
S'space'
p281
sg30
g11
sg56
I8
sg52
g141
sg55
I8
sS'block.thisIndex'
p282
I6
sg58
g151
sg59
I0
sg60
g199
sa(dp283
S'block.thisTrialN'
p284
I0
sS'block.thisRepN'
p285
I0
sg29
NsS'block.thisN'
p286
I0
sVRule
p287
(S'THIRD'
S'TIMES'
S'DOUBLE'
S'DECREASE'
S'x'
S'y'
tp288
sg27
g28
sVLength
p289
I4
sVIntermediate
p290
(I1
I2
I6
I2
tp291
sg22
I1
sg20
F7.0105786590866046
sg23
F5.9407961851247819
sVY
I3
sVX
I2
sVOperatorc
p292
Vdouble
p293
sg31
g32
sg33
g34
sg21
S'2'
sg19
S'space'
p294
sg30
g11
sVResult
p295
I2
sVOperatora
p296
VTIMES
p297
sVCorrectResponse
p298
I2
sS'block.thisIndex'
p299
I13
sVOperatorb
p300
Vthird
p301
sVOperatord
p302
Vdecrease
p303
sVStructure
p304
VUBUUxy
p305
sa(dp306
S'block.thisTrialN'
p307
I1
sS'block.thisRepN'
p308
I0
sg29
NsS'block.thisN'
p309
I1
sg287
(S'SUBTRACT'
S'DECREASE'
S'TRIPLE'
S'DOUBLE'
S'x'
S'y'
tp310
sg27
g28
sg289
I4
sg290
(I6
I18
I17
I8
tp311
sg22
I1
sg20
F2.4687747926363954
sg23
F8.5488066112156957
sVY
I9
sVX
I3
sg292
Vtriple
p312
sg31
g32
sg33
g34
sg21
S'8'
sg19
S'space'
p313
sg30
g11
sg295
I8
sg296
g303
sg298
I8
sS'block.thisIndex'
p314
I11
sg300
VSUBTRACT
p315
sg302
g293
sg304
VBUUUxy
p316
sa(dp317
S'block.thisTrialN'
p318
I2
sS'block.thisRepN'
p319
I0
sg29
NsS'block.thisN'
p320
I2
sg287
(S'INCREASE'
S'TRIPLE'
S'DIVIDE'
S'x'
S'y'
tp321
sg27
g28
sg289
I3
sg290
(I2
I6
I7
tp322
sg22
I1
sg20
F1.8012074397702236
sg23
F4.1907833240111358
sVY
I3
sVX
I6
sg292
VDIVIDE
p323
sg31
g32
sg33
g34
sg21
S'7'
sg19
S'space'
p324
sg30
g11
sg295
I7
sg296
g312
sg298
I7
sS'block.thisIndex'
p325
I8
sg300
Vincrease
p326
sg302
I0
sg304
VUUBxy
p327
sa(dp328
S'block.thisTrialN'
p329
I3
sS'block.thisRepN'
p330
I0
sg29
NsS'block.thisN'
p331
I3
sg287
(S'DIVIDE'
S'INCREASE'
S'x'
S'y'
tp332
sg27
g28
sg289
I2
sg290
(I4
I2
tp333
sg22
I1
sg20
F4.8215566951112123
sg23
F4.37574187622522
sVY
I2
sVX
I3
sg292
I0
sg31
g32
sg33
g34
sg21
S'2'
sg19
S'space'
p334
sg30
g11
sg295
I2
sg296
g326
sg298
I2
sS'block.thisIndex'
p335
I0
sg300
g323
sg302
I0
sg304
VBUxy
p336
sa(dp337
S'block.thisTrialN'
p338
I4
sS'block.thisRepN'
p339
I0
sg29
NsS'block.thisN'
p340
I4
sg287
(S'DECREASE'
S'DIVIDE'
S'x'
S'y'
tp341
sg27
g28
sg289
I2
sg290
(I2
I1
tp342
sg22
I1
sg20
F1.4293854907737114
sg23
F2.405456121545285
sVY
I4
sVX
I8
sg292
I0
sg31
g32
sg33
g34
sg21
S'1'
sg19
S'space'
p343
sg30
g11
sg295
I1
sg296
g323
sg298
I1
sS'block.thisIndex'
p344
I2
sg300
g303
sg302
I0
sg304
VUBxy
p345
sa(dp346
S'block.thisTrialN'
p347
I5
sS'block.thisRepN'
p348
I0
sg29
NsS'block.thisN'
p349
I5
sg287
(S'DIVIDE'
S'DECREASE'
S'TRIPLE'
S'x'
S'y'
tp350
sg27
g28
sg289
I3
sg290
(I9
I8
I4
tp351
sg22
I1
sg20
F6.0519036021869397
sg23
F15.365475033526309
sVY
I2
sVX
I3
sg292
g312
sg31
g32
sg33
g34
sg21
S'4'
sg19
S'space'
p352
sg30
g11
sg295
I4
sg296
g303
sg298
I4
sS'block.thisIndex'
p353
I5
sg300
g323
sg302
I0
sg304
VBUUxy
p354
sa(dp355
S'block.thisTrialN'
p356
I6
sS'block.thisRepN'
p357
I0
sg29
NsS'block.thisN'
p358
I6
sg287
(S'INCREASE'
S'ADD'
S'x'
S'y'
tp359
sg27
g28
sg289
I2
sg290
(I5
I6
tp360
sg22
I1
sg20
F1.0456753239268437
sg23
F1.638554081946495
sVY
I2
sVX
I3
sg292
I0
sg31
g32
sg33
g34
sg21
S'6'
sg19
S'space'
p361
sg30
g11
sg295
I6
sg296
VADD
p362
sg298
I6
sS'block.thisIndex'
p363
I3
sg300
g326
sg302
I0
sg304
g345
sa(dp364
S'block.thisTrialN'
p365
I7
sS'block.thisRepN'
p366
I0
sg29
NsS'block.thisN'
p367
I7
sg287
(S'THIRD'
S'DOUBLE'
S'INCREASE'
S'TIMES'
S'x'
S'y'
tp368
sg27
g28
sg289
I4
sg290
(I8
I9
I18
I6
tp369
sg22
I1
sg20
F3.6179546036000829
sg23
F6.2105785891035339
sVY
I4
sVX
I2
sg292
g326
sg31
g32
sg33
g34
sg21
S'6'
sg19
S'space'
p370
sg30
g11
sg295
I6
sg296
g293
sg298
I6
sS'block.thisIndex'
p371
I17
sg300
g301
sg302
g297
sg304
VUUUBxy
p372
sa(dp373
S'block.thisTrialN'
p374
I8
sS'block.thisRepN'
p375
I0
sg29
NsS'block.thisN'
p376
I8
sg287
(S'HALF'
S'ADD'
S'TRIPLE'
S'x'
S'y'
tp377
sg27
g28
sg289
I3
sg290
(I9
I12
I6
tp378
sg22
I0
sg20
F1.7501755935663823
sg23
F3.8133157838892657
sVY
I3
sVX
I3
sg292
g312
sg31
g32
sg33
g34
sg21
S'2'
sg19
S'space'
p379
sg30
g11
sg295
I6
sg296
g362
sg298
I6
sS'block.thisIndex'
p380
I6
sg300
Vhalf
p381
sg302
I0
sg304
VUBUxy
p382
sa(dp383
S'block.thisTrialN'
p384
I9
sS'block.thisRepN'
p385
I0
sg29
NsS'block.thisN'
p386
I9
sg287
(S'DOUBLE'
S'ADD'
S'INCREASE'
S'THIRD'
S'x'
S'y'
tp387
sg27
g28
sg289
I4
sg290
(I1
I2
I4
I8
tp388
sg22
I1
sg20
F8.8046654168283567
sg23
F4.566648036998231
sVY
I2
sVX
I3
sg292
g326
sg31
g32
sg33
g34
sg21
S'8'
sg19
S'space'
p389
sg30
g11
sg295
I8
sg296
g362
sg298
I8
sS'block.thisIndex'
p390
I12
sg300
g293
sg302
g301
sg304
g305
sa(dp391
S'block.thisTrialN'
p392
I10
sS'block.thisRepN'
p393
I0
sg29
NsS'block.thisN'
p394
I10
sg287
(S'ADD'
S'DOUBLE'
S'DECREASE'
S'THIRD'
S'x'
S'y'
tp395
sg27
g28
sg289
I4
sg290
(I2
I1
I2
I8
tp396
sg22
I1
sg20
F4.5354002570820739
sg23
F6.0378141217370285
sVY
I6
sVX
I6
sg292
g303
sg31
g32
sg33
g34
sg21
S'8'
sg19
S'space'
p397
sg30
g11
sg295
I8
sg296
g293
sg298
I8
sS'block.thisIndex'
p398
I10
sg300
g362
sg302
g301
sg304
g316
sa(dp399
S'block.thisTrialN'
p400
I11
sS'block.thisRepN'
p401
I0
sg29
NsS'block.thisN'
p402
I11
sg287
(S'HALF'
S'TRIPLE'
S'INCREASE'
S'DIVIDE'
S'x'
S'y'
tp403
sg27
g28
sg289
I4
sg290
(I3
I4
I12
I6
tp404
sg22
I1
sg20
F6.0820234537677607
sg23
F5.0994431750586955
sVY
I3
sVX
I9
sg292
g326
sg31
g32
sg33
g34
sg21
S'6'
sg19
S'space'
p405
sg30
g11
sg295
I6
sg296
g312
sg298
I6
sS'block.thisIndex'
p406
I16
sg300
g381
sg302
g323
sg304
g372
sa(dp407
S'block.thisTrialN'
p408
I12
sS'block.thisRepN'
p409
I0
sg29
NsS'block.thisN'
p410
I12
sg287
(S'SUBTRACT'
S'DECREASE'
S'x'
S'y'
tp411
sg27
g28
sg289
I2
sg290
(I5
I3
tp412
sg22
I1
sg20
F1.2019793165236479
sg23
F2.6608694252208807
sVY
I2
sVX
I6
sg292
I0
sg31
g32
sg33
g34
sg21
S'3'
sg19
S'space'
p413
sg30
g11
sg295
I3
sg296
g303
sg298
I3
sS'block.thisIndex'
p414
I1
sg300
g315
sg302
I0
sg304
g336
sa(dp415
S'block.thisTrialN'
p416
I13
sS'block.thisRepN'
p417
I0
sg29
NsS'block.thisN'
p418
I13
sg287
(S'THIRD'
S'INCREASE'
S'DIVIDE'
S'DOUBLE'
S'x'
S'y'
tp419
sg27
g28
sg289
I4
sg290
(I18
I2
I3
I1
tp420
sg22
I1
sg20
F9.2197755972010782
sg23
F5.2350276522629429
sVY
I9
sVX
I9
sg292
g323
sg31
g32
sg33
g34
sg21
S'1'
sg19
S'space'
p421
sg30
g11
sg295
I1
sg296
g326
sg298
I1
sS'block.thisIndex'
p422
I15
sg300
g301
sg302
g293
sg304
VUUBUxy
p423
sa(dp424
S'block.thisTrialN'
p425
I14
sS'block.thisRepN'
p426
I0
sg29
NsS'block.thisN'
p427
I14
sg287
(S'ADD'
S'HALF'
S'THIRD'
S'x'
S'y'
tp428
sg27
g28
sg289
I3
sg290
(I2
I1
I9
tp429
sg22
I1
sg20
F1.2851387477858225
sg23
F3.8830702608684078
sVY
I8
sVX
I6
sg292
g301
sg31
g32
sg33
g34
sg21
S'9'
sg19
S'space'
p430
sg30
g11
sg295
I9
sg296
g381
sg298
I9
sS'block.thisIndex'
p431
I4
sg300
g362
sg302
I0
sg304
g354
sa(dp432
S'block.thisTrialN'
p433
I15
sS'block.thisRepN'
p434
I0
sg29
NsS'block.thisN'
p435
I15
sg287
(S'THIRD'
S'HALF'
S'ADD'
S'x'
S'y'
tp436
sg27
g28
sg289
I3
sg290
(I6
I3
I1
tp437
sg22
I1
sg20
F1.3444367024931125
sg23
F1.9584619298839243
sVY
I3
sVX
I3
sg292
g362
sg31
g32
sg33
g34
sg21
S'1'
sg19
S'space'
p438
sg30
g11
sg295
I1
sg296
g381
sg298
I1
sS'block.thisIndex'
p439
I9
sg300
g301
sg302
I0
sg304
g327
sa(dp440
S'block.thisTrialN'
p441
I16
sS'block.thisRepN'
p442
I0
sg29
NsS'block.thisN'
p443
I16
sg287
(S'THIRD'
S'DOUBLE'
S'ADD'
S'DECREASE'
S'x'
S'y'
tp444
sg27
g28
sg289
I4
sg290
(I5
I12
I24
I8
tp445
sg22
I1
sg20
F2.3085627715045121
sg23
F7.9908253894827794
sVY
I7
sVX
I6
sg292
g362
sg31
g32
sg33
g34
sg21
S'8'
sg19
S'space'
p446
sg30
g11
sg295
I8
sg296
g293
sg298
I8
sS'block.thisIndex'
p447
I14
sg300
g301
sg302
g303
sg304
g423
sa(dp448
S'block.thisTrialN'
p449
I17
sS'block.thisRepN'
p450
I0
sg29
NsS'block.thisN'
p451
I17
sg287
(S'INCREASE'
S'SUBTRACT'
S'HALF'
S'x'
S'y'
tp452
sg27
g28
sg289
I3
sg290
(I4
I2
I3
tp453
sg22
I1
sg20
F2.2255384256859543
sg23
F2.5340532523550792
sVY
I2
sVX
I8
sg292
g381
sg31
g32
sg33
g34
sg21
S'3'
sg19
S'space'
p454
sg30
g11
sg295
I3
sg296
g315
sg298
I3
sS'block.thisIndex'
p455
I7
sg300
g326
sg302
I0
sg304
g382
sa(dp456
S'block.thisTrialN'
p457
I0
sS'block.thisRepN'
p458
I0
sg29
NsS'block.thisN'
p459
I0
sVRule
p460
(S'INCREASE'
S'SUBTRACT'
S'THIRD'
S'x'
S'y'
tp461
sg27
g28
sVLength
p462
I3
sVIntermediate
p463
(I3
I1
I2
tp464
sg22
I1
sg20
F3.8434601328335702
sg23
F2.6106543909263564
sVY
I2
sVX
I9
sVOperatorc
p465
Vthird
p466
sg31
g32
sg33
g34
sg21
S'2'
sg19
S'space'
p467
sg30
g11
sVResult
p468
I2
sVOperatora
p469
VSUBTRACT
p470
sVCorrectResponse
p471
I2
sS'block.thisIndex'
p472
I7
sVOperatorb
p473
Vincrease
p474
sVOperatord
p475
I0
sVStructure
p476
VUBUxy
p477
sa(dp478
S'block.thisTrialN'
p479
I1
sS'block.thisRepN'
p480
I0
sg29
NsS'block.thisN'
p481
I1
sg460
(S'TRIPLE'
S'DECREASE'
S'HALF'
S'SUBTRACT'
S'x'
S'y'
tp482
sg27
g28
sg462
I4
sg463
(I4
I2
I1
I3
tp483
sg22
I0
sg20
F7.3843079023936298
sg23
F5.0721986133721657
sVY
I5
sVX
I9
sg465
Vhalf
p484
sg31
g32
sg33
g34
sg21
S'9'
sg19
S'space'
p485
sg30
g11
sg468
I3
sg469
Vdecrease
p486
sg471
I3
sS'block.thisIndex'
p487
I17
sg473
Vtriple
p488
sg475
g470
sg476
VUUUBxy
p489
sa(dp490
S'block.thisTrialN'
p491
I2
sS'block.thisRepN'
p492
I0
sg29
NsS'block.thisN'
p493
I2
sg460
(S'DECREASE'
S'TRIPLE'
S'HALF'
S'ADD'
S'x'
S'y'
tp494
sg27
g28
sg462
I4
sg463
(I6
I3
I9
I8
tp495
sg22
I1
sg20
F2.2943515041988576
sg23
F7.5536003941961098
sVY
I2
sVX
I4
sg465
g484
sg31
g32
sg33
g34
sg21
S'8'
sg19
S'space'
p496
sg30
g11
sg468
I8
sg469
g488
sg471
I8
sS'block.thisIndex'
p497
I16
sg473
g486
sg475
VADD
p498
sg476
g489
sa(dp499
S'block.thisTrialN'
p500
I3
sS'block.thisRepN'
p501
I0
sg29
NsS'block.thisN'
p502
I3
sg460
(S'THIRD'
S'INCREASE'
S'ADD'
S'DOUBLE'
S'x'
S'y'
tp503
sg27
g28
sg462
I4
sg463
(I16
I20
I21
I7
tp504
sg22
I1
sg20
F4.3715626269840868
sg23
F6.9668697730958229
sVY
I4
sVX
I8
sg465
g498
sg31
g32
sg33
g34
sg21
S'7'
sg19
S'space'
p505
sg30
g11
sg468
I7
sg469
g474
sg471
I7
sS'block.thisIndex'
p506
I14
sg473
g466
sg475
Vdouble
p507
sg476
VUUBUxy
p508
sa(dp509
S'block.thisTrialN'
p510
I4
sS'block.thisRepN'
p511
I0
sg29
NsS'block.thisN'
p512
I4
sg460
(S'TRIPLE'
S'DOUBLE'
S'SUBTRACT'
S'DECREASE'
S'x'
S'y'
tp513
sg27
g28
sg462
I4
sg463
(I4
I1
I2
I6
tp514
sg22
I1
sg20
F3.8470307977258926
sg23
F8.0859283326281002
sVY
I3
sVX
I5
sg465
g470
sg31
g32
sg33
g34
sg21
S'6'
sg19
S'space'
p515
sg30
g11
sg468
I6
sg469
g507
sg471
I6
sS'block.thisIndex'
p516
I15
sg473
g488
sg475
g486
sg476
g508
sa(dp517
S'block.thisTrialN'
p518
I5
sS'block.thisRepN'
p519
I0
sg29
NsS'block.thisN'
p520
I5
sg460
(S'INCREASE'
S'ADD'
S'TRIPLE'
S'x'
S'y'
tp521
sg27
g28
sg462
I3
sg463
(I6
I8
I9
tp522
sg22
I1
sg20
F2.9515718729671789
sg23
F3.3000698874675436
sVY
I2
sVX
I2
sg465
g488
sg31
g32
sg33
g34
sg21
S'9'
sg19
S'space'
p523
sg30
g11
sg468
I9
sg469
g498
sg471
I9
sS'block.thisIndex'
p524
I6
sg473
g474
sg475
I0
sg476
g477
sa(dp525
S'block.thisTrialN'
p526
I6
sS'block.thisRepN'
p527
I0
sg29
NsS'block.thisN'
p528
I6
sg460
(S'DOUBLE'
S'ADD'
S'x'
S'y'
tp529
sg27
g28
sg462
I2
sg463
(I4
I8
tp530
sg22
I1
sg20
F0.89732002404343802
sg23
F2.5965106663352344
sVY
I2
sVX
I2
sg465
I0
sg31
g32
sg33
g34
sg21
S'8'
sg19
S'space'
p531
sg30
g11
sg468
I8
sg469
g498
sg471
I8
sS'block.thisIndex'
p532
I2
sg473
g507
sg475
I0
sg476
VUBxy
p533
sa(dp534
S'block.thisTrialN'
p535
I7
sS'block.thisRepN'
p536
I0
sg29
NsS'block.thisN'
p537
I7
sg460
(S'DIVIDE'
S'DOUBLE'
S'INCREASE'
S'THIRD'
S'x'
S'y'
tp538
sg27
g28
sg462
I4
sg463
(I2
I3
I6
I2
tp539
sg22
I1
sg20
F5.8955831613566261
sg23
F5.220069565490121
sVY
I3
sVX
I6
sg465
g474
sg31
g32
sg33
g34
sg21
S'2'
sg19
S'space'
p540
sg30
g11
sg468
I2
sg469
g507
sg471
I2
sS'block.thisIndex'
p541
I10
sg473
VDIVIDE
p542
sg475
g466
sg476
VBUUUxy
p543
sa(dp544
S'block.thisTrialN'
p545
I8
sS'block.thisRepN'
p546
I0
sg29
NsS'block.thisN'
p547
I8
sg460
(S'SUBTRACT'
S'INCREASE'
S'x'
S'y'
tp548
sg27
g28
sg462
I2
sg463
(I6
I2
tp549
sg22
I1
sg20
F1.5732864710444119
sg23
F1.687450108511257
sVY
I4
sVX
I5
sg465
I0
sg31
g32
sg33
g34
sg21
S'2'
sg19
S'space'
p550
sg30
g11
sg468
I2
sg469
g474
sg471
I2
sS'block.thisIndex'
p551
I1
sg473
g470
sg475
I0
sg476
VBUxy
p552
sa(dp553
S'block.thisTrialN'
p554
I9
sS'block.thisRepN'
p555
I0
sg29
NsS'block.thisN'
p556
I9
sg460
(S'DOUBLE'
S'TIMES'
S'x'
S'y'
tp557
sg27
g28
sg462
I2
sg463
(I4
I8
tp558
sg22
I1
sg20
F1.124391634366475
sg23
F1.7465716822480317
sVY
I2
sVX
I2
sg465
I0
sg31
g32
sg33
g34
sg21
S'8'
sg19
S'space'
p559
sg30
g11
sg468
I8
sg469
VTIMES
p560
sg471
I8
sS'block.thisIndex'
p561
I3
sg473
g507
sg475
I0
sg476
g533
sa(dp562
S'block.thisTrialN'
p563
I10
sS'block.thisRepN'
p564
I0
sg29
NsS'block.thisN'
p565
I10
sg460
(S'TIMES'
S'INCREASE'
S'HALF'
S'TRIPLE'
S'x'
S'y'
tp566
sg27
g28
sg462
I4
sg463
(I6
I3
I4
I8
tp567
sg22
I1
sg20
F4.9345742061705096
sg23
F7.9875801894813776
sVY
I2
sVX
I2
sg465
g484
sg31
g32
sg33
g34
sg21
S'8'
sg19
S'space'
p568
sg30
g11
sg468
I8
sg469
g474
sg471
I8
sS'block.thisIndex'
p569
I11
sg473
g560
sg475
g488
sg476
g543
sa(dp570
S'block.thisTrialN'
p571
I11
sS'block.thisRepN'
p572
I0
sg29
NsS'block.thisN'
p573
I11
sg460
(S'DIVIDE'
S'TRIPLE'
S'HALF'
S'x'
S'y'
tp574
sg27
g28
sg462
I3
sg463
(I4
I12
I4
tp575
sg22
I1
sg20
F2.8999083448870806
sg23
F4.2316960115858819
sVY
I3
sVX
I8
sg465
g484
sg31
g32
sg33
g34
sg21
S'4'
sg19
S'space'
p576
sg30
g11
sg468
I4
sg469
g488
sg471
I4
sS'block.thisIndex'
p577
I4
sg473
g542
sg475
I0
sg476
VBUUxy
p578
sa(dp579
S'block.thisTrialN'
p580
I12
sS'block.thisRepN'
p581
I0
sg29
NsS'block.thisN'
p582
I12
sg460
(S'THIRD'
S'INCREASE'
S'SUBTRACT'
S'x'
S'y'
tp583
sg27
g28
sg462
I3
sg463
(I2
I3
I1
tp584
sg22
I1
sg20
F2.1807558554719435
sg23
F2.2423054673563456
sVY
I6
sVX
I8
sg465
g470
sg31
g32
sg33
g34
sg21
S'1'
sg19
S'space'
p585
sg30
g11
sg468
I1
sg469
g474
sg471
I1
sS'block.thisIndex'
p586
I9
sg473
g466
sg475
I0
sg476
VUUBxy
p587
sa(dp588
S'block.thisTrialN'
p589
I13
sS'block.thisRepN'
p590
I0
sg29
NsS'block.thisN'
p591
I13
sg460
(S'DECREASE'
S'TRIPLE'
S'DIVIDE'
S'x'
S'y'
tp592
sg27
g28
sg462
I3
sg463
(I2
I6
I5
tp593
sg22
I1
sg20
F2.2279391667543678
sg23
F10.385635659185937
sVY
I4
sVX
I8
sg465
g542
sg31
g32
sg33
g34
sg21
S'5'
sg19
S'space'
p594
sg30
g11
sg468
I5
sg469
g488
sg471
I5
sS'block.thisIndex'
p595
I8
sg473
g486
sg475
I0
sg476
g587
sa(dp596
S'block.thisTrialN'
p597
I14
sS'block.thisRepN'
p598
I0
sg29
NsS'block.thisN'
p599
I14
sg460
(S'THIRD'
S'TIMES'
S'HALF'
S'INCREASE'
S'x'
S'y'
tp600
sg27
g28
sg462
I4
sg463
(I8
I4
I12
I4
tp601
sg22
I0
sg20
F6.6294631124037551
sVY
I3
sVX
I7
sg465
g484
sg31
g32
sg33
g34
sg21
Nsg19
S'space'
p602
sg30
g11
sg468
I4
sg469
g560
sg471
I4
sS'block.thisIndex'
p603
I13
sg473
g466
sg475
g474
sg476
VUBUUxy
p604
sa(dp605
S'block.thisTrialN'
p606
I15
sS'block.thisRepN'
p607
I0
sg29
NsS'block.thisN'
p608
I15
sg460
(S'ADD'
S'THIRD'
S'x'
S'y'
tp609
sg27
g28
sg462
I2
sg463
(I1
I7
tp610
sg22
I1
sg20
F1.3866117039287928
sg23
F7.0942791319830576
sVY
I6
sVX
I3
sg465
I0
sg31
g32
sg33
g34
sg21
S'7'
sg19
S'space'
p611
sg30
g11
sg468
I7
sg469
g466
sg471
I7
sS'block.thisIndex'
p612
I0
sg473
g498
sg475
I0
sg476
g552
sa(dp613
S'block.thisTrialN'
p614
I16
sS'block.thisRepN'
p615
I0
sg29
NsS'block.thisN'
p616
I16
sg460
(S'TIMES'
S'THIRD'
S'DOUBLE'
S'x'
S'y'
tp617
sg27
g28
sg462
I3
sg463
(I6
I2
I4
tp618
sg22
I1
sg20
F3.0141500239114976
sg23
F2.8214261591929244
sVY
I2
sVX
I3
sg465
g507
sg31
g32
sg33
g34
sg21
S'4'
sg19
S'space'
p619
sg30
g11
sg468
I4
sg469
g466
sg471
I4
sS'block.thisIndex'
p620
I5
sg473
g560
sg475
I0
sg476
g578
sa(dp621
S'block.thisTrialN'
p622
I17
sS'block.thisRepN'
p623
I0
sg29
NsS'block.thisN'
p624
I17
sg460
(S'INCREASE'
S'DIVIDE'
S'TRIPLE'
S'HALF'
S'x'
S'y'
tp625
sg27
g28
sg462
I4
sg463
(I2
I6
I2
I3
tp626
sg22
I1
sg20
F2.9831713649764424
sg23
F5.3931150525459088
sVY
I3
sVX
I4
sg465
g488
sg31
g32
sg33
g34
sg21
S'3'
sg19
S'space'
p627
sg30
g11
sg468
I3
sg469
g542
sg471
I3
sS'block.thisIndex'
p628
I12
sg473
g474
sg475
g484
sg476
g604
sa(dp629
S'block.thisTrialN'
p630
I0
sS'block.thisRepN'
p631
I0
sg29
NsS'block.thisN'
p632
I0
sVRule
p633
(S'ADD'
S'DECREASE'
S'THIRD'
S'DOUBLE'
S'x'
S'y'
tp634
sg27
g28
sVLength
p635
I4
sVIntermediate
p636
(I18
I6
I5
I9
tp637
sg22
I1
sg20
F2.4470232385356212
sg23
F3.7145343874726677
sVY
I4
sVX
I9
sVOperatorc
p638
Vthird
p639
sg31
g32
sg33
g34
sg21
S'9'
sg19
S'space'
p640
sg30
g11
sVResult
p641
I9
sVOperatora
p642
Vdecrease
p643
sVCorrectResponse
p644
I9
sS'block.thisIndex'
p645
I10
sVOperatorb
p646
VADD
p647
sVOperatord
p648
Vdouble
p649
sVStructure
p650
VBUUUxy
p651
sa(dp652
S'block.thisTrialN'
p653
I1
sS'block.thisRepN'
p654
I0
sg29
NsS'block.thisN'
p655
I1
sg633
(S'DIVIDE'
S'DECREASE'
S'x'
S'y'
tp656
sg27
g28
sg635
I2
sg636
(I8
I2
tp657
sg22
I1
sg20
F1.1564366283128038
sg23
F2.1049543806730071
sVY
I4
sVX
I9
sg638
I0
sg31
g32
sg33
g34
sg21
S'2'
sg19
S'space'
p658
sg30
g11
sg641
I2
sg642
g643
sg644
I2
sS'block.thisIndex'
p659
I1
sg646
VDIVIDE
p660
sg648
I0
sg650
VBUxy
p661
sa(dp662
S'block.thisTrialN'
p663
I2
sS'block.thisRepN'
p664
I0
sg29
NsS'block.thisN'
p665
I2
sg633
(S'DECREASE'
S'TRIPLE'
S'SUBTRACT'
S'DOUBLE'
S'x'
S'y'
tp666
sg27
g28
sg635
I4
sg636
(I6
I3
I9
I8
tp667
sg22
I1
sg20
F4.8337483302457258
sg23
F3.5110589822870679
sVY
I3
sVX
I3
sg638
VSUBTRACT
p668
sg31
g32
sg33
g34
sg21
S'8'
sg19
S'space'
p669
sg30
g11
sg641
I8
sg642
Vtriple
p670
sg644
I8
sS'block.thisIndex'
p671
I15
sg646
g643
sg648
g649
sg650
VUUBUxy
p672
sa(dp673
S'block.thisTrialN'
p674
I3
sS'block.thisRepN'
p675
I0
sg29
NsS'block.thisN'
p676
I3
sg633
(S'HALF'
S'INCREASE'
S'TIMES'
S'x'
S'y'
tp677
sg27
g28
sg635
I3
sg636
(I9
I10
I5
tp678
sg22
I1
sg20
F2.6599588234530529
sg23
F3.4767210356367286
sVY
I3
sVX
I3
sg638
VTIMES
p679
sg31
g32
sg33
g34
sg21
S'5'
sg19
S'space'
p680
sg30
g11
sg641
I5
sg642
Vincrease
p681
sg644
I5
sS'block.thisIndex'
p682
I9
sg646
Vhalf
p683
sg648
I0
sg650
VUUBxy
p684
sa(dp685
S'block.thisTrialN'
p686
I4
sS'block.thisRepN'
p687
I0
sg29
NsS'block.thisN'
p688
I4
sg633
(S'DECREASE'
S'ADD'
S'THIRD'
S'HALF'
S'x'
S'y'
tp689
sg27
g28
sg635
I4
sg636
(I3
I1
I7
I6
tp690
sg22
I0
sg20
F2.1781874824810075
sg23
F12.583545964560471
sVY
I6
sVX
I6
sg638
g639
sg31
g32
sg33
g34
sg21
S'8'
sg19
S'space'
p691
sg30
g11
sg641
I6
sg642
g647
sg644
I6
sS'block.thisIndex'
p692
I12
sg646
g643
sg648
g683
sg650
VUBUUxy
p693
sa(dp694
S'block.thisTrialN'
p695
I5
sS'block.thisRepN'
p696
I0
sg29
NsS'block.thisN'
p697
I5
sg633
(S'DECREASE'
S'SUBTRACT'
S'DOUBLE'
S'THIRD'
S'x'
S'y'
tp698
sg27
g28
sg635
I4
sg636
(I3
I6
I4
I3
tp699
sg22
I0
sg20
F3.0280277772108093
sg23
F5.1543868993612705
sVY
I2
sVX
I9
sg638
g649
sg31
g32
sg33
g34
sg21
S'5'
sg19
S'space'
p700
sg30
g11
sg641
I3
sg642
g668
sg644
I3
sS'block.thisIndex'
p701
I13
sg646
g643
sg648
g639
sg650
g693
sa(dp702
S'block.thisTrialN'
p703
I6
sS'block.thisRepN'
p704
I0
sg29
NsS'block.thisN'
p705
I6
sg633
(S'DECREASE'
S'DOUBLE'
S'TIMES'
S'THIRD'
S'x'
S'y'
tp706
sg27
g28
sg635
I4
sg636
(I1
I3
I6
I5
tp707
sg22
I0
sg20
F4.1644962590798968
sg23
F14.662148187329876
sVY
I3
sVX
I3
sg638
g679
sg31
g32
sg33
g34
sg21
S'9'
sg19
S'space'
p708
sg30
g11
sg641
I5
sg642
g649
sg644
I5
sS'block.thisIndex'
p709
I14
sg646
g643
sg648
g639
sg650
g672
sa(dp710
S'block.thisTrialN'
p711
I7
sS'block.thisRepN'
p712
I0
sg29
NsS'block.thisN'
p713
I7
sg633
(S'ADD'
S'TRIPLE'
S'DOUBLE'
S'DECREASE'
S'x'
S'y'
tp714
sg27
g28
sg635
I4
sg636
(I1
I2
I6
I8
tp715
sg22
I1
sg20
F8.1471927252569003
sg23
F4.3901575215131743
sVY
I2
sVX
I2
sg638
g649
sg31
g32
sg33
g34
sg21
S'8'
sg19
S'space'
p716
sg30
g11
sg641
I8
sg642
g670
sg644
I8
sS'block.thisIndex'
p717
I11
sg646
g647
sg648
g643
sg650
g651
sa(dp718
S'block.thisTrialN'
p719
I8
sS'block.thisRepN'
p720
I0
sg29
NsS'block.thisN'
p721
I8
sg633
(S'INCREASE'
S'ADD'
S'HALF'
S'x'
S'y'
tp722
sg27
g28
sg635
I3
sg636
(I1
I4
I5
tp723
sg22
I1
sg20
F5.3775837276043603
sg23
F3.36900685261935
sVY
I3
sVX
I2
sg638
g683
sg31
g32
sg33
g34
sg21
S'5'
sg19
S'space'
p724
sg30
g11
sg641
I5
sg642
g647
sg644
I5
sS'block.thisIndex'
p725
I7
sg646
g681
sg648
I0
sg650
VUBUxy
p726
sa(dp727
S'block.thisTrialN'
p728
I9
sS'block.thisRepN'
p729
I0
sg29
NsS'block.thisN'
p730
I9
sg633
(S'DOUBLE'
S'THIRD'
S'ADD'
S'x'
S'y'
tp731
sg27
g28
sg635
I3
sg636
(I9
I3
I6
tp732
sg22
I1
sg20
F1.5855211515445262
sg23
F2.2282124872872373
sVY
I4
sVX
I5
sg638
g647
sg31
g32
sg33
g34
sg21
S'6'
sg19
S'space'
p733
sg30
g11
sg641
I6
sg642
g639
sg644
I6
sS'block.thisIndex'
p734
I8
sg646
g649
sg648
I0
sg650
g684
sa(dp735
S'block.thisTrialN'
p736
I10
sS'block.thisRepN'
p737
I0
sg29
NsS'block.thisN'
p738
I10
sg633
(S'THIRD'
S'HALF'
S'INCREASE'
S'SUBTRACT'
S'x'
S'y'
tp739
sg27
g28
sg635
I4
sg636
(I5
I6
I3
I1
tp740
sg22
I1
sg20
F1.9902710492751794
sg23
F4.8860533391416539
sVY
I2
sVX
I7
sg638
g681
sg31
g32
sg33
g34
sg21
S'1'
sg19
S'space'
p741
sg30
g11
sg641
I1
sg642
g683
sg644
I1
sS'block.thisIndex'
p742
I17
sg646
g639
sg648
g668
sg650
VUUUBxy
p743
sa(dp744
S'block.thisTrialN'
p745
I11
sS'block.thisRepN'
p746
I0
sg29
NsS'block.thisN'
p747
I11
sg633
(S'ADD'
S'DOUBLE'
S'DECREASE'
S'x'
S'y'
tp748
sg27
g28
sg635
I3
sg636
(I1
I2
I7
tp749
sg22
I1
sg20
F1.9750081453676103
sg23
F2.658663963098661
sVY
I5
sVX
I2
sg638
g643
sg31
g32
sg33
g34
sg21
S'7'
sg19
S'space'
p750
sg30
g11
sg641
I7
sg642
g649
sg644
I7
sS'block.thisIndex'
p751
I4
sg646
g647
sg648
I0
sg650
VBUUxy
p752
sa(dp753
S'block.thisTrialN'
p754
I12
sS'block.thisRepN'
p755
I0
sg29
NsS'block.thisN'
p756
I12
sg633
(S'ADD'
S'DECREASE'
S'x'
S'y'
tp757
sg27
g28
sg635
I2
sg636
(I2
I7
tp758
sg22
I1
sg20
F1.8793137660104549
sg23
F1.9059094976546476
sVY
I5
sVX
I3
sg638
I0
sg31
g32
sg33
g34
sg21
S'7'
sg19
S'space'
p759
sg30
g11
sg641
I7
sg642
g643
sg644
I7
sS'block.thisIndex'
p760
I0
sg646
g647
sg648
I0
sg650
g661
sa(dp761
S'block.thisTrialN'
p762
I13
sS'block.thisRepN'
p763
I0
sg29
NsS'block.thisN'
p764
I13
sg633
(S'HALF'
S'ADD'
S'x'
S'y'
tp765
sg27
g28
sg635
I2
sg636
(I12
I6
tp766
sg22
I1
sg20
F1.2220919973769924
sg23
F1.9078829348291038
sVY
I8
sVX
I4
sg638
I0
sg31
g32
sg33
g34
sg21
S'6'
sg19
S'space'
p767
sg30
g11
sg641
I6
sg642
g647
sg644
I6
sS'block.thisIndex'
p768
I3
sg646
g683
sg648
I0
sg650
VUBxy
p769
sa(dp770
S'block.thisTrialN'
p771
I14
sS'block.thisRepN'
p772
I0
sg29
NsS'block.thisN'
p773
I14
sg633
(S'ADD'
S'TRIPLE'
S'HALF'
S'x'
S'y'
tp774
sg27
g28
sg635
I3
sg636
(I2
I6
I8
tp775
sg22
I1
sg20
F1.9412668843724532
sg23
F1.9729815139435232
sVY
I2
sVX
I4
sg638
g683
sg31
g32
sg33
g34
sg21
S'8'
sg19
S'space'
p776
sg30
g11
sg641
I8
sg642
g670
sg644
I8
sS'block.thisIndex'
p777
I5
sg646
g647
sg648
I0
sg650
g752
sa(dp778
S'block.thisTrialN'
p779
I15
sS'block.thisRepN'
p780
I0
sg29
NsS'block.thisN'
p781
I15
sg633
(S'DOUBLE'
S'SUBTRACT'
S'INCREASE'
S'x'
S'y'
tp782
sg27
g28
sg635
I3
sg636
(I4
I1
I2
tp783
sg22
I1
sg20
F2.4251530472538434
sg23
F1.7308716754923807
sVY
I3
sVX
I3
sg638
g681
sg31
g32
sg33
g34
sg21
S'2'
sg19
S'space'
p784
sg30
g11
sg641
I2
sg642
g668
sg644
I2
sS'block.thisIndex'
p785
I6
sg646
g649
sg648
I0
sg650
g726
sa(dp786
S'block.thisTrialN'
p787
I16
sS'block.thisRepN'
p788
I0
sg29
NsS'block.thisN'
p789
I16
sg633
(S'DECREASE'
S'TIMES'
S'x'
S'y'
tp790
sg27
g28
sg635
I2
sg636
(I9
I8
tp791
sg22
I1
sg20
F0.9484232625545701
sg23
F1.5566300174541539
sVY
I3
sVX
I3
sg638
I0
sg31
g32
sg33
g34
sg21
S'8'
sg19
S'space'
p792
sg30
g11
sg641
I8
sg642
g679
sg644
I8
sS'block.thisIndex'
p793
I2
sg646
g643
sg648
I0
sg650
g769
sa(dp794
S'block.thisTrialN'
p795
I17
sS'block.thisRepN'
p796
I0
sg29
NsS'block.thisN'
p797
I17
sg633
(S'INCREASE'
S'HALF'
S'THIRD'
S'TIMES'
S'x'
S'y'
tp798
sg27
g28
sg635
I4
sg636
(I12
I4
I2
I3
tp799
sg22
I1
sg20
F3.0291168597468641
sg23
F4.2625717816408724
sVY
I4
sVX
I3
sg638
g639
sg31
g32
sg33
g34
sg21
S'3'
sg19
S'space'
p800
sg30
g11
sg641
I3
sg642
g683
sg644
I3
sS'block.thisIndex'
p801
I16
sg646
g681
sg648
g679
sg650
g743
sa(dp802
S'block.thisTrialN'
p803
I0
sS'block.thisRepN'
p804
I0
sg29
NsS'block.thisN'
p805
I0
sVRule
p806
(S'TIMES'
S'THIRD'
S'HALF'
S'x'
S'y'
tp807
sg27
g28
sVLength
p808
I3
sVIntermediate
p809
(I3
I1
I5
tp810
sg22
I1
sg20
F3.8101125793618849
sg23
F3.2005920661467826
sVY
I5
sVX
I6
sVOperatorc
p811
Vhalf
p812
sg31
g32
sg33
g34
sg21
S'5'
sg19
S'space'
p813
sg30
g11
sVResult
p814
I5
sVOperatora
p815
Vthird
p816
sVCorrectResponse
p817
I5
sS'block.thisIndex'
p818
I5
sVOperatorb
p819
VTIMES
p820
sVOperatord
p821
I0
sVStructure
p822
VBUUxy
p823
sa(dp824
S'block.thisTrialN'
p825
I1
sS'block.thisRepN'
p826
I0
sg29
NsS'block.thisN'
p827
I1
sg806
(S'SUBTRACT'
S'HALF'
S'INCREASE'
S'TRIPLE'
S'x'
S'y'
tp828
sg27
g28
sg808
I4
sg809
(I15
I16
I8
I3
tp829
sg22
I1
sg20
F7.5273241780814715
sg23
F3.8619664869183907
sVY
I5
sVX
I5
sg811
Vincrease
p830
sg31
g32
sg33
g34
sg21
S'3'
sg19
S'space'
p831
sg30
g11
sg814
I3
sg815
g812
sg817
I3
sS'block.thisIndex'
p832
I10
sg819
VSUBTRACT
p833
sg821
Vtriple
p834
sg822
VBUUUxy
p835
sa(dp836
S'block.thisTrialN'
p837
I2
sS'block.thisRepN'
p838
I0
sg29
NsS'block.thisN'
p839
I2
sg806
(S'THIRD'
S'ADD'
S'INCREASE'
S'x'
S'y'
tp840
sg27
g28
sg808
I3
sg809
(I8
I15
I5
tp841
sg22
I1
sg20
F1.6536819004104473
sg23
F3.2852853819786105
sVY
I7
sVX
I7
sg811
g830
sg31
g32
sg33
g34
sg21
S'5'
sg19
S'space'
p842
sg30
g11
sg814
I5
sg815
VADD
p843
sg817
I5
sS'block.thisIndex'
p844
I6
sg819
g816
sg821
I0
sg822
VUBUxy
p845
sa(dp846
S'block.thisTrialN'
p847
I3
sS'block.thisRepN'
p848
I0
sg29
NsS'block.thisN'
p849
I3
sg806
(S'THIRD'
S'SUBTRACT'
S'x'
S'y'
tp850
sg27
g28
sg808
I2
sg809
(I3
I1
tp851
sg22
I1
sg20
F1.2087279886909528
sg23
F1.266120048952871
sVY
I2
sVX
I5
sg811
I0
sg31
g32
sg33
g34
sg21
S'1'
sg19
S'space'
p852
sg30
g11
sg814
I1
sg815
g833
sg817
I1
sS'block.thisIndex'
p853
I3
sg819
g816
sg821
I0
sg822
VUBxy
p854
sa(dp855
S'block.thisTrialN'
p856
I4
sS'block.thisRepN'
p857
I0
sg29
NsS'block.thisN'
p858
I4
sg806
(S'TRIPLE'
S'DECREASE'
S'HALF'
S'TIMES'
S'x'
S'y'
tp859
sg27
g28
sg808
I4
sg809
(I6
I3
I2
I6
tp860
sg22
I1
sg20
F4.5623886463727104
sg23
F5.2675209478766192
sVY
I2
sVX
I3
sg811
g812
sg31
g32
sg33
g34
sg21
S'6'
sg19
S'space'
p861
sg30
g11
sg814
I6
sg815
Vdecrease
p862
sg817
I6
sS'block.thisIndex'
p863
I17
sg819
g834
sg821
g820
sg822
VUUUBxy
p864
sa(dp865
S'block.thisTrialN'
p866
I5
sS'block.thisRepN'
p867
I0
sg29
NsS'block.thisN'
p868
I5
sg806
(S'THIRD'
S'ADD'
S'x'
S'y'
tp869
sg27
g28
sg808
I2
sg809
(I9
I3
tp870
sg22
I1
sg20
F0.83662152037140913
sg23
F3.3017910018534167
sVY
I5
sVX
I4
sg811
I0
sg31
g32
sg33
g34
sg21
S'3'
sg19
S'space'
p871
sg30
g11
sg814
I3
sg815
g843
sg817
I3
sS'block.thisIndex'
p872
I2
sg819
g816
sg821
I0
sg822
g854
sa(dp873
S'block.thisTrialN'
p874
I6
sS'block.thisRepN'
p875
I0
sg29
NsS'block.thisN'
p876
I6
sg806
(S'TRIPLE'
S'HALF'
S'DIVIDE'
S'x'
S'y'
tp877
sg27
g28
sg808
I3
sg809
(I2
I1
I3
tp878
sg22
I1
sg20
F1.5886099184281193
sg23
F4.2924337110307533
sVY
I2
sVX
I4
sg811
VDIVIDE
p879
sg31
g32
sg33
g34
sg21
S'3'
sg19
S'space'
p880
sg30
g11
sg814
I3
sg815
g812
sg817
I3
sS'block.thisIndex'
p881
I9
sg819
g834
sg821
I0
sg822
VUUBxy
p882
sa(dp883
S'block.thisTrialN'
p884
I7
sS'block.thisRepN'
p885
I0
sg29
NsS'block.thisN'
p886
I7
sg806
(S'TIMES'
S'DECREASE'
S'x'
S'y'
tp887
sg27
g28
sg808
I2
sg809
(I2
I4
tp888
sg22
I1
sg20
F2.2412107854179339
sg23
F3.0296078567916993
sVY
I2
sVX
I3
sg811
I0
sg31
g32
sg33
g34
sg21
S'4'
sg19
S'space'
p889
sg30
g11
sg814
I4
sg815
g862
sg817
I4
sS'block.thisIndex'
p890
I0
sg819
g820
sg821
I0
sg822
VBUxy
p891
sa(dp892
S'block.thisTrialN'
p893
I8
sS'block.thisRepN'
p894
I0
sg29
NsS'block.thisN'
p895
I8
sg806
(S'TIMES'
S'DECREASE'
S'HALF'
S'x'
S'y'
tp896
sg27
g28
sg808
I3
sg809
(I4
I3
I9
tp897
sg22
I1
sg20
F2.562484886002494
sg23
F3.8917664729815442
sVY
I3
sVX
I8
sg811
g812
sg31
g32
sg33
g34
sg21
S'9'
sg19
S'space'
p898
sg30
g11
sg814
I9
sg815
g862
sg817
I9
sS'block.thisIndex'
p899
I4
sg819
g820
sg821
I0
sg822
g823
sa(dp900
S'block.thisTrialN'
p901
I9
sS'block.thisRepN'
p902
I0
sg29
NsS'block.thisN'
p903
I9
sg806
(S'TRIPLE'
S'SUBTRACT'
S'DOUBLE'
S'DECREASE'
S'x'
S'y'
tp904
sg27
g28
sg808
I4
sg809
(I2
I4
I1
I3
tp905
sg22
I1
sg20
F6.4579326119710458
sg23
F3.9900446236861171
sVY
I3
sVX
I3
sg811
Vdouble
p906
sg31
g32
sg33
g34
sg21
S'3'
sg19
S'space'
p907
sg30
g11
sg814
I3
sg815
g833
sg817
I3
sS'block.thisIndex'
p908
I13
sg819
g834
sg821
g862
sg822
VUBUUxy
p909
sa(dp910
S'block.thisTrialN'
p911
I10
sS'block.thisRepN'
p912
I0
sg29
NsS'block.thisN'
p913
I10
sg806
(S'TIMES'
S'INCREASE'
S'x'
S'y'
tp914
sg27
g28
sg808
I2
sg809
(I3
I6
tp915
sg22
I1
sg20
F1.3454785401409026
sg23
F1.5892073039867682
sVY
I2
sVX
I2
sg811
I0
sg31
g32
sg33
g34
sg21
S'6'
sg19
S'space'
p916
sg30
g11
sg814
I6
sg815
g830
sg817
I6
sS'block.thisIndex'
p917
I1
sg819
g820
sg821
I0
sg822
g891
sa(dp918
S'block.thisTrialN'
p919
I11
sS'block.thisRepN'
p920
I0
sg29
NsS'block.thisN'
p921
I11
sg806
(S'THIRD'
S'TIMES'
S'DECREASE'
S'x'
S'y'
tp922
sg27
g28
sg808
I3
sg809
(I3
I15
I5
tp923
sg22
I1
sg20
F1.9087126953381812
sg23
F3.9090518087614328
sVY
I5
sVX
I4
sg811
g862
sg31
g32
sg33
g34
sg21
S'5'
sg19
S'space'
p924
sg30
g11
sg814
I5
sg815
g820
sg817
I5
sS'block.thisIndex'
p925
I7
sg819
g816
sg821
I0
sg822
g845
sa(dp926
S'block.thisTrialN'
p927
I12
sS'block.thisRepN'
p928
I0
sg29
NsS'block.thisN'
p929
I12
sg806
(S'THIRD'
S'INCREASE'
S'HALF'
S'DIVIDE'
S'x'
S'y'
tp930
sg27
g28
sg808
I4
sg809
(I4
I2
I3
I1
tp931
sg22
I1
sg20
F9.2504151427274337
sg23
F4.3093809832644183
sVY
I2
sVX
I8
sg811
g812
sg31
g32
sg33
g34
sg21
S'1'
sg19
S'space'
p932
sg30
g11
sg814
I1
sg815
g830
sg817
I1
sS'block.thisIndex'
p933
I16
sg819
g816
sg821
g879
sg822
g864
sa(dp934
S'block.thisTrialN'
p935
I13
sS'block.thisRepN'
p936
I0
sg29
NsS'block.thisN'
p937
I13
sg806
(S'THIRD'
S'DECREASE'
S'TIMES'
S'x'
S'y'
tp938
sg27
g28
sg808
I3
sg809
(I25
I24
I8
tp939
sg22
I1
sg20
F2.4190798022318631
sg23
F5.557367387926206
sVY
I5
sVX
I5
sg811
g820
sg31
g32
sg33
g34
sg21
S'8'
sg19
S'space'
p940
sg30
g11
sg814
I8
sg815
g862
sg817
I8
sS'block.thisIndex'
p941
I8
sg819
g816
sg821
I0
sg822
g882
sa(dp942
S'block.thisTrialN'
p943
I14
sS'block.thisRepN'
p944
I0
sg29
NsS'block.thisN'
p945
I14
sg806
(S'INCREASE'
S'DIVIDE'
S'TRIPLE'
S'DOUBLE'
S'x'
S'y'
tp946
sg27
g28
sg808
I4
sg809
(I6
I18
I3
I4
tp947
sg22
I0
sg20
F4.6917651431285776
sg23
F6.3879324614827055
sVY
I6
sVX
I3
sg811
g834
sg31
g32
sg33
g34
sg21
S'2'
sg19
S'space'
p948
sg30
g11
sg814
I4
sg815
g879
sg817
I4
sS'block.thisIndex'
p949
I12
sg819
g830
sg821
g906
sg822
g909
sa(dp950
S'block.thisTrialN'
p951
I15
sS'block.thisRepN'
p952
I0
sg29
NsS'block.thisN'
p953
I15
sg806
(S'THIRD'
S'DOUBLE'
S'ADD'
S'INCREASE'
S'x'
S'y'
tp954
sg27
g28
sg808
I4
sg809
(I10
I12
I24
I8
tp955
sg22
I1
sg20
F4.8340660959802335
sg23
F6.1929716380109312
sVY
I2
sVX
I9
sg811
g843
sg31
g32
sg33
g34
sg21
S'8'
sg19
S'space'
p956
sg30
g11
sg814
I8
sg815
g906
sg817
I8
sS'block.thisIndex'
p957
I14
sg819
g816
sg821
g830
sg822
VUUBUxy
p958
sa(dp959
S'block.thisTrialN'
p960
I16
sS'block.thisRepN'
p961
I0
sg29
NsS'block.thisN'
p962
I16
sg806
(S'TRIPLE'
S'HALF'
S'ADD'
S'DECREASE'
S'x'
S'y'
tp963
sg27
g28
sg808
I4
sg809
(I1
I4
I2
I6
tp964
sg22
I1
sg20
F2.5835592631337931
sg23
F5.3034897186444141
sVY
I3
sVX
I2
sg811
g843
sg31
g32
sg33
g34
sg21
S'6'
sg19
S'space'
p965
sg30
g11
sg814
I6
sg815
g812
sg817
I6
sS'block.thisIndex'
p966
I15
sg819
g834
sg821
g862
sg822
g958
sa(dp967
S'block.thisTrialN'
p968
I17
sS'block.thisRepN'
p969
I0
sg29
NsS'block.thisN'
p970
I17
sg806
(S'TIMES'
S'INCREASE'
S'THIRD'
S'DOUBLE'
S'x'
S'y'
tp971
sg27
g28
sg808
I4
sg809
(I6
I2
I3
I9
tp972
sg22
I1
sg20
F5.2986903362470912
sg23
F6.08666990265192
sVY
I3
sVX
I3
sg811
g816
sg31
g32
sg33
g34
sg21
S'9'
sg19
S'space'
p973
sg30
g11
sg814
I9
sg815
g830
sg817
I9
sS'block.thisIndex'
p974
I11
sg819
g820
sg821
g906
sg822
g835
sa(dp975
S'block.thisTrialN'
p976
I0
sS'block.thisRepN'
p977
I0
sg29
NsS'block.thisN'
p978
I0
sVRule
p979
(S'DECREASE'
S'HALF'
S'TRIPLE'
S'DIVIDE'
S'x'
S'y'
tp980
sg27
g28
sVLength
p981
I4
sVIntermediate
p982
(I4
I12
I6
I5
tp983
sg22
I1
sg20
F5.2180908789014211
sg23
F3.0593997937248787
sVY
I2
sVX
I8
sVOperatorc
p984
Vtriple
p985
sg31
g32
sg33
g34
sg21
S'5'
sg19
S'space'
p986
sg30
g11
sVResult
p987
I5
sVOperatora
p988
Vhalf
p989
sVCorrectResponse
p990
I5
sS'block.thisIndex'
p991
I16
sVOperatorb
p992
Vdecrease
p993
sVOperatord
p994
VDIVIDE
p995
sVStructure
p996
VUUUBxy
p997
sa(dp998
S'block.thisTrialN'
p999
I1
sS'block.thisRepN'
p1000
I0
sg29
NsS'block.thisN'
p1001
I1
sg979
(S'DIVIDE'
S'INCREASE'
S'DOUBLE'
S'THIRD'
S'x'
S'y'
tp1002
sg27
g28
sg981
I4
sg982
(I2
I4
I5
I1
tp1003
sg22
I1
sg20
F6.2620051927369786
sg23
F5.4115874602866825
sVY
I5
sVX
I6
sg984
Vdouble
p1004
sg31
g32
sg33
g34
sg21
S'1'
sg19
S'space'
p1005
sg30
g11
sg987
I1
sg988
Vincrease
p1006
sg990
I1
sS'block.thisIndex'
p1007
I11
sg992
g995
sg994
Vthird
p1008
sg996
VBUUUxy
p1009
sa(dp1010
S'block.thisTrialN'
p1011
I2
sS'block.thisRepN'
p1012
I0
sg29
NsS'block.thisN'
p1013
I2
sg979
(S'DECREASE'
S'ADD'
S'DOUBLE'
S'THIRD'
S'x'
S'y'
tp1014
sg27
g28
sg981
I4
sg982
(I3
I6
I10
I9
tp1015
sg22
I1
sg20
F2.1776653387933038
sg23
F4.968910053052241
sVY
I4
sVX
I9
sg984
g1004
sg31
g32
sg33
g34
sg21
S'9'
sg19
S'space'
p1016
sg30
g11
sg987
I9
sg988
VADD
p1017
sg990
I9
sS'block.thisIndex'
p1018
I12
sg992
Vdecrease 
p1019
sg994
g1008
sg996
VUBUUxy
p1020
sa(dp1021
S'block.thisTrialN'
p1022
I3
sS'block.thisRepN'
p1023
I0
sg29
NsS'block.thisN'
p1024
I3
sg979
(S'DOUBLE'
S'TRIPLE'
S'SUBTRACT'
S'x'
S'y'
tp1025
sg27
g28
sg981
I3
sg982
(I1
I3
I6
tp1026
sg22
I1
sg20
F2.738913458189927
sg23
F2.1354402927681804
sVY
I3
sVX
I4
sg984
VSUBTRACT
p1027
sg31
g32
sg33
g34
sg21
S'6'
sg19
S'space'
p1028
sg30
g11
sg987
I6
sg988
g985
sg990
I6
sS'block.thisIndex'
p1029
I9
sg992
g1004
sg994
I0
sg996
VUUBxy
p1030
sa(dp1031
S'block.thisTrialN'
p1032
I4
sS'block.thisRepN'
p1033
I0
sg29
NsS'block.thisN'
p1034
I4
sg979
(S'DOUBLE'
S'SUBTRACT'
S'x'
S'y'
tp1035
sg27
g28
sg981
I2
sg982
(I1
I2
tp1036
sg22
I1
sg20
F1.0300946542847669
sg23
F1.1219733951584203
sVY
I7
sVX
I8
sg984
I0
sg31
g32
sg33
g34
sg21
S'2'
sg19
S'space'
p1037
sg30
g11
sg987
I2
sg988
g1027
sg990
I2
sS'block.thisIndex'
p1038
I2
sg992
g1004
sg994
I0
sg996
VUBxy
p1039
sa(dp1040
S'block.thisTrialN'
p1041
I5
sS'block.thisRepN'
p1042
I0
sg29
NsS'block.thisN'
p1043
I5
sg979
(S'DECREASE'
S'TIMES'
S'DOUBLE'
S'THIRD'
S'x'
S'y'
tp1044
sg27
g28
sg981
I4
sg982
(I1
I2
I8
I7
tp1045
sg22
I1
sg20
F2.8342151799006388
sg23
F5.7198062188981567
sVY
I4
sVX
I3
sg984
g1004
sg31
g32
sg33
g34
sg21
S'7'
sg19
S'space'
p1046
sg30
g11
sg987
I7
sg988
VTIMES
p1047
sg990
I7
sS'block.thisIndex'
p1048
I13
sg992
g993
sg994
g1008
sg996
g1020
sa(dp1049
S'block.thisTrialN'
p1050
I6
sS'block.thisRepN'
p1051
I0
sg29
NsS'block.thisN'
p1052
I6
sg979
(S'SUBTRACT'
S'HALF'
S'TRIPLE'
S'x'
S'y'
tp1053
sg27
g28
sg981
I3
sg982
(I12
I6
I2
tp1054
sg22
I1
sg20
F1.346008382999571
sg23
F2.6266340175207006
sVY
I4
sVX
I4
sg984
g985
sg31
g32
sg33
g34
sg21
S'2'
sg19
S'space'
p1055
sg30
g11
sg987
I2
sg988
g989
sg990
I2
sS'block.thisIndex'
p1056
I5
sg992
g1027
sg994
I0
sg996
VBUUxy
p1057
sa(dp1058
S'block.thisTrialN'
p1059
I7
sS'block.thisRepN'
p1060
I0
sg29
NsS'block.thisN'
p1061
I7
sg979
(S'HALF'
S'SUBTRACT'
S'TRIPLE'
S'x'
S'y'
tp1062
sg27
g28
sg981
I3
sg982
(I9
I2
I1
tp1063
sg22
I1
sg20
F1.4949040245992364
sg23
F2.0221025662467582
sVY
I7
sVX
I3
sg984
g985
sg31
g32
sg33
g34
sg21
S'1'
sg19
S'space'
p1064
sg30
g11
sg987
I1
sg988
g1027
sg990
I1
sS'block.thisIndex'
p1065
I6
sg992
g989
sg994
I0
sg996
VUBUxy
p1066
sa(dp1067
S'block.thisTrialN'
p1068
I8
sS'block.thisRepN'
p1069
I0
sg29
NsS'block.thisN'
p1070
I8
sg979
(S'DIVIDE'
S'DOUBLE'
S'THIRD'
S'x'
S'y'
tp1071
sg27
g28
sg981
I3
sg982
(I2
I4
I1
tp1072
sg22
I1
sg20
F2.2295636915514478
sg23
F2.9022191456751898
sVY
I4
sVX
I6
sg984
g1008
sg31
g32
sg33
g34
sg21
S'1'
sg19
S'space'
p1073
sg30
g11
sg987
I1
sg988
g1004
sg990
I1
sS'block.thisIndex'
p1074
I4
sg992
g995
sg994
I0
sg996
g1057
sa(dp1075
S'block.thisTrialN'
p1076
I9
sS'block.thisRepN'
p1077
I0
sg29
NsS'block.thisN'
p1078
I9
sg979
(S'ADD'
S'DOUBLE'
S'x'
S'y'
tp1079
sg27
g28
sg981
I2
sg982
(I4
I8
tp1080
sg22
I1
sg20
F2.5038081142993178
sg23
F1.9586617583263433
sVY
I4
sVX
I2
sg984
I0
sg31
g32
sg33
g34
sg21
S'8'
sg19
S'space'
p1081
sg30
g11
sg987
I8
sg988
g1004
sg990
I8
sS'block.thisIndex'
p1082
I0
sg992
g1017
sg994
I0
sg996
VBUxy
p1083
sa(dp1084
S'block.thisTrialN'
p1085
I10
sS'block.thisRepN'
p1086
I0
sg29
NsS'block.thisN'
p1087
I10
sg979
(S'DECREASE'
S'THIRD'
S'TIMES'
S'HALF'
S'x'
S'y'
tp1088
sg27
g28
sg981
I4
sg982
(I2
I12
I4
I3
tp1089
sg22
I1
sg20
F5.5541088893514825
sg23
F7.3171893411345081
sVY
I6
sVX
I4
sg984
g1047
sg31
g32
sg33
g34
sg21
S'3'
sg19
S'space'
p1090
sg30
g11
sg987
I3
sg988
g1008
sg990
I3
sS'block.thisIndex'
p1091
I14
sg992
g993
sg994
g989
sg996
VUUBUxy
p1092
sa(dp1093
S'block.thisTrialN'
p1094
I11
sS'block.thisRepN'
p1095
I0
sg29
NsS'block.thisN'
p1096
I11
sg979
(S'DIVIDE'
S'DOUBLE'
S'x'
S'y'
tp1097
sg27
g28
sg981
I2
sg982
(I12
I2
tp1098
sg22
I1
sg20
F1.093063013147912
sg23
F2.0214565359055996
sVY
I6
sVX
I6
sg984
I0
sg31
g32
sg33
g34
sg21
S'2'
sg19
S'space'
p1099
sg30
g11
sg987
I2
sg988
g1004
sg990
I2
sS'block.thisIndex'
p1100
I1
sg992
g995
sg994
I0
sg996
g1083
sa(dp1101
S'block.thisTrialN'
p1102
I12
sS'block.thisRepN'
p1103
I0
sg29
NsS'block.thisN'
p1104
I12
sg979
(S'INCREASE'
S'DIVIDE'
S'THIRD'
S'x'
S'y'
tp1105
sg27
g28
sg981
I3
sg982
(I3
I1
I2
tp1106
sg22
I1
sg20
F4.2321684606285999
sg23
F3.7969288012391189
sVY
I3
sVX
I9
sg984
g1008
sg31
g32
sg33
g34
sg21
S'2'
sg19
S'space'
p1107
sg30
g11
sg987
I2
sg988
g995
sg990
I2
sS'block.thisIndex'
p1108
I7
sg992
g1006
sg994
I0
sg996
g1066
sa(dp1109
S'block.thisTrialN'
p1110
I13
sS'block.thisRepN'
p1111
I0
sg29
NsS'block.thisN'
p1112
I13
sg979
(S'DOUBLE'
S'DECREASE'
S'SUBTRACT'
S'x'
S'y'
tp1113
sg27
g28
sg981
I3
sg982
(I5
I4
I8
tp1114
sg22
I1
sg20
F1.7995906141586602
sg23
F5.1192345905583352
sVY
I2
sVX
I7
sg984
g1027
sg31
g32
sg33
g34
sg21
S'8'
sg19
S'space'
p1115
sg30
g11
sg987
I8
sg988
g993
sg990
I8
sS'block.thisIndex'
p1116
I8
sg992
g1004
sg994
I0
sg996
g1030
sa(dp1117
S'block.thisTrialN'
p1118
I14
sS'block.thisRepN'
p1119
I0
sg29
NsS'block.thisN'
p1120
I14
sg979
(S'ADD'
S'THIRD'
S'INCREASE'
S'HALF'
S'x'
S'y'
tp1121
sg27
g28
sg981
I4
sg982
(I2
I3
I1
I7
tp1122
sg22
I1
sg20
F5.7814762177877128
sg23
F3.2057158635434462
sVY
I6
sVX
I4
sg984
g1006
sg31
g32
sg33
g34
sg21
S'7'
sg19
S'space'
p1123
sg30
g11
sg987
I7
sg988
g1008
sg990
I7
sS'block.thisIndex'
p1124
I10
sg992
g1017
sg994
g989
sg996
g1009
sa(dp1125
S'block.thisTrialN'
p1126
I15
sS'block.thisRepN'
p1127
I0
sg29
NsS'block.thisN'
p1128
I15
sg979
(S'DOUBLE'
S'TRIPLE'
S'DIVIDE'
S'DECREASE'
S'x'
S'y'
tp1129
sg27
g28
sg981
I4
sg982
(I8
I1
I3
I6
tp1130
sg22
I1
sg20
F5.1741828643862391
sg23
F3.9401596037787385
sVY
I8
sVX
I9
sg984
g995
sg31
g32
sg33
g34
sg21
S'6'
sg19
S'space'
p1131
sg30
g11
sg987
I6
sg988
g985
sg990
I6
sS'block.thisIndex'
p1132
I15
sg992
g1004
sg994
g993
sg996
g1092
sa(dp1133
S'block.thisTrialN'
p1134
I16
sS'block.thisRepN'
p1135
I0
sg29
NsS'block.thisN'
p1136
I16
sg979
(S'DOUBLE'
S'DECREASE'
S'TRIPLE'
S'DIVIDE'
S'x'
S'y'
tp1137
sg27
g28
sg981
I4
sg982
(I1
I3
I2
I4
tp1138
sg22
I1
sg20
F4.9835279765102314
sg23
F4.1010120558494236
sVY
I4
sVX
I4
sg984
g985
sg31
g32
sg33
g34
sg21
S'4'
sg19
S'space'
p1139
sg30
g11
sg987
I4
sg988
g993
sg990
I4
sS'block.thisIndex'
p1140
I17
sg992
g1004
sg994
g995
sg996
g997
sa(dp1141
S'block.thisTrialN'
p1142
I17
sS'block.thisRepN'
p1143
I0
sg29
NsS'block.thisN'
p1144
I17
sg979
(S'HALF'
S'TIMES'
S'x'
S'y'
tp1145
sg27
g28
sg981
I2
sg982
(I16
I8
tp1146
sg22
I1
sg20
F1.0145983255642932
sg23
F2.0860620182065759
sVY
I4
sVX
I4
sg984
I0
sg31
g32
sg33
g34
sg21
S'8'
sg19
S'space'
p1147
sg30
g11
sg987
I8
sg988
g1047
sg990
I8
sS'block.thisIndex'
p1148
I3
sg992
g989
sg994
I0
sg996
g1039
sa(dp1149
S'block.thisTrialN'
p1150
I0
sS'block.thisRepN'
p1151
I0
sg29
NsS'block.thisN'
p1152
I0
sVRule
p1153
(S'SUBTRACT'
S'TRIPLE'
S'DECREASE'
S'x'
S'y'
tp1154
sg27
g28
sVLength
p1155
I3
sVIntermediate
p1156
(I4
I12
I3
tp1157
sg22
I1
sg20
F4.4816135079890955
sg23
F3.5382601486344356
sVY
I9
sVX
I5
sVOperatorc
p1158
Vdecrease
p1159
sg31
g32
sg33
g34
sg21
S'3'
sg19
S'space'
p1160
sg30
g11
sVResult
p1161
I3
sVOperatora
p1162
Vtriple
p1163
sVCorrectResponse
p1164
I3
sS'block.thisIndex'
p1165
I4
sVOperatorb
p1166
VSUBTRACT
p1167
sVOperatord
p1168
I0
sVStructure
p1169
VBUUxy
p1170
sa(dp1171
S'block.thisTrialN'
p1172
I1
sS'block.thisRepN'
p1173
I0
sg29
NsS'block.thisN'
p1174
I1
sg1153
(S'DIVIDE'
S'THIRD'
S'x'
S'y'
tp1175
sg27
g28
sg1155
I2
sg1156
(I3
I1
tp1176
sg22
I1
sg20
F5.1384366696001962
sg23
F1.3997587360208854
sVY
I3
sVX
I9
sg1158
I0
sg31
g32
sg33
g34
sg21
S'1'
sg19
S'space'
p1177
sg30
g11
sg1161
I1
sg1162
Vthird
p1178
sg1164
I1
sS'block.thisIndex'
p1179
I0
sg1166
VDIVIDE
p1180
sg1168
I0
sg1169
VBUxy
p1181
sa(dp1182
S'block.thisTrialN'
p1183
I2
sS'block.thisRepN'
p1184
I0
sg29
NsS'block.thisN'
p1185
I2
sg1153
(S'THIRD'
S'DECREASE'
S'TIMES'
S'HALF'
S'x'
S'y'
tp1186
sg27
g28
sg1155
I4
sg1156
(I4
I16
I15
I5
tp1187
sg22
I1
sg20
F5.8254108294495381
sg23
F5.094161544679082
sVY
I4
sVX
I8
sg1158
VTIMES
p1188
sg31
g32
sg33
g34
sg21
S'5'
sg19
S'space'
p1189
sg30
g11
sg1161
I5
sg1162
g1159
sg1164
I5
sS'block.thisIndex'
p1190
I15
sg1166
g1178
sg1168
Vhalf
p1191
sg1169
VUUBUxy
p1192
sa(dp1193
S'block.thisTrialN'
p1194
I3
sS'block.thisRepN'
p1195
I0
sg29
NsS'block.thisN'
p1196
I3
sg1153
(S'DOUBLE'
S'DIVIDE'
S'TRIPLE'
S'INCREASE'
S'x'
S'y'
tp1197
sg27
g28
sg1155
I4
sg1156
(I5
I15
I3
I6
tp1198
sg22
I1
sg20
F6.1686209142353619
sg23
F4.6416491481359117
sVY
I5
sVX
I4
sg1158
g1163
sg31
g32
sg33
g34
sg21
S'6'
sg19
S'space'
p1199
sg30
g11
sg1161
I6
sg1162
g1180
sg1164
I6
sS'block.thisIndex'
p1200
I12
sg1166
Vdouble
p1201
sg1168
Vincrease
p1202
sg1169
VUBUUxy
p1203
sa(dp1204
S'block.thisTrialN'
p1205
I4
sS'block.thisRepN'
p1206
I0
sg29
NsS'block.thisN'
p1207
I4
sg1153
(S'DOUBLE'
S'THIRD'
S'TIMES'
S'x'
S'y'
tp1208
sg27
g28
sg1155
I3
sg1156
(I12
I4
I8
tp1209
sg22
I1
sg20
F2.1959071214223513
sg23
F2.8068019364145584
sVY
I6
sVX
I2
sg1158
g1188
sg31
g32
sg33
g34
sg21
S'8'
sg19
S'space'
p1210
sg30
g11
sg1161
I8
sg1162
g1178
sg1164
I8
sS'block.thisIndex'
p1211
I9
sg1166
g1201
sg1168
I0
sg1169
VUUBxy
p1212
sa(dp1213
S'block.thisTrialN'
p1214
I5
sS'block.thisRepN'
p1215
I0
sg29
NsS'block.thisN'
p1216
I5
sg1153
(S'DECREASE'
S'TRIPLE'
S'DIVIDE'
S'DOUBLE'
S'x'
S'y'
tp1217
sg27
g28
sg1155
I4
sg1156
(I6
I2
I6
I5
tp1218
sg22
I1
sg20
F7.2158294227992883
sg23
F3.4762324883340625
sVY
I3
sVX
I3
sg1158
g1180
sg31
g32
sg33
g34
sg21
S'5'
sg19
S'space'
p1219
sg30
g11
sg1161
I5
sg1162
g1163
sg1164
I5
sS'block.thisIndex'
p1220
I14
sg1166
g1159
sg1168
g1201
sg1169
g1192
sa(dp1221
S'block.thisTrialN'
p1222
I6
sS'block.thisRepN'
p1223
I0
sg29
NsS'block.thisN'
p1224
I6
sg1153
(S'INCREASE'
S'SUBTRACT'
S'x'
S'y'
tp1225
sg27
g28
sg1155
I2
sg1156
(I3
I4
tp1226
sg22
I1
sg20
F1.0254667534027249
sg23
F1.5081525457499083
sVY
I3
sVX
I6
sg1158
I0
sg31
g32
sg33
g34
sg21
S'4'
sg19
S'space'
p1227
sg30
g11
sg1161
I4
sg1162
g1167
sg1164
I4
sS'block.thisIndex'
p1228
I2
sg1166
g1202
sg1168
I0
sg1169
VUBxy
p1229
sa(dp1230
S'block.thisTrialN'
p1231
I7
sS'block.thisRepN'
p1232
I0
sg29
NsS'block.thisN'
p1233
I7
sg1153
(S'THIRD'
S'DIVIDE'
S'x'
S'y'
tp1234
sg27
g28
sg1155
I2
sg1156
(I3
I1
tp1235
sg22
I1
sg20
F1.0487675904150819
sg23
F1.126730432122713
sVY
I2
sVX
I6
sg1158
I0
sg31
g32
sg33
g34
sg21
S'1'
sg19
S'space'
p1236
sg30
g11
sg1161
I1
sg1162
g1180
sg1164
I1
sS'block.thisIndex'
p1237
I3
sg1166
g1178
sg1168
I0
sg1169
g1229
sa(dp1238
S'block.thisTrialN'
p1239
I8
sS'block.thisRepN'
p1240
I0
sg29
NsS'block.thisN'
p1241
I8
sg1153
(S'DECREASE'
S'TRIPLE'
S'HALF'
S'SUBTRACT'
S'x'
S'y'
tp1242
sg27
g28
sg1155
I4
sg1156
(I4
I2
I6
I5
tp1243
sg22
I1
sg20
F5.1076784868782852
sg23
F4.471533545103739
sVY
I2
sVX
I6
sg1158
g1191
sg31
g32
sg33
g34
sg21
S'5'
sg19
S'space'
p1244
sg30
g11
sg1161
I5
sg1162
g1163
sg1164
I5
sS'block.thisIndex'
p1245
I16
sg1166
g1159
sg1168
g1167
sg1169
VUUUBxy
p1246
sa(dp1247
S'block.thisTrialN'
p1248
I9
sS'block.thisRepN'
p1249
I0
sg29
NsS'block.thisN'
p1250
I9
sg1153
(S'THIRD'
S'TIMES'
S'HALF'
S'x'
S'y'
tp1251
sg27
g28
sg1155
I3
sg1156
(I3
I18
I6
tp1252
sg22
I1
sg20
F6.3876717395905871
sg23
F4.3269739358656807
sVY
I6
sVX
I6
sg1158
g1191
sg31
g32
sg33
g34
sg21
S'6'
sg19
S'space'
p1253
sg30
g11
sg1161
I6
sg1162
g1188
sg1164
I6
sS'block.thisIndex'
p1254
I7
sg1166
g1178
sg1168
I0
sg1169
VUBUxy
p1255
sa(dp1256
S'block.thisTrialN'
p1257
I10
sS'block.thisRepN'
p1258
I0
sg29
NsS'block.thisN'
p1259
I10
sg1153
(S'THIRD'
S'DIVIDE'
S'DECREASE'
S'x'
S'y'
tp1260
sg27
g28
sg1155
I3
sg1156
(I6
I3
I1
tp1261
sg22
I1
sg20
F1.347630458054482
sg23
F2.195112707093358
sVY
I2
sVX
I7
sg1158
g1159
sg31
g32
sg33
g34
sg21
S'1'
sg19
S'space'
p1262
sg30
g11
sg1161
I1
sg1162
g1180
sg1164
I1
sS'block.thisIndex'
p1263
I6
sg1166
g1178
sg1168
I0
sg1169
g1255
sa(dp1264
S'block.thisTrialN'
p1265
I11
sS'block.thisRepN'
p1266
I0
sg29
NsS'block.thisN'
p1267
I11
sg1153
(S'HALF'
S'TRIPLE'
S'INCREASE'
S'SUBTRACT'
S'x'
S'y'
tp1268
sg27
g28
sg1155
I4
sg1156
(I1
I2
I6
I3
tp1269
sg22
I1
sg20
F4.6766331251128577
sg23
F5.5412719238229329
sVY
I2
sVX
I3
sg1158
g1202
sg31
g32
sg33
g34
sg21
S'3'
sg19
S'space'
p1270
sg30
g11
sg1161
I3
sg1162
g1163
sg1164
I3
sS'block.thisIndex'
p1271
I17
sg1166
g1191
sg1168
g1167
sg1169
g1246
sa(dp1272
S'block.thisTrialN'
p1273
I12
sS'block.thisRepN'
p1274
I0
sg29
NsS'block.thisN'
p1275
I12
sg1153
(S'DOUBLE'
S'DECREASE'
S'ADD'
S'x'
S'y'
tp1276
sg27
g28
sg1155
I3
sg1156
(I4
I3
I6
tp1277
sg22
I1
sg20
F1.0627317843755009
sg23
F2.7429880687268451
sVY
I2
sVX
I2
sg1158
VADD
p1278
sg31
g32
sg33
g34
sg21
S'6'
sg19
S'space'
p1279
sg30
g11
sg1161
I6
sg1162
g1159
sg1164
I6
sS'block.thisIndex'
p1280
I8
sg1166
g1201
sg1168
I0
sg1169
g1212
sa(dp1281
S'block.thisTrialN'
p1282
I13
sS'block.thisRepN'
p1283
I0
sg29
NsS'block.thisN'
p1284
I13
sg1153
(S'INCREASE'
S'ADD'
S'HALF'
S'TRIPLE'
S'x'
S'y'
tp1285
sg27
g28
sg1155
I4
sg1156
(I6
I3
I6
I7
tp1286
sg22
I1
sg20
F3.1693257382139564
sg23
F3.5086113462748472
sVY
I3
sVX
I2
sg1158
g1191
sg31
g32
sg33
g34
sg21
S'7'
sg19
S'space'
p1287
sg30
g11
sg1161
I7
sg1162
g1278
sg1164
I7
sS'block.thisIndex'
p1288
I13
sg1166
g1202
sg1168
g1163
sg1169
g1203
sa(dp1289
S'block.thisTrialN'
p1290
I14
sS'block.thisRepN'
p1291
I0
sg29
NsS'block.thisN'
p1292
I14
sg1153
(S'SUBTRACT'
S'TRIPLE'
S'DECREASE'
S'DOUBLE'
S'x'
S'y'
tp1293
sg27
g28
sg1155
I4
sg1156
(I4
I3
I9
I1
tp1294
sg22
I1
sg20
F4.4351682670967421
sg23
F2.1045501742628403
sVY
I8
sVX
I2
sg1158
g1159
sg31
g32
sg33
g34
sg21
S'1'
sg19
S'space'
p1295
sg30
g11
sg1161
I1
sg1162
g1163
sg1164
I1
sS'block.thisIndex'
p1296
I11
sg1166
g1167
sg1168
g1201
sg1169
VBUUUxy
p1297
sa(dp1298
S'block.thisTrialN'
p1299
I15
sS'block.thisRepN'
p1300
I0
sg29
NsS'block.thisN'
p1301
I15
sg1153
(S'TIMES'
S'DOUBLE'
S'x'
S'y'
tp1302
sg27
g28
sg1155
I2
sg1156
(I4
I8
tp1303
sg22
I1
sg20
F1.2003516420809319
sg23
F2.3724725288338959
sVY
I2
sVX
I2
sg1158
I0
sg31
g32
sg33
g34
sg21
S'8'
sg19
S'space'
p1304
sg30
g11
sg1161
I8
sg1162
g1201
sg1164
I8
sS'block.thisIndex'
p1305
I1
sg1166
g1188
sg1168
I0
sg1169
g1181
sa(dp1306
S'block.thisTrialN'
p1307
I16
sS'block.thisRepN'
p1308
I0
sg29
NsS'block.thisN'
p1309
I16
sg1153
(S'SUBTRACT'
S'DOUBLE'
S'TRIPLE'
S'DECREASE'
S'x'
S'y'
tp1310
sg27
g28
sg1155
I4
sg1156
(I2
I6
I12
I8
tp1311
sg22
I1
sg20
F7.3184744025347754
sg23
F3.9885411858413136
sVY
I4
sVX
I3
sg1158
g1163
sg31
g32
sg33
g34
sg21
S'8'
sg19
S'space'
p1312
sg30
g11
sg1161
I8
sg1162
g1201
sg1164
I8
sS'block.thisIndex'
p1313
I10
sg1166
g1167
sg1168
g1159
sg1169
g1297
sa(dp1314
S'block.thisTrialN'
p1315
I17
sS'block.thisRepN'
p1316
I0
sg29
NsS'block.thisN'
p1317
I17
sg1153
(S'TIMES'
S'HALF'
S'INCREASE'
S'x'
S'y'
tp1318
sg27
g28
sg1155
I3
sg1156
(I6
I3
I9
tp1319
sg22
I1
sg20
F4.0671427086490439
sg23
F2.5948570946638938
sVY
I3
sVX
I5
sg1158
g1202
sg31
g32
sg33
g34
sg21
S'9'
sg19
S'space'
p1320
sg30
g11
sg1161
I9
sg1162
g1191
sg1164
I9
sS'block.thisIndex'
p1321
I5
sg1166
g1188
sg1168
I0
sg1169
g1170
sa(dp1322
S'block.thisTrialN'
p1323
I0
sS'block.thisRepN'
p1324
I0
sg29
NsS'block.thisN'
p1325
I0
sVRule
p1326
(S'DIVIDE'
S'TRIPLE'
S'DECREASE'
S'x'
S'y'
tp1327
sg27
g28
sVLength
p1328
I3
sVIntermediate
p1329
(I6
I18
I9
tp1330
sg22
I1
sg20
F2.4153691524406895
sg23
F2.6108573690289631
sVY
I2
sVX
I7
sVOperatorc
p1331
Vdecrease
p1332
sg31
g32
sg33
g34
sg21
S'9'
sg19
S'space'
p1333
sg30
g11
sVResult
p1334
I9
sVOperatora
p1335
Vtriple
p1336
sVCorrectResponse
p1337
I9
sS'block.thisIndex'
p1338
I4
sVOperatorb
p1339
VDIVIDE
p1340
sVOperatord
p1341
I0
sVStructure
p1342
VBUUxy
p1343
sa(dp1344
S'block.thisTrialN'
p1345
I1
sS'block.thisRepN'
p1346
I0
sg29
NsS'block.thisN'
p1347
I1
sg1326
(S'SUBTRACT'
S'TRIPLE'
S'x'
S'y'
tp1348
sg27
g28
sg1328
I2
sg1329
(I12
I9
tp1349
sg22
I1
sg20
F1.2677617219014792
sg23
F2.3569114571000682
sVY
I3
sVX
I4
sg1331
I0
sg31
g32
sg33
g34
sg21
S'9'
sg19
S'space'
p1350
sg30
g11
sg1334
I9
sg1335
g1336
sg1337
I9
sS'block.thisIndex'
p1351
I1
sg1339
VSUBTRACT
p1352
sg1341
I0
sg1342
VBUxy
p1353
sa(dp1354
S'block.thisTrialN'
p1355
I2
sS'block.thisRepN'
p1356
I0
sg29
NsS'block.thisN'
p1357
I2
sg1326
(S'THIRD'
S'INCREASE'
S'HALF'
S'TIMES'
S'x'
S'y'
tp1358
sg27
g28
sg1328
I4
sg1329
(I28
I14
I15
I5
tp1359
sg22
I1
sg20
F5.1563239404640626
sg23
F3.8638496338244295
sVY
I4
sVX
I7
sg1331
Vhalf
p1360
sg31
g32
sg33
g34
sg21
S'5'
sg19
S'space'
p1361
sg30
g11
sg1334
I5
sg1335
Vincrease
p1362
sg1337
I5
sS'block.thisIndex'
p1363
I17
sg1339
Vthird
p1364
sg1341
VTIMES
p1365
sg1342
VUUUBxy
p1366
sa(dp1367
S'block.thisTrialN'
p1368
I3
sS'block.thisRepN'
p1369
I0
sg29
NsS'block.thisN'
p1370
I3
sg1326
(S'TRIPLE'
S'INCREASE'
S'SUBTRACT'
S'x'
S'y'
tp1371
sg27
g28
sg1328
I3
sg1329
(I1
I2
I6
tp1372
sg22
I1
sg20
F2.4225244807312265
sg23
F3.9561168327927589
sVY
I2
sVX
I3
sg1331
g1352
sg31
g32
sg33
g34
sg21
S'6'
sg19
S'space'
p1373
sg30
g11
sg1334
I6
sg1335
g1362
sg1337
I6
sS'block.thisIndex'
p1374
I9
sg1339
g1336
sg1341
I0
sg1342
VUUBxy
p1375
sa(dp1376
S'block.thisTrialN'
p1377
I4
sS'block.thisRepN'
p1378
I0
sg29
NsS'block.thisN'
p1379
I4
sg1326
(S'SUBTRACT'
S'INCREASE'
S'HALF'
S'x'
S'y'
tp1380
sg27
g28
sg1328
I3
sg1329
(I4
I5
I3
tp1381
sg22
I1
sg20
F3.0410733202443225
sg23
F3.8497815010632621
sVY
I2
sVX
I8
sg1331
g1360
sg31
g32
sg33
g34
sg21
S'3'
sg19
S'space'
p1382
sg30
g11
sg1334
I3
sg1335
g1362
sg1337
I3
sS'block.thisIndex'
p1383
I5
sg1339
g1352
sg1341
I0
sg1342
g1343
sa(dp1384
S'block.thisTrialN'
p1385
I5
sS'block.thisRepN'
p1386
I0
sg29
NsS'block.thisN'
p1387
I5
sg1326
(S'DIVIDE'
S'DOUBLE'
S'INCREASE'
S'TRIPLE'
S'x'
S'y'
tp1388
sg27
g28
sg1328
I4
sg1329
(I9
I10
I20
I5
tp1389
sg22
I1
sg20
F5.8908516716473969
sg23
F10.048232498113066
sVY
I4
sVX
I3
sg1331
g1362
sg31
g32
sg33
g34
sg21
S'5'
sg19
S'space'
p1390
sg30
g11
sg1334
I5
sg1335
Vdouble
p1391
sg1337
I5
sS'block.thisIndex'
p1392
I10
sg1339
g1340
sg1341
g1336
sg1342
VBUUUxy
p1393
sa(dp1394
S'block.thisTrialN'
p1395
I6
sS'block.thisRepN'
p1396
I0
sg29
NsS'block.thisN'
p1397
I6
sg1326
(S'ADD'
S'HALF'
S'x'
S'y'
tp1398
sg27
g28
sg1328
I2
sg1329
(I2
I7
tp1399
sg22
I1
sg20
F2.2459097286337055
sg23
F3.0005616894195555
sVY
I5
sVX
I4
sg1331
I0
sg31
g32
sg33
g34
sg21
S'7'
sg19
S'space'
p1400
sg30
g11
sg1334
I7
sg1335
g1360
sg1337
I7
sS'block.thisIndex'
p1401
I0
sg1339
VADD
p1402
sg1341
I0
sg1342
g1353
sa(dp1403
S'block.thisTrialN'
p1404
I7
sS'block.thisRepN'
p1405
I0
sg29
NsS'block.thisN'
p1406
I7
sg1326
(S'TIMES'
S'HALF'
S'INCREASE'
S'THIRD'
S'x'
S'y'
tp1407
sg27
g28
sg1328
I4
sg1329
(I1
I2
I1
I9
tp1408
sg22
I1
sg20
F4.8681611688080011
sg23
F15.922761580164661
sVY
I9
sVX
I3
sg1331
g1362
sg31
g32
sg33
g34
sg21
S'9'
sg19
S'space'
p1409
sg30
g11
sg1334
I9
sg1335
g1360
sg1337
I9
sS'block.thisIndex'
p1410
I11
sg1339
g1365
sg1341
g1364
sg1342
g1393
sa(dp1411
S'block.thisTrialN'
p1412
I8
sS'block.thisRepN'
p1413
I0
sg29
NsS'block.thisN'
p1414
I8
sg1326
(S'TRIPLE'
S'DOUBLE'
S'SUBTRACT'
S'INCREASE'
S'x'
S'y'
tp1415
sg27
g28
sg1328
I4
sg1329
(I5
I1
I2
I6
tp1416
sg22
I1
sg20
F5.2075010210101027
sg23
F2.5618518042756477
sVY
I4
sVX
I4
sg1331
g1352
sg31
g32
sg33
g34
sg21
S'6'
sg19
S'space'
p1417
sg30
g11
sg1334
I6
sg1335
g1391
sg1337
I6
sS'block.thisIndex'
p1418
I14
sg1339
g1336
sg1341
g1362
sg1342
VUUBUxy
p1419
sa(dp1420
S'block.thisTrialN'
p1421
I9
sS'block.thisRepN'
p1422
I0
sg29
NsS'block.thisN'
p1423
I9
sg1326
(S'TRIPLE'
S'INCREASE'
S'DIVIDE'
S'DOUBLE'
S'x'
S'y'
tp1424
sg27
g28
sg1328
I4
sg1329
(I16
I2
I3
I9
tp1425
sg22
I1
sg20
F3.7496303523657843
sg23
F7.6030637095827842
sVY
I8
sVX
I8
sg1331
g1340
sg31
g32
sg33
g34
sg21
S'9'
sg19
S'space'
p1426
sg30
g11
sg1334
I9
sg1335
g1362
sg1337
I9
sS'block.thisIndex'
p1427
I15
sg1339
g1336
sg1341
g1391
sg1342
g1419
sa(dp1428
S'block.thisTrialN'
p1429
I10
sS'block.thisRepN'
p1430
I0
sg29
NsS'block.thisN'
p1431
I10
sg1326
(S'INCREASE'
S'TIMES'
S'TRIPLE'
S'HALF'
S'x'
S'y'
tp1432
sg27
g28
sg1328
I4
sg1329
(I1
I3
I6
I7
tp1433
sg22
I1
sg20
F4.3079296897776658
sg23
F2.9970218211965403
sVY
I2
sVX
I2
sg1331
g1336
sg31
g32
sg33
g34
sg21
S'7'
sg19
S'space'
p1434
sg30
g11
sg1334
I7
sg1335
g1365
sg1337
I7
sS'block.thisIndex'
p1435
I13
sg1339
g1362
sg1341
g1360
sg1342
VUBUUxy
p1436
sa(dp1437
S'block.thisTrialN'
p1438
I11
sS'block.thisRepN'
p1439
I0
sg29
NsS'block.thisN'
p1440
I11
sg1326
(S'HALF'
S'TIMES'
S'DECREASE'
S'x'
S'y'
tp1441
sg27
g28
sg1328
I3
sg1329
(I8
I16
I8
tp1442
sg22
I1
sg20
F1.6828663028718438
sg23
F2.8815517746552359
sVY
I2
sVX
I9
sg1331
g1332
sg31
g32
sg33
g34
sg21
S'8'
sg19
S'space'
p1443
sg30
g11
sg1334
I8
sg1335
g1365
sg1337
I8
sS'block.thisIndex'
p1444
I6
sg1339
g1360
sg1341
I0
sg1342
VUBUxy
p1445
sa(dp1446
S'block.thisTrialN'
p1447
I12
sS'block.thisRepN'
p1448
I0
sg29
NsS'block.thisN'
p1449
I12
sg1326
(S'DOUBLE'
S'DIVIDE'
S'x'
S'y'
tp1450
sg27
g28
sg1328
I2
sg1329
(I1
I2
tp1451
sg22
I1
sg20
F0.95161491833277978
sg23
F1.828467399784131
sVY
I8
sVX
I8
sg1331
I0
sg31
g32
sg33
g34
sg21
S'2'
sg19
S'space'
p1452
sg30
g11
sg1334
I2
sg1335
g1340
sg1337
I2
sS'block.thisIndex'
p1453
I2
sg1339
g1391
sg1341
I0
sg1342
VUBxy
p1454
sa(dp1455
S'block.thisTrialN'
p1456
I13
sS'block.thisRepN'
p1457
I0
sg29
NsS'block.thisN'
p1458
I13
sg1326
(S'TRIPLE'
S'HALF'
S'ADD'
S'x'
S'y'
tp1459
sg27
g28
sg1328
I3
sg1329
(I6
I3
I9
tp1460
sg22
I1
sg20
F1.82416671361716
sg23
F3.9419129146990599
sVY
I3
sVX
I3
sg1331
g1402
sg31
g32
sg33
g34
sg21
S'9'
sg19
S'space'
p1461
sg30
g11
sg1334
I9
sg1335
g1360
sg1337
I9
sS'block.thisIndex'
p1462
I8
sg1339
g1336
sg1341
I0
sg1342
g1375
sa(dp1463
S'block.thisTrialN'
p1464
I14
sS'block.thisRepN'
p1465
I0
sg29
NsS'block.thisN'
p1466
I14
sg1326
(S'INCREASE'
S'DIVIDE'
S'TRIPLE'
S'x'
S'y'
tp1467
sg27
g28
sg1328
I3
sg1329
(I6
I2
I3
tp1468
sg22
I1
sg20
F4.2442792544898111
sg23
F2.8157494214246981
sVY
I3
sVX
I2
sg1331
g1336
sg31
g32
sg33
g34
sg21
S'3'
sg19
S'space'
p1469
sg30
g11
sg1334
I3
sg1335
g1340
sg1337
I3
sS'block.thisIndex'
p1470
I7
sg1339
g1362
sg1341
I0
sg1342
g1445
sa(dp1471
S'block.thisTrialN'
p1472
I15
sS'block.thisRepN'
p1473
I0
sg29
NsS'block.thisN'
p1474
I15
sg1326
(S'INCREASE'
S'DIVIDE'
S'x'
S'y'
tp1475
sg27
g28
sg1328
I2
sg1329
(I4
I5
tp1476
sg22
I1
sg20
F1.4612800009490456
sg23
F1.6183605598198483
sVY
I2
sVX
I8
sg1331
I0
sg31
g32
sg33
g34
sg21
S'5'
sg19
S'space'
p1477
sg30
g11
sg1334
I5
sg1335
g1340
sg1337
I5
sS'block.thisIndex'
p1478
I3
sg1339
g1362
sg1341
I0
sg1342
g1454
sa(dp1479
S'block.thisTrialN'
p1480
I16
sS'block.thisRepN'
p1481
I0
sg29
NsS'block.thisN'
p1482
I16
sg1326
(S'HALF'
S'SUBTRACT'
S'DECREASE'
S'TRIPLE'
S'x'
S'y'
tp1483
sg27
g28
sg1328
I4
sg1329
(I15
I14
I10
I5
tp1484
sg22
I1
sg20
F5.2042253742838511
sg23
F6.4393419169791741
sVY
I4
sVX
I5
sg1331
g1332
sg31
g32
sg33
g34
sg21
S'5'
sg19
S'space'
p1485
sg30
g11
sg1334
I5
sg1335
g1352
sg1337
I5
sS'block.thisIndex'
p1486
I12
sg1339
g1360
sg1341
g1336
sg1342
g1436
sa(dp1487
S'block.thisTrialN'
p1488
I17
sS'block.thisRepN'
p1489
I0
sg29
NsS'block.thisN'
p1490
I17
sg1326
(S'DECREASE'
S'THIRD'
S'DOUBLE'
S'ADD'
S'x'
S'y'
tp1491
sg27
g28
sg1328
I4
sg1329
(I9
I18
I6
I5
tp1492
sg22
I1
sg20
F3.0907490627141669
sg23
F3.1859212983836187
sVY
I4
sVX
I5
sg1331
g1391
sg31
g32
sg33
g34
sg21
S'5'
sg19
S'space'
p1493
sg30
g11
sg1334
I5
sg1335
g1364
sg1337
I5
sS'block.thisIndex'
p1494
I16
sg1339
g1332
sg1341
g1402
sg1342
g1366
sasS'loops'
p1495
(lp1496
g1
(cpsychopy.data
TrialHandler
p1497
g3
NtRp1498
(dp1499
S'origin'
p1500
NsS'thisTrial'
p1501
(lp1502
sS'_exp'
p1503
I156015632
sg10
S'practice_trials'
p1504
sg6
S'C:\\Users\\experimenter\\Desktop\\Experiments\\KRITL\\2. kritl_experimenter.py'
p1505
sS'thisRepN'
p1506
I1
sg24
I01
sg25
g26
sS'data'
p1507
g1
(cpsychopy.data
DataHandler
p1508
c__builtin__
dict
p1509
(dp1510
g15
cnumpy.core.multiarray
_reconstruct
p1511
(cnumpy
ndarray
p1512
(I0
tS'b'
tRp1513
(I1
(I6
I1
tcnumpy
dtype
p1514
(S'O4'
I0
I1
tRp1515
(I3
S'|'
NNNI-1
I-1
I63
tbI00
(lp1516
(lp1517
F2.310481264590635
aa(lp1518
F11.239467273451737
aa(lp1519
F3.2219012679561274
aa(lp1520
F3.3155077724804869
aa(lp1521
F3.3059426040999824
aa(lp1522
F5.5913249256118434
aatbsg16
g1511
(g1512
(I0
tS'b'
tRp1523
(I1
(I6
I1
tg1515
I00
(lp1524
S'7'
aS'8'
aS'7'
aS'8'
aS'4'
aS'9'
atbsS'ran'
p1525
cnumpy.ma.core
_mareconstruct
p1526
(cnumpy.ma.core
MaskedArray
p1527
g1512
(I0
tp1528
S'b'
tRp1529
(I1
(I6
I1
tg1514
(S'f4'
I0
I1
tRp1530
(I3
S'<'
NNNI-1
I-1
I0
tbI00
S'\x00\x00\x80?\x00\x00\x80?\x00\x00\x80?\x00\x00\x80?\x00\x00\x80?\x00\x00\x80?'
S'\x00\x00\x00\x00\x00\x00'
Ntbsg18
g1526
(g1527
g1512
g1528
S'b'
tRp1531
(I1
(I6
I1
tg1530
I00
S'Y\x02\x17@\xff\x1f/Aj\x81\x05@O\xc5\xac@\x0c\xfe\x8c@>\xc3/A'
S'\x00\x00\x00\x00\x00\x00'
Ntbsg14
g1511
(g1512
(I0
tS'b'
tRp1532
(I1
(I6
I1
tg1515
I00
(lp1533
(lp1534
g107
aa(lp1535
g69
aa(lp1536
g91
aa(lp1537
g116
aa(lp1538
g99
aa(lp1539
g81
aatbsS'order'
p1540
g1526
(g1527
g1512
g1528
S'b'
tRp1541
(I1
(I6
I1
tg1530
I00
S'\x00\x00\x80@\x00\x00\x00\x00\x00\x00\x00@\x00\x00\xa0@\x00\x00@@\x00\x00\x80?'
S'\x00\x00\x00\x00\x00\x00'
Ntbsg17
g1526
(g1527
g1512
g1528
S'b'
tRp1542
(I1
(I6
I1
tg1530
I00
S'\x00\x00\x80?\x00\x00\x80?\x00\x00\x80?\x00\x00\x80?\x00\x00\x00\x00\x00\x00\x80?'
S'\x00\x00\x00\x00\x00\x00'
NtbstRp1543
(dp1544
S'isNumeric'
p1545
(dp1546
g16
I00
sg1525
I01
sg18
I01
sg14
I00
sg17
I01
sg1540
I01
sg15
I00
ssS'trials'
p1547
g1498
sS'dataTypes'
p1548
(lp1549
g1525
ag1540
ag14
ag15
ag16
ag17
ag18
asS'dataShape'
p1550
(lp1551
I6
aI1
asbsS'method'
p1552
S'fullRandom'
p1553
sS'sequenceIndices'
p1554
g1511
(g1512
(I0
tS'b'
tRp1555
(I1
(I6
I1
tg1515
I00
(lp1556
I1
aI5
aI2
aI4
aI0
aI3
atbsS'finished'
p1557
I01
sS'nReps'
p1558
I1
sS'nRemaining'
p1559
I-1
sS'trialList'
p1560
(lp1561
g1
(cpsychopy.data
TrialType
p1562
g1509
(dp1563
g43
I0
sg44
g86
sg45
g64
sg46
I7
sg49
I2
sg48
I0
sg47
I5
sg50
I3
stRp1564
ag1
(g1562
g1509
(dp1565
g43
I0
sg44
g64
sg45
g65
sg46
I8
sg49
I2
sg48
I0
sg47
I3
sg50
I3
stRp1566
ag1
(g1562
g1509
(dp1567
g43
I0
sg44
g86
sg45
g87
sg46
I7
sg49
I2
sg48
I0
sg47
I5
sg50
I4
stRp1568
ag1
(g1562
g1509
(dp1569
g43
g86
sg44
g112
sg45
g87
sg46
I8
sg49
I3
sg48
I0
sg47
I2
sg50
I4
stRp1570
ag1
(g1562
g1509
(dp1571
g43
g74
sg44
g75
sg45
g78
sg46
I3
sg49
I3
sg48
I0
sg47
I3
sg50
I2
stRp1572
ag1
(g1562
g1509
(dp1573
g43
g74
sg44
g75
sg45
g76
sg46
I9
sg49
I4
sg48
g78
sg47
I8
sg50
I8
stRp1574
asS'seed'
p1575
NsS'thisIndex'
p1576
I3
sS'thisN'
p1577
I6
sS'thisTrialN'
p1578
I0
sS'nTotal'
p1579
I6
sS'_warnUseOfNext'
p1580
I01
sbag1
(g1497
g3
NtRp1581
(dp1582
g1500
Nsg1501
(lp1583
sg1503
I156015632
sg10
S'block'
p1584
sg6
g1505
sg1506
I1
sg24
I01
sg25
g26
sg1507
g1
(g1508
g1509
(dp1585
g22
g1526
(g1527
g1512
g1528
S'b'
tRp1586
(I1
(I18
I1
tg1530
I00
S'\x00\x00\x80?\x00\x00\x80?\x00\x00\x80?\x00\x00\x80?\x00\x00\x80?\x00\x00\x80?\x00\x00\x80?\x00\x00\x80?\x00\x00\x80?\x00\x00\x80?\x00\x00\x00\x00\x00\x00\x80?\x00\x00\x80?\x00\x00\x80?\x00\x00\x00\x00\x00\x00\x00\x00\x00\x00\x80?\x00\x00\x80?'
S'\x00\x00\x00\x00\x00\x00\x00\x00\x00\x00\x00\x00\x00\x00\x00\x00\x00\x00'
Ntbsg19
g1511
(g1512
(I0
tS'b'
tRp1587
(I1
(I18
I1
tg1515
I00
(lp1588
g188
ag139
ag240
ag265
ag180
ag150
ag281
ag196
ag223
ag214
ag257
ag171
ag231
ag249
ag206
ag127
ag273
ag160
atbsg23
g1526
(g1527
g1512
g1528
S'b'
tRp1589
(I1
(I18
I1
tg1530
I00
S'l\x17C@\nO\x8b@\x933\xea?\x19|\x06@\xb5\x14H@\xdf\xf9\x9e@\xa2\x16\x8e@\xed\x7f\xd1@\x1b\xbd\x83@3R\xb5@\x18\xb5\x8aA\x14\x82`@xs\xb4@\xb6K{@\x92\x99\xfd@\xd3]\x84@\x06\xeco@M3}@'
S'\x00\x00\x00\x00\x00\x00\x00\x00\x00\x00\x00\x00\x00\x00\x00\x00\x00\x00'
Ntbsg1525
g1526
(g1527
g1512
g1528
S'b'
tRp1590
(I1
(I18
I1
tg1530
I00
S'\x00\x00\x80?\x00\x00\x80?\x00\x00\x80?\x00\x00\x80?\x00\x00\x80?\x00\x00\x80?\x00\x00\x80?\x00\x00\x80?\x00\x00\x80?\x00\x00\x80?\x00\x00\x80?\x00\x00\x80?\x00\x00\x80?\x00\x00\x80?\x00\x00\x80?\x00\x00\x80?\x00\x00\x80?\x00\x00\x80?'
S'\x00\x00\x00\x00\x00\x00\x00\x00\x00\x00\x00\x00\x00\x00\x00\x00\x00\x00'
Ntbsg21
g1511
(g1512
(I0
tS'b'
tRp1591
(I1
(I18
I1
tg1515
I00
(lp1592
S'1'
aS'4'
aS'9'
aS'6'
aS'6'
aS'7'
aS'8'
aS'2'
aS'1'
aS'9'
aS'2'
aS'2'
aS'1'
aS'3'
aS'2'
aS'9'
aS'5'
aS'7'
atbsg1540
g1526
(g1527
g1512
g1528
S'b'
tRp1593
(I1
(I18
I1
tg1530
I00
S'\x00\x00\xc0@\x00\x00\x80?\x00\x00@A\x00\x00pA\x00\x00\xa0@\x00\x00\x00@\x00\x00\x88A\x00\x00\xe0@\x00\x00 A\x00\x00\x10A\x00\x00`A\x00\x00\x80@\x00\x000A\x00\x00PA\x00\x00\x00A\x00\x00\x00\x00\x00\x00\x80A\x00\x00@@'
S'\x00\x00\x00\x00\x00\x00\x00\x00\x00\x00\x00\x00\x00\x00\x00\x00\x00\x00'
Ntbsg20
g1526
(g1527
g1512
g1528
S'b'
tRp1594
(I1
(I18
I1
tg1530
I00
S'\xaf\xa5\xbe?\x9ew\xc3?\xc1\xc3\x11@\xf7)}@\xab\xed\x14@\x05\x07F@\x11\rX@H\xa6\xfa?\xc8\xea>@\xc4 \xa7@\xbb\xe4N@kG\x89@\xa9j\r@xp\xe5@\xd6\x8b\xa4@\xd5@\xc1@\x06V\tA\x13\xad\x80@'
S'\x00\x00\x00\x00\x00\x00\x00\x00\x00\x00\x00\x00\x00\x00\x00\x00\x00\x00'
NtbstRp1595
(dp1596
g1545
(dp1597
g1525
I01
sg21
I00
sg20
I01
sg22
I01
sg19
I00
sg23
I01
sg1540
I01
ssg1547
g1581
sg1548
(lp1598
g1525
ag1540
ag19
ag20
ag21
ag22
ag23
asg1550
(lp1599
I18
aI1
asbsg1552
g1553
sg1554
g1511
(g1512
(I0
tS'b'
tRp1600
(I1
(I18
I1
tg1515
I00
(lp1601
I15
aI1
aI5
aI17
aI11
aI4
aI0
aI7
aI14
aI9
aI8
aI12
aI2
aI13
aI10
aI3
aI16
aI6
atbsg1557
I01
sg1558
I1
sg1559
I-1
sg1560
(lp1602
g1
(g1562
g1509
(dp1603
g51
g186
sVY
I2
sg53
I2
sg54
g187
sg55
I1
sg56
I1
sg52
g130
sVX
I9
sg57
I0
sg58
g126
sg59
I0
sg60
g142
stRp1604
ag1
(g1562
g1509
(dp1605
g51
g137
sVY
I4
sg53
I2
sg54
g138
sg55
I4
sg56
I4
sg52
g130
sVX
I3
sg57
I0
sg58
g141
sg59
I0
sg60
g142
stRp1606
ag1
(g1562
g1509
(dp1607
g51
g238
sVY
I4
sg53
I2
sg54
g239
sg55
I9
sg56
I9
sg52
g141
sVX
I2
sg57
I0
sg58
g128
sg59
I0
sg60
g242
stRp1608
ag1
(g1562
g1509
(dp1609
g51
g263
sVY
I6
sg53
I2
sg54
g264
sg55
I6
sg56
I6
sg52
g126
sVX
I8
sg57
I0
sg58
g161
sg59
I0
sg60
g242
stRp1610
ag1
(g1562
g1509
(dp1611
g51
g178
sVY
I4
sg53
I3
sg54
g179
sg55
I6
sg56
I6
sg52
g149
sVX
I6
sg57
g131
sg58
g163
sg59
I0
sg60
g153
stRp1612
ag1
(g1562
g1509
(dp1613
g51
g147
sVY
I9
sg53
I3
sg54
g148
sg55
I7
sg56
I7
sg52
g151
sVX
I9
sg57
g149
sg58
g126
sg59
I0
sg60
g153
stRp1614
ag1
(g1562
g1509
(dp1615
g51
g279
sVY
I4
sg53
I3
sg54
g280
sg55
I8
sg56
I8
sg52
g141
sVX
I3
sg57
g130
sg58
g151
sg59
I0
sg60
g199
stRp1616
ag1
(g1562
g1509
(dp1617
g51
g194
sVY
I2
sg53
I3
sg54
g195
sg55
I2
sg56
I2
sg52
g197
sVX
I4
sg57
g131
sg58
g128
sg59
I0
sg60
g199
stRp1618
ag1
(g1562
g1509
(dp1619
g51
g221
sVY
I2
sg53
I3
sg54
g222
sg55
I1
sg56
I1
sg52
g131
sVX
I8
sg57
g197
sg58
g149
sg59
I0
sg60
g216
stRp1620
ag1
(g1562
g1509
(dp1621
g51
g212
sVY
I3
sg53
I3
sg54
g213
sg55
I9
sg56
I9
sg52
g131
sVX
I2
sg57
g141
sg58
g161
sg59
I0
sg60
g216
stRp1622
ag1
(g1562
g1509
(dp1623
g51
g255
sVY
I3
sg53
I4
sg54
g256
sg55
I1
sg56
I1
sg52
g149
sVX
I6
sg57
g130
sg58
g197
sg59
g151
sg60
g173
stRp1624
ag1
(g1562
g1509
(dp1625
g51
g169
sVY
I2
sg53
I4
sg54
g170
sg55
I2
sg56
I2
sg52
g149
sVX
I3
sg57
g130
sg58
g141
sg59
g151
sg60
g173
stRp1626
ag1
(g1562
g1509
(dp1627
g51
g229
sVY
I9
sg53
I4
sg54
g230
sg55
I1
sg56
I1
sg52
g197
sVX
I3
sg57
g161
sg58
g149
sg59
g151
sg60
g233
stRp1628
ag1
(g1562
g1509
(dp1629
g51
g247
sVY
I3
sg53
I4
sg54
g248
sg55
I3
sg56
I3
sg52
g126
sVX
I6
sg57
g128
sg58
g161
sg59
g131
sg60
g233
stRp1630
ag1
(g1562
g1509
(dp1631
g51
g204
sVY
I2
sg53
I4
sg54
g205
sg55
I7
sg56
I7
sg52
g131
sVX
I2
sg57
g141
sg58
g128
sg59
g161
sg60
g132
stRp1632
ag1
(g1562
g1509
(dp1633
g51
g124
sVY
I2
sg53
I4
sg54
g125
sg55
I1
sg56
I1
sg52
g128
sVX
I8
sg57
g126
sg58
g130
sg59
g131
sg60
g132
stRp1634
ag1
(g1562
g1509
(dp1635
g51
g271
sVY
I2
sg53
I4
sg54
g272
sg55
I5
sg56
I5
sg52
g131
sVX
I2
sg57
g161
sg58
g149
sg59
g163
sg60
g164
stRp1636
ag1
(g1562
g1509
(dp1637
g51
g158
sVY
I2
sg53
I4
sg54
g159
sg55
I7
sg56
I7
sg52
g161
sVX
I2
sg57
g131
sg58
g128
sg59
g163
sg60
g164
stRp1638
asg1575
Nsg1576
I6
sg1577
I18
sg1578
I0
sg1579
I18
sg1580
I01
sbag1
(g1497
g3
NtRp1639
(dp1640
g1500
Nsg1501
(lp1641
sg1503
I156015632
sg10
g1584
sg6
g1505
sg1506
I1
sg24
I01
sg25
g26
sg1507
g1
(g1508
g1509
(dp1642
g22
g1526
(g1527
g1512
g1528
S'b'
tRp1643
(I1
(I18
I1
tg1530
I00
S'\x00\x00\x80?\x00\x00\x80?\x00\x00\x80?\x00\x00\x80?\x00\x00\x80?\x00\x00\x80?\x00\x00\x00\x00\x00\x00\x80?\x00\x00\x80?\x00\x00\x80?\x00\x00\x80?\x00\x00\x80?\x00\x00\x80?\x00\x00\x80?\x00\x00\x80?\x00\x00\x80?\x00\x00\x80?\x00\x00\x80?'
S'\x00\x00\x00\x00\x00\x00\x00\x00\x00\x00\x00\x00\x00\x00\x00\x00\x00\x00'
Ntbsg19
g1511
(g1512
(I0
tS'b'
tRp1644
(I1
(I18
I1
tg1515
I00
(lp1645
g334
ag413
ag343
ag361
ag430
ag352
ag379
ag454
ag324
ag438
ag397
ag313
ag389
ag294
ag446
ag421
ag405
ag370
atbsg23
g1526
(g1527
g1512
g1528
S'b'
tRp1646
(I1
(I18
I1
tg1530
I00
S'\x14\x06\x8c@\xafK*@\xfe\xf2\x19@$\xbc\xd1?9\x84x@\xfc\xd8uA^\rt@\xee-"@\xe6\x1a\x86@\xe1\xae\xfa?\xc65\xc1@\xe9\xc7\x08A\xfb!\x92@\x01\x1b\xbe@\xd7\xb4\xff@Y\x85\xa7@\xa3.\xa3@\x0f\xbd\xc6@'
S'\x00\x00\x00\x00\x00\x00\x00\x00\x00\x00\x00\x00\x00\x00\x00\x00\x00\x00'
Ntbsg1525
g1526
(g1527
g1512
g1528
S'b'
tRp1647
(I1
(I18
I1
tg1530
I00
S'\x00\x00\x80?\x00\x00\x80?\x00\x00\x80?\x00\x00\x80?\x00\x00\x80?\x00\x00\x80?\x00\x00\x80?\x00\x00\x80?\x00\x00\x80?\x00\x00\x80?\x00\x00\x80?\x00\x00\x80?\x00\x00\x80?\x00\x00\x80?\x00\x00\x80?\x00\x00\x80?\x00\x00\x80?\x00\x00\x80?'
S'\x00\x00\x00\x00\x00\x00\x00\x00\x00\x00\x00\x00\x00\x00\x00\x00\x00\x00'
Ntbsg21
g1511
(g1512
(I0
tS'b'
tRp1648
(I1
(I18
I1
tg1515
I00
(lp1649
S'2'
aS'3'
aS'1'
aS'6'
aS'9'
aS'4'
aS'2'
aS'3'
aS'7'
aS'1'
aS'8'
aS'8'
aS'8'
aS'2'
aS'8'
aS'1'
aS'6'
aS'6'
atbsg1540
g1526
(g1527
g1512
g1528
S'b'
tRp1650
(I1
(I18
I1
tg1530
I00
S'\x00\x00@@\x00\x00@A\x00\x00\x80@\x00\x00\xc0@\x00\x00`A\x00\x00\xa0@\x00\x00\x00A\x00\x00\x88A\x00\x00\x00@\x00\x00pA\x00\x00 A\x00\x00\x80?\x00\x00\x10A\x00\x00\x00\x00\x00\x00\x80A\x00\x00PA\x00\x000A\x00\x00\xe0@'
S'\x00\x00\x00\x00\x00\x00\x00\x00\x00\x00\x00\x00\x00\x00\x00\x00\x00\x00'
Ntbsg20
g1526
(g1527
g1512
g1528
S'b'
tRp1651
(I1
(I18
I1
tg1530
I00
S'1J\x9a@u\xda\x99?\x1b\xf6\xb6?\xb0\xd8\x85?m\x7f\xa4?2\xa9\xc1@\xc1\x05\xe0?9o\x0e@\xf7\x8d\xe6?\x80\x16\xac?\x00"\x91@h\x00\x1e@\xe9\xdf\x0cA\xa9V\xe0@~\xbf\x13@3\x84\x13A\xf0\x9f\xc2@\x91\x8cg@'
S'\x00\x00\x00\x00\x00\x00\x00\x00\x00\x00\x00\x00\x00\x00\x00\x00\x00\x00'
NtbstRp1652
(dp1653
g1545
(dp1654
g1525
I01
sg21
I00
sg20
I01
sg22
I01
sg19
I00
sg23
I01
sg1540
I01
ssg1547
g1639
sg1548
(lp1655
g1525
ag1540
ag19
ag20
ag21
ag22
ag23
asg1550
(lp1656
I18
aI1
asbsg1552
g1553
sg1554
g1511
(g1512
(I0
tS'b'
tRp1657
(I1
(I18
I1
tg1515
I00
(lp1658
I13
aI11
aI8
aI0
aI2
aI5
aI3
aI17
aI6
aI12
aI10
aI16
aI1
aI15
aI4
aI9
aI14
aI7
atbsg1557
I01
sg1558
I1
sg1559
I-1
sg1560
(lp1659
g1
(g1562
g1509
(dp1660
g287
g332
sVY
I2
sg289
I2
sg290
g333
sg298
I2
sg295
I2
sg296
g326
sVX
I3
sg292
I0
sg300
g323
sg302
I0
sg304
g336
stRp1661
ag1
(g1562
g1509
(dp1662
g287
g411
sVY
I2
sg289
I2
sg290
g412
sg298
I3
sg295
I3
sg296
g303
sVX
I6
sg292
I0
sg300
g315
sg302
I0
sg304
g336
stRp1663
ag1
(g1562
g1509
(dp1664
g287
g341
sVY
I4
sg289
I2
sg290
g342
sg298
I1
sg295
I1
sg296
g323
sVX
I8
sg292
I0
sg300
g303
sg302
I0
sg304
g345
stRp1665
ag1
(g1562
g1509
(dp1666
g287
g359
sVY
I2
sg289
I2
sg290
g360
sg298
I6
sg295
I6
sg296
g362
sVX
I3
sg292
I0
sg300
g326
sg302
I0
sg304
g345
stRp1667
ag1
(g1562
g1509
(dp1668
g287
g428
sVY
I8
sg289
I3
sg290
g429
sg298
I9
sg295
I9
sg296
g381
sVX
I6
sg292
g301
sg300
g362
sg302
I0
sg304
g354
stRp1669
ag1
(g1562
g1509
(dp1670
g287
g350
sVY
I2
sg289
I3
sg290
g351
sg298
I4
sg295
I4
sg296
g303
sVX
I3
sg292
g312
sg300
g323
sg302
I0
sg304
g354
stRp1671
ag1
(g1562
g1509
(dp1672
g287
g377
sVY
I3
sg289
I3
sg290
g378
sg298
I6
sg295
I6
sg296
g362
sVX
I3
sg292
g312
sg300
g381
sg302
I0
sg304
g382
stRp1673
ag1
(g1562
g1509
(dp1674
g287
g452
sVY
I2
sg289
I3
sg290
g453
sg298
I3
sg295
I3
sg296
g315
sVX
I8
sg292
g381
sg300
g326
sg302
I0
sg304
g382
stRp1675
ag1
(g1562
g1509
(dp1676
g287
g321
sVY
I3
sg289
I3
sg290
g322
sg298
I7
sg295
I7
sg296
g312
sVX
I6
sg292
g323
sg300
g326
sg302
I0
sg304
g327
stRp1677
ag1
(g1562
g1509
(dp1678
g287
g436
sVY
I3
sg289
I3
sg290
g437
sg298
I1
sg295
I1
sg296
g381
sVX
I3
sg292
g362
sg300
g301
sg302
I0
sg304
g327
stRp1679
ag1
(g1562
g1509
(dp1680
g287
g395
sVY
I6
sg289
I4
sg290
g396
sg298
I8
sg295
I8
sg296
g293
sVX
I6
sg292
g303
sg300
g362
sg302
g301
sg304
g316
stRp1681
ag1
(g1562
g1509
(dp1682
g287
g310
sVY
I9
sg289
I4
sg290
g311
sg298
I8
sg295
I8
sg296
g303
sVX
I3
sg292
g312
sg300
g315
sg302
g293
sg304
g316
stRp1683
ag1
(g1562
g1509
(dp1684
g287
g387
sVY
I2
sg289
I4
sg290
g388
sg298
I8
sg295
I8
sg296
g362
sVX
I3
sg292
g326
sg300
g293
sg302
g301
sg304
g305
stRp1685
ag1
(g1562
g1509
(dp1686
g287
g288
sVY
I3
sg289
I4
sg290
g291
sg298
I2
sg295
I2
sg296
g297
sVX
I2
sg292
g293
sg300
g301
sg302
g303
sg304
g305
stRp1687
ag1
(g1562
g1509
(dp1688
g287
g444
sVY
I7
sg289
I4
sg290
g445
sg298
I8
sg295
I8
sg296
g293
sVX
I6
sg292
g362
sg300
g301
sg302
g303
sg304
g423
stRp1689
ag1
(g1562
g1509
(dp1690
g287
g419
sVY
I9
sg289
I4
sg290
g420
sg298
I1
sg295
I1
sg296
g326
sVX
I9
sg292
g323
sg300
g301
sg302
g293
sg304
g423
stRp1691
ag1
(g1562
g1509
(dp1692
g287
g403
sVY
I3
sg289
I4
sg290
g404
sg298
I6
sg295
I6
sg296
g312
sVX
I9
sg292
g326
sg300
g381
sg302
g323
sg304
g372
stRp1693
ag1
(g1562
g1509
(dp1694
g287
g368
sVY
I4
sg289
I4
sg290
g369
sg298
I6
sg295
I6
sg296
g293
sVX
I2
sg292
g326
sg300
g301
sg302
g297
sg304
g372
stRp1695
asg1575
Nsg1576
I7
sg1577
I18
sg1578
I0
sg1579
I18
sg1580
I01
sbag1
(g1497
g3
NtRp1696
(dp1697
g1500
Nsg1501
(lp1698
sg1503
I156015632
sg10
g1584
sg6
g1505
sg1506
I1
sg24
I01
sg25
g26
sg1507
g1
(g1508
g1509
(dp1699
g22
g1526
(g1527
g1512
g1528
S'b'
tRp1700
(I1
(I18
I1
tg1530
I00
S'\x00\x00\x80?\x00\x00\x80?\x00\x00\x80?\x00\x00\x80?\x00\x00\x80?\x00\x00\x80?\x00\x00\x80?\x00\x00\x80?\x00\x00\x80?\x00\x00\x80?\x00\x00\x80?\x00\x00\x80?\x00\x00\x80?\x00\x00\x00\x00\x00\x00\x80?\x00\x00\x80?\x00\x00\x80?\x00\x00\x00\x00'
S'\x00\x00\x00\x00\x00\x00\x00\x00\x00\x00\x00\x00\x00\x00\x00\x00\x00\x00'
Ntbsg19
g1511
(g1512
(I0
tS'b'
tRp1701
(I1
(I18
I1
tg1515
I00
(lp1702
g611
ag550
ag531
ag559
ag576
ag619
ag523
ag467
ag594
ag585
ag540
ag568
ag627
ag602
ag505
ag515
ag496
ag485
atbsg23
g1526
(g1527
g1512
g1528
S'b'
tRp1703
(I1
(I18
I1
tg1530
I00
S"V\x04\xe3@]\xfe\xd7?;-&@\xa9\x8f\xdf?\x0ej\x87@?\x924@X4S@\xf6\x14'@\x90+&A\xef\x81\x0f@\xcf\n\xa7@B\x9a\xff@f\x94\xac@\x00\x00\x00\x00\x99\xf0\xde@\xf6_\x01A\x18\xb7\xf1@sO\xa2@"
S'\x00\x00\x00\x00\x00\x00\x00\x00\x00\x00\x00\x00\x00\x01\x00\x00\x00\x00'
Ntbsg1525
g1526
(g1527
g1512
g1528
S'b'
tRp1704
(I1
(I18
I1
tg1530
I00
S'\x00\x00\x80?\x00\x00\x80?\x00\x00\x80?\x00\x00\x80?\x00\x00\x80?\x00\x00\x80?\x00\x00\x80?\x00\x00\x80?\x00\x00\x80?\x00\x00\x80?\x00\x00\x80?\x00\x00\x80?\x00\x00\x80?\x00\x00\x80?\x00\x00\x80?\x00\x00\x80?\x00\x00\x80?\x00\x00\x80?'
S'\x00\x00\x00\x00\x00\x00\x00\x00\x00\x00\x00\x00\x00\x00\x00\x00\x00\x00'
Ntbsg21
g1511
(g1512
(I0
tS'b'
tRp1705
(I1
(I18
I1
tg1515
I00
(lp1706
S'7'
aS'2'
aS'8'
aS'8'
aS'4'
aS'4'
aS'9'
aS'2'
aS'5'
aS'1'
aS'2'
aS'8'
aS'3'
aNaS'7'
aS'6'
aS'8'
aS'9'
atbsg1540
g1526
(g1527
g1512
g1528
S'b'
tRp1707
(I1
(I18
I1
tg1530
I00
S'\x00\x00pA\x00\x00\x00A\x00\x00\xc0@\x00\x00\x10A\x00\x000A\x00\x00\x80A\x00\x00\xa0@\x00\x00\x00\x00\x00\x00PA\x00\x00@A\x00\x00\xe0@\x00\x00 A\x00\x00\x88A\x00\x00`A\x00\x00@@\x00\x00\x80@\x00\x00\x00@\x00\x00\x80?'
S'\x00\x00\x00\x00\x00\x00\x00\x00\x00\x00\x00\x00\x00\x00\x00\x00\x00\x00'
Ntbsg20
g1526
(g1527
g1512
g1528
S'b'
tRp1708
(I1
(I18
I1
tg1530
I00
S'~|\xb1?sa\xc9?\xc4\xb6e?\x11\xec\x8f?\x19\x989@\xd6\xe7@@\x8e\xe6<@@\xfbu@\x8e\x96\x0e@\x81\x91\x0b@\x9e\xa8\xbc@\x08\xe8\x9d@H\xec>@\x90$\xd4@\xd7\xe3\x8b@\xc15v@\xa8\xd6\x12@@L\xec@'
S'\x00\x00\x00\x00\x00\x00\x00\x00\x00\x00\x00\x00\x00\x00\x00\x00\x00\x00'
NtbstRp1709
(dp1710
g1545
(dp1711
g1525
I01
sg21
I00
sg20
I01
sg22
I01
sg19
I00
sg23
I01
sg1540
I01
ssg1547
g1696
sg1548
(lp1712
g1525
ag1540
ag19
ag20
ag21
ag22
ag23
asg1550
(lp1713
I18
aI1
asbsg1552
g1553
sg1554
g1511
(g1512
(I0
tS'b'
tRp1714
(I1
(I18
I1
tg1515
I00
(lp1715
I7
aI17
aI16
aI14
aI15
aI6
aI2
aI10
aI1
aI3
aI11
aI4
aI9
aI8
aI13
aI0
aI5
aI12
atbsg1557
I01
sg1558
I1
sg1559
I-1
sg1560
(lp1716
g1
(g1562
g1509
(dp1717
g460
g609
sVY
I6
sg462
I2
sg463
g610
sg471
I7
sg468
I7
sg469
g466
sVX
I3
sg465
I0
sg473
g498
sg475
I0
sg476
g552
stRp1718
ag1
(g1562
g1509
(dp1719
g460
g548
sVY
I4
sg462
I2
sg463
g549
sg471
I2
sg468
I2
sg469
g474
sVX
I5
sg465
I0
sg473
g470
sg475
I0
sg476
g552
stRp1720
ag1
(g1562
g1509
(dp1721
g460
g529
sVY
I2
sg462
I2
sg463
g530
sg471
I8
sg468
I8
sg469
g498
sVX
I2
sg465
I0
sg473
g507
sg475
I0
sg476
g533
stRp1722
ag1
(g1562
g1509
(dp1723
g460
g557
sVY
I2
sg462
I2
sg463
g558
sg471
I8
sg468
I8
sg469
g560
sVX
I2
sg465
I0
sg473
g507
sg475
I0
sg476
g533
stRp1724
ag1
(g1562
g1509
(dp1725
g460
g574
sVY
I3
sg462
I3
sg463
g575
sg471
I4
sg468
I4
sg469
g488
sVX
I8
sg465
g484
sg473
g542
sg475
I0
sg476
g578
stRp1726
ag1
(g1562
g1509
(dp1727
g460
g617
sVY
I2
sg462
I3
sg463
g618
sg471
I4
sg468
I4
sg469
g466
sVX
I3
sg465
g507
sg473
g560
sg475
I0
sg476
g578
stRp1728
ag1
(g1562
g1509
(dp1729
g460
g521
sVY
I2
sg462
I3
sg463
g522
sg471
I9
sg468
I9
sg469
g498
sVX
I2
sg465
g488
sg473
g474
sg475
I0
sg476
g477
stRp1730
ag1
(g1562
g1509
(dp1731
g460
g461
sVY
I2
sg462
I3
sg463
g464
sg471
I2
sg468
I2
sg469
g470
sVX
I9
sg465
g466
sg473
g474
sg475
I0
sg476
g477
stRp1732
ag1
(g1562
g1509
(dp1733
g460
g592
sVY
I4
sg462
I3
sg463
g593
sg471
I5
sg468
I5
sg469
g488
sVX
I8
sg465
g542
sg473
g486
sg475
I0
sg476
g587
stRp1734
ag1
(g1562
g1509
(dp1735
g460
g583
sVY
I6
sg462
I3
sg463
g584
sg471
I1
sg468
I1
sg469
g474
sVX
I8
sg465
g470
sg473
g466
sg475
I0
sg476
g587
stRp1736
ag1
(g1562
g1509
(dp1737
g460
g538
sVY
I3
sg462
I4
sg463
g539
sg471
I2
sg468
I2
sg469
g507
sVX
I6
sg465
g474
sg473
g542
sg475
g466
sg476
g543
stRp1738
ag1
(g1562
g1509
(dp1739
g460
g566
sVY
I2
sg462
I4
sg463
g567
sg471
I8
sg468
I8
sg469
g474
sVX
I2
sg465
g484
sg473
g560
sg475
g488
sg476
g543
stRp1740
ag1
(g1562
g1509
(dp1741
g460
g625
sVY
I3
sg462
I4
sg463
g626
sg471
I3
sg468
I3
sg469
g542
sVX
I4
sg465
g488
sg473
g474
sg475
g484
sg476
g604
stRp1742
ag1
(g1562
g1509
(dp1743
g460
g600
sVY
I3
sg462
I4
sg463
g601
sg471
I4
sg468
I4
sg469
g560
sVX
I7
sg465
g484
sg473
g466
sg475
g474
sg476
g604
stRp1744
ag1
(g1562
g1509
(dp1745
g460
g503
sVY
I4
sg462
I4
sg463
g504
sg471
I7
sg468
I7
sg469
g474
sVX
I8
sg465
g498
sg473
g466
sg475
g507
sg476
g508
stRp1746
ag1
(g1562
g1509
(dp1747
g460
g513
sVY
I3
sg462
I4
sg463
g514
sg471
I6
sg468
I6
sg469
g507
sVX
I5
sg465
g470
sg473
g488
sg475
g486
sg476
g508
stRp1748
ag1
(g1562
g1509
(dp1749
g460
g494
sVY
I2
sg462
I4
sg463
g495
sg471
I8
sg468
I8
sg469
g488
sVX
I4
sg465
g484
sg473
g486
sg475
g498
sg476
g489
stRp1750
ag1
(g1562
g1509
(dp1751
g460
g482
sVY
I5
sg462
I4
sg463
g483
sg471
I3
sg468
I3
sg469
g486
sVX
I9
sg465
g484
sg473
g488
sg475
g470
sg476
g489
stRp1752
asg1575
Nsg1576
I12
sg1577
I18
sg1578
I0
sg1579
I18
sg1580
I01
sbag1
(g1497
g3
NtRp1753
(dp1754
g1500
Nsg1501
(lp1755
sg1503
I156015632
sg10
g1584
sg6
g1505
sg1506
I1
sg24
I01
sg25
g26
sg1507
g1
(g1508
g1509
(dp1756
g22
g1526
(g1527
g1512
g1528
S'b'
tRp1757
(I1
(I18
I1
tg1530
I00
S'\x00\x00\x80?\x00\x00\x80?\x00\x00\x80?\x00\x00\x80?\x00\x00\x80?\x00\x00\x80?\x00\x00\x80?\x00\x00\x80?\x00\x00\x80?\x00\x00\x80?\x00\x00\x80?\x00\x00\x80?\x00\x00\x00\x00\x00\x00\x00\x00\x00\x00\x00\x00\x00\x00\x80?\x00\x00\x80?\x00\x00\x80?'
S'\x00\x00\x00\x00\x00\x00\x00\x00\x00\x00\x00\x00\x00\x00\x00\x00\x00\x00'
Ntbsg19
g1511
(g1512
(I0
tS'b'
tRp1758
(I1
(I18
I1
tg1515
I00
(lp1759
g759
ag658
ag792
ag767
ag750
ag776
ag784
ag724
ag733
ag680
ag640
ag716
ag691
ag700
ag708
ag669
ag800
ag741
atbsg23
g1526
(g1527
g1512
g1528
S'b'
tRp1760
(I1
(I18
I1
tg1530
I00
S"\xd8\xf4\xf3?\x93\xb7\x06@\xa7?\xc7?\x825\xf4?\x8d'*@\xa9\x8a\xfc?4\x8d\xdd?\xcf\x9dW@\t\x9b\x0e@\x99\x82^@\xee\xbam@,|\x8c@4VIA\xbd\xf0\xa4@)\x98jA1\xb5`@\xfdf\x88@\x8dZ\x9c@"
S'\x00\x00\x00\x00\x00\x00\x00\x00\x00\x00\x00\x00\x00\x00\x00\x00\x00\x00'
Ntbsg1525
g1526
(g1527
g1512
g1528
S'b'
tRp1761
(I1
(I18
I1
tg1530
I00
S'\x00\x00\x80?\x00\x00\x80?\x00\x00\x80?\x00\x00\x80?\x00\x00\x80?\x00\x00\x80?\x00\x00\x80?\x00\x00\x80?\x00\x00\x80?\x00\x00\x80?\x00\x00\x80?\x00\x00\x80?\x00\x00\x80?\x00\x00\x80?\x00\x00\x80?\x00\x00\x80?\x00\x00\x80?\x00\x00\x80?'
S'\x00\x00\x00\x00\x00\x00\x00\x00\x00\x00\x00\x00\x00\x00\x00\x00\x00\x00'
Ntbsg21
g1511
(g1512
(I0
tS'b'
tRp1762
(I1
(I18
I1
tg1515
I00
(lp1763
S'7'
aS'2'
aS'8'
aS'6'
aS'7'
aS'8'
aS'2'
aS'5'
aS'6'
aS'5'
aS'9'
aS'8'
aS'8'
aS'5'
aS'9'
aS'8'
aS'3'
aS'1'
atbsg1540
g1526
(g1527
g1512
g1528
S'b'
tRp1764
(I1
(I18
I1
tg1530
I00
S'\x00\x00@A\x00\x00\x80?\x00\x00\x80A\x00\x00PA\x00\x000A\x00\x00`A\x00\x00pA\x00\x00\x00A\x00\x00\x10A\x00\x00@@\x00\x00\x00\x00\x00\x00\xe0@\x00\x00\x80@\x00\x00\xa0@\x00\x00\xc0@\x00\x00\x00@\x00\x00\x88A\x00\x00 A'
S'\x00\x00\x00\x00\x00\x00\x00\x00\x00\x00\x00\x00\x00\x00\x00\x00\x00\x00'
Ntbsg20
g1526
(g1527
g1512
g1528
S'b'
tRp1765
(I1
(I18
I1
tg1530
I00
S'Z\x8d\xf0?\x1e\x06\x94?\xde\xcbr?\x83m\x9c?\x11\xcd\xfc?o{\xf8?\xb55\x1b@*\x15\xac@[\xf2\xca?\xc4<*@\x07\x9c\x1c@\xe7Z\x02Alg\x0b@5\xcbA@\x8eC\x85@\x11\xae\x9a@\r\xddA@4\xc1\xfe?'
S'\x00\x00\x00\x00\x00\x00\x00\x00\x00\x00\x00\x00\x00\x00\x00\x00\x00\x00'
NtbstRp1766
(dp1767
g1545
(dp1768
g1525
I01
sg21
I00
sg20
I01
sg22
I01
sg19
I00
sg23
I01
sg1540
I01
ssg1547
g1753
sg1548
(lp1769
g1525
ag1540
ag19
ag20
ag21
ag22
ag23
asg1550
(lp1770
I18
aI1
asbsg1552
g1553
sg1554
g1511
(g1512
(I0
tS'b'
tRp1771
(I1
(I18
I1
tg1515
I00
(lp1772
I10
aI1
aI15
aI9
aI12
aI13
aI14
aI11
aI7
aI8
aI17
aI4
aI0
aI3
aI5
aI6
aI2
aI16
atbsg1557
I01
sg1558
I1
sg1559
I-1
sg1560
(lp1773
g1
(g1562
g1509
(dp1774
g633
g757
sVY
I5
sg635
I2
sg636
g758
sg644
I7
sg641
I7
sg642
g643
sVX
I3
sg638
I0
sg646
g647
sg648
I0
sg650
g661
stRp1775
ag1
(g1562
g1509
(dp1776
g633
g656
sVY
I4
sg635
I2
sg636
g657
sg644
I2
sg641
I2
sg642
g643
sVX
I9
sg638
I0
sg646
g660
sg648
I0
sg650
g661
stRp1777
ag1
(g1562
g1509
(dp1778
g633
g790
sVY
I3
sg635
I2
sg636
g791
sg644
I8
sg641
I8
sg642
g679
sVX
I3
sg638
I0
sg646
g643
sg648
I0
sg650
g769
stRp1779
ag1
(g1562
g1509
(dp1780
g633
g765
sVY
I8
sg635
I2
sg636
g766
sg644
I6
sg641
I6
sg642
g647
sVX
I4
sg638
I0
sg646
g683
sg648
I0
sg650
g769
stRp1781
ag1
(g1562
g1509
(dp1782
g633
g748
sVY
I5
sg635
I3
sg636
g749
sg644
I7
sg641
I7
sg642
g649
sVX
I2
sg638
g643
sg646
g647
sg648
I0
sg650
g752
stRp1783
ag1
(g1562
g1509
(dp1784
g633
g774
sVY
I2
sg635
I3
sg636
g775
sg644
I8
sg641
I8
sg642
g670
sVX
I4
sg638
g683
sg646
g647
sg648
I0
sg650
g752
stRp1785
ag1
(g1562
g1509
(dp1786
g633
g782
sVY
I3
sg635
I3
sg636
g783
sg644
I2
sg641
I2
sg642
g668
sVX
I3
sg638
g681
sg646
g649
sg648
I0
sg650
g726
stRp1787
ag1
(g1562
g1509
(dp1788
g633
g722
sVY
I3
sg635
I3
sg636
g723
sg644
I5
sg641
I5
sg642
g647
sVX
I2
sg638
g683
sg646
g681
sg648
I0
sg650
g726
stRp1789
ag1
(g1562
g1509
(dp1790
g633
g731
sVY
I4
sg635
I3
sg636
g732
sg644
I6
sg641
I6
sg642
g639
sVX
I5
sg638
g647
sg646
g649
sg648
I0
sg650
g684
stRp1791
ag1
(g1562
g1509
(dp1792
g633
g677
sVY
I3
sg635
I3
sg636
g678
sg644
I5
sg641
I5
sg642
g681
sVX
I3
sg638
g679
sg646
g683
sg648
I0
sg650
g684
stRp1793
ag1
(g1562
g1509
(dp1794
g633
g634
sVY
I4
sg635
I4
sg636
g637
sg644
I9
sg641
I9
sg642
g643
sVX
I9
sg638
g639
sg646
g647
sg648
g649
sg650
g651
stRp1795
ag1
(g1562
g1509
(dp1796
g633
g714
sVY
I2
sg635
I4
sg636
g715
sg644
I8
sg641
I8
sg642
g670
sVX
I2
sg638
g649
sg646
g647
sg648
g643
sg650
g651
stRp1797
ag1
(g1562
g1509
(dp1798
g633
g689
sVY
I6
sg635
I4
sg636
g690
sg644
I6
sg641
I6
sg642
g647
sVX
I6
sg638
g639
sg646
g643
sg648
g683
sg650
g693
stRp1799
ag1
(g1562
g1509
(dp1800
g633
g698
sVY
I2
sg635
I4
sg636
g699
sg644
I3
sg641
I3
sg642
g668
sVX
I9
sg638
g649
sg646
g643
sg648
g639
sg650
g693
stRp1801
ag1
(g1562
g1509
(dp1802
g633
g706
sVY
I3
sg635
I4
sg636
g707
sg644
I5
sg641
I5
sg642
g649
sVX
I3
sg638
g679
sg646
g643
sg648
g639
sg650
g672
stRp1803
ag1
(g1562
g1509
(dp1804
g633
g666
sVY
I3
sg635
I4
sg636
g667
sg644
I8
sg641
I8
sg642
g670
sVX
I3
sg638
g668
sg646
g643
sg648
g649
sg650
g672
stRp1805
ag1
(g1562
g1509
(dp1806
g633
g798
sVY
I4
sg635
I4
sg636
g799
sg644
I3
sg641
I3
sg642
g683
sVX
I3
sg638
g639
sg646
g681
sg648
g679
sg650
g743
stRp1807
ag1
(g1562
g1509
(dp1808
g633
g739
sVY
I2
sg635
I4
sg636
g740
sg644
I1
sg641
I1
sg642
g683
sVX
I7
sg638
g681
sg646
g639
sg648
g668
sg650
g743
stRp1809
asg1575
Nsg1576
I16
sg1577
I18
sg1578
I0
sg1579
I18
sg1580
I01
sbag1
(g1497
g3
NtRp1810
(dp1811
g1500
Nsg1501
(lp1812
sg1503
I156015632
sg10
g1584
sg6
g1505
sg1506
I1
sg24
I01
sg25
g26
sg1507
g1
(g1508
g1509
(dp1813
g22
g1526
(g1527
g1512
g1528
S'b'
tRp1814
(I1
(I18
I1
tg1530
I00
S'\x00\x00\x80?\x00\x00\x80?\x00\x00\x80?\x00\x00\x80?\x00\x00\x80?\x00\x00\x80?\x00\x00\x80?\x00\x00\x80?\x00\x00\x80?\x00\x00\x80?\x00\x00\x80?\x00\x00\x80?\x00\x00\x00\x00\x00\x00\x80?\x00\x00\x80?\x00\x00\x80?\x00\x00\x80?\x00\x00\x80?'
S'\x00\x00\x00\x00\x00\x00\x00\x00\x00\x00\x00\x00\x00\x00\x00\x00\x00\x00'
Ntbsg19
g1511
(g1512
(I0
tS'b'
tRp1815
(I1
(I18
I1
tg1515
I00
(lp1816
g889
ag916
ag871
ag852
ag898
ag813
ag842
ag924
ag940
ag880
ag831
ag973
ag948
ag907
ag956
ag965
ag932
ag861
atbsg23
g1526
(g1527
g1512
g1528
S'b'
tRp1817
(I1
(I18
I1
tg1530
I00
S'\x18\xe5A@%k\xcb?\x8bPS@9\x10\xa2?\xb4\x12y@\x80\xd6L@\x1eBR@\xe8-z@\xf4\xd5\xb1@\x9e[\x89@u*w@\x00\xc6\xc2@\xf1i\xcc@\xe4\\\x7f@\xd3,\xc6@0\xb6\xa9@s\xe6\x89@\x88\x8f\xa8@'
S'\x00\x00\x00\x00\x00\x00\x00\x00\x00\x00\x00\x00\x00\x00\x00\x00\x00\x00'
Ntbsg1525
g1526
(g1527
g1512
g1528
S'b'
tRp1818
(I1
(I18
I1
tg1530
I00
S'\x00\x00\x80?\x00\x00\x80?\x00\x00\x80?\x00\x00\x80?\x00\x00\x80?\x00\x00\x80?\x00\x00\x80?\x00\x00\x80?\x00\x00\x80?\x00\x00\x80?\x00\x00\x80?\x00\x00\x80?\x00\x00\x80?\x00\x00\x80?\x00\x00\x80?\x00\x00\x80?\x00\x00\x80?\x00\x00\x80?'
S'\x00\x00\x00\x00\x00\x00\x00\x00\x00\x00\x00\x00\x00\x00\x00\x00\x00\x00'
Ntbsg21
g1511
(g1512
(I0
tS'b'
tRp1819
(I1
(I18
I1
tg1515
I00
(lp1820
S'4'
aS'6'
aS'3'
aS'1'
aS'9'
aS'5'
aS'5'
aS'5'
aS'8'
aS'3'
aS'3'
aS'9'
aS'2'
aS'3'
aS'8'
aS'6'
aS'1'
aS'6'
atbsg1540
g1526
(g1527
g1512
g1528
S'b'
tRp1821
(I1
(I18
I1
tg1530
I00
S'\x00\x00\xe0@\x00\x00 A\x00\x00\xa0@\x00\x00@@\x00\x00\x00A\x00\x00\x00\x00\x00\x00\x00@\x00\x000A\x00\x00PA\x00\x00\xc0@\x00\x00\x80?\x00\x00\x88A\x00\x00`A\x00\x00\x10A\x00\x00pA\x00\x00\x80A\x00\x00@A\x00\x00\x80@'
S'\x00\x00\x00\x00\x00\x00\x00\x00\x00\x00\x00\x00\x00\x00\x00\x00\x00\x00'
Ntbsg20
g1526
(g1527
g1512
g1528
S'b'
tRp1822
(I1
(I18
I1
tg1530
I00
S'\xffo\x0f@\xa48\xac?\xd4,V?\x99\xb7\x9a?\xc1\xff#@\xe2\xd8s@\xd9\xab\xd3?\xb3P\xf4?4\xd2\x1a@\x92W\xcb?\xd7\xdf\xf0@\xdf\x8e\xa9@\xf1"\x96@b\xa7\xce@\xab\xb0\x9a@\tY%@\xb3\x01\x14A\x16\xff\x91@'
S'\x00\x00\x00\x00\x00\x00\x00\x00\x00\x00\x00\x00\x00\x00\x00\x00\x00\x00'
NtbstRp1823
(dp1824
g1545
(dp1825
g1525
I01
sg21
I00
sg20
I01
sg22
I01
sg19
I00
sg23
I01
sg1540
I01
ssg1547
g1810
sg1548
(lp1826
g1525
ag1540
ag19
ag20
ag21
ag22
ag23
asg1550
(lp1827
I18
aI1
asbsg1552
g1553
sg1554
g1511
(g1512
(I0
tS'b'
tRp1828
(I1
(I18
I1
tg1515
I00
(lp1829
I5
aI10
aI6
aI3
aI17
aI2
aI9
aI0
aI4
aI13
aI1
aI7
aI16
aI8
aI12
aI14
aI15
aI11
atbsg1557
I01
sg1558
I1
sg1559
I-1
sg1560
(lp1830
g1
(g1562
g1509
(dp1831
g806
g887
sVY
I2
sg808
I2
sg809
g888
sg817
I4
sg814
I4
sg815
g862
sVX
I3
sg811
I0
sg819
g820
sg821
I0
sg822
g891
stRp1832
ag1
(g1562
g1509
(dp1833
g806
g914
sVY
I2
sg808
I2
sg809
g915
sg817
I6
sg814
I6
sg815
g830
sVX
I2
sg811
I0
sg819
g820
sg821
I0
sg822
g891
stRp1834
ag1
(g1562
g1509
(dp1835
g806
g869
sVY
I5
sg808
I2
sg809
g870
sg817
I3
sg814
I3
sg815
g843
sVX
I4
sg811
I0
sg819
g816
sg821
I0
sg822
g854
stRp1836
ag1
(g1562
g1509
(dp1837
g806
g850
sVY
I2
sg808
I2
sg809
g851
sg817
I1
sg814
I1
sg815
g833
sVX
I5
sg811
I0
sg819
g816
sg821
I0
sg822
g854
stRp1838
ag1
(g1562
g1509
(dp1839
g806
g896
sVY
I3
sg808
I3
sg809
g897
sg817
I9
sg814
I9
sg815
g862
sVX
I8
sg811
g812
sg819
g820
sg821
I0
sg822
g823
stRp1840
ag1
(g1562
g1509
(dp1841
g806
g807
sVY
I5
sg808
I3
sg809
g810
sg817
I5
sg814
I5
sg815
g816
sVX
I6
sg811
g812
sg819
g820
sg821
I0
sg822
g823
stRp1842
ag1
(g1562
g1509
(dp1843
g806
g840
sVY
I7
sg808
I3
sg809
g841
sg817
I5
sg814
I5
sg815
g843
sVX
I7
sg811
g830
sg819
g816
sg821
I0
sg822
g845
stRp1844
ag1
(g1562
g1509
(dp1845
g806
g922
sVY
I5
sg808
I3
sg809
g923
sg817
I5
sg814
I5
sg815
g820
sVX
I4
sg811
g862
sg819
g816
sg821
I0
sg822
g845
stRp1846
ag1
(g1562
g1509
(dp1847
g806
g938
sVY
I5
sg808
I3
sg809
g939
sg817
I8
sg814
I8
sg815
g862
sVX
I5
sg811
g820
sg819
g816
sg821
I0
sg822
g882
stRp1848
ag1
(g1562
g1509
(dp1849
g806
g877
sVY
I2
sg808
I3
sg809
g878
sg817
I3
sg814
I3
sg815
g812
sVX
I4
sg811
g879
sg819
g834
sg821
I0
sg822
g882
stRp1850
ag1
(g1562
g1509
(dp1851
g806
g828
sVY
I5
sg808
I4
sg809
g829
sg817
I3
sg814
I3
sg815
g812
sVX
I5
sg811
g830
sg819
g833
sg821
g834
sg822
g835
stRp1852
ag1
(g1562
g1509
(dp1853
g806
g971
sVY
I3
sg808
I4
sg809
g972
sg817
I9
sg814
I9
sg815
g830
sVX
I3
sg811
g816
sg819
g820
sg821
g906
sg822
g835
stRp1854
ag1
(g1562
g1509
(dp1855
g806
g946
sVY
I6
sg808
I4
sg809
g947
sg817
I4
sg814
I4
sg815
g879
sVX
I3
sg811
g834
sg819
g830
sg821
g906
sg822
g909
stRp1856
ag1
(g1562
g1509
(dp1857
g806
g904
sVY
I3
sg808
I4
sg809
g905
sg817
I3
sg814
I3
sg815
g833
sVX
I3
sg811
g906
sg819
g834
sg821
g862
sg822
g909
stRp1858
ag1
(g1562
g1509
(dp1859
g806
g954
sVY
I2
sg808
I4
sg809
g955
sg817
I8
sg814
I8
sg815
g906
sVX
I9
sg811
g843
sg819
g816
sg821
g830
sg822
g958
stRp1860
ag1
(g1562
g1509
(dp1861
g806
g963
sVY
I3
sg808
I4
sg809
g964
sg817
I6
sg814
I6
sg815
g812
sVX
I2
sg811
g843
sg819
g834
sg821
g862
sg822
g958
stRp1862
ag1
(g1562
g1509
(dp1863
g806
g930
sVY
I2
sg808
I4
sg809
g931
sg817
I1
sg814
I1
sg815
g830
sVX
I8
sg811
g812
sg819
g816
sg821
g879
sg822
g864
stRp1864
ag1
(g1562
g1509
(dp1865
g806
g859
sVY
I2
sg808
I4
sg809
g860
sg817
I6
sg814
I6
sg815
g862
sVX
I3
sg811
g812
sg819
g834
sg821
g820
sg822
g864
stRp1866
asg1575
Nsg1576
I11
sg1577
I18
sg1578
I0
sg1579
I18
sg1580
I01
sbag1
(g1497
g3
NtRp1867
(dp1868
g1500
Nsg1501
(lp1869
sg1503
I156015632
sg10
g1584
sg6
g1505
sg1506
I1
sg24
I01
sg25
g26
sg1507
g1
(g1508
g1509
(dp1870
g22
g1526
(g1527
g1512
g1528
S'b'
tRp1871
(I1
(I18
I1
tg1530
I00
S'\x00\x00\x80?\x00\x00\x80?\x00\x00\x80?\x00\x00\x80?\x00\x00\x80?\x00\x00\x80?\x00\x00\x80?\x00\x00\x80?\x00\x00\x80?\x00\x00\x80?\x00\x00\x80?\x00\x00\x80?\x00\x00\x80?\x00\x00\x80?\x00\x00\x80?\x00\x00\x80?\x00\x00\x80?\x00\x00\x80?'
S'\x00\x00\x00\x00\x00\x00\x00\x00\x00\x00\x00\x00\x00\x00\x00\x00\x00\x00'
Ntbsg19
g1511
(g1512
(I0
tS'b'
tRp1872
(I1
(I18
I1
tg1515
I00
(lp1873
g1081
ag1099
ag1037
ag1147
ag1073
ag1055
ag1064
ag1107
ag1115
ag1028
ag1123
ag1005
ag1016
ag1046
ag1090
ag1131
ag986
ag1139
atbsg23
g1526
(g1527
g1512
g1528
S'b'
tRp1874
(I1
(I18
I1
tg1530
I00
S'n\xb5\xfa?\x8b_\x01@\xd3\x9c\x8f?\n\x82\x05@\xf5\xbd9@\xc6\x1a(@!j\x01@\xe2\x00s@\xc5\xd0\xa3@\x0e\xab\x08@s*M@\xb9+\xad@P\x01\x9f@\xa7\x08\xb7@j&\xea@\x93+|@5\xcdC@~;\x83@'
S'\x00\x00\x00\x00\x00\x00\x00\x00\x00\x00\x00\x00\x00\x00\x00\x00\x00\x00'
Ntbsg1525
g1526
(g1527
g1512
g1528
S'b'
tRp1875
(I1
(I18
I1
tg1530
I00
S'\x00\x00\x80?\x00\x00\x80?\x00\x00\x80?\x00\x00\x80?\x00\x00\x80?\x00\x00\x80?\x00\x00\x80?\x00\x00\x80?\x00\x00\x80?\x00\x00\x80?\x00\x00\x80?\x00\x00\x80?\x00\x00\x80?\x00\x00\x80?\x00\x00\x80?\x00\x00\x80?\x00\x00\x80?\x00\x00\x80?'
S'\x00\x00\x00\x00\x00\x00\x00\x00\x00\x00\x00\x00\x00\x00\x00\x00\x00\x00'
Ntbsg21
g1511
(g1512
(I0
tS'b'
tRp1876
(I1
(I18
I1
tg1515
I00
(lp1877
S'8'
aS'2'
aS'2'
aS'8'
aS'1'
aS'2'
aS'1'
aS'2'
aS'8'
aS'6'
aS'7'
aS'1'
aS'9'
aS'7'
aS'3'
aS'6'
aS'5'
aS'4'
atbsg1540
g1526
(g1527
g1512
g1528
S'b'
tRp1878
(I1
(I18
I1
tg1530
I00
S'\x00\x00\x10A\x00\x000A\x00\x00\x80@\x00\x00\x88A\x00\x00\x00A\x00\x00\xc0@\x00\x00\xe0@\x00\x00@A\x00\x00PA\x00\x00@@\x00\x00`A\x00\x00\x80?\x00\x00\x00@\x00\x00\xa0@\x00\x00 A\x00\x00pA\x00\x00\x00\x00\x00\x00\x80A'
S'\x00\x00\x00\x00\x00\x00\x00\x00\x00\x00\x00\x00\x00\x00\x00\x00\x00\x00'
Ntbsg20
g1526
(g1527
g1512
g1528
S'b'
tRp1879
(I1
(I18
I1
tg1530
I00
S'd> @}\xe9\x8b?$\xda\x83?\\\xde\x81?,\xb1\x0e@\x01J\xac?\x04Y\xbf?\xedm\x87@\xfcX\xe6?\\J/@\xda\x01\xb9@Yb\xc8@\xde^\x0b@\xc8c5@C\xbb\xb1@\xe8\x92\xa5@\x9a\xfa\xa6@\x10y\x9f@'
S'\x00\x00\x00\x00\x00\x00\x00\x00\x00\x00\x00\x00\x00\x00\x00\x00\x00\x00'
NtbstRp1880
(dp1881
g1545
(dp1882
g1525
I01
sg21
I00
sg20
I01
sg22
I01
sg19
I00
sg23
I01
sg1540
I01
ssg1547
g1867
sg1548
(lp1883
g1525
ag1540
ag19
ag20
ag21
ag22
ag23
asg1550
(lp1884
I18
aI1
asbsg1552
g1553
sg1554
g1511
(g1512
(I0
tS'b'
tRp1885
(I1
(I18
I1
tg1515
I00
(lp1886
I16
aI11
aI12
aI9
aI2
aI13
aI5
aI6
aI4
aI0
aI14
aI1
aI7
aI8
aI10
aI15
aI17
aI3
atbsg1557
I01
sg1558
I1
sg1559
I-1
sg1560
(lp1887
g1
(g1562
g1509
(dp1888
g979
g1079
sVY
I4
sg981
I2
sg982
g1080
sg990
I8
sg987
I8
sg988
g1004
sVX
I2
sg984
I0
sg992
g1017
sg994
I0
sg996
g1083
stRp1889
ag1
(g1562
g1509
(dp1890
g979
g1097
sVY
I6
sg981
I2
sg982
g1098
sg990
I2
sg987
I2
sg988
g1004
sVX
I6
sg984
I0
sg992
g995
sg994
I0
sg996
g1083
stRp1891
ag1
(g1562
g1509
(dp1892
g979
g1035
sVY
I7
sg981
I2
sg982
g1036
sg990
I2
sg987
I2
sg988
g1027
sVX
I8
sg984
I0
sg992
g1004
sg994
I0
sg996
g1039
stRp1893
ag1
(g1562
g1509
(dp1894
g979
g1145
sVY
I4
sg981
I2
sg982
g1146
sg990
I8
sg987
I8
sg988
g1047
sVX
I4
sg984
I0
sg992
g989
sg994
I0
sg996
g1039
stRp1895
ag1
(g1562
g1509
(dp1896
g979
g1071
sVY
I4
sg981
I3
sg982
g1072
sg990
I1
sg987
I1
sg988
g1004
sVX
I6
sg984
g1008
sg992
g995
sg994
I0
sg996
g1057
stRp1897
ag1
(g1562
g1509
(dp1898
g979
g1053
sVY
I4
sg981
I3
sg982
g1054
sg990
I2
sg987
I2
sg988
g989
sVX
I4
sg984
g985
sg992
g1027
sg994
I0
sg996
g1057
stRp1899
ag1
(g1562
g1509
(dp1900
g979
g1062
sVY
I7
sg981
I3
sg982
g1063
sg990
I1
sg987
I1
sg988
g1027
sVX
I3
sg984
g985
sg992
g989
sg994
I0
sg996
g1066
stRp1901
ag1
(g1562
g1509
(dp1902
g979
g1105
sVY
I3
sg981
I3
sg982
g1106
sg990
I2
sg987
I2
sg988
g995
sVX
I9
sg984
g1008
sg992
g1006
sg994
I0
sg996
g1066
stRp1903
ag1
(g1562
g1509
(dp1904
g979
g1113
sVY
I2
sg981
I3
sg982
g1114
sg990
I8
sg987
I8
sg988
g993
sVX
I7
sg984
g1027
sg992
g1004
sg994
I0
sg996
g1030
stRp1905
ag1
(g1562
g1509
(dp1906
g979
g1025
sVY
I3
sg981
I3
sg982
g1026
sg990
I6
sg987
I6
sg988
g985
sVX
I4
sg984
g1027
sg992
g1004
sg994
I0
sg996
g1030
stRp1907
ag1
(g1562
g1509
(dp1908
g979
g1121
sVY
I6
sg981
I4
sg982
g1122
sg990
I7
sg987
I7
sg988
g1008
sVX
I4
sg984
g1006
sg992
g1017
sg994
g989
sg996
g1009
stRp1909
ag1
(g1562
g1509
(dp1910
g979
g1002
sVY
I5
sg981
I4
sg982
g1003
sg990
I1
sg987
I1
sg988
g1006
sVX
I6
sg984
g1004
sg992
g995
sg994
g1008
sg996
g1009
stRp1911
ag1
(g1562
g1509
(dp1912
g979
g1014
sVY
I4
sg981
I4
sg982
g1015
sg990
I9
sg987
I9
sg988
g1017
sVX
I9
sg984
g1004
sg992
g1019
sg994
g1008
sg996
g1020
stRp1913
ag1
(g1562
g1509
(dp1914
g979
g1044
sVY
I4
sg981
I4
sg982
g1045
sg990
I7
sg987
I7
sg988
g1047
sVX
I3
sg984
g1004
sg992
g993
sg994
g1008
sg996
g1020
stRp1915
ag1
(g1562
g1509
(dp1916
g979
g1088
sVY
I6
sg981
I4
sg982
g1089
sg990
I3
sg987
I3
sg988
g1008
sVX
I4
sg984
g1047
sg992
g993
sg994
g989
sg996
g1092
stRp1917
ag1
(g1562
g1509
(dp1918
g979
g1129
sVY
I8
sg981
I4
sg982
g1130
sg990
I6
sg987
I6
sg988
g985
sVX
I9
sg984
g995
sg992
g1004
sg994
g993
sg996
g1092
stRp1919
ag1
(g1562
g1509
(dp1920
g979
g980
sVY
I2
sg981
I4
sg982
g983
sg990
I5
sg987
I5
sg988
g989
sVX
I8
sg984
g985
sg992
g993
sg994
g995
sg996
g997
stRp1921
ag1
(g1562
g1509
(dp1922
g979
g1137
sVY
I4
sg981
I4
sg982
g1138
sg990
I4
sg987
I4
sg988
g993
sVX
I4
sg984
g985
sg992
g1004
sg994
g995
sg996
g997
stRp1923
asg1575
Nsg1576
I3
sg1577
I18
sg1578
I0
sg1579
I18
sg1580
I01
sbag1
(g1497
g3
NtRp1924
(dp1925
g1500
Nsg1501
(lp1926
sg1503
I156015632
sg10
g1584
sg6
g1505
sg1506
I1
sg24
I01
sg25
g26
sg1507
g1
(g1508
g1509
(dp1927
g22
g1526
(g1527
g1512
g1528
S'b'
tRp1928
(I1
(I18
I1
tg1530
I00
S'\x00\x00\x80?\x00\x00\x80?\x00\x00\x80?\x00\x00\x80?\x00\x00\x80?\x00\x00\x80?\x00\x00\x80?\x00\x00\x80?\x00\x00\x80?\x00\x00\x80?\x00\x00\x80?\x00\x00\x80?\x00\x00\x80?\x00\x00\x80?\x00\x00\x80?\x00\x00\x80?\x00\x00\x80?\x00\x00\x80?'
S'\x00\x00\x00\x00\x00\x00\x00\x00\x00\x00\x00\x00\x00\x00\x00\x00\x00\x00'
Ntbsg19
g1511
(g1512
(I0
tS'b'
tRp1929
(I1
(I18
I1
tg1515
I00
(lp1930
g1177
ag1304
ag1227
ag1236
ag1160
ag1320
ag1262
ag1253
ag1279
ag1210
ag1312
ag1295
ag1199
ag1287
ag1219
ag1189
ag1244
ag1270
atbsg23
g1526
(g1527
g1512
g1528
S'b'
tRp1931
(I1
(I18
I1
tg1530
I00
S'K+\xb3?\x97\xd6\x17@%\x0b\xc1?\xb48\x90?\xdbrb@#\x12&@\xba|\x0c@\x92v\x8a@\x1e\x8d/@\xa5\xa23@BD\x7f@\xf3\xb0\x06@d\x88\x94@\x17\x8d`@\x98z^@_\x03\xa3@\xce\x16\x8f@\x19R\xb1@'
S'\x00\x00\x00\x00\x00\x00\x00\x00\x00\x00\x00\x00\x00\x00\x00\x00\x00\x00'
Ntbsg1525
g1526
(g1527
g1512
g1528
S'b'
tRp1932
(I1
(I18
I1
tg1530
I00
S'\x00\x00\x80?\x00\x00\x80?\x00\x00\x80?\x00\x00\x80?\x00\x00\x80?\x00\x00\x80?\x00\x00\x80?\x00\x00\x80?\x00\x00\x80?\x00\x00\x80?\x00\x00\x80?\x00\x00\x80?\x00\x00\x80?\x00\x00\x80?\x00\x00\x80?\x00\x00\x80?\x00\x00\x80?\x00\x00\x80?'
S'\x00\x00\x00\x00\x00\x00\x00\x00\x00\x00\x00\x00\x00\x00\x00\x00\x00\x00'
Ntbsg21
g1511
(g1512
(I0
tS'b'
tRp1933
(I1
(I18
I1
tg1515
I00
(lp1934
S'1'
aS'8'
aS'4'
aS'1'
aS'3'
aS'9'
aS'1'
aS'6'
aS'6'
aS'8'
aS'8'
aS'1'
aS'6'
aS'7'
aS'5'
aS'5'
aS'5'
aS'3'
atbsg1540
g1526
(g1527
g1512
g1528
S'b'
tRp1935
(I1
(I18
I1
tg1530
I00
S'\x00\x00\x80?\x00\x00pA\x00\x00\xc0@\x00\x00\xe0@\x00\x00\x00\x00\x00\x00\x88A\x00\x00 A\x00\x00\x10A\x00\x00@A\x00\x00\x80@\x00\x00\x80A\x00\x00`A\x00\x00@@\x00\x00PA\x00\x00\xa0@\x00\x00\x00@\x00\x00\x00A\x00\x000A'
S'\x00\x00\x00\x00\x00\x00\x00\x00\x00\x00\x00\x00\x00\x00\x00\x00\x00\x00'
Ntbsg20
g1526
(g1527
g1512
g1528
S'b'
tRp1936
(I1
(I18
I1
tg1530
I00
S'\x13n\xa4@\x1f\xa5\x99?\x7fB\x83?\x04>\x86?ai\x8f@\x08&\x82@(\x7f\xac?\xcfg\xcc@\x98\x07\x88?\xbe\x89\x0c@\xf10\xea@\xe6\xec\x8d@Xe\xc5@<\xd6J@\x13\xe8\xe6@\xc4i\xba@\x1ar\xa3@\xfb\xa6\x95@'
S'\x00\x00\x00\x00\x00\x00\x00\x00\x00\x00\x00\x00\x00\x00\x00\x00\x00\x00'
NtbstRp1937
(dp1938
g1545
(dp1939
g1525
I01
sg21
I00
sg20
I01
sg22
I01
sg19
I00
sg23
I01
sg1540
I01
ssg1547
g1924
sg1548
(lp1940
g1525
ag1540
ag19
ag20
ag21
ag22
ag23
asg1550
(lp1941
I18
aI1
asbsg1552
g1553
sg1554
g1511
(g1512
(I0
tS'b'
tRp1942
(I1
(I18
I1
tg1515
I00
(lp1943
I4
aI0
aI15
aI12
aI9
aI14
aI2
aI3
aI16
aI7
aI6
aI17
aI8
aI13
aI11
aI1
aI10
aI5
atbsg1557
I01
sg1558
I1
sg1559
I-1
sg1560
(lp1944
g1
(g1562
g1509
(dp1945
g1153
g1175
sVY
I3
sg1155
I2
sg1156
g1176
sg1164
I1
sg1161
I1
sg1162
g1178
sVX
I9
sg1158
I0
sg1166
g1180
sg1168
I0
sg1169
g1181
stRp1946
ag1
(g1562
g1509
(dp1947
g1153
g1302
sVY
I2
sg1155
I2
sg1156
g1303
sg1164
I8
sg1161
I8
sg1162
g1201
sVX
I2
sg1158
I0
sg1166
g1188
sg1168
I0
sg1169
g1181
stRp1948
ag1
(g1562
g1509
(dp1949
g1153
g1225
sVY
I3
sg1155
I2
sg1156
g1226
sg1164
I4
sg1161
I4
sg1162
g1167
sVX
I6
sg1158
I0
sg1166
g1202
sg1168
I0
sg1169
g1229
stRp1950
ag1
(g1562
g1509
(dp1951
g1153
g1234
sVY
I2
sg1155
I2
sg1156
g1235
sg1164
I1
sg1161
I1
sg1162
g1180
sVX
I6
sg1158
I0
sg1166
g1178
sg1168
I0
sg1169
g1229
stRp1952
ag1
(g1562
g1509
(dp1953
g1153
g1154
sVY
I9
sg1155
I3
sg1156
g1157
sg1164
I3
sg1161
I3
sg1162
g1163
sVX
I5
sg1158
g1159
sg1166
g1167
sg1168
I0
sg1169
g1170
stRp1954
ag1
(g1562
g1509
(dp1955
g1153
g1318
sVY
I3
sg1155
I3
sg1156
g1319
sg1164
I9
sg1161
I9
sg1162
g1191
sVX
I5
sg1158
g1202
sg1166
g1188
sg1168
I0
sg1169
g1170
stRp1956
ag1
(g1562
g1509
(dp1957
g1153
g1260
sVY
I2
sg1155
I3
sg1156
g1261
sg1164
I1
sg1161
I1
sg1162
g1180
sVX
I7
sg1158
g1159
sg1166
g1178
sg1168
I0
sg1169
g1255
stRp1958
ag1
(g1562
g1509
(dp1959
g1153
g1251
sVY
I6
sg1155
I3
sg1156
g1252
sg1164
I6
sg1161
I6
sg1162
g1188
sVX
I6
sg1158
g1191
sg1166
g1178
sg1168
I0
sg1169
g1255
stRp1960
ag1
(g1562
g1509
(dp1961
g1153
g1276
sVY
I2
sg1155
I3
sg1156
g1277
sg1164
I6
sg1161
I6
sg1162
g1159
sVX
I2
sg1158
g1278
sg1166
g1201
sg1168
I0
sg1169
g1212
stRp1962
ag1
(g1562
g1509
(dp1963
g1153
g1208
sVY
I6
sg1155
I3
sg1156
g1209
sg1164
I8
sg1161
I8
sg1162
g1178
sVX
I2
sg1158
g1188
sg1166
g1201
sg1168
I0
sg1169
g1212
stRp1964
ag1
(g1562
g1509
(dp1965
g1153
g1310
sVY
I4
sg1155
I4
sg1156
g1311
sg1164
I8
sg1161
I8
sg1162
g1201
sVX
I3
sg1158
g1163
sg1166
g1167
sg1168
g1159
sg1169
g1297
stRp1966
ag1
(g1562
g1509
(dp1967
g1153
g1293
sVY
I8
sg1155
I4
sg1156
g1294
sg1164
I1
sg1161
I1
sg1162
g1163
sVX
I2
sg1158
g1159
sg1166
g1167
sg1168
g1201
sg1169
g1297
stRp1968
ag1
(g1562
g1509
(dp1969
g1153
g1197
sVY
I5
sg1155
I4
sg1156
g1198
sg1164
I6
sg1161
I6
sg1162
g1180
sVX
I4
sg1158
g1163
sg1166
g1201
sg1168
g1202
sg1169
g1203
stRp1970
ag1
(g1562
g1509
(dp1971
g1153
g1285
sVY
I3
sg1155
I4
sg1156
g1286
sg1164
I7
sg1161
I7
sg1162
g1278
sVX
I2
sg1158
g1191
sg1166
g1202
sg1168
g1163
sg1169
g1203
stRp1972
ag1
(g1562
g1509
(dp1973
g1153
g1217
sVY
I3
sg1155
I4
sg1156
g1218
sg1164
I5
sg1161
I5
sg1162
g1163
sVX
I3
sg1158
g1180
sg1166
g1159
sg1168
g1201
sg1169
g1192
stRp1974
ag1
(g1562
g1509
(dp1975
g1153
g1186
sVY
I4
sg1155
I4
sg1156
g1187
sg1164
I5
sg1161
I5
sg1162
g1159
sVX
I8
sg1158
g1188
sg1166
g1178
sg1168
g1191
sg1169
g1192
stRp1976
ag1
(g1562
g1509
(dp1977
g1153
g1242
sVY
I2
sg1155
I4
sg1156
g1243
sg1164
I5
sg1161
I5
sg1162
g1163
sVX
I6
sg1158
g1191
sg1166
g1159
sg1168
g1167
sg1169
g1246
stRp1978
ag1
(g1562
g1509
(dp1979
g1153
g1268
sVY
I2
sg1155
I4
sg1156
g1269
sg1164
I3
sg1161
I3
sg1162
g1163
sVX
I3
sg1158
g1202
sg1166
g1191
sg1168
g1167
sg1169
g1246
stRp1980
asg1575
Nsg1576
I5
sg1577
I18
sg1578
I0
sg1579
I18
sg1580
I01
sbag1
(g1497
g3
NtRp1981
(dp1982
g1500
Nsg1501
(lp1983
sg1503
I156015632
sg10
g1584
sg6
g1505
sg1506
I1
sg24
I01
sg25
g26
sg1507
g1
(g1508
g1509
(dp1984
g22
g1526
(g1527
g1512
g1528
S'b'
tRp1985
(I1
(I18
I1
tg1530
I00
S'\x00\x00\x80?\x00\x00\x80?\x00\x00\x80?\x00\x00\x80?\x00\x00\x80?\x00\x00\x80?\x00\x00\x80?\x00\x00\x80?\x00\x00\x80?\x00\x00\x80?\x00\x00\x80?\x00\x00\x80?\x00\x00\x80?\x00\x00\x80?\x00\x00\x80?\x00\x00\x80?\x00\x00\x80?\x00\x00\x80?'
S'\x00\x00\x00\x00\x00\x00\x00\x00\x00\x00\x00\x00\x00\x00\x00\x00\x00\x00'
Ntbsg19
g1511
(g1512
(I0
tS'b'
tRp1986
(I1
(I18
I1
tg1515
I00
(lp1987
g1400
ag1350
ag1452
ag1477
ag1333
ag1382
ag1443
ag1469
ag1461
ag1373
ag1390
ag1409
ag1485
ag1434
ag1417
ag1426
ag1493
ag1361
atbsg23
g1526
(g1527
g1512
g1528
S'b'
tRp1988
(I1
(I18
I1
tg1530
I00
S'4\t@@\xa3\xd7\x16@8\x0b\xea?p&\xcf?J\x18\'@\xd2bv@Xk8@=54@MH|@\x051}@\x8f\xc5 A\xa2\xc3~A\x17\x0f\xce@5\xcf?@a\xf5#@LL\xf3@"\xe6K@PIw@'
S'\x00\x00\x00\x00\x00\x00\x00\x00\x00\x00\x00\x00\x00\x00\x00\x00\x00\x00'
Ntbsg1525
g1526
(g1527
g1512
g1528
S'b'
tRp1989
(I1
(I18
I1
tg1530
I00
S'\x00\x00\x80?\x00\x00\x80?\x00\x00\x80?\x00\x00\x80?\x00\x00\x80?\x00\x00\x80?\x00\x00\x80?\x00\x00\x80?\x00\x00\x80?\x00\x00\x80?\x00\x00\x80?\x00\x00\x80?\x00\x00\x80?\x00\x00\x80?\x00\x00\x80?\x00\x00\x80?\x00\x00\x80?\x00\x00\x80?'
S'\x00\x00\x00\x00\x00\x00\x00\x00\x00\x00\x00\x00\x00\x00\x00\x00\x00\x00'
Ntbsg21
g1511
(g1512
(I0
tS'b'
tRp1990
(I1
(I18
I1
tg1515
I00
(lp1991
S'7'
aS'9'
aS'2'
aS'5'
aS'9'
aS'3'
aS'8'
aS'3'
aS'9'
aS'6'
aS'5'
aS'9'
aS'5'
aS'7'
aS'6'
aS'9'
aS'5'
aS'5'
atbsg1540
g1526
(g1527
g1512
g1528
S'b'
tRp1992
(I1
(I18
I1
tg1530
I00
S'\x00\x00\xc0@\x00\x00\x80?\x00\x00@A\x00\x00pA\x00\x00\x00\x00\x00\x00\x80@\x00\x000A\x00\x00`A\x00\x00PA\x00\x00@@\x00\x00\xa0@\x00\x00\xe0@\x00\x00\x80A\x00\x00 A\x00\x00\x00A\x00\x00\x10A\x00\x00\x88A\x00\x00\x00@'
S'\x00\x00\x00\x00\x00\x00\x00\x00\x00\x00\x00\x00\x00\x00\x00\x00\x00\x00'
Ntbsg20
g1526
(g1527
g1512
g1528
S'b'
tRp1993
(I1
(I18
I1
tg1530
I00
S'\xfc\xbc\x0f@\x04F\xa2?\t\x9ds?9\x0b\xbb?h\x95\x1a@\xf2\xa0B@*h\xd7?#\xd1\x87@K~\xe9?\xa4\n\x1b@\xdb\x81\xbc@\xfa\xc7\x9b@\x04\x89\xa6@\x8f\xda\x89@\xd9\xa3\xa6@\xf2\xf9o@\xd5\xceE@\x9b\x00\xa5@'
S'\x00\x00\x00\x00\x00\x00\x00\x00\x00\x00\x00\x00\x00\x00\x00\x00\x00\x00'
NtbstRp1994
(dp1995
g1545
(dp1996
g1525
I01
sg21
I00
sg20
I01
sg22
I01
sg19
I00
sg23
I01
sg1540
I01
ssg1547
g1981
sg1548
(lp1997
g1525
ag1540
ag19
ag20
ag21
ag22
ag23
asg1550
(lp1998
I18
aI1
asbsg1552
g1553
sg1554
g1511
(g1512
(I0
tS'b'
tRp1999
(I1
(I18
I1
tg1515
I00
(lp2000
I4
aI1
aI17
aI9
aI5
aI10
aI0
aI11
aI14
aI15
aI13
aI6
aI2
aI8
aI7
aI3
aI12
aI16
atbsg1557
I01
sg1558
I1
sg1559
I-1
sg1560
(lp2001
g1
(g1562
g1509
(dp2002
g1326
g1398
sVY
I5
sg1328
I2
sg1329
g1399
sg1337
I7
sg1334
I7
sg1335
g1360
sVX
I4
sg1331
I0
sg1339
g1402
sg1341
I0
sg1342
g1353
stRp2003
ag1
(g1562
g1509
(dp2004
g1326
g1348
sVY
I3
sg1328
I2
sg1329
g1349
sg1337
I9
sg1334
I9
sg1335
g1336
sVX
I4
sg1331
I0
sg1339
g1352
sg1341
I0
sg1342
g1353
stRp2005
ag1
(g1562
g1509
(dp2006
g1326
g1450
sVY
I8
sg1328
I2
sg1329
g1451
sg1337
I2
sg1334
I2
sg1335
g1340
sVX
I8
sg1331
I0
sg1339
g1391
sg1341
I0
sg1342
g1454
stRp2007
ag1
(g1562
g1509
(dp2008
g1326
g1475
sVY
I2
sg1328
I2
sg1329
g1476
sg1337
I5
sg1334
I5
sg1335
g1340
sVX
I8
sg1331
I0
sg1339
g1362
sg1341
I0
sg1342
g1454
stRp2009
ag1
(g1562
g1509
(dp2010
g1326
g1327
sVY
I2
sg1328
I3
sg1329
g1330
sg1337
I9
sg1334
I9
sg1335
g1336
sVX
I7
sg1331
g1332
sg1339
g1340
sg1341
I0
sg1342
g1343
stRp2011
ag1
(g1562
g1509
(dp2012
g1326
g1380
sVY
I2
sg1328
I3
sg1329
g1381
sg1337
I3
sg1334
I3
sg1335
g1362
sVX
I8
sg1331
g1360
sg1339
g1352
sg1341
I0
sg1342
g1343
stRp2013
ag1
(g1562
g1509
(dp2014
g1326
g1441
sVY
I2
sg1328
I3
sg1329
g1442
sg1337
I8
sg1334
I8
sg1335
g1365
sVX
I9
sg1331
g1332
sg1339
g1360
sg1341
I0
sg1342
g1445
stRp2015
ag1
(g1562
g1509
(dp2016
g1326
g1467
sVY
I3
sg1328
I3
sg1329
g1468
sg1337
I3
sg1334
I3
sg1335
g1340
sVX
I2
sg1331
g1336
sg1339
g1362
sg1341
I0
sg1342
g1445
stRp2017
ag1
(g1562
g1509
(dp2018
g1326
g1459
sVY
I3
sg1328
I3
sg1329
g1460
sg1337
I9
sg1334
I9
sg1335
g1360
sVX
I3
sg1331
g1402
sg1339
g1336
sg1341
I0
sg1342
g1375
stRp2019
ag1
(g1562
g1509
(dp2020
g1326
g1371
sVY
I2
sg1328
I3
sg1329
g1372
sg1337
I6
sg1334
I6
sg1335
g1362
sVX
I3
sg1331
g1352
sg1339
g1336
sg1341
I0
sg1342
g1375
stRp2021
ag1
(g1562
g1509
(dp2022
g1326
g1388
sVY
I4
sg1328
I4
sg1329
g1389
sg1337
I5
sg1334
I5
sg1335
g1391
sVX
I3
sg1331
g1362
sg1339
g1340
sg1341
g1336
sg1342
g1393
stRp2023
ag1
(g1562
g1509
(dp2024
g1326
g1407
sVY
I9
sg1328
I4
sg1329
g1408
sg1337
I9
sg1334
I9
sg1335
g1360
sVX
I3
sg1331
g1362
sg1339
g1365
sg1341
g1364
sg1342
g1393
stRp2025
ag1
(g1562
g1509
(dp2026
g1326
g1483
sVY
I4
sg1328
I4
sg1329
g1484
sg1337
I5
sg1334
I5
sg1335
g1352
sVX
I5
sg1331
g1332
sg1339
g1360
sg1341
g1336
sg1342
g1436
stRp2027
ag1
(g1562
g1509
(dp2028
g1326
g1432
sVY
I2
sg1328
I4
sg1329
g1433
sg1337
I7
sg1334
I7
sg1335
g1365
sVX
I2
sg1331
g1336
sg1339
g1362
sg1341
g1360
sg1342
g1436
stRp2029
ag1
(g1562
g1509
(dp2030
g1326
g1415
sVY
I4
sg1328
I4
sg1329
g1416
sg1337
I6
sg1334
I6
sg1335
g1391
sVX
I4
sg1331
g1352
sg1339
g1336
sg1341
g1362
sg1342
g1419
stRp2031
ag1
(g1562
g1509
(dp2032
g1326
g1424
sVY
I8
sg1328
I4
sg1329
g1425
sg1337
I9
sg1334
I9
sg1335
g1362
sVX
I8
sg1331
g1340
sg1339
g1336
sg1341
g1391
sg1342
g1419
stRp2033
ag1
(g1562
g1509
(dp2034
g1326
g1491
sVY
I4
sg1328
I4
sg1329
g1492
sg1337
I5
sg1334
I5
sg1335
g1364
sVX
I5
sg1331
g1391
sg1339
g1332
sg1341
g1402
sg1342
g1366
stRp2035
ag1
(g1562
g1509
(dp2036
g1326
g1358
sVY
I4
sg1328
I4
sg1329
g1359
sg1337
I5
sg1334
I5
sg1335
g1362
sVX
I7
sg1331
g1360
sg1339
g1364
sg1341
g1365
sg1342
g1366
stRp2037
asg1575
Nsg1576
I16
sg1577
I18
sg1578
I0
sg1579
I18
sg1580
I01
sbasS'savePickle'
p2038
I00
sb.