ccopy_reg
_reconstructor
p1
(cpsychopy.data
ExperimentHandler
p2
c__builtin__
object
p3
NtRp4
(dp5
S'originPath'
p6
NsS'dataFileName'
p7
VC:\u005cUsers\u005cexperimenter\u005cDesktop\u005cExperiments\u005cKRITL\u005cdata/31031_KRITL_2017_Apr_14_1300
p8
sS'runtimeInfo'
p9
NsS'name'
p10
S'KRITL'
p11
sS'dataNames'
p12
(lp13
S'practice_encoding.keys'
p14
aS'practice_encoding.rt'
p15
aS'practice_execution.keys'
p16
aS'practice_execution.corr'
p17
aS'practice_execution.rt'
p18
aS'encoding.keys'
p19
aS'encoding.rt'
p20
aS'execution.keys'
p21
aS'execution.corr'
p22
aS'execution.rt'
p23
asS'autoLog'
p24
I01
sS'extraInfo'
p25
(dp26
S'date'
p27
V2017_Apr_14_1300
p28
sS'frameRate'
p29
cnumpy.core.multiarray
scalar
p30
(cnumpy
dtype
p31
(S'f8'
I0
I1
tRp32
(I3
S'<'
NNNI-1
I-1
I0
tbS'u|\xd86\x04\xa0n@'
tRp33
sS'expName'
p34
g11
sVsession
p35
V001
p36
sVparticipant
p37
V31031
p38
ssS'loopsUnfinished'
p39
(lp40
sS'saveWideText'
p41
I00
sS'thisEntry'
p42
(dp43
sS'version'
p44
S''
sS'_paramNamesSoFar'
p45
(lp46
Voperationc
p47
aVoperationb
p48
aVoperationa
p49
aVcorrectresponse
p50
aVvaluey
p51
aVoperationd
p52
aVcondition
p53
aVvaluex
p54
aVRule
p55
aVOperatora
p56
aVLength
p57
aVIntermediate
p58
aVCorrectResponse
p59
aVResult
p60
aVY
aVX
aVOperatorc
p61
aVOperatorb
p62
aVOperatord
p63
aVStructure
p64
asS'entries'
p65
(lp66
(dp67
g18
F7.9440345399780199
sg29
g33
sg17
I0
sg47
Vincrease
p68
sg48
VDIVIDE
p69
sg49
Vtriple
p70
sg35
g36
sg50
L3L
sS'practice_trials.thisTrialN'
p71
I0
sg52
L0L
sS'practice_trials.thisRepN'
p72
I0
sg37
g38
sg53
L3L
sg27
g28
sg16
S'4'
sg14
(lp73
S'space'
p74
asS'practice_trials.thisIndex'
p75
I4
sS'practice_trials.thisN'
p76
I0
sg34
g11
sg15
(lp77
F3.0558671202743426
asg51
L3L
sg54
L2L
sa(dp78
g18
F7.6855224657338113
sg29
g33
sg17
I1
sg47
VADD
p79
sg48
Vtriple 
p80
sg49
Vhalf
p81
sg35
g36
sg50
L8L
sS'practice_trials.thisTrialN'
p82
I1
sg52
L0L
sS'practice_trials.thisRepN'
p83
I0
sg37
g38
sg53
L3L
sg27
g28
sg16
S'8'
sg14
(lp84
S'space'
p85
asS'practice_trials.thisIndex'
p86
I3
sS'practice_trials.thisN'
p87
I1
sg34
g11
sg15
(lp88
F3.1799564715474844
asg51
L2L
sg54
L4L
sa(dp89
g18
F2.4356138936709613
sg29
g33
sg17
I1
sg47
L0L
sg48
Vdecrease
p90
sg49
VTIMES
p91
sg35
g36
sg50
L8L
sS'practice_trials.thisTrialN'
p92
I2
sg52
L0L
sS'practice_trials.thisRepN'
p93
I0
sg37
g38
sg53
L2L
sg27
g28
sg16
S'8'
sg14
(lp94
S'space'
p95
asS'practice_trials.thisIndex'
p96
I1
sS'practice_trials.thisN'
p97
I2
sg34
g11
sg15
(lp98
F6.1831071927445009
asg51
L3L
sg54
L3L
sa(dp99
g18
F1.793689528509276
sg29
g33
sg17
I1
sg47
L0L
sg48
g79
sg49
g90
sg35
g36
sg50
L7L
sS'practice_trials.thisTrialN'
p100
I3
sg52
L0L
sS'practice_trials.thisRepN'
p101
I0
sg37
g38
sg53
L2L
sg27
g28
sg16
S'7'
sg14
(lp102
S'space'
p103
asS'practice_trials.thisIndex'
p104
I0
sS'practice_trials.thisN'
p105
I3
sg34
g11
sg15
(lp106
F4.8760152878239751
asg51
L5L
sg54
L3L
sa(dp107
g18
F1.4319410269381478
sg29
g33
sg17
I1
sg47
L0L
sg48
g79
sg49
g81
sg35
g36
sg50
L7L
sS'practice_trials.thisTrialN'
p108
I4
sg52
L0L
sS'practice_trials.thisRepN'
p109
I0
sg37
g38
sg53
L2L
sg27
g28
sg16
S'7'
sg14
(lp110
S'space'
p111
asS'practice_trials.thisIndex'
p112
I2
sS'practice_trials.thisN'
p113
I4
sg34
g11
sg15
(lp114
F2.6949294841033407
asg51
L5L
sg54
L4L
sa(dp115
g18
F14.947114568582037
sg29
g33
sg17
I1
sg47
g68
sg48
g69
sg49
Vdouble
p116
sg35
g36
sg50
L9L
sS'practice_trials.thisTrialN'
p117
I5
sg52
g70
sS'practice_trials.thisRepN'
p118
I0
sg37
g38
sg53
L4L
sg27
g28
sg16
S'9'
sg14
(lp119
S'space'
p120
asS'practice_trials.thisIndex'
p121
I5
sS'practice_trials.thisN'
p122
I5
sg34
g11
sg15
(lp123
F7.0207451352325734
asg51
L8L
sg54
L8L
sa(dp124
S'block.thisTrialN'
p125
I0
sS'block.thisRepN'
p126
I0
sg29
g33
sS'block.thisN'
p127
I0
sg55
(S'DECREASE'
S'THIRD'
S'TIMES'
S'HALF'
S'x'
S'y'
tp128
sg27
g28
sg57
L4L
sg58
(I2
I12
I4
I3
tp129
sg22
I0
sg20
F13.257756153150694
sg23
F14.965074344509048
sVY
L6L
sVX
L4L
sg61
VTIMES
p130
sg35
g36
sg37
g38
sg21
S'2'
sg19
S'space'
p131
sg34
g11
sg60
L3L
sg56
Vthird
p132
sg59
L3L
sS'block.thisIndex'
p133
I14
sg62
Vdecrease
p134
sg63
Vhalf
p135
sg64
VUUBUxy
p136
sa(dp137
S'block.thisTrialN'
p138
I1
sS'block.thisRepN'
p139
I0
sg29
g33
sS'block.thisN'
p140
I1
sg55
(S'HALF'
S'SUBTRACT'
S'TRIPLE'
S'x'
S'y'
tp141
sg27
g28
sg57
L3L
sg58
(I9
I2
I1
tp142
sg22
I1
sg20
F8.1779819775838405
sg23
F3.2847320382134058
sVY
L7L
sVX
L3L
sg61
Vtriple
p143
sg35
g36
sg37
g38
sg21
S'1'
sg19
S'space'
p144
sg34
g11
sg60
L1L
sg56
VSUBTRACT
p145
sg59
L1L
sS'block.thisIndex'
p146
I6
sg62
g135
sg63
L0L
sg64
VUBUxy
p147
sa(dp148
S'block.thisTrialN'
p149
I2
sS'block.thisRepN'
p150
I0
sg29
g33
sS'block.thisN'
p151
I2
sg55
(S'DOUBLE'
S'TRIPLE'
S'SUBTRACT'
S'x'
S'y'
tp152
sg27
g28
sg57
L3L
sg58
(I1
I3
I6
tp153
sg22
I1
sg20
F4.2178946126950905
sg23
F2.9940453713643365
sVY
L3L
sVX
L4L
sg61
g145
sg35
g36
sg37
g38
sg21
S'6'
sg19
S'space'
p154
sg34
g11
sg60
L6L
sg56
g143
sg59
L6L
sS'block.thisIndex'
p155
I9
sg62
Vdouble
p156
sg63
L0L
sg64
VUUBxy
p157
sa(dp158
S'block.thisTrialN'
p159
I3
sS'block.thisRepN'
p160
I0
sg29
g33
sS'block.thisN'
p161
I3
sg55
(S'ADD'
S'DOUBLE'
S'x'
S'y'
tp162
sg27
g28
sg57
L2L
sg58
(I4
I8
tp163
sg22
I1
sg20
F4.6990205571928527
sg23
F2.0497266610036604
sVY
L4L
sVX
L2L
sg61
L0L
sg35
g36
sg37
g38
sg21
S'8'
sg19
S'space'
p164
sg34
g11
sg60
L8L
sg56
g156
sg59
L8L
sS'block.thisIndex'
p165
I0
sg62
VADD
p166
sg63
L0L
sg64
VBUxy
p167
sa(dp168
S'block.thisTrialN'
p169
I4
sS'block.thisRepN'
p170
I0
sg29
g33
sS'block.thisN'
p171
I4
sg55
(S'INCREASE'
S'DIVIDE'
S'THIRD'
S'x'
S'y'
tp172
sg27
g28
sg57
L3L
sg58
(I3
I1
I2
tp173
sg22
I0
sg20
F4.5115839662321378
sg23
F19.719736645492958
sVY
L3L
sVX
L9L
sg61
g132
sg35
g36
sg37
g38
sg21
S'8'
sg19
S'space'
p174
sg34
g11
sg60
L2L
sg56
VDIVIDE
p175
sg59
L2L
sS'block.thisIndex'
p176
I7
sg62
Vincrease
p177
sg63
L0L
sg64
g147
sa(dp178
S'block.thisTrialN'
p179
I5
sS'block.thisRepN'
p180
I0
sg29
g33
sS'block.thisN'
p181
I5
sg55
(S'DOUBLE'
S'TRIPLE'
S'DIVIDE'
S'DECREASE'
S'x'
S'y'
tp182
sg27
g28
sg57
L4L
sg58
(I8
I1
I3
I6
tp183
sg22
I1
sg20
F8.5005268700188026
sg23
F5.4620084894122556
sVY
L8L
sVX
L9L
sg61
g175
sg35
g36
sg37
g38
sg21
S'6'
sg19
S'space'
p184
sg34
g11
sg60
L6L
sg56
g143
sg59
L6L
sS'block.thisIndex'
p185
I15
sg62
g156
sg63
g134
sg64
g136
sa(dp186
S'block.thisTrialN'
p187
I6
sS'block.thisRepN'
p188
I0
sg29
g33
sS'block.thisN'
p189
I6
sg55
(S'SUBTRACT'
S'HALF'
S'TRIPLE'
S'x'
S'y'
tp190
sg27
g28
sg57
L3L
sg58
(I12
I6
I2
tp191
sg22
I1
sg20
F6.9159748180245515
sg23
F8.1826672886672895
sVY
L4L
sVX
L4L
sg61
g143
sg35
g36
sg37
g38
sg21
S'2'
sg19
S'space'
p192
sg34
g11
sg60
L2L
sg56
g135
sg59
L2L
sS'block.thisIndex'
p193
I5
sg62
g145
sg63
L0L
sg64
VBUUxy
p194
sa(dp195
S'block.thisTrialN'
p196
I7
sS'block.thisRepN'
p197
I0
sg29
g33
sS'block.thisN'
p198
I7
sg55
(S'DOUBLE'
S'SUBTRACT'
S'x'
S'y'
tp199
sg27
g28
sg57
L2L
sg58
(I1
I2
tp200
sg22
I1
sg20
F2.8859997459221631
sg23
F2.8360795550979674
sVY
L7L
sVX
L8L
sg61
L0L
sg35
g36
sg37
g38
sg21
S'2'
sg19
S'space'
p201
sg34
g11
sg60
L2L
sg56
g145
sg59
L2L
sS'block.thisIndex'
p202
I2
sg62
g156
sg63
L0L
sg64
VUBxy
p203
sa(dp204
S'block.thisTrialN'
p205
I8
sS'block.thisRepN'
p206
I0
sg29
g33
sS'block.thisN'
p207
I8
sg55
(S'DIVIDE'
S'INCREASE'
S'DOUBLE'
S'THIRD'
S'x'
S'y'
tp208
sg27
g28
sg57
L4L
sg58
(I2
I4
I5
I1
tp209
sg22
I0
sg20
F6.8518433101417031
sg23
F9.1586797417548951
sVY
L5L
sVX
L6L
sg61
g156
sg35
g36
sg37
g38
sg21
S'2'
sg19
S'space'
p210
sg34
g11
sg60
L1L
sg56
g177
sg59
L1L
sS'block.thisIndex'
p211
I11
sg62
g175
sg63
g132
sg64
VBUUUxy
p212
sa(dp213
S'block.thisTrialN'
p214
I9
sS'block.thisRepN'
p215
I0
sg29
g33
sS'block.thisN'
p216
I9
sg55
(S'DECREASE'
S'HALF'
S'TRIPLE'
S'DIVIDE'
S'x'
S'y'
tp217
sg27
g28
sg57
L4L
sg58
(I4
I12
I6
I5
tp218
sg22
I1
sg20
F12.519138277915772
sg23
F4.6736643031181302
sVY
L2L
sVX
L8L
sg61
g143
sg35
g36
sg37
g38
sg21
S'5'
sg19
S'space'
p219
sg34
g11
sg60
L5L
sg56
g135
sg59
L5L
sS'block.thisIndex'
p220
I16
sg62
g134
sg63
g175
sg64
VUUUBxy
p221
sa(dp222
S'block.thisTrialN'
p223
I10
sS'block.thisRepN'
p224
I0
sg29
g33
sS'block.thisN'
p225
I10
sg55
(S'ADD'
S'THIRD'
S'INCREASE'
S'HALF'
S'x'
S'y'
tp226
sg27
g28
sg57
L4L
sg58
(I2
I3
I1
I7
tp227
sg22
I0
sg20
F9.8749045037257019
sg23
F13.506137834512629
sVY
L6L
sVX
L4L
sg61
g177
sg35
g36
sg37
g38
sg21
S'3'
sg19
S'space'
p228
sg34
g11
sg60
L7L
sg56
g132
sg59
L7L
sS'block.thisIndex'
p229
I10
sg62
g166
sg63
g135
sg64
g212
sa(dp230
S'block.thisTrialN'
p231
I11
sS'block.thisRepN'
p232
I0
sg29
g33
sS'block.thisN'
p233
I11
sg55
(S'DOUBLE'
S'DECREASE'
S'TRIPLE'
S'DIVIDE'
S'x'
S'y'
tp234
sg27
g28
sg57
L4L
sg58
(I1
I3
I2
I4
tp235
sg22
I0
sg20
F15.765784840361448
sg23
F6.5989750969747547
sVY
L4L
sVX
L4L
sg61
g143
sg35
g36
sg37
g38
sg21
S'1'
sg19
S'space'
p236
sg34
g11
sg60
L4L
sg56
g134
sg59
L4L
sS'block.thisIndex'
p237
I17
sg62
g156
sg63
g175
sg64
g221
sa(dp238
S'block.thisTrialN'
p239
I12
sS'block.thisRepN'
p240
I0
sg29
g33
sS'block.thisN'
p241
I12
sg55
(S'DECREASE'
S'ADD'
S'DOUBLE'
S'THIRD'
S'x'
S'y'
tp242
sg27
g28
sg57
L4L
sg58
(I3
I6
I10
I9
tp243
sg22
I1
sg20
F15.045446957607055
sg23
F13.702247220498975
sVY
L4L
sVX
L9L
sg61
g156
sg35
g36
sg37
g38
sg21
S'9'
sg19
S'space'
p244
sg34
g11
sg60
L9L
sg56
g166
sg59
L9L
sS'block.thisIndex'
p245
I12
sg62
Vdecrease 
p246
sg63
g132
sg64
VUBUUxy
p247
sa(dp248
S'block.thisTrialN'
p249
I13
sS'block.thisRepN'
p250
I0
sg29
g33
sS'block.thisN'
p251
I13
sg55
(S'HALF'
S'TIMES'
S'x'
S'y'
tp252
sg27
g28
sg57
L2L
sg58
(I16
I8
tp253
sg22
I1
sg20
F7.1995453274284955
sg23
F1.912778601545142
sVY
L4L
sVX
L4L
sg61
L0L
sg35
g36
sg37
g38
sg21
S'8'
sg19
S'space'
p254
sg34
g11
sg60
L8L
sg56
g130
sg59
L8L
sS'block.thisIndex'
p255
I3
sg62
g135
sg63
L0L
sg64
g203
sa(dp256
S'block.thisTrialN'
p257
I14
sS'block.thisRepN'
p258
I0
sg29
g33
sS'block.thisN'
p259
I14
sg55
(S'DECREASE'
S'TIMES'
S'DOUBLE'
S'THIRD'
S'x'
S'y'
tp260
sg27
g28
sg57
L4L
sg58
(I1
I2
I8
I7
tp261
sg22
I1
sg20
F10.014851050305879
sg23
F6.6118058080610353
sVY
L4L
sVX
L3L
sg61
g156
sg35
g36
sg37
g38
sg21
S'7'
sg19
S'space'
p262
sg34
g11
sg60
L7L
sg56
g130
sg59
L7L
sS'block.thisIndex'
p263
I13
sg62
g134
sg63
g132
sg64
g247
sa(dp264
S'block.thisTrialN'
p265
I15
sS'block.thisRepN'
p266
I0
sg29
g33
sS'block.thisN'
p267
I15
sg55
(S'DOUBLE'
S'DECREASE'
S'SUBTRACT'
S'x'
S'y'
tp268
sg27
g28
sg57
L3L
sg58
(I5
I4
I8
tp269
sg22
I0
sg20
F6.7863346959929913
sg23
F5.3960067766893189
sVY
L2L
sVX
L7L
sg61
g145
sg35
g36
sg37
g38
sg21
S'2'
sg19
S'space'
p270
sg34
g11
sg60
L8L
sg56
g134
sg59
L8L
sS'block.thisIndex'
p271
I8
sg62
g156
sg63
L0L
sg64
g157
sa(dp272
S'block.thisTrialN'
p273
I16
sS'block.thisRepN'
p274
I0
sg29
g33
sS'block.thisN'
p275
I16
sg55
(S'DIVIDE'
S'DOUBLE'
S'x'
S'y'
tp276
sg27
g28
sg57
L2L
sg58
(I12
I2
tp277
sg22
I1
sg20
F4.8302404143905733
sg23
F2.4968354552111123
sVY
L6L
sVX
L6L
sg61
L0L
sg35
g36
sg37
g38
sg21
S'2'
sg19
S'space'
p278
sg34
g11
sg60
L2L
sg56
g156
sg59
L2L
sS'block.thisIndex'
p279
I1
sg62
g175
sg63
L0L
sg64
g167
sa(dp280
S'block.thisTrialN'
p281
I17
sS'block.thisRepN'
p282
I0
sg29
g33
sS'block.thisN'
p283
I17
sg55
(S'DIVIDE'
S'DOUBLE'
S'THIRD'
S'x'
S'y'
tp284
sg27
g28
sg57
L3L
sg58
(I2
I4
I1
tp285
sg22
I1
sg20
F3.735621837869985
sg23
F3.0272730040596798
sVY
L4L
sVX
L6L
sg61
g132
sg35
g36
sg37
g38
sg21
S'1'
sg19
S'space'
p286
sg34
g11
sg60
L1L
sg56
g156
sg59
L1L
sS'block.thisIndex'
p287
I4
sg62
g175
sg63
L0L
sg64
g194
sa(dp288
S'block.thisTrialN'
p289
I0
sS'block.thisRepN'
p290
I0
sg29
g33
sS'block.thisN'
p291
I0
sVRule
p292
(S'TRIPLE'
S'DECREASE'
S'HALF'
S'SUBTRACT'
S'x'
S'y'
tp293
sg27
g28
sVLength
p294
L4L
sVIntermediate
p295
(I4
I2
I1
I3
tp296
sg22
I1
sg20
F18.406509180756984
sg23
F4.8061359797138721
sVY
L5L
sVX
L9L
sVOperatorc
p297
Vhalf
p298
sg35
g36
sg37
g38
sg21
S'3'
sg19
S'space'
p299
sg34
g11
sVResult
p300
L3L
sVOperatora
p301
Vdecrease
p302
sVCorrectResponse
p303
L3L
sS'block.thisIndex'
p304
I17
sVOperatorb
p305
Vtriple
p306
sVOperatord
p307
VSUBTRACT
p308
sVStructure
p309
VUUUBxy
p310
sa(dp311
S'block.thisTrialN'
p312
I1
sS'block.thisRepN'
p313
I0
sg29
g33
sS'block.thisN'
p314
I1
sg292
(S'THIRD'
S'INCREASE'
S'SUBTRACT'
S'x'
S'y'
tp315
sg27
g28
sg294
L3L
sg295
(I2
I3
I1
tp316
sg22
I1
sg20
F4.9820013781718444
sg23
F4.6094886998471338
sVY
L6L
sVX
L8L
sg297
g308
sg35
g36
sg37
g38
sg21
S'1'
sg19
S'space'
p317
sg34
g11
sg300
L1L
sg301
Vincrease
p318
sg303
L1L
sS'block.thisIndex'
p319
I9
sg305
Vthird
p320
sg307
L0L
sg309
VUUBxy
p321
sa(dp322
S'block.thisTrialN'
p323
I2
sS'block.thisRepN'
p324
I0
sg29
g33
sS'block.thisN'
p325
I2
sg292
(S'THIRD'
S'INCREASE'
S'ADD'
S'DOUBLE'
S'x'
S'y'
tp326
sg27
g28
sg294
L4L
sg295
(I16
I20
I21
I7
tp327
sg22
I1
sg20
F11.68667874505627
sg23
F8.9312976190703921
sVY
L4L
sVX
L8L
sg297
VADD
p328
sg35
g36
sg37
g38
sg21
S'7'
sg19
S'space'
p329
sg34
g11
sg300
L7L
sg301
g318
sg303
L7L
sS'block.thisIndex'
p330
I14
sg305
g320
sg307
Vdouble
p331
sg309
VUUBUxy
p332
sa(dp333
S'block.thisTrialN'
p334
I3
sS'block.thisRepN'
p335
I0
sg29
g33
sS'block.thisN'
p336
I3
sg292
(S'THIRD'
S'TIMES'
S'HALF'
S'INCREASE'
S'x'
S'y'
tp337
sg27
g28
sg294
L4L
sg295
(I8
I4
I12
I4
tp338
sg22
I1
sg20
F8.2262415916775353
sg23
F6.1950916921778116
sVY
L3L
sVX
L7L
sg297
g298
sg35
g36
sg37
g38
sg21
S'4'
sg19
S'space'
p339
sg34
g11
sg300
L4L
sg301
VTIMES
p340
sg303
L4L
sS'block.thisIndex'
p341
I13
sg305
g320
sg307
g318
sg309
VUBUUxy
p342
sa(dp343
S'block.thisTrialN'
p344
I4
sS'block.thisRepN'
p345
I0
sg29
g33
sS'block.thisN'
p346
I4
sg292
(S'TIMES'
S'INCREASE'
S'HALF'
S'TRIPLE'
S'x'
S'y'
tp347
sg27
g28
sg294
L4L
sg295
(I6
I3
I4
I8
tp348
sg22
I1
sg20
F10.352868528163526
sg23
F8.1039772999647539
sVY
L2L
sVX
L2L
sg297
g298
sg35
g36
sg37
g38
sg21
S'8'
sg19
S'space'
p349
sg34
g11
sg300
L8L
sg301
g318
sg303
L8L
sS'block.thisIndex'
p350
I11
sg305
g340
sg307
g306
sg309
VBUUUxy
p351
sa(dp352
S'block.thisTrialN'
p353
I5
sS'block.thisRepN'
p354
I0
sg29
g33
sS'block.thisN'
p355
I5
sg292
(S'DOUBLE'
S'ADD'
S'x'
S'y'
tp356
sg27
g28
sg294
L2L
sg295
(I4
I8
tp357
sg22
I1
sg20
F2.7386640704062302
sg23
F3.5245284154661931
sVY
L2L
sVX
L2L
sg297
L0L
sg35
g36
sg37
g38
sg21
S'8'
sg19
S'space'
p358
sg34
g11
sg300
L8L
sg301
g328
sg303
L8L
sS'block.thisIndex'
p359
I2
sg305
g331
sg307
L0L
sg309
VUBxy
p360
sa(dp361
S'block.thisTrialN'
p362
I6
sS'block.thisRepN'
p363
I0
sg29
g33
sS'block.thisN'
p364
I6
sg292
(S'TRIPLE'
S'DOUBLE'
S'SUBTRACT'
S'DECREASE'
S'x'
S'y'
tp365
sg27
g28
sg294
L4L
sg295
(I4
I1
I2
I6
tp366
sg22
I1
sg20
F4.611485591478413
sg23
F5.2568672458874062
sVY
L3L
sVX
L5L
sg297
g308
sg35
g36
sg37
g38
sg21
S'6'
sg19
S'space'
p367
sg34
g11
sg300
L6L
sg301
g331
sg303
L6L
sS'block.thisIndex'
p368
I15
sg305
g306
sg307
g302
sg309
g332
sa(dp369
S'block.thisTrialN'
p370
I7
sS'block.thisRepN'
p371
I0
sg29
g33
sS'block.thisN'
p372
I7
sg292
(S'DECREASE'
S'TRIPLE'
S'HALF'
S'ADD'
S'x'
S'y'
tp373
sg27
g28
sg294
L4L
sg295
(I6
I3
I9
I8
tp374
sg22
I1
sg20
F10.545510825962992
sg23
F8.0437510345655028
sVY
L2L
sVX
L4L
sg297
g298
sg35
g36
sg37
g38
sg21
S'8'
sg19
S'space'
p375
sg34
g11
sg300
L8L
sg301
g306
sg303
L8L
sS'block.thisIndex'
p376
I16
sg305
g302
sg307
g328
sg309
g310
sa(dp377
S'block.thisTrialN'
p378
I8
sS'block.thisRepN'
p379
I0
sg29
g33
sS'block.thisN'
p380
I8
sg292
(S'INCREASE'
S'SUBTRACT'
S'THIRD'
S'x'
S'y'
tp381
sg27
g28
sg294
L3L
sg295
(I3
I1
I2
tp382
sg22
I1
sg20
F4.1943039243633393
sg23
F6.0042765537218656
sVY
L2L
sVX
L9L
sg297
g320
sg35
g36
sg37
g38
sg21
S'2'
sg19
S'space'
p383
sg34
g11
sg300
L2L
sg301
g308
sg303
L2L
sS'block.thisIndex'
p384
I7
sg305
g318
sg307
L0L
sg309
VUBUxy
p385
sa(dp386
S'block.thisTrialN'
p387
I9
sS'block.thisRepN'
p388
I0
sg29
g33
sS'block.thisN'
p389
I9
sg292
(S'DECREASE'
S'TRIPLE'
S'DIVIDE'
S'x'
S'y'
tp390
sg27
g28
sg294
L3L
sg295
(I2
I6
I5
tp391
sg22
I1
sg20
F5.3617845478001982
sg23
F4.2298840116127394
sVY
L4L
sVX
L8L
sg297
VDIVIDE
p392
sg35
g36
sg37
g38
sg21
S'5'
sg19
S'space'
p393
sg34
g11
sg300
L5L
sg301
g306
sg303
L5L
sS'block.thisIndex'
p394
I8
sg305
g302
sg307
L0L
sg309
g321
sa(dp395
S'block.thisTrialN'
p396
I10
sS'block.thisRepN'
p397
I0
sg29
g33
sS'block.thisN'
p398
I10
sg292
(S'DIVIDE'
S'TRIPLE'
S'HALF'
S'x'
S'y'
tp399
sg27
g28
sg294
L3L
sg295
(I4
I12
I4
tp400
sg22
I1
sg20
F9.0425083142472431
sg23
F5.9744334178685676
sVY
L3L
sVX
L8L
sg297
g298
sg35
g36
sg37
g38
sg21
S'4'
sg19
S'space'
p401
sg34
g11
sg300
L4L
sg301
g306
sg303
L4L
sS'block.thisIndex'
p402
I4
sg305
g392
sg307
L0L
sg309
VBUUxy
p403
sa(dp404
S'block.thisTrialN'
p405
I11
sS'block.thisRepN'
p406
I0
sg29
g33
sS'block.thisN'
p407
I11
sg292
(S'DOUBLE'
S'TIMES'
S'x'
S'y'
tp408
sg27
g28
sg294
L2L
sg295
(I4
I8
tp409
sg22
I1
sg20
F2.6447891662537586
sg23
F3.3211009431397542
sVY
L2L
sVX
L2L
sg297
L0L
sg35
g36
sg37
g38
sg21
S'8'
sg19
S'space'
p410
sg34
g11
sg300
L8L
sg301
g340
sg303
L8L
sS'block.thisIndex'
p411
I3
sg305
g331
sg307
L0L
sg309
g360
sa(dp412
S'block.thisTrialN'
p413
I12
sS'block.thisRepN'
p414
I0
sg29
g33
sS'block.thisN'
p415
I12
sg292
(S'TIMES'
S'THIRD'
S'DOUBLE'
S'x'
S'y'
tp416
sg27
g28
sg294
L3L
sg295
(I6
I2
I4
tp417
sg22
I1
sg20
F7.4296249686158262
sg23
F4.5756794278568123
sVY
L2L
sVX
L3L
sg297
g331
sg35
g36
sg37
g38
sg21
S'4'
sg19
S'space'
p418
sg34
g11
sg300
L4L
sg301
g320
sg303
L4L
sS'block.thisIndex'
p419
I5
sg305
g340
sg307
L0L
sg309
g403
sa(dp420
S'block.thisTrialN'
p421
I13
sS'block.thisRepN'
p422
I0
sg29
g33
sS'block.thisN'
p423
I13
sg292
(S'SUBTRACT'
S'INCREASE'
S'x'
S'y'
tp424
sg27
g28
sg294
L2L
sg295
(I6
I2
tp425
sg22
I1
sg20
F2.3034379362361506
sg23
F5.8280503429414239
sVY
L4L
sVX
L5L
sg297
L0L
sg35
g36
sg37
g38
sg21
S'2'
sg19
S'space'
p426
sg34
g11
sg300
L2L
sg301
g318
sg303
L2L
sS'block.thisIndex'
p427
I1
sg305
g308
sg307
L0L
sg309
VBUxy
p428
sa(dp429
S'block.thisTrialN'
p430
I14
sS'block.thisRepN'
p431
I0
sg29
g33
sS'block.thisN'
p432
I14
sg292
(S'INCREASE'
S'DIVIDE'
S'TRIPLE'
S'HALF'
S'x'
S'y'
tp433
sg27
g28
sg294
L4L
sg295
(I2
I6
I2
I3
tp434
sg22
I1
sg20
F5.3489429877954535
sg23
F4.2304163060616702
sVY
L3L
sVX
L4L
sg297
g306
sg35
g36
sg37
g38
sg21
S'3'
sg19
S'space'
p435
sg34
g11
sg300
L3L
sg301
g392
sg303
L3L
sS'block.thisIndex'
p436
I12
sg305
g318
sg307
g298
sg309
g342
sa(dp437
S'block.thisTrialN'
p438
I15
sS'block.thisRepN'
p439
I0
sg29
g33
sS'block.thisN'
p440
I15
sg292
(S'DIVIDE'
S'DOUBLE'
S'INCREASE'
S'THIRD'
S'x'
S'y'
tp441
sg27
g28
sg294
L4L
sg295
(I2
I3
I6
I2
tp442
sg22
I1
sg20
F7.782338462973712
sg23
F7.6998744681186508
sVY
L3L
sVX
L6L
sg297
g318
sg35
g36
sg37
g38
sg21
S'2'
sg19
S'space'
p443
sg34
g11
sg300
L2L
sg301
g331
sg303
L2L
sS'block.thisIndex'
p444
I10
sg305
g392
sg307
g320
sg309
g351
sa(dp445
S'block.thisTrialN'
p446
I16
sS'block.thisRepN'
p447
I0
sg29
g33
sS'block.thisN'
p448
I16
sg292
(S'INCREASE'
S'ADD'
S'TRIPLE'
S'x'
S'y'
tp449
sg27
g28
sg294
L3L
sg295
(I6
I8
I9
tp450
sg22
I1
sg20
F5.9710583700798452
sg23
F4.6563064643996768
sVY
L2L
sVX
L2L
sg297
g306
sg35
g36
sg37
g38
sg21
S'9'
sg19
S'space'
p451
sg34
g11
sg300
L9L
sg301
g328
sg303
L9L
sS'block.thisIndex'
p452
I6
sg305
g318
sg307
L0L
sg309
g385
sa(dp453
S'block.thisTrialN'
p454
I17
sS'block.thisRepN'
p455
I0
sg29
g33
sS'block.thisN'
p456
I17
sg292
(S'ADD'
S'THIRD'
S'x'
S'y'
tp457
sg27
g28
sg294
L2L
sg295
(I1
I7
tp458
sg22
I1
sg20
F2.6603390936215874
sg23
F1.9923193514696322
sVY
L6L
sVX
L3L
sg297
L0L
sg35
g36
sg37
g38
sg21
S'7'
sg19
S'space'
p459
sg34
g11
sg300
L7L
sg301
g320
sg303
L7L
sS'block.thisIndex'
p460
I0
sg305
g328
sg307
L0L
sg309
g428
sa(dp461
S'block.thisTrialN'
p462
I0
sS'block.thisRepN'
p463
I0
sg29
g33
sS'block.thisN'
p464
I0
sVRule
p465
(S'DOUBLE'
S'THIRD'
S'TIMES'
S'x'
S'y'
tp466
sg27
g28
sVLength
p467
L3L
sVIntermediate
p468
(I12
I4
I8
tp469
sg22
I1
sg20
F11.61030481470516
sg23
F8.5332946506969165
sVY
L6L
sVX
L2L
sVOperatorc
p470
VTIMES
p471
sg35
g36
sg37
g38
sg21
S'8'
sg19
S'space'
p472
sg34
g11
sVResult
p473
L8L
sVOperatora
p474
Vthird
p475
sVCorrectResponse
p476
L8L
sS'block.thisIndex'
p477
I9
sVOperatorb
p478
Vdouble
p479
sVOperatord
p480
L0L
sVStructure
p481
VUUBxy
p482
sa(dp483
S'block.thisTrialN'
p484
I1
sS'block.thisRepN'
p485
I0
sg29
g33
sS'block.thisN'
p486
I1
sg465
(S'TIMES'
S'DOUBLE'
S'x'
S'y'
tp487
sg27
g28
sg467
L2L
sg468
(I4
I8
tp488
sg22
I1
sg20
F2.3528800769709051
sg23
F2.96573332574917
sVY
L2L
sVX
L2L
sg470
L0L
sg35
g36
sg37
g38
sg21
S'8'
sg19
S'space'
p489
sg34
g11
sg473
L8L
sg474
g479
sg476
L8L
sS'block.thisIndex'
p490
I1
sg478
g471
sg480
L0L
sg481
VBUxy
p491
sa(dp492
S'block.thisTrialN'
p493
I2
sS'block.thisRepN'
p494
I0
sg29
g33
sS'block.thisN'
p495
I2
sg465
(S'DOUBLE'
S'DECREASE'
S'ADD'
S'x'
S'y'
tp496
sg27
g28
sg467
L3L
sg468
(I4
I3
I6
tp497
sg22
I1
sg20
F6.8060274910239968
sg23
F11.414251772832358
sVY
L2L
sVX
L2L
sg470
VADD
p498
sg35
g36
sg37
g38
sg21
S'6'
sg19
S'space'
p499
sg34
g11
sg473
L6L
sg474
Vdecrease
p500
sg476
L6L
sS'block.thisIndex'
p501
I8
sg478
g479
sg480
L0L
sg481
g482
sa(dp502
S'block.thisTrialN'
p503
I3
sS'block.thisRepN'
p504
I0
sg29
g33
sS'block.thisN'
p505
I3
sg465
(S'SUBTRACT'
S'TRIPLE'
S'DECREASE'
S'x'
S'y'
tp506
sg27
g28
sg467
L3L
sg468
(I4
I12
I3
tp507
sg22
I1
sg20
F3.4447818870248739
sg23
F3.5084661415603478
sVY
L9L
sVX
L5L
sg470
g500
sg35
g36
sg37
g38
sg21
S'3'
sg19
S'space'
p508
sg34
g11
sg473
L3L
sg474
Vtriple
p509
sg476
L3L
sS'block.thisIndex'
p510
I4
sg478
VSUBTRACT
p511
sg480
L0L
sg481
VBUUxy
p512
sa(dp513
S'block.thisTrialN'
p514
I4
sS'block.thisRepN'
p515
I0
sg29
g33
sS'block.thisN'
p516
I4
sg465
(S'DOUBLE'
S'DIVIDE'
S'TRIPLE'
S'INCREASE'
S'x'
S'y'
tp517
sg27
g28
sg467
L4L
sg468
(I5
I15
I3
I6
tp518
sg22
I1
sg20
F9.0780712532578036
sg23
F13.361622164753499
sVY
L5L
sVX
L4L
sg470
g509
sg35
g36
sg37
g38
sg21
S'6'
sg19
S'space'
p519
sg34
g11
sg473
L6L
sg474
VDIVIDE
p520
sg476
L6L
sS'block.thisIndex'
p521
I12
sg478
g479
sg480
Vincrease
p522
sg481
VUBUUxy
p523
sa(dp524
S'block.thisTrialN'
p525
I5
sS'block.thisRepN'
p526
I0
sg29
g33
sS'block.thisN'
p527
I5
sg465
(S'THIRD'
S'DECREASE'
S'TIMES'
S'HALF'
S'x'
S'y'
tp528
sg27
g28
sg467
L4L
sg468
(I4
I16
I15
I5
tp529
sg22
I0
sg20
F15.444697195838671
sg23
F7.1861644737364259
sVY
L4L
sVX
L8L
sg470
g471
sg35
g36
sg37
g38
sg21
S'4'
sg19
S'space'
p530
sg34
g11
sg473
L5L
sg474
g500
sg476
L5L
sS'block.thisIndex'
p531
I15
sg478
g475
sg480
Vhalf
p532
sg481
VUUBUxy
p533
sa(dp534
S'block.thisTrialN'
p535
I6
sS'block.thisRepN'
p536
I0
sg29
g33
sS'block.thisN'
p537
I6
sg465
(S'THIRD'
S'TIMES'
S'HALF'
S'x'
S'y'
tp538
sg27
g28
sg467
L3L
sg468
(I3
I18
I6
tp539
sg22
I1
sg20
F7.946125571790617
sg23
F4.6764349640288856
sVY
L6L
sVX
L6L
sg470
g532
sg35
g36
sg37
g38
sg21
S'6'
sg19
S'space'
p540
sg34
g11
sg473
L6L
sg474
g471
sg476
L6L
sS'block.thisIndex'
p541
I7
sg478
g475
sg480
L0L
sg481
VUBUxy
p542
sa(dp543
S'block.thisTrialN'
p544
I7
sS'block.thisRepN'
p545
I0
sg29
g33
sS'block.thisN'
p546
I7
sg465
(S'DECREASE'
S'TRIPLE'
S'DIVIDE'
S'DOUBLE'
S'x'
S'y'
tp547
sg27
g28
sg467
L4L
sg468
(I6
I2
I6
I5
tp548
sg22
I1
sg20
F5.6612496986053884
sg23
F3.6699210937367752
sVY
L3L
sVX
L3L
sg470
g520
sg35
g36
sg37
g38
sg21
S'5'
sg19
S'space'
p549
sg34
g11
sg473
L5L
sg474
g509
sg476
L5L
sS'block.thisIndex'
p550
I14
sg478
g500
sg480
g479
sg481
g533
sa(dp551
S'block.thisTrialN'
p552
I8
sS'block.thisRepN'
p553
I0
sg29
g33
sS'block.thisN'
p554
I8
sg465
(S'SUBTRACT'
S'DOUBLE'
S'TRIPLE'
S'DECREASE'
S'x'
S'y'
tp555
sg27
g28
sg467
L4L
sg468
(I2
I6
I12
I8
tp556
sg22
I1
sg20
F10.244771808036603
sg23
F9.0463680614775512
sVY
L4L
sVX
L3L
sg470
g509
sg35
g36
sg37
g38
sg21
S'8'
sg19
S'space'
p557
sg34
g11
sg473
L8L
sg474
g479
sg476
L8L
sS'block.thisIndex'
p558
I10
sg478
g511
sg480
g500
sg481
VBUUUxy
p559
sa(dp560
S'block.thisTrialN'
p561
I9
sS'block.thisRepN'
p562
I0
sg29
g33
sS'block.thisN'
p563
I9
sg465
(S'INCREASE'
S'ADD'
S'HALF'
S'TRIPLE'
S'x'
S'y'
tp564
sg27
g28
sg467
L4L
sg468
(I6
I3
I6
I7
tp565
sg22
I1
sg20
F9.778354478708934
sg23
F5.9046958450053353
sVY
L3L
sVX
L2L
sg470
g532
sg35
g36
sg37
g38
sg21
S'7'
sg19
S'space'
p566
sg34
g11
sg473
L7L
sg474
g498
sg476
L7L
sS'block.thisIndex'
p567
I13
sg478
g522
sg480
g509
sg481
g523
sa(dp568
S'block.thisTrialN'
p569
I10
sS'block.thisRepN'
p570
I0
sg29
g33
sS'block.thisN'
p571
I10
sg465
(S'SUBTRACT'
S'TRIPLE'
S'DECREASE'
S'DOUBLE'
S'x'
S'y'
tp572
sg27
g28
sg467
L4L
sg468
(I4
I3
I9
I1
tp573
sg22
I1
sg20
F7.0272744038957171
sg23
F4.1953702631290071
sVY
L8L
sVX
L2L
sg470
g500
sg35
g36
sg37
g38
sg21
S'1'
sg19
S'space'
p574
sg34
g11
sg473
L1L
sg474
g509
sg476
L1L
sS'block.thisIndex'
p575
I11
sg478
g511
sg480
g479
sg481
g559
sa(dp576
S'block.thisTrialN'
p577
I11
sS'block.thisRepN'
p578
I0
sg29
g33
sS'block.thisN'
p579
I11
sg465
(S'DECREASE'
S'TRIPLE'
S'HALF'
S'SUBTRACT'
S'x'
S'y'
tp580
sg27
g28
sg467
L4L
sg468
(I4
I2
I6
I5
tp581
sg22
I1
sg20
F8.8675636697153095
sg23
F6.5792522050323896
sVY
L2L
sVX
L6L
sg470
g532
sg35
g36
sg37
g38
sg21
S'5'
sg19
S'space'
p582
sg34
g11
sg473
L5L
sg474
g509
sg476
L5L
sS'block.thisIndex'
p583
I16
sg478
g500
sg480
g511
sg481
VUUUBxy
p584
sa(dp585
S'block.thisTrialN'
p586
I12
sS'block.thisRepN'
p587
I0
sg29
g33
sS'block.thisN'
p588
I12
sg465
(S'TIMES'
S'HALF'
S'INCREASE'
S'x'
S'y'
tp589
sg27
g28
sg467
L3L
sg468
(I6
I3
I9
tp590
sg22
I1
sg20
F5.6218683080514893
sg23
F6.1346341009484604
sVY
L3L
sVX
L5L
sg470
g522
sg35
g36
sg37
g38
sg21
S'9'
sg19
S'space'
p591
sg34
g11
sg473
L9L
sg474
g532
sg476
L9L
sS'block.thisIndex'
p592
I5
sg478
g471
sg480
L0L
sg481
g512
sa(dp593
S'block.thisTrialN'
p594
I13
sS'block.thisRepN'
p595
I0
sg29
g33
sS'block.thisN'
p596
I13
sg465
(S'THIRD'
S'DIVIDE'
S'DECREASE'
S'x'
S'y'
tp597
sg27
g28
sg467
L3L
sg468
(I6
I3
I1
tp598
sg22
I1
sg20
F7.664670591650065
sg23
F3.7016900786256883
sVY
L2L
sVX
L7L
sg470
g500
sg35
g36
sg37
g38
sg21
S'1'
sg19
S'space'
p599
sg34
g11
sg473
L1L
sg474
g520
sg476
L1L
sS'block.thisIndex'
p600
I6
sg478
g475
sg480
L0L
sg481
g542
sa(dp601
S'block.thisTrialN'
p602
I14
sS'block.thisRepN'
p603
I0
sg29
g33
sS'block.thisN'
p604
I14
sg465
(S'DIVIDE'
S'THIRD'
S'x'
S'y'
tp605
sg27
g28
sg467
L2L
sg468
(I3
I1
tp606
sg22
I1
sg20
F2.6910378902102821
sg23
F1.3532926839252468
sVY
L3L
sVX
L9L
sg470
L0L
sg35
g36
sg37
g38
sg21
S'1'
sg19
S'space'
p607
sg34
g11
sg473
L1L
sg474
g475
sg476
L1L
sS'block.thisIndex'
p608
I0
sg478
g520
sg480
L0L
sg481
g491
sa(dp609
S'block.thisTrialN'
p610
I15
sS'block.thisRepN'
p611
I0
sg29
g33
sS'block.thisN'
p612
I15
sg465
(S'HALF'
S'TRIPLE'
S'INCREASE'
S'SUBTRACT'
S'x'
S'y'
tp613
sg27
g28
sg467
L4L
sg468
(I1
I2
I6
I3
tp614
sg22
I1
sg20
F7.7814821023202967
sg23
F7.2011551594478078
sVY
L2L
sVX
L3L
sg470
g522
sg35
g36
sg37
g38
sg21
S'3'
sg19
S'space'
p615
sg34
g11
sg473
L3L
sg474
g509
sg476
L3L
sS'block.thisIndex'
p616
I17
sg478
g532
sg480
g511
sg481
g584
sa(dp617
S'block.thisTrialN'
p618
I16
sS'block.thisRepN'
p619
I0
sg29
g33
sS'block.thisN'
p620
I16
sg465
(S'INCREASE'
S'SUBTRACT'
S'x'
S'y'
tp621
sg27
g28
sg467
L2L
sg468
(I3
I4
tp622
sg22
I1
sg20
F2.2002081582904793
sg23
F1.6362675554701127
sVY
L3L
sVX
L6L
sg470
L0L
sg35
g36
sg37
g38
sg21
S'4'
sg19
S'space'
p623
sg34
g11
sg473
L4L
sg474
g511
sg476
L4L
sS'block.thisIndex'
p624
I2
sg478
g522
sg480
L0L
sg481
VUBxy
p625
sa(dp626
S'block.thisTrialN'
p627
I17
sS'block.thisRepN'
p628
I0
sg29
g33
sS'block.thisN'
p629
I17
sg465
(S'THIRD'
S'DIVIDE'
S'x'
S'y'
tp630
sg27
g28
sg467
L2L
sg468
(I3
I1
tp631
sg22
I1
sg20
F1.6461953195102978
sg23
F3.9905401371361222
sVY
L2L
sVX
L6L
sg470
L0L
sg35
g36
sg37
g38
sg21
S'1'
sg19
S'space'
p632
sg34
g11
sg473
L1L
sg474
g520
sg476
L1L
sS'block.thisIndex'
p633
I3
sg478
g475
sg480
L0L
sg481
g625
sa(dp634
S'block.thisTrialN'
p635
I0
sS'block.thisRepN'
p636
I0
sg29
g33
sS'block.thisN'
p637
I0
sVRule
p638
(S'INCREASE'
S'DIVIDE'
S'x'
S'y'
tp639
sg27
g28
sVLength
p640
L2L
sVIntermediate
p641
(I4
I5
tp642
sg22
I1
sg20
F12.458160290960222
sg23
F2.2442689105228055
sVY
L2L
sVX
L8L
sVOperatorc
p643
L0L
sg35
g36
sg37
g38
sg21
S'5'
sg19
S'space'
p644
sg34
g11
sVResult
p645
L5L
sVOperatora
p646
VDIVIDE
p647
sVCorrectResponse
p648
L5L
sS'block.thisIndex'
p649
I3
sVOperatorb
p650
Vincrease
p651
sVOperatord
p652
L0L
sVStructure
p653
VUBxy
p654
sa(dp655
S'block.thisTrialN'
p656
I1
sS'block.thisRepN'
p657
I0
sg29
g33
sS'block.thisN'
p658
I1
sg638
(S'HALF'
S'SUBTRACT'
S'DECREASE'
S'TRIPLE'
S'x'
S'y'
tp659
sg27
g28
sg640
L4L
sg641
(I15
I14
I10
I5
tp660
sg22
I1
sg20
F5.1237918823026121
sg23
F5.0132769145420752
sVY
L4L
sVX
L5L
sg643
Vdecrease
p661
sg35
g36
sg37
g38
sg21
S'5'
sg19
S'space'
p662
sg34
g11
sg645
L5L
sg646
VSUBTRACT
p663
sg648
L5L
sS'block.thisIndex'
p664
I12
sg650
Vhalf
p665
sg652
Vtriple
p666
sg653
VUBUUxy
p667
sa(dp668
S'block.thisTrialN'
p669
I2
sS'block.thisRepN'
p670
I0
sg29
g33
sS'block.thisN'
p671
I2
sg638
(S'TRIPLE'
S'INCREASE'
S'SUBTRACT'
S'x'
S'y'
tp672
sg27
g28
sg640
L3L
sg641
(I1
I2
I6
tp673
sg22
I1
sg20
F7.5540821315080393
sg23
F3.4911030533839948
sVY
L2L
sVX
L3L
sg643
g663
sg35
g36
sg37
g38
sg21
S'6'
sg19
S'space'
p674
sg34
g11
sg645
L6L
sg646
g651
sg648
L6L
sS'block.thisIndex'
p675
I9
sg650
g666
sg652
L0L
sg653
VUUBxy
p676
sa(dp677
S'block.thisTrialN'
p678
I3
sS'block.thisRepN'
p679
I0
sg29
g33
sS'block.thisN'
p680
I3
sg638
(S'TIMES'
S'HALF'
S'INCREASE'
S'THIRD'
S'x'
S'y'
tp681
sg27
g28
sg640
L4L
sg641
(I1
I2
I1
I9
tp682
sg22
I0
sg20
F5.0720725292339921
sg23
F9.3006718248943798
sVY
L9L
sVX
L3L
sg643
g651
sg35
g36
sg37
g38
sg21
S'6'
sg19
S'space'
p683
sg34
g11
sg645
L9L
sg646
g665
sg648
L9L
sS'block.thisIndex'
p684
I11
sg650
VTIMES
p685
sg652
Vthird
p686
sg653
VBUUUxy
p687
sa(dp688
S'block.thisTrialN'
p689
I4
sS'block.thisRepN'
p690
I0
sg29
g33
sS'block.thisN'
p691
I4
sg638
(S'DIVIDE'
S'DOUBLE'
S'INCREASE'
S'TRIPLE'
S'x'
S'y'
tp692
sg27
g28
sg640
L4L
sg641
(I9
I10
I20
I5
tp693
sg22
I1
sg20
F10.222841696464457
sg23
F3.2363103910174686
sVY
L4L
sVX
L3L
sg643
g651
sg35
g36
sg37
g38
sg21
S'5'
sg19
S'space'
p694
sg34
g11
sg645
L5L
sg646
Vdouble
p695
sg648
L5L
sS'block.thisIndex'
p696
I10
sg650
g647
sg652
g666
sg653
g687
sa(dp697
S'block.thisTrialN'
p698
I5
sS'block.thisRepN'
p699
I0
sg29
g33
sS'block.thisN'
p700
I5
sg638
(S'TRIPLE'
S'INCREASE'
S'DIVIDE'
S'DOUBLE'
S'x'
S'y'
tp701
sg27
g28
sg640
L4L
sg641
(I16
I2
I3
I9
tp702
sg22
I1
sg20
F7.2969538128818385
sg23
F5.8135975510813296
sVY
L8L
sVX
L8L
sg643
g647
sg35
g36
sg37
g38
sg21
S'9'
sg19
S'space'
p703
sg34
g11
sg645
L9L
sg646
g651
sg648
L9L
sS'block.thisIndex'
p704
I15
sg650
g666
sg652
g695
sg653
VUUBUxy
p705
sa(dp706
S'block.thisTrialN'
p707
I6
sS'block.thisRepN'
p708
I0
sg29
g33
sS'block.thisN'
p709
I6
sg638
(S'INCREASE'
S'TIMES'
S'TRIPLE'
S'HALF'
S'x'
S'y'
tp710
sg27
g28
sg640
L4L
sg641
(I1
I3
I6
I7
tp711
sg22
I1
sg20
F7.4932962745369878
sg23
F9.4578841697948519
sVY
L2L
sVX
L2L
sg643
g666
sg35
g36
sg37
g38
sg21
S'7'
sg19
S'space'
p712
sg34
g11
sg645
L7L
sg646
g685
sg648
L7L
sS'block.thisIndex'
p713
I13
sg650
g651
sg652
g665
sg653
g667
sa(dp714
S'block.thisTrialN'
p715
I7
sS'block.thisRepN'
p716
I0
sg29
g33
sS'block.thisN'
p717
I7
sg638
(S'HALF'
S'TIMES'
S'DECREASE'
S'x'
S'y'
tp718
sg27
g28
sg640
L3L
sg641
(I8
I16
I8
tp719
sg22
I1
sg20
F4.0647890892578289
sg23
F4.3147704536968376
sVY
L2L
sVX
L9L
sg643
g661
sg35
g36
sg37
g38
sg21
S'8'
sg19
S'space'
p720
sg34
g11
sg645
L8L
sg646
g685
sg648
L8L
sS'block.thisIndex'
p721
I6
sg650
g665
sg652
L0L
sg653
VUBUxy
p722
sa(dp723
S'block.thisTrialN'
p724
I8
sS'block.thisRepN'
p725
I0
sg29
g33
sS'block.thisN'
p726
I8
sg638
(S'SUBTRACT'
S'INCREASE'
S'HALF'
S'x'
S'y'
tp727
sg27
g28
sg640
L3L
sg641
(I4
I5
I3
tp728
sg22
I1
sg20
F4.3827641585667152
sg23
F3.3330196494061965
sVY
L2L
sVX
L8L
sg643
g665
sg35
g36
sg37
g38
sg21
S'3'
sg19
S'space'
p729
sg34
g11
sg645
L3L
sg646
g651
sg648
L3L
sS'block.thisIndex'
p730
I5
sg650
g663
sg652
L0L
sg653
VBUUxy
p731
sa(dp732
S'block.thisTrialN'
p733
I9
sS'block.thisRepN'
p734
I0
sg29
g33
sS'block.thisN'
p735
I9
sg638
(S'DIVIDE'
S'TRIPLE'
S'DECREASE'
S'x'
S'y'
tp736
sg27
g28
sg640
L3L
sg641
(I6
I18
I9
tp737
sg22
I1
sg20
F4.8988353565509897
sg23
F5.2976176936062984
sVY
L2L
sVX
L7L
sg643
g661
sg35
g36
sg37
g38
sg21
S'9'
sg19
S'space'
p738
sg34
g11
sg645
L9L
sg646
g666
sg648
L9L
sS'block.thisIndex'
p739
I4
sg650
g647
sg652
L0L
sg653
g731
sa(dp740
S'block.thisTrialN'
p741
I10
sS'block.thisRepN'
p742
I0
sg29
g33
sS'block.thisN'
p743
I10
sg638
(S'SUBTRACT'
S'TRIPLE'
S'x'
S'y'
tp744
sg27
g28
sg640
L2L
sg641
(I12
I9
tp745
sg22
I1
sg20
F3.2678753471991513
sg23
F2.9321294822730124
sVY
L3L
sVX
L4L
sg643
L0L
sg35
g36
sg37
g38
sg21
S'9'
sg19
S'space'
p746
sg34
g11
sg645
L9L
sg646
g666
sg648
L9L
sS'block.thisIndex'
p747
I1
sg650
g663
sg652
L0L
sg653
VBUxy
p748
sa(dp749
S'block.thisTrialN'
p750
I11
sS'block.thisRepN'
p751
I0
sg29
g33
sS'block.thisN'
p752
I11
sg638
(S'INCREASE'
S'DIVIDE'
S'TRIPLE'
S'x'
S'y'
tp753
sg27
g28
sg640
L3L
sg641
(I6
I2
I3
tp754
sg22
I1
sg20
F5.6668582133424934
sg23
F7.1273891569580883
sVY
L3L
sVX
L2L
sg643
g666
sg35
g36
sg37
g38
sg21
S'3'
sg19
S'space'
p755
sg34
g11
sg645
L3L
sg646
g647
sg648
L3L
sS'block.thisIndex'
p756
I7
sg650
g651
sg652
L0L
sg653
g722
sa(dp757
S'block.thisTrialN'
p758
I12
sS'block.thisRepN'
p759
I0
sg29
g33
sS'block.thisN'
p760
I12
sg638
(S'ADD'
S'HALF'
S'x'
S'y'
tp761
sg27
g28
sg640
L2L
sg641
(I2
I7
tp762
sg22
I1
sg20
F3.0886412003019359
sg23
F1.7487430186592974
sVY
L5L
sVX
L4L
sg643
L0L
sg35
g36
sg37
g38
sg21
S'7'
sg19
S'space'
p763
sg34
g11
sg645
L7L
sg646
g665
sg648
L7L
sS'block.thisIndex'
p764
I0
sg650
VADD
p765
sg652
L0L
sg653
g748
sa(dp766
S'block.thisTrialN'
p767
I13
sS'block.thisRepN'
p768
I0
sg29
g33
sS'block.thisN'
p769
I13
sg638
(S'THIRD'
S'INCREASE'
S'HALF'
S'TIMES'
S'x'
S'y'
tp770
sg27
g28
sg640
L4L
sg641
(I28
I14
I15
I5
tp771
sg22
I1
sg20
F8.2101436215161812
sg23
F14.007627454062458
sVY
L4L
sVX
L7L
sg643
g665
sg35
g36
sg37
g38
sg21
S'5'
sg19
S'space'
p772
sg34
g11
sg645
L5L
sg646
g651
sg648
L5L
sS'block.thisIndex'
p773
I17
sg650
g686
sg652
g685
sg653
VUUUBxy
p774
sa(dp775
S'block.thisTrialN'
p776
I14
sS'block.thisRepN'
p777
I0
sg29
g33
sS'block.thisN'
p778
I14
sg638
(S'TRIPLE'
S'HALF'
S'ADD'
S'x'
S'y'
tp779
sg27
g28
sg640
L3L
sg641
(I6
I3
I9
tp780
sg22
I1
sg20
F4.5015288154827431
sg23
F5.6360103322949726
sVY
L3L
sVX
L3L
sg643
g765
sg35
g36
sg37
g38
sg21
S'9'
sg19
S'space'
p781
sg34
g11
sg645
L9L
sg646
g665
sg648
L9L
sS'block.thisIndex'
p782
I8
sg650
g666
sg652
L0L
sg653
g676
sa(dp783
S'block.thisTrialN'
p784
I15
sS'block.thisRepN'
p785
I0
sg29
g33
sS'block.thisN'
p786
I15
sg638
(S'TRIPLE'
S'DOUBLE'
S'SUBTRACT'
S'INCREASE'
S'x'
S'y'
tp787
sg27
g28
sg640
L4L
sg641
(I5
I1
I2
I6
tp788
sg22
I1
sg20
F3.4437340963631868
sg23
F2.9804874361434486
sVY
L4L
sVX
L4L
sg643
g663
sg35
g36
sg37
g38
sg21
S'6'
sg19
S'space'
p789
sg34
g11
sg645
L6L
sg646
g695
sg648
L6L
sS'block.thisIndex'
p790
I14
sg650
g666
sg652
g651
sg653
g705
sa(dp791
S'block.thisTrialN'
p792
I16
sS'block.thisRepN'
p793
I0
sg29
g33
sS'block.thisN'
p794
I16
sg638
(S'DECREASE'
S'THIRD'
S'DOUBLE'
S'ADD'
S'x'
S'y'
tp795
sg27
g28
sg640
L4L
sg641
(I9
I18
I6
I5
tp796
sg22
I1
sg20
F5.1370666970906314
sg23
F6.1034488551085815
sVY
L4L
sVX
L5L
sg643
g695
sg35
g36
sg37
g38
sg21
S'5'
sg19
S'space'
p797
sg34
g11
sg645
L5L
sg646
g686
sg648
L5L
sS'block.thisIndex'
p798
I16
sg650
g661
sg652
g765
sg653
g774
sa(dp799
S'block.thisTrialN'
p800
I17
sS'block.thisRepN'
p801
I0
sg29
g33
sS'block.thisN'
p802
I17
sg638
(S'DOUBLE'
S'DIVIDE'
S'x'
S'y'
tp803
sg27
g28
sg640
L2L
sg641
(I1
I2
tp804
sg22
I1
sg20
F8.8985697342432104
sg23
F2.7259271494986024
sVY
L8L
sVX
L8L
sg643
L0L
sg35
g36
sg37
g38
sg21
S'2'
sg19
S'space'
p805
sg34
g11
sg645
L2L
sg646
g647
sg648
L2L
sS'block.thisIndex'
p806
I2
sg650
g695
sg652
L0L
sg653
g654
sa(dp807
S'block.thisTrialN'
p808
I0
sS'block.thisRepN'
p809
I0
sg29
g33
sS'block.thisN'
p810
I0
sVRule
p811
(S'THIRD'
S'DECREASE'
S'TIMES'
S'x'
S'y'
tp812
sg27
g28
sVLength
p813
L3L
sVIntermediate
p814
(I25
I24
I8
tp815
sg22
I1
sg20
F7.2089586451766081
sg23
F3.6534626611683052
sVY
L5L
sVX
L5L
sVOperatorc
p816
VTIMES
p817
sg35
g36
sg37
g38
sg21
S'8'
sg19
S'space'
p818
sg34
g11
sVResult
p819
L8L
sVOperatora
p820
Vdecrease
p821
sVCorrectResponse
p822
L8L
sS'block.thisIndex'
p823
I8
sVOperatorb
p824
Vthird
p825
sVOperatord
p826
L0L
sVStructure
p827
VUUBxy
p828
sa(dp829
S'block.thisTrialN'
p830
I1
sS'block.thisRepN'
p831
I0
sg29
g33
sS'block.thisN'
p832
I1
sg811
(S'THIRD'
S'INCREASE'
S'HALF'
S'DIVIDE'
S'x'
S'y'
tp833
sg27
g28
sg813
L4L
sg814
(I4
I2
I3
I1
tp834
sg22
I1
sg20
F11.700290924636647
sg23
F5.5726035987900104
sVY
L2L
sVX
L8L
sg816
Vhalf
p835
sg35
g36
sg37
g38
sg21
S'1'
sg19
S'space'
p836
sg34
g11
sg819
L1L
sg820
Vincrease
p837
sg822
L1L
sS'block.thisIndex'
p838
I16
sg824
g825
sg826
VDIVIDE
p839
sg827
VUUUBxy
p840
sa(dp841
S'block.thisTrialN'
p842
I2
sS'block.thisRepN'
p843
I0
sg29
g33
sS'block.thisN'
p844
I2
sg811
(S'TIMES'
S'INCREASE'
S'x'
S'y'
tp845
sg27
g28
sg813
L2L
sg814
(I3
I6
tp846
sg22
I1
sg20
F2.0643831316265278
sg23
F1.2504965107073076
sVY
L2L
sVX
L2L
sg816
L0L
sg35
g36
sg37
g38
sg21
S'6'
sg19
S'space'
p847
sg34
g11
sg819
L6L
sg820
g837
sg822
L6L
sS'block.thisIndex'
p848
I1
sg824
g817
sg826
L0L
sg827
VBUxy
p849
sa(dp850
S'block.thisTrialN'
p851
I3
sS'block.thisRepN'
p852
I0
sg29
g33
sS'block.thisN'
p853
I3
sg811
(S'TIMES'
S'DECREASE'
S'HALF'
S'x'
S'y'
tp854
sg27
g28
sg813
L3L
sg814
(I4
I3
I9
tp855
sg22
I1
sg20
F8.3583237589045893
sg23
F4.6976700481318403
sVY
L3L
sVX
L8L
sg816
g835
sg35
g36
sg37
g38
sg21
S'9'
sg19
S'space'
p856
sg34
g11
sg819
L9L
sg820
g821
sg822
L9L
sS'block.thisIndex'
p857
I4
sg824
g817
sg826
L0L
sg827
VBUUxy
p858
sa(dp859
S'block.thisTrialN'
p860
I4
sS'block.thisRepN'
p861
I0
sg29
g33
sS'block.thisN'
p862
I4
sg811
(S'TRIPLE'
S'DECREASE'
S'HALF'
S'TIMES'
S'x'
S'y'
tp863
sg27
g28
sg813
L4L
sg814
(I6
I3
I2
I6
tp864
sg22
I1
sg20
F6.5266796409559902
sg23
F5.209094430989353
sVY
L2L
sVX
L3L
sg816
g835
sg35
g36
sg37
g38
sg21
S'6'
sg19
S'space'
p865
sg34
g11
sg819
L6L
sg820
g821
sg822
L6L
sS'block.thisIndex'
p866
I17
sg824
Vtriple
p867
sg826
g817
sg827
g840
sa(dp868
S'block.thisTrialN'
p869
I5
sS'block.thisRepN'
p870
I0
sg29
g33
sS'block.thisN'
p871
I5
sg811
(S'TIMES'
S'INCREASE'
S'THIRD'
S'DOUBLE'
S'x'
S'y'
tp872
sg27
g28
sg813
L4L
sg814
(I6
I2
I3
I9
tp873
sg22
I1
sg20
F12.598728722659871
sg23
F5.9554188520414755
sVY
L3L
sVX
L3L
sg816
g825
sg35
g36
sg37
g38
sg21
S'9'
sg19
S'space'
p874
sg34
g11
sg819
L9L
sg820
g837
sg822
L9L
sS'block.thisIndex'
p875
I11
sg824
g817
sg826
Vdouble
p876
sg827
VBUUUxy
p877
sa(dp878
S'block.thisTrialN'
p879
I6
sS'block.thisRepN'
p880
I0
sg29
g33
sS'block.thisN'
p881
I6
sg811
(S'THIRD'
S'TIMES'
S'DECREASE'
S'x'
S'y'
tp882
sg27
g28
sg813
L3L
sg814
(I3
I15
I5
tp883
sg22
I1
sg20
F2.8343878316227347
sg23
F3.9237786536978092
sVY
L5L
sVX
L4L
sg816
g821
sg35
g36
sg37
g38
sg21
S'5'
sg19
S'space'
p884
sg34
g11
sg819
L5L
sg820
g817
sg822
L5L
sS'block.thisIndex'
p885
I7
sg824
g825
sg826
L0L
sg827
VUBUxy
p886
sa(dp887
S'block.thisTrialN'
p888
I7
sS'block.thisRepN'
p889
I0
sg29
g33
sS'block.thisN'
p890
I7
sg811
(S'THIRD'
S'DOUBLE'
S'ADD'
S'INCREASE'
S'x'
S'y'
tp891
sg27
g28
sg813
L4L
sg814
(I10
I12
I24
I8
tp892
sg22
I1
sg20
F11.494848712551175
sg23
F4.5788290991913527
sVY
L2L
sVX
L9L
sg816
VADD
p893
sg35
g36
sg37
g38
sg21
S'8'
sg19
S'space'
p894
sg34
g11
sg819
L8L
sg820
g876
sg822
L8L
sS'block.thisIndex'
p895
I14
sg824
g825
sg826
g837
sg827
VUUBUxy
p896
sa(dp897
S'block.thisTrialN'
p898
I8
sS'block.thisRepN'
p899
I0
sg29
g33
sS'block.thisN'
p900
I8
sg811
(S'TIMES'
S'DECREASE'
S'x'
S'y'
tp901
sg27
g28
sg813
L2L
sg814
(I2
I4
tp902
sg22
I1
sg20
F1.7040145360806491
sg23
F1.3619651289482135
sVY
L2L
sVX
L3L
sg816
L0L
sg35
g36
sg37
g38
sg21
S'4'
sg19
S'space'
p903
sg34
g11
sg819
L4L
sg820
g821
sg822
L4L
sS'block.thisIndex'
p904
I0
sg824
g817
sg826
L0L
sg827
g849
sa(dp905
S'block.thisTrialN'
p906
I9
sS'block.thisRepN'
p907
I0
sg29
g33
sS'block.thisN'
p908
I9
sg811
(S'TRIPLE'
S'HALF'
S'ADD'
S'DECREASE'
S'x'
S'y'
tp909
sg27
g28
sg813
L4L
sg814
(I1
I4
I2
I6
tp910
sg22
I1
sg20
F8.0063570866477676
sg23
F3.6555193965614308
sVY
L3L
sVX
L2L
sg816
g893
sg35
g36
sg37
g38
sg21
S'6'
sg19
S'space'
p911
sg34
g11
sg819
L6L
sg820
g835
sg822
L6L
sS'block.thisIndex'
p912
I15
sg824
g867
sg826
g821
sg827
g896
sa(dp913
S'block.thisTrialN'
p914
I10
sS'block.thisRepN'
p915
I0
sg29
g33
sS'block.thisN'
p916
I10
sg811
(S'TRIPLE'
S'HALF'
S'DIVIDE'
S'x'
S'y'
tp917
sg27
g28
sg813
L3L
sg814
(I2
I1
I3
tp918
sg22
I1
sg20
F2.1927724842098542
sg23
F4.3544283153896686
sVY
L2L
sVX
L4L
sg816
g839
sg35
g36
sg37
g38
sg21
S'3'
sg19
S'space'
p919
sg34
g11
sg819
L3L
sg820
g835
sg822
L3L
sS'block.thisIndex'
p920
I9
sg824
g867
sg826
L0L
sg827
g828
sa(dp921
S'block.thisTrialN'
p922
I11
sS'block.thisRepN'
p923
I0
sg29
g33
sS'block.thisN'
p924
I11
sg811
(S'THIRD'
S'ADD'
S'INCREASE'
S'x'
S'y'
tp925
sg27
g28
sg813
L3L
sg814
(I8
I15
I5
tp926
sg22
I1
sg20
F2.7855945232149679
sg23
F4.0177193509880453
sVY
L7L
sVX
L7L
sg816
g837
sg35
g36
sg37
g38
sg21
S'5'
sg19
S'space'
p927
sg34
g11
sg819
L5L
sg820
g893
sg822
L5L
sS'block.thisIndex'
p928
I6
sg824
g825
sg826
L0L
sg827
g886
sa(dp929
S'block.thisTrialN'
p930
I12
sS'block.thisRepN'
p931
I0
sg29
g33
sS'block.thisN'
p932
I12
sg811
(S'TIMES'
S'THIRD'
S'HALF'
S'x'
S'y'
tp933
sg27
g28
sg813
L3L
sg814
(I3
I1
I5
tp934
sg22
I1
sg20
F7.4747552092885599
sg23
F5.7013845605251845
sVY
L5L
sVX
L6L
sg816
g835
sg35
g36
sg37
g38
sg21
S'5'
sg19
S'space'
p935
sg34
g11
sg819
L5L
sg820
g825
sg822
L5L
sS'block.thisIndex'
p936
I5
sg824
g817
sg826
L0L
sg827
g858
sa(dp937
S'block.thisTrialN'
p938
I13
sS'block.thisRepN'
p939
I0
sg29
g33
sS'block.thisN'
p940
I13
sg811
(S'THIRD'
S'ADD'
S'x'
S'y'
tp941
sg27
g28
sg813
L2L
sg814
(I9
I3
tp942
sg22
I1
sg20
F2.0810851387795992
sg23
F1.4610831859754398
sVY
L5L
sVX
L4L
sg816
L0L
sg35
g36
sg37
g38
sg21
S'3'
sg19
S'space'
p943
sg34
g11
sg819
L3L
sg820
g893
sg822
L3L
sS'block.thisIndex'
p944
I2
sg824
g825
sg826
L0L
sg827
VUBxy
p945
sa(dp946
S'block.thisTrialN'
p947
I14
sS'block.thisRepN'
p948
I0
sg29
g33
sS'block.thisN'
p949
I14
sg811
(S'TRIPLE'
S'SUBTRACT'
S'DOUBLE'
S'DECREASE'
S'x'
S'y'
tp950
sg27
g28
sg813
L4L
sg814
(I2
I4
I1
I3
tp951
sg22
I0
sg20
F11.337951334775425
sg23
F5.9373365889478009
sVY
L3L
sVX
L3L
sg816
g876
sg35
g36
sg37
g38
sg21
S'9'
sg19
S'space'
p952
sg34
g11
sg819
L3L
sg820
VSUBTRACT
p953
sg822
L3L
sS'block.thisIndex'
p954
I13
sg824
g867
sg826
g821
sg827
VUBUUxy
p955
sa(dp956
S'block.thisTrialN'
p957
I15
sS'block.thisRepN'
p958
I0
sg29
g33
sS'block.thisN'
p959
I15
sg811
(S'SUBTRACT'
S'HALF'
S'INCREASE'
S'TRIPLE'
S'x'
S'y'
tp960
sg27
g28
sg813
L4L
sg814
(I15
I16
I8
I3
tp961
sg22
I1
sg20
F8.5826650488888845
sg23
F8.5341086657717824
sVY
L5L
sVX
L5L
sg816
g837
sg35
g36
sg37
g38
sg21
S'3'
sg19
S'space'
p962
sg34
g11
sg819
L3L
sg820
g835
sg822
L3L
sS'block.thisIndex'
p963
I10
sg824
g953
sg826
g867
sg827
g877
sa(dp964
S'block.thisTrialN'
p965
I16
sS'block.thisRepN'
p966
I0
sg29
g33
sS'block.thisN'
p967
I16
sg811
(S'INCREASE'
S'DIVIDE'
S'TRIPLE'
S'DOUBLE'
S'x'
S'y'
tp968
sg27
g28
sg813
L4L
sg814
(I6
I18
I3
I4
tp969
sg22
I1
sg20
F7.7128777111938689
sg23
F2.2112099602527451
sVY
L6L
sVX
L3L
sg816
g867
sg35
g36
sg37
g38
sg21
S'4'
sg19
S'space'
p970
sg34
g11
sg819
L4L
sg820
g839
sg822
L4L
sS'block.thisIndex'
p971
I12
sg824
g837
sg826
g876
sg827
g955
sa(dp972
S'block.thisTrialN'
p973
I17
sS'block.thisRepN'
p974
I0
sg29
g33
sS'block.thisN'
p975
I17
sg811
(S'THIRD'
S'SUBTRACT'
S'x'
S'y'
tp976
sg27
g28
sg813
L2L
sg814
(I3
I1
tp977
sg22
I1
sg20
F2.966901853797026
sg23
F1.1769061898230575
sVY
L2L
sVX
L5L
sg816
L0L
sg35
g36
sg37
g38
sg21
S'1'
sg19
S'space'
p978
sg34
g11
sg819
L1L
sg820
g953
sg822
L1L
sS'block.thisIndex'
p979
I3
sg824
g825
sg826
L0L
sg827
g945
sa(dp980
S'block.thisTrialN'
p981
I0
sS'block.thisRepN'
p982
I0
sg29
g33
sS'block.thisN'
p983
I0
sVRule
p984
(S'ADD'
S'DECREASE'
S'HALF'
S'x'
S'y'
tp985
sg27
g28
sVLength
p986
L3L
sVIntermediate
p987
(I3
I2
I6
tp988
sg22
I1
sg20
F9.8769003454362974
sg23
F4.1350841539679095
sVY
L4L
sVX
L6L
sVOperatorc
p989
Vhalf
p990
sg35
g36
sg37
g38
sg21
S'6'
sg19
S'space'
p991
sg34
g11
sVResult
p992
L6L
sVOperatora
p993
Vdecrease
p994
sVCorrectResponse
p995
L6L
sS'block.thisIndex'
p996
I4
sVOperatorb
p997
VADD
p998
sVOperatord
p999
L0L
sVStructure
p1000
VBUUxy
p1001
sa(dp1002
S'block.thisTrialN'
p1003
I1
sS'block.thisRepN'
p1004
I0
sg29
g33
sS'block.thisN'
p1005
I1
sg984
(S'DIVIDE'
S'DECREASE'
S'THIRD'
S'DOUBLE'
S'x'
S'y'
tp1006
sg27
g28
sg986
L4L
sg987
(I12
I4
I3
I1
tp1007
sg22
I1
sg20
F10.002768561098492
sg23
F5.6960836636717431
sVY
L3L
sVX
L6L
sg989
Vthird
p1008
sg35
g36
sg37
g38
sg21
S'1'
sg19
S'space'
p1009
sg34
g11
sg992
L1L
sg993
g994
sg995
L1L
sS'block.thisIndex'
p1010
I10
sg997
VDIVIDE
p1011
sg999
Vdouble
p1012
sg1000
VBUUUxy
p1013
sa(dp1014
S'block.thisTrialN'
p1015
I2
sS'block.thisRepN'
p1016
I0
sg29
g33
sS'block.thisN'
p1017
I2
sg984
(S'INCREASE'
S'TIMES'
S'x'
S'y'
tp1018
sg27
g28
sg986
L2L
sg987
(I8
I9
tp1019
sg22
I1
sg20
F1.6518489795853384
sg23
F4.5000089240784291
sVY
L4L
sVX
L2L
sg989
L0L
sg35
g36
sg37
g38
sg21
S'9'
sg19
S'space'
p1020
sg34
g11
sg992
L9L
sg993
VTIMES
p1021
sg995
L9L
sS'block.thisIndex'
p1022
I2
sg997
Vincrease
p1023
sg999
L0L
sg1000
VUBxy
p1024
sa(dp1025
S'block.thisTrialN'
p1026
I3
sS'block.thisRepN'
p1027
I0
sg29
g33
sS'block.thisN'
p1028
I3
sg984
(S'TRIPLE'
S'SUBTRACT'
S'x'
S'y'
tp1029
sg27
g28
sg986
L2L
sg987
(I2
I6
tp1030
sg22
I1
sg20
F4.7907627839013003
sg23
F3.4113264280895237
sVY
L6L
sVX
L8L
sg989
L0L
sg35
g36
sg37
g38
sg21
S'6'
sg19
S'space'
p1031
sg34
g11
sg992
L6L
sg993
VSUBTRACT
p1032
sg995
L6L
sS'block.thisIndex'
p1033
I3
sg997
Vtriple
p1034
sg999
L0L
sg1000
g1024
sa(dp1035
S'block.thisTrialN'
p1036
I4
sS'block.thisRepN'
p1037
I0
sg29
g33
sS'block.thisN'
p1038
I4
sg984
(S'DECREASE'
S'HALF'
S'TRIPLE'
S'ADD'
S'x'
S'y'
tp1039
sg27
g28
sg986
L4L
sg987
(I4
I12
I6
I5
tp1040
sg22
I0
sg20
F7.092609086248558
sg23
F16.005110166763188
sVY
L2L
sVX
L2L
sg989
g1034
sg35
g36
sg37
g38
sg21
S'4'
sg19
S'space'
p1041
sg34
g11
sg992
L5L
sg993
g990
sg995
L5L
sS'block.thisIndex'
p1042
I16
sg997
g994
sg999
g998
sg1000
VUUUBxy
p1043
sa(dp1044
S'block.thisTrialN'
p1045
I5
sS'block.thisRepN'
p1046
I0
sg29
g33
sS'block.thisN'
p1047
I5
sg984
(S'TIMES'
S'THIRD'
S'x'
S'y'
tp1048
sg27
g28
sg986
L2L
sg987
(I1
I4
tp1049
sg22
I1
sg20
F2.5637876687396783
sg23
F1.8627611208939925
sVY
L4L
sVX
L3L
sg989
L0L
sg35
g36
sg37
g38
sg21
S'4'
sg19
S'space'
p1050
sg34
g11
sg992
L4L
sg993
g1008
sg995
L4L
sS'block.thisIndex'
p1051
I1
sg997
g1021
sg999
L0L
sg1000
VBUxy
p1052
sa(dp1053
S'block.thisTrialN'
p1054
I6
sS'block.thisRepN'
p1055
I0
sg29
g33
sS'block.thisN'
p1056
I6
sg984
(S'DECREASE'
S'DIVIDE'
S'TRIPLE'
S'DOUBLE'
S'x'
S'y'
tp1057
sg27
g28
sg986
L4L
sg987
(I6
I18
I2
I1
tp1058
sg22
I1
sg20
F4.8355231131718028
sg23
F2.6770809965964872
sVY
L9L
sVX
L3L
sg989
g1034
sg35
g36
sg37
g38
sg21
S'1'
sg19
S'space'
p1059
sg34
g11
sg992
L1L
sg993
g1011
sg995
L1L
sS'block.thisIndex'
p1060
I12
sg997
g994
sg999
g1012
sg1000
VUBUUxy
p1061
sa(dp1062
S'block.thisTrialN'
p1063
I7
sS'block.thisRepN'
p1064
I0
sg29
g33
sS'block.thisN'
p1065
I7
sg984
(S'INCREASE'
S'HALF'
S'TIMES'
S'TRIPLE'
S'x'
S'y'
tp1066
sg27
g28
sg986
L4L
sg987
(I6
I12
I6
I7
tp1067
sg22
I0
sg20
F5.7012011796468869
sg23
F6.3425876509863883
sVY
L2L
sVX
L2L
sg989
g1021
sg35
g36
sg37
g38
sg21
S'5'
sg19
S'space'
p1068
sg34
g11
sg992
L7L
sg993
g990
sg995
L7L
sS'block.thisIndex'
p1069
I14
sg997
g1023
sg999
g1034
sg1000
VUUBUxy
p1070
sa(dp1071
S'block.thisTrialN'
p1072
I8
sS'block.thisRepN'
p1073
I0
sg29
g33
sS'block.thisN'
p1074
I8
sg984
(S'INCREASE'
S'TRIPLE'
S'HALF'
S'ADD'
S'x'
S'y'
tp1075
sg27
g28
sg986
L4L
sg987
(I4
I2
I6
I7
tp1076
sg22
I1
sg20
F7.8123100354569033
sg23
F6.6135258785798214
sVY
L2L
sVX
L2L
sg989
g990
sg35
g36
sg37
g38
sg21
S'7'
sg19
S'space'
p1077
sg34
g11
sg992
L7L
sg993
g1034
sg995
L7L
sS'block.thisIndex'
p1078
I17
sg997
g1023
sg999
g998
sg1000
g1043
sa(dp1079
S'block.thisTrialN'
p1080
I9
sS'block.thisRepN'
p1081
I0
sg29
g33
sS'block.thisN'
p1082
I9
sg984
(S'TRIPLE'
S'HALF'
S'TIMES'
S'x'
S'y'
tp1083
sg27
g28
sg986
L3L
sg987
(I6
I3
I9
tp1084
sg22
I1
sg20
F4.7030906325089745
sg23
F4.9017299044935498
sVY
L3L
sVX
L2L
sg989
g1021
sg35
g36
sg37
g38
sg21
S'9'
sg19
S'space'
p1085
sg34
g11
sg992
L9L
sg993
g990
sg995
L9L
sS'block.thisIndex'
p1086
I9
sg997
g1034
sg999
L0L
sg1000
VUUBxy
p1087
sa(dp1088
S'block.thisTrialN'
p1089
I10
sS'block.thisRepN'
p1090
I0
sg29
g33
sS'block.thisN'
p1091
I10
sg984
(S'DECREASE'
S'HALF'
S'DIVIDE'
S'x'
S'y'
tp1092
sg27
g28
sg986
L3L
sg987
(I4
I2
I1
tp1093
sg22
I1
sg20
F2.888676616596058
sg23
F3.8120545620913617
sVY
L2L
sVX
L8L
sg989
g1011
sg35
g36
sg37
g38
sg21
S'1'
sg19
S'space'
p1094
sg34
g11
sg992
L1L
sg993
g990
sg995
L1L
sS'block.thisIndex'
p1095
I8
sg997
g994
sg999
L0L
sg1000
g1087
sa(dp1096
S'block.thisTrialN'
p1097
I11
sS'block.thisRepN'
p1098
I0
sg29
g33
sS'block.thisN'
p1099
I11
sg984
(S'THIRD'
S'INCREASE'
S'SUBTRACT'
S'HALF'
S'x'
S'y'
tp1100
sg27
g28
sg986
L4L
sg987
(I4
I2
I3
I1
tp1101
sg22
I1
sg20
F8.6703438496042509
sg23
F6.2941425562312361
sVY
L2L
sVX
L8L
sg989
g1032
sg35
g36
sg37
g38
sg21
S'1'
sg19
S'space'
p1102
sg34
g11
sg992
L1L
sg993
g1023
sg995
L1L
sS'block.thisIndex'
p1103
I15
sg997
g1008
sg999
g990
sg1000
g1070
sa(dp1104
S'block.thisTrialN'
p1105
I12
sS'block.thisRepN'
p1106
I0
sg29
g33
sS'block.thisN'
p1107
I12
sg984
(S'TIMES'
S'DECREASE'
S'THIRD'
S'DOUBLE'
S'x'
S'y'
tp1108
sg27
g28
sg986
L4L
sg987
(I6
I2
I1
I2
tp1109
sg22
I1
sg20
F10.070206523960223
sg23
F5.7669379700382706
sVY
L2L
sVX
L3L
sg989
g1008
sg35
g36
sg37
g38
sg21
S'2'
sg19
S'space'
p1110
sg34
g11
sg992
L2L
sg993
g994
sg995
L2L
sS'block.thisIndex'
p1111
I11
sg997
g1021
sg999
g1012
sg1000
g1013
sa(dp1112
S'block.thisTrialN'
p1113
I13
sS'block.thisRepN'
p1114
I0
sg29
g33
sS'block.thisN'
p1115
I13
sg984
(S'DOUBLE'
S'TIMES'
S'THIRD'
S'x'
S'y'
tp1116
sg27
g28
sg986
L3L
sg987
(I1
I4
I8
tp1117
sg22
I1
sg20
F5.8271036917285528
sg23
F7.9104418953938875
sVY
L4L
sVX
L3L
sg989
g1008
sg35
g36
sg37
g38
sg21
S'8'
sg19
S'space'
p1118
sg34
g11
sg992
L8L
sg993
g1021
sg995
L8L
sS'block.thisIndex'
p1119
I6
sg997
g1012
sg999
L0L
sg1000
VUBUxy
p1120
sa(dp1121
S'block.thisTrialN'
p1122
I14
sS'block.thisRepN'
p1123
I0
sg29
g33
sS'block.thisN'
p1124
I14
sg984
(S'TRIPLE'
S'SUBTRACT'
S'INCREASE'
S'HALF'
S'x'
S'y'
tp1125
sg27
g28
sg986
L4L
sg987
(I3
I4
I1
I3
tp1126
sg22
I1
sg20
F11.122678998421179
sg23
F5.3015033381525427
sVY
L3L
sVX
L6L
sg989
g1023
sg35
g36
sg37
g38
sg21
S'3'
sg19
S'space'
p1127
sg34
g11
sg992
L3L
sg993
g1032
sg995
L3L
sS'block.thisIndex'
p1128
I13
sg997
g1034
sg999
g990
sg1000
g1061
sa(dp1129
S'block.thisTrialN'
p1130
I15
sS'block.thisRepN'
p1131
I0
sg29
g33
sS'block.thisN'
p1132
I15
sg984
(S'SUBTRACT'
S'THIRD'
S'x'
S'y'
tp1133
sg27
g28
sg986
L2L
sg987
(I3
I1
tp1134
sg22
I1
sg20
F1.7340127057686914
sg23
F5.2533648113894742
sVY
L2L
sVX
L9L
sg989
L0L
sg35
g36
sg37
g38
sg21
S'1'
sg19
S'space'
p1135
sg34
g11
sg992
L1L
sg993
g1008
sg995
L1L
sS'block.thisIndex'
p1136
I0
sg997
g1032
sg999
L0L
sg1000
g1052
sa(dp1137
S'block.thisTrialN'
p1138
I16
sS'block.thisRepN'
p1139
I0
sg29
g33
sS'block.thisN'
p1140
I16
sg984
(S'SUBTRACT'
S'DOUBLE'
S'DECREASE'
S'x'
S'y'
tp1141
sg27
g28
sg986
L3L
sg987
(I8
I16
I7
tp1142
sg22
I1
sg20
F2.2889253006433137
sg23
F4.2959620163892396
sVY
L9L
sVX
L9L
sg989
g994
sg35
g36
sg37
g38
sg21
S'7'
sg19
S'space'
p1143
sg34
g11
sg992
L7L
sg993
g1012
sg995
L7L
sS'block.thisIndex'
p1144
I5
sg997
g1032
sg999
L0L
sg1000
g1001
sa(dp1145
S'block.thisTrialN'
p1146
I17
sS'block.thisRepN'
p1147
I0
sg29
g33
sS'block.thisN'
p1148
I17
sg984
(S'INCREASE'
S'DIVIDE'
S'HALF'
S'x'
S'y'
tp1149
sg27
g28
sg986
L3L
sg987
(I2
I1
I2
tp1150
sg22
I1
sg20
F5.5570526215597056
sg23
F2.4335816557577346
sVY
L2L
sVX
L4L
sg989
g990
sg35
g36
sg37
g38
sg21
S'2'
sg19
S'space'
p1151
sg34
g11
sg992
L2L
sg993
g1011
sg995
L2L
sS'block.thisIndex'
p1152
I7
sg997
g1023
sg999
L0L
sg1000
g1120
sa(dp1153
S'block.thisTrialN'
p1154
I0
sS'block.thisRepN'
p1155
I0
sg29
g33
sS'block.thisN'
p1156
I0
sVRule
p1157
(S'THIRD'
S'TIMES'
S'DOUBLE'
S'DECREASE'
S'x'
S'y'
tp1158
sg27
g28
sVLength
p1159
L4L
sVIntermediate
p1160
(I1
I2
I6
I2
tp1161
sg22
I1
sg20
F9.1219160780601669
sg23
F14.164637520065298
sVY
L3L
sVX
L2L
sVOperatorc
p1162
Vdouble
p1163
sg35
g36
sg37
g38
sg21
S'2'
sg19
S'space'
p1164
sg34
g11
sVResult
p1165
L2L
sVOperatora
p1166
VTIMES
p1167
sVCorrectResponse
p1168
L2L
sS'block.thisIndex'
p1169
I13
sVOperatorb
p1170
Vthird
p1171
sVOperatord
p1172
Vdecrease
p1173
sVStructure
p1174
VUBUUxy
p1175
sa(dp1176
S'block.thisTrialN'
p1177
I1
sS'block.thisRepN'
p1178
I0
sg29
g33
sS'block.thisN'
p1179
I1
sg1157
(S'ADD'
S'HALF'
S'THIRD'
S'x'
S'y'
tp1180
sg27
g28
sg1159
L3L
sg1160
(I2
I1
I9
tp1181
sg22
I1
sg20
F4.0207622834423091
sg23
F2.7868361936416477
sVY
L8L
sVX
L6L
sg1162
g1171
sg35
g36
sg37
g38
sg21
S'9'
sg19
S'space'
p1182
sg34
g11
sg1165
L9L
sg1166
Vhalf
p1183
sg1168
L9L
sS'block.thisIndex'
p1184
I4
sg1170
VADD
p1185
sg1172
L0L
sg1174
VBUUxy
p1186
sa(dp1187
S'block.thisTrialN'
p1188
I2
sS'block.thisRepN'
p1189
I0
sg29
g33
sS'block.thisN'
p1190
I2
sg1157
(S'DOUBLE'
S'ADD'
S'INCREASE'
S'THIRD'
S'x'
S'y'
tp1191
sg27
g28
sg1159
L4L
sg1160
(I1
I2
I4
I8
tp1192
sg22
I0
sg20
F11.383510980638675
sg23
F9.927201996470103
sVY
L2L
sVX
L3L
sg1162
Vincrease
p1193
sg35
g36
sg37
g38
sg21
S'4'
sg19
S'space'
p1194
sg34
g11
sg1165
L8L
sg1166
g1185
sg1168
L8L
sS'block.thisIndex'
p1195
I12
sg1170
g1163
sg1172
g1171
sg1174
g1175
sa(dp1196
S'block.thisTrialN'
p1197
I3
sS'block.thisRepN'
p1198
I0
sg29
g33
sS'block.thisN'
p1199
I3
sg1157
(S'DECREASE'
S'DIVIDE'
S'x'
S'y'
tp1200
sg27
g28
sg1159
L2L
sg1160
(I2
I1
tp1201
sg22
I1
sg20
F1.8570465671655256
sg23
F2.1482294822635595
sVY
L4L
sVX
L8L
sg1162
L0L
sg35
g36
sg37
g38
sg21
S'1'
sg19
S'space'
p1202
sg34
g11
sg1165
L1L
sg1166
VDIVIDE
p1203
sg1168
L1L
sS'block.thisIndex'
p1204
I2
sg1170
g1173
sg1172
L0L
sg1174
VUBxy
p1205
sa(dp1206
S'block.thisTrialN'
p1207
I4
sS'block.thisRepN'
p1208
I0
sg29
g33
sS'block.thisN'
p1209
I4
sg1157
(S'INCREASE'
S'ADD'
S'x'
S'y'
tp1210
sg27
g28
sg1159
L2L
sg1160
(I5
I6
tp1211
sg22
I1
sg20
F1.9875454996072222
sg23
F3.360545677045593
sVY
L2L
sVX
L3L
sg1162
L0L
sg35
g36
sg37
g38
sg21
S'6'
sg19
S'space'
p1212
sg34
g11
sg1165
L6L
sg1166
g1185
sg1168
L6L
sS'block.thisIndex'
p1213
I3
sg1170
g1193
sg1172
L0L
sg1174
g1205
sa(dp1214
S'block.thisTrialN'
p1215
I5
sS'block.thisRepN'
p1216
I0
sg29
g33
sS'block.thisN'
p1217
I5
sg1157
(S'THIRD'
S'DOUBLE'
S'INCREASE'
S'TIMES'
S'x'
S'y'
tp1218
sg27
g28
sg1159
L4L
sg1160
(I8
I9
I18
I6
tp1219
sg22
I1
sg20
F5.5878245605272241
sg23
F10.772638875147095
sVY
L4L
sVX
L2L
sg1162
g1193
sg35
g36
sg37
g38
sg21
S'6'
sg19
S'space'
p1220
sg34
g11
sg1165
L6L
sg1166
g1163
sg1168
L6L
sS'block.thisIndex'
p1221
I17
sg1170
g1171
sg1172
g1167
sg1174
VUUUBxy
p1222
sa(dp1223
S'block.thisTrialN'
p1224
I6
sS'block.thisRepN'
p1225
I0
sg29
g33
sS'block.thisN'
p1226
I6
sg1157
(S'DIVIDE'
S'INCREASE'
S'x'
S'y'
tp1227
sg27
g28
sg1159
L2L
sg1160
(I4
I2
tp1228
sg22
I1
sg20
F3.173042592999991
sg23
F3.4757197086582892
sVY
L2L
sVX
L3L
sg1162
L0L
sg35
g36
sg37
g38
sg21
S'2'
sg19
S'space'
p1229
sg34
g11
sg1165
L2L
sg1166
g1193
sg1168
L2L
sS'block.thisIndex'
p1230
I0
sg1170
g1203
sg1172
L0L
sg1174
VBUxy
p1231
sa(dp1232
S'block.thisTrialN'
p1233
I7
sS'block.thisRepN'
p1234
I0
sg29
g33
sS'block.thisN'
p1235
I7
sg1157
(S'HALF'
S'TRIPLE'
S'INCREASE'
S'DIVIDE'
S'x'
S'y'
tp1236
sg27
g28
sg1159
L4L
sg1160
(I3
I4
I12
I6
tp1237
sg22
I1
sg20
F6.4540905656467658
sg23
F5.2698872872570064
sVY
L3L
sVX
L9L
sg1162
g1193
sg35
g36
sg37
g38
sg21
S'6'
sg19
S'space'
p1238
sg34
g11
sg1165
L6L
sg1166
Vtriple
p1239
sg1168
L6L
sS'block.thisIndex'
p1240
I16
sg1170
g1183
sg1172
g1203
sg1174
g1222
sa(dp1241
S'block.thisTrialN'
p1242
I8
sS'block.thisRepN'
p1243
I0
sg29
g33
sS'block.thisN'
p1244
I8
sg1157
(S'SUBTRACT'
S'DECREASE'
S'TRIPLE'
S'DOUBLE'
S'x'
S'y'
tp1245
sg27
g28
sg1159
L4L
sg1160
(I6
I18
I17
I8
tp1246
sg22
I0
sg20
F9.3611168174538761
sg23
F11.768231085094158
sVY
L9L
sVX
L3L
sg1162
g1239
sg35
g36
sg37
g38
sg21
S'9'
sg19
S'space'
p1247
sg34
g11
sg1165
L8L
sg1166
g1173
sg1168
L8L
sS'block.thisIndex'
p1248
I11
sg1170
VSUBTRACT
p1249
sg1172
g1163
sg1174
VBUUUxy
p1250
sa(dp1251
S'block.thisTrialN'
p1252
I9
sS'block.thisRepN'
p1253
I0
sg29
g33
sS'block.thisN'
p1254
I9
sg1157
(S'THIRD'
S'DOUBLE'
S'ADD'
S'DECREASE'
S'x'
S'y'
tp1255
sg27
g28
sg1159
L4L
sg1160
(I5
I12
I24
I8
tp1256
sg22
I1
sg20
F7.013256966631161
sg23
F5.4440623621048871
sVY
L7L
sVX
L6L
sg1162
g1185
sg35
g36
sg37
g38
sg21
S'8'
sg19
S'space'
p1257
sg34
g11
sg1165
L8L
sg1166
g1163
sg1168
L8L
sS'block.thisIndex'
p1258
I14
sg1170
g1171
sg1172
g1173
sg1174
VUUBUxy
p1259
sa(dp1260
S'block.thisTrialN'
p1261
I10
sS'block.thisRepN'
p1262
I0
sg29
g33
sS'block.thisN'
p1263
I10
sg1157
(S'SUBTRACT'
S'DECREASE'
S'x'
S'y'
tp1264
sg27
g28
sg1159
L2L
sg1160
(I5
I3
tp1265
sg22
I1
sg20
F1.8477000924758613
sg23
F2.7400282280286774
sVY
L2L
sVX
L6L
sg1162
L0L
sg35
g36
sg37
g38
sg21
S'3'
sg19
S'space'
p1266
sg34
g11
sg1165
L3L
sg1166
g1173
sg1168
L3L
sS'block.thisIndex'
p1267
I1
sg1170
g1249
sg1172
L0L
sg1174
g1231
sa(dp1268
S'block.thisTrialN'
p1269
I11
sS'block.thisRepN'
p1270
I0
sg29
g33
sS'block.thisN'
p1271
I11
sg1157
(S'INCREASE'
S'TRIPLE'
S'DIVIDE'
S'x'
S'y'
tp1272
sg27
g28
sg1159
L3L
sg1160
(I2
I6
I7
tp1273
sg22
I1
sg20
F10.658538881485583
sg23
F4.8673736395430751
sVY
L3L
sVX
L6L
sg1162
g1203
sg35
g36
sg37
g38
sg21
S'7'
sg19
S'space'
p1274
sg34
g11
sg1165
L7L
sg1166
g1239
sg1168
L7L
sS'block.thisIndex'
p1275
I8
sg1170
g1193
sg1172
L0L
sg1174
VUUBxy
p1276
sa(dp1277
S'block.thisTrialN'
p1278
I12
sS'block.thisRepN'
p1279
I0
sg29
g33
sS'block.thisN'
p1280
I12
sg1157
(S'ADD'
S'DOUBLE'
S'DECREASE'
S'THIRD'
S'x'
S'y'
tp1281
sg27
g28
sg1159
L4L
sg1160
(I2
I1
I2
I8
tp1282
sg22
I1
sg20
F7.9792835617554374
sg23
F4.4856250750017352
sVY
L6L
sVX
L6L
sg1162
g1173
sg35
g36
sg37
g38
sg21
S'8'
sg19
S'space'
p1283
sg34
g11
sg1165
L8L
sg1166
g1163
sg1168
L8L
sS'block.thisIndex'
p1284
I10
sg1170
g1185
sg1172
g1171
sg1174
g1250
sa(dp1285
S'block.thisTrialN'
p1286
I13
sS'block.thisRepN'
p1287
I0
sg29
g33
sS'block.thisN'
p1288
I13
sg1157
(S'INCREASE'
S'SUBTRACT'
S'HALF'
S'x'
S'y'
tp1289
sg27
g28
sg1159
L3L
sg1160
(I4
I2
I3
tp1290
sg22
I1
sg20
F5.2174897049553692
sg23
F4.6593371481867507
sVY
L2L
sVX
L8L
sg1162
g1183
sg35
g36
sg37
g38
sg21
S'3'
sg19
S'space'
p1291
sg34
g11
sg1165
L3L
sg1166
g1249
sg1168
L3L
sS'block.thisIndex'
p1292
I7
sg1170
g1193
sg1172
L0L
sg1174
VUBUxy
p1293
sa(dp1294
S'block.thisTrialN'
p1295
I14
sS'block.thisRepN'
p1296
I0
sg29
g33
sS'block.thisN'
p1297
I14
sg1157
(S'DIVIDE'
S'DECREASE'
S'TRIPLE'
S'x'
S'y'
tp1298
sg27
g28
sg1159
L3L
sg1160
(I9
I8
I4
tp1299
sg22
I1
sg20
F5.7596335322596133
sg23
F2.6971139561501332
sVY
L2L
sVX
L3L
sg1162
g1239
sg35
g36
sg37
g38
sg21
S'4'
sg19
S'space'
p1300
sg34
g11
sg1165
L4L
sg1166
g1173
sg1168
L4L
sS'block.thisIndex'
p1301
I5
sg1170
g1203
sg1172
L0L
sg1174
g1186
sa(dp1302
S'block.thisTrialN'
p1303
I15
sS'block.thisRepN'
p1304
I0
sg29
g33
sS'block.thisN'
p1305
I15
sg1157
(S'THIRD'
S'HALF'
S'ADD'
S'x'
S'y'
tp1306
sg27
g28
sg1159
L3L
sg1160
(I6
I3
I1
tp1307
sg22
I1
sg20
F5.0739770304935519
sg23
F1.6568811044562608
sVY
L3L
sVX
L3L
sg1162
g1185
sg35
g36
sg37
g38
sg21
S'1'
sg19
S'space'
p1308
sg34
g11
sg1165
L1L
sg1166
g1183
sg1168
L1L
sS'block.thisIndex'
p1309
I9
sg1170
g1171
sg1172
L0L
sg1174
g1276
sa(dp1310
S'block.thisTrialN'
p1311
I16
sS'block.thisRepN'
p1312
I0
sg29
g33
sS'block.thisN'
p1313
I16
sg1157
(S'THIRD'
S'INCREASE'
S'DIVIDE'
S'DOUBLE'
S'x'
S'y'
tp1314
sg27
g28
sg1159
L4L
sg1160
(I18
I2
I3
I1
tp1315
sg22
I1
sg20
F8.0008903070993256
sg23
F5.6554613026382867
sVY
L9L
sVX
L9L
sg1162
g1203
sg35
g36
sg37
g38
sg21
S'1'
sg19
S'space'
p1316
sg34
g11
sg1165
L1L
sg1166
g1193
sg1168
L1L
sS'block.thisIndex'
p1317
I15
sg1170
g1171
sg1172
g1163
sg1174
g1259
sa(dp1318
S'block.thisTrialN'
p1319
I17
sS'block.thisRepN'
p1320
I0
sg29
g33
sS'block.thisN'
p1321
I17
sg1157
(S'HALF'
S'ADD'
S'TRIPLE'
S'x'
S'y'
tp1322
sg27
g28
sg1159
L3L
sg1160
(I9
I12
I6
tp1323
sg22
I1
sg20
F6.0382797055062838
sg23
F2.7051554170320742
sVY
L3L
sVX
L3L
sg1162
g1239
sg35
g36
sg37
g38
sg21
S'6'
sg19
S'space'
p1324
sg34
g11
sg1165
L6L
sg1166
g1185
sg1168
L6L
sS'block.thisIndex'
p1325
I6
sg1170
g1183
sg1172
L0L
sg1174
g1293
sa(dp1326
S'block.thisTrialN'
p1327
I0
sS'block.thisRepN'
p1328
I0
sg29
g33
sS'block.thisN'
p1329
I0
sVRule
p1330
(S'INCREASE'
S'HALF'
S'THIRD'
S'TIMES'
S'x'
S'y'
tp1331
sg27
g28
sVLength
p1332
L4L
sVIntermediate
p1333
(I12
I4
I2
I3
tp1334
sg22
I1
sg20
F13.465557819028618
sg23
F6.4689685631310567
sVY
L4L
sVX
L3L
sVOperatorc
p1335
Vthird
p1336
sg35
g36
sg37
g38
sg21
S'3'
sg19
S'space'
p1337
sg34
g11
sVResult
p1338
L3L
sVOperatora
p1339
Vhalf
p1340
sVCorrectResponse
p1341
L3L
sS'block.thisIndex'
p1342
I16
sVOperatorb
p1343
Vincrease
p1344
sVOperatord
p1345
VTIMES
p1346
sVStructure
p1347
VUUUBxy
p1348
sa(dp1349
S'block.thisTrialN'
p1350
I1
sS'block.thisRepN'
p1351
I0
sg29
g33
sS'block.thisN'
p1352
I1
sg1330
(S'ADD'
S'DECREASE'
S'x'
S'y'
tp1353
sg27
g28
sg1332
L2L
sg1333
(I2
I7
tp1354
sg22
I1
sg20
F1.6629053758224472
sg23
F2.3743888325116131
sVY
L5L
sVX
L3L
sg1335
L0L
sg35
g36
sg37
g38
sg21
S'7'
sg19
S'space'
p1355
sg34
g11
sg1338
L7L
sg1339
Vdecrease
p1356
sg1341
L7L
sS'block.thisIndex'
p1357
I0
sg1343
VADD
p1358
sg1345
L0L
sg1347
VBUxy
p1359
sa(dp1360
S'block.thisTrialN'
p1361
I2
sS'block.thisRepN'
p1362
I0
sg29
g33
sS'block.thisN'
p1363
I2
sg1330
(S'INCREASE'
S'ADD'
S'HALF'
S'x'
S'y'
tp1364
sg27
g28
sg1332
L3L
sg1333
(I1
I4
I5
tp1365
sg22
I1
sg20
F8.292685308289947
sg23
F2.963236336276168
sVY
L3L
sVX
L2L
sg1335
g1340
sg35
g36
sg37
g38
sg21
S'5'
sg19
S'space'
p1366
sg34
g11
sg1338
L5L
sg1339
g1358
sg1341
L5L
sS'block.thisIndex'
p1367
I7
sg1343
g1344
sg1345
L0L
sg1347
VUBUxy
p1368
sa(dp1369
S'block.thisTrialN'
p1370
I3
sS'block.thisRepN'
p1371
I0
sg29
g33
sS'block.thisN'
p1372
I3
sg1330
(S'DECREASE'
S'TRIPLE'
S'SUBTRACT'
S'DOUBLE'
S'x'
S'y'
tp1373
sg27
g28
sg1332
L4L
sg1333
(I6
I3
I9
I8
tp1374
sg22
I1
sg20
F14.371370047534583
sg23
F4.3122738142265007
sVY
L3L
sVX
L3L
sg1335
VSUBTRACT
p1375
sg35
g36
sg37
g38
sg21
S'8'
sg19
S'space'
p1376
sg34
g11
sg1338
L8L
sg1339
Vtriple
p1377
sg1341
L8L
sS'block.thisIndex'
p1378
I15
sg1343
g1356
sg1345
Vdouble
p1379
sg1347
VUUBUxy
p1380
sa(dp1381
S'block.thisTrialN'
p1382
I4
sS'block.thisRepN'
p1383
I0
sg29
g33
sS'block.thisN'
p1384
I4
sg1330
(S'DECREASE'
S'ADD'
S'THIRD'
S'HALF'
S'x'
S'y'
tp1385
sg27
g28
sg1332
L4L
sg1333
(I3
I1
I7
I6
tp1386
sg22
I1
sg20
F11.504982255108189
sg23
F7.427593430649722
sVY
L6L
sVX
L6L
sg1335
g1336
sg35
g36
sg37
g38
sg21
S'6'
sg19
S'space'
p1387
sg34
g11
sg1338
L6L
sg1339
g1358
sg1341
L6L
sS'block.thisIndex'
p1388
I12
sg1343
g1356
sg1345
g1340
sg1347
VUBUUxy
p1389
sa(dp1390
S'block.thisTrialN'
p1391
I5
sS'block.thisRepN'
p1392
I0
sg29
g33
sS'block.thisN'
p1393
I5
sg1330
(S'DIVIDE'
S'DECREASE'
S'x'
S'y'
tp1394
sg27
g28
sg1332
L2L
sg1333
(I8
I2
tp1395
sg22
I1
sg20
F8.9361439133645035
sg23
F2.7235911432653666
sVY
L4L
sVX
L9L
sg1335
L0L
sg35
g36
sg37
g38
sg21
S'2'
sg19
S'space'
p1396
sg34
g11
sg1338
L2L
sg1339
g1356
sg1341
L2L
sS'block.thisIndex'
p1397
I1
sg1343
VDIVIDE
p1398
sg1345
L0L
sg1347
g1359
sa(dp1399
S'block.thisTrialN'
p1400
I6
sS'block.thisRepN'
p1401
I0
sg29
g33
sS'block.thisN'
p1402
I6
sg1330
(S'HALF'
S'INCREASE'
S'TIMES'
S'x'
S'y'
tp1403
sg27
g28
sg1332
L3L
sg1333
(I9
I10
I5
tp1404
sg22
I1
sg20
F7.7954571940354072
sg23
F3.1582265390607063
sVY
L3L
sVX
L3L
sg1335
g1346
sg35
g36
sg37
g38
sg21
S'5'
sg19
S'space'
p1405
sg34
g11
sg1338
L5L
sg1339
g1344
sg1341
L5L
sS'block.thisIndex'
p1406
I9
sg1343
g1340
sg1345
L0L
sg1347
VUUBxy
p1407
sa(dp1408
S'block.thisTrialN'
p1409
I7
sS'block.thisRepN'
p1410
I0
sg29
g33
sS'block.thisN'
p1411
I7
sg1330
(S'HALF'
S'ADD'
S'x'
S'y'
tp1412
sg27
g28
sg1332
L2L
sg1333
(I12
I6
tp1413
sg22
I1
sg20
F1.4085043225786649
sg23
F4.8241618986940011
sVY
L8L
sVX
L4L
sg1335
L0L
sg35
g36
sg37
g38
sg21
S'6'
sg19
S'space'
p1414
sg34
g11
sg1338
L6L
sg1339
g1358
sg1341
L6L
sS'block.thisIndex'
p1415
I3
sg1343
g1340
sg1345
L0L
sg1347
VUBxy
p1416
sa(dp1417
S'block.thisTrialN'
p1418
I8
sS'block.thisRepN'
p1419
I0
sg29
g33
sS'block.thisN'
p1420
I8
sg1330
(S'DECREASE'
S'SUBTRACT'
S'DOUBLE'
S'THIRD'
S'x'
S'y'
tp1421
sg27
g28
sg1332
L4L
sg1333
(I3
I6
I4
I3
tp1422
sg22
I1
sg20
F7.5870588404068258
sg23
F8.0656349509954453
sVY
L2L
sVX
L9L
sg1335
g1379
sg35
g36
sg37
g38
sg21
S'3'
sg19
S'space'
p1423
sg34
g11
sg1338
L3L
sg1339
g1375
sg1341
L3L
sS'block.thisIndex'
p1424
I13
sg1343
g1356
sg1345
g1336
sg1347
g1389
sa(dp1425
S'block.thisTrialN'
p1426
I9
sS'block.thisRepN'
p1427
I0
sg29
g33
sS'block.thisN'
p1428
I9
sg1330
(S'THIRD'
S'HALF'
S'INCREASE'
S'SUBTRACT'
S'x'
S'y'
tp1429
sg27
g28
sg1332
L4L
sg1333
(I5
I6
I3
I1
tp1430
sg22
I1
sg20
F8.676531903911382
sg23
F4.2122549511841498
sVY
L2L
sVX
L7L
sg1335
g1344
sg35
g36
sg37
g38
sg21
S'1'
sg19
S'space'
p1431
sg34
g11
sg1338
L1L
sg1339
g1340
sg1341
L1L
sS'block.thisIndex'
p1432
I17
sg1343
g1336
sg1345
g1375
sg1347
g1348
sa(dp1433
S'block.thisTrialN'
p1434
I10
sS'block.thisRepN'
p1435
I0
sg29
g33
sS'block.thisN'
p1436
I10
sg1330
(S'DECREASE'
S'DOUBLE'
S'TIMES'
S'THIRD'
S'x'
S'y'
tp1437
sg27
g28
sg1332
L4L
sg1333
(I1
I3
I6
I5
tp1438
sg22
I1
sg20
F7.5844316645816434
sg23
F3.9850425608165096
sVY
L3L
sVX
L3L
sg1335
g1346
sg35
g36
sg37
g38
sg21
S'5'
sg19
S'space'
p1439
sg34
g11
sg1338
L5L
sg1339
g1379
sg1341
L5L
sS'block.thisIndex'
p1440
I14
sg1343
g1356
sg1345
g1336
sg1347
g1380
sa(dp1441
S'block.thisTrialN'
p1442
I11
sS'block.thisRepN'
p1443
I0
sg29
g33
sS'block.thisN'
p1444
I11
sg1330
(S'DOUBLE'
S'SUBTRACT'
S'INCREASE'
S'x'
S'y'
tp1445
sg27
g28
sg1332
L3L
sg1333
(I4
I1
I2
tp1446
sg22
I1
sg20
F4.4843970531655941
sg23
F2.807246413838584
sVY
L3L
sVX
L3L
sg1335
g1344
sg35
g36
sg37
g38
sg21
S'2'
sg19
S'space'
p1447
sg34
g11
sg1338
L2L
sg1339
g1375
sg1341
L2L
sS'block.thisIndex'
p1448
I6
sg1343
g1379
sg1345
L0L
sg1347
g1368
sa(dp1449
S'block.thisTrialN'
p1450
I12
sS'block.thisRepN'
p1451
I0
sg29
g33
sS'block.thisN'
p1452
I12
sg1330
(S'ADD'
S'DOUBLE'
S'DECREASE'
S'x'
S'y'
tp1453
sg27
g28
sg1332
L3L
sg1333
(I1
I2
I7
tp1454
sg22
I0
sg20
F5.4108287800336257
sg23
F4.3236080814967863
sVY
L5L
sVX
L2L
sg1335
g1356
sg35
g36
sg37
g38
sg21
S'8'
sg19
S'space'
p1455
sg34
g11
sg1338
L7L
sg1339
g1379
sg1341
L7L
sS'block.thisIndex'
p1456
I4
sg1343
g1358
sg1345
L0L
sg1347
VBUUxy
p1457
sa(dp1458
S'block.thisTrialN'
p1459
I13
sS'block.thisRepN'
p1460
I0
sg29
g33
sS'block.thisN'
p1461
I13
sg1330
(S'DECREASE'
S'TIMES'
S'x'
S'y'
tp1462
sg27
g28
sg1332
L2L
sg1333
(I9
I8
tp1463
sg22
I1
sg20
F3.287030248407973
sg23
F2.4358476692868862
sVY
L3L
sVX
L3L
sg1335
L0L
sg35
g36
sg37
g38
sg21
S'8'
sg19
S'space'
p1464
sg34
g11
sg1338
L8L
sg1339
g1346
sg1341
L8L
sS'block.thisIndex'
p1465
I2
sg1343
g1356
sg1345
L0L
sg1347
g1416
sa(dp1466
S'block.thisTrialN'
p1467
I14
sS'block.thisRepN'
p1468
I0
sg29
g33
sS'block.thisN'
p1469
I14
sg1330
(S'ADD'
S'DECREASE'
S'THIRD'
S'DOUBLE'
S'x'
S'y'
tp1470
sg27
g28
sg1332
L4L
sg1333
(I18
I6
I5
I9
tp1471
sg22
I1
sg20
F6.8374353136168793
sg23
F6.5004260805435479
sVY
L4L
sVX
L9L
sg1335
g1336
sg35
g36
sg37
g38
sg21
S'9'
sg19
S'space'
p1472
sg34
g11
sg1338
L9L
sg1339
g1356
sg1341
L9L
sS'block.thisIndex'
p1473
I10
sg1343
g1358
sg1345
g1379
sg1347
VBUUUxy
p1474
sa(dp1475
S'block.thisTrialN'
p1476
I15
sS'block.thisRepN'
p1477
I0
sg29
g33
sS'block.thisN'
p1478
I15
sg1330
(S'ADD'
S'TRIPLE'
S'DOUBLE'
S'DECREASE'
S'x'
S'y'
tp1479
sg27
g28
sg1332
L4L
sg1333
(I1
I2
I6
I8
tp1480
sg22
I1
sg20
F7.8435085798846558
sg23
F2.7276916653790977
sVY
L2L
sVX
L2L
sg1335
g1379
sg35
g36
sg37
g38
sg21
S'8'
sg19
S'space'
p1481
sg34
g11
sg1338
L8L
sg1339
g1377
sg1341
L8L
sS'block.thisIndex'
p1482
I11
sg1343
g1358
sg1345
g1356
sg1347
g1474
sa(dp1483
S'block.thisTrialN'
p1484
I16
sS'block.thisRepN'
p1485
I0
sg29
g33
sS'block.thisN'
p1486
I16
sg1330
(S'ADD'
S'TRIPLE'
S'HALF'
S'x'
S'y'
tp1487
sg27
g28
sg1332
L3L
sg1333
(I2
I6
I8
tp1488
sg22
I1
sg20
F3.8594298185198568
sg23
F2.5945561080588959
sVY
L2L
sVX
L4L
sg1335
g1340
sg35
g36
sg37
g38
sg21
S'8'
sg19
S'space'
p1489
sg34
g11
sg1338
L8L
sg1339
g1377
sg1341
L8L
sS'block.thisIndex'
p1490
I5
sg1343
g1358
sg1345
L0L
sg1347
g1457
sa(dp1491
S'block.thisTrialN'
p1492
I17
sS'block.thisRepN'
p1493
I0
sg29
g33
sS'block.thisN'
p1494
I17
sg1330
(S'DOUBLE'
S'THIRD'
S'ADD'
S'x'
S'y'
tp1495
sg27
g28
sg1332
L3L
sg1333
(I9
I3
I6
tp1496
sg22
I1
sg20
F3.9220648825285025
sg23
F5.3961513116082642
sVY
L4L
sVX
L5L
sg1335
g1358
sg35
g36
sg37
g38
sg21
S'6'
sg19
S'space'
p1497
sg34
g11
sg1338
L6L
sg1339
g1336
sg1341
L6L
sS'block.thisIndex'
p1498
I8
sg1343
g1379
sg1345
L0L
sg1347
g1407
sasS'loops'
p1499
(lp1500
g1
(cpsychopy.data
TrialHandler
p1501
g3
NtRp1502
(dp1503
S'origin'
p1504
NsS'thisTrial'
p1505
(lp1506
sS'_exp'
p1507
I326816720
sg10
S'practice_trials'
p1508
sg6
S'C:\\Users\\experimenter\\Desktop\\Experiments\\KRITL\\2. kritl_experimenter.py'
p1509
sS'thisRepN'
p1510
I1
sg24
I01
sg25
g26
sS'data'
p1511
g1
(cpsychopy.data
DataHandler
p1512
c__builtin__
dict
p1513
(dp1514
g15
cnumpy.core.multiarray
_reconstruct
p1515
(cnumpy
ndarray
p1516
(I0
tS'b'
tRp1517
(I1
(I6
I1
tg31
(S'O4'
I0
I1
tRp1518
(I3
S'|'
NNNI-1
I-1
I63
tbI00
(lp1519
(lp1520
F4.8760152878239751
aa(lp1521
F6.1831071927445009
aa(lp1522
F2.6949294841033407
aa(lp1523
F3.1799564715474844
aa(lp1524
F3.0558671202743426
aa(lp1525
F7.0207451352325734
aatbsg16
g1515
(g1516
(I0
tS'b'
tRp1526
(I1
(I6
I1
tg1518
I00
(lp1527
S'7'
aS'8'
aS'7'
aS'8'
aS'4'
aS'9'
atbsS'ran'
p1528
cnumpy.ma.core
_mareconstruct
p1529
(cnumpy.ma.core
MaskedArray
p1530
g1516
(I0
tp1531
S'b'
tRp1532
(I1
(I6
I1
tg31
(S'f4'
I0
I1
tRp1533
(I3
S'<'
NNNI-1
I-1
I0
tbI00
S'\x00\x00\x80?\x00\x00\x80?\x00\x00\x80?\x00\x00\x80?\x00\x00\x80?\x00\x00\x80?'
S'\x00\x00\x00\x00\x00\x00'
Ntbsg18
g1529
(g1530
g1516
g1531
S'b'
tRp1534
(I1
(I6
I1
tg1533
I00
S"\x9e\x97\xe5?\x19\xe1\x1b@\xd8I\xb7?\xcd\xef\xf5@\x885\xfe@b'oA"
S'\x00\x00\x00\x00\x00\x00'
Ntbsg14
g1515
(g1516
(I0
tS'b'
tRp1535
(I1
(I6
I1
tg1518
I00
(lp1536
(lp1537
g103
aa(lp1538
g95
aa(lp1539
g111
aa(lp1540
g85
aa(lp1541
g74
aa(lp1542
g120
aatbsS'order'
p1543
g1529
(g1530
g1516
g1531
S'b'
tRp1544
(I1
(I6
I1
tg1533
I00
S'\x00\x00@@\x00\x00\x00@\x00\x00\x80@\x00\x00\x80?\x00\x00\x00\x00\x00\x00\xa0@'
S'\x00\x00\x00\x00\x00\x00'
Ntbsg17
g1529
(g1530
g1516
g1531
S'b'
tRp1545
(I1
(I6
I1
tg1533
I00
S'\x00\x00\x80?\x00\x00\x80?\x00\x00\x80?\x00\x00\x80?\x00\x00\x00\x00\x00\x00\x80?'
S'\x00\x00\x00\x00\x00\x00'
NtbstRp1546
(dp1547
S'isNumeric'
p1548
(dp1549
g16
I00
sg1528
I01
sg18
I01
sg14
I00
sg17
I01
sg1543
I01
sg15
I00
ssS'trials'
p1550
g1502
sS'dataTypes'
p1551
(lp1552
g1528
ag1543
ag14
ag15
ag16
ag17
ag18
asS'dataShape'
p1553
(lp1554
I6
aI1
asbsS'method'
p1555
S'fullRandom'
p1556
sS'sequenceIndices'
p1557
g1515
(g1516
(I0
tS'b'
tRp1558
(I1
(I6
I1
tg1518
I00
(lp1559
I4
aI3
aI1
aI0
aI2
aI5
atbsS'finished'
p1560
I01
sS'nReps'
p1561
I1
sS'nRemaining'
p1562
I-1
sS'trialList'
p1563
(lp1564
g1
(cpsychopy.data
TrialType
p1565
g1513
(dp1566
g47
L0L
sg48
g79
sg49
g90
sg50
L7L
sg53
L2L
sg52
L0L
sg51
L5L
sg54
L3L
stRp1567
ag1
(g1565
g1513
(dp1568
g47
L0L
sg48
g90
sg49
g91
sg50
L8L
sg53
L2L
sg52
L0L
sg51
L3L
sg54
L3L
stRp1569
ag1
(g1565
g1513
(dp1570
g47
L0L
sg48
g79
sg49
g81
sg50
L7L
sg53
L2L
sg52
L0L
sg51
L5L
sg54
L4L
stRp1571
ag1
(g1565
g1513
(dp1572
g47
g79
sg48
g80
sg49
g81
sg50
L8L
sg53
L3L
sg52
L0L
sg51
L2L
sg54
L4L
stRp1573
ag1
(g1565
g1513
(dp1574
g47
g68
sg48
g69
sg49
g70
sg50
L3L
sg53
L3L
sg52
L0L
sg51
L3L
sg54
L2L
stRp1575
ag1
(g1565
g1513
(dp1576
g47
g68
sg48
g69
sg49
g116
sg50
L9L
sg53
L4L
sg52
g70
sg51
L8L
sg54
L8L
stRp1577
asS'seed'
p1578
NsS'thisIndex'
p1579
I5
sS'thisN'
p1580
I6
sS'thisTrialN'
p1581
I0
sS'nTotal'
p1582
I6
sbag1
(g1501
g3
NtRp1583
(dp1584
g1504
Nsg1505
(lp1585
sg1507
I326816720
sg10
S'block'
p1586
sg6
g1509
sg1510
I1
sg24
I01
sg25
g26
sg1511
g1
(g1512
g1513
(dp1587
g22
g1529
(g1530
g1516
g1531
S'b'
tRp1588
(I1
(I18
I1
tg1533
I00
S'\x00\x00\x80?\x00\x00\x80?\x00\x00\x80?\x00\x00\x80?\x00\x00\x80?\x00\x00\x80?\x00\x00\x80?\x00\x00\x00\x00\x00\x00\x00\x00\x00\x00\x80?\x00\x00\x00\x00\x00\x00\x00\x00\x00\x00\x80?\x00\x00\x80?\x00\x00\x00\x00\x00\x00\x80?\x00\x00\x80?\x00\x00\x00\x00'
S'\x00\x00\x00\x00\x00\x00\x00\x00\x00\x00\x00\x00\x00\x00\x00\x00\x00\x00'
Ntbsg19
g1515
(g1516
(I0
tS'b'
tRp1589
(I1
(I18
I1
tg1518
I00
(lp1590
g164
ag278
ag201
ag254
ag286
ag192
ag144
ag174
ag270
ag154
ag228
ag210
ag244
ag262
ag131
ag184
ag219
ag236
atbsg23
g1529
(g1530
g1516
g1531
S'b'
tRp1591
(I1
(I18
I1
tg1533
I00
S"\xb9.\x03@'\xcc\x1f@T\x825@\xee\xd5\xf4?\xd7\xbeA@5\xec\x02A\r9R@\x05\xc2\x9dA\x16\xac\xac@p\x9e?@$\x19XA\xf4\x89\x12Ah<[A\xea\x93\xd3@\xf2poA\xc6\xc8\xae@\xa8\x8e\x95@\xce*\xd3@"
S'\x00\x00\x00\x00\x00\x00\x00\x00\x00\x00\x00\x00\x00\x00\x00\x00\x00\x00'
Ntbsg1528
g1529
(g1530
g1516
g1531
S'b'
tRp1592
(I1
(I18
I1
tg1533
I00
S'\x00\x00\x80?\x00\x00\x80?\x00\x00\x80?\x00\x00\x80?\x00\x00\x80?\x00\x00\x80?\x00\x00\x80?\x00\x00\x80?\x00\x00\x80?\x00\x00\x80?\x00\x00\x80?\x00\x00\x80?\x00\x00\x80?\x00\x00\x80?\x00\x00\x80?\x00\x00\x80?\x00\x00\x80?\x00\x00\x80?'
S'\x00\x00\x00\x00\x00\x00\x00\x00\x00\x00\x00\x00\x00\x00\x00\x00\x00\x00'
Ntbsg21
g1515
(g1516
(I0
tS'b'
tRp1593
(I1
(I18
I1
tg1518
I00
(lp1594
S'8'
aS'2'
aS'2'
aS'8'
aS'1'
aS'2'
aS'1'
aS'8'
aS'2'
aS'6'
aS'3'
aS'2'
aS'9'
aS'7'
aS'2'
aS'6'
aS'5'
aS'1'
atbsg1543
g1529
(g1530
g1516
g1531
S'b'
tRp1595
(I1
(I18
I1
tg1533
I00
S'\x00\x00@@\x00\x00\x80A\x00\x00\xe0@\x00\x00PA\x00\x00\x88A\x00\x00\xc0@\x00\x00\x80?\x00\x00\x80@\x00\x00pA\x00\x00\x00@\x00\x00 A\x00\x00\x00A\x00\x00@A\x00\x00`A\x00\x00\x00\x00\x00\x00\xa0@\x00\x00\x10A\x00\x000A'
S'\x00\x00\x00\x00\x00\x00\x00\x00\x00\x00\x00\x00\x00\x00\x00\x00\x00\x00'
Ntbsg20
g1529
(g1530
g1516
g1531
S'b'
tRp1596
(I1
(I18
I1
tg1533
I00
S"`^\x96@T\x91\x9a@8\xb48@\xadb\xe6@n\x14o@\xaaO\xdd@\x04\xd9\x02A\xe5^\x90@\xa7)\xd9@\xfe\xf8\x86@\x9c\xff\x1dAMB\xdb@'\xbapA\xd4< A\xc5\x1fTA(\x02\x08AdNHA\xa8@|A"
S'\x00\x00\x00\x00\x00\x00\x00\x00\x00\x00\x00\x00\x00\x00\x00\x00\x00\x00'
NtbstRp1597
(dp1598
g1548
(dp1599
g1528
I01
sg21
I00
sg20
I01
sg22
I01
sg19
I00
sg23
I01
sg1543
I01
ssg1550
g1583
sg1551
(lp1600
g1528
ag1543
ag19
ag20
ag21
ag22
ag23
asg1553
(lp1601
I18
aI1
asbsg1555
g1556
sg1557
g1515
(g1516
(I0
tS'b'
tRp1602
(I1
(I18
I1
tg1518
I00
(lp1603
I14
aI6
aI9
aI0
aI7
aI15
aI5
aI2
aI11
aI16
aI10
aI17
aI12
aI3
aI13
aI8
aI1
aI4
atbsg1560
I01
sg1561
I1
sg1562
I-1
sg1563
(lp1604
g1
(g1565
g1513
(dp1605
g55
g162
sVY
L4L
sg57
L2L
sg58
g163
sg59
L8L
sg60
L8L
sg56
g156
sVX
L2L
sg61
L0L
sg62
g166
sg63
L0L
sg64
g167
stRp1606
ag1
(g1565
g1513
(dp1607
g55
g276
sVY
L6L
sg57
L2L
sg58
g277
sg59
L2L
sg60
L2L
sg56
g156
sVX
L6L
sg61
L0L
sg62
g175
sg63
L0L
sg64
g167
stRp1608
ag1
(g1565
g1513
(dp1609
g55
g199
sVY
L7L
sg57
L2L
sg58
g200
sg59
L2L
sg60
L2L
sg56
g145
sVX
L8L
sg61
L0L
sg62
g156
sg63
L0L
sg64
g203
stRp1610
ag1
(g1565
g1513
(dp1611
g55
g252
sVY
L4L
sg57
L2L
sg58
g253
sg59
L8L
sg60
L8L
sg56
g130
sVX
L4L
sg61
L0L
sg62
g135
sg63
L0L
sg64
g203
stRp1612
ag1
(g1565
g1513
(dp1613
g55
g284
sVY
L4L
sg57
L3L
sg58
g285
sg59
L1L
sg60
L1L
sg56
g156
sVX
L6L
sg61
g132
sg62
g175
sg63
L0L
sg64
g194
stRp1614
ag1
(g1565
g1513
(dp1615
g55
g190
sVY
L4L
sg57
L3L
sg58
g191
sg59
L2L
sg60
L2L
sg56
g135
sVX
L4L
sg61
g143
sg62
g145
sg63
L0L
sg64
g194
stRp1616
ag1
(g1565
g1513
(dp1617
g55
g141
sVY
L7L
sg57
L3L
sg58
g142
sg59
L1L
sg60
L1L
sg56
g145
sVX
L3L
sg61
g143
sg62
g135
sg63
L0L
sg64
g147
stRp1618
ag1
(g1565
g1513
(dp1619
g55
g172
sVY
L3L
sg57
L3L
sg58
g173
sg59
L2L
sg60
L2L
sg56
g175
sVX
L9L
sg61
g132
sg62
g177
sg63
L0L
sg64
g147
stRp1620
ag1
(g1565
g1513
(dp1621
g55
g268
sVY
L2L
sg57
L3L
sg58
g269
sg59
L8L
sg60
L8L
sg56
g134
sVX
L7L
sg61
g145
sg62
g156
sg63
L0L
sg64
g157
stRp1622
ag1
(g1565
g1513
(dp1623
g55
g152
sVY
L3L
sg57
L3L
sg58
g153
sg59
L6L
sg60
L6L
sg56
g143
sVX
L4L
sg61
g145
sg62
g156
sg63
L0L
sg64
g157
stRp1624
ag1
(g1565
g1513
(dp1625
g55
g226
sVY
L6L
sg57
L4L
sg58
g227
sg59
L7L
sg60
L7L
sg56
g132
sVX
L4L
sg61
g177
sg62
g166
sg63
g135
sg64
g212
stRp1626
ag1
(g1565
g1513
(dp1627
g55
g208
sVY
L5L
sg57
L4L
sg58
g209
sg59
L1L
sg60
L1L
sg56
g177
sVX
L6L
sg61
g156
sg62
g175
sg63
g132
sg64
g212
stRp1628
ag1
(g1565
g1513
(dp1629
g55
g242
sVY
L4L
sg57
L4L
sg58
g243
sg59
L9L
sg60
L9L
sg56
g166
sVX
L9L
sg61
g156
sg62
g246
sg63
g132
sg64
g247
stRp1630
ag1
(g1565
g1513
(dp1631
g55
g260
sVY
L4L
sg57
L4L
sg58
g261
sg59
L7L
sg60
L7L
sg56
g130
sVX
L3L
sg61
g156
sg62
g134
sg63
g132
sg64
g247
stRp1632
ag1
(g1565
g1513
(dp1633
g55
g128
sVY
L6L
sg57
L4L
sg58
g129
sg59
L3L
sg60
L3L
sg56
g132
sVX
L4L
sg61
g130
sg62
g134
sg63
g135
sg64
g136
stRp1634
ag1
(g1565
g1513
(dp1635
g55
g182
sVY
L8L
sg57
L4L
sg58
g183
sg59
L6L
sg60
L6L
sg56
g143
sVX
L9L
sg61
g175
sg62
g156
sg63
g134
sg64
g136
stRp1636
ag1
(g1565
g1513
(dp1637
g55
g217
sVY
L2L
sg57
L4L
sg58
g218
sg59
L5L
sg60
L5L
sg56
g135
sVX
L8L
sg61
g143
sg62
g134
sg63
g175
sg64
g221
stRp1638
ag1
(g1565
g1513
(dp1639
g55
g234
sVY
L4L
sg57
L4L
sg58
g235
sg59
L4L
sg60
L4L
sg56
g134
sVX
L4L
sg61
g143
sg62
g156
sg63
g175
sg64
g221
stRp1640
asg1578
Nsg1579
I4
sg1580
I18
sg1581
I0
sg1582
I18
sbag1
(g1501
g3
NtRp1641
(dp1642
g1504
Nsg1505
(lp1643
sg1507
I326816720
sg10
g1586
sg6
g1509
sg1510
I1
sg24
I01
sg25
g26
sg1511
g1
(g1512
g1513
(dp1644
g22
g1529
(g1530
g1516
g1531
S'b'
tRp1645
(I1
(I18
I1
tg1533
I00
S'\x00\x00\x80?\x00\x00\x80?\x00\x00\x80?\x00\x00\x80?\x00\x00\x80?\x00\x00\x80?\x00\x00\x80?\x00\x00\x80?\x00\x00\x80?\x00\x00\x80?\x00\x00\x80?\x00\x00\x80?\x00\x00\x80?\x00\x00\x80?\x00\x00\x80?\x00\x00\x80?\x00\x00\x80?\x00\x00\x80?'
S'\x00\x00\x00\x00\x00\x00\x00\x00\x00\x00\x00\x00\x00\x00\x00\x00\x00\x00'
Ntbsg19
g1515
(g1516
(I0
tS'b'
tRp1646
(I1
(I18
I1
tg1518
I00
(lp1647
g459
ag426
ag358
ag410
ag401
ag418
ag451
ag383
ag393
ag317
ag443
ag349
ag435
ag339
ag329
ag367
ag375
ag299
atbsg23
g1529
(g1530
g1516
g1531
S'b'
tRp1648
(I1
(I18
I1
tg1533
I00
S'R\x04\xff?c\x7f\xba@\xe0\x91a@\xeb\x8cT@\x8f.\xbf@\xf7k\x92@v\x00\x95@\t#\xc0@6[\x87@\xee\x80\x93@_e\xf6@\xe4\xa9\x01A\x92_\x87@1>\xc6@\x98\xe6\x0eAB8\xa8@4\xb3\x00A\xde\xcb\x99@'
S'\x00\x00\x00\x00\x00\x00\x00\x00\x00\x00\x00\x00\x00\x00\x00\x00\x00\x00'
Ntbsg1528
g1529
(g1530
g1516
g1531
S'b'
tRp1649
(I1
(I18
I1
tg1533
I00
S'\x00\x00\x80?\x00\x00\x80?\x00\x00\x80?\x00\x00\x80?\x00\x00\x80?\x00\x00\x80?\x00\x00\x80?\x00\x00\x80?\x00\x00\x80?\x00\x00\x80?\x00\x00\x80?\x00\x00\x80?\x00\x00\x80?\x00\x00\x80?\x00\x00\x80?\x00\x00\x80?\x00\x00\x80?\x00\x00\x80?'
S'\x00\x00\x00\x00\x00\x00\x00\x00\x00\x00\x00\x00\x00\x00\x00\x00\x00\x00'
Ntbsg21
g1515
(g1516
(I0
tS'b'
tRp1650
(I1
(I18
I1
tg1518
I00
(lp1651
S'7'
aS'2'
aS'8'
aS'8'
aS'4'
aS'4'
aS'9'
aS'2'
aS'5'
aS'1'
aS'2'
aS'8'
aS'3'
aS'4'
aS'7'
aS'6'
aS'8'
aS'3'
atbsg1543
g1529
(g1530
g1516
g1531
S'b'
tRp1652
(I1
(I18
I1
tg1533
I00
S'\x00\x00\x88A\x00\x00PA\x00\x00\xa0@\x00\x000A\x00\x00 A\x00\x00@A\x00\x00\x80A\x00\x00\x00A\x00\x00\x10A\x00\x00\x80?\x00\x00pA\x00\x00\x80@\x00\x00`A\x00\x00@@\x00\x00\x00@\x00\x00\xc0@\x00\x00\xe0@\x00\x00\x00\x00'
S'\x00\x00\x00\x00\x00\x00\x00\x00\x00\x00\x00\x00\x00\x00\x00\x00\x00\x00'
Ntbsg20
g1529
(g1530
g1516
g1531
S'b'
tRp1653
(I1
(I18
I1
tg1533
I00
S'\xffB*@\x87k\x13@FF/@:D)@\x1d\xae\x10A}\xbf\xed@\xe9\x12\xbf@\xbd7\x86@\xbd\x93\xab@\x8el\x9f@\xeb\x08\xf9@Y\xa5%A\x8a*\xab@\xb0\x9e\x03A\xa3\xfc:AJ\x91\x93@j\xba(A\x88@\x93A'
S'\x00\x00\x00\x00\x00\x00\x00\x00\x00\x00\x00\x00\x00\x00\x00\x00\x00\x00'
NtbstRp1654
(dp1655
g1548
(dp1656
g1528
I01
sg21
I00
sg20
I01
sg22
I01
sg19
I00
sg23
I01
sg1543
I01
ssg1550
g1641
sg1551
(lp1657
g1528
ag1543
ag19
ag20
ag21
ag22
ag23
asg1553
(lp1658
I18
aI1
asbsg1555
g1556
sg1557
g1515
(g1516
(I0
tS'b'
tRp1659
(I1
(I18
I1
tg1518
I00
(lp1660
I17
aI9
aI14
aI13
aI11
aI2
aI15
aI16
aI7
aI8
aI4
aI3
aI5
aI1
aI12
aI10
aI6
aI0
atbsg1560
I01
sg1561
I1
sg1562
I-1
sg1563
(lp1661
g1
(g1565
g1513
(dp1662
g292
g457
sVY
L6L
sg294
L2L
sg295
g458
sg303
L7L
sg300
L7L
sg301
g320
sVX
L3L
sg297
L0L
sg305
g328
sg307
L0L
sg309
g428
stRp1663
ag1
(g1565
g1513
(dp1664
g292
g424
sVY
L4L
sg294
L2L
sg295
g425
sg303
L2L
sg300
L2L
sg301
g318
sVX
L5L
sg297
L0L
sg305
g308
sg307
L0L
sg309
g428
stRp1665
ag1
(g1565
g1513
(dp1666
g292
g356
sVY
L2L
sg294
L2L
sg295
g357
sg303
L8L
sg300
L8L
sg301
g328
sVX
L2L
sg297
L0L
sg305
g331
sg307
L0L
sg309
g360
stRp1667
ag1
(g1565
g1513
(dp1668
g292
g408
sVY
L2L
sg294
L2L
sg295
g409
sg303
L8L
sg300
L8L
sg301
g340
sVX
L2L
sg297
L0L
sg305
g331
sg307
L0L
sg309
g360
stRp1669
ag1
(g1565
g1513
(dp1670
g292
g399
sVY
L3L
sg294
L3L
sg295
g400
sg303
L4L
sg300
L4L
sg301
g306
sVX
L8L
sg297
g298
sg305
g392
sg307
L0L
sg309
g403
stRp1671
ag1
(g1565
g1513
(dp1672
g292
g416
sVY
L2L
sg294
L3L
sg295
g417
sg303
L4L
sg300
L4L
sg301
g320
sVX
L3L
sg297
g331
sg305
g340
sg307
L0L
sg309
g403
stRp1673
ag1
(g1565
g1513
(dp1674
g292
g449
sVY
L2L
sg294
L3L
sg295
g450
sg303
L9L
sg300
L9L
sg301
g328
sVX
L2L
sg297
g306
sg305
g318
sg307
L0L
sg309
g385
stRp1675
ag1
(g1565
g1513
(dp1676
g292
g381
sVY
L2L
sg294
L3L
sg295
g382
sg303
L2L
sg300
L2L
sg301
g308
sVX
L9L
sg297
g320
sg305
g318
sg307
L0L
sg309
g385
stRp1677
ag1
(g1565
g1513
(dp1678
g292
g390
sVY
L4L
sg294
L3L
sg295
g391
sg303
L5L
sg300
L5L
sg301
g306
sVX
L8L
sg297
g392
sg305
g302
sg307
L0L
sg309
g321
stRp1679
ag1
(g1565
g1513
(dp1680
g292
g315
sVY
L6L
sg294
L3L
sg295
g316
sg303
L1L
sg300
L1L
sg301
g318
sVX
L8L
sg297
g308
sg305
g320
sg307
L0L
sg309
g321
stRp1681
ag1
(g1565
g1513
(dp1682
g292
g441
sVY
L3L
sg294
L4L
sg295
g442
sg303
L2L
sg300
L2L
sg301
g331
sVX
L6L
sg297
g318
sg305
g392
sg307
g320
sg309
g351
stRp1683
ag1
(g1565
g1513
(dp1684
g292
g347
sVY
L2L
sg294
L4L
sg295
g348
sg303
L8L
sg300
L8L
sg301
g318
sVX
L2L
sg297
g298
sg305
g340
sg307
g306
sg309
g351
stRp1685
ag1
(g1565
g1513
(dp1686
g292
g433
sVY
L3L
sg294
L4L
sg295
g434
sg303
L3L
sg300
L3L
sg301
g392
sVX
L4L
sg297
g306
sg305
g318
sg307
g298
sg309
g342
stRp1687
ag1
(g1565
g1513
(dp1688
g292
g337
sVY
L3L
sg294
L4L
sg295
g338
sg303
L4L
sg300
L4L
sg301
g340
sVX
L7L
sg297
g298
sg305
g320
sg307
g318
sg309
g342
stRp1689
ag1
(g1565
g1513
(dp1690
g292
g326
sVY
L4L
sg294
L4L
sg295
g327
sg303
L7L
sg300
L7L
sg301
g318
sVX
L8L
sg297
g328
sg305
g320
sg307
g331
sg309
g332
stRp1691
ag1
(g1565
g1513
(dp1692
g292
g365
sVY
L3L
sg294
L4L
sg295
g366
sg303
L6L
sg300
L6L
sg301
g331
sVX
L5L
sg297
g308
sg305
g306
sg307
g302
sg309
g332
stRp1693
ag1
(g1565
g1513
(dp1694
g292
g373
sVY
L2L
sg294
L4L
sg295
g374
sg303
L8L
sg300
L8L
sg301
g306
sVX
L4L
sg297
g298
sg305
g302
sg307
g328
sg309
g310
stRp1695
ag1
(g1565
g1513
(dp1696
g292
g293
sVY
L5L
sg294
L4L
sg295
g296
sg303
L3L
sg300
L3L
sg301
g302
sVX
L9L
sg297
g298
sg305
g306
sg307
g308
sg309
g310
stRp1697
asg1578
Nsg1579
I0
sg1580
I18
sg1581
I0
sg1582
I18
sbag1
(g1501
g3
NtRp1698
(dp1699
g1504
Nsg1505
(lp1700
sg1507
I326816720
sg10
g1586
sg6
g1509
sg1510
I1
sg24
I01
sg25
g26
sg1511
g1
(g1512
g1513
(dp1701
g22
g1529
(g1530
g1516
g1531
S'b'
tRp1702
(I1
(I18
I1
tg1533
I00
S'\x00\x00\x80?\x00\x00\x80?\x00\x00\x80?\x00\x00\x80?\x00\x00\x80?\x00\x00\x80?\x00\x00\x80?\x00\x00\x80?\x00\x00\x80?\x00\x00\x80?\x00\x00\x80?\x00\x00\x80?\x00\x00\x80?\x00\x00\x80?\x00\x00\x80?\x00\x00\x00\x00\x00\x00\x80?\x00\x00\x80?'
S'\x00\x00\x00\x00\x00\x00\x00\x00\x00\x00\x00\x00\x00\x00\x00\x00\x00\x00'
Ntbsg19
g1515
(g1516
(I0
tS'b'
tRp1703
(I1
(I18
I1
tg1518
I00
(lp1704
g607
ag489
ag623
ag632
ag508
ag591
ag599
ag540
ag499
ag472
ag557
ag574
ag519
ag566
ag549
ag530
ag582
ag615
atbsg23
g1529
(g1530
g1516
g1531
S'b'
tRp1705
(I1
(I18
I1
tg1533
I00
S'\xb28\xad?\x93\xce=@7q\xd1?\x02e\x7f@\xb6\x8a`@\xecN\xc4@~\xe8l@[\xa5\x95@\xc6\xa06A`\x88\x08A\xec\xbd\x10Ay@\x86@4\xc9UAE\xf3\xbc@\xfd\xdfj@\x0f\xf5\xe5@<\x89\xd2@\xddo\xe6@'
S'\x00\x00\x00\x00\x00\x00\x00\x00\x00\x00\x00\x00\x00\x00\x00\x00\x00\x00'
Ntbsg1528
g1529
(g1530
g1516
g1531
S'b'
tRp1706
(I1
(I18
I1
tg1533
I00
S'\x00\x00\x80?\x00\x00\x80?\x00\x00\x80?\x00\x00\x80?\x00\x00\x80?\x00\x00\x80?\x00\x00\x80?\x00\x00\x80?\x00\x00\x80?\x00\x00\x80?\x00\x00\x80?\x00\x00\x80?\x00\x00\x80?\x00\x00\x80?\x00\x00\x80?\x00\x00\x80?\x00\x00\x80?\x00\x00\x80?'
S'\x00\x00\x00\x00\x00\x00\x00\x00\x00\x00\x00\x00\x00\x00\x00\x00\x00\x00'
Ntbsg21
g1515
(g1516
(I0
tS'b'
tRp1707
(I1
(I18
I1
tg1518
I00
(lp1708
S'1'
aS'8'
aS'4'
aS'1'
aS'3'
aS'9'
aS'1'
aS'6'
aS'6'
aS'8'
aS'8'
aS'1'
aS'6'
aS'7'
aS'5'
aS'4'
aS'5'
aS'3'
atbsg1543
g1529
(g1530
g1516
g1531
S'b'
tRp1709
(I1
(I18
I1
tg1533
I00
S'\x00\x00`A\x00\x00\x80?\x00\x00\x80A\x00\x00\x88A\x00\x00@@\x00\x00@A\x00\x00PA\x00\x00\xc0@\x00\x00\x00@\x00\x00\x00\x00\x00\x00\x00A\x00\x00 A\x00\x00\x80@\x00\x00\x10A\x00\x00\xe0@\x00\x00\xa0@\x00\x000A\x00\x00pA'
S'\x00\x00\x00\x00\x00\x00\x00\x00\x00\x00\x00\x00\x00\x00\x00\x00\x00\x00'
Ntbsg20
g1529
(g1530
g1516
g1531
S'b'
tRp1710
(I1
(I18
I1
tg1533
I00
S'\xf79,@\x96\x95\x16@6\xd0\x0c@\x87\xb6\xd2?Nw\\@X\xe6\xb3@\xfbD\xf5@\xa9F\xfe@\xfa\xca\xd9@\xcf\xc39A\x96\xea#Ao\xdf\xe0@\xc8?\x11A$t\x1cA\xf5(\xb5@{\x1dwA\x8a\xe1\rA\xe7\x01\xf9@'
S'\x00\x00\x00\x00\x00\x00\x00\x00\x00\x00\x00\x00\x00\x00\x00\x00\x00\x00'
NtbstRp1711
(dp1712
g1548
(dp1713
g1528
I01
sg21
I00
sg20
I01
sg22
I01
sg19
I00
sg23
I01
sg1543
I01
ssg1550
g1698
sg1551
(lp1714
g1528
ag1543
ag19
ag20
ag21
ag22
ag23
asg1553
(lp1715
I18
aI1
asbsg1555
g1556
sg1557
g1515
(g1516
(I0
tS'b'
tRp1716
(I1
(I18
I1
tg1518
I00
(lp1717
I9
aI1
aI8
aI4
aI12
aI15
aI7
aI14
aI10
aI13
aI11
aI16
aI5
aI6
aI0
aI17
aI2
aI3
atbsg1560
I01
sg1561
I1
sg1562
I-1
sg1563
(lp1718
g1
(g1565
g1513
(dp1719
g465
g605
sVY
L3L
sg467
L2L
sg468
g606
sg476
L1L
sg473
L1L
sg474
g475
sVX
L9L
sg470
L0L
sg478
g520
sg480
L0L
sg481
g491
stRp1720
ag1
(g1565
g1513
(dp1721
g465
g487
sVY
L2L
sg467
L2L
sg468
g488
sg476
L8L
sg473
L8L
sg474
g479
sVX
L2L
sg470
L0L
sg478
g471
sg480
L0L
sg481
g491
stRp1722
ag1
(g1565
g1513
(dp1723
g465
g621
sVY
L3L
sg467
L2L
sg468
g622
sg476
L4L
sg473
L4L
sg474
g511
sVX
L6L
sg470
L0L
sg478
g522
sg480
L0L
sg481
g625
stRp1724
ag1
(g1565
g1513
(dp1725
g465
g630
sVY
L2L
sg467
L2L
sg468
g631
sg476
L1L
sg473
L1L
sg474
g520
sVX
L6L
sg470
L0L
sg478
g475
sg480
L0L
sg481
g625
stRp1726
ag1
(g1565
g1513
(dp1727
g465
g506
sVY
L9L
sg467
L3L
sg468
g507
sg476
L3L
sg473
L3L
sg474
g509
sVX
L5L
sg470
g500
sg478
g511
sg480
L0L
sg481
g512
stRp1728
ag1
(g1565
g1513
(dp1729
g465
g589
sVY
L3L
sg467
L3L
sg468
g590
sg476
L9L
sg473
L9L
sg474
g532
sVX
L5L
sg470
g522
sg478
g471
sg480
L0L
sg481
g512
stRp1730
ag1
(g1565
g1513
(dp1731
g465
g597
sVY
L2L
sg467
L3L
sg468
g598
sg476
L1L
sg473
L1L
sg474
g520
sVX
L7L
sg470
g500
sg478
g475
sg480
L0L
sg481
g542
stRp1732
ag1
(g1565
g1513
(dp1733
g465
g538
sVY
L6L
sg467
L3L
sg468
g539
sg476
L6L
sg473
L6L
sg474
g471
sVX
L6L
sg470
g532
sg478
g475
sg480
L0L
sg481
g542
stRp1734
ag1
(g1565
g1513
(dp1735
g465
g496
sVY
L2L
sg467
L3L
sg468
g497
sg476
L6L
sg473
L6L
sg474
g500
sVX
L2L
sg470
g498
sg478
g479
sg480
L0L
sg481
g482
stRp1736
ag1
(g1565
g1513
(dp1737
g465
g466
sVY
L6L
sg467
L3L
sg468
g469
sg476
L8L
sg473
L8L
sg474
g475
sVX
L2L
sg470
g471
sg478
g479
sg480
L0L
sg481
g482
stRp1738
ag1
(g1565
g1513
(dp1739
g465
g555
sVY
L4L
sg467
L4L
sg468
g556
sg476
L8L
sg473
L8L
sg474
g479
sVX
L3L
sg470
g509
sg478
g511
sg480
g500
sg481
g559
stRp1740
ag1
(g1565
g1513
(dp1741
g465
g572
sVY
L8L
sg467
L4L
sg468
g573
sg476
L1L
sg473
L1L
sg474
g509
sVX
L2L
sg470
g500
sg478
g511
sg480
g479
sg481
g559
stRp1742
ag1
(g1565
g1513
(dp1743
g465
g517
sVY
L5L
sg467
L4L
sg468
g518
sg476
L6L
sg473
L6L
sg474
g520
sVX
L4L
sg470
g509
sg478
g479
sg480
g522
sg481
g523
stRp1744
ag1
(g1565
g1513
(dp1745
g465
g564
sVY
L3L
sg467
L4L
sg468
g565
sg476
L7L
sg473
L7L
sg474
g498
sVX
L2L
sg470
g532
sg478
g522
sg480
g509
sg481
g523
stRp1746
ag1
(g1565
g1513
(dp1747
g465
g547
sVY
L3L
sg467
L4L
sg468
g548
sg476
L5L
sg473
L5L
sg474
g509
sVX
L3L
sg470
g520
sg478
g500
sg480
g479
sg481
g533
stRp1748
ag1
(g1565
g1513
(dp1749
g465
g528
sVY
L4L
sg467
L4L
sg468
g529
sg476
L5L
sg473
L5L
sg474
g500
sVX
L8L
sg470
g471
sg478
g475
sg480
g532
sg481
g533
stRp1750
ag1
(g1565
g1513
(dp1751
g465
g580
sVY
L2L
sg467
L4L
sg468
g581
sg476
L5L
sg473
L5L
sg474
g509
sVX
L6L
sg470
g532
sg478
g500
sg480
g511
sg481
g584
stRp1752
ag1
(g1565
g1513
(dp1753
g465
g613
sVY
L2L
sg467
L4L
sg468
g614
sg476
L3L
sg473
L3L
sg474
g509
sVX
L3L
sg470
g522
sg478
g532
sg480
g511
sg481
g584
stRp1754
asg1578
Nsg1579
I3
sg1580
I18
sg1581
I0
sg1582
I18
sbag1
(g1501
g3
NtRp1755
(dp1756
g1504
Nsg1505
(lp1757
sg1507
I326816720
sg10
g1586
sg6
g1509
sg1510
I1
sg24
I01
sg25
g26
sg1511
g1
(g1512
g1513
(dp1758
g22
g1529
(g1530
g1516
g1531
S'b'
tRp1759
(I1
(I18
I1
tg1533
I00
S'\x00\x00\x80?\x00\x00\x80?\x00\x00\x80?\x00\x00\x80?\x00\x00\x80?\x00\x00\x80?\x00\x00\x80?\x00\x00\x80?\x00\x00\x80?\x00\x00\x80?\x00\x00\x80?\x00\x00\x00\x00\x00\x00\x80?\x00\x00\x80?\x00\x00\x80?\x00\x00\x80?\x00\x00\x80?\x00\x00\x80?'
S'\x00\x00\x00\x00\x00\x00\x00\x00\x00\x00\x00\x00\x00\x00\x00\x00\x00\x00'
Ntbsg19
g1515
(g1516
(I0
tS'b'
tRp1760
(I1
(I18
I1
tg1518
I00
(lp1761
g763
ag746
ag805
ag644
ag738
ag729
ag720
ag755
ag781
ag674
ag694
ag683
ag662
ag712
ag789
ag703
ag797
ag772
atbsg23
g1529
(g1530
g1516
g1531
S'b'
tRp1762
(I1
(I18
I1
tg1533
I00
S'\xd0\xd6\xdf?\x02\xa8;@\x97u.@\x1a\xa2\x0f@\x16\x86\xa9@2PU@\x99\x12\x8a@\x92\x13\xe4@2Z\xb4@<n_@\xb6\x1fO@\x8d\xcf\x14A\xc4l\xa0@~S\x17AN\xc0>@\xfe\x08\xba@tO\xc3@>\x1f`A'
S'\x00\x00\x00\x00\x00\x00\x00\x00\x00\x00\x00\x00\x00\x00\x00\x00\x00\x00'
Ntbsg1528
g1529
(g1530
g1516
g1531
S'b'
tRp1763
(I1
(I18
I1
tg1533
I00
S'\x00\x00\x80?\x00\x00\x80?\x00\x00\x80?\x00\x00\x80?\x00\x00\x80?\x00\x00\x80?\x00\x00\x80?\x00\x00\x80?\x00\x00\x80?\x00\x00\x80?\x00\x00\x80?\x00\x00\x80?\x00\x00\x80?\x00\x00\x80?\x00\x00\x80?\x00\x00\x80?\x00\x00\x80?\x00\x00\x80?'
S'\x00\x00\x00\x00\x00\x00\x00\x00\x00\x00\x00\x00\x00\x00\x00\x00\x00\x00'
Ntbsg21
g1515
(g1516
(I0
tS'b'
tRp1764
(I1
(I18
I1
tg1518
I00
(lp1765
S'7'
aS'9'
aS'2'
aS'5'
aS'9'
aS'3'
aS'8'
aS'3'
aS'9'
aS'6'
aS'5'
aS'6'
aS'5'
aS'7'
aS'6'
aS'9'
aS'5'
aS'5'
atbsg1543
g1529
(g1530
g1516
g1531
S'b'
tRp1766
(I1
(I18
I1
tg1533
I00
S'\x00\x00@A\x00\x00 A\x00\x00\x88A\x00\x00\x00\x00\x00\x00\x10A\x00\x00\x00A\x00\x00\xe0@\x00\x000A\x00\x00`A\x00\x00\x00@\x00\x00\x80@\x00\x00@@\x00\x00\x80?\x00\x00\xc0@\x00\x00pA\x00\x00\xa0@\x00\x00\x80A\x00\x00PA'
S'\x00\x00\x00\x00\x00\x00\x00\x00\x00\x00\x00\x00\x00\x00\x00\x00\x00\x00'
Ntbsg20
g1529
(g1530
g1516
g1531
S'b'
tRp1767
(I1
(I18
I1
tg1533
I00
S'L\xacE@\xdf$Q@\x8b`\x0eA\xa0TGAB\xc3\x9c@\x9b?\x8c@\xc1\x12\x82@\xe7V\xb5@\x86\x0c\x90@\n\xbb\xf1@\xc2\x90#AkN\xa2@\x1a\xf6\xa3@\x15\xc9\xef@$f\\@\xa5\x80\xe9@\xdab\xa4@\xc0\\\x03A'
S'\x00\x00\x00\x00\x00\x00\x00\x00\x00\x00\x00\x00\x00\x00\x00\x00\x00\x00'
NtbstRp1768
(dp1769
g1548
(dp1770
g1528
I01
sg21
I00
sg20
I01
sg22
I01
sg19
I00
sg23
I01
sg1543
I01
ssg1550
g1755
sg1551
(lp1771
g1528
ag1543
ag19
ag20
ag21
ag22
ag23
asg1553
(lp1772
I18
aI1
asbsg1555
g1556
sg1557
g1515
(g1516
(I0
tS'b'
tRp1773
(I1
(I18
I1
tg1518
I00
(lp1774
I3
aI12
aI9
aI11
aI10
aI15
aI13
aI6
aI5
aI4
aI1
aI7
aI0
aI17
aI8
aI14
aI16
aI2
atbsg1560
I01
sg1561
I1
sg1562
I-1
sg1563
(lp1775
g1
(g1565
g1513
(dp1776
g638
g761
sVY
L5L
sg640
L2L
sg641
g762
sg648
L7L
sg645
L7L
sg646
g665
sVX
L4L
sg643
L0L
sg650
g765
sg652
L0L
sg653
g748
stRp1777
ag1
(g1565
g1513
(dp1778
g638
g744
sVY
L3L
sg640
L2L
sg641
g745
sg648
L9L
sg645
L9L
sg646
g666
sVX
L4L
sg643
L0L
sg650
g663
sg652
L0L
sg653
g748
stRp1779
ag1
(g1565
g1513
(dp1780
g638
g803
sVY
L8L
sg640
L2L
sg641
g804
sg648
L2L
sg645
L2L
sg646
g647
sVX
L8L
sg643
L0L
sg650
g695
sg652
L0L
sg653
g654
stRp1781
ag1
(g1565
g1513
(dp1782
g638
g639
sVY
L2L
sg640
L2L
sg641
g642
sg648
L5L
sg645
L5L
sg646
g647
sVX
L8L
sg643
L0L
sg650
g651
sg652
L0L
sg653
g654
stRp1783
ag1
(g1565
g1513
(dp1784
g638
g736
sVY
L2L
sg640
L3L
sg641
g737
sg648
L9L
sg645
L9L
sg646
g666
sVX
L7L
sg643
g661
sg650
g647
sg652
L0L
sg653
g731
stRp1785
ag1
(g1565
g1513
(dp1786
g638
g727
sVY
L2L
sg640
L3L
sg641
g728
sg648
L3L
sg645
L3L
sg646
g651
sVX
L8L
sg643
g665
sg650
g663
sg652
L0L
sg653
g731
stRp1787
ag1
(g1565
g1513
(dp1788
g638
g718
sVY
L2L
sg640
L3L
sg641
g719
sg648
L8L
sg645
L8L
sg646
g685
sVX
L9L
sg643
g661
sg650
g665
sg652
L0L
sg653
g722
stRp1789
ag1
(g1565
g1513
(dp1790
g638
g753
sVY
L3L
sg640
L3L
sg641
g754
sg648
L3L
sg645
L3L
sg646
g647
sVX
L2L
sg643
g666
sg650
g651
sg652
L0L
sg653
g722
stRp1791
ag1
(g1565
g1513
(dp1792
g638
g779
sVY
L3L
sg640
L3L
sg641
g780
sg648
L9L
sg645
L9L
sg646
g665
sVX
L3L
sg643
g765
sg650
g666
sg652
L0L
sg653
g676
stRp1793
ag1
(g1565
g1513
(dp1794
g638
g672
sVY
L2L
sg640
L3L
sg641
g673
sg648
L6L
sg645
L6L
sg646
g651
sVX
L3L
sg643
g663
sg650
g666
sg652
L0L
sg653
g676
stRp1795
ag1
(g1565
g1513
(dp1796
g638
g692
sVY
L4L
sg640
L4L
sg641
g693
sg648
L5L
sg645
L5L
sg646
g695
sVX
L3L
sg643
g651
sg650
g647
sg652
g666
sg653
g687
stRp1797
ag1
(g1565
g1513
(dp1798
g638
g681
sVY
L9L
sg640
L4L
sg641
g682
sg648
L9L
sg645
L9L
sg646
g665
sVX
L3L
sg643
g651
sg650
g685
sg652
g686
sg653
g687
stRp1799
ag1
(g1565
g1513
(dp1800
g638
g659
sVY
L4L
sg640
L4L
sg641
g660
sg648
L5L
sg645
L5L
sg646
g663
sVX
L5L
sg643
g661
sg650
g665
sg652
g666
sg653
g667
stRp1801
ag1
(g1565
g1513
(dp1802
g638
g710
sVY
L2L
sg640
L4L
sg641
g711
sg648
L7L
sg645
L7L
sg646
g685
sVX
L2L
sg643
g666
sg650
g651
sg652
g665
sg653
g667
stRp1803
ag1
(g1565
g1513
(dp1804
g638
g787
sVY
L4L
sg640
L4L
sg641
g788
sg648
L6L
sg645
L6L
sg646
g695
sVX
L4L
sg643
g663
sg650
g666
sg652
g651
sg653
g705
stRp1805
ag1
(g1565
g1513
(dp1806
g638
g701
sVY
L8L
sg640
L4L
sg641
g702
sg648
L9L
sg645
L9L
sg646
g651
sVX
L8L
sg643
g647
sg650
g666
sg652
g695
sg653
g705
stRp1807
ag1
(g1565
g1513
(dp1808
g638
g795
sVY
L4L
sg640
L4L
sg641
g796
sg648
L5L
sg645
L5L
sg646
g686
sVX
L5L
sg643
g695
sg650
g661
sg652
g765
sg653
g774
stRp1809
ag1
(g1565
g1513
(dp1810
g638
g770
sVY
L4L
sg640
L4L
sg641
g771
sg648
L5L
sg645
L5L
sg646
g651
sVX
L7L
sg643
g665
sg650
g686
sg652
g685
sg653
g774
stRp1811
asg1578
Nsg1579
I2
sg1580
I18
sg1581
I0
sg1582
I18
sbag1
(g1501
g3
NtRp1812
(dp1813
g1504
Nsg1505
(lp1814
sg1507
I326816720
sg10
g1586
sg6
g1509
sg1510
I1
sg24
I01
sg25
g26
sg1511
g1
(g1512
g1513
(dp1815
g22
g1529
(g1530
g1516
g1531
S'b'
tRp1816
(I1
(I18
I1
tg1533
I00
S'\x00\x00\x80?\x00\x00\x80?\x00\x00\x80?\x00\x00\x80?\x00\x00\x80?\x00\x00\x80?\x00\x00\x80?\x00\x00\x80?\x00\x00\x80?\x00\x00\x80?\x00\x00\x80?\x00\x00\x80?\x00\x00\x80?\x00\x00\x00\x00\x00\x00\x80?\x00\x00\x80?\x00\x00\x80?\x00\x00\x80?'
S'\x00\x00\x00\x00\x00\x00\x00\x00\x00\x00\x00\x00\x00\x00\x00\x00\x00\x00'
Ntbsg19
g1515
(g1516
(I0
tS'b'
tRp1817
(I1
(I18
I1
tg1518
I00
(lp1818
g903
ag847
ag943
ag978
ag856
ag935
ag927
ag884
ag818
ag919
ag962
ag874
ag970
ag952
ag894
ag911
ag836
ag865
atbsg23
g1529
(g1530
g1516
g1531
S'b'
tRp1819
(I1
(I18
I1
tg1533
I00
S'\xe0T\xae?E\x10\xa0?\xc6\x04\xbb?\xdd\xa4\x96?PS\x96@\xbeq\xb6@(\x91\x80@1\x1f{@U\xd2i@zW\x8b@\xb6\x8b\x08A\xcb\x92\xbe@w\x84\r@\xa9\xfe\xbd@\xc5\x85\x92@\x08\xf4i@\xc5R\xb2@\xe7\xb0\xa6@'
S'\x00\x00\x00\x00\x00\x00\x00\x00\x00\x00\x00\x00\x00\x00\x00\x00\x00\x00'
Ntbsg1528
g1529
(g1530
g1516
g1531
S'b'
tRp1820
(I1
(I18
I1
tg1533
I00
S'\x00\x00\x80?\x00\x00\x80?\x00\x00\x80?\x00\x00\x80?\x00\x00\x80?\x00\x00\x80?\x00\x00\x80?\x00\x00\x80?\x00\x00\x80?\x00\x00\x80?\x00\x00\x80?\x00\x00\x80?\x00\x00\x80?\x00\x00\x80?\x00\x00\x80?\x00\x00\x80?\x00\x00\x80?\x00\x00\x80?'
S'\x00\x00\x00\x00\x00\x00\x00\x00\x00\x00\x00\x00\x00\x00\x00\x00\x00\x00'
Ntbsg21
g1515
(g1516
(I0
tS'b'
tRp1821
(I1
(I18
I1
tg1518
I00
(lp1822
S'4'
aS'6'
aS'3'
aS'1'
aS'9'
aS'5'
aS'5'
aS'5'
aS'8'
aS'3'
aS'3'
aS'9'
aS'4'
aS'9'
aS'8'
aS'6'
aS'1'
aS'6'
atbsg1543
g1529
(g1530
g1516
g1531
S'b'
tRp1823
(I1
(I18
I1
tg1533
I00
S'\x00\x00\x00A\x00\x00\x00@\x00\x00PA\x00\x00\x88A\x00\x00@@\x00\x00@A\x00\x000A\x00\x00\xc0@\x00\x00\x00\x00\x00\x00 A\x00\x00pA\x00\x00\xa0@\x00\x00\x80A\x00\x00`A\x00\x00\xe0@\x00\x00\x10A\x00\x00\x80?\x00\x00\x80@'
S'\x00\x00\x00\x00\x00\x00\x00\x00\x00\x00\x00\x00\x00\x00\x00\x00\x00\x00'
Ntbsg20
g1529
(g1530
g1516
g1531
S'b'
tRp1824
(I1
(I18
I1
tg1533
I00
S'&\x1d\xda?\xda\x1e\x04@\x800\x05@\xb8\xe1=@\xb2\xbb\x05A21\xef@.G2@\x9cf5@\xca\xaf\xe6@bV\x0c@\x99R\tAe\x94IA\xe5\xcf\xf6@@h5A\xe6\xea7A\n\x1a\x00Ad4;A\x8f\xda\xd0@'
S'\x00\x00\x00\x00\x00\x00\x00\x00\x00\x00\x00\x00\x00\x00\x00\x00\x00\x00'
NtbstRp1825
(dp1826
g1548
(dp1827
g1528
I01
sg21
I00
sg20
I01
sg22
I01
sg19
I00
sg23
I01
sg1543
I01
ssg1550
g1812
sg1551
(lp1828
g1528
ag1543
ag19
ag20
ag21
ag22
ag23
asg1553
(lp1829
I18
aI1
asbsg1555
g1556
sg1557
g1515
(g1516
(I0
tS'b'
tRp1830
(I1
(I18
I1
tg1518
I00
(lp1831
I8
aI16
aI1
aI4
aI17
aI11
aI7
aI14
aI0
aI15
aI9
aI6
aI5
aI2
aI13
aI10
aI12
aI3
atbsg1560
I01
sg1561
I1
sg1562
I-1
sg1563
(lp1832
g1
(g1565
g1513
(dp1833
g811
g901
sVY
L2L
sg813
L2L
sg814
g902
sg822
L4L
sg819
L4L
sg820
g821
sVX
L3L
sg816
L0L
sg824
g817
sg826
L0L
sg827
g849
stRp1834
ag1
(g1565
g1513
(dp1835
g811
g845
sVY
L2L
sg813
L2L
sg814
g846
sg822
L6L
sg819
L6L
sg820
g837
sVX
L2L
sg816
L0L
sg824
g817
sg826
L0L
sg827
g849
stRp1836
ag1
(g1565
g1513
(dp1837
g811
g941
sVY
L5L
sg813
L2L
sg814
g942
sg822
L3L
sg819
L3L
sg820
g893
sVX
L4L
sg816
L0L
sg824
g825
sg826
L0L
sg827
g945
stRp1838
ag1
(g1565
g1513
(dp1839
g811
g976
sVY
L2L
sg813
L2L
sg814
g977
sg822
L1L
sg819
L1L
sg820
g953
sVX
L5L
sg816
L0L
sg824
g825
sg826
L0L
sg827
g945
stRp1840
ag1
(g1565
g1513
(dp1841
g811
g854
sVY
L3L
sg813
L3L
sg814
g855
sg822
L9L
sg819
L9L
sg820
g821
sVX
L8L
sg816
g835
sg824
g817
sg826
L0L
sg827
g858
stRp1842
ag1
(g1565
g1513
(dp1843
g811
g933
sVY
L5L
sg813
L3L
sg814
g934
sg822
L5L
sg819
L5L
sg820
g825
sVX
L6L
sg816
g835
sg824
g817
sg826
L0L
sg827
g858
stRp1844
ag1
(g1565
g1513
(dp1845
g811
g925
sVY
L7L
sg813
L3L
sg814
g926
sg822
L5L
sg819
L5L
sg820
g893
sVX
L7L
sg816
g837
sg824
g825
sg826
L0L
sg827
g886
stRp1846
ag1
(g1565
g1513
(dp1847
g811
g882
sVY
L5L
sg813
L3L
sg814
g883
sg822
L5L
sg819
L5L
sg820
g817
sVX
L4L
sg816
g821
sg824
g825
sg826
L0L
sg827
g886
stRp1848
ag1
(g1565
g1513
(dp1849
g811
g812
sVY
L5L
sg813
L3L
sg814
g815
sg822
L8L
sg819
L8L
sg820
g821
sVX
L5L
sg816
g817
sg824
g825
sg826
L0L
sg827
g828
stRp1850
ag1
(g1565
g1513
(dp1851
g811
g917
sVY
L2L
sg813
L3L
sg814
g918
sg822
L3L
sg819
L3L
sg820
g835
sVX
L4L
sg816
g839
sg824
g867
sg826
L0L
sg827
g828
stRp1852
ag1
(g1565
g1513
(dp1853
g811
g960
sVY
L5L
sg813
L4L
sg814
g961
sg822
L3L
sg819
L3L
sg820
g835
sVX
L5L
sg816
g837
sg824
g953
sg826
g867
sg827
g877
stRp1854
ag1
(g1565
g1513
(dp1855
g811
g872
sVY
L3L
sg813
L4L
sg814
g873
sg822
L9L
sg819
L9L
sg820
g837
sVX
L3L
sg816
g825
sg824
g817
sg826
g876
sg827
g877
stRp1856
ag1
(g1565
g1513
(dp1857
g811
g968
sVY
L6L
sg813
L4L
sg814
g969
sg822
L4L
sg819
L4L
sg820
g839
sVX
L3L
sg816
g867
sg824
g837
sg826
g876
sg827
g955
stRp1858
ag1
(g1565
g1513
(dp1859
g811
g950
sVY
L3L
sg813
L4L
sg814
g951
sg822
L3L
sg819
L3L
sg820
g953
sVX
L3L
sg816
g876
sg824
g867
sg826
g821
sg827
g955
stRp1860
ag1
(g1565
g1513
(dp1861
g811
g891
sVY
L2L
sg813
L4L
sg814
g892
sg822
L8L
sg819
L8L
sg820
g876
sVX
L9L
sg816
g893
sg824
g825
sg826
g837
sg827
g896
stRp1862
ag1
(g1565
g1513
(dp1863
g811
g909
sVY
L3L
sg813
L4L
sg814
g910
sg822
L6L
sg819
L6L
sg820
g835
sVX
L2L
sg816
g893
sg824
g867
sg826
g821
sg827
g896
stRp1864
ag1
(g1565
g1513
(dp1865
g811
g833
sVY
L2L
sg813
L4L
sg814
g834
sg822
L1L
sg819
L1L
sg820
g837
sVX
L8L
sg816
g835
sg824
g825
sg826
g839
sg827
g840
stRp1866
ag1
(g1565
g1513
(dp1867
g811
g863
sVY
L2L
sg813
L4L
sg814
g864
sg822
L6L
sg819
L6L
sg820
g821
sVX
L3L
sg816
g835
sg824
g867
sg826
g817
sg827
g840
stRp1868
asg1578
Nsg1579
I3
sg1580
I18
sg1581
I0
sg1582
I18
sbag1
(g1501
g3
NtRp1869
(dp1870
g1504
Nsg1505
(lp1871
sg1507
I326816720
sg10
g1586
sg6
g1509
sg1510
I1
sg24
I01
sg25
g26
sg1511
g1
(g1512
g1513
(dp1872
g22
g1529
(g1530
g1516
g1531
S'b'
tRp1873
(I1
(I18
I1
tg1533
I00
S'\x00\x00\x80?\x00\x00\x80?\x00\x00\x80?\x00\x00\x80?\x00\x00\x80?\x00\x00\x80?\x00\x00\x80?\x00\x00\x80?\x00\x00\x80?\x00\x00\x80?\x00\x00\x80?\x00\x00\x80?\x00\x00\x80?\x00\x00\x80?\x00\x00\x00\x00\x00\x00\x80?\x00\x00\x00\x00\x00\x00\x80?'
S'\x00\x00\x00\x00\x00\x00\x00\x00\x00\x00\x00\x00\x00\x00\x00\x00\x00\x00'
Ntbsg19
g1515
(g1516
(I0
tS'b'
tRp1874
(I1
(I18
I1
tg1518
I00
(lp1875
g1135
ag1050
ag1020
ag1031
ag991
ag1143
ag1118
ag1151
ag1094
ag1085
ag1009
ag1110
ag1059
ag1127
ag1068
ag1102
ag1041
ag1077
atbsg23
g1529
(g1530
g1516
g1531
S'b'
tRp1876
(I1
(I18
I1
tg1533
I00
S'\x91\x1b\xa8@\xf5n\xee?\x13\x00\x90@,SZ@\x9cR\x84@\x85x\x89@W"\xfd@\xcd\xbf\x1b@\xb4\xf8s@\xf9\xda\x9c@QF\xb6@\xc1\x8a\xb8@LU+@\xea\xa5\xa9@z\xf6\xca@\x9ei\xc9@w\n\x80A\x01\xa2\xd3@'
S'\x00\x00\x00\x00\x00\x00\x00\x00\x00\x00\x00\x00\x00\x00\x00\x00\x00\x00'
Ntbsg1528
g1529
(g1530
g1516
g1531
S'b'
tRp1877
(I1
(I18
I1
tg1533
I00
S'\x00\x00\x80?\x00\x00\x80?\x00\x00\x80?\x00\x00\x80?\x00\x00\x80?\x00\x00\x80?\x00\x00\x80?\x00\x00\x80?\x00\x00\x80?\x00\x00\x80?\x00\x00\x80?\x00\x00\x80?\x00\x00\x80?\x00\x00\x80?\x00\x00\x80?\x00\x00\x80?\x00\x00\x80?\x00\x00\x80?'
S'\x00\x00\x00\x00\x00\x00\x00\x00\x00\x00\x00\x00\x00\x00\x00\x00\x00\x00'
Ntbsg21
g1515
(g1516
(I0
tS'b'
tRp1878
(I1
(I18
I1
tg1518
I00
(lp1879
S'1'
aS'4'
aS'9'
aS'6'
aS'6'
aS'7'
aS'8'
aS'2'
aS'1'
aS'9'
aS'1'
aS'2'
aS'1'
aS'3'
aS'5'
aS'1'
aS'4'
aS'7'
atbsg1543
g1529
(g1530
g1516
g1531
S'b'
tRp1880
(I1
(I18
I1
tg1533
I00
S'\x00\x00pA\x00\x00\xa0@\x00\x00\x00@\x00\x00@@\x00\x00\x00\x00\x00\x00\x80A\x00\x00PA\x00\x00\x88A\x00\x00 A\x00\x00\x10A\x00\x00\x80?\x00\x00@A\x00\x00\xc0@\x00\x00`A\x00\x00\xe0@\x00\x000A\x00\x00\x80@\x00\x00\x00A'
S'\x00\x00\x00\x00\x00\x00\x00\x00\x00\x00\x00\x00\x00\x00\x00\x00\x00\x00'
Ntbsg20
g1529
(g1530
g1516
g1531
S'b'
tRp1881
(I1
(I18
I1
tg1533
I00
S'!\xf4\xdd?\x19\x15$@\xcao\xd3?\xeeM\x99@\xc9\x07\x1eA\xc1}\x12@\xa2w\xba@`\xd3\xb1@\x14\xe08@\xb8\x7f\x96@W\x0b A\x91\x1f!A\x9b\xbc\x9a@~\xf61A=p\xb6@\xba\xb9\nA\xa7\xf6\xe2@r\xfe\xf9@'
S'\x00\x00\x00\x00\x00\x00\x00\x00\x00\x00\x00\x00\x00\x00\x00\x00\x00\x00'
NtbstRp1882
(dp1883
g1548
(dp1884
g1528
I01
sg21
I00
sg20
I01
sg22
I01
sg19
I00
sg23
I01
sg1543
I01
ssg1550
g1869
sg1551
(lp1885
g1528
ag1543
ag19
ag20
ag21
ag22
ag23
asg1553
(lp1886
I18
aI1
asbsg1555
g1556
sg1557
g1515
(g1516
(I0
tS'b'
tRp1887
(I1
(I18
I1
tg1518
I00
(lp1888
I4
aI10
aI2
aI3
aI16
aI1
aI12
aI14
aI17
aI9
aI8
aI15
aI11
aI6
aI13
aI0
aI5
aI7
atbsg1560
I01
sg1561
I1
sg1562
I-1
sg1563
(lp1889
g1
(g1565
g1513
(dp1890
g984
g1133
sVY
L2L
sg986
L2L
sg987
g1134
sg995
L1L
sg992
L1L
sg993
g1008
sVX
L9L
sg989
L0L
sg997
g1032
sg999
L0L
sg1000
g1052
stRp1891
ag1
(g1565
g1513
(dp1892
g984
g1048
sVY
L4L
sg986
L2L
sg987
g1049
sg995
L4L
sg992
L4L
sg993
g1008
sVX
L3L
sg989
L0L
sg997
g1021
sg999
L0L
sg1000
g1052
stRp1893
ag1
(g1565
g1513
(dp1894
g984
g1018
sVY
L4L
sg986
L2L
sg987
g1019
sg995
L9L
sg992
L9L
sg993
g1021
sVX
L2L
sg989
L0L
sg997
g1023
sg999
L0L
sg1000
g1024
stRp1895
ag1
(g1565
g1513
(dp1896
g984
g1029
sVY
L6L
sg986
L2L
sg987
g1030
sg995
L6L
sg992
L6L
sg993
g1032
sVX
L8L
sg989
L0L
sg997
g1034
sg999
L0L
sg1000
g1024
stRp1897
ag1
(g1565
g1513
(dp1898
g984
g985
sVY
L4L
sg986
L3L
sg987
g988
sg995
L6L
sg992
L6L
sg993
g994
sVX
L6L
sg989
g990
sg997
g998
sg999
L0L
sg1000
g1001
stRp1899
ag1
(g1565
g1513
(dp1900
g984
g1141
sVY
L9L
sg986
L3L
sg987
g1142
sg995
L7L
sg992
L7L
sg993
g1012
sVX
L9L
sg989
g994
sg997
g1032
sg999
L0L
sg1000
g1001
stRp1901
ag1
(g1565
g1513
(dp1902
g984
g1116
sVY
L4L
sg986
L3L
sg987
g1117
sg995
L8L
sg992
L8L
sg993
g1021
sVX
L3L
sg989
g1008
sg997
g1012
sg999
L0L
sg1000
g1120
stRp1903
ag1
(g1565
g1513
(dp1904
g984
g1149
sVY
L2L
sg986
L3L
sg987
g1150
sg995
L2L
sg992
L2L
sg993
g1011
sVX
L4L
sg989
g990
sg997
g1023
sg999
L0L
sg1000
g1120
stRp1905
ag1
(g1565
g1513
(dp1906
g984
g1092
sVY
L2L
sg986
L3L
sg987
g1093
sg995
L1L
sg992
L1L
sg993
g990
sVX
L8L
sg989
g1011
sg997
g994
sg999
L0L
sg1000
g1087
stRp1907
ag1
(g1565
g1513
(dp1908
g984
g1083
sVY
L3L
sg986
L3L
sg987
g1084
sg995
L9L
sg992
L9L
sg993
g990
sVX
L2L
sg989
g1021
sg997
g1034
sg999
L0L
sg1000
g1087
stRp1909
ag1
(g1565
g1513
(dp1910
g984
g1006
sVY
L3L
sg986
L4L
sg987
g1007
sg995
L1L
sg992
L1L
sg993
g994
sVX
L6L
sg989
g1008
sg997
g1011
sg999
g1012
sg1000
g1013
stRp1911
ag1
(g1565
g1513
(dp1912
g984
g1108
sVY
L2L
sg986
L4L
sg987
g1109
sg995
L2L
sg992
L2L
sg993
g994
sVX
L3L
sg989
g1008
sg997
g1021
sg999
g1012
sg1000
g1013
stRp1913
ag1
(g1565
g1513
(dp1914
g984
g1057
sVY
L9L
sg986
L4L
sg987
g1058
sg995
L1L
sg992
L1L
sg993
g1011
sVX
L3L
sg989
g1034
sg997
g994
sg999
g1012
sg1000
g1061
stRp1915
ag1
(g1565
g1513
(dp1916
g984
g1125
sVY
L3L
sg986
L4L
sg987
g1126
sg995
L3L
sg992
L3L
sg993
g1032
sVX
L6L
sg989
g1023
sg997
g1034
sg999
g990
sg1000
g1061
stRp1917
ag1
(g1565
g1513
(dp1918
g984
g1066
sVY
L2L
sg986
L4L
sg987
g1067
sg995
L7L
sg992
L7L
sg993
g990
sVX
L2L
sg989
g1021
sg997
g1023
sg999
g1034
sg1000
g1070
stRp1919
ag1
(g1565
g1513
(dp1920
g984
g1100
sVY
L2L
sg986
L4L
sg987
g1101
sg995
L1L
sg992
L1L
sg993
g1023
sVX
L8L
sg989
g1032
sg997
g1008
sg999
g990
sg1000
g1070
stRp1921
ag1
(g1565
g1513
(dp1922
g984
g1039
sVY
L2L
sg986
L4L
sg987
g1040
sg995
L5L
sg992
L5L
sg993
g990
sVX
L2L
sg989
g1034
sg997
g994
sg999
g998
sg1000
g1043
stRp1923
ag1
(g1565
g1513
(dp1924
g984
g1075
sVY
L2L
sg986
L4L
sg987
g1076
sg995
L7L
sg992
L7L
sg993
g1034
sVX
L2L
sg989
g990
sg997
g1023
sg999
g998
sg1000
g1043
stRp1925
asg1578
Nsg1579
I7
sg1580
I18
sg1581
I0
sg1582
I18
sbag1
(g1501
g3
NtRp1926
(dp1927
g1504
Nsg1505
(lp1928
sg1507
I326816720
sg10
g1586
sg6
g1509
sg1510
I1
sg24
I01
sg25
g26
sg1511
g1
(g1512
g1513
(dp1929
g22
g1529
(g1530
g1516
g1531
S'b'
tRp1930
(I1
(I18
I1
tg1533
I00
S'\x00\x00\x80?\x00\x00\x80?\x00\x00\x80?\x00\x00\x80?\x00\x00\x80?\x00\x00\x80?\x00\x00\x80?\x00\x00\x80?\x00\x00\x80?\x00\x00\x80?\x00\x00\x80?\x00\x00\x00\x00\x00\x00\x00\x00\x00\x00\x80?\x00\x00\x80?\x00\x00\x80?\x00\x00\x80?\x00\x00\x80?'
S'\x00\x00\x00\x00\x00\x00\x00\x00\x00\x00\x00\x00\x00\x00\x00\x00\x00\x00'
Ntbsg19
g1515
(g1516
(I0
tS'b'
tRp1931
(I1
(I18
I1
tg1518
I00
(lp1932
g1229
ag1266
ag1202
ag1212
ag1182
ag1300
ag1324
ag1291
ag1274
ag1308
ag1283
ag1247
ag1194
ag1164
ag1257
ag1316
ag1238
ag1220
atbsg23
g1529
(g1530
g1516
g1531
S'b'
tRp1933
(I1
(I18
I1
tg1533
I00
S'1r^@\x9f\\/@\x98|\t@.\x13W@\x86[2@\x84\x9d,@D!-@J\x19\x95@\x86\xc1\x9b@\xae\x14\xd4?>\x8a\x8f@\xadJ<A\xd2\xd5\x1eA[\xa2bA\xc25\xae@\x8a\xf9\xb4@\xeb\xa2\xa8@\xbb\\,A'
S'\x00\x00\x00\x00\x00\x00\x00\x00\x00\x00\x00\x00\x00\x00\x00\x00\x00\x00'
Ntbsg1528
g1529
(g1530
g1516
g1531
S'b'
tRp1934
(I1
(I18
I1
tg1533
I00
S'\x00\x00\x80?\x00\x00\x80?\x00\x00\x80?\x00\x00\x80?\x00\x00\x80?\x00\x00\x80?\x00\x00\x80?\x00\x00\x80?\x00\x00\x80?\x00\x00\x80?\x00\x00\x80?\x00\x00\x80?\x00\x00\x80?\x00\x00\x80?\x00\x00\x80?\x00\x00\x80?\x00\x00\x80?\x00\x00\x80?'
S'\x00\x00\x00\x00\x00\x00\x00\x00\x00\x00\x00\x00\x00\x00\x00\x00\x00\x00'
Ntbsg21
g1515
(g1516
(I0
tS'b'
tRp1935
(I1
(I18
I1
tg1518
I00
(lp1936
S'2'
aS'3'
aS'1'
aS'6'
aS'9'
aS'4'
aS'6'
aS'3'
aS'7'
aS'1'
aS'8'
aS'9'
aS'4'
aS'2'
aS'8'
aS'1'
aS'6'
aS'6'
atbsg1543
g1529
(g1530
g1516
g1531
S'b'
tRp1937
(I1
(I18
I1
tg1533
I00
S'\x00\x00\xc0@\x00\x00 A\x00\x00@@\x00\x00\x80@\x00\x00\x80?\x00\x00`A\x00\x00\x88A\x00\x00PA\x00\x000A\x00\x00pA\x00\x00@A\x00\x00\x00A\x00\x00\x00@\x00\x00\x00\x00\x00\x00\x10A\x00\x00\x80A\x00\x00\xe0@\x00\x00\xa0@'
S'\x00\x00\x00\x00\x00\x00\x00\x00\x00\x00\x00\x00\x00\x00\x00\x00\x00\x00'
Ntbsg20
g1529
(g1530
g1516
g1531
S'b'
tRp1938
(I1
(I18
I1
tg1533
I00
S'!\x13K@p\x81\xec?\xb4\xb3\xed?\xe4g\xfe?\x16\xaa\x80@\xebN\xb8@\x969\xc1@\xad\xf5\xa6@`\x89*A\x05^\xa2@JV\xff@"\xc7\x15A\xdc"6A^\xf3\x11A\x9al\xe0@\xa6\x03\x00A\xe9\x87\xce@u\xcf\xb2@'
S'\x00\x00\x00\x00\x00\x00\x00\x00\x00\x00\x00\x00\x00\x00\x00\x00\x00\x00'
NtbstRp1939
(dp1940
g1548
(dp1941
g1528
I01
sg21
I00
sg20
I01
sg22
I01
sg19
I00
sg23
I01
sg1543
I01
ssg1550
g1926
sg1551
(lp1942
g1528
ag1543
ag19
ag20
ag21
ag22
ag23
asg1553
(lp1943
I18
aI1
asbsg1555
g1556
sg1557
g1515
(g1516
(I0
tS'b'
tRp1944
(I1
(I18
I1
tg1518
I00
(lp1945
I13
aI4
aI12
aI2
aI3
aI17
aI0
aI16
aI11
aI14
aI1
aI8
aI10
aI7
aI5
aI9
aI15
aI6
atbsg1560
I01
sg1561
I1
sg1562
I-1
sg1563
(lp1946
g1
(g1565
g1513
(dp1947
g1157
g1227
sVY
L2L
sg1159
L2L
sg1160
g1228
sg1168
L2L
sg1165
L2L
sg1166
g1193
sVX
L3L
sg1162
L0L
sg1170
g1203
sg1172
L0L
sg1174
g1231
stRp1948
ag1
(g1565
g1513
(dp1949
g1157
g1264
sVY
L2L
sg1159
L2L
sg1160
g1265
sg1168
L3L
sg1165
L3L
sg1166
g1173
sVX
L6L
sg1162
L0L
sg1170
g1249
sg1172
L0L
sg1174
g1231
stRp1950
ag1
(g1565
g1513
(dp1951
g1157
g1200
sVY
L4L
sg1159
L2L
sg1160
g1201
sg1168
L1L
sg1165
L1L
sg1166
g1203
sVX
L8L
sg1162
L0L
sg1170
g1173
sg1172
L0L
sg1174
g1205
stRp1952
ag1
(g1565
g1513
(dp1953
g1157
g1210
sVY
L2L
sg1159
L2L
sg1160
g1211
sg1168
L6L
sg1165
L6L
sg1166
g1185
sVX
L3L
sg1162
L0L
sg1170
g1193
sg1172
L0L
sg1174
g1205
stRp1954
ag1
(g1565
g1513
(dp1955
g1157
g1180
sVY
L8L
sg1159
L3L
sg1160
g1181
sg1168
L9L
sg1165
L9L
sg1166
g1183
sVX
L6L
sg1162
g1171
sg1170
g1185
sg1172
L0L
sg1174
g1186
stRp1956
ag1
(g1565
g1513
(dp1957
g1157
g1298
sVY
L2L
sg1159
L3L
sg1160
g1299
sg1168
L4L
sg1165
L4L
sg1166
g1173
sVX
L3L
sg1162
g1239
sg1170
g1203
sg1172
L0L
sg1174
g1186
stRp1958
ag1
(g1565
g1513
(dp1959
g1157
g1322
sVY
L3L
sg1159
L3L
sg1160
g1323
sg1168
L6L
sg1165
L6L
sg1166
g1185
sVX
L3L
sg1162
g1239
sg1170
g1183
sg1172
L0L
sg1174
g1293
stRp1960
ag1
(g1565
g1513
(dp1961
g1157
g1289
sVY
L2L
sg1159
L3L
sg1160
g1290
sg1168
L3L
sg1165
L3L
sg1166
g1249
sVX
L8L
sg1162
g1183
sg1170
g1193
sg1172
L0L
sg1174
g1293
stRp1962
ag1
(g1565
g1513
(dp1963
g1157
g1272
sVY
L3L
sg1159
L3L
sg1160
g1273
sg1168
L7L
sg1165
L7L
sg1166
g1239
sVX
L6L
sg1162
g1203
sg1170
g1193
sg1172
L0L
sg1174
g1276
stRp1964
ag1
(g1565
g1513
(dp1965
g1157
g1306
sVY
L3L
sg1159
L3L
sg1160
g1307
sg1168
L1L
sg1165
L1L
sg1166
g1183
sVX
L3L
sg1162
g1185
sg1170
g1171
sg1172
L0L
sg1174
g1276
stRp1966
ag1
(g1565
g1513
(dp1967
g1157
g1281
sVY
L6L
sg1159
L4L
sg1160
g1282
sg1168
L8L
sg1165
L8L
sg1166
g1163
sVX
L6L
sg1162
g1173
sg1170
g1185
sg1172
g1171
sg1174
g1250
stRp1968
ag1
(g1565
g1513
(dp1969
g1157
g1245
sVY
L9L
sg1159
L4L
sg1160
g1246
sg1168
L8L
sg1165
L8L
sg1166
g1173
sVX
L3L
sg1162
g1239
sg1170
g1249
sg1172
g1163
sg1174
g1250
stRp1970
ag1
(g1565
g1513
(dp1971
g1157
g1191
sVY
L2L
sg1159
L4L
sg1160
g1192
sg1168
L8L
sg1165
L8L
sg1166
g1185
sVX
L3L
sg1162
g1193
sg1170
g1163
sg1172
g1171
sg1174
g1175
stRp1972
ag1
(g1565
g1513
(dp1973
g1157
g1158
sVY
L3L
sg1159
L4L
sg1160
g1161
sg1168
L2L
sg1165
L2L
sg1166
g1167
sVX
L2L
sg1162
g1163
sg1170
g1171
sg1172
g1173
sg1174
g1175
stRp1974
ag1
(g1565
g1513
(dp1975
g1157
g1255
sVY
L7L
sg1159
L4L
sg1160
g1256
sg1168
L8L
sg1165
L8L
sg1166
g1163
sVX
L6L
sg1162
g1185
sg1170
g1171
sg1172
g1173
sg1174
g1259
stRp1976
ag1
(g1565
g1513
(dp1977
g1157
g1314
sVY
L9L
sg1159
L4L
sg1160
g1315
sg1168
L1L
sg1165
L1L
sg1166
g1193
sVX
L9L
sg1162
g1203
sg1170
g1171
sg1172
g1163
sg1174
g1259
stRp1978
ag1
(g1565
g1513
(dp1979
g1157
g1236
sVY
L3L
sg1159
L4L
sg1160
g1237
sg1168
L6L
sg1165
L6L
sg1166
g1239
sVX
L9L
sg1162
g1193
sg1170
g1183
sg1172
g1203
sg1174
g1222
stRp1980
ag1
(g1565
g1513
(dp1981
g1157
g1218
sVY
L4L
sg1159
L4L
sg1160
g1219
sg1168
L6L
sg1165
L6L
sg1166
g1163
sVX
L2L
sg1162
g1193
sg1170
g1171
sg1172
g1167
sg1174
g1222
stRp1982
asg1578
Nsg1579
I6
sg1580
I18
sg1581
I0
sg1582
I18
sbag1
(g1501
g3
NtRp1983
(dp1984
g1504
Nsg1505
(lp1985
sg1507
I326816720
sg10
g1586
sg6
g1509
sg1510
I1
sg24
I01
sg25
g26
sg1511
g1
(g1512
g1513
(dp1986
g22
g1529
(g1530
g1516
g1531
S'b'
tRp1987
(I1
(I18
I1
tg1533
I00
S'\x00\x00\x80?\x00\x00\x80?\x00\x00\x80?\x00\x00\x80?\x00\x00\x00\x00\x00\x00\x80?\x00\x00\x80?\x00\x00\x80?\x00\x00\x80?\x00\x00\x80?\x00\x00\x80?\x00\x00\x80?\x00\x00\x80?\x00\x00\x80?\x00\x00\x80?\x00\x00\x80?\x00\x00\x80?\x00\x00\x80?'
S'\x00\x00\x00\x00\x00\x00\x00\x00\x00\x00\x00\x00\x00\x00\x00\x00\x00\x00'
Ntbsg19
g1515
(g1516
(I0
tS'b'
tRp1988
(I1
(I18
I1
tg1518
I00
(lp1989
g1355
ag1396
ag1464
ag1414
ag1455
ag1489
ag1447
ag1366
ag1497
ag1405
ag1472
ag1481
ag1387
ag1423
ag1439
ag1376
ag1337
ag1431
atbsg23
g1529
(g1530
g1516
g1531
S'b'
tRp1990
(I1
(I18
I1
tg1533
I00
S'\xfd\xf5\x17@QO.@\xee\xe4\x1b@\x89_\x9a@\xffZ\x8a@5\r&@\xed\xa93@\xaa\xa5=@F\xad\xac@b J@~\x03\xd0@\x80\x92.@\xd8\xae\xed@\xd7\x0c\x01A\xf0\n\x7f@&\xfe\x89@\xca\x01\xcf@\xcb\xca\x86@'
S'\x00\x00\x00\x00\x00\x00\x00\x00\x00\x00\x00\x00\x00\x00\x00\x00\x00\x00'
Ntbsg1528
g1529
(g1530
g1516
g1531
S'b'
tRp1991
(I1
(I18
I1
tg1533
I00
S'\x00\x00\x80?\x00\x00\x80?\x00\x00\x80?\x00\x00\x80?\x00\x00\x80?\x00\x00\x80?\x00\x00\x80?\x00\x00\x80?\x00\x00\x80?\x00\x00\x80?\x00\x00\x80?\x00\x00\x80?\x00\x00\x80?\x00\x00\x80?\x00\x00\x80?\x00\x00\x80?\x00\x00\x80?\x00\x00\x80?'
S'\x00\x00\x00\x00\x00\x00\x00\x00\x00\x00\x00\x00\x00\x00\x00\x00\x00\x00'
Ntbsg21
g1515
(g1516
(I0
tS'b'
tRp1992
(I1
(I18
I1
tg1518
I00
(lp1993
S'7'
aS'2'
aS'8'
aS'6'
aS'8'
aS'8'
aS'2'
aS'5'
aS'6'
aS'5'
aS'9'
aS'8'
aS'6'
aS'3'
aS'5'
aS'8'
aS'3'
aS'1'
atbsg1543
g1529
(g1530
g1516
g1531
S'b'
tRp1994
(I1
(I18
I1
tg1533
I00
S'\x00\x00\x80?\x00\x00\xa0@\x00\x00PA\x00\x00\xe0@\x00\x00@A\x00\x00\x80A\x00\x000A\x00\x00\x00@\x00\x00\x88A\x00\x00\xc0@\x00\x00`A\x00\x00pA\x00\x00\x80@\x00\x00\x00A\x00\x00 A\x00\x00@@\x00\x00\x00\x00\x00\x00\x10A'
S'\x00\x00\x00\x00\x00\x00\x00\x00\x00\x00\x00\x00\x00\x00\x00\x00\x00\x00'
Ntbsg20
g1529
(g1530
g1516
g1531
S'b'
tRp1995
(I1
(I18
I1
tg1533
I00
S'\x15\xda\xd4?r\xfa\x0eA\xb4^R@\xdfI\xb4?\x82%\xad@\xe6\x00w@.\x80\x8f@\xd7\xae\x04A\x1c\x03{@ct\xf9@E\xcc\xda@\x06\xfe\xfa@h\x148A0\xc9\xf2@\xaa\xb3\xf2@"\xf1eA\xedrWA\x13\xd3\nA'
S'\x00\x00\x00\x00\x00\x00\x00\x00\x00\x00\x00\x00\x00\x00\x00\x00\x00\x00'
NtbstRp1996
(dp1997
g1548
(dp1998
g1528
I01
sg21
I00
sg20
I01
sg22
I01
sg19
I00
sg23
I01
sg1543
I01
ssg1550
g1983
sg1551
(lp1999
g1528
ag1543
ag19
ag20
ag21
ag22
ag23
asg1553
(lp2000
I18
aI1
asbsg1555
g1556
sg1557
g1515
(g1516
(I0
tS'b'
tRp2001
(I1
(I18
I1
tg1518
I00
(lp2002
I16
aI0
aI7
aI15
aI12
aI1
aI9
aI3
aI13
aI17
aI14
aI6
aI4
aI2
aI10
aI11
aI5
aI8
atbsg1560
I01
sg1561
I1
sg1562
I-1
sg1563
(lp2003
g1
(g1565
g1513
(dp2004
g1330
g1353
sVY
L5L
sg1332
L2L
sg1333
g1354
sg1341
L7L
sg1338
L7L
sg1339
g1356
sVX
L3L
sg1335
L0L
sg1343
g1358
sg1345
L0L
sg1347
g1359
stRp2005
ag1
(g1565
g1513
(dp2006
g1330
g1394
sVY
L4L
sg1332
L2L
sg1333
g1395
sg1341
L2L
sg1338
L2L
sg1339
g1356
sVX
L9L
sg1335
L0L
sg1343
g1398
sg1345
L0L
sg1347
g1359
stRp2007
ag1
(g1565
g1513
(dp2008
g1330
g1462
sVY
L3L
sg1332
L2L
sg1333
g1463
sg1341
L8L
sg1338
L8L
sg1339
g1346
sVX
L3L
sg1335
L0L
sg1343
g1356
sg1345
L0L
sg1347
g1416
stRp2009
ag1
(g1565
g1513
(dp2010
g1330
g1412
sVY
L8L
sg1332
L2L
sg1333
g1413
sg1341
L6L
sg1338
L6L
sg1339
g1358
sVX
L4L
sg1335
L0L
sg1343
g1340
sg1345
L0L
sg1347
g1416
stRp2011
ag1
(g1565
g1513
(dp2012
g1330
g1453
sVY
L5L
sg1332
L3L
sg1333
g1454
sg1341
L7L
sg1338
L7L
sg1339
g1379
sVX
L2L
sg1335
g1356
sg1343
g1358
sg1345
L0L
sg1347
g1457
stRp2013
ag1
(g1565
g1513
(dp2014
g1330
g1487
sVY
L2L
sg1332
L3L
sg1333
g1488
sg1341
L8L
sg1338
L8L
sg1339
g1377
sVX
L4L
sg1335
g1340
sg1343
g1358
sg1345
L0L
sg1347
g1457
stRp2015
ag1
(g1565
g1513
(dp2016
g1330
g1445
sVY
L3L
sg1332
L3L
sg1333
g1446
sg1341
L2L
sg1338
L2L
sg1339
g1375
sVX
L3L
sg1335
g1344
sg1343
g1379
sg1345
L0L
sg1347
g1368
stRp2017
ag1
(g1565
g1513
(dp2018
g1330
g1364
sVY
L3L
sg1332
L3L
sg1333
g1365
sg1341
L5L
sg1338
L5L
sg1339
g1358
sVX
L2L
sg1335
g1340
sg1343
g1344
sg1345
L0L
sg1347
g1368
stRp2019
ag1
(g1565
g1513
(dp2020
g1330
g1495
sVY
L4L
sg1332
L3L
sg1333
g1496
sg1341
L6L
sg1338
L6L
sg1339
g1336
sVX
L5L
sg1335
g1358
sg1343
g1379
sg1345
L0L
sg1347
g1407
stRp2021
ag1
(g1565
g1513
(dp2022
g1330
g1403
sVY
L3L
sg1332
L3L
sg1333
g1404
sg1341
L5L
sg1338
L5L
sg1339
g1344
sVX
L3L
sg1335
g1346
sg1343
g1340
sg1345
L0L
sg1347
g1407
stRp2023
ag1
(g1565
g1513
(dp2024
g1330
g1470
sVY
L4L
sg1332
L4L
sg1333
g1471
sg1341
L9L
sg1338
L9L
sg1339
g1356
sVX
L9L
sg1335
g1336
sg1343
g1358
sg1345
g1379
sg1347
g1474
stRp2025
ag1
(g1565
g1513
(dp2026
g1330
g1479
sVY
L2L
sg1332
L4L
sg1333
g1480
sg1341
L8L
sg1338
L8L
sg1339
g1377
sVX
L2L
sg1335
g1379
sg1343
g1358
sg1345
g1356
sg1347
g1474
stRp2027
ag1
(g1565
g1513
(dp2028
g1330
g1385
sVY
L6L
sg1332
L4L
sg1333
g1386
sg1341
L6L
sg1338
L6L
sg1339
g1358
sVX
L6L
sg1335
g1336
sg1343
g1356
sg1345
g1340
sg1347
g1389
stRp2029
ag1
(g1565
g1513
(dp2030
g1330
g1421
sVY
L2L
sg1332
L4L
sg1333
g1422
sg1341
L3L
sg1338
L3L
sg1339
g1375
sVX
L9L
sg1335
g1379
sg1343
g1356
sg1345
g1336
sg1347
g1389
stRp2031
ag1
(g1565
g1513
(dp2032
g1330
g1437
sVY
L3L
sg1332
L4L
sg1333
g1438
sg1341
L5L
sg1338
L5L
sg1339
g1379
sVX
L3L
sg1335
g1346
sg1343
g1356
sg1345
g1336
sg1347
g1380
stRp2033
ag1
(g1565
g1513
(dp2034
g1330
g1373
sVY
L3L
sg1332
L4L
sg1333
g1374
sg1341
L8L
sg1338
L8L
sg1339
g1377
sVX
L3L
sg1335
g1375
sg1343
g1356
sg1345
g1379
sg1347
g1380
stRp2035
ag1
(g1565
g1513
(dp2036
g1330
g1331
sVY
L4L
sg1332
L4L
sg1333
g1334
sg1341
L3L
sg1338
L3L
sg1339
g1340
sVX
L3L
sg1335
g1336
sg1343
g1344
sg1345
g1346
sg1347
g1348
stRp2037
ag1
(g1565
g1513
(dp2038
g1330
g1429
sVY
L2L
sg1332
L4L
sg1333
g1430
sg1341
L1L
sg1338
L1L
sg1339
g1340
sVX
L7L
sg1335
g1344
sg1343
g1336
sg1345
g1375
sg1347
g1348
stRp2039
asg1578
Nsg1579
I8
sg1580
I18
sg1581
I0
sg1582
I18
sbasS'savePickle'
p2040
I00
sb.