ccopy_reg
_reconstructor
p1
(cpsychopy.data
ExperimentHandler
p2
c__builtin__
object
p3
NtRp4
(dp5
S'originPath'
p6
NsS'dataFileName'
p7
VC:\u005cUsers\u005cexperimenter\u005cDesktop\u005cExperiments\u005cKRITL\u005cdata/31039_KRITL_2017_Apr_14_1720
p8
sS'runtimeInfo'
p9
NsS'name'
p10
S'KRITL'
p11
sS'dataNames'
p12
(lp13
S'practice_encoding.keys'
p14
aS'practice_execution.keys'
p15
aS'practice_execution.corr'
p16
aS'practice_encoding.rt'
p17
aS'practice_execution.rt'
p18
aS'encoding.keys'
p19
aS'encoding.rt'
p20
aS'execution.keys'
p21
aS'execution.corr'
p22
aS'execution.rt'
p23
asS'autoLog'
p24
I01
sS'extraInfo'
p25
(dp26
S'date'
p27
V2017_Apr_14_1720
p28
sS'frameRate'
p29
NsS'expName'
p30
g11
sVsession
p31
V001
p32
sVparticipant
p33
V31039
p34
ssS'loopsUnfinished'
p35
(lp36
sS'saveWideText'
p37
I00
sS'thisEntry'
p38
(dp39
sS'version'
p40
S''
sS'_paramNamesSoFar'
p41
(lp42
Voperationc
p43
aVoperationb
p44
aVoperationa
p45
aVcorrectresponse
p46
aVvaluey
p47
aVoperationd
p48
aVcondition
p49
aVvaluex
p50
aVRule
p51
aVOperatora
p52
aVLength
p53
aVIntermediate
p54
aVCorrectResponse
p55
aVResult
p56
aVY
aVX
aVOperatorc
p57
aVOperatorb
p58
aVOperatord
p59
aVStructure
p60
asS'entries'
p61
(lp62
(dp63
g31
g32
sg43
Vincrease
p64
sg27
g28
sg15
Nsg29
Nsg14
Nsg49
L4L
sg45
Vdouble
p65
sg16
I0
sS'practice_trials.thisN'
p66
I0
sg44
VDIVIDE
p67
sS'practice_trials.thisIndex'
p68
I5
sg30
g11
sg46
L9L
sS'practice_trials.thisTrialN'
p69
I0
sg48
Vtriple
p70
sS'practice_trials.thisRepN'
p71
I0
sg33
g34
sg47
L8L
sg50
L8L
sa(dp72
g18
F2.5841317458543926
sg29
Nsg16
I1
sg43
L0L
sg44
VADD
p73
sg45
Vhalf
p74
sg31
g32
sg46
L7L
sS'practice_trials.thisTrialN'
p75
I1
sg48
L0L
sS'practice_trials.thisRepN'
p76
I0
sg33
g34
sg49
L2L
sg27
g28
sg15
S'7'
sg14
(lp77
S'space'
p78
asS'practice_trials.thisIndex'
p79
I2
sS'practice_trials.thisN'
p80
I1
sg30
g11
sg17
(lp81
F5.5255692068603821
asg47
L5L
sg50
L4L
sa(dp82
g18
F5.6671595319057815
sg29
Nsg16
I1
sg43
g73
sg44
Vtriple 
p83
sg45
g74
sg31
g32
sg46
L8L
sS'practice_trials.thisTrialN'
p84
I2
sg48
L0L
sS'practice_trials.thisRepN'
p85
I0
sg33
g34
sg49
L3L
sg27
g28
sg15
S'8'
sg14
(lp86
S'space'
p87
asS'practice_trials.thisIndex'
p88
I3
sS'practice_trials.thisN'
p89
I2
sg30
g11
sg17
(lp90
F7.6110449874831829
asg47
L2L
sg50
L4L
sa(dp91
g18
F2.1973969016107731
sg29
Nsg16
I0
sg43
L0L
sg44
Vdecrease
p92
sg45
VTIMES
p93
sg31
g32
sg46
L8L
sS'practice_trials.thisTrialN'
p94
I3
sg48
L0L
sS'practice_trials.thisRepN'
p95
I0
sg33
g34
sg49
L2L
sg27
g28
sg15
S'6'
sg14
(lp96
S'space'
p97
asS'practice_trials.thisIndex'
p98
I1
sS'practice_trials.thisN'
p99
I3
sg30
g11
sg17
(lp100
F4.012774367001839
asg47
L3L
sg50
L3L
sa(dp101
g18
F1.5540030397824012
sg29
Nsg16
I1
sg43
L0L
sg44
g73
sg45
g92
sg31
g32
sg46
L7L
sS'practice_trials.thisTrialN'
p102
I4
sg48
L0L
sS'practice_trials.thisRepN'
p103
I0
sg33
g34
sg49
L2L
sg27
g28
sg15
S'7'
sg14
(lp104
S'space'
p105
asS'practice_trials.thisIndex'
p106
I0
sS'practice_trials.thisN'
p107
I4
sg30
g11
sg17
(lp108
F13.065641250344925
asg47
L5L
sg50
L3L
sa(dp109
g18
F4.0205932511016726
sg29
Nsg16
I1
sg43
g64
sg44
g67
sg45
g70
sg31
g32
sg46
L3L
sS'practice_trials.thisTrialN'
p110
I5
sg48
L0L
sS'practice_trials.thisRepN'
p111
I0
sg33
g34
sg49
L3L
sg27
g28
sg15
S'3'
sg14
(lp112
S'space'
p113
asS'practice_trials.thisIndex'
p114
I4
sS'practice_trials.thisN'
p115
I5
sg30
g11
sg17
(lp116
F10.587095586583018
asg47
L3L
sg50
L2L
sa(dp117
S'block.thisTrialN'
p118
I0
sS'block.thisRepN'
p119
I0
sg29
NsS'block.thisN'
p120
I0
sg51
(S'HALF'
S'TIMES'
S'DECREASE'
S'x'
S'y'
tp121
sg27
g28
sg53
L3L
sg54
(I8
I16
I8
tp122
sg22
I0
sg20
F6.3181273034133483
sg23
F8.7516827119106892
sVY
L2L
sVX
L9L
sg57
Vdecrease
p123
sg31
g32
sg33
g34
sg21
S'1'
sg19
S'space'
p124
sg30
g11
sg56
L8L
sg52
VTIMES
p125
sg55
L8L
sS'block.thisIndex'
p126
I6
sg58
Vhalf
p127
sg59
L0L
sg60
VUBUxy
p128
sa(dp129
S'block.thisTrialN'
p130
I1
sS'block.thisRepN'
p131
I0
sg29
NsS'block.thisN'
p132
I1
sg51
(S'INCREASE'
S'DIVIDE'
S'x'
S'y'
tp133
sg27
g28
sg53
L2L
sg54
(I4
I5
tp134
sg22
I0
sg20
F19.510058125451906
sVY
L2L
sVX
L8L
sg57
L0L
sg31
g32
sg33
g34
sg21
Nsg19
S'space'
p135
sg30
g11
sg56
L5L
sg52
VDIVIDE
p136
sg55
L5L
sS'block.thisIndex'
p137
I3
sg58
Vincrease
p138
sg59
L0L
sg60
VUBxy
p139
sa(dp140
S'block.thisTrialN'
p141
I2
sS'block.thisRepN'
p142
I0
sg29
NsS'block.thisN'
p143
I2
sg51
(S'TRIPLE'
S'INCREASE'
S'SUBTRACT'
S'x'
S'y'
tp144
sg27
g28
sg53
L3L
sg54
(I1
I2
I6
tp145
sg22
I0
sg20
F15.08691902999999
sg23
F3.0172437506262213
sVY
L2L
sVX
L3L
sg57
VSUBTRACT
p146
sg31
g32
sg33
g34
sg21
S'9'
sg19
S'space'
p147
sg30
g11
sg56
L6L
sg52
g138
sg55
L6L
sS'block.thisIndex'
p148
I9
sg58
Vtriple
p149
sg59
L0L
sg60
VUUBxy
p150
sa(dp151
S'block.thisTrialN'
p152
I3
sS'block.thisRepN'
p153
I0
sg29
NsS'block.thisN'
p154
I3
sg51
(S'TRIPLE'
S'DOUBLE'
S'SUBTRACT'
S'INCREASE'
S'x'
S'y'
tp155
sg27
g28
sg53
L4L
sg54
(I5
I1
I2
I6
tp156
sg22
I1
sg20
F9.5077217692451086
sg23
F3.2674546911148354
sVY
L4L
sVX
L4L
sg57
g146
sg31
g32
sg33
g34
sg21
S'6'
sg19
S'space'
p157
sg30
g11
sg56
L6L
sg52
Vdouble
p158
sg55
L6L
sS'block.thisIndex'
p159
I14
sg58
g149
sg59
g138
sg60
VUUBUxy
p160
sa(dp161
S'block.thisTrialN'
p162
I4
sS'block.thisRepN'
p163
I0
sg29
NsS'block.thisN'
p164
I4
sg51
(S'DIVIDE'
S'DOUBLE'
S'INCREASE'
S'TRIPLE'
S'x'
S'y'
tp165
sg27
g28
sg53
L4L
sg54
(I9
I10
I20
I5
tp166
sg22
I0
sg20
F6.6768825672916137
sg23
F10.536561209824868
sVY
L4L
sVX
L3L
sg57
g138
sg31
g32
sg33
g34
sg21
S'3'
sg19
S'space'
p167
sg30
g11
sg56
L5L
sg52
g158
sg55
L5L
sS'block.thisIndex'
p168
I10
sg58
g136
sg59
g149
sg60
VBUUUxy
p169
sa(dp170
S'block.thisTrialN'
p171
I5
sS'block.thisRepN'
p172
I0
sg29
NsS'block.thisN'
p173
I5
sg51
(S'THIRD'
S'INCREASE'
S'HALF'
S'TIMES'
S'x'
S'y'
tp174
sg27
g28
sg53
L4L
sg54
(I28
I14
I15
I5
tp175
sg22
I0
sVY
L4L
sVX
L7L
sg57
g127
sg31
g32
sg33
g34
sg21
Nsg19
Nsg30
g11
sg56
L5L
sg52
g138
sg55
L5L
sS'block.thisIndex'
p176
I17
sg58
Vthird
p177
sg59
g125
sg60
VUUUBxy
p178
sa(dp179
S'block.thisTrialN'
p180
I6
sS'block.thisRepN'
p181
I0
sg29
NsS'block.thisN'
p182
I6
sg51
(S'HALF'
S'SUBTRACT'
S'DECREASE'
S'TRIPLE'
S'x'
S'y'
tp183
sg27
g28
sg53
L4L
sg54
(I15
I14
I10
I5
tp184
sg22
I0
sg20
F7.9943522893299814
sg23
F9.8749706468079239
sVY
L4L
sVX
L5L
sg57
g123
sg31
g32
sg33
g34
sg21
S'1'
sg19
S'space'
p185
sg30
g11
sg56
L5L
sg52
g146
sg55
L5L
sS'block.thisIndex'
p186
I12
sg58
g127
sg59
g149
sg60
VUBUUxy
p187
sa(dp188
S'block.thisTrialN'
p189
I7
sS'block.thisRepN'
p190
I0
sg29
NsS'block.thisN'
p191
I7
sg51
(S'DECREASE'
S'THIRD'
S'DOUBLE'
S'ADD'
S'x'
S'y'
tp192
sg27
g28
sg53
L4L
sg54
(I9
I18
I6
I5
tp193
sg22
I1
sg20
F7.812446871161228
sg23
F6.8715634023537859
sVY
L4L
sVX
L5L
sg57
g158
sg31
g32
sg33
g34
sg21
S'5'
sg19
S'space'
p194
sg30
g11
sg56
L5L
sg52
g177
sg55
L5L
sS'block.thisIndex'
p195
I16
sg58
g123
sg59
VADD
p196
sg60
g178
sa(dp197
S'block.thisTrialN'
p198
I8
sS'block.thisRepN'
p199
I0
sg29
NsS'block.thisN'
p200
I8
sg51
(S'TRIPLE'
S'INCREASE'
S'DIVIDE'
S'DOUBLE'
S'x'
S'y'
tp201
sg27
g28
sg53
L4L
sg54
(I16
I2
I3
I9
tp202
sg22
I0
sg20
F15.495960896456381
sg23
F7.8242633881163783
sVY
L8L
sVX
L8L
sg57
g136
sg31
g32
sg33
g34
sg21
S'3'
sg19
S'space'
p203
sg30
g11
sg56
L9L
sg52
g138
sg55
L9L
sS'block.thisIndex'
p204
I15
sg58
g149
sg59
g158
sg60
g160
sa(dp205
S'block.thisTrialN'
p206
I9
sS'block.thisRepN'
p207
I0
sg29
NsS'block.thisN'
p208
I9
sg51
(S'TRIPLE'
S'HALF'
S'ADD'
S'x'
S'y'
tp209
sg27
g28
sg53
L3L
sg54
(I6
I3
I9
tp210
sg22
I1
sg20
F5.7033293075801339
sg23
F2.9005200807296205
sVY
L3L
sVX
L3L
sg57
g196
sg31
g32
sg33
g34
sg21
S'9'
sg19
S'space'
p211
sg30
g11
sg56
L9L
sg52
g127
sg55
L9L
sS'block.thisIndex'
p212
I8
sg58
g149
sg59
L0L
sg60
g150
sa(dp213
S'block.thisTrialN'
p214
I10
sS'block.thisRepN'
p215
I0
sg29
NsS'block.thisN'
p216
I10
sg51
(S'DOUBLE'
S'DIVIDE'
S'x'
S'y'
tp217
sg27
g28
sg53
L2L
sg54
(I1
I2
tp218
sg22
I1
sg20
F4.607035105873365
sg23
F3.1091578093764838
sVY
L8L
sVX
L8L
sg57
L0L
sg31
g32
sg33
g34
sg21
S'2'
sg19
S'space'
p219
sg30
g11
sg56
L2L
sg52
g136
sg55
L2L
sS'block.thisIndex'
p220
I2
sg58
g158
sg59
L0L
sg60
g139
sa(dp221
S'block.thisTrialN'
p222
I11
sS'block.thisRepN'
p223
I0
sg29
NsS'block.thisN'
p224
I11
sg51
(S'DIVIDE'
S'TRIPLE'
S'DECREASE'
S'x'
S'y'
tp225
sg27
g28
sg53
L3L
sg54
(I6
I18
I9
tp226
sg22
I1
sg20
F5.1746569745300803
sg23
F3.5451258661050815
sVY
L2L
sVX
L7L
sg57
g123
sg31
g32
sg33
g34
sg21
S'9'
sg19
S'space'
p227
sg30
g11
sg56
L9L
sg52
g149
sg55
L9L
sS'block.thisIndex'
p228
I4
sg58
g136
sg59
L0L
sg60
VBUUxy
p229
sa(dp230
S'block.thisTrialN'
p231
I12
sS'block.thisRepN'
p232
I0
sg29
NsS'block.thisN'
p233
I12
sg51
(S'SUBTRACT'
S'INCREASE'
S'HALF'
S'x'
S'y'
tp234
sg27
g28
sg53
L3L
sg54
(I4
I5
I3
tp235
sg22
I1
sg20
F4.3025357303849887
sg23
F3.5729945080238394
sVY
L2L
sVX
L8L
sg57
g127
sg31
g32
sg33
g34
sg21
S'3'
sg19
S'space'
p236
sg30
g11
sg56
L3L
sg52
g138
sg55
L3L
sS'block.thisIndex'
p237
I5
sg58
g146
sg59
L0L
sg60
g229
sa(dp238
S'block.thisTrialN'
p239
I13
sS'block.thisRepN'
p240
I0
sg29
NsS'block.thisN'
p241
I13
sg51
(S'INCREASE'
S'DIVIDE'
S'TRIPLE'
S'x'
S'y'
tp242
sg27
g28
sg53
L3L
sg54
(I6
I2
I3
tp243
sg22
I1
sg20
F6.0847034112084657
sg23
F3.9295040562283248
sVY
L3L
sVX
L2L
sg57
g149
sg31
g32
sg33
g34
sg21
S'3'
sg19
S'space'
p244
sg30
g11
sg56
L3L
sg52
g136
sg55
L3L
sS'block.thisIndex'
p245
I7
sg58
g138
sg59
L0L
sg60
g128
sa(dp246
S'block.thisTrialN'
p247
I14
sS'block.thisRepN'
p248
I0
sg29
NsS'block.thisN'
p249
I14
sg51
(S'TIMES'
S'HALF'
S'INCREASE'
S'THIRD'
S'x'
S'y'
tp250
sg27
g28
sg53
L4L
sg54
(I1
I2
I1
I9
tp251
sg22
I0
sg20
F3.8272790234477725
sg23
F4.4846479769912548
sVY
L9L
sVX
L3L
sg57
g138
sg31
g32
sg33
g34
sg21
S'4'
sg19
S'space'
p252
sg30
g11
sg56
L9L
sg52
g127
sg55
L9L
sS'block.thisIndex'
p253
I11
sg58
g125
sg59
g177
sg60
g169
sa(dp254
S'block.thisTrialN'
p255
I15
sS'block.thisRepN'
p256
I0
sg29
NsS'block.thisN'
p257
I15
sg51
(S'SUBTRACT'
S'TRIPLE'
S'x'
S'y'
tp258
sg27
g28
sg53
L2L
sg54
(I12
I9
tp259
sg22
I0
sg20
F5.3653167291777208
sg23
F2.9004521878086962
sVY
L3L
sVX
L4L
sg57
L0L
sg31
g32
sg33
g34
sg21
S'1'
sg19
S'space'
p260
sg30
g11
sg56
L9L
sg52
g149
sg55
L9L
sS'block.thisIndex'
p261
I1
sg58
g146
sg59
L0L
sg60
VBUxy
p262
sa(dp263
S'block.thisTrialN'
p264
I16
sS'block.thisRepN'
p265
I0
sg29
NsS'block.thisN'
p266
I16
sg51
(S'INCREASE'
S'TIMES'
S'TRIPLE'
S'HALF'
S'x'
S'y'
tp267
sg27
g28
sg53
L4L
sg54
(I1
I3
I6
I7
tp268
sg22
I0
sg20
F9.2191772288642824
sg23
F7.6089263085450511
sVY
L2L
sVX
L2L
sg57
g149
sg31
g32
sg33
g34
sg21
S'6'
sg19
S'space'
p269
sg30
g11
sg56
L7L
sg52
g125
sg55
L7L
sS'block.thisIndex'
p270
I13
sg58
g138
sg59
g127
sg60
g187
sa(dp271
S'block.thisTrialN'
p272
I17
sS'block.thisRepN'
p273
I0
sg29
NsS'block.thisN'
p274
I17
sg51
(S'ADD'
S'HALF'
S'x'
S'y'
tp275
sg27
g28
sg53
L2L
sg54
(I2
I7
tp276
sg22
I1
sg20
F4.5785848246596288
sg23
F2.0523433379712515
sVY
L5L
sVX
L4L
sg57
L0L
sg31
g32
sg33
g34
sg21
S'7'
sg19
S'space'
p277
sg30
g11
sg56
L7L
sg52
g127
sg55
L7L
sS'block.thisIndex'
p278
I0
sg58
g196
sg59
L0L
sg60
g262
sa(dp279
S'block.thisTrialN'
p280
I0
sS'block.thisRepN'
p281
I0
sg29
NsS'block.thisN'
p282
I0
sVRule
p283
(S'TRIPLE'
S'SUBTRACT'
S'INCREASE'
S'HALF'
S'x'
S'y'
tp284
sg27
g28
sVLength
p285
L4L
sVIntermediate
p286
(I3
I4
I1
I3
tp287
sg22
I1
sg20
F8.9220533337211236
sg23
F7.3652015912230127
sVY
L3L
sVX
L6L
sVOperatorc
p288
Vincrease
p289
sg31
g32
sg33
g34
sg21
S'3'
sg19
S'space'
p290
sg30
g11
sVResult
p291
L3L
sVOperatora
p292
VSUBTRACT
p293
sVCorrectResponse
p294
L3L
sS'block.thisIndex'
p295
I13
sVOperatorb
p296
Vtriple
p297
sVOperatord
p298
Vhalf
p299
sVStructure
p300
VUBUUxy
p301
sa(dp302
S'block.thisTrialN'
p303
I1
sS'block.thisRepN'
p304
I0
sg29
NsS'block.thisN'
p305
I1
sg283
(S'TRIPLE'
S'HALF'
S'TIMES'
S'x'
S'y'
tp306
sg27
g28
sg285
L3L
sg286
(I6
I3
I9
tp307
sg22
I1
sg20
F6.2084987931593787
sg23
F5.7363574611081276
sVY
L3L
sVX
L2L
sg288
VTIMES
p308
sg31
g32
sg33
g34
sg21
S'9'
sg19
S'space'
p309
sg30
g11
sg291
L9L
sg292
g299
sg294
L9L
sS'block.thisIndex'
p310
I9
sg296
g297
sg298
L0L
sg300
VUUBxy
p311
sa(dp312
S'block.thisTrialN'
p313
I2
sS'block.thisRepN'
p314
I0
sg29
NsS'block.thisN'
p315
I2
sg283
(S'INCREASE'
S'TRIPLE'
S'HALF'
S'ADD'
S'x'
S'y'
tp316
sg27
g28
sg285
L4L
sg286
(I4
I2
I6
I7
tp317
sg22
I0
sg20
F6.4045535848417785
sg23
F12.464785799587844
sVY
L2L
sVX
L2L
sg288
g299
sg31
g32
sg33
g34
sg21
S'8'
sg19
S'space'
p318
sg30
g11
sg291
L7L
sg292
g297
sg294
L7L
sS'block.thisIndex'
p319
I17
sg296
g289
sg298
VADD
p320
sg300
VUUUBxy
p321
sa(dp322
S'block.thisTrialN'
p323
I3
sS'block.thisRepN'
p324
I0
sg29
NsS'block.thisN'
p325
I3
sg283
(S'INCREASE'
S'TIMES'
S'x'
S'y'
tp326
sg27
g28
sg285
L2L
sg286
(I8
I9
tp327
sg22
I1
sg20
F2.712158186302986
sg23
F2.1949114610033575
sVY
L4L
sVX
L2L
sg288
L0L
sg31
g32
sg33
g34
sg21
S'9'
sg19
S'space'
p328
sg30
g11
sg291
L9L
sg292
g308
sg294
L9L
sS'block.thisIndex'
p329
I2
sg296
g289
sg298
L0L
sg300
VUBxy
p330
sa(dp331
S'block.thisTrialN'
p332
I4
sS'block.thisRepN'
p333
I0
sg29
NsS'block.thisN'
p334
I4
sg283
(S'DIVIDE'
S'DECREASE'
S'THIRD'
S'DOUBLE'
S'x'
S'y'
tp335
sg27
g28
sg285
L4L
sg286
(I12
I4
I3
I1
tp336
sg22
I0
sg20
F5.8934861647139769
sg23
F12.242248571361415
sVY
L3L
sVX
L6L
sg288
Vthird
p337
sg31
g32
sg33
g34
sg21
S'7'
sg19
S'space'
p338
sg30
g11
sg291
L1L
sg292
Vdecrease
p339
sg294
L1L
sS'block.thisIndex'
p340
I10
sg296
VDIVIDE
p341
sg298
Vdouble
p342
sg300
VBUUUxy
p343
sa(dp344
S'block.thisTrialN'
p345
I5
sS'block.thisRepN'
p346
I0
sg29
NsS'block.thisN'
p347
I5
sg283
(S'THIRD'
S'INCREASE'
S'SUBTRACT'
S'HALF'
S'x'
S'y'
tp348
sg27
g28
sg285
L4L
sg286
(I4
I2
I3
I1
tp349
sg22
I0
sg20
F13.92783438047627
sg23
F3.8911256610299461
sVY
L2L
sVX
L8L
sg288
g293
sg31
g32
sg33
g34
sg21
S'9'
sg19
S'space'
p350
sg30
g11
sg291
L1L
sg292
g289
sg294
L1L
sS'block.thisIndex'
p351
I15
sg296
g337
sg298
g299
sg300
VUUBUxy
p352
sa(dp353
S'block.thisTrialN'
p354
I6
sS'block.thisRepN'
p355
I0
sg29
NsS'block.thisN'
p356
I6
sg283
(S'DECREASE'
S'DIVIDE'
S'TRIPLE'
S'DOUBLE'
S'x'
S'y'
tp357
sg27
g28
sg285
L4L
sg286
(I6
I18
I2
I1
tp358
sg22
I1
sg20
F4.4681961937458254
sg23
F3.6537548806809355
sVY
L9L
sVX
L3L
sg288
g297
sg31
g32
sg33
g34
sg21
S'1'
sg19
S'space'
p359
sg30
g11
sg291
L1L
sg292
g341
sg294
L1L
sS'block.thisIndex'
p360
I12
sg296
g339
sg298
g342
sg300
g301
sa(dp361
S'block.thisTrialN'
p362
I7
sS'block.thisRepN'
p363
I0
sg29
NsS'block.thisN'
p364
I7
sg283
(S'DOUBLE'
S'TIMES'
S'THIRD'
S'x'
S'y'
tp365
sg27
g28
sg285
L3L
sg286
(I1
I4
I8
tp366
sg22
I0
sg20
F3.5269883087603375
sg23
F8.389094647980528
sVY
L4L
sVX
L3L
sg288
g337
sg31
g32
sg33
g34
sg21
S'1'
sg19
S'space'
p367
sg30
g11
sg291
L8L
sg292
g308
sg294
L8L
sS'block.thisIndex'
p368
I6
sg296
g342
sg298
L0L
sg300
VUBUxy
p369
sa(dp370
S'block.thisTrialN'
p371
I8
sS'block.thisRepN'
p372
I0
sg29
NsS'block.thisN'
p373
I8
sg283
(S'ADD'
S'DECREASE'
S'HALF'
S'x'
S'y'
tp374
sg27
g28
sg285
L3L
sg286
(I3
I2
I6
tp375
sg22
I1
sg20
F4.7890143663680647
sg23
F3.4937547266890761
sVY
L4L
sVX
L6L
sg288
g299
sg31
g32
sg33
g34
sg21
S'6'
sg19
S'space'
p376
sg30
g11
sg291
L6L
sg292
g339
sg294
L6L
sS'block.thisIndex'
p377
I4
sg296
g320
sg298
L0L
sg300
VBUUxy
p378
sa(dp379
S'block.thisTrialN'
p380
I9
sS'block.thisRepN'
p381
I0
sg29
NsS'block.thisN'
p382
I9
sg283
(S'TIMES'
S'DECREASE'
S'THIRD'
S'DOUBLE'
S'x'
S'y'
tp383
sg27
g28
sg285
L4L
sg286
(I6
I2
I1
I2
tp384
sg22
I0
sg20
F4.742156006017467
sg23
F5.3926180803100578
sVY
L2L
sVX
L3L
sg288
g337
sg31
g32
sg33
g34
sg21
S'3'
sg19
S'space'
p385
sg30
g11
sg291
L2L
sg292
g339
sg294
L2L
sS'block.thisIndex'
p386
I11
sg296
g308
sg298
g342
sg300
g343
sa(dp387
S'block.thisTrialN'
p388
I10
sS'block.thisRepN'
p389
I0
sg29
NsS'block.thisN'
p390
I10
sg283
(S'INCREASE'
S'HALF'
S'TIMES'
S'TRIPLE'
S'x'
S'y'
tp391
sg27
g28
sg285
L4L
sg286
(I6
I12
I6
I7
tp392
sg22
I0
sg20
F14.388397520728176
sg23
F6.7063081967353355
sVY
L2L
sVX
L2L
sg288
g308
sg31
g32
sg33
g34
sg21
S'1'
sg19
S'space'
p393
sg30
g11
sg291
L7L
sg292
g299
sg294
L7L
sS'block.thisIndex'
p394
I14
sg296
g289
sg298
g297
sg300
g352
sa(dp395
S'block.thisTrialN'
p396
I11
sS'block.thisRepN'
p397
I0
sg29
NsS'block.thisN'
p398
I11
sg283
(S'TIMES'
S'THIRD'
S'x'
S'y'
tp399
sg27
g28
sg285
L2L
sg286
(I1
I4
tp400
sg22
I0
sg20
F4.6907488203432877
sg23
F4.007268041576026
sVY
L4L
sVX
L3L
sg288
L0L
sg31
g32
sg33
g34
sg21
S'3'
sg19
S'space'
p401
sg30
g11
sg291
L4L
sg292
g337
sg294
L4L
sS'block.thisIndex'
p402
I1
sg296
g308
sg298
L0L
sg300
VBUxy
p403
sa(dp404
S'block.thisTrialN'
p405
I12
sS'block.thisRepN'
p406
I0
sg29
NsS'block.thisN'
p407
I12
sg283
(S'INCREASE'
S'DIVIDE'
S'HALF'
S'x'
S'y'
tp408
sg27
g28
sg285
L3L
sg286
(I2
I1
I2
tp409
sg22
I1
sg20
F8.5348365897953045
sg23
F2.3524706196621992
sVY
L2L
sVX
L4L
sg288
g299
sg31
g32
sg33
g34
sg21
S'2'
sg19
S'space'
p410
sg30
g11
sg291
L2L
sg292
g341
sg294
L2L
sS'block.thisIndex'
p411
I7
sg296
g289
sg298
L0L
sg300
g369
sa(dp412
S'block.thisTrialN'
p413
I13
sS'block.thisRepN'
p414
I0
sg29
NsS'block.thisN'
p415
I13
sg283
(S'DECREASE'
S'HALF'
S'DIVIDE'
S'x'
S'y'
tp416
sg27
g28
sg285
L3L
sg286
(I4
I2
I1
tp417
sg22
I1
sg20
F8.7422830427822191
sg23
F4.3433078758243937
sVY
L2L
sVX
L8L
sg288
g341
sg31
g32
sg33
g34
sg21
S'1'
sg19
S'space'
p418
sg30
g11
sg291
L1L
sg292
g299
sg294
L1L
sS'block.thisIndex'
p419
I8
sg296
g339
sg298
L0L
sg300
g311
sa(dp420
S'block.thisTrialN'
p421
I14
sS'block.thisRepN'
p422
I0
sg29
NsS'block.thisN'
p423
I14
sg283
(S'SUBTRACT'
S'DOUBLE'
S'DECREASE'
S'x'
S'y'
tp424
sg27
g28
sg285
L3L
sg286
(I8
I16
I7
tp425
sg22
I1
sg20
F3.2517255824350286
sg23
F10.566772157326341
sVY
L9L
sVX
L9L
sg288
g339
sg31
g32
sg33
g34
sg21
S'7'
sg19
S'space'
p426
sg30
g11
sg291
L7L
sg292
g342
sg294
L7L
sS'block.thisIndex'
p427
I5
sg296
g293
sg298
L0L
sg300
g378
sa(dp428
S'block.thisTrialN'
p429
I15
sS'block.thisRepN'
p430
I0
sg29
NsS'block.thisN'
p431
I15
sg283
(S'SUBTRACT'
S'THIRD'
S'x'
S'y'
tp432
sg27
g28
sg285
L2L
sg286
(I3
I1
tp433
sg22
I0
sg20
F4.5184540993359406
sg23
F10.242782615649048
sVY
L2L
sVX
L9L
sg288
L0L
sg31
g32
sg33
g34
sg21
S'2'
sg19
S'space'
p434
sg30
g11
sg291
L1L
sg292
g337
sg294
L1L
sS'block.thisIndex'
p435
I0
sg296
g293
sg298
L0L
sg300
g403
sa(dp436
S'block.thisTrialN'
p437
I16
sS'block.thisRepN'
p438
I0
sg29
NsS'block.thisN'
p439
I16
sg283
(S'TRIPLE'
S'SUBTRACT'
S'x'
S'y'
tp440
sg27
g28
sg285
L2L
sg286
(I2
I6
tp441
sg22
I1
sg20
F4.4696320938819554
sg23
F1.6860869568190537
sVY
L6L
sVX
L8L
sg288
L0L
sg31
g32
sg33
g34
sg21
S'6'
sg19
S'space'
p442
sg30
g11
sg291
L6L
sg292
g293
sg294
L6L
sS'block.thisIndex'
p443
I3
sg296
g297
sg298
L0L
sg300
g330
sa(dp444
S'block.thisTrialN'
p445
I17
sS'block.thisRepN'
p446
I0
sg29
NsS'block.thisN'
p447
I17
sg283
(S'DECREASE'
S'HALF'
S'TRIPLE'
S'ADD'
S'x'
S'y'
tp448
sg27
g28
sg285
L4L
sg286
(I4
I12
I6
I5
tp449
sg22
I0
sg20
F4.309901761735091
sg23
F3.7958565023727715
sVY
L2L
sVX
L2L
sg288
g297
sg31
g32
sg33
g34
sg21
S'3'
sg19
S'space'
p450
sg30
g11
sg291
L5L
sg292
g299
sg294
L5L
sS'block.thisIndex'
p451
I16
sg296
g339
sg298
g320
sg300
g321
sa(dp452
S'block.thisTrialN'
p453
I0
sS'block.thisRepN'
p454
I0
sg29
NsS'block.thisN'
p455
I0
sVRule
p456
(S'ADD'
S'DOUBLE'
S'DECREASE'
S'THIRD'
S'x'
S'y'
tp457
sg27
g28
sVLength
p458
L4L
sVIntermediate
p459
(I2
I1
I2
I8
tp460
sg22
I0
sg20
F5.3162595483008772
sg23
F15.572465363249648
sVY
L6L
sVX
L6L
sVOperatorc
p461
Vdecrease
p462
sg31
g32
sg33
g34
sg21
S'1'
sg19
S'space'
p463
sg30
g11
sVResult
p464
L8L
sVOperatora
p465
Vdouble
p466
sVCorrectResponse
p467
L8L
sS'block.thisIndex'
p468
I10
sVOperatorb
p469
VADD
p470
sVOperatord
p471
Vthird
p472
sVStructure
p473
VBUUUxy
p474
sa(dp475
S'block.thisTrialN'
p476
I1
sS'block.thisRepN'
p477
I0
sg29
NsS'block.thisN'
p478
I1
sg456
(S'THIRD'
S'TIMES'
S'DOUBLE'
S'DECREASE'
S'x'
S'y'
tp479
sg27
g28
sg458
L4L
sg459
(I1
I2
I6
I2
tp480
sg22
I0
sg20
F4.2918334971764125
sg23
F8.2752490777638741
sVY
L3L
sVX
L2L
sg461
g466
sg31
g32
sg33
g34
sg21
S'1'
sg19
S'space'
p481
sg30
g11
sg464
L2L
sg465
VTIMES
p482
sg467
L2L
sS'block.thisIndex'
p483
I13
sg469
g472
sg471
g462
sg473
VUBUUxy
p484
sa(dp485
S'block.thisTrialN'
p486
I2
sS'block.thisRepN'
p487
I0
sg29
NsS'block.thisN'
p488
I2
sg456
(S'THIRD'
S'DOUBLE'
S'ADD'
S'DECREASE'
S'x'
S'y'
tp489
sg27
g28
sg458
L4L
sg459
(I5
I12
I24
I8
tp490
sg22
I0
sg20
F10.305510070000309
sg23
F6.6588758963043801
sVY
L7L
sVX
L6L
sg461
g470
sg31
g32
sg33
g34
sg21
S'6'
sg19
S'space'
p491
sg30
g11
sg464
L8L
sg465
g466
sg467
L8L
sS'block.thisIndex'
p492
I14
sg469
g472
sg471
g462
sg473
VUUBUxy
p493
sa(dp494
S'block.thisTrialN'
p495
I3
sS'block.thisRepN'
p496
I0
sg29
NsS'block.thisN'
p497
I3
sg456
(S'SUBTRACT'
S'DECREASE'
S'TRIPLE'
S'DOUBLE'
S'x'
S'y'
tp498
sg27
g28
sg458
L4L
sg459
(I6
I18
I17
I8
tp499
sg22
I1
sg20
F5.8955170027911663
sg23
F3.2398898174869828
sVY
L9L
sVX
L3L
sg461
Vtriple
p500
sg31
g32
sg33
g34
sg21
S'8'
sg19
S'space'
p501
sg30
g11
sg464
L8L
sg465
g462
sg467
L8L
sS'block.thisIndex'
p502
I11
sg469
VSUBTRACT
p503
sg471
g466
sg473
g474
sa(dp504
S'block.thisTrialN'
p505
I4
sS'block.thisRepN'
p506
I0
sg29
NsS'block.thisN'
p507
I4
sg456
(S'THIRD'
S'DOUBLE'
S'INCREASE'
S'TIMES'
S'x'
S'y'
tp508
sg27
g28
sg458
L4L
sg459
(I8
I9
I18
I6
tp509
sg22
I0
sg20
F3.3622930447163526
sg23
F4.0491842176415958
sVY
L4L
sVX
L2L
sg461
Vincrease
p510
sg31
g32
sg33
g34
sg21
S'5'
sg19
S'space'
p511
sg30
g11
sg464
L6L
sg465
g466
sg467
L6L
sS'block.thisIndex'
p512
I17
sg469
g472
sg471
g482
sg473
VUUUBxy
p513
sa(dp514
S'block.thisTrialN'
p515
I5
sS'block.thisRepN'
p516
I0
sg29
NsS'block.thisN'
p517
I5
sg456
(S'THIRD'
S'HALF'
S'ADD'
S'x'
S'y'
tp518
sg27
g28
sg458
L3L
sg459
(I6
I3
I1
tp519
sg22
I0
sg20
F3.477185705647571
sg23
F9.5198497536766808
sVY
L3L
sVX
L3L
sg461
g470
sg31
g32
sg33
g34
sg21
S'5'
sg19
S'space'
p520
sg30
g11
sg464
L1L
sg465
Vhalf
p521
sg467
L1L
sS'block.thisIndex'
p522
I9
sg469
g472
sg471
L0L
sg473
VUUBxy
p523
sa(dp524
S'block.thisTrialN'
p525
I6
sS'block.thisRepN'
p526
I0
sg29
NsS'block.thisN'
p527
I6
sg456
(S'DOUBLE'
S'ADD'
S'INCREASE'
S'THIRD'
S'x'
S'y'
tp528
sg27
g28
sg458
L4L
sg459
(I1
I2
I4
I8
tp529
sg22
I0
sg20
F7.0763259853993077
sg23
F4.6287258424563333
sVY
L2L
sVX
L3L
sg461
g510
sg31
g32
sg33
g34
sg21
S'2'
sg19
S'space'
p530
sg30
g11
sg464
L8L
sg465
g470
sg467
L8L
sS'block.thisIndex'
p531
I12
sg469
g466
sg471
g472
sg473
g484
sa(dp532
S'block.thisTrialN'
p533
I7
sS'block.thisRepN'
p534
I0
sg29
NsS'block.thisN'
p535
I7
sg456
(S'INCREASE'
S'SUBTRACT'
S'HALF'
S'x'
S'y'
tp536
sg27
g28
sg458
L3L
sg459
(I4
I2
I3
tp537
sg22
I1
sg20
F7.5394130622444209
sg23
F6.7605248892214149
sVY
L2L
sVX
L8L
sg461
g521
sg31
g32
sg33
g34
sg21
S'3'
sg19
S'space'
p538
sg30
g11
sg464
L3L
sg465
g503
sg467
L3L
sS'block.thisIndex'
p539
I7
sg469
g510
sg471
L0L
sg473
VUBUxy
p540
sa(dp541
S'block.thisTrialN'
p542
I8
sS'block.thisRepN'
p543
I0
sg29
NsS'block.thisN'
p544
I8
sg456
(S'THIRD'
S'INCREASE'
S'DIVIDE'
S'DOUBLE'
S'x'
S'y'
tp545
sg27
g28
sg458
L4L
sg459
(I18
I2
I3
I1
tp546
sg22
I0
sg20
F15.458523203094956
sg23
F5.0006624808593187
sVY
L9L
sVX
L9L
sg461
VDIVIDE
p547
sg31
g32
sg33
g34
sg21
S'3'
sg19
S'space'
p548
sg30
g11
sg464
L1L
sg465
g510
sg467
L1L
sS'block.thisIndex'
p549
I15
sg469
g472
sg471
g466
sg473
g493
sa(dp550
S'block.thisTrialN'
p551
I9
sS'block.thisRepN'
p552
I0
sg29
NsS'block.thisN'
p553
I9
sg456
(S'DECREASE'
S'DIVIDE'
S'x'
S'y'
tp554
sg27
g28
sg458
L2L
sg459
(I2
I1
tp555
sg22
I1
sg20
F2.1303015530284029
sg23
F2.3751325049088337
sVY
L4L
sVX
L8L
sg461
L0L
sg31
g32
sg33
g34
sg21
S'1'
sg19
S'space'
p556
sg30
g11
sg464
L1L
sg465
g547
sg467
L1L
sS'block.thisIndex'
p557
I2
sg469
g462
sg471
L0L
sg473
VUBxy
p558
sa(dp559
S'block.thisTrialN'
p560
I10
sS'block.thisRepN'
p561
I0
sg29
NsS'block.thisN'
p562
I10
sg456
(S'DIVIDE'
S'INCREASE'
S'x'
S'y'
tp563
sg27
g28
sg458
L2L
sg459
(I4
I2
tp564
sg22
I1
sg20
F1.9198765608889516
sg23
F1.4885665180918295
sVY
L2L
sVX
L3L
sg461
L0L
sg31
g32
sg33
g34
sg21
S'2'
sg19
S'space'
p565
sg30
g11
sg464
L2L
sg465
g510
sg467
L2L
sS'block.thisIndex'
p566
I0
sg469
g547
sg471
L0L
sg473
VBUxy
p567
sa(dp568
S'block.thisTrialN'
p569
I11
sS'block.thisRepN'
p570
I0
sg29
NsS'block.thisN'
p571
I11
sg456
(S'INCREASE'
S'ADD'
S'x'
S'y'
tp572
sg27
g28
sg458
L2L
sg459
(I5
I6
tp573
sg22
I1
sg20
F2.6947464531986043
sg23
F1.4116557437228039
sVY
L2L
sVX
L3L
sg461
L0L
sg31
g32
sg33
g34
sg21
S'6'
sg19
S'space'
p574
sg30
g11
sg464
L6L
sg465
g470
sg467
L6L
sS'block.thisIndex'
p575
I3
sg469
g510
sg471
L0L
sg473
g558
sa(dp576
S'block.thisTrialN'
p577
I12
sS'block.thisRepN'
p578
I0
sg29
NsS'block.thisN'
p579
I12
sg456
(S'SUBTRACT'
S'DECREASE'
S'x'
S'y'
tp580
sg27
g28
sg458
L2L
sg459
(I5
I3
tp581
sg22
I1
sg20
F2.8374507120170165
sg23
F2.018690149707254
sVY
L2L
sVX
L6L
sg461
L0L
sg31
g32
sg33
g34
sg21
S'3'
sg19
S'space'
p582
sg30
g11
sg464
L3L
sg465
g462
sg467
L3L
sS'block.thisIndex'
p583
I1
sg469
g503
sg471
L0L
sg473
g567
sa(dp584
S'block.thisTrialN'
p585
I13
sS'block.thisRepN'
p586
I0
sg29
NsS'block.thisN'
p587
I13
sg456
(S'HALF'
S'TRIPLE'
S'INCREASE'
S'DIVIDE'
S'x'
S'y'
tp588
sg27
g28
sg458
L4L
sg459
(I3
I4
I12
I6
tp589
sg22
I1
sg20
F6.6778169698081911
sg23
F10.136016106727766
sVY
L3L
sVX
L9L
sg461
g510
sg31
g32
sg33
g34
sg21
S'6'
sg19
S'space'
p590
sg30
g11
sg464
L6L
sg465
g500
sg467
L6L
sS'block.thisIndex'
p591
I16
sg469
g521
sg471
g547
sg473
g513
sa(dp592
S'block.thisTrialN'
p593
I14
sS'block.thisRepN'
p594
I0
sg29
NsS'block.thisN'
p595
I14
sg456
(S'INCREASE'
S'TRIPLE'
S'DIVIDE'
S'x'
S'y'
tp596
sg27
g28
sg458
L3L
sg459
(I2
I6
I7
tp597
sg22
I1
sg20
F2.9147667440702207
sg23
F2.704573777737096
sVY
L3L
sVX
L6L
sg461
g547
sg31
g32
sg33
g34
sg21
S'7'
sg19
S'space'
p598
sg30
g11
sg464
L7L
sg465
g500
sg467
L7L
sS'block.thisIndex'
p599
I8
sg469
g510
sg471
L0L
sg473
g523
sa(dp600
S'block.thisTrialN'
p601
I15
sS'block.thisRepN'
p602
I0
sg29
NsS'block.thisN'
p603
I15
sg456
(S'DIVIDE'
S'DECREASE'
S'TRIPLE'
S'x'
S'y'
tp604
sg27
g28
sg458
L3L
sg459
(I9
I8
I4
tp605
sg22
I1
sg20
F3.0122634203289635
sg23
F2.3243829006387386
sVY
L2L
sVX
L3L
sg461
g500
sg31
g32
sg33
g34
sg21
S'4'
sg19
S'space'
p606
sg30
g11
sg464
L4L
sg465
g462
sg467
L4L
sS'block.thisIndex'
p607
I5
sg469
g547
sg471
L0L
sg473
VBUUxy
p608
sa(dp609
S'block.thisTrialN'
p610
I16
sS'block.thisRepN'
p611
I0
sg29
NsS'block.thisN'
p612
I16
sg456
(S'ADD'
S'HALF'
S'THIRD'
S'x'
S'y'
tp613
sg27
g28
sg458
L3L
sg459
(I2
I1
I9
tp614
sg22
I0
sg20
F2.3763349794317037
sg23
F4.2437264671607409
sVY
L8L
sVX
L6L
sg461
g472
sg31
g32
sg33
g34
sg21
S'1'
sg19
S'space'
p615
sg30
g11
sg464
L9L
sg465
g521
sg467
L9L
sS'block.thisIndex'
p616
I4
sg469
g470
sg471
L0L
sg473
g608
sa(dp617
S'block.thisTrialN'
p618
I17
sS'block.thisRepN'
p619
I0
sg29
NsS'block.thisN'
p620
I17
sg456
(S'HALF'
S'ADD'
S'TRIPLE'
S'x'
S'y'
tp621
sg27
g28
sg458
L3L
sg459
(I9
I12
I6
tp622
sg22
I1
sg20
F5.653604396386072
sg23
F5.9247683504363522
sVY
L3L
sVX
L3L
sg461
g500
sg31
g32
sg33
g34
sg21
S'6'
sg19
S'space'
p623
sg30
g11
sg464
L6L
sg465
g470
sg467
L6L
sS'block.thisIndex'
p624
I6
sg469
g521
sg471
L0L
sg473
g540
sa(dp625
S'block.thisTrialN'
p626
I0
sS'block.thisRepN'
p627
I0
sg29
NsS'block.thisN'
p628
I0
sVRule
p629
(S'THIRD'
S'TIMES'
S'HALF'
S'INCREASE'
S'x'
S'y'
tp630
sg27
g28
sVLength
p631
L4L
sVIntermediate
p632
(I8
I4
I12
I4
tp633
sg22
I0
sg20
F5.8372879789967556
sg23
F6.2509500633750577
sVY
L3L
sVX
L7L
sVOperatorc
p634
Vhalf
p635
sg31
g32
sg33
g34
sg21
S'1'
sg19
S'space'
p636
sg30
g11
sVResult
p637
L4L
sVOperatora
p638
VTIMES
p639
sVCorrectResponse
p640
L4L
sS'block.thisIndex'
p641
I13
sVOperatorb
p642
Vthird
p643
sVOperatord
p644
Vincrease
p645
sVStructure
p646
VUBUUxy
p647
sa(dp648
S'block.thisTrialN'
p649
I1
sS'block.thisRepN'
p650
I0
sg29
NsS'block.thisN'
p651
I1
sg629
(S'THIRD'
S'INCREASE'
S'ADD'
S'DOUBLE'
S'x'
S'y'
tp652
sg27
g28
sg631
L4L
sg632
(I16
I20
I21
I7
tp653
sg22
I1
sg20
F3.0402377511782106
sg23
F9.0471362313255668
sVY
L4L
sVX
L8L
sg634
VADD
p654
sg31
g32
sg33
g34
sg21
S'7'
sg19
S'space'
p655
sg30
g11
sg637
L7L
sg638
g645
sg640
L7L
sS'block.thisIndex'
p656
I14
sg642
g643
sg644
Vdouble
p657
sg646
VUUBUxy
p658
sa(dp659
S'block.thisTrialN'
p660
I2
sS'block.thisRepN'
p661
I0
sg29
NsS'block.thisN'
p662
I2
sg629
(S'TRIPLE'
S'DECREASE'
S'HALF'
S'SUBTRACT'
S'x'
S'y'
tp663
sg27
g28
sg631
L4L
sg632
(I4
I2
I1
I3
tp664
sg22
I1
sg20
F4.0053215447114781
sg23
F3.432187751197489
sVY
L5L
sVX
L9L
sg634
g635
sg31
g32
sg33
g34
sg21
S'3'
sg19
S'space'
p665
sg30
g11
sg637
L3L
sg638
Vdecrease
p666
sg640
L3L
sS'block.thisIndex'
p667
I17
sg642
Vtriple
p668
sg644
VSUBTRACT
p669
sg646
VUUUBxy
p670
sa(dp671
S'block.thisTrialN'
p672
I3
sS'block.thisRepN'
p673
I0
sg29
NsS'block.thisN'
p674
I3
sg629
(S'DECREASE'
S'TRIPLE'
S'HALF'
S'ADD'
S'x'
S'y'
tp675
sg27
g28
sg631
L4L
sg632
(I6
I3
I9
I8
tp676
sg22
I1
sg20
F3.4253827113134321
sg23
F3.1726205370214302
sVY
L2L
sVX
L4L
sg634
g635
sg31
g32
sg33
g34
sg21
S'8'
sg19
S'space'
p677
sg30
g11
sg637
L8L
sg638
g668
sg640
L8L
sS'block.thisIndex'
p678
I16
sg642
g666
sg644
g654
sg646
g670
sa(dp679
S'block.thisTrialN'
p680
I4
sS'block.thisRepN'
p681
I0
sg29
NsS'block.thisN'
p682
I4
sg629
(S'TIMES'
S'THIRD'
S'DOUBLE'
S'x'
S'y'
tp683
sg27
g28
sg631
L3L
sg632
(I6
I2
I4
tp684
sg22
I0
sg20
F1.9597503500699531
sg23
F11.188697859382955
sVY
L2L
sVX
L3L
sg634
g657
sg31
g32
sg33
g34
sg21
S'1'
sg19
S'space'
p685
sg30
g11
sg637
L4L
sg638
g643
sg640
L4L
sS'block.thisIndex'
p686
I5
sg642
g639
sg644
L0L
sg646
VBUUxy
p687
sa(dp688
S'block.thisTrialN'
p689
I5
sS'block.thisRepN'
p690
I0
sg29
NsS'block.thisN'
p691
I5
sg629
(S'DIVIDE'
S'DOUBLE'
S'INCREASE'
S'THIRD'
S'x'
S'y'
tp692
sg27
g28
sg631
L4L
sg632
(I2
I3
I6
I2
tp693
sg22
I0
sg20
F10.19799988871091
sg23
F8.4828715623589233
sVY
L3L
sVX
L6L
sg634
g645
sg31
g32
sg33
g34
sg21
S'6'
sg19
S'space'
p694
sg30
g11
sg637
L2L
sg638
g657
sg640
L2L
sS'block.thisIndex'
p695
I10
sg642
VDIVIDE
p696
sg644
g643
sg646
VBUUUxy
p697
sa(dp698
S'block.thisTrialN'
p699
I6
sS'block.thisRepN'
p700
I0
sg29
NsS'block.thisN'
p701
I6
sg629
(S'TRIPLE'
S'DOUBLE'
S'SUBTRACT'
S'DECREASE'
S'x'
S'y'
tp702
sg27
g28
sg631
L4L
sg632
(I4
I1
I2
I6
tp703
sg22
I1
sg20
F7.9735242127499077
sg23
F2.7290330753894523
sVY
L3L
sVX
L5L
sg634
g669
sg31
g32
sg33
g34
sg21
S'6'
sg19
S'space'
p704
sg30
g11
sg637
L6L
sg638
g657
sg640
L6L
sS'block.thisIndex'
p705
I15
sg642
g668
sg644
g666
sg646
g658
sa(dp706
S'block.thisTrialN'
p707
I7
sS'block.thisRepN'
p708
I0
sg29
NsS'block.thisN'
p709
I7
sg629
(S'THIRD'
S'INCREASE'
S'SUBTRACT'
S'x'
S'y'
tp710
sg27
g28
sg631
L3L
sg632
(I2
I3
I1
tp711
sg22
I0
sg20
F5.4266562284319662
sg23
F2.2769971453526523
sVY
L6L
sVX
L8L
sg634
g669
sg31
g32
sg33
g34
sg21
S'9'
sg19
S'space'
p712
sg30
g11
sg637
L1L
sg638
g645
sg640
L1L
sS'block.thisIndex'
p713
I9
sg642
g643
sg644
L0L
sg646
VUUBxy
p714
sa(dp715
S'block.thisTrialN'
p716
I8
sS'block.thisRepN'
p717
I0
sg29
NsS'block.thisN'
p718
I8
sg629
(S'INCREASE'
S'DIVIDE'
S'TRIPLE'
S'HALF'
S'x'
S'y'
tp719
sg27
g28
sg631
L4L
sg632
(I2
I6
I2
I3
tp720
sg22
I0
sg20
F4.1608610641560517
sg23
F7.1087857981910929
sVY
L3L
sVX
L4L
sg634
g668
sg31
g32
sg33
g34
sg21
S'4'
sg19
S'space'
p721
sg30
g11
sg637
L3L
sg638
g696
sg640
L3L
sS'block.thisIndex'
p722
I12
sg642
g645
sg644
g635
sg646
g647
sa(dp723
S'block.thisTrialN'
p724
I9
sS'block.thisRepN'
p725
I0
sg29
NsS'block.thisN'
p726
I9
sg629
(S'INCREASE'
S'ADD'
S'TRIPLE'
S'x'
S'y'
tp727
sg27
g28
sg631
L3L
sg632
(I6
I8
I9
tp728
sg22
I1
sg20
F4.2172594289586414
sg23
F6.2102377616974991
sVY
L2L
sVX
L2L
sg634
g668
sg31
g32
sg33
g34
sg21
S'9'
sg19
S'space'
p729
sg30
g11
sg637
L9L
sg638
g654
sg640
L9L
sS'block.thisIndex'
p730
I6
sg642
g645
sg644
L0L
sg646
VUBUxy
p731
sa(dp732
S'block.thisTrialN'
p733
I10
sS'block.thisRepN'
p734
I0
sg29
NsS'block.thisN'
p735
I10
sg629
(S'DOUBLE'
S'TIMES'
S'x'
S'y'
tp736
sg27
g28
sg631
L2L
sg632
(I4
I8
tp737
sg22
I1
sg20
F1.3451262860908173
sg23
F2.7733828974887729
sVY
L2L
sVX
L2L
sg634
L0L
sg31
g32
sg33
g34
sg21
S'8'
sg19
S'space'
p738
sg30
g11
sg637
L8L
sg638
g639
sg640
L8L
sS'block.thisIndex'
p739
I3
sg642
g657
sg644
L0L
sg646
VUBxy
p740
sa(dp741
S'block.thisTrialN'
p742
I11
sS'block.thisRepN'
p743
I0
sg29
NsS'block.thisN'
p744
I11
sg629
(S'DOUBLE'
S'ADD'
S'x'
S'y'
tp745
sg27
g28
sg631
L2L
sg632
(I4
I8
tp746
sg22
I1
sg20
F1.6374997769016773
sg23
F2.5488711752695963
sVY
L2L
sVX
L2L
sg634
L0L
sg31
g32
sg33
g34
sg21
S'8'
sg19
S'space'
p747
sg30
g11
sg637
L8L
sg638
g654
sg640
L8L
sS'block.thisIndex'
p748
I2
sg642
g657
sg644
L0L
sg646
g740
sa(dp749
S'block.thisTrialN'
p750
I12
sS'block.thisRepN'
p751
I0
sg29
NsS'block.thisN'
p752
I12
sg629
(S'DIVIDE'
S'TRIPLE'
S'HALF'
S'x'
S'y'
tp753
sg27
g28
sg631
L3L
sg632
(I4
I12
I4
tp754
sg22
I0
sg20
F3.018745793873677
sg23
F4.0478561062191147
sVY
L3L
sVX
L8L
sg634
g635
sg31
g32
sg33
g34
sg21
S'9'
sg19
S'space'
p755
sg30
g11
sg637
L4L
sg638
g668
sg640
L4L
sS'block.thisIndex'
p756
I4
sg642
g696
sg644
L0L
sg646
g687
sa(dp757
S'block.thisTrialN'
p758
I13
sS'block.thisRepN'
p759
I0
sg29
NsS'block.thisN'
p760
I13
sg629
(S'TIMES'
S'INCREASE'
S'HALF'
S'TRIPLE'
S'x'
S'y'
tp761
sg27
g28
sg631
L4L
sg632
(I6
I3
I4
I8
tp762
sg22
I0
sg20
F4.7382808603870217
sg23
F6.1336563029908575
sVY
L2L
sVX
L2L
sg634
g635
sg31
g32
sg33
g34
sg21
S'6'
sg19
S'space'
p763
sg30
g11
sg637
L8L
sg638
g645
sg640
L8L
sS'block.thisIndex'
p764
I11
sg642
g639
sg644
g668
sg646
g697
sa(dp765
S'block.thisTrialN'
p766
I14
sS'block.thisRepN'
p767
I0
sg29
NsS'block.thisN'
p768
I14
sg629
(S'SUBTRACT'
S'INCREASE'
S'x'
S'y'
tp769
sg27
g28
sg631
L2L
sg632
(I6
I2
tp770
sg22
I1
sg20
F1.8127842359535862
sg23
F5.3667445801838767
sVY
L4L
sVX
L5L
sg634
L0L
sg31
g32
sg33
g34
sg21
S'2'
sg19
S'space'
p771
sg30
g11
sg637
L2L
sg638
g645
sg640
L2L
sS'block.thisIndex'
p772
I1
sg642
g669
sg644
L0L
sg646
VBUxy
p773
sa(dp774
S'block.thisTrialN'
p775
I15
sS'block.thisRepN'
p776
I0
sg29
NsS'block.thisN'
p777
I15
sg629
(S'DECREASE'
S'TRIPLE'
S'DIVIDE'
S'x'
S'y'
tp778
sg27
g28
sg631
L3L
sg632
(I2
I6
I5
tp779
sg22
I1
sg20
F3.077262487669941
sg23
F1.8911767556855921
sVY
L4L
sVX
L8L
sg634
g696
sg31
g32
sg33
g34
sg21
S'5'
sg19
S'space'
p780
sg30
g11
sg637
L5L
sg638
g668
sg640
L5L
sS'block.thisIndex'
p781
I8
sg642
g666
sg644
L0L
sg646
g714
sa(dp782
S'block.thisTrialN'
p783
I16
sS'block.thisRepN'
p784
I0
sg29
NsS'block.thisN'
p785
I16
sg629
(S'INCREASE'
S'SUBTRACT'
S'THIRD'
S'x'
S'y'
tp786
sg27
g28
sg631
L3L
sg632
(I3
I1
I2
tp787
sg22
I1
sg20
F4.6442656208819244
sg23
F10.262262632895727
sVY
L2L
sVX
L9L
sg634
g643
sg31
g32
sg33
g34
sg21
S'2'
sg19
S'space'
p788
sg30
g11
sg637
L2L
sg638
g669
sg640
L2L
sS'block.thisIndex'
p789
I7
sg642
g645
sg644
L0L
sg646
g731
sa(dp790
S'block.thisTrialN'
p791
I17
sS'block.thisRepN'
p792
I0
sg29
NsS'block.thisN'
p793
I17
sg629
(S'ADD'
S'THIRD'
S'x'
S'y'
tp794
sg27
g28
sg631
L2L
sg632
(I1
I7
tp795
sg22
I0
sg20
F1.4140865900844801
sg23
F3.459021551097976
sVY
L6L
sVX
L3L
sg634
L0L
sg31
g32
sg33
g34
sg21
S'1'
sg19
S'space'
p796
sg30
g11
sg637
L7L
sg638
g643
sg640
L7L
sS'block.thisIndex'
p797
I0
sg642
g654
sg644
L0L
sg646
g773
sa(dp798
S'block.thisTrialN'
p799
I0
sS'block.thisRepN'
p800
I0
sg29
NsS'block.thisN'
p801
I0
sVRule
p802
(S'THIRD'
S'TIMES'
S'HALF'
S'x'
S'y'
tp803
sg27
g28
sVLength
p804
L3L
sVIntermediate
p805
(I3
I18
I6
tp806
sg22
I0
sg20
F1.9041306539729703
sg23
F9.1224137261451688
sVY
L6L
sVX
L6L
sVOperatorc
p807
Vhalf
p808
sg31
g32
sg33
g34
sg21
S'5'
sg19
S'space'
p809
sg30
g11
sVResult
p810
L6L
sVOperatora
p811
VTIMES
p812
sVCorrectResponse
p813
L6L
sS'block.thisIndex'
p814
I7
sVOperatorb
p815
Vthird
p816
sVOperatord
p817
L0L
sVStructure
p818
VUBUxy
p819
sa(dp820
S'block.thisTrialN'
p821
I1
sS'block.thisRepN'
p822
I0
sg29
NsS'block.thisN'
p823
I1
sg802
(S'THIRD'
S'DIVIDE'
S'DECREASE'
S'x'
S'y'
tp824
sg27
g28
sg804
L3L
sg805
(I6
I3
I1
tp825
sg22
I0
sg20
F6.3207394308410585
sg23
F3.0415350658004172
sVY
L2L
sVX
L7L
sg807
Vdecrease
p826
sg31
g32
sg33
g34
sg21
S'9'
sg19
S'space'
p827
sg30
g11
sg810
L1L
sg811
VDIVIDE
p828
sg813
L1L
sS'block.thisIndex'
p829
I6
sg815
g816
sg817
L0L
sg818
g819
sa(dp830
S'block.thisTrialN'
p831
I2
sS'block.thisRepN'
p832
I0
sg29
NsS'block.thisN'
p833
I2
sg802
(S'INCREASE'
S'ADD'
S'HALF'
S'TRIPLE'
S'x'
S'y'
tp834
sg27
g28
sg804
L4L
sg805
(I6
I3
I6
I7
tp835
sg22
I1
sg20
F3.0926188852172345
sg23
F5.075372684863396
sVY
L3L
sVX
L2L
sg807
g808
sg31
g32
sg33
g34
sg21
S'7'
sg19
S'space'
p836
sg30
g11
sg810
L7L
sg811
VADD
p837
sg813
L7L
sS'block.thisIndex'
p838
I13
sg815
Vincrease
p839
sg817
Vtriple
p840
sg818
VUBUUxy
p841
sa(dp842
S'block.thisTrialN'
p843
I3
sS'block.thisRepN'
p844
I0
sg29
NsS'block.thisN'
p845
I3
sg802
(S'SUBTRACT'
S'TRIPLE'
S'DECREASE'
S'DOUBLE'
S'x'
S'y'
tp846
sg27
g28
sg804
L4L
sg805
(I4
I3
I9
I1
tp847
sg22
I1
sg20
F5.7329729642660823
sg23
F5.6212215755367652
sVY
L8L
sVX
L2L
sg807
g826
sg31
g32
sg33
g34
sg21
S'1'
sg19
S'space'
p848
sg30
g11
sg810
L1L
sg811
g840
sg813
L1L
sS'block.thisIndex'
p849
I11
sg815
VSUBTRACT
p850
sg817
Vdouble
p851
sg818
VBUUUxy
p852
sa(dp853
S'block.thisTrialN'
p854
I4
sS'block.thisRepN'
p855
I0
sg29
NsS'block.thisN'
p856
I4
sg802
(S'DECREASE'
S'TRIPLE'
S'HALF'
S'SUBTRACT'
S'x'
S'y'
tp857
sg27
g28
sg804
L4L
sg805
(I4
I2
I6
I5
tp858
sg22
I1
sg20
F2.9010324272676371
sg23
F3.3210358498909045
sVY
L2L
sVX
L6L
sg807
g808
sg31
g32
sg33
g34
sg21
S'5'
sg19
S'space'
p859
sg30
g11
sg810
L5L
sg811
g840
sg813
L5L
sS'block.thisIndex'
p860
I16
sg815
g826
sg817
g850
sg818
VUUUBxy
p861
sa(dp862
S'block.thisTrialN'
p863
I5
sS'block.thisRepN'
p864
I0
sg29
NsS'block.thisN'
p865
I5
sg802
(S'THIRD'
S'DIVIDE'
S'x'
S'y'
tp866
sg27
g28
sg804
L2L
sg805
(I3
I1
tp867
sg22
I0
sg20
F1.5749969990865793
sg23
F1.8277304763323627
sVY
L2L
sVX
L6L
sg807
L0L
sg31
g32
sg33
g34
sg21
S'9'
sg19
S'space'
p868
sg30
g11
sg810
L1L
sg811
g828
sg813
L1L
sS'block.thisIndex'
p869
I3
sg815
g816
sg817
L0L
sg818
VUBxy
p870
sa(dp871
S'block.thisTrialN'
p872
I6
sS'block.thisRepN'
p873
I0
sg29
NsS'block.thisN'
p874
I6
sg802
(S'TIMES'
S'DOUBLE'
S'x'
S'y'
tp875
sg27
g28
sg804
L2L
sg805
(I4
I8
tp876
sg22
I1
sg20
F4.4832834693661425
sg23
F1.6980539580690674
sVY
L2L
sVX
L2L
sg807
L0L
sg31
g32
sg33
g34
sg21
S'8'
sg19
S'space'
p877
sg30
g11
sg810
L8L
sg811
g851
sg813
L8L
sS'block.thisIndex'
p878
I1
sg815
g812
sg817
L0L
sg818
VBUxy
p879
sa(dp880
S'block.thisTrialN'
p881
I7
sS'block.thisRepN'
p882
I0
sg29
NsS'block.thisN'
p883
I7
sg802
(S'DOUBLE'
S'DIVIDE'
S'TRIPLE'
S'INCREASE'
S'x'
S'y'
tp884
sg27
g28
sg804
L4L
sg805
(I5
I15
I3
I6
tp885
sg22
I0
sg20
F5.1073736955586355
sg23
F13.024980393296573
sVY
L5L
sVX
L4L
sg807
g840
sg31
g32
sg33
g34
sg21
S'3'
sg19
S'space'
p886
sg30
g11
sg810
L6L
sg811
g828
sg813
L6L
sS'block.thisIndex'
p887
I12
sg815
g851
sg817
g839
sg818
g841
sa(dp888
S'block.thisTrialN'
p889
I8
sS'block.thisRepN'
p890
I0
sg29
NsS'block.thisN'
p891
I8
sg802
(S'SUBTRACT'
S'DOUBLE'
S'TRIPLE'
S'DECREASE'
S'x'
S'y'
tp892
sg27
g28
sg804
L4L
sg805
(I2
I6
I12
I8
tp893
sg22
I1
sg20
F5.8786585619964171
sg23
F4.647396744141588
sVY
L4L
sVX
L3L
sg807
g840
sg31
g32
sg33
g34
sg21
S'8'
sg19
S'space'
p894
sg30
g11
sg810
L8L
sg811
g851
sg813
L8L
sS'block.thisIndex'
p895
I10
sg815
g850
sg817
g826
sg818
g852
sa(dp896
S'block.thisTrialN'
p897
I9
sS'block.thisRepN'
p898
I0
sg29
NsS'block.thisN'
p899
I9
sg802
(S'SUBTRACT'
S'TRIPLE'
S'DECREASE'
S'x'
S'y'
tp900
sg27
g28
sg804
L3L
sg805
(I4
I12
I3
tp901
sg22
I1
sg20
F3.9566465239331592
sg23
F5.5576111632690299
sVY
L9L
sVX
L5L
sg807
g826
sg31
g32
sg33
g34
sg21
S'3'
sg19
S'space'
p902
sg30
g11
sg810
L3L
sg811
g840
sg813
L3L
sS'block.thisIndex'
p903
I4
sg815
g850
sg817
L0L
sg818
VBUUxy
p904
sa(dp905
S'block.thisTrialN'
p906
I10
sS'block.thisRepN'
p907
I0
sg29
NsS'block.thisN'
p908
I10
sg802
(S'THIRD'
S'DECREASE'
S'TIMES'
S'HALF'
S'x'
S'y'
tp909
sg27
g28
sg804
L4L
sg805
(I4
I16
I15
I5
tp910
sg22
I0
sg20
F5.2683561970479786
sg23
F6.4808459737105295
sVY
L4L
sVX
L8L
sg807
g812
sg31
g32
sg33
g34
sg21
S'4'
sg19
S'space'
p911
sg30
g11
sg810
L5L
sg811
g826
sg813
L5L
sS'block.thisIndex'
p912
I15
sg815
g816
sg817
g808
sg818
VUUBUxy
p913
sa(dp914
S'block.thisTrialN'
p915
I11
sS'block.thisRepN'
p916
I0
sg29
NsS'block.thisN'
p917
I11
sg802
(S'DOUBLE'
S'THIRD'
S'TIMES'
S'x'
S'y'
tp918
sg27
g28
sg804
L3L
sg805
(I12
I4
I8
tp919
sg22
I0
sg20
F3.5377370871428866
sg23
F4.4694158164493274
sVY
L6L
sVX
L2L
sg807
g812
sg31
g32
sg33
g34
sg21
S'7'
sg19
S'space'
p920
sg30
g11
sg810
L8L
sg811
g816
sg813
L8L
sS'block.thisIndex'
p921
I9
sg815
g851
sg817
L0L
sg818
VUUBxy
p922
sa(dp923
S'block.thisTrialN'
p924
I12
sS'block.thisRepN'
p925
I0
sg29
NsS'block.thisN'
p926
I12
sg802
(S'DECREASE'
S'TRIPLE'
S'DIVIDE'
S'DOUBLE'
S'x'
S'y'
tp927
sg27
g28
sg804
L4L
sg805
(I6
I2
I6
I5
tp928
sg22
I0
sg20
F5.3654661635810044
sg23
F5.2833871285547502
sVY
L3L
sVX
L3L
sg807
g828
sg31
g32
sg33
g34
sg21
S'2'
sg19
S'space'
p929
sg30
g11
sg810
L5L
sg811
g840
sg813
L5L
sS'block.thisIndex'
p930
I14
sg815
g826
sg817
g851
sg818
g913
sa(dp931
S'block.thisTrialN'
p932
I13
sS'block.thisRepN'
p933
I0
sg29
NsS'block.thisN'
p934
I13
sg802
(S'INCREASE'
S'SUBTRACT'
S'x'
S'y'
tp935
sg27
g28
sg804
L2L
sg805
(I3
I4
tp936
sg22
I1
sg20
F1.8122473919938784
sg23
F2.9486810051312204
sVY
L3L
sVX
L6L
sg807
L0L
sg31
g32
sg33
g34
sg21
S'4'
sg19
S'space'
p937
sg30
g11
sg810
L4L
sg811
g850
sg813
L4L
sS'block.thisIndex'
p938
I2
sg815
g839
sg817
L0L
sg818
g870
sa(dp939
S'block.thisTrialN'
p940
I14
sS'block.thisRepN'
p941
I0
sg29
NsS'block.thisN'
p942
I14
sg802
(S'DIVIDE'
S'THIRD'
S'x'
S'y'
tp943
sg27
g28
sg804
L2L
sg805
(I3
I1
tp944
sg22
I0
sg20
F1.1540196280402597
sg23
F4.0053334434342105
sVY
L3L
sVX
L9L
sg807
L0L
sg31
g32
sg33
g34
sg21
S'9'
sg19
S'space'
p945
sg30
g11
sg810
L1L
sg811
g816
sg813
L1L
sS'block.thisIndex'
p946
I0
sg815
g828
sg817
L0L
sg818
g879
sa(dp947
S'block.thisTrialN'
p948
I15
sS'block.thisRepN'
p949
I0
sg29
NsS'block.thisN'
p950
I15
sg802
(S'DOUBLE'
S'DECREASE'
S'ADD'
S'x'
S'y'
tp951
sg27
g28
sg804
L3L
sg805
(I4
I3
I6
tp952
sg22
I0
sg20
F1.6386872029979713
sg23
F6.7641813076916151
sVY
L2L
sVX
L2L
sg807
g837
sg31
g32
sg33
g34
sg21
S'8'
sg19
S'space'
p953
sg30
g11
sg810
L6L
sg811
g826
sg813
L6L
sS'block.thisIndex'
p954
I8
sg815
g851
sg817
L0L
sg818
g922
sa(dp955
S'block.thisTrialN'
p956
I16
sS'block.thisRepN'
p957
I0
sg29
NsS'block.thisN'
p958
I16
sg802
(S'HALF'
S'TRIPLE'
S'INCREASE'
S'SUBTRACT'
S'x'
S'y'
tp959
sg27
g28
sg804
L4L
sg805
(I1
I2
I6
I3
tp960
sg22
I1
sg20
F7.104362259793561
sg23
F8.0176892541348934
sVY
L2L
sVX
L3L
sg807
g839
sg31
g32
sg33
g34
sg21
S'3'
sg19
S'space'
p961
sg30
g11
sg810
L3L
sg811
g840
sg813
L3L
sS'block.thisIndex'
p962
I17
sg815
g808
sg817
g850
sg818
g861
sa(dp963
S'block.thisTrialN'
p964
I17
sS'block.thisRepN'
p965
I0
sg29
NsS'block.thisN'
p966
I17
sg802
(S'TIMES'
S'HALF'
S'INCREASE'
S'x'
S'y'
tp967
sg27
g28
sg804
L3L
sg805
(I6
I3
I9
tp968
sg22
I1
sg20
F6.0198054833163042
sg23
F3.2993549123057164
sVY
L3L
sVX
L5L
sg807
g839
sg31
g32
sg33
g34
sg21
S'9'
sg19
S'space'
p969
sg30
g11
sg810
L9L
sg811
g808
sg813
L9L
sS'block.thisIndex'
p970
I5
sg815
g812
sg817
L0L
sg818
g904
sa(dp971
S'block.thisTrialN'
p972
I0
sS'block.thisRepN'
p973
I0
sg29
NsS'block.thisN'
p974
I0
sVRule
p975
(S'HALF'
S'TIMES'
S'x'
S'y'
tp976
sg27
g28
sVLength
p977
L2L
sVIntermediate
p978
(I16
I8
tp979
sg22
I0
sg20
F1.7875956143834628
sg23
F3.2075192453630734
sVY
L4L
sVX
L4L
sVOperatorc
p980
L0L
sg31
g32
sg33
g34
sg21
S'4'
sg19
S'space'
p981
sg30
g11
sVResult
p982
L8L
sVOperatora
p983
VTIMES
p984
sVCorrectResponse
p985
L8L
sS'block.thisIndex'
p986
I3
sVOperatorb
p987
Vhalf
p988
sVOperatord
p989
L0L
sVStructure
p990
VUBxy
p991
sa(dp992
S'block.thisTrialN'
p993
I1
sS'block.thisRepN'
p994
I0
sg29
NsS'block.thisN'
p995
I1
sg975
(S'DECREASE'
S'HALF'
S'TRIPLE'
S'DIVIDE'
S'x'
S'y'
tp996
sg27
g28
sg977
L4L
sg978
(I4
I12
I6
I5
tp997
sg22
I0
sg20
F15.236816438206006
sg23
F7.3821258251846302
sVY
L2L
sVX
L8L
sg980
Vtriple
p998
sg31
g32
sg33
g34
sg21
S'4'
sg19
S'space'
p999
sg30
g11
sg982
L5L
sg983
g988
sg985
L5L
sS'block.thisIndex'
p1000
I16
sg987
Vdecrease
p1001
sg989
VDIVIDE
p1002
sg990
VUUUBxy
p1003
sa(dp1004
S'block.thisTrialN'
p1005
I2
sS'block.thisRepN'
p1006
I0
sg29
NsS'block.thisN'
p1007
I2
sg975
(S'DECREASE'
S'THIRD'
S'TIMES'
S'HALF'
S'x'
S'y'
tp1008
sg27
g28
sg977
L4L
sg978
(I2
I12
I4
I3
tp1009
sg22
I1
sg20
F14.051451631035889
sg23
F4.7567155367287342
sVY
L6L
sVX
L4L
sg980
g984
sg31
g32
sg33
g34
sg21
S'3'
sg19
S'space'
p1010
sg30
g11
sg982
L3L
sg983
Vthird
p1011
sg985
L3L
sS'block.thisIndex'
p1012
I14
sg987
g1001
sg989
g988
sg990
VUUBUxy
p1013
sa(dp1014
S'block.thisTrialN'
p1015
I3
sS'block.thisRepN'
p1016
I0
sg29
NsS'block.thisN'
p1017
I3
sg975
(S'DECREASE'
S'TIMES'
S'DOUBLE'
S'THIRD'
S'x'
S'y'
tp1018
sg27
g28
sg977
L4L
sg978
(I1
I2
I8
I7
tp1019
sg22
I1
sg20
F7.5426131283456925
sg23
F4.5172092792054173
sVY
L4L
sVX
L3L
sg980
Vdouble
p1020
sg31
g32
sg33
g34
sg21
S'7'
sg19
S'space'
p1021
sg30
g11
sg982
L7L
sg983
g984
sg985
L7L
sS'block.thisIndex'
p1022
I13
sg987
g1001
sg989
g1011
sg990
VUBUUxy
p1023
sa(dp1024
S'block.thisTrialN'
p1025
I4
sS'block.thisRepN'
p1026
I0
sg29
NsS'block.thisN'
p1027
I4
sg975
(S'DECREASE'
S'ADD'
S'DOUBLE'
S'THIRD'
S'x'
S'y'
tp1028
sg27
g28
sg977
L4L
sg978
(I3
I6
I10
I9
tp1029
sg22
I0
sg20
F4.8215585203724913
sg23
F8.5790285783587024
sVY
L4L
sVX
L9L
sg980
g1020
sg31
g32
sg33
g34
sg21
S'5'
sg19
S'space'
p1030
sg30
g11
sg982
L9L
sg983
VADD
p1031
sg985
L9L
sS'block.thisIndex'
p1032
I12
sg987
Vdecrease 
p1033
sg989
g1011
sg990
g1023
sa(dp1034
S'block.thisTrialN'
p1035
I5
sS'block.thisRepN'
p1036
I0
sg29
NsS'block.thisN'
p1037
I5
sg975
(S'DOUBLE'
S'TRIPLE'
S'SUBTRACT'
S'x'
S'y'
tp1038
sg27
g28
sg977
L3L
sg978
(I1
I3
I6
tp1039
sg22
I1
sg20
F1.3061053579149302
sg23
F1.4772654973494355
sVY
L3L
sVX
L4L
sg980
VSUBTRACT
p1040
sg31
g32
sg33
g34
sg21
S'6'
sg19
S'space'
p1041
sg30
g11
sg982
L6L
sg983
g998
sg985
L6L
sS'block.thisIndex'
p1042
I9
sg987
g1020
sg989
L0L
sg990
VUUBxy
p1043
sa(dp1044
S'block.thisTrialN'
p1045
I6
sS'block.thisRepN'
p1046
I0
sg29
NsS'block.thisN'
p1047
I6
sg975
(S'DIVIDE'
S'DOUBLE'
S'x'
S'y'
tp1048
sg27
g28
sg977
L2L
sg978
(I12
I2
tp1049
sg22
I0
sg20
F1.1411731685802806
sg23
F1.9261269086564425
sVY
L6L
sVX
L6L
sg980
L0L
sg31
g32
sg33
g34
sg21
S'6'
sg19
S'space'
p1050
sg30
g11
sg982
L2L
sg983
g1020
sg985
L2L
sS'block.thisIndex'
p1051
I1
sg987
g1002
sg989
L0L
sg990
VBUxy
p1052
sa(dp1053
S'block.thisTrialN'
p1054
I7
sS'block.thisRepN'
p1055
I0
sg29
NsS'block.thisN'
p1056
I7
sg975
(S'ADD'
S'THIRD'
S'INCREASE'
S'HALF'
S'x'
S'y'
tp1057
sg27
g28
sg977
L4L
sg978
(I2
I3
I1
I7
tp1058
sg22
I0
sg20
F3.8075743296358269
sg23
F9.6872197886114009
sVY
L6L
sVX
L4L
sg980
Vincrease
p1059
sg31
g32
sg33
g34
sg21
S'1'
sg19
S'space'
p1060
sg30
g11
sg982
L7L
sg983
g1011
sg985
L7L
sS'block.thisIndex'
p1061
I10
sg987
g1031
sg989
g988
sg990
VBUUUxy
p1062
sa(dp1063
S'block.thisTrialN'
p1064
I8
sS'block.thisRepN'
p1065
I0
sg29
NsS'block.thisN'
p1066
I8
sg975
(S'INCREASE'
S'DIVIDE'
S'THIRD'
S'x'
S'y'
tp1067
sg27
g28
sg977
L3L
sg978
(I3
I1
I2
tp1068
sg22
I0
sg20
F5.938648252049461
sg23
F3.6376530608977191
sVY
L3L
sVX
L9L
sg980
g1011
sg31
g32
sg33
g34
sg21
S'1'
sg19
S'space'
p1069
sg30
g11
sg982
L2L
sg983
g1002
sg985
L2L
sS'block.thisIndex'
p1070
I7
sg987
g1059
sg989
L0L
sg990
VUBUxy
p1071
sa(dp1072
S'block.thisTrialN'
p1073
I9
sS'block.thisRepN'
p1074
I0
sg29
NsS'block.thisN'
p1075
I9
sg975
(S'DOUBLE'
S'DECREASE'
S'SUBTRACT'
S'x'
S'y'
tp1076
sg27
g28
sg977
L3L
sg978
(I5
I4
I8
tp1077
sg22
I0
sg20
F1.4254646027693525
sg23
F6.4996551109943539
sVY
L2L
sVX
L7L
sg980
g1040
sg31
g32
sg33
g34
sg21
S'2'
sg19
S'space'
p1078
sg30
g11
sg982
L8L
sg983
g1001
sg985
L8L
sS'block.thisIndex'
p1079
I8
sg987
g1020
sg989
L0L
sg990
g1043
sa(dp1080
S'block.thisTrialN'
p1081
I10
sS'block.thisRepN'
p1082
I0
sg29
NsS'block.thisN'
p1083
I10
sg975
(S'ADD'
S'DOUBLE'
S'x'
S'y'
tp1084
sg27
g28
sg977
L2L
sg978
(I4
I8
tp1085
sg22
I1
sg20
F2.7732527110783849
sg23
F3.6090914912929293
sVY
L4L
sVX
L2L
sg980
L0L
sg31
g32
sg33
g34
sg21
S'8'
sg19
S'space'
p1086
sg30
g11
sg982
L8L
sg983
g1020
sg985
L8L
sS'block.thisIndex'
p1087
I0
sg987
g1031
sg989
L0L
sg990
g1052
sa(dp1088
S'block.thisTrialN'
p1089
I11
sS'block.thisRepN'
p1090
I0
sg29
NsS'block.thisN'
p1091
I11
sg975
(S'DOUBLE'
S'DECREASE'
S'TRIPLE'
S'DIVIDE'
S'x'
S'y'
tp1092
sg27
g28
sg977
L4L
sg978
(I1
I3
I2
I4
tp1093
sg22
I1
sg20
F3.608153939130716
sg23
F3.2198120625980664
sVY
L4L
sVX
L4L
sg980
g998
sg31
g32
sg33
g34
sg21
S'4'
sg19
S'space'
p1094
sg30
g11
sg982
L4L
sg983
g1001
sg985
L4L
sS'block.thisIndex'
p1095
I17
sg987
g1020
sg989
g1002
sg990
g1003
sa(dp1096
S'block.thisTrialN'
p1097
I12
sS'block.thisRepN'
p1098
I0
sg29
NsS'block.thisN'
p1099
I12
sg975
(S'DOUBLE'
S'TRIPLE'
S'DIVIDE'
S'DECREASE'
S'x'
S'y'
tp1100
sg27
g28
sg977
L4L
sg978
(I8
I1
I3
I6
tp1101
sg22
I1
sg20
F13.795300060446607
sg23
F2.1606244888098445
sVY
L8L
sVX
L9L
sg980
g1002
sg31
g32
sg33
g34
sg21
S'6'
sg19
S'space'
p1102
sg30
g11
sg982
L6L
sg983
g998
sg985
L6L
sS'block.thisIndex'
p1103
I15
sg987
g1020
sg989
g1001
sg990
g1013
sa(dp1104
S'block.thisTrialN'
p1105
I13
sS'block.thisRepN'
p1106
I0
sg29
NsS'block.thisN'
p1107
I13
sg975
(S'DOUBLE'
S'SUBTRACT'
S'x'
S'y'
tp1108
sg27
g28
sg977
L2L
sg978
(I1
I2
tp1109
sg22
I1
sg20
F1.4475773953017779
sg23
F1.3815343868918717
sVY
L7L
sVX
L8L
sg980
L0L
sg31
g32
sg33
g34
sg21
S'2'
sg19
S'space'
p1110
sg30
g11
sg982
L2L
sg983
g1040
sg985
L2L
sS'block.thisIndex'
p1111
I2
sg987
g1020
sg989
L0L
sg990
g991
sa(dp1112
S'block.thisTrialN'
p1113
I14
sS'block.thisRepN'
p1114
I0
sg29
NsS'block.thisN'
p1115
I14
sg975
(S'SUBTRACT'
S'HALF'
S'TRIPLE'
S'x'
S'y'
tp1116
sg27
g28
sg977
L3L
sg978
(I12
I6
I2
tp1117
sg22
I1
sg20
F1.8913545371615328
sg23
F4.1505255926458631
sVY
L4L
sVX
L4L
sg980
g998
sg31
g32
sg33
g34
sg21
S'2'
sg19
S'space'
p1118
sg30
g11
sg982
L2L
sg983
g988
sg985
L2L
sS'block.thisIndex'
p1119
I5
sg987
g1040
sg989
L0L
sg990
VBUUxy
p1120
sa(dp1121
S'block.thisTrialN'
p1122
I15
sS'block.thisRepN'
p1123
I0
sg29
NsS'block.thisN'
p1124
I15
sg975
(S'DIVIDE'
S'DOUBLE'
S'THIRD'
S'x'
S'y'
tp1125
sg27
g28
sg977
L3L
sg978
(I2
I4
I1
tp1126
sg22
I0
sg20
F1.369687073136447
sg23
F10.160913558676839
sVY
L4L
sVX
L6L
sg980
g1011
sg31
g32
sg33
g34
sg21
S'8'
sg19
S'space'
p1127
sg30
g11
sg982
L1L
sg983
g1020
sg985
L1L
sS'block.thisIndex'
p1128
I4
sg987
g1002
sg989
L0L
sg990
g1120
sa(dp1129
S'block.thisTrialN'
p1130
I16
sS'block.thisRepN'
p1131
I0
sg29
NsS'block.thisN'
p1132
I16
sg975
(S'HALF'
S'SUBTRACT'
S'TRIPLE'
S'x'
S'y'
tp1133
sg27
g28
sg977
L3L
sg978
(I9
I2
I1
tp1134
sg22
I1
sg20
F2.3565662422915921
sg23
F3.8782351061527152
sVY
L7L
sVX
L3L
sg980
g998
sg31
g32
sg33
g34
sg21
S'1'
sg19
S'space'
p1135
sg30
g11
sg982
L1L
sg983
g1040
sg985
L1L
sS'block.thisIndex'
p1136
I6
sg987
g988
sg989
L0L
sg990
g1071
sa(dp1137
S'block.thisTrialN'
p1138
I17
sS'block.thisRepN'
p1139
I0
sg29
NsS'block.thisN'
p1140
I17
sg975
(S'DIVIDE'
S'INCREASE'
S'DOUBLE'
S'THIRD'
S'x'
S'y'
tp1141
sg27
g28
sg977
L4L
sg978
(I2
I4
I5
I1
tp1142
sg22
I0
sg20
F2.264236426941352
sg23
F5.1865525832399726
sVY
L5L
sVX
L6L
sg980
g1020
sg31
g32
sg33
g34
sg21
S'7'
sg19
S'space'
p1143
sg30
g11
sg982
L1L
sg983
g1059
sg985
L1L
sS'block.thisIndex'
p1144
I11
sg987
g1002
sg989
g1011
sg990
g1062
sa(dp1145
S'block.thisTrialN'
p1146
I0
sS'block.thisRepN'
p1147
I0
sg29
NsS'block.thisN'
p1148
I0
sVRule
p1149
(S'DECREASE'
S'DOUBLE'
S'TIMES'
S'THIRD'
S'x'
S'y'
tp1150
sg27
g28
sVLength
p1151
L4L
sVIntermediate
p1152
(I1
I3
I6
I5
tp1153
sg22
I1
sg20
F2.5826157040719409
sg23
F4.5976081395638175
sVY
L3L
sVX
L3L
sVOperatorc
p1154
VTIMES
p1155
sg31
g32
sg33
g34
sg21
S'5'
sg19
S'space'
p1156
sg30
g11
sVResult
p1157
L5L
sVOperatora
p1158
Vdouble
p1159
sVCorrectResponse
p1160
L5L
sS'block.thisIndex'
p1161
I14
sVOperatorb
p1162
Vdecrease
p1163
sVOperatord
p1164
Vthird
p1165
sVStructure
p1166
VUUBUxy
p1167
sa(dp1168
S'block.thisTrialN'
p1169
I1
sS'block.thisRepN'
p1170
I0
sg29
NsS'block.thisN'
p1171
I1
sg1149
(S'ADD'
S'TRIPLE'
S'DOUBLE'
S'DECREASE'
S'x'
S'y'
tp1172
sg27
g28
sg1151
L4L
sg1152
(I1
I2
I6
I8
tp1173
sg22
I1
sg20
F3.5572769481514115
sg23
F2.9481837070197798
sVY
L2L
sVX
L2L
sg1154
g1159
sg31
g32
sg33
g34
sg21
S'8'
sg19
S'space'
p1174
sg30
g11
sg1157
L8L
sg1158
Vtriple
p1175
sg1160
L8L
sS'block.thisIndex'
p1176
I11
sg1162
VADD
p1177
sg1164
g1163
sg1166
VBUUUxy
p1178
sa(dp1179
S'block.thisTrialN'
p1180
I2
sS'block.thisRepN'
p1181
I0
sg29
NsS'block.thisN'
p1182
I2
sg1149
(S'ADD'
S'DECREASE'
S'THIRD'
S'DOUBLE'
S'x'
S'y'
tp1183
sg27
g28
sg1151
L4L
sg1152
(I18
I6
I5
I9
tp1184
sg22
I0
sg20
F6.2607588398095686
sg23
F9.269613615819253
sVY
L4L
sVX
L9L
sg1154
g1165
sg31
g32
sg33
g34
sg21
S'5'
sg19
S'space'
p1185
sg30
g11
sg1157
L9L
sg1158
g1163
sg1160
L9L
sS'block.thisIndex'
p1186
I10
sg1162
g1177
sg1164
g1159
sg1166
g1178
sa(dp1187
S'block.thisTrialN'
p1188
I3
sS'block.thisRepN'
p1189
I0
sg29
NsS'block.thisN'
p1190
I3
sg1149
(S'DOUBLE'
S'SUBTRACT'
S'INCREASE'
S'x'
S'y'
tp1191
sg27
g28
sg1151
L3L
sg1152
(I4
I1
I2
tp1192
sg22
I0
sg20
F4.9204340527066961
sg23
F4.5344131340098102
sVY
L3L
sVX
L3L
sg1154
Vincrease
p1193
sg31
g32
sg33
g34
sg21
S'1'
sg19
S'space'
p1194
sg30
g11
sg1157
L2L
sg1158
VSUBTRACT
p1195
sg1160
L2L
sS'block.thisIndex'
p1196
I6
sg1162
g1159
sg1164
L0L
sg1166
VUBUxy
p1197
sa(dp1198
S'block.thisTrialN'
p1199
I4
sS'block.thisRepN'
p1200
I0
sg29
NsS'block.thisN'
p1201
I4
sg1149
(S'ADD'
S'DOUBLE'
S'DECREASE'
S'x'
S'y'
tp1202
sg27
g28
sg1151
L3L
sg1152
(I1
I2
I7
tp1203
sg22
I0
sg20
F1.7431761495827232
sg23
F7.5732338830421213
sVY
L5L
sVX
L2L
sg1154
g1163
sg31
g32
sg33
g34
sg21
S'1'
sg19
S'space'
p1204
sg30
g11
sg1157
L7L
sg1158
g1159
sg1160
L7L
sS'block.thisIndex'
p1205
I4
sg1162
g1177
sg1164
L0L
sg1166
VBUUxy
p1206
sa(dp1207
S'block.thisTrialN'
p1208
I5
sS'block.thisRepN'
p1209
I0
sg29
NsS'block.thisN'
p1210
I5
sg1149
(S'INCREASE'
S'HALF'
S'THIRD'
S'TIMES'
S'x'
S'y'
tp1211
sg27
g28
sg1151
L4L
sg1152
(I12
I4
I2
I3
tp1212
sg22
I0
sg20
F2.3884591142996214
sg23
F5.687250235438114
sVY
L4L
sVX
L3L
sg1154
g1165
sg31
g32
sg33
g34
sg21
S'2'
sg19
S'space'
p1213
sg30
g11
sg1157
L3L
sg1158
Vhalf
p1214
sg1160
L3L
sS'block.thisIndex'
p1215
I16
sg1162
g1193
sg1164
g1155
sg1166
VUUUBxy
p1216
sa(dp1217
S'block.thisTrialN'
p1218
I6
sS'block.thisRepN'
p1219
I0
sg29
NsS'block.thisN'
p1220
I6
sg1149
(S'DECREASE'
S'SUBTRACT'
S'DOUBLE'
S'THIRD'
S'x'
S'y'
tp1221
sg27
g28
sg1151
L4L
sg1152
(I3
I6
I4
I3
tp1222
sg22
I0
sg20
F10.848508858121932
sg23
F13.664288781466894
sVY
L2L
sVX
L9L
sg1154
g1159
sg31
g32
sg33
g34
sg21
S'5'
sg19
S'space'
p1223
sg30
g11
sg1157
L3L
sg1158
g1195
sg1160
L3L
sS'block.thisIndex'
p1224
I13
sg1162
g1163
sg1164
g1165
sg1166
VUBUUxy
p1225
sa(dp1226
S'block.thisTrialN'
p1227
I7
sS'block.thisRepN'
p1228
I0
sg29
NsS'block.thisN'
p1229
I7
sg1149
(S'INCREASE'
S'ADD'
S'HALF'
S'x'
S'y'
tp1230
sg27
g28
sg1151
L3L
sg1152
(I1
I4
I5
tp1231
sg22
I1
sg20
F4.0370411847543437
sg23
F3.0286889562848955
sVY
L3L
sVX
L2L
sg1154
g1214
sg31
g32
sg33
g34
sg21
S'5'
sg19
S'space'
p1232
sg30
g11
sg1157
L5L
sg1158
g1177
sg1160
L5L
sS'block.thisIndex'
p1233
I7
sg1162
g1193
sg1164
L0L
sg1166
g1197
sa(dp1234
S'block.thisTrialN'
p1235
I8
sS'block.thisRepN'
p1236
I0
sg29
NsS'block.thisN'
p1237
I8
sg1149
(S'DOUBLE'
S'THIRD'
S'ADD'
S'x'
S'y'
tp1238
sg27
g28
sg1151
L3L
sg1152
(I9
I3
I6
tp1239
sg22
I0
sg20
F1.6567719158483669
sg23
F3.2651372329273727
sVY
L4L
sVX
L5L
sg1154
g1177
sg31
g32
sg33
g34
sg21
S'5'
sg19
S'space'
p1240
sg30
g11
sg1157
L6L
sg1158
g1165
sg1160
L6L
sS'block.thisIndex'
p1241
I8
sg1162
g1159
sg1164
L0L
sg1166
VUUBxy
p1242
sa(dp1243
S'block.thisTrialN'
p1244
I9
sS'block.thisRepN'
p1245
I0
sg29
NsS'block.thisN'
p1246
I9
sg1149
(S'ADD'
S'TRIPLE'
S'HALF'
S'x'
S'y'
tp1247
sg27
g28
sg1151
L3L
sg1152
(I2
I6
I8
tp1248
sg22
I1
sg20
F5.0444810584012885
sg23
F1.9076649351627566
sVY
L2L
sVX
L4L
sg1154
g1214
sg31
g32
sg33
g34
sg21
S'8'
sg19
S'space'
p1249
sg30
g11
sg1157
L8L
sg1158
g1175
sg1160
L8L
sS'block.thisIndex'
p1250
I5
sg1162
g1177
sg1164
L0L
sg1166
g1206
sa(dp1251
S'block.thisTrialN'
p1252
I10
sS'block.thisRepN'
p1253
I0
sg29
NsS'block.thisN'
p1254
I10
sg1149
(S'DECREASE'
S'ADD'
S'THIRD'
S'HALF'
S'x'
S'y'
tp1255
sg27
g28
sg1151
L4L
sg1152
(I3
I1
I7
I6
tp1256
sg22
I0
sg20
F2.8397342237294652
sg23
F6.7716159318515565
sVY
L6L
sVX
L6L
sg1154
g1165
sg31
g32
sg33
g34
sg21
S'1'
sg19
S'space'
p1257
sg30
g11
sg1157
L6L
sg1158
g1177
sg1160
L6L
sS'block.thisIndex'
p1258
I12
sg1162
g1163
sg1164
g1214
sg1166
g1225
sa(dp1259
S'block.thisTrialN'
p1260
I11
sS'block.thisRepN'
p1261
I0
sg29
NsS'block.thisN'
p1262
I11
sg1149
(S'DECREASE'
S'TRIPLE'
S'SUBTRACT'
S'DOUBLE'
S'x'
S'y'
tp1263
sg27
g28
sg1151
L4L
sg1152
(I6
I3
I9
I8
tp1264
sg22
I1
sg20
F2.3063013374630827
sg23
F8.7104874606302474
sVY
L3L
sVX
L3L
sg1154
g1195
sg31
g32
sg33
g34
sg21
S'8'
sg19
S'space'
p1265
sg30
g11
sg1157
L8L
sg1158
g1175
sg1160
L8L
sS'block.thisIndex'
p1266
I15
sg1162
g1163
sg1164
g1159
sg1166
g1167
sa(dp1267
S'block.thisTrialN'
p1268
I12
sS'block.thisRepN'
p1269
I0
sg29
NsS'block.thisN'
p1270
I12
sg1149
(S'HALF'
S'INCREASE'
S'TIMES'
S'x'
S'y'
tp1271
sg27
g28
sg1151
L3L
sg1152
(I9
I10
I5
tp1272
sg22
I0
sg20
F1.5254180226475
sg23
F8.051041473809164
sVY
L3L
sVX
L3L
sg1154
g1155
sg31
g32
sg33
g34
sg21
S'1'
sg19
S'space'
p1273
sg30
g11
sg1157
L5L
sg1158
g1193
sg1160
L5L
sS'block.thisIndex'
p1274
I9
sg1162
g1214
sg1164
L0L
sg1166
g1242
sa(dp1275
S'block.thisTrialN'
p1276
I13
sS'block.thisRepN'
p1277
I0
sg29
NsS'block.thisN'
p1278
I13
sg1149
(S'ADD'
S'DECREASE'
S'x'
S'y'
tp1279
sg27
g28
sg1151
L2L
sg1152
(I2
I7
tp1280
sg22
I1
sg20
F0.75940150645328686
sg23
F2.8670814200595487
sVY
L5L
sVX
L3L
sg1154
L0L
sg31
g32
sg33
g34
sg21
S'7'
sg19
S'space'
p1281
sg30
g11
sg1157
L7L
sg1158
g1163
sg1160
L7L
sS'block.thisIndex'
p1282
I0
sg1162
g1177
sg1164
L0L
sg1166
VBUxy
p1283
sa(dp1284
S'block.thisTrialN'
p1285
I14
sS'block.thisRepN'
p1286
I0
sg29
NsS'block.thisN'
p1287
I14
sg1149
(S'THIRD'
S'HALF'
S'INCREASE'
S'SUBTRACT'
S'x'
S'y'
tp1288
sg27
g28
sg1151
L4L
sg1152
(I5
I6
I3
I1
tp1289
sg22
I1
sg20
F2.8041324387886561
sg23
F7.8281833290820941
sVY
L2L
sVX
L7L
sg1154
g1193
sg31
g32
sg33
g34
sg21
S'1'
sg19
S'space'
p1290
sg30
g11
sg1157
L1L
sg1158
g1214
sg1160
L1L
sS'block.thisIndex'
p1291
I17
sg1162
g1165
sg1164
g1195
sg1166
g1216
sa(dp1292
S'block.thisTrialN'
p1293
I15
sS'block.thisRepN'
p1294
I0
sg29
NsS'block.thisN'
p1295
I15
sg1149
(S'DECREASE'
S'TIMES'
S'x'
S'y'
tp1296
sg27
g28
sg1151
L2L
sg1152
(I9
I8
tp1297
sg22
I1
sg20
F7.4731947221443988
sg23
F1.4182175589958206
sVY
L3L
sVX
L3L
sg1154
L0L
sg31
g32
sg33
g34
sg21
S'8'
sg19
S'space'
p1298
sg30
g11
sg1157
L8L
sg1158
g1155
sg1160
L8L
sS'block.thisIndex'
p1299
I2
sg1162
g1163
sg1164
L0L
sg1166
VUBxy
p1300
sa(dp1301
S'block.thisTrialN'
p1302
I16
sS'block.thisRepN'
p1303
I0
sg29
NsS'block.thisN'
p1304
I16
sg1149
(S'HALF'
S'ADD'
S'x'
S'y'
tp1305
sg27
g28
sg1151
L2L
sg1152
(I12
I6
tp1306
sg22
I1
sg20
F4.5284627049113624
sg23
F2.1129594626836479
sVY
L8L
sVX
L4L
sg1154
L0L
sg31
g32
sg33
g34
sg21
S'6'
sg19
S'space'
p1307
sg30
g11
sg1157
L6L
sg1158
g1177
sg1160
L6L
sS'block.thisIndex'
p1308
I3
sg1162
g1214
sg1164
L0L
sg1166
g1300
sa(dp1309
S'block.thisTrialN'
p1310
I17
sS'block.thisRepN'
p1311
I0
sg29
NsS'block.thisN'
p1312
I17
sg1149
(S'DIVIDE'
S'DECREASE'
S'x'
S'y'
tp1313
sg27
g28
sg1151
L2L
sg1152
(I8
I2
tp1314
sg22
I1
sg20
F0.99700186285190284
sg23
F2.1541939098678995
sVY
L4L
sVX
L9L
sg1154
L0L
sg31
g32
sg33
g34
sg21
S'2'
sg19
S'space'
p1315
sg30
g11
sg1157
L2L
sg1158
g1163
sg1160
L2L
sS'block.thisIndex'
p1316
I1
sg1162
VDIVIDE
p1317
sg1164
L0L
sg1166
g1283
sa(dp1318
S'block.thisTrialN'
p1319
I0
sS'block.thisRepN'
p1320
I0
sg29
NsS'block.thisN'
p1321
I0
sVRule
p1322
(S'INCREASE'
S'DIVIDE'
S'TRIPLE'
S'DOUBLE'
S'x'
S'y'
tp1323
sg27
g28
sVLength
p1324
L4L
sVIntermediate
p1325
(I6
I18
I3
I4
tp1326
sg22
I0
sg20
F3.1624254008929711
sg23
F4.9132902481651399
sVY
L6L
sVX
L3L
sVOperatorc
p1327
Vtriple
p1328
sg31
g32
sg33
g34
sg21
S'7'
sg19
S'space'
p1329
sg30
g11
sVResult
p1330
L4L
sVOperatora
p1331
VDIVIDE
p1332
sVCorrectResponse
p1333
L4L
sS'block.thisIndex'
p1334
I12
sVOperatorb
p1335
Vincrease
p1336
sVOperatord
p1337
Vdouble
p1338
sVStructure
p1339
VUBUUxy
p1340
sa(dp1341
S'block.thisTrialN'
p1342
I1
sS'block.thisRepN'
p1343
I0
sg29
NsS'block.thisN'
p1344
I1
sg1322
(S'TRIPLE'
S'SUBTRACT'
S'DOUBLE'
S'DECREASE'
S'x'
S'y'
tp1345
sg27
g28
sg1324
L4L
sg1325
(I2
I4
I1
I3
tp1346
sg22
I0
sg20
F11.032678540010238
sg23
F0.24512842085096054
sVY
L3L
sVX
L3L
sg1327
g1338
sg31
g32
sg33
g34
sg21
S'6'
sg19
S'space'
p1347
sg30
g11
sg1330
L3L
sg1331
VSUBTRACT
p1348
sg1333
L3L
sS'block.thisIndex'
p1349
I13
sg1335
g1328
sg1337
Vdecrease
p1350
sg1339
g1340
sa(dp1351
S'block.thisTrialN'
p1352
I2
sS'block.thisRepN'
p1353
I0
sg29
NsS'block.thisN'
p1354
I2
sg1322
(S'TIMES'
S'DECREASE'
S'x'
S'y'
tp1355
sg27
g28
sg1324
L2L
sg1325
(I2
I4
tp1356
sg22
I1
sg20
F0.9633199775707908
sg23
F4.3897497796278913
sVY
L2L
sVX
L3L
sg1327
L0L
sg31
g32
sg33
g34
sg21
S'4'
sg19
S'space'
p1357
sg30
g11
sg1330
L4L
sg1331
g1350
sg1333
L4L
sS'block.thisIndex'
p1358
I0
sg1335
VTIMES
p1359
sg1337
L0L
sg1339
VBUxy
p1360
sa(dp1361
S'block.thisTrialN'
p1362
I3
sS'block.thisRepN'
p1363
I0
sg29
NsS'block.thisN'
p1364
I3
sg1322
(S'TIMES'
S'INCREASE'
S'x'
S'y'
tp1365
sg27
g28
sg1324
L2L
sg1325
(I3
I6
tp1366
sg22
I1
sg20
F3.119144017342478
sg23
F1.3453173661255278
sVY
L2L
sVX
L2L
sg1327
L0L
sg31
g32
sg33
g34
sg21
S'6'
sg19
S'space'
p1367
sg30
g11
sg1330
L6L
sg1331
g1336
sg1333
L6L
sS'block.thisIndex'
p1368
I1
sg1335
g1359
sg1337
L0L
sg1339
g1360
sa(dp1369
S'block.thisTrialN'
p1370
I4
sS'block.thisRepN'
p1371
I0
sg29
NsS'block.thisN'
p1372
I4
sg1322
(S'TIMES'
S'INCREASE'
S'THIRD'
S'DOUBLE'
S'x'
S'y'
tp1373
sg27
g28
sg1324
L4L
sg1325
(I6
I2
I3
I9
tp1374
sg22
I1
sg20
F3.5730368536023889
sg23
F3.6394791703496594
sVY
L3L
sVX
L3L
sg1327
Vthird
p1375
sg31
g32
sg33
g34
sg21
S'9'
sg19
S'space'
p1376
sg30
g11
sg1330
L9L
sg1331
g1336
sg1333
L9L
sS'block.thisIndex'
p1377
I11
sg1335
g1359
sg1337
g1338
sg1339
VBUUUxy
p1378
sa(dp1379
S'block.thisTrialN'
p1380
I5
sS'block.thisRepN'
p1381
I0
sg29
NsS'block.thisN'
p1382
I5
sg1322
(S'SUBTRACT'
S'HALF'
S'INCREASE'
S'TRIPLE'
S'x'
S'y'
tp1383
sg27
g28
sg1324
L4L
sg1325
(I15
I16
I8
I3
tp1384
sg22
I0
sg20
F3.7166902133612894
sg23
F0.29505036148475483
sVY
L5L
sVX
L5L
sg1327
g1336
sg31
g32
sg33
g34
sg21
S'4'
sg19
S'space'
p1385
sg30
g11
sg1330
L3L
sg1331
Vhalf
p1386
sg1333
L3L
sS'block.thisIndex'
p1387
I10
sg1335
g1348
sg1337
g1328
sg1339
g1378
sa(dp1388
S'block.thisTrialN'
p1389
I6
sS'block.thisRepN'
p1390
I0
sg29
NsS'block.thisN'
p1391
I6
sg1322
(S'TIMES'
S'THIRD'
S'HALF'
S'x'
S'y'
tp1392
sg27
g28
sg1324
L3L
sg1325
(I3
I1
I5
tp1393
sg22
I1
sg20
F0.43496751112979837
sg23
F4.2928781381633598
sVY
L5L
sVX
L6L
sg1327
g1386
sg31
g32
sg33
g34
sg21
S'5'
sg19
S'space'
p1394
sg30
g11
sg1330
L5L
sg1331
g1375
sg1333
L5L
sS'block.thisIndex'
p1395
I5
sg1335
g1359
sg1337
L0L
sg1339
VBUUxy
p1396
sa(dp1397
S'block.thisTrialN'
p1398
I7
sS'block.thisRepN'
p1399
I0
sg29
NsS'block.thisN'
p1400
I7
sg1322
(S'THIRD'
S'INCREASE'
S'HALF'
S'DIVIDE'
S'x'
S'y'
tp1401
sg27
g28
sg1324
L4L
sg1325
(I4
I2
I3
I1
tp1402
sg22
I0
sg20
F4.6090407465817407
sg23
F1.8611635376000777
sVY
L2L
sVX
L8L
sg1327
g1386
sg31
g32
sg33
g34
sg21
S'8'
sg19
S'space'
p1403
sg30
g11
sg1330
L1L
sg1331
g1336
sg1333
L1L
sS'block.thisIndex'
p1404
I16
sg1335
g1375
sg1337
g1332
sg1339
VUUUBxy
p1405
sa(dp1406
S'block.thisTrialN'
p1407
I8
sS'block.thisRepN'
p1408
I0
sg29
NsS'block.thisN'
p1409
I8
sg1322
(S'THIRD'
S'DOUBLE'
S'ADD'
S'INCREASE'
S'x'
S'y'
tp1410
sg27
g28
sg1324
L4L
sg1325
(I10
I12
I24
I8
tp1411
sg22
I0
sg20
F2.3851764568244107
sg23
F2.4990143278555479
sVY
L2L
sVX
L9L
sg1327
VADD
p1412
sg31
g32
sg33
g34
sg21
S'1'
sg19
S'space'
p1413
sg30
g11
sg1330
L8L
sg1331
g1338
sg1333
L8L
sS'block.thisIndex'
p1414
I14
sg1335
g1375
sg1337
g1336
sg1339
VUUBUxy
p1415
sa(dp1416
S'block.thisTrialN'
p1417
I9
sS'block.thisRepN'
p1418
I0
sg29
NsS'block.thisN'
p1419
I9
sg1322
(S'TIMES'
S'DECREASE'
S'HALF'
S'x'
S'y'
tp1420
sg27
g28
sg1324
L3L
sg1325
(I4
I3
I9
tp1421
sg22
I0
sg20
F7.0934654469019733
sg23
F2.9647068828344345
sVY
L3L
sVX
L8L
sg1327
g1386
sg31
g32
sg33
g34
sg21
S'2'
sg19
S'space'
p1422
sg30
g11
sg1330
L9L
sg1331
g1350
sg1333
L9L
sS'block.thisIndex'
p1423
I4
sg1335
g1359
sg1337
L0L
sg1339
g1396
sa(dp1424
S'block.thisTrialN'
p1425
I10
sS'block.thisRepN'
p1426
I0
sg29
NsS'block.thisN'
p1427
I10
sg1322
(S'THIRD'
S'SUBTRACT'
S'x'
S'y'
tp1428
sg27
g28
sg1324
L2L
sg1325
(I3
I1
tp1429
sg22
I0
sg20
F1.6665883914974984
sg23
F2.8699714184913319
sVY
L2L
sVX
L5L
sg1327
L0L
sg31
g32
sg33
g34
sg21
S'8'
sg19
S'space'
p1430
sg30
g11
sg1330
L1L
sg1331
g1348
sg1333
L1L
sS'block.thisIndex'
p1431
I3
sg1335
g1375
sg1337
L0L
sg1339
VUBxy
p1432
sa(dp1433
S'block.thisTrialN'
p1434
I11
sS'block.thisRepN'
p1435
I0
sg29
NsS'block.thisN'
p1436
I11
sg1322
(S'TRIPLE'
S'HALF'
S'DIVIDE'
S'x'
S'y'
tp1437
sg27
g28
sg1324
L3L
sg1325
(I2
I1
I3
tp1438
sg22
I1
sg20
F1.5736261921119876
sg23
F2.8990957293717656
sVY
L2L
sVX
L4L
sg1327
g1332
sg31
g32
sg33
g34
sg21
S'3'
sg19
S'space'
p1439
sg30
g11
sg1330
L3L
sg1331
g1386
sg1333
L3L
sS'block.thisIndex'
p1440
I9
sg1335
g1328
sg1337
L0L
sg1339
VUUBxy
p1441
sa(dp1442
S'block.thisTrialN'
p1443
I12
sS'block.thisRepN'
p1444
I0
sg29
NsS'block.thisN'
p1445
I12
sg1322
(S'TRIPLE'
S'HALF'
S'ADD'
S'DECREASE'
S'x'
S'y'
tp1446
sg27
g28
sg1324
L4L
sg1325
(I1
I4
I2
I6
tp1447
sg22
I0
sg20
F4.4996344631363172
sg23
F1.6826177688490134
sVY
L3L
sVX
L2L
sg1327
g1412
sg31
g32
sg33
g34
sg21
S'3'
sg19
S'space'
p1448
sg30
g11
sg1330
L6L
sg1331
g1386
sg1333
L6L
sS'block.thisIndex'
p1449
I15
sg1335
g1328
sg1337
g1350
sg1339
g1415
sa(dp1450
S'block.thisTrialN'
p1451
I13
sS'block.thisRepN'
p1452
I0
sg29
NsS'block.thisN'
p1453
I13
sg1322
(S'TRIPLE'
S'DECREASE'
S'HALF'
S'TIMES'
S'x'
S'y'
tp1454
sg27
g28
sg1324
L4L
sg1325
(I6
I3
I2
I6
tp1455
sg22
I0
sg20
F1.7487997127464041
sg23
F0.94831564326887019
sVY
L2L
sVX
L3L
sg1327
g1386
sg31
g32
sg33
g34
sg21
S'3'
sg19
S'space'
p1456
sg30
g11
sg1330
L6L
sg1331
g1350
sg1333
L6L
sS'block.thisIndex'
p1457
I17
sg1335
g1328
sg1337
g1359
sg1339
g1405
sa(dp1458
S'block.thisTrialN'
p1459
I14
sS'block.thisRepN'
p1460
I0
sg29
NsS'block.thisN'
p1461
I14
sg1322
(S'THIRD'
S'ADD'
S'x'
S'y'
tp1462
sg27
g28
sg1324
L2L
sg1325
(I9
I3
tp1463
sg22
I0
sg20
F0.67549006262561306
sg23
F4.0384273900999688
sVY
L5L
sVX
L4L
sg1327
L0L
sg31
g32
sg33
g34
sg21
S'2'
sg19
S'space'
p1464
sg30
g11
sg1330
L3L
sg1331
g1412
sg1333
L3L
sS'block.thisIndex'
p1465
I2
sg1335
g1375
sg1337
L0L
sg1339
g1432
sa(dp1466
S'block.thisTrialN'
p1467
I15
sS'block.thisRepN'
p1468
I0
sg29
NsS'block.thisN'
p1469
I15
sg1322
(S'THIRD'
S'TIMES'
S'DECREASE'
S'x'
S'y'
tp1470
sg27
g28
sg1324
L3L
sg1325
(I3
I15
I5
tp1471
sg22
I0
sg20
F3.539578244992299
sg23
F4.9831958035356365
sVY
L5L
sVX
L4L
sg1327
g1350
sg31
g32
sg33
g34
sg21
S'4'
sg19
S'space'
p1472
sg30
g11
sg1330
L5L
sg1331
g1359
sg1333
L5L
sS'block.thisIndex'
p1473
I7
sg1335
g1375
sg1337
L0L
sg1339
VUBUxy
p1474
sa(dp1475
S'block.thisTrialN'
p1476
I16
sS'block.thisRepN'
p1477
I0
sg29
NsS'block.thisN'
p1478
I16
sg1322
(S'THIRD'
S'ADD'
S'INCREASE'
S'x'
S'y'
tp1479
sg27
g28
sg1324
L3L
sg1325
(I8
I15
I5
tp1480
sg22
I0
sg20
F1.4732888623257168
sg23
F5.8284213042352349
sVY
L7L
sVX
L7L
sg1327
g1336
sg31
g32
sg33
g34
sg21
S'2'
sg19
S'space'
p1481
sg30
g11
sg1330
L5L
sg1331
g1412
sg1333
L5L
sS'block.thisIndex'
p1482
I6
sg1335
g1375
sg1337
L0L
sg1339
g1474
sa(dp1483
S'block.thisTrialN'
p1484
I17
sS'block.thisRepN'
p1485
I0
sg29
NsS'block.thisN'
p1486
I17
sg1322
(S'THIRD'
S'DECREASE'
S'TIMES'
S'x'
S'y'
tp1487
sg27
g28
sg1324
L3L
sg1325
(I25
I24
I8
tp1488
sg22
I0
sg20
F2.9008833428379148
sg23
F1.4309887763229199
sVY
L5L
sVX
L5L
sg1327
g1359
sg31
g32
sg33
g34
sg21
S'5'
sg19
S'space'
p1489
sg30
g11
sg1330
L8L
sg1331
g1350
sg1333
L8L
sS'block.thisIndex'
p1490
I8
sg1335
g1375
sg1337
L0L
sg1339
g1441
sasS'loops'
p1491
(lp1492
g1
(cpsychopy.data
TrialHandler
p1493
g3
NtRp1494
(dp1495
S'origin'
p1496
NsS'thisTrial'
p1497
(lp1498
sS'_exp'
p1499
I327799760
sg10
S'practice_trials'
p1500
sg6
S'C:\\Users\\experimenter\\Desktop\\Experiments\\KRITL\\2. kritl_experimenter.py'
p1501
sS'thisRepN'
p1502
I1
sg24
I01
sg25
g26
sS'data'
p1503
g1
(cpsychopy.data
DataHandler
p1504
c__builtin__
dict
p1505
(dp1506
g17
cnumpy.core.multiarray
_reconstruct
p1507
(cnumpy
ndarray
p1508
(I0
tS'b'
tRp1509
(I1
(I6
I1
tcnumpy
dtype
p1510
(S'O4'
I0
I1
tRp1511
(I3
S'|'
NNNI-1
I-1
I63
tbI00
(lp1512
(lp1513
F13.065641250344925
aa(lp1514
F4.012774367001839
aa(lp1515
F5.5255692068603821
aa(lp1516
F7.6110449874831829
aa(lp1517
F10.587095586583018
aaS'--'
p1518
atbsg15
g1507
(g1508
(I0
tS'b'
tRp1519
(I1
(I6
I1
tg1511
I00
(lp1520
S'7'
aS'6'
aS'7'
aS'8'
aS'3'
aNatbsS'ran'
p1521
cnumpy.ma.core
_mareconstruct
p1522
(cnumpy.ma.core
MaskedArray
p1523
g1508
(I0
tp1524
S'b'
tRp1525
(I1
(I6
I1
tg1510
(S'f4'
I0
I1
tRp1526
(I3
S'<'
NNNI-1
I-1
I0
tbI00
S'\x00\x00\x80?\x00\x00\x80?\x00\x00\x80?\x00\x00\x80?\x00\x00\x80?\x00\x00\x80?'
S'\x00\x00\x00\x00\x00\x00'
Ntbsg18
g1522
(g1523
g1508
g1524
S'b'
tRp1527
(I1
(I6
I1
tg1526
I00
S"\x92\xe9\xc6?'\xa2\x0c@jb%@_Y\xb5@\xb3\xa8\x80@\x00\x00\x00\x00"
S'\x00\x00\x00\x00\x00\x01'
Ntbsg14
g1507
(g1508
(I0
tS'b'
tRp1528
(I1
(I6
I1
tg1511
I00
(lp1529
(lp1530
g105
aa(lp1531
g97
aa(lp1532
g78
aa(lp1533
g87
aa(lp1534
g113
aaNatbsS'order'
p1535
g1522
(g1523
g1508
g1524
S'b'
tRp1536
(I1
(I6
I1
tg1526
I00
S'\x00\x00\x80@\x00\x00@@\x00\x00\x80?\x00\x00\x00@\x00\x00\xa0@\x00\x00\x00\x00'
S'\x00\x00\x00\x00\x00\x00'
Ntbsg16
g1522
(g1523
g1508
g1524
S'b'
tRp1537
(I1
(I6
I1
tg1526
I00
S'\x00\x00\x80?\x00\x00\x00\x00\x00\x00\x80?\x00\x00\x80?\x00\x00\x80?\x00\x00\x00\x00'
S'\x00\x00\x00\x00\x00\x00'
NtbstRp1538
(dp1539
S'isNumeric'
p1540
(dp1541
g15
I00
sg1521
I01
sg18
I01
sg14
I00
sg16
I01
sg1535
I01
sg17
I00
ssS'trials'
p1542
g1494
sS'dataTypes'
p1543
(lp1544
g1521
ag1535
ag14
ag15
ag16
ag17
ag18
asS'dataShape'
p1545
(lp1546
I6
aI1
asbsS'method'
p1547
S'fullRandom'
p1548
sS'sequenceIndices'
p1549
g1507
(g1508
(I0
tS'b'
tRp1550
(I1
(I6
I1
tg1511
I00
(lp1551
I5
aI2
aI3
aI1
aI0
aI4
atbsS'finished'
p1552
I01
sS'nReps'
p1553
I1
sS'nRemaining'
p1554
I-1
sS'trialList'
p1555
(lp1556
g1
(cpsychopy.data
TrialType
p1557
g1505
(dp1558
g43
L0L
sg44
g73
sg45
g92
sg46
L7L
sg49
L2L
sg48
L0L
sg47
L5L
sg50
L3L
stRp1559
ag1
(g1557
g1505
(dp1560
g43
L0L
sg44
g92
sg45
g93
sg46
L8L
sg49
L2L
sg48
L0L
sg47
L3L
sg50
L3L
stRp1561
ag1
(g1557
g1505
(dp1562
g43
L0L
sg44
g73
sg45
g74
sg46
L7L
sg49
L2L
sg48
L0L
sg47
L5L
sg50
L4L
stRp1563
ag1
(g1557
g1505
(dp1564
g43
g73
sg44
g83
sg45
g74
sg46
L8L
sg49
L3L
sg48
L0L
sg47
L2L
sg50
L4L
stRp1565
ag1
(g1557
g1505
(dp1566
g43
g64
sg44
g67
sg45
g70
sg46
L3L
sg49
L3L
sg48
L0L
sg47
L3L
sg50
L2L
stRp1567
ag1
(g1557
g1505
(dp1568
g43
g64
sg44
g67
sg45
g65
sg46
L9L
sg49
L4L
sg48
g70
sg47
L8L
sg50
L8L
stRp1569
asS'seed'
p1570
NsS'thisIndex'
p1571
I4
sS'thisN'
p1572
I6
sS'thisTrialN'
p1573
I0
sS'nTotal'
p1574
I6
sbag1
(g1493
g3
NtRp1575
(dp1576
g1496
Nsg1497
(lp1577
sg1499
I327799760
sg10
S'block'
p1578
sg6
g1501
sg1502
I1
sg24
I01
sg25
g26
sg1503
g1
(g1504
g1505
(dp1579
g22
g1522
(g1523
g1508
g1524
S'b'
tRp1580
(I1
(I18
I1
tg1526
I00
S'\x00\x00\x80?\x00\x00\x00\x00\x00\x00\x80?\x00\x00\x00\x00\x00\x00\x80?\x00\x00\x80?\x00\x00\x00\x00\x00\x00\x80?\x00\x00\x80?\x00\x00\x00\x00\x00\x00\x00\x00\x00\x00\x00\x00\x00\x00\x00\x00\x00\x00\x00\x00\x00\x00\x80?\x00\x00\x00\x00\x00\x00\x80?\x00\x00\x00\x00'
S'\x00\x00\x00\x00\x00\x00\x00\x00\x00\x00\x00\x00\x00\x00\x00\x00\x00\x00'
Ntbsg19
g1507
(g1508
(I0
tS'b'
tRp1581
(I1
(I18
I1
tg1511
I00
(lp1582
g277
ag260
ag219
ag135
ag227
ag236
ag124
ag244
ag211
ag147
ag167
ag252
ag185
ag269
ag157
ag203
ag194
aNatbsg23
g1522
(g1523
g1508
g1524
S'b'
tRp1583
(I1
(I18
I1
tg1526
I00
S'\x98Y\x03@\x02\xa19@q\xfcF@\x00\x00\x00\x00X\xe3b@\xf1\xabd@\xe4\x06\x0cA\xff|{@\x1f\xa29@\x86\x1aA@\xc1\x95(A<\x82\x8f@\xe1\xff\x1dAS|\xf3@\xfa\x1dQ@^`\xfa@\xd9\xe3\xdb@\x00\x00\x00\x00'
S'\x00\x00\x00\x01\x00\x00\x00\x00\x00\x00\x00\x00\x00\x00\x00\x00\x00\x01'
Ntbsg1521
g1522
(g1523
g1508
g1524
S'b'
tRp1584
(I1
(I18
I1
tg1526
I00
S'\x00\x00\x80?\x00\x00\x80?\x00\x00\x80?\x00\x00\x80?\x00\x00\x80?\x00\x00\x80?\x00\x00\x80?\x00\x00\x80?\x00\x00\x80?\x00\x00\x80?\x00\x00\x80?\x00\x00\x80?\x00\x00\x80?\x00\x00\x80?\x00\x00\x80?\x00\x00\x80?\x00\x00\x80?\x00\x00\x80?'
S'\x00\x00\x00\x00\x00\x00\x00\x00\x00\x00\x00\x00\x00\x00\x00\x00\x00\x00'
Ntbsg21
g1507
(g1508
(I0
tS'b'
tRp1585
(I1
(I18
I1
tg1511
I00
(lp1586
S'7'
aS'1'
aS'2'
aNaS'9'
aS'3'
aS'1'
aS'3'
aS'9'
aS'9'
aS'3'
aS'4'
aS'1'
aS'6'
aS'6'
aS'3'
aS'5'
aNatbsg1535
g1522
(g1523
g1508
g1524
S'b'
tRp1587
(I1
(I18
I1
tg1526
I00
S'\x00\x00\x88A\x00\x00pA\x00\x00 A\x00\x00\x80?\x00\x000A\x00\x00@A\x00\x00\x00\x00\x00\x00PA\x00\x00\x10A\x00\x00\x00@\x00\x00\x80@\x00\x00`A\x00\x00\xc0@\x00\x00\x80A\x00\x00@@\x00\x00\x00A\x00\x00\xe0@\x00\x00\xa0@'
S'\x00\x00\x00\x00\x00\x00\x00\x00\x00\x00\x00\x00\x00\x00\x00\x00\x00\x00'
Ntbsg20
g1522
(g1523
g1508
g1524
S'b'
tRp1588
(I1
(I18
I1
tg1526
I00
S'\xc4\x83\x92@\xad\xb0\xab@\xd5l\x93@\x99\x14\x9cA\xca\x96\xa5@_\xae\x89@\x19.\xca@\xe4\xb5\xc2@\xac\x81\xb6@\x05dqA\x06\xa9\xd5@$\xf2t@\xbc\xd1\xff@\xc0\x81\x13A\xa1\x1f\x18Au\xefwA\x91\xff\xf9@\x00\x00\x00\x00'
S'\x00\x00\x00\x00\x00\x00\x00\x00\x00\x00\x00\x00\x00\x00\x00\x00\x00\x01'
NtbstRp1589
(dp1590
g1540
(dp1591
g1521
I01
sg21
I00
sg20
I01
sg22
I01
sg19
I00
sg23
I01
sg1535
I01
ssg1542
g1575
sg1543
(lp1592
g1521
ag1535
ag19
ag20
ag21
ag22
ag23
asg1545
(lp1593
I18
aI1
asbsg1547
g1548
sg1549
g1507
(g1508
(I0
tS'b'
tRp1594
(I1
(I18
I1
tg1511
I00
(lp1595
I6
aI3
aI9
aI14
aI10
aI17
aI12
aI16
aI15
aI8
aI2
aI4
aI5
aI7
aI11
aI1
aI13
aI0
atbsg1552
I01
sg1553
I1
sg1554
I-1
sg1555
(lp1596
g1
(g1557
g1505
(dp1597
g51
g275
sVY
L5L
sg53
L2L
sg54
g276
sg55
L7L
sg56
L7L
sg52
g127
sVX
L4L
sg57
L0L
sg58
g196
sg59
L0L
sg60
g262
stRp1598
ag1
(g1557
g1505
(dp1599
g51
g258
sVY
L3L
sg53
L2L
sg54
g259
sg55
L9L
sg56
L9L
sg52
g149
sVX
L4L
sg57
L0L
sg58
g146
sg59
L0L
sg60
g262
stRp1600
ag1
(g1557
g1505
(dp1601
g51
g217
sVY
L8L
sg53
L2L
sg54
g218
sg55
L2L
sg56
L2L
sg52
g136
sVX
L8L
sg57
L0L
sg58
g158
sg59
L0L
sg60
g139
stRp1602
ag1
(g1557
g1505
(dp1603
g51
g133
sVY
L2L
sg53
L2L
sg54
g134
sg55
L5L
sg56
L5L
sg52
g136
sVX
L8L
sg57
L0L
sg58
g138
sg59
L0L
sg60
g139
stRp1604
ag1
(g1557
g1505
(dp1605
g51
g225
sVY
L2L
sg53
L3L
sg54
g226
sg55
L9L
sg56
L9L
sg52
g149
sVX
L7L
sg57
g123
sg58
g136
sg59
L0L
sg60
g229
stRp1606
ag1
(g1557
g1505
(dp1607
g51
g234
sVY
L2L
sg53
L3L
sg54
g235
sg55
L3L
sg56
L3L
sg52
g138
sVX
L8L
sg57
g127
sg58
g146
sg59
L0L
sg60
g229
stRp1608
ag1
(g1557
g1505
(dp1609
g51
g121
sVY
L2L
sg53
L3L
sg54
g122
sg55
L8L
sg56
L8L
sg52
g125
sVX
L9L
sg57
g123
sg58
g127
sg59
L0L
sg60
g128
stRp1610
ag1
(g1557
g1505
(dp1611
g51
g242
sVY
L3L
sg53
L3L
sg54
g243
sg55
L3L
sg56
L3L
sg52
g136
sVX
L2L
sg57
g149
sg58
g138
sg59
L0L
sg60
g128
stRp1612
ag1
(g1557
g1505
(dp1613
g51
g209
sVY
L3L
sg53
L3L
sg54
g210
sg55
L9L
sg56
L9L
sg52
g127
sVX
L3L
sg57
g196
sg58
g149
sg59
L0L
sg60
g150
stRp1614
ag1
(g1557
g1505
(dp1615
g51
g144
sVY
L2L
sg53
L3L
sg54
g145
sg55
L6L
sg56
L6L
sg52
g138
sVX
L3L
sg57
g146
sg58
g149
sg59
L0L
sg60
g150
stRp1616
ag1
(g1557
g1505
(dp1617
g51
g165
sVY
L4L
sg53
L4L
sg54
g166
sg55
L5L
sg56
L5L
sg52
g158
sVX
L3L
sg57
g138
sg58
g136
sg59
g149
sg60
g169
stRp1618
ag1
(g1557
g1505
(dp1619
g51
g250
sVY
L9L
sg53
L4L
sg54
g251
sg55
L9L
sg56
L9L
sg52
g127
sVX
L3L
sg57
g138
sg58
g125
sg59
g177
sg60
g169
stRp1620
ag1
(g1557
g1505
(dp1621
g51
g183
sVY
L4L
sg53
L4L
sg54
g184
sg55
L5L
sg56
L5L
sg52
g146
sVX
L5L
sg57
g123
sg58
g127
sg59
g149
sg60
g187
stRp1622
ag1
(g1557
g1505
(dp1623
g51
g267
sVY
L2L
sg53
L4L
sg54
g268
sg55
L7L
sg56
L7L
sg52
g125
sVX
L2L
sg57
g149
sg58
g138
sg59
g127
sg60
g187
stRp1624
ag1
(g1557
g1505
(dp1625
g51
g155
sVY
L4L
sg53
L4L
sg54
g156
sg55
L6L
sg56
L6L
sg52
g158
sVX
L4L
sg57
g146
sg58
g149
sg59
g138
sg60
g160
stRp1626
ag1
(g1557
g1505
(dp1627
g51
g201
sVY
L8L
sg53
L4L
sg54
g202
sg55
L9L
sg56
L9L
sg52
g138
sVX
L8L
sg57
g136
sg58
g149
sg59
g158
sg60
g160
stRp1628
ag1
(g1557
g1505
(dp1629
g51
g192
sVY
L4L
sg53
L4L
sg54
g193
sg55
L5L
sg56
L5L
sg52
g177
sVX
L5L
sg57
g158
sg58
g123
sg59
g196
sg60
g178
stRp1630
ag1
(g1557
g1505
(dp1631
g51
g174
sVY
L4L
sg53
L4L
sg54
g175
sg55
L5L
sg56
L5L
sg52
g138
sVX
L7L
sg57
g127
sg58
g177
sg59
g125
sg60
g178
stRp1632
asg1570
Nsg1571
I0
sg1572
I18
sg1573
I0
sg1574
I18
sbag1
(g1493
g3
NtRp1633
(dp1634
g1496
Nsg1497
(lp1635
sg1499
I327799760
sg10
g1578
sg6
g1501
sg1502
I1
sg24
I01
sg25
g26
sg1503
g1
(g1504
g1505
(dp1636
g22
g1522
(g1523
g1508
g1524
S'b'
tRp1637
(I1
(I18
I1
tg1526
I00
S'\x00\x00\x00\x00\x00\x00\x00\x00\x00\x00\x80?\x00\x00\x80?\x00\x00\x80?\x00\x00\x80?\x00\x00\x00\x00\x00\x00\x80?\x00\x00\x80?\x00\x00\x80?\x00\x00\x00\x00\x00\x00\x00\x00\x00\x00\x80?\x00\x00\x80?\x00\x00\x00\x00\x00\x00\x00\x00\x00\x00\x00\x00\x00\x00\x00\x00'
S'\x00\x00\x00\x00\x00\x00\x00\x00\x00\x00\x00\x00\x00\x00\x00\x00\x00\x00'
Ntbsg19
g1507
(g1508
(I0
tS'b'
tRp1638
(I1
(I18
I1
tg1511
I00
(lp1639
g434
ag401
ag328
ag442
ag376
ag426
ag367
ag410
ag418
ag309
ag338
ag385
ag359
ag290
ag393
ag350
ag450
ag318
atbsg23
g1522
(g1523
g1508
g1524
S'b'
tRp1640
(I1
(I18
I1
tg1526
I00
S'p\xe2#A\x8a;\x80@ny\x0c@\xb3\xd1\xd7?\xad\x99_@\x80\x11)A\xbb9\x06A\xe1\x8e\x16@a\xfc\x8a@>\x90\xb7@@\xe0CAT\x90\xac@\x1f\xd7i@\xbb\xaf\xeb@\x14\x9a\xd6@4\x08y@P\xefr@\xc3oGA'
S'\x00\x00\x00\x00\x00\x00\x00\x00\x00\x00\x00\x00\x00\x00\x00\x00\x00\x00'
Ntbsg1521
g1522
(g1523
g1508
g1524
S'b'
tRp1641
(I1
(I18
I1
tg1526
I00
S'\x00\x00\x80?\x00\x00\x80?\x00\x00\x80?\x00\x00\x80?\x00\x00\x80?\x00\x00\x80?\x00\x00\x80?\x00\x00\x80?\x00\x00\x80?\x00\x00\x80?\x00\x00\x80?\x00\x00\x80?\x00\x00\x80?\x00\x00\x80?\x00\x00\x80?\x00\x00\x80?\x00\x00\x80?\x00\x00\x80?'
S'\x00\x00\x00\x00\x00\x00\x00\x00\x00\x00\x00\x00\x00\x00\x00\x00\x00\x00'
Ntbsg21
g1507
(g1508
(I0
tS'b'
tRp1642
(I1
(I18
I1
tg1511
I00
(lp1643
S'2'
aS'3'
aS'9'
aS'6'
aS'6'
aS'7'
aS'1'
aS'2'
aS'1'
aS'9'
aS'7'
aS'3'
aS'1'
aS'3'
aS'1'
aS'9'
aS'3'
aS'8'
atbsg1535
g1522
(g1523
g1508
g1524
S'b'
tRp1644
(I1
(I18
I1
tg1526
I00
S'\x00\x00pA\x00\x000A\x00\x00@@\x00\x00\x80A\x00\x00\x00A\x00\x00`A\x00\x00\xe0@\x00\x00@A\x00\x00PA\x00\x00\x80?\x00\x00\x80@\x00\x00\x10A\x00\x00\xc0@\x00\x00\x00\x00\x00\x00 A\x00\x00\xa0@\x00\x00\x88A\x00\x00\x00@'
S'\x00\x00\x00\x00\x00\x00\x00\x00\x00\x00\x00\x00\x00\x00\x00\x00\x00\x00'
Ntbsg20
g1522
(g1523
g1508
g1524
S'b'
tRp1645
(I1
(I18
I1
tg1526
I00
S'-\x97\x90@\x9d\x1a\x96@\x00\x94-@:\x07\x8f@\x9b?\x99@F\x1cP@-\xbaa@\xb1\x8e\x08Ad\xe0\x0bA\x06\xac\xc6@p\x97\xbc@\xbe\xbf\x97@w\xfb\x8e@\xbb\xc0\x0eA\xe06fAi\xd8^A\xb7\xea\x89@\x1a\xf2\xcc@'
S'\x00\x00\x00\x00\x00\x00\x00\x00\x00\x00\x00\x00\x00\x00\x00\x00\x00\x00'
NtbstRp1646
(dp1647
g1540
(dp1648
g1521
I01
sg21
I00
sg20
I01
sg22
I01
sg19
I00
sg23
I01
sg1535
I01
ssg1542
g1633
sg1543
(lp1649
g1521
ag1535
ag19
ag20
ag21
ag22
ag23
asg1545
(lp1650
I18
aI1
asbsg1547
g1548
sg1549
g1507
(g1508
(I0
tS'b'
tRp1651
(I1
(I18
I1
tg1511
I00
(lp1652
I13
aI9
aI17
aI2
aI10
aI15
aI12
aI6
aI4
aI11
aI14
aI1
aI7
aI8
aI5
aI0
aI3
aI16
atbsg1552
I01
sg1553
I1
sg1554
I-1
sg1555
(lp1653
g1
(g1557
g1505
(dp1654
g283
g432
sVY
L2L
sg285
L2L
sg286
g433
sg294
L1L
sg291
L1L
sg292
g337
sVX
L9L
sg288
L0L
sg296
g293
sg298
L0L
sg300
g403
stRp1655
ag1
(g1557
g1505
(dp1656
g283
g399
sVY
L4L
sg285
L2L
sg286
g400
sg294
L4L
sg291
L4L
sg292
g337
sVX
L3L
sg288
L0L
sg296
g308
sg298
L0L
sg300
g403
stRp1657
ag1
(g1557
g1505
(dp1658
g283
g326
sVY
L4L
sg285
L2L
sg286
g327
sg294
L9L
sg291
L9L
sg292
g308
sVX
L2L
sg288
L0L
sg296
g289
sg298
L0L
sg300
g330
stRp1659
ag1
(g1557
g1505
(dp1660
g283
g440
sVY
L6L
sg285
L2L
sg286
g441
sg294
L6L
sg291
L6L
sg292
g293
sVX
L8L
sg288
L0L
sg296
g297
sg298
L0L
sg300
g330
stRp1661
ag1
(g1557
g1505
(dp1662
g283
g374
sVY
L4L
sg285
L3L
sg286
g375
sg294
L6L
sg291
L6L
sg292
g339
sVX
L6L
sg288
g299
sg296
g320
sg298
L0L
sg300
g378
stRp1663
ag1
(g1557
g1505
(dp1664
g283
g424
sVY
L9L
sg285
L3L
sg286
g425
sg294
L7L
sg291
L7L
sg292
g342
sVX
L9L
sg288
g339
sg296
g293
sg298
L0L
sg300
g378
stRp1665
ag1
(g1557
g1505
(dp1666
g283
g365
sVY
L4L
sg285
L3L
sg286
g366
sg294
L8L
sg291
L8L
sg292
g308
sVX
L3L
sg288
g337
sg296
g342
sg298
L0L
sg300
g369
stRp1667
ag1
(g1557
g1505
(dp1668
g283
g408
sVY
L2L
sg285
L3L
sg286
g409
sg294
L2L
sg291
L2L
sg292
g341
sVX
L4L
sg288
g299
sg296
g289
sg298
L0L
sg300
g369
stRp1669
ag1
(g1557
g1505
(dp1670
g283
g416
sVY
L2L
sg285
L3L
sg286
g417
sg294
L1L
sg291
L1L
sg292
g299
sVX
L8L
sg288
g341
sg296
g339
sg298
L0L
sg300
g311
stRp1671
ag1
(g1557
g1505
(dp1672
g283
g306
sVY
L3L
sg285
L3L
sg286
g307
sg294
L9L
sg291
L9L
sg292
g299
sVX
L2L
sg288
g308
sg296
g297
sg298
L0L
sg300
g311
stRp1673
ag1
(g1557
g1505
(dp1674
g283
g335
sVY
L3L
sg285
L4L
sg286
g336
sg294
L1L
sg291
L1L
sg292
g339
sVX
L6L
sg288
g337
sg296
g341
sg298
g342
sg300
g343
stRp1675
ag1
(g1557
g1505
(dp1676
g283
g383
sVY
L2L
sg285
L4L
sg286
g384
sg294
L2L
sg291
L2L
sg292
g339
sVX
L3L
sg288
g337
sg296
g308
sg298
g342
sg300
g343
stRp1677
ag1
(g1557
g1505
(dp1678
g283
g357
sVY
L9L
sg285
L4L
sg286
g358
sg294
L1L
sg291
L1L
sg292
g341
sVX
L3L
sg288
g297
sg296
g339
sg298
g342
sg300
g301
stRp1679
ag1
(g1557
g1505
(dp1680
g283
g284
sVY
L3L
sg285
L4L
sg286
g287
sg294
L3L
sg291
L3L
sg292
g293
sVX
L6L
sg288
g289
sg296
g297
sg298
g299
sg300
g301
stRp1681
ag1
(g1557
g1505
(dp1682
g283
g391
sVY
L2L
sg285
L4L
sg286
g392
sg294
L7L
sg291
L7L
sg292
g299
sVX
L2L
sg288
g308
sg296
g289
sg298
g297
sg300
g352
stRp1683
ag1
(g1557
g1505
(dp1684
g283
g348
sVY
L2L
sg285
L4L
sg286
g349
sg294
L1L
sg291
L1L
sg292
g289
sVX
L8L
sg288
g293
sg296
g337
sg298
g299
sg300
g352
stRp1685
ag1
(g1557
g1505
(dp1686
g283
g448
sVY
L2L
sg285
L4L
sg286
g449
sg294
L5L
sg291
L5L
sg292
g299
sVX
L2L
sg288
g297
sg296
g339
sg298
g320
sg300
g321
stRp1687
ag1
(g1557
g1505
(dp1688
g283
g316
sVY
L2L
sg285
L4L
sg286
g317
sg294
L7L
sg291
L7L
sg292
g297
sVX
L2L
sg288
g299
sg296
g289
sg298
g320
sg300
g321
stRp1689
asg1570
Nsg1571
I16
sg1572
I18
sg1573
I0
sg1574
I18
sbag1
(g1493
g3
NtRp1690
(dp1691
g1496
Nsg1497
(lp1692
sg1499
I327799760
sg10
g1578
sg6
g1501
sg1502
I1
sg24
I01
sg25
g26
sg1503
g1
(g1504
g1505
(dp1693
g22
g1522
(g1523
g1508
g1524
S'b'
tRp1694
(I1
(I18
I1
tg1526
I00
S'\x00\x00\x80?\x00\x00\x80?\x00\x00\x80?\x00\x00\x80?\x00\x00\x00\x00\x00\x00\x80?\x00\x00\x80?\x00\x00\x80?\x00\x00\x80?\x00\x00\x00\x00\x00\x00\x00\x00\x00\x00\x80?\x00\x00\x00\x00\x00\x00\x00\x00\x00\x00\x00\x00\x00\x00\x00\x00\x00\x00\x80?\x00\x00\x00\x00'
S'\x00\x00\x00\x00\x00\x00\x00\x00\x00\x00\x00\x00\x00\x00\x00\x00\x00\x00'
Ntbsg19
g1507
(g1508
(I0
tS'b'
tRp1695
(I1
(I18
I1
tg1511
I00
(lp1696
g565
ag582
ag556
ag574
ag615
ag606
ag623
ag538
ag598
ag520
ag463
ag501
ag530
ag481
ag491
ag548
ag590
ag511
atbsg23
g1522
(g1523
g1508
g1524
S'b'
tRp1697
(I1
(I18
I1
tg1526
I00
S'Y\x89\xbe?82\x01@,\x02\x18@#\xb1\xb4?\x9b\xcc\x87@\xb0\xc2\x14@\xb4\x97\xbd@8V\xd8@\xbd\x17-@NQ\x18A\xd1(yA[ZO@\x86\x1e\x94@lg\x04A\x83\x15\xd5@m\x05\xa0@\x1f-"A\xeb\x92\x81@'
S'\x00\x00\x00\x00\x00\x00\x00\x00\x00\x00\x00\x00\x00\x00\x00\x00\x00\x00'
Ntbsg1521
g1522
(g1523
g1508
g1524
S'b'
tRp1698
(I1
(I18
I1
tg1526
I00
S'\x00\x00\x80?\x00\x00\x80?\x00\x00\x80?\x00\x00\x80?\x00\x00\x80?\x00\x00\x80?\x00\x00\x80?\x00\x00\x80?\x00\x00\x80?\x00\x00\x80?\x00\x00\x80?\x00\x00\x80?\x00\x00\x80?\x00\x00\x80?\x00\x00\x80?\x00\x00\x80?\x00\x00\x80?\x00\x00\x80?'
S'\x00\x00\x00\x00\x00\x00\x00\x00\x00\x00\x00\x00\x00\x00\x00\x00\x00\x00'
Ntbsg21
g1507
(g1508
(I0
tS'b'
tRp1699
(I1
(I18
I1
tg1511
I00
(lp1700
S'2'
aS'3'
aS'1'
aS'6'
aS'1'
aS'4'
aS'6'
aS'3'
aS'7'
aS'5'
aS'1'
aS'8'
aS'2'
aS'1'
aS'6'
aS'3'
aS'6'
aS'5'
atbsg1535
g1522
(g1523
g1508
g1524
S'b'
tRp1701
(I1
(I18
I1
tg1526
I00
S'\x00\x00 A\x00\x00@A\x00\x00\x10A\x00\x000A\x00\x00\x80A\x00\x00pA\x00\x00\x88A\x00\x00\xe0@\x00\x00`A\x00\x00\xa0@\x00\x00\x00\x00\x00\x00@@\x00\x00\xc0@\x00\x00\x80?\x00\x00\x00@\x00\x00\x00A\x00\x00PA\x00\x00\x80@'
S'\x00\x00\x00\x00\x00\x00\x00\x00\x00\x00\x00\x00\x00\x00\x00\x00\x00\x00'
Ntbsg20
g1522
(g1523
g1508
g1524
S'b'
tRp1702
(I1
(I18
I1
tg1526
I00
S'\x84\xbe\xf5?\xcb\x985@\xdcV\x08@\xbav,@\xdf\x15\x18@\xed\xc8@@T\xea\xb4@\xdfB\xf1@\x8a\x8b:@6\x8a^@\xcc\x1e\xaa@\x13\xa8\xbc@Cq\xe2@\xb3V\x89@_\xe3$A\x1cVwA\xad\xb0\xd5@\xcf/W@'
S'\x00\x00\x00\x00\x00\x00\x00\x00\x00\x00\x00\x00\x00\x00\x00\x00\x00\x00'
NtbstRp1703
(dp1704
g1540
(dp1705
g1521
I01
sg21
I00
sg20
I01
sg22
I01
sg19
I00
sg23
I01
sg1535
I01
ssg1542
g1690
sg1543
(lp1706
g1521
ag1535
ag19
ag20
ag21
ag22
ag23
asg1545
(lp1707
I18
aI1
asbsg1547
g1548
sg1549
g1507
(g1508
(I0
tS'b'
tRp1708
(I1
(I18
I1
tg1511
I00
(lp1709
I10
aI13
aI14
aI11
aI17
aI9
aI12
aI7
aI15
aI2
aI0
aI3
aI1
aI16
aI8
aI5
aI4
aI6
atbsg1552
I01
sg1553
I1
sg1554
I-1
sg1555
(lp1710
g1
(g1557
g1505
(dp1711
g456
g563
sVY
L2L
sg458
L2L
sg459
g564
sg467
L2L
sg464
L2L
sg465
g510
sVX
L3L
sg461
L0L
sg469
g547
sg471
L0L
sg473
g567
stRp1712
ag1
(g1557
g1505
(dp1713
g456
g580
sVY
L2L
sg458
L2L
sg459
g581
sg467
L3L
sg464
L3L
sg465
g462
sVX
L6L
sg461
L0L
sg469
g503
sg471
L0L
sg473
g567
stRp1714
ag1
(g1557
g1505
(dp1715
g456
g554
sVY
L4L
sg458
L2L
sg459
g555
sg467
L1L
sg464
L1L
sg465
g547
sVX
L8L
sg461
L0L
sg469
g462
sg471
L0L
sg473
g558
stRp1716
ag1
(g1557
g1505
(dp1717
g456
g572
sVY
L2L
sg458
L2L
sg459
g573
sg467
L6L
sg464
L6L
sg465
g470
sVX
L3L
sg461
L0L
sg469
g510
sg471
L0L
sg473
g558
stRp1718
ag1
(g1557
g1505
(dp1719
g456
g613
sVY
L8L
sg458
L3L
sg459
g614
sg467
L9L
sg464
L9L
sg465
g521
sVX
L6L
sg461
g472
sg469
g470
sg471
L0L
sg473
g608
stRp1720
ag1
(g1557
g1505
(dp1721
g456
g604
sVY
L2L
sg458
L3L
sg459
g605
sg467
L4L
sg464
L4L
sg465
g462
sVX
L3L
sg461
g500
sg469
g547
sg471
L0L
sg473
g608
stRp1722
ag1
(g1557
g1505
(dp1723
g456
g621
sVY
L3L
sg458
L3L
sg459
g622
sg467
L6L
sg464
L6L
sg465
g470
sVX
L3L
sg461
g500
sg469
g521
sg471
L0L
sg473
g540
stRp1724
ag1
(g1557
g1505
(dp1725
g456
g536
sVY
L2L
sg458
L3L
sg459
g537
sg467
L3L
sg464
L3L
sg465
g503
sVX
L8L
sg461
g521
sg469
g510
sg471
L0L
sg473
g540
stRp1726
ag1
(g1557
g1505
(dp1727
g456
g596
sVY
L3L
sg458
L3L
sg459
g597
sg467
L7L
sg464
L7L
sg465
g500
sVX
L6L
sg461
g547
sg469
g510
sg471
L0L
sg473
g523
stRp1728
ag1
(g1557
g1505
(dp1729
g456
g518
sVY
L3L
sg458
L3L
sg459
g519
sg467
L1L
sg464
L1L
sg465
g521
sVX
L3L
sg461
g470
sg469
g472
sg471
L0L
sg473
g523
stRp1730
ag1
(g1557
g1505
(dp1731
g456
g457
sVY
L6L
sg458
L4L
sg459
g460
sg467
L8L
sg464
L8L
sg465
g466
sVX
L6L
sg461
g462
sg469
g470
sg471
g472
sg473
g474
stRp1732
ag1
(g1557
g1505
(dp1733
g456
g498
sVY
L9L
sg458
L4L
sg459
g499
sg467
L8L
sg464
L8L
sg465
g462
sVX
L3L
sg461
g500
sg469
g503
sg471
g466
sg473
g474
stRp1734
ag1
(g1557
g1505
(dp1735
g456
g528
sVY
L2L
sg458
L4L
sg459
g529
sg467
L8L
sg464
L8L
sg465
g470
sVX
L3L
sg461
g510
sg469
g466
sg471
g472
sg473
g484
stRp1736
ag1
(g1557
g1505
(dp1737
g456
g479
sVY
L3L
sg458
L4L
sg459
g480
sg467
L2L
sg464
L2L
sg465
g482
sVX
L2L
sg461
g466
sg469
g472
sg471
g462
sg473
g484
stRp1738
ag1
(g1557
g1505
(dp1739
g456
g489
sVY
L7L
sg458
L4L
sg459
g490
sg467
L8L
sg464
L8L
sg465
g466
sVX
L6L
sg461
g470
sg469
g472
sg471
g462
sg473
g493
stRp1740
ag1
(g1557
g1505
(dp1741
g456
g545
sVY
L9L
sg458
L4L
sg459
g546
sg467
L1L
sg464
L1L
sg465
g510
sVX
L9L
sg461
g547
sg469
g472
sg471
g466
sg473
g493
stRp1742
ag1
(g1557
g1505
(dp1743
g456
g588
sVY
L3L
sg458
L4L
sg459
g589
sg467
L6L
sg464
L6L
sg465
g500
sVX
L9L
sg461
g510
sg469
g521
sg471
g547
sg473
g513
stRp1744
ag1
(g1557
g1505
(dp1745
g456
g508
sVY
L4L
sg458
L4L
sg459
g509
sg467
L6L
sg464
L6L
sg465
g466
sVX
L2L
sg461
g510
sg469
g472
sg471
g482
sg473
g513
stRp1746
asg1570
Nsg1571
I6
sg1572
I18
sg1573
I0
sg1574
I18
sbag1
(g1493
g3
NtRp1747
(dp1748
g1496
Nsg1497
(lp1749
sg1499
I327799760
sg10
g1578
sg6
g1501
sg1502
I1
sg24
I01
sg25
g26
sg1503
g1
(g1504
g1505
(dp1750
g22
g1522
(g1523
g1508
g1524
S'b'
tRp1751
(I1
(I18
I1
tg1526
I00
S'\x00\x00\x00\x00\x00\x00\x80?\x00\x00\x80?\x00\x00\x80?\x00\x00\x00\x00\x00\x00\x00\x00\x00\x00\x80?\x00\x00\x80?\x00\x00\x80?\x00\x00\x00\x00\x00\x00\x00\x00\x00\x00\x00\x00\x00\x00\x00\x00\x00\x00\x00\x00\x00\x00\x80?\x00\x00\x80?\x00\x00\x80?\x00\x00\x80?'
S'\x00\x00\x00\x00\x00\x00\x00\x00\x00\x00\x00\x00\x00\x00\x00\x00\x00\x00'
Ntbsg19
g1507
(g1508
(I0
tS'b'
tRp1752
(I1
(I18
I1
tg1511
I00
(lp1753
g796
ag771
ag747
ag738
ag755
ag685
ag729
ag788
ag780
ag712
ag694
ag763
ag721
ag636
ag655
ag704
ag677
ag665
atbsg23
g1522
(g1523
g1508
g1524
S'b'
tRp1754
(I1
(I18
I1
tg1526
I00
S'\x9c`]@_\xbc\xab@\xb5 #@\x1b\x7f1@\n\x88\x81@\xe8\x043AE\xba\xc6@:2$A\x14\x12\xf2?R\xba\x11@\xd8\xb9\x07A\xeaF\xc4@,{\xe3@\xc8\x07\xc8@\x12\xc1\x10Az\xa8.@7\x0cK@\xf7\xa8[@'
S'\x00\x00\x00\x00\x00\x00\x00\x00\x00\x00\x00\x00\x00\x00\x00\x00\x00\x00'
Ntbsg1521
g1522
(g1523
g1508
g1524
S'b'
tRp1755
(I1
(I18
I1
tg1526
I00
S'\x00\x00\x80?\x00\x00\x80?\x00\x00\x80?\x00\x00\x80?\x00\x00\x80?\x00\x00\x80?\x00\x00\x80?\x00\x00\x80?\x00\x00\x80?\x00\x00\x80?\x00\x00\x80?\x00\x00\x80?\x00\x00\x80?\x00\x00\x80?\x00\x00\x80?\x00\x00\x80?\x00\x00\x80?\x00\x00\x80?'
S'\x00\x00\x00\x00\x00\x00\x00\x00\x00\x00\x00\x00\x00\x00\x00\x00\x00\x00'
Ntbsg21
g1507
(g1508
(I0
tS'b'
tRp1756
(I1
(I18
I1
tg1511
I00
(lp1757
S'1'
aS'2'
aS'8'
aS'8'
aS'9'
aS'1'
aS'9'
aS'2'
aS'5'
aS'9'
aS'6'
aS'6'
aS'4'
aS'1'
aS'7'
aS'6'
aS'8'
aS'3'
atbsg1535
g1522
(g1523
g1508
g1524
S'b'
tRp1758
(I1
(I18
I1
tg1526
I00
S'\x00\x00\x88A\x00\x00`A\x00\x000A\x00\x00 A\x00\x00@A\x00\x00\x80@\x00\x00\x10A\x00\x00\x80A\x00\x00pA\x00\x00\xe0@\x00\x00\xa0@\x00\x00PA\x00\x00\x00A\x00\x00\x00\x00\x00\x00\x80?\x00\x00\xc0@\x00\x00@@\x00\x00\x00@'
S'\x00\x00\x00\x00\x00\x00\x00\x00\x00\x00\x00\x00\x00\x00\x00\x00\x00\x00'
Ntbsg20
g1522
(g1523
g1508
g1524
S'b'
tRp1759
(I1
(I18
I1
tg1526
I00
S'\xca\x00\xb5?P\t\xe8?\x98\x99\xd1?\x19-\xac?"3A@\x19\xd9\xfa?\xca\xf3\x86@\xd3\x9d\x94@\xde\xf1D@+\xa7\xad@\x02+#A\xff\x9f\x97@\xc6%\x85@\x10\xcb\xba@A\x93B@\x1c\'\xff@x9[@\x98+\x80@'
S'\x00\x00\x00\x00\x00\x00\x00\x00\x00\x00\x00\x00\x00\x00\x00\x00\x00\x00'
NtbstRp1760
(dp1761
g1540
(dp1762
g1521
I01
sg21
I00
sg20
I01
sg22
I01
sg19
I00
sg23
I01
sg1535
I01
ssg1542
g1747
sg1543
(lp1763
g1521
ag1535
ag19
ag20
ag21
ag22
ag23
asg1545
(lp1764
I18
aI1
asbsg1547
g1548
sg1549
g1507
(g1508
(I0
tS'b'
tRp1765
(I1
(I18
I1
tg1511
I00
(lp1766
I13
aI14
aI17
aI16
aI5
aI10
aI15
aI9
aI12
aI6
aI3
aI2
aI4
aI11
aI1
aI8
aI7
aI0
atbsg1552
I01
sg1553
I1
sg1554
I-1
sg1555
(lp1767
g1
(g1557
g1505
(dp1768
g629
g794
sVY
L6L
sg631
L2L
sg632
g795
sg640
L7L
sg637
L7L
sg638
g643
sVX
L3L
sg634
L0L
sg642
g654
sg644
L0L
sg646
g773
stRp1769
ag1
(g1557
g1505
(dp1770
g629
g769
sVY
L4L
sg631
L2L
sg632
g770
sg640
L2L
sg637
L2L
sg638
g645
sVX
L5L
sg634
L0L
sg642
g669
sg644
L0L
sg646
g773
stRp1771
ag1
(g1557
g1505
(dp1772
g629
g745
sVY
L2L
sg631
L2L
sg632
g746
sg640
L8L
sg637
L8L
sg638
g654
sVX
L2L
sg634
L0L
sg642
g657
sg644
L0L
sg646
g740
stRp1773
ag1
(g1557
g1505
(dp1774
g629
g736
sVY
L2L
sg631
L2L
sg632
g737
sg640
L8L
sg637
L8L
sg638
g639
sVX
L2L
sg634
L0L
sg642
g657
sg644
L0L
sg646
g740
stRp1775
ag1
(g1557
g1505
(dp1776
g629
g753
sVY
L3L
sg631
L3L
sg632
g754
sg640
L4L
sg637
L4L
sg638
g668
sVX
L8L
sg634
g635
sg642
g696
sg644
L0L
sg646
g687
stRp1777
ag1
(g1557
g1505
(dp1778
g629
g683
sVY
L2L
sg631
L3L
sg632
g684
sg640
L4L
sg637
L4L
sg638
g643
sVX
L3L
sg634
g657
sg642
g639
sg644
L0L
sg646
g687
stRp1779
ag1
(g1557
g1505
(dp1780
g629
g727
sVY
L2L
sg631
L3L
sg632
g728
sg640
L9L
sg637
L9L
sg638
g654
sVX
L2L
sg634
g668
sg642
g645
sg644
L0L
sg646
g731
stRp1781
ag1
(g1557
g1505
(dp1782
g629
g786
sVY
L2L
sg631
L3L
sg632
g787
sg640
L2L
sg637
L2L
sg638
g669
sVX
L9L
sg634
g643
sg642
g645
sg644
L0L
sg646
g731
stRp1783
ag1
(g1557
g1505
(dp1784
g629
g778
sVY
L4L
sg631
L3L
sg632
g779
sg640
L5L
sg637
L5L
sg638
g668
sVX
L8L
sg634
g696
sg642
g666
sg644
L0L
sg646
g714
stRp1785
ag1
(g1557
g1505
(dp1786
g629
g710
sVY
L6L
sg631
L3L
sg632
g711
sg640
L1L
sg637
L1L
sg638
g645
sVX
L8L
sg634
g669
sg642
g643
sg644
L0L
sg646
g714
stRp1787
ag1
(g1557
g1505
(dp1788
g629
g692
sVY
L3L
sg631
L4L
sg632
g693
sg640
L2L
sg637
L2L
sg638
g657
sVX
L6L
sg634
g645
sg642
g696
sg644
g643
sg646
g697
stRp1789
ag1
(g1557
g1505
(dp1790
g629
g761
sVY
L2L
sg631
L4L
sg632
g762
sg640
L8L
sg637
L8L
sg638
g645
sVX
L2L
sg634
g635
sg642
g639
sg644
g668
sg646
g697
stRp1791
ag1
(g1557
g1505
(dp1792
g629
g719
sVY
L3L
sg631
L4L
sg632
g720
sg640
L3L
sg637
L3L
sg638
g696
sVX
L4L
sg634
g668
sg642
g645
sg644
g635
sg646
g647
stRp1793
ag1
(g1557
g1505
(dp1794
g629
g630
sVY
L3L
sg631
L4L
sg632
g633
sg640
L4L
sg637
L4L
sg638
g639
sVX
L7L
sg634
g635
sg642
g643
sg644
g645
sg646
g647
stRp1795
ag1
(g1557
g1505
(dp1796
g629
g652
sVY
L4L
sg631
L4L
sg632
g653
sg640
L7L
sg637
L7L
sg638
g645
sVX
L8L
sg634
g654
sg642
g643
sg644
g657
sg646
g658
stRp1797
ag1
(g1557
g1505
(dp1798
g629
g702
sVY
L3L
sg631
L4L
sg632
g703
sg640
L6L
sg637
L6L
sg638
g657
sVX
L5L
sg634
g669
sg642
g668
sg644
g666
sg646
g658
stRp1799
ag1
(g1557
g1505
(dp1800
g629
g675
sVY
L2L
sg631
L4L
sg632
g676
sg640
L8L
sg637
L8L
sg638
g668
sVX
L4L
sg634
g635
sg642
g666
sg644
g654
sg646
g670
stRp1801
ag1
(g1557
g1505
(dp1802
g629
g663
sVY
L5L
sg631
L4L
sg632
g664
sg640
L3L
sg637
L3L
sg638
g666
sVX
L9L
sg634
g635
sg642
g668
sg644
g669
sg646
g670
stRp1803
asg1570
Nsg1571
I0
sg1572
I18
sg1573
I0
sg1574
I18
sbag1
(g1493
g3
NtRp1804
(dp1805
g1496
Nsg1497
(lp1806
sg1499
I327799760
sg10
g1578
sg6
g1501
sg1502
I1
sg24
I01
sg25
g26
sg1503
g1
(g1504
g1505
(dp1807
g22
g1522
(g1523
g1508
g1524
S'b'
tRp1808
(I1
(I18
I1
tg1526
I00
S'\x00\x00\x00\x00\x00\x00\x80?\x00\x00\x80?\x00\x00\x00\x00\x00\x00\x80?\x00\x00\x80?\x00\x00\x00\x00\x00\x00\x00\x00\x00\x00\x00\x00\x00\x00\x00\x00\x00\x00\x80?\x00\x00\x80?\x00\x00\x00\x00\x00\x00\x80?\x00\x00\x00\x00\x00\x00\x00\x00\x00\x00\x80?\x00\x00\x80?'
S'\x00\x00\x00\x00\x00\x00\x00\x00\x00\x00\x00\x00\x00\x00\x00\x00\x00\x00'
Ntbsg19
g1507
(g1508
(I0
tS'b'
tRp1809
(I1
(I18
I1
tg1511
I00
(lp1810
g945
ag877
ag937
ag868
ag902
ag969
ag827
ag809
ag953
ag920
ag894
ag848
ag886
ag836
ag929
ag911
ag859
ag961
atbsg23
g1522
(g1523
g1508
g1524
S'b'
tRp1811
(I1
(I18
I1
tg1526
I00
S'\xb1+\x80@\xd5Y\xd9?1\xb7<@\x12\xf3\xe9?\xf3\xd7\xb1@\xa2(S@\x83\xa8B@h\xf5\x11A,t\xd8@t\x05\x8f@y\xb7\x94@\x0c\xe1\xb3@RfPAti\xa2@\x82\x11\xa9@\x17c\xcf@\xda\x8bT@uH\x00A'
S'\x00\x00\x00\x00\x00\x00\x00\x00\x00\x00\x00\x00\x00\x00\x00\x00\x00\x00'
Ntbsg1521
g1522
(g1523
g1508
g1524
S'b'
tRp1812
(I1
(I18
I1
tg1526
I00
S'\x00\x00\x80?\x00\x00\x80?\x00\x00\x80?\x00\x00\x80?\x00\x00\x80?\x00\x00\x80?\x00\x00\x80?\x00\x00\x80?\x00\x00\x80?\x00\x00\x80?\x00\x00\x80?\x00\x00\x80?\x00\x00\x80?\x00\x00\x80?\x00\x00\x80?\x00\x00\x80?\x00\x00\x80?\x00\x00\x80?'
S'\x00\x00\x00\x00\x00\x00\x00\x00\x00\x00\x00\x00\x00\x00\x00\x00\x00\x00'
Ntbsg21
g1507
(g1508
(I0
tS'b'
tRp1813
(I1
(I18
I1
tg1511
I00
(lp1814
S'9'
aS'8'
aS'4'
aS'9'
aS'3'
aS'9'
aS'9'
aS'5'
aS'8'
aS'7'
aS'8'
aS'1'
aS'3'
aS'7'
aS'2'
aS'4'
aS'5'
aS'3'
atbsg1535
g1522
(g1523
g1508
g1524
S'b'
tRp1815
(I1
(I18
I1
tg1526
I00
S'\x00\x00`A\x00\x00\xc0@\x00\x00PA\x00\x00\xa0@\x00\x00\x10A\x00\x00\x88A\x00\x00\x80?\x00\x00\x00\x00\x00\x00pA\x00\x000A\x00\x00\x00A\x00\x00@@\x00\x00\xe0@\x00\x00\x00@\x00\x00@A\x00\x00 A\x00\x00\x80@\x00\x00\x80A'
S'\x00\x00\x00\x00\x00\x00\x00\x00\x00\x00\x00\x00\x00\x00\x00\x00\x00\x00'
Ntbsg20
g1522
(g1523
g1508
g1524
S'b'
tRp1816
(I1
(I18
I1
tg1526
I00
S'\xea\xb6\x93?\x0fw\x8f@\xb9\xf7\xe7?\x80\x99\xc9?\xb29}@?\xa2\xc0@\x7fC\xca@\x8e\xba\xf3?\x81\xc0\xd1?Ijb@\xf9\x1d\xbc@\x84t\xb7@\x9bo\xa3@x\xedE@\xe6\xb1\xab@`\x96\xa8@\x84\xaa9@\xf0V\xe3@'
S'\x00\x00\x00\x00\x00\x00\x00\x00\x00\x00\x00\x00\x00\x00\x00\x00\x00\x00'
NtbstRp1817
(dp1818
g1540
(dp1819
g1521
I01
sg21
I00
sg20
I01
sg22
I01
sg19
I00
sg23
I01
sg1535
I01
ssg1542
g1804
sg1543
(lp1820
g1521
ag1535
ag19
ag20
ag21
ag22
ag23
asg1545
(lp1821
I18
aI1
asbsg1547
g1548
sg1549
g1507
(g1508
(I0
tS'b'
tRp1822
(I1
(I18
I1
tg1511
I00
(lp1823
I7
aI6
aI13
aI11
aI16
aI3
aI1
aI12
aI10
aI4
aI15
aI9
aI14
aI2
aI0
aI8
aI17
aI5
atbsg1552
I01
sg1553
I1
sg1554
I-1
sg1555
(lp1824
g1
(g1557
g1505
(dp1825
g802
g943
sVY
L3L
sg804
L2L
sg805
g944
sg813
L1L
sg810
L1L
sg811
g816
sVX
L9L
sg807
L0L
sg815
g828
sg817
L0L
sg818
g879
stRp1826
ag1
(g1557
g1505
(dp1827
g802
g875
sVY
L2L
sg804
L2L
sg805
g876
sg813
L8L
sg810
L8L
sg811
g851
sVX
L2L
sg807
L0L
sg815
g812
sg817
L0L
sg818
g879
stRp1828
ag1
(g1557
g1505
(dp1829
g802
g935
sVY
L3L
sg804
L2L
sg805
g936
sg813
L4L
sg810
L4L
sg811
g850
sVX
L6L
sg807
L0L
sg815
g839
sg817
L0L
sg818
g870
stRp1830
ag1
(g1557
g1505
(dp1831
g802
g866
sVY
L2L
sg804
L2L
sg805
g867
sg813
L1L
sg810
L1L
sg811
g828
sVX
L6L
sg807
L0L
sg815
g816
sg817
L0L
sg818
g870
stRp1832
ag1
(g1557
g1505
(dp1833
g802
g900
sVY
L9L
sg804
L3L
sg805
g901
sg813
L3L
sg810
L3L
sg811
g840
sVX
L5L
sg807
g826
sg815
g850
sg817
L0L
sg818
g904
stRp1834
ag1
(g1557
g1505
(dp1835
g802
g967
sVY
L3L
sg804
L3L
sg805
g968
sg813
L9L
sg810
L9L
sg811
g808
sVX
L5L
sg807
g839
sg815
g812
sg817
L0L
sg818
g904
stRp1836
ag1
(g1557
g1505
(dp1837
g802
g824
sVY
L2L
sg804
L3L
sg805
g825
sg813
L1L
sg810
L1L
sg811
g828
sVX
L7L
sg807
g826
sg815
g816
sg817
L0L
sg818
g819
stRp1838
ag1
(g1557
g1505
(dp1839
g802
g803
sVY
L6L
sg804
L3L
sg805
g806
sg813
L6L
sg810
L6L
sg811
g812
sVX
L6L
sg807
g808
sg815
g816
sg817
L0L
sg818
g819
stRp1840
ag1
(g1557
g1505
(dp1841
g802
g951
sVY
L2L
sg804
L3L
sg805
g952
sg813
L6L
sg810
L6L
sg811
g826
sVX
L2L
sg807
g837
sg815
g851
sg817
L0L
sg818
g922
stRp1842
ag1
(g1557
g1505
(dp1843
g802
g918
sVY
L6L
sg804
L3L
sg805
g919
sg813
L8L
sg810
L8L
sg811
g816
sVX
L2L
sg807
g812
sg815
g851
sg817
L0L
sg818
g922
stRp1844
ag1
(g1557
g1505
(dp1845
g802
g892
sVY
L4L
sg804
L4L
sg805
g893
sg813
L8L
sg810
L8L
sg811
g851
sVX
L3L
sg807
g840
sg815
g850
sg817
g826
sg818
g852
stRp1846
ag1
(g1557
g1505
(dp1847
g802
g846
sVY
L8L
sg804
L4L
sg805
g847
sg813
L1L
sg810
L1L
sg811
g840
sVX
L2L
sg807
g826
sg815
g850
sg817
g851
sg818
g852
stRp1848
ag1
(g1557
g1505
(dp1849
g802
g884
sVY
L5L
sg804
L4L
sg805
g885
sg813
L6L
sg810
L6L
sg811
g828
sVX
L4L
sg807
g840
sg815
g851
sg817
g839
sg818
g841
stRp1850
ag1
(g1557
g1505
(dp1851
g802
g834
sVY
L3L
sg804
L4L
sg805
g835
sg813
L7L
sg810
L7L
sg811
g837
sVX
L2L
sg807
g808
sg815
g839
sg817
g840
sg818
g841
stRp1852
ag1
(g1557
g1505
(dp1853
g802
g927
sVY
L3L
sg804
L4L
sg805
g928
sg813
L5L
sg810
L5L
sg811
g840
sVX
L3L
sg807
g828
sg815
g826
sg817
g851
sg818
g913
stRp1854
ag1
(g1557
g1505
(dp1855
g802
g909
sVY
L4L
sg804
L4L
sg805
g910
sg813
L5L
sg810
L5L
sg811
g826
sVX
L8L
sg807
g812
sg815
g816
sg817
g808
sg818
g913
stRp1856
ag1
(g1557
g1505
(dp1857
g802
g857
sVY
L2L
sg804
L4L
sg805
g858
sg813
L5L
sg810
L5L
sg811
g840
sVX
L6L
sg807
g808
sg815
g826
sg817
g850
sg818
g861
stRp1858
ag1
(g1557
g1505
(dp1859
g802
g959
sVY
L2L
sg804
L4L
sg805
g960
sg813
L3L
sg810
L3L
sg811
g840
sVX
L3L
sg807
g839
sg815
g808
sg817
g850
sg818
g861
stRp1860
asg1570
Nsg1571
I5
sg1572
I18
sg1573
I0
sg1574
I18
sbag1
(g1493
g3
NtRp1861
(dp1862
g1496
Nsg1497
(lp1863
sg1499
I327799760
sg10
g1578
sg6
g1501
sg1502
I1
sg24
I01
sg25
g26
sg1503
g1
(g1504
g1505
(dp1864
g22
g1522
(g1523
g1508
g1524
S'b'
tRp1865
(I1
(I18
I1
tg1526
I00
S'\x00\x00\x80?\x00\x00\x00\x00\x00\x00\x80?\x00\x00\x00\x00\x00\x00\x00\x00\x00\x00\x80?\x00\x00\x80?\x00\x00\x00\x00\x00\x00\x00\x00\x00\x00\x80?\x00\x00\x00\x00\x00\x00\x00\x00\x00\x00\x00\x00\x00\x00\x80?\x00\x00\x80?\x00\x00\x80?\x00\x00\x00\x00\x00\x00\x80?'
S'\x00\x00\x00\x00\x00\x00\x00\x00\x00\x00\x00\x00\x00\x00\x00\x00\x00\x00'
Ntbsg19
g1507
(g1508
(I0
tS'b'
tRp1866
(I1
(I18
I1
tg1511
I00
(lp1867
g1086
ag1050
ag1110
ag981
ag1127
ag1118
ag1135
ag1069
ag1078
ag1041
ag1060
ag1143
ag1030
ag1021
ag1010
ag1102
ag999
ag1094
atbsg23
g1522
(g1523
g1508
g1524
S'b'
tRp1868
(I1
(I18
I1
tg1526
I00
S'[\xfbf@T\x8b\xf6?\x1e\xd6\xb0?\xffGM@\x1a\x93"A\x1b\xd1\x84@\x015x@O\xcfh@-\xfd\xcf@\t\x17\xbd?\xda\xfe\x1aA=\xf8\xa5@\xb3C\tA\xfa\x8c\x90@\x047\x98@\xacG\n@`:\xec@g\x11N@'
S'\x00\x00\x00\x00\x00\x00\x00\x00\x00\x00\x00\x00\x00\x00\x00\x00\x00\x00'
Ntbsg1521
g1522
(g1523
g1508
g1524
S'b'
tRp1869
(I1
(I18
I1
tg1526
I00
S'\x00\x00\x80?\x00\x00\x80?\x00\x00\x80?\x00\x00\x80?\x00\x00\x80?\x00\x00\x80?\x00\x00\x80?\x00\x00\x80?\x00\x00\x80?\x00\x00\x80?\x00\x00\x80?\x00\x00\x80?\x00\x00\x80?\x00\x00\x80?\x00\x00\x80?\x00\x00\x80?\x00\x00\x80?\x00\x00\x80?'
S'\x00\x00\x00\x00\x00\x00\x00\x00\x00\x00\x00\x00\x00\x00\x00\x00\x00\x00'
Ntbsg21
g1507
(g1508
(I0
tS'b'
tRp1870
(I1
(I18
I1
tg1511
I00
(lp1871
S'8'
aS'6'
aS'2'
aS'4'
aS'8'
aS'2'
aS'1'
aS'1'
aS'2'
aS'6'
aS'1'
aS'7'
aS'5'
aS'7'
aS'3'
aS'6'
aS'4'
aS'4'
atbsg1535
g1522
(g1523
g1508
g1524
S'b'
tRp1872
(I1
(I18
I1
tg1526
I00
S'\x00\x00 A\x00\x00\xc0@\x00\x00PA\x00\x00\x00\x00\x00\x00pA\x00\x00`A\x00\x00\x80A\x00\x00\x00A\x00\x00\x10A\x00\x00\xa0@\x00\x00\xe0@\x00\x00\x88A\x00\x00\x80@\x00\x00@@\x00\x00\x00@\x00\x00@A\x00\x00\x80?\x00\x000A'
S'\x00\x00\x00\x00\x00\x00\x00\x00\x00\x00\x00\x00\x00\x00\x00\x00\x00\x00'
Ntbsg20
g1522
(g1523
g1508
g1524
S'b'
tRp1873
(I1
(I18
I1
tg1526
I00
S'\xf9|1@\xf6\x11\x92?7J\xb9?\xef\xcf\xe4?\xe8Q\xaf?\xe8\x17\xf2?\xfb\xd1\x16@h\t\xbe@\xa0u\xb6?v.\xa7?L\xafs@@\xe9\x10@5J\x9a@\x16]\xf1@\xbf\xd2`A\x8d\xb9\\A\x00\xcasA\xfe\xebf@'
S'\x00\x00\x00\x00\x00\x00\x00\x00\x00\x00\x00\x00\x00\x00\x00\x00\x00\x00'
NtbstRp1874
(dp1875
g1540
(dp1876
g1521
I01
sg21
I00
sg20
I01
sg22
I01
sg19
I00
sg23
I01
sg1535
I01
ssg1542
g1861
sg1543
(lp1877
g1521
ag1535
ag19
ag20
ag21
ag22
ag23
asg1545
(lp1878
I18
aI1
asbsg1547
g1548
sg1549
g1507
(g1508
(I0
tS'b'
tRp1879
(I1
(I18
I1
tg1511
I00
(lp1880
I3
aI16
aI14
aI13
aI12
aI9
aI1
aI10
aI7
aI8
aI0
aI17
aI15
aI2
aI5
aI4
aI6
aI11
atbsg1552
I01
sg1553
I1
sg1554
I-1
sg1555
(lp1881
g1
(g1557
g1505
(dp1882
g975
g1084
sVY
L4L
sg977
L2L
sg978
g1085
sg985
L8L
sg982
L8L
sg983
g1020
sVX
L2L
sg980
L0L
sg987
g1031
sg989
L0L
sg990
g1052
stRp1883
ag1
(g1557
g1505
(dp1884
g975
g1048
sVY
L6L
sg977
L2L
sg978
g1049
sg985
L2L
sg982
L2L
sg983
g1020
sVX
L6L
sg980
L0L
sg987
g1002
sg989
L0L
sg990
g1052
stRp1885
ag1
(g1557
g1505
(dp1886
g975
g1108
sVY
L7L
sg977
L2L
sg978
g1109
sg985
L2L
sg982
L2L
sg983
g1040
sVX
L8L
sg980
L0L
sg987
g1020
sg989
L0L
sg990
g991
stRp1887
ag1
(g1557
g1505
(dp1888
g975
g976
sVY
L4L
sg977
L2L
sg978
g979
sg985
L8L
sg982
L8L
sg983
g984
sVX
L4L
sg980
L0L
sg987
g988
sg989
L0L
sg990
g991
stRp1889
ag1
(g1557
g1505
(dp1890
g975
g1125
sVY
L4L
sg977
L3L
sg978
g1126
sg985
L1L
sg982
L1L
sg983
g1020
sVX
L6L
sg980
g1011
sg987
g1002
sg989
L0L
sg990
g1120
stRp1891
ag1
(g1557
g1505
(dp1892
g975
g1116
sVY
L4L
sg977
L3L
sg978
g1117
sg985
L2L
sg982
L2L
sg983
g988
sVX
L4L
sg980
g998
sg987
g1040
sg989
L0L
sg990
g1120
stRp1893
ag1
(g1557
g1505
(dp1894
g975
g1133
sVY
L7L
sg977
L3L
sg978
g1134
sg985
L1L
sg982
L1L
sg983
g1040
sVX
L3L
sg980
g998
sg987
g988
sg989
L0L
sg990
g1071
stRp1895
ag1
(g1557
g1505
(dp1896
g975
g1067
sVY
L3L
sg977
L3L
sg978
g1068
sg985
L2L
sg982
L2L
sg983
g1002
sVX
L9L
sg980
g1011
sg987
g1059
sg989
L0L
sg990
g1071
stRp1897
ag1
(g1557
g1505
(dp1898
g975
g1076
sVY
L2L
sg977
L3L
sg978
g1077
sg985
L8L
sg982
L8L
sg983
g1001
sVX
L7L
sg980
g1040
sg987
g1020
sg989
L0L
sg990
g1043
stRp1899
ag1
(g1557
g1505
(dp1900
g975
g1038
sVY
L3L
sg977
L3L
sg978
g1039
sg985
L6L
sg982
L6L
sg983
g998
sVX
L4L
sg980
g1040
sg987
g1020
sg989
L0L
sg990
g1043
stRp1901
ag1
(g1557
g1505
(dp1902
g975
g1057
sVY
L6L
sg977
L4L
sg978
g1058
sg985
L7L
sg982
L7L
sg983
g1011
sVX
L4L
sg980
g1059
sg987
g1031
sg989
g988
sg990
g1062
stRp1903
ag1
(g1557
g1505
(dp1904
g975
g1141
sVY
L5L
sg977
L4L
sg978
g1142
sg985
L1L
sg982
L1L
sg983
g1059
sVX
L6L
sg980
g1020
sg987
g1002
sg989
g1011
sg990
g1062
stRp1905
ag1
(g1557
g1505
(dp1906
g975
g1028
sVY
L4L
sg977
L4L
sg978
g1029
sg985
L9L
sg982
L9L
sg983
g1031
sVX
L9L
sg980
g1020
sg987
g1033
sg989
g1011
sg990
g1023
stRp1907
ag1
(g1557
g1505
(dp1908
g975
g1018
sVY
L4L
sg977
L4L
sg978
g1019
sg985
L7L
sg982
L7L
sg983
g984
sVX
L3L
sg980
g1020
sg987
g1001
sg989
g1011
sg990
g1023
stRp1909
ag1
(g1557
g1505
(dp1910
g975
g1008
sVY
L6L
sg977
L4L
sg978
g1009
sg985
L3L
sg982
L3L
sg983
g1011
sVX
L4L
sg980
g984
sg987
g1001
sg989
g988
sg990
g1013
stRp1911
ag1
(g1557
g1505
(dp1912
g975
g1100
sVY
L8L
sg977
L4L
sg978
g1101
sg985
L6L
sg982
L6L
sg983
g998
sVX
L9L
sg980
g1002
sg987
g1020
sg989
g1001
sg990
g1013
stRp1913
ag1
(g1557
g1505
(dp1914
g975
g996
sVY
L2L
sg977
L4L
sg978
g997
sg985
L5L
sg982
L5L
sg983
g988
sVX
L8L
sg980
g998
sg987
g1001
sg989
g1002
sg990
g1003
stRp1915
ag1
(g1557
g1505
(dp1916
g975
g1092
sVY
L4L
sg977
L4L
sg978
g1093
sg985
L4L
sg982
L4L
sg983
g1001
sVX
L4L
sg980
g998
sg987
g1020
sg989
g1002
sg990
g1003
stRp1917
asg1570
Nsg1571
I11
sg1572
I18
sg1573
I0
sg1574
I18
sbag1
(g1493
g3
NtRp1918
(dp1919
g1496
Nsg1497
(lp1920
sg1499
I327799760
sg10
g1578
sg6
g1501
sg1502
I1
sg24
I01
sg25
g26
sg1503
g1
(g1504
g1505
(dp1921
g22
g1522
(g1523
g1508
g1524
S'b'
tRp1922
(I1
(I18
I1
tg1526
I00
S'\x00\x00\x80?\x00\x00\x80?\x00\x00\x80?\x00\x00\x80?\x00\x00\x00\x00\x00\x00\x80?\x00\x00\x00\x00\x00\x00\x80?\x00\x00\x00\x00\x00\x00\x00\x00\x00\x00\x00\x00\x00\x00\x80?\x00\x00\x00\x00\x00\x00\x00\x00\x00\x00\x80?\x00\x00\x80?\x00\x00\x00\x00\x00\x00\x80?'
S'\x00\x00\x00\x00\x00\x00\x00\x00\x00\x00\x00\x00\x00\x00\x00\x00\x00\x00'
Ntbsg19
g1507
(g1508
(I0
tS'b'
tRp1923
(I1
(I18
I1
tg1511
I00
(lp1924
g1281
ag1315
ag1298
ag1307
ag1204
ag1249
ag1194
ag1232
ag1240
ag1273
ag1185
ag1174
ag1257
ag1223
ag1156
ag1265
ag1213
ag1290
atbsg23
g1522
(g1523
g1508
g1524
S'b'
tRp1925
(I1
(I18
I1
tg1526
I00
S"C~7@P\xde\t@'\x88\xb5?\xba:\x07@\xefW\xf2@].\xf4?\xea\x19\x91@\n\xd6A@\x02\xf8P@\x11\xd1\x00AVP\x14A\x0b\xaf<@\x14\xb1\xd8@\xed\xa0ZA\x9b\x1f\x93@(^\x0bA\xf4\xfd\xb5@z\x80\xfa@"
S'\x00\x00\x00\x00\x00\x00\x00\x00\x00\x00\x00\x00\x00\x00\x00\x00\x00\x00'
Ntbsg1521
g1522
(g1523
g1508
g1524
S'b'
tRp1926
(I1
(I18
I1
tg1526
I00
S'\x00\x00\x80?\x00\x00\x80?\x00\x00\x80?\x00\x00\x80?\x00\x00\x80?\x00\x00\x80?\x00\x00\x80?\x00\x00\x80?\x00\x00\x80?\x00\x00\x80?\x00\x00\x80?\x00\x00\x80?\x00\x00\x80?\x00\x00\x80?\x00\x00\x80?\x00\x00\x80?\x00\x00\x80?\x00\x00\x80?'
S'\x00\x00\x00\x00\x00\x00\x00\x00\x00\x00\x00\x00\x00\x00\x00\x00\x00\x00'
Ntbsg21
g1507
(g1508
(I0
tS'b'
tRp1927
(I1
(I18
I1
tg1511
I00
(lp1928
S'7'
aS'2'
aS'8'
aS'6'
aS'1'
aS'8'
aS'1'
aS'5'
aS'5'
aS'1'
aS'5'
aS'8'
aS'1'
aS'5'
aS'5'
aS'8'
aS'2'
aS'1'
atbsg1535
g1522
(g1523
g1508
g1524
S'b'
tRp1929
(I1
(I18
I1
tg1526
I00
S'\x00\x00PA\x00\x00\x88A\x00\x00pA\x00\x00\x80A\x00\x00\x80@\x00\x00\x10A\x00\x00@@\x00\x00\xe0@\x00\x00\x00A\x00\x00@A\x00\x00\x00@\x00\x00\x80?\x00\x00 A\x00\x00\xc0@\x00\x00\x00\x00\x00\x000A\x00\x00\xa0@\x00\x00`A'
S'\x00\x00\x00\x00\x00\x00\x00\x00\x00\x00\x00\x00\x00\x00\x00\x00\x00\x00'
Ntbsg20
g1522
(g1523
g1508
g1524
S'b'
tRp1930
(I1
(I18
I1
tg1526
I00
S'#hB?\x84;\x7f?i$\xef@+\xe9\x90@e \xdf?dl\xa1@2t\x9d@q/\x81@\x1a\x11\xd4?\xe6@\xc3?#X\xc8@m\xaac@5\xbe5@~\x93-A\x93I%@q\x9a\x13@\x84\xdc\x18@\xe8v3@'
S'\x00\x00\x00\x00\x00\x00\x00\x00\x00\x00\x00\x00\x00\x00\x00\x00\x00\x00'
NtbstRp1931
(dp1932
g1540
(dp1933
g1521
I01
sg21
I00
sg20
I01
sg22
I01
sg19
I00
sg23
I01
sg1535
I01
ssg1542
g1918
sg1543
(lp1934
g1521
ag1535
ag19
ag20
ag21
ag22
ag23
asg1545
(lp1935
I18
aI1
asbsg1547
g1548
sg1549
g1507
(g1508
(I0
tS'b'
tRp1936
(I1
(I18
I1
tg1511
I00
(lp1937
I14
aI11
aI10
aI6
aI4
aI16
aI13
aI7
aI8
aI5
aI12
aI15
aI9
aI0
aI17
aI2
aI3
aI1
atbsg1552
I01
sg1553
I1
sg1554
I-1
sg1555
(lp1938
g1
(g1557
g1505
(dp1939
g1149
g1279
sVY
L5L
sg1151
L2L
sg1152
g1280
sg1160
L7L
sg1157
L7L
sg1158
g1163
sVX
L3L
sg1154
L0L
sg1162
g1177
sg1164
L0L
sg1166
g1283
stRp1940
ag1
(g1557
g1505
(dp1941
g1149
g1313
sVY
L4L
sg1151
L2L
sg1152
g1314
sg1160
L2L
sg1157
L2L
sg1158
g1163
sVX
L9L
sg1154
L0L
sg1162
g1317
sg1164
L0L
sg1166
g1283
stRp1942
ag1
(g1557
g1505
(dp1943
g1149
g1296
sVY
L3L
sg1151
L2L
sg1152
g1297
sg1160
L8L
sg1157
L8L
sg1158
g1155
sVX
L3L
sg1154
L0L
sg1162
g1163
sg1164
L0L
sg1166
g1300
stRp1944
ag1
(g1557
g1505
(dp1945
g1149
g1305
sVY
L8L
sg1151
L2L
sg1152
g1306
sg1160
L6L
sg1157
L6L
sg1158
g1177
sVX
L4L
sg1154
L0L
sg1162
g1214
sg1164
L0L
sg1166
g1300
stRp1946
ag1
(g1557
g1505
(dp1947
g1149
g1202
sVY
L5L
sg1151
L3L
sg1152
g1203
sg1160
L7L
sg1157
L7L
sg1158
g1159
sVX
L2L
sg1154
g1163
sg1162
g1177
sg1164
L0L
sg1166
g1206
stRp1948
ag1
(g1557
g1505
(dp1949
g1149
g1247
sVY
L2L
sg1151
L3L
sg1152
g1248
sg1160
L8L
sg1157
L8L
sg1158
g1175
sVX
L4L
sg1154
g1214
sg1162
g1177
sg1164
L0L
sg1166
g1206
stRp1950
ag1
(g1557
g1505
(dp1951
g1149
g1191
sVY
L3L
sg1151
L3L
sg1152
g1192
sg1160
L2L
sg1157
L2L
sg1158
g1195
sVX
L3L
sg1154
g1193
sg1162
g1159
sg1164
L0L
sg1166
g1197
stRp1952
ag1
(g1557
g1505
(dp1953
g1149
g1230
sVY
L3L
sg1151
L3L
sg1152
g1231
sg1160
L5L
sg1157
L5L
sg1158
g1177
sVX
L2L
sg1154
g1214
sg1162
g1193
sg1164
L0L
sg1166
g1197
stRp1954
ag1
(g1557
g1505
(dp1955
g1149
g1238
sVY
L4L
sg1151
L3L
sg1152
g1239
sg1160
L6L
sg1157
L6L
sg1158
g1165
sVX
L5L
sg1154
g1177
sg1162
g1159
sg1164
L0L
sg1166
g1242
stRp1956
ag1
(g1557
g1505
(dp1957
g1149
g1271
sVY
L3L
sg1151
L3L
sg1152
g1272
sg1160
L5L
sg1157
L5L
sg1158
g1193
sVX
L3L
sg1154
g1155
sg1162
g1214
sg1164
L0L
sg1166
g1242
stRp1958
ag1
(g1557
g1505
(dp1959
g1149
g1183
sVY
L4L
sg1151
L4L
sg1152
g1184
sg1160
L9L
sg1157
L9L
sg1158
g1163
sVX
L9L
sg1154
g1165
sg1162
g1177
sg1164
g1159
sg1166
g1178
stRp1960
ag1
(g1557
g1505
(dp1961
g1149
g1172
sVY
L2L
sg1151
L4L
sg1152
g1173
sg1160
L8L
sg1157
L8L
sg1158
g1175
sVX
L2L
sg1154
g1159
sg1162
g1177
sg1164
g1163
sg1166
g1178
stRp1962
ag1
(g1557
g1505
(dp1963
g1149
g1255
sVY
L6L
sg1151
L4L
sg1152
g1256
sg1160
L6L
sg1157
L6L
sg1158
g1177
sVX
L6L
sg1154
g1165
sg1162
g1163
sg1164
g1214
sg1166
g1225
stRp1964
ag1
(g1557
g1505
(dp1965
g1149
g1221
sVY
L2L
sg1151
L4L
sg1152
g1222
sg1160
L3L
sg1157
L3L
sg1158
g1195
sVX
L9L
sg1154
g1159
sg1162
g1163
sg1164
g1165
sg1166
g1225
stRp1966
ag1
(g1557
g1505
(dp1967
g1149
g1150
sVY
L3L
sg1151
L4L
sg1152
g1153
sg1160
L5L
sg1157
L5L
sg1158
g1159
sVX
L3L
sg1154
g1155
sg1162
g1163
sg1164
g1165
sg1166
g1167
stRp1968
ag1
(g1557
g1505
(dp1969
g1149
g1263
sVY
L3L
sg1151
L4L
sg1152
g1264
sg1160
L8L
sg1157
L8L
sg1158
g1175
sVX
L3L
sg1154
g1195
sg1162
g1163
sg1164
g1159
sg1166
g1167
stRp1970
ag1
(g1557
g1505
(dp1971
g1149
g1211
sVY
L4L
sg1151
L4L
sg1152
g1212
sg1160
L3L
sg1157
L3L
sg1158
g1214
sVX
L3L
sg1154
g1165
sg1162
g1193
sg1164
g1155
sg1166
g1216
stRp1972
ag1
(g1557
g1505
(dp1973
g1149
g1288
sVY
L2L
sg1151
L4L
sg1152
g1289
sg1160
L1L
sg1157
L1L
sg1158
g1214
sVX
L7L
sg1154
g1193
sg1162
g1165
sg1164
g1195
sg1166
g1216
stRp1974
asg1570
Nsg1571
I1
sg1572
I18
sg1573
I0
sg1574
I18
sbag1
(g1493
g3
NtRp1975
(dp1976
g1496
Nsg1497
(lp1977
sg1499
I327799760
sg10
g1578
sg6
g1501
sg1502
I1
sg24
I01
sg25
g26
sg1503
g1
(g1504
g1505
(dp1978
g22
g1522
(g1523
g1508
g1524
S'b'
tRp1979
(I1
(I18
I1
tg1526
I00
S'\x00\x00\x80?\x00\x00\x80?\x00\x00\x00\x00\x00\x00\x00\x00\x00\x00\x00\x00\x00\x00\x80?\x00\x00\x00\x00\x00\x00\x00\x00\x00\x00\x00\x00\x00\x00\x80?\x00\x00\x00\x00\x00\x00\x80?\x00\x00\x00\x00\x00\x00\x00\x00\x00\x00\x00\x00\x00\x00\x00\x00\x00\x00\x00\x00\x00\x00\x00\x00'
S'\x00\x00\x00\x00\x00\x00\x00\x00\x00\x00\x00\x00\x00\x00\x00\x00\x00\x00'
Ntbsg19
g1507
(g1508
(I0
tS'b'
tRp1980
(I1
(I18
I1
tg1511
I00
(lp1981
g1357
ag1367
ag1464
ag1430
ag1422
ag1394
ag1481
ag1472
ag1489
ag1439
ag1385
ag1376
ag1329
ag1347
ag1413
ag1448
ag1403
ag1456
atbsg23
g1522
(g1523
g1508
g1524
S'b'
tRp1982
(I1
(I18
I1
tg1526
I00
S'\xd5x\x8c@\\3\xac?\xcc:\x81@\x9d\xad7@\xc2\xbd=@B_\x89@m\x82\xba@Wv\x9f@\xa4*\xb7?\xc9\x8a9@\xd7\x10\x97>:\xedh@\xac9\x9d@\xf2\x02{>\xda\xef\x1f@\x05`\xd7?\x9b:\xee?\xd0\xc4r?'
S'\x00\x00\x00\x00\x00\x00\x00\x00\x00\x00\x00\x00\x00\x00\x00\x00\x00\x00'
Ntbsg1521
g1522
(g1523
g1508
g1524
S'b'
tRp1983
(I1
(I18
I1
tg1526
I00
S'\x00\x00\x80?\x00\x00\x80?\x00\x00\x80?\x00\x00\x80?\x00\x00\x80?\x00\x00\x80?\x00\x00\x80?\x00\x00\x80?\x00\x00\x80?\x00\x00\x80?\x00\x00\x80?\x00\x00\x80?\x00\x00\x80?\x00\x00\x80?\x00\x00\x80?\x00\x00\x80?\x00\x00\x80?\x00\x00\x80?'
S'\x00\x00\x00\x00\x00\x00\x00\x00\x00\x00\x00\x00\x00\x00\x00\x00\x00\x00'
Ntbsg21
g1507
(g1508
(I0
tS'b'
tRp1984
(I1
(I18
I1
tg1511
I00
(lp1985
S'4'
aS'6'
aS'2'
aS'8'
aS'2'
aS'5'
aS'2'
aS'4'
aS'5'
aS'3'
aS'4'
aS'9'
aS'7'
aS'6'
aS'1'
aS'3'
aS'8'
aS'3'
atbsg1535
g1522
(g1523
g1508
g1524
S'b'
tRp1986
(I1
(I18
I1
tg1526
I00
S'\x00\x00\x00@\x00\x00@@\x00\x00`A\x00\x00 A\x00\x00\x10A\x00\x00\xc0@\x00\x00\x80A\x00\x00pA\x00\x00\x88A\x00\x000A\x00\x00\xa0@\x00\x00\x80@\x00\x00\x00\x00\x00\x00\x80?\x00\x00\x00A\x00\x00@A\x00\x00\xe0@\x00\x00PA'
S'\x00\x00\x00\x00\x00\x00\x00\x00\x00\x00\x00\x00\x00\x00\x00\x00\x00\x00'
Ntbsg20
g1522
(g1523
g1508
g1524
S'b'
tRp1987
(I1
(I18
I1
tg1526
I00
S'#\x9cv?\x0e\xa0G@\xeb\xec,?\xc5R\xd5?\xab\xfd\xe2@\x10\xb4\xde>\xbb\x94\xbc?s\x88b@\x13\xa89@\x95l\xc9?A\xdem@\xa3\xacd@.eJ@\xda\x850A\xbb\xa6\x18@\x01\xfd\x8f@C}\x93@\xab\xd8\xdf?'
S'\x00\x00\x00\x00\x00\x00\x00\x00\x00\x00\x00\x00\x00\x00\x00\x00\x00\x00'
NtbstRp1988
(dp1989
g1540
(dp1990
g1521
I01
sg21
I00
sg20
I01
sg22
I01
sg19
I00
sg23
I01
sg1535
I01
ssg1542
g1975
sg1543
(lp1991
g1521
ag1535
ag19
ag20
ag21
ag22
ag23
asg1545
(lp1992
I18
aI1
asbsg1547
g1548
sg1549
g1507
(g1508
(I0
tS'b'
tRp1993
(I1
(I18
I1
tg1511
I00
(lp1994
I12
aI13
aI0
aI1
aI11
aI10
aI5
aI16
aI14
aI4
aI3
aI9
aI15
aI17
aI2
aI7
aI6
aI8
atbsg1552
I01
sg1553
I1
sg1554
I-1
sg1555
(lp1995
g1
(g1557
g1505
(dp1996
g1322
g1355
sVY
L2L
sg1324
L2L
sg1325
g1356
sg1333
L4L
sg1330
L4L
sg1331
g1350
sVX
L3L
sg1327
L0L
sg1335
g1359
sg1337
L0L
sg1339
g1360
stRp1997
ag1
(g1557
g1505
(dp1998
g1322
g1365
sVY
L2L
sg1324
L2L
sg1325
g1366
sg1333
L6L
sg1330
L6L
sg1331
g1336
sVX
L2L
sg1327
L0L
sg1335
g1359
sg1337
L0L
sg1339
g1360
stRp1999
ag1
(g1557
g1505
(dp2000
g1322
g1462
sVY
L5L
sg1324
L2L
sg1325
g1463
sg1333
L3L
sg1330
L3L
sg1331
g1412
sVX
L4L
sg1327
L0L
sg1335
g1375
sg1337
L0L
sg1339
g1432
stRp2001
ag1
(g1557
g1505
(dp2002
g1322
g1428
sVY
L2L
sg1324
L2L
sg1325
g1429
sg1333
L1L
sg1330
L1L
sg1331
g1348
sVX
L5L
sg1327
L0L
sg1335
g1375
sg1337
L0L
sg1339
g1432
stRp2003
ag1
(g1557
g1505
(dp2004
g1322
g1420
sVY
L3L
sg1324
L3L
sg1325
g1421
sg1333
L9L
sg1330
L9L
sg1331
g1350
sVX
L8L
sg1327
g1386
sg1335
g1359
sg1337
L0L
sg1339
g1396
stRp2005
ag1
(g1557
g1505
(dp2006
g1322
g1392
sVY
L5L
sg1324
L3L
sg1325
g1393
sg1333
L5L
sg1330
L5L
sg1331
g1375
sVX
L6L
sg1327
g1386
sg1335
g1359
sg1337
L0L
sg1339
g1396
stRp2007
ag1
(g1557
g1505
(dp2008
g1322
g1479
sVY
L7L
sg1324
L3L
sg1325
g1480
sg1333
L5L
sg1330
L5L
sg1331
g1412
sVX
L7L
sg1327
g1336
sg1335
g1375
sg1337
L0L
sg1339
g1474
stRp2009
ag1
(g1557
g1505
(dp2010
g1322
g1470
sVY
L5L
sg1324
L3L
sg1325
g1471
sg1333
L5L
sg1330
L5L
sg1331
g1359
sVX
L4L
sg1327
g1350
sg1335
g1375
sg1337
L0L
sg1339
g1474
stRp2011
ag1
(g1557
g1505
(dp2012
g1322
g1487
sVY
L5L
sg1324
L3L
sg1325
g1488
sg1333
L8L
sg1330
L8L
sg1331
g1350
sVX
L5L
sg1327
g1359
sg1335
g1375
sg1337
L0L
sg1339
g1441
stRp2013
ag1
(g1557
g1505
(dp2014
g1322
g1437
sVY
L2L
sg1324
L3L
sg1325
g1438
sg1333
L3L
sg1330
L3L
sg1331
g1386
sVX
L4L
sg1327
g1332
sg1335
g1328
sg1337
L0L
sg1339
g1441
stRp2015
ag1
(g1557
g1505
(dp2016
g1322
g1383
sVY
L5L
sg1324
L4L
sg1325
g1384
sg1333
L3L
sg1330
L3L
sg1331
g1386
sVX
L5L
sg1327
g1336
sg1335
g1348
sg1337
g1328
sg1339
g1378
stRp2017
ag1
(g1557
g1505
(dp2018
g1322
g1373
sVY
L3L
sg1324
L4L
sg1325
g1374
sg1333
L9L
sg1330
L9L
sg1331
g1336
sVX
L3L
sg1327
g1375
sg1335
g1359
sg1337
g1338
sg1339
g1378
stRp2019
ag1
(g1557
g1505
(dp2020
g1322
g1323
sVY
L6L
sg1324
L4L
sg1325
g1326
sg1333
L4L
sg1330
L4L
sg1331
g1332
sVX
L3L
sg1327
g1328
sg1335
g1336
sg1337
g1338
sg1339
g1340
stRp2021
ag1
(g1557
g1505
(dp2022
g1322
g1345
sVY
L3L
sg1324
L4L
sg1325
g1346
sg1333
L3L
sg1330
L3L
sg1331
g1348
sVX
L3L
sg1327
g1338
sg1335
g1328
sg1337
g1350
sg1339
g1340
stRp2023
ag1
(g1557
g1505
(dp2024
g1322
g1410
sVY
L2L
sg1324
L4L
sg1325
g1411
sg1333
L8L
sg1330
L8L
sg1331
g1338
sVX
L9L
sg1327
g1412
sg1335
g1375
sg1337
g1336
sg1339
g1415
stRp2025
ag1
(g1557
g1505
(dp2026
g1322
g1446
sVY
L3L
sg1324
L4L
sg1325
g1447
sg1333
L6L
sg1330
L6L
sg1331
g1386
sVX
L2L
sg1327
g1412
sg1335
g1328
sg1337
g1350
sg1339
g1415
stRp2027
ag1
(g1557
g1505
(dp2028
g1322
g1401
sVY
L2L
sg1324
L4L
sg1325
g1402
sg1333
L1L
sg1330
L1L
sg1331
g1336
sVX
L8L
sg1327
g1386
sg1335
g1375
sg1337
g1332
sg1339
g1405
stRp2029
ag1
(g1557
g1505
(dp2030
g1322
g1454
sVY
L2L
sg1324
L4L
sg1325
g1455
sg1333
L6L
sg1330
L6L
sg1331
g1350
sVX
L3L
sg1327
g1386
sg1335
g1328
sg1337
g1359
sg1339
g1405
stRp2031
asg1570
Nsg1571
I8
sg1572
I18
sg1573
I0
sg1574
I18
sbasS'savePickle'
p2032
I00
sb.