ccopy_reg
_reconstructor
p1
(cpsychopy.data
ExperimentHandler
p2
c__builtin__
object
p3
NtRp4
(dp5
S'originPath'
p6
NsS'dataFileName'
p7
VC:\u005cUsers\u005cexperimenter\u005cDesktop\u005cExperiments\u005cKRITL\u005cdata/31033_KRITL_2017_Apr_14_0929
p8
sS'runtimeInfo'
p9
NsS'name'
p10
S'KRITL'
p11
sS'dataNames'
p12
(lp13
S'practice_encoding.keys'
p14
aS'practice_encoding.rt'
p15
aS'practice_execution.keys'
p16
aS'practice_execution.corr'
p17
aS'practice_execution.rt'
p18
aS'encoding.keys'
p19
aS'encoding.rt'
p20
aS'execution.keys'
p21
aS'execution.corr'
p22
aS'execution.rt'
p23
asS'autoLog'
p24
I01
sS'extraInfo'
p25
(dp26
S'date'
p27
V2017_Apr_14_0929
p28
sS'frameRate'
p29
NsS'expName'
p30
g11
sVsession
p31
V001
p32
sVparticipant
p33
V31033
p34
ssS'loopsUnfinished'
p35
(lp36
sS'saveWideText'
p37
I00
sS'thisEntry'
p38
(dp39
sS'version'
p40
S''
sS'_paramNamesSoFar'
p41
(lp42
Voperationc
p43
aVoperationb
p44
aVoperationa
p45
aVcorrectresponse
p46
aVvaluey
p47
aVoperationd
p48
aVcondition
p49
aVvaluex
p50
aVRule
p51
aVOperatora
p52
aVLength
p53
aVIntermediate
p54
aVCorrectResponse
p55
aVResult
p56
aVY
aVX
aVOperatorc
p57
aVOperatorb
p58
aVOperatord
p59
aVStructure
p60
asS'entries'
p61
(lp62
(dp63
g31
g32
sg43
L0L
sg27
g28
sg16
Nsg29
Nsg14
(lp64
S'space'
p65
asg49
L2L
sg45
Vhalf
p66
sg17
I0
sS'practice_trials.thisN'
p67
I0
sg44
VADD
p68
sS'practice_trials.thisIndex'
p69
I2
sg30
g11
sg46
L7L
sS'practice_trials.thisTrialN'
p70
I0
sg48
L0L
sS'practice_trials.thisRepN'
p71
I0
sg33
g34
sg50
L4L
sg47
L5L
sg15
(lp72
F13.039806246233638
asa(dp73
g18
F18.306931971659651
sg29
Nsg17
I1
sg43
L0L
sg44
Vdecrease
p74
sg45
VTIMES
p75
sg31
g32
sg46
L8L
sS'practice_trials.thisTrialN'
p76
I1
sg48
L0L
sS'practice_trials.thisRepN'
p77
I0
sg33
g34
sg49
L2L
sg27
g28
sg16
S'8'
sg14
(lp78
S'space'
p79
asS'practice_trials.thisIndex'
p80
I1
sS'practice_trials.thisN'
p81
I1
sg30
g11
sg15
(lp82
F4.8155769445293117
asg47
L3L
sg50
L3L
sa(dp83
g18
F8.1769978802767582
sg29
Nsg17
I0
sg43
g68
sg44
Vtriple 
p84
sg45
g66
sg31
g32
sg46
L8L
sS'practice_trials.thisTrialN'
p85
I2
sg48
L0L
sS'practice_trials.thisRepN'
p86
I0
sg33
g34
sg49
L3L
sg27
g28
sg16
S'1'
sg14
(lp87
S'space'
p88
asS'practice_trials.thisIndex'
p89
I3
sS'practice_trials.thisN'
p90
I2
sg30
g11
sg15
(lp91
F4.8001145080779679
asg47
L2L
sg50
L4L
sa(dp92
g18
F7.7925094516540412
sg29
Nsg17
I0
sg43
Vincrease
p93
sg44
VDIVIDE
p94
sg45
Vdouble
p95
sg31
g32
sg46
L9L
sS'practice_trials.thisTrialN'
p96
I3
sg48
Vtriple
p97
sS'practice_trials.thisRepN'
p98
I0
sg33
g34
sg49
L4L
sg27
g28
sg16
S'4'
sg14
(lp99
S'space'
p100
asS'practice_trials.thisIndex'
p101
I5
sS'practice_trials.thisN'
p102
I3
sg30
g11
sg15
(lp103
F7.8339860735577531
asg47
L8L
sg50
L8L
sa(dp104
g18
F7.3953348468057811
sg29
Nsg17
I0
sg43
g93
sg44
g94
sg45
g97
sg31
g32
sg46
L3L
sS'practice_trials.thisTrialN'
p105
I4
sg48
L0L
sS'practice_trials.thisRepN'
p106
I0
sg33
g34
sg49
L3L
sg27
g28
sg16
S'7'
sg14
(lp107
S'space'
p108
asS'practice_trials.thisIndex'
p109
I4
sS'practice_trials.thisN'
p110
I4
sg30
g11
sg15
(lp111
F6.1856346290442161
asg47
L3L
sg50
L2L
sa(dp112
g18
F3.9758010751684196
sg29
Nsg17
I1
sg43
L0L
sg44
g68
sg45
g74
sg31
g32
sg46
L7L
sS'practice_trials.thisTrialN'
p113
I5
sg48
L0L
sS'practice_trials.thisRepN'
p114
I0
sg33
g34
sg49
L2L
sg27
g28
sg16
S'7'
sg14
(lp115
S'space'
p116
asS'practice_trials.thisIndex'
p117
I0
sS'practice_trials.thisN'
p118
I5
sg30
g11
sg15
(lp119
F1.5792263077455573
asg47
L5L
sg50
L3L
sa(dp120
S'block.thisTrialN'
p121
I0
sS'block.thisRepN'
p122
I0
sg29
NsS'block.thisN'
p123
I0
sg51
(S'HALF'
S'ADD'
S'TRIPLE'
S'x'
S'y'
tp124
sg27
g28
sg53
L3L
sg54
(I9
I12
I6
tp125
sg22
I0
sg20
F3.5792777523456607
sg23
F5.4933389700890984
sVY
L3L
sVX
L3L
sg57
Vtriple
p126
sg31
g32
sg33
g34
sg21
S'1'
sg19
S'space'
p127
sg30
g11
sg56
L6L
sg52
VADD
p128
sg55
L6L
sS'block.thisIndex'
p129
I6
sg58
Vhalf
p130
sg59
L0L
sg60
VUBUxy
p131
sa(dp132
S'block.thisTrialN'
p133
I1
sS'block.thisRepN'
p134
I0
sg29
NsS'block.thisN'
p135
I1
sg51
(S'ADD'
S'HALF'
S'THIRD'
S'x'
S'y'
tp136
sg27
g28
sg53
L3L
sg54
(I2
I1
I9
tp137
sg22
I1
sg20
F5.7630523254920263
sg23
F4.7404152876697481
sVY
L8L
sVX
L6L
sg57
Vthird
p138
sg31
g32
sg33
g34
sg21
S'9'
sg19
S'space'
p139
sg30
g11
sg56
L9L
sg52
g130
sg55
L9L
sS'block.thisIndex'
p140
I4
sg58
g128
sg59
L0L
sg60
VBUUxy
p141
sa(dp142
S'block.thisTrialN'
p143
I2
sS'block.thisRepN'
p144
I0
sg29
NsS'block.thisN'
p145
I2
sg51
(S'THIRD'
S'TIMES'
S'DOUBLE'
S'DECREASE'
S'x'
S'y'
tp146
sg27
g28
sg53
L4L
sg54
(I1
I2
I6
I2
tp147
sg22
I1
sg20
F5.9532931738649495
sg23
F6.5038280755397864
sVY
L3L
sVX
L2L
sg57
Vdouble
p148
sg31
g32
sg33
g34
sg21
S'2'
sg19
S'space'
p149
sg30
g11
sg56
L2L
sg52
VTIMES
p150
sg55
L2L
sS'block.thisIndex'
p151
I13
sg58
g138
sg59
Vdecrease
p152
sg60
VUBUUxy
p153
sa(dp154
S'block.thisTrialN'
p155
I3
sS'block.thisRepN'
p156
I0
sg29
NsS'block.thisN'
p157
I3
sg51
(S'INCREASE'
S'TRIPLE'
S'DIVIDE'
S'x'
S'y'
tp158
sg27
g28
sg53
L3L
sg54
(I2
I6
I7
tp159
sg22
I0
sg20
F2.2617611352179665
sg23
F5.4123406222497579
sVY
L3L
sVX
L6L
sg57
VDIVIDE
p160
sg31
g32
sg33
g34
sg21
S'3'
sg19
S'space'
p161
sg30
g11
sg56
L7L
sg52
g126
sg55
L7L
sS'block.thisIndex'
p162
I8
sg58
Vincrease
p163
sg59
L0L
sg60
VUUBxy
p164
sa(dp165
S'block.thisTrialN'
p166
I4
sS'block.thisRepN'
p167
I0
sg29
NsS'block.thisN'
p168
I4
sg51
(S'THIRD'
S'DOUBLE'
S'ADD'
S'DECREASE'
S'x'
S'y'
tp169
sg27
g28
sg53
L4L
sg54
(I5
I12
I24
I8
tp170
sg22
I1
sg20
F7.7618708487716503
sg23
F8.9650113510433584
sVY
L7L
sVX
L6L
sg57
g128
sg31
g32
sg33
g34
sg21
S'8'
sg19
S'space'
p171
sg30
g11
sg56
L8L
sg52
g148
sg55
L8L
sS'block.thisIndex'
p172
I14
sg58
g138
sg59
g152
sg60
VUUBUxy
p173
sa(dp174
S'block.thisTrialN'
p175
I5
sS'block.thisRepN'
p176
I0
sg29
NsS'block.thisN'
p177
I5
sg51
(S'THIRD'
S'HALF'
S'ADD'
S'x'
S'y'
tp178
sg27
g28
sg53
L3L
sg54
(I6
I3
I1
tp179
sg22
I1
sg20
F1.3616396629076917
sg23
F11.387117704289267
sVY
L3L
sVX
L3L
sg57
g128
sg31
g32
sg33
g34
sg21
S'1'
sg19
S'space'
p180
sg30
g11
sg56
L1L
sg52
g130
sg55
L1L
sS'block.thisIndex'
p181
I9
sg58
g138
sg59
L0L
sg60
g164
sa(dp182
S'block.thisTrialN'
p183
I6
sS'block.thisRepN'
p184
I0
sg29
NsS'block.thisN'
p185
I6
sg51
(S'DIVIDE'
S'DECREASE'
S'TRIPLE'
S'x'
S'y'
tp186
sg27
g28
sg53
L3L
sg54
(I9
I8
I4
tp187
sg22
I0
sg20
F1.6956402599462308
sg23
F12.437298617878696
sVY
L2L
sVX
L3L
sg57
g126
sg31
g32
sg33
g34
sg21
S'3'
sg19
S'space'
p188
sg30
g11
sg56
L4L
sg52
g152
sg55
L4L
sS'block.thisIndex'
p189
I5
sg58
g160
sg59
L0L
sg60
g141
sa(dp190
S'block.thisTrialN'
p191
I7
sS'block.thisRepN'
p192
I0
sg29
NsS'block.thisN'
p193
I7
sg51
(S'ADD'
S'DOUBLE'
S'DECREASE'
S'THIRD'
S'x'
S'y'
tp194
sg27
g28
sg53
L4L
sg54
(I2
I1
I2
I8
tp195
sg22
I1
sg20
F7.7315300648333505
sg23
F4.5800770689675119
sVY
L6L
sVX
L6L
sg57
g152
sg31
g32
sg33
g34
sg21
S'8'
sg19
S'space'
p196
sg30
g11
sg56
L8L
sg52
g148
sg55
L8L
sS'block.thisIndex'
p197
I10
sg58
g128
sg59
g138
sg60
VBUUUxy
p198
sa(dp199
S'block.thisTrialN'
p200
I8
sS'block.thisRepN'
p201
I0
sg29
NsS'block.thisN'
p202
I8
sg51
(S'SUBTRACT'
S'DECREASE'
S'TRIPLE'
S'DOUBLE'
S'x'
S'y'
tp203
sg27
g28
sg53
L4L
sg54
(I6
I18
I17
I8
tp204
sg22
I0
sg20
F5.3787476276629604
sg23
F18.244197168038227
sVY
L9L
sVX
L3L
sg57
g126
sg31
g32
sg33
g34
sg21
S'2'
sg19
S'space'
p205
sg30
g11
sg56
L8L
sg52
g152
sg55
L8L
sS'block.thisIndex'
p206
I11
sg58
VSUBTRACT
p207
sg59
g148
sg60
g198
sa(dp208
S'block.thisTrialN'
p209
I9
sS'block.thisRepN'
p210
I0
sg29
NsS'block.thisN'
p211
I9
sg51
(S'INCREASE'
S'SUBTRACT'
S'HALF'
S'x'
S'y'
tp212
sg27
g28
sg53
L3L
sg54
(I4
I2
I3
tp213
sg22
I0
sg20
F2.3101390369702131
sg23
F3.7297176039719488
sVY
L2L
sVX
L8L
sg57
g130
sg31
g32
sg33
g34
sg21
S'1'
sg19
S'space'
p214
sg30
g11
sg56
L3L
sg52
g207
sg55
L3L
sS'block.thisIndex'
p215
I7
sg58
g163
sg59
L0L
sg60
g131
sa(dp216
S'block.thisTrialN'
p217
I10
sS'block.thisRepN'
p218
I0
sg29
NsS'block.thisN'
p219
I10
sg51
(S'DOUBLE'
S'ADD'
S'INCREASE'
S'THIRD'
S'x'
S'y'
tp220
sg27
g28
sg53
L4L
sg54
(I1
I2
I4
I8
tp221
sg22
I1
sg20
F2.8532039681740571
sg23
F8.4668540837592445
sVY
L2L
sVX
L3L
sg57
g163
sg31
g32
sg33
g34
sg21
S'8'
sg19
S'space'
p222
sg30
g11
sg56
L8L
sg52
g128
sg55
L8L
sS'block.thisIndex'
p223
I12
sg58
g148
sg59
g138
sg60
g153
sa(dp224
S'block.thisTrialN'
p225
I11
sS'block.thisRepN'
p226
I0
sg29
NsS'block.thisN'
p227
I11
sg51
(S'DIVIDE'
S'INCREASE'
S'x'
S'y'
tp228
sg27
g28
sg53
L2L
sg54
(I4
I2
tp229
sg22
I1
sg20
F1.2980666967341676
sg23
F7.7813316180254333
sVY
L2L
sVX
L3L
sg57
L0L
sg31
g32
sg33
g34
sg21
S'2'
sg19
S'space'
p230
sg30
g11
sg56
L2L
sg52
g163
sg55
L2L
sS'block.thisIndex'
p231
I0
sg58
g160
sg59
L0L
sg60
VBUxy
p232
sa(dp233
S'block.thisTrialN'
p234
I12
sS'block.thisRepN'
p235
I0
sg29
NsS'block.thisN'
p236
I12
sg51
(S'HALF'
S'TRIPLE'
S'INCREASE'
S'DIVIDE'
S'x'
S'y'
tp237
sg27
g28
sg53
L4L
sg54
(I3
I4
I12
I6
tp238
sg22
I0
sg20
F6.9657679721130989
sg23
F14.453001829242567
sVY
L3L
sVX
L9L
sg57
g163
sg31
g32
sg33
g34
sg21
S'3'
sg19
S'space'
p239
sg30
g11
sg56
L6L
sg52
g126
sg55
L6L
sS'block.thisIndex'
p240
I16
sg58
g130
sg59
g160
sg60
VUUUBxy
p241
sa(dp242
S'block.thisTrialN'
p243
I13
sS'block.thisRepN'
p244
I0
sg29
NsS'block.thisN'
p245
I13
sg51
(S'THIRD'
S'DOUBLE'
S'INCREASE'
S'TIMES'
S'x'
S'y'
tp246
sg27
g28
sg53
L4L
sg54
(I8
I9
I18
I6
tp247
sg22
I1
sg20
F3.2213575013447553
sg23
F7.5907527049712371
sVY
L4L
sVX
L2L
sg57
g163
sg31
g32
sg33
g34
sg21
S'6'
sg19
S'space'
p248
sg30
g11
sg56
L6L
sg52
g148
sg55
L6L
sS'block.thisIndex'
p249
I17
sg58
g138
sg59
g150
sg60
g241
sa(dp250
S'block.thisTrialN'
p251
I14
sS'block.thisRepN'
p252
I0
sg29
NsS'block.thisN'
p253
I14
sg51
(S'THIRD'
S'INCREASE'
S'DIVIDE'
S'DOUBLE'
S'x'
S'y'
tp254
sg27
g28
sg53
L4L
sg54
(I18
I2
I3
I1
tp255
sg22
I1
sg20
F2.338301998184761
sg23
F5.7520872697059531
sVY
L9L
sVX
L9L
sg57
g160
sg31
g32
sg33
g34
sg21
S'1'
sg19
S'space'
p256
sg30
g11
sg56
L1L
sg52
g163
sg55
L1L
sS'block.thisIndex'
p257
I15
sg58
g138
sg59
g148
sg60
g173
sa(dp258
S'block.thisTrialN'
p259
I15
sS'block.thisRepN'
p260
I0
sg29
NsS'block.thisN'
p261
I15
sg51
(S'INCREASE'
S'ADD'
S'x'
S'y'
tp262
sg27
g28
sg53
L2L
sg54
(I5
I6
tp263
sg22
I1
sg20
F0.9773696115007624
sg23
F2.2139893701823894
sVY
L2L
sVX
L3L
sg57
L0L
sg31
g32
sg33
g34
sg21
S'6'
sg19
S'space'
p264
sg30
g11
sg56
L6L
sg52
g128
sg55
L6L
sS'block.thisIndex'
p265
I3
sg58
g163
sg59
L0L
sg60
VUBxy
p266
sa(dp267
S'block.thisTrialN'
p268
I16
sS'block.thisRepN'
p269
I0
sg29
NsS'block.thisN'
p270
I16
sg51
(S'SUBTRACT'
S'DECREASE'
S'x'
S'y'
tp271
sg27
g28
sg53
L2L
sg54
(I5
I3
tp272
sg22
I1
sg20
F1.5677335069922265
sg23
F1.8136871417518705
sVY
L2L
sVX
L6L
sg57
L0L
sg31
g32
sg33
g34
sg21
S'3'
sg19
S'space'
p273
sg30
g11
sg56
L3L
sg52
g152
sg55
L3L
sS'block.thisIndex'
p274
I1
sg58
g207
sg59
L0L
sg60
g232
sa(dp275
S'block.thisTrialN'
p276
I17
sS'block.thisRepN'
p277
I0
sg29
NsS'block.thisN'
p278
I17
sg51
(S'DECREASE'
S'DIVIDE'
S'x'
S'y'
tp279
sg27
g28
sg53
L2L
sg54
(I2
I1
tp280
sg22
I1
sg20
F1.0587210724479519
sg23
F2.6951027160394005
sVY
L4L
sVX
L8L
sg57
L0L
sg31
g32
sg33
g34
sg21
S'1'
sg19
S'space'
p281
sg30
g11
sg56
L1L
sg52
g160
sg55
L1L
sS'block.thisIndex'
p282
I2
sg58
g152
sg59
L0L
sg60
g266
sa(dp283
S'block.thisTrialN'
p284
I0
sS'block.thisRepN'
p285
I0
sg29
NsS'block.thisN'
p286
I0
sVRule
p287
(S'TRIPLE'
S'DECREASE'
S'HALF'
S'SUBTRACT'
S'x'
S'y'
tp288
sg27
g28
sVLength
p289
L4L
sVIntermediate
p290
(I4
I2
I1
I3
tp291
sg22
I1
sg20
F9.7073465383728035
sg23
F5.6533191761409398
sVY
L5L
sVX
L9L
sVOperatorc
p292
Vhalf
p293
sg31
g32
sg33
g34
sg21
S'3'
sg19
S'space'
p294
sg30
g11
sVResult
p295
L3L
sVOperatora
p296
Vdecrease
p297
sVCorrectResponse
p298
L3L
sS'block.thisIndex'
p299
I17
sVOperatorb
p300
Vtriple
p301
sVOperatord
p302
VSUBTRACT
p303
sVStructure
p304
VUUUBxy
p305
sa(dp306
S'block.thisTrialN'
p307
I1
sS'block.thisRepN'
p308
I0
sg29
NsS'block.thisN'
p309
I1
sg287
(S'THIRD'
S'INCREASE'
S'SUBTRACT'
S'x'
S'y'
tp310
sg27
g28
sg289
L3L
sg290
(I2
I3
I1
tp311
sg22
I1
sg20
F1.2993493129033595
sg23
F7.2354361822362989
sVY
L6L
sVX
L8L
sg292
g303
sg31
g32
sg33
g34
sg21
S'1'
sg19
S'space'
p312
sg30
g11
sg295
L1L
sg296
Vincrease
p313
sg298
L1L
sS'block.thisIndex'
p314
I9
sg300
Vthird
p315
sg302
L0L
sg304
VUUBxy
p316
sa(dp317
S'block.thisTrialN'
p318
I2
sS'block.thisRepN'
p319
I0
sg29
NsS'block.thisN'
p320
I2
sg287
(S'DOUBLE'
S'TIMES'
S'x'
S'y'
tp321
sg27
g28
sg289
L2L
sg290
(I4
I8
tp322
sg22
I1
sg20
F1.992920238757506
sg23
F3.9553775563545059
sVY
L2L
sVX
L2L
sg292
L0L
sg31
g32
sg33
g34
sg21
S'8'
sg19
S'space'
p323
sg30
g11
sg295
L8L
sg296
VTIMES
p324
sg298
L8L
sS'block.thisIndex'
p325
I3
sg300
Vdouble
p326
sg302
L0L
sg304
VUBxy
p327
sa(dp328
S'block.thisTrialN'
p329
I3
sS'block.thisRepN'
p330
I0
sg29
NsS'block.thisN'
p331
I3
sg287
(S'SUBTRACT'
S'INCREASE'
S'x'
S'y'
tp332
sg27
g28
sg289
L2L
sg290
(I6
I2
tp333
sg22
I1
sg20
F1.0273776431567967
sg23
F3.3502403024176601
sVY
L4L
sVX
L5L
sg292
L0L
sg31
g32
sg33
g34
sg21
S'2'
sg19
S'space'
p334
sg30
g11
sg295
L2L
sg296
g313
sg298
L2L
sS'block.thisIndex'
p335
I1
sg300
g303
sg302
L0L
sg304
VBUxy
p336
sa(dp337
S'block.thisTrialN'
p338
I4
sS'block.thisRepN'
p339
I0
sg29
NsS'block.thisN'
p340
I4
sg287
(S'THIRD'
S'TIMES'
S'HALF'
S'INCREASE'
S'x'
S'y'
tp341
sg27
g28
sg289
L4L
sg290
(I8
I4
I12
I4
tp342
sg22
I1
sg20
F2.5950922521296889
sg23
F9.4405448791221716
sVY
L3L
sVX
L7L
sg292
g293
sg31
g32
sg33
g34
sg21
S'4'
sg19
S'space'
p343
sg30
g11
sg295
L4L
sg296
g324
sg298
L4L
sS'block.thisIndex'
p344
I13
sg300
g315
sg302
g313
sg304
VUBUUxy
p345
sa(dp346
S'block.thisTrialN'
p347
I5
sS'block.thisRepN'
p348
I0
sg29
NsS'block.thisN'
p349
I5
sg287
(S'INCREASE'
S'SUBTRACT'
S'THIRD'
S'x'
S'y'
tp350
sg27
g28
sg289
L3L
sg290
(I3
I1
I2
tp351
sg22
I1
sg20
F2.3890617514261976
sg23
F5.3118328602577094
sVY
L2L
sVX
L9L
sg292
g315
sg31
g32
sg33
g34
sg21
S'2'
sg19
S'space'
p352
sg30
g11
sg295
L2L
sg296
g303
sg298
L2L
sS'block.thisIndex'
p353
I7
sg300
g313
sg302
L0L
sg304
VUBUxy
p354
sa(dp355
S'block.thisTrialN'
p356
I6
sS'block.thisRepN'
p357
I0
sg29
NsS'block.thisN'
p358
I6
sg287
(S'DOUBLE'
S'ADD'
S'x'
S'y'
tp359
sg27
g28
sg289
L2L
sg290
(I4
I8
tp360
sg22
I1
sg20
F0.97852554087876342
sg23
F1.4807196368928999
sVY
L2L
sVX
L2L
sg292
L0L
sg31
g32
sg33
g34
sg21
S'8'
sg19
S'space'
p361
sg30
g11
sg295
L8L
sg296
VADD
p362
sg298
L8L
sS'block.thisIndex'
p363
I2
sg300
g326
sg302
L0L
sg304
g327
sa(dp364
S'block.thisTrialN'
p365
I7
sS'block.thisRepN'
p366
I0
sg29
NsS'block.thisN'
p367
I7
sg287
(S'INCREASE'
S'ADD'
S'TRIPLE'
S'x'
S'y'
tp368
sg27
g28
sg289
L3L
sg290
(I6
I8
I9
tp369
sg22
I0
sg20
F1.6354475910484325
sg23
F4.2932011544471607
sVY
L2L
sVX
L2L
sg292
g301
sg31
g32
sg33
g34
sg21
S'1'
sg19
S'space'
p370
sg30
g11
sg295
L9L
sg296
g362
sg298
L9L
sS'block.thisIndex'
p371
I6
sg300
g313
sg302
L0L
sg304
g354
sa(dp372
S'block.thisTrialN'
p373
I8
sS'block.thisRepN'
p374
I0
sg29
NsS'block.thisN'
p375
I8
sg287
(S'ADD'
S'THIRD'
S'x'
S'y'
tp376
sg27
g28
sg289
L2L
sg290
(I1
I7
tp377
sg22
I1
sg20
F3.7205391117313411
sg23
F2.4341793933999725
sVY
L6L
sVX
L3L
sg292
L0L
sg31
g32
sg33
g34
sg21
S'7'
sg19
S'space'
p378
sg30
g11
sg295
L7L
sg296
g315
sg298
L7L
sS'block.thisIndex'
p379
I0
sg300
g362
sg302
L0L
sg304
g336
sa(dp380
S'block.thisTrialN'
p381
I9
sS'block.thisRepN'
p382
I0
sg29
NsS'block.thisN'
p383
I9
sg287
(S'DIVIDE'
S'TRIPLE'
S'HALF'
S'x'
S'y'
tp384
sg27
g28
sg289
L3L
sg290
(I4
I12
I4
tp385
sg22
I0
sg20
F4.3732409523217939
sg23
F15.538242784357863
sVY
L3L
sVX
L8L
sg292
g293
sg31
g32
sg33
g34
sg21
S'3'
sg19
S'space'
p386
sg30
g11
sg295
L4L
sg296
g301
sg298
L4L
sS'block.thisIndex'
p387
I4
sg300
VDIVIDE
p388
sg302
L0L
sg304
VBUUxy
p389
sa(dp390
S'block.thisTrialN'
p391
I10
sS'block.thisRepN'
p392
I0
sg29
NsS'block.thisN'
p393
I10
sg287
(S'DECREASE'
S'TRIPLE'
S'DIVIDE'
S'x'
S'y'
tp394
sg27
g28
sg289
L3L
sg290
(I2
I6
I5
tp395
sg22
I0
sg20
F1.2196538791176863
sg23
F4.9185687473509461
sVY
L4L
sVX
L8L
sg292
g388
sg31
g32
sg33
g34
sg21
S'7'
sg19
S'space'
p396
sg30
g11
sg295
L5L
sg296
g301
sg298
L5L
sS'block.thisIndex'
p397
I8
sg300
g297
sg302
L0L
sg304
g316
sa(dp398
S'block.thisTrialN'
p399
I11
sS'block.thisRepN'
p400
I0
sg29
NsS'block.thisN'
p401
I11
sg287
(S'TIMES'
S'THIRD'
S'DOUBLE'
S'x'
S'y'
tp402
sg27
g28
sg289
L3L
sg290
(I6
I2
I4
tp403
sg22
I0
sg20
F4.6336319805122912
sg23
F11.649027573963394
sVY
L2L
sVX
L3L
sg292
g326
sg31
g32
sg33
g34
sg21
S'3'
sg19
S'space'
p404
sg30
g11
sg295
L4L
sg296
g315
sg298
L4L
sS'block.thisIndex'
p405
I5
sg300
g324
sg302
L0L
sg304
g389
sa(dp406
S'block.thisTrialN'
p407
I12
sS'block.thisRepN'
p408
I0
sg29
NsS'block.thisN'
p409
I12
sg287
(S'DECREASE'
S'TRIPLE'
S'HALF'
S'ADD'
S'x'
S'y'
tp410
sg27
g28
sg289
L4L
sg290
(I6
I3
I9
I8
tp411
sg22
I0
sg20
F8.1341294535668567
sg23
F10.995167004322866
sVY
L2L
sVX
L4L
sg292
g293
sg31
g32
sg33
g34
sg21
S'2'
sg19
S'space'
p412
sg30
g11
sg295
L8L
sg296
g301
sg298
L8L
sS'block.thisIndex'
p413
I16
sg300
g297
sg302
g362
sg304
g305
sa(dp414
S'block.thisTrialN'
p415
I13
sS'block.thisRepN'
p416
I0
sg29
NsS'block.thisN'
p417
I13
sg287
(S'THIRD'
S'INCREASE'
S'ADD'
S'DOUBLE'
S'x'
S'y'
tp418
sg27
g28
sg289
L4L
sg290
(I16
I20
I21
I7
tp419
sg22
I1
sg20
F3.732494564173976
sg23
F7.0459138088917825
sVY
L4L
sVX
L8L
sg292
g362
sg31
g32
sg33
g34
sg21
S'7'
sg19
S'space'
p420
sg30
g11
sg295
L7L
sg296
g313
sg298
L7L
sS'block.thisIndex'
p421
I14
sg300
g315
sg302
g326
sg304
VUUBUxy
p422
sa(dp423
S'block.thisTrialN'
p424
I14
sS'block.thisRepN'
p425
I0
sg29
NsS'block.thisN'
p426
I14
sg287
(S'INCREASE'
S'DIVIDE'
S'TRIPLE'
S'HALF'
S'x'
S'y'
tp427
sg27
g28
sg289
L4L
sg290
(I2
I6
I2
I3
tp428
sg22
I0
sg20
F1.8897111086407676
sg23
F9.0306179550243542
sVY
L3L
sVX
L4L
sg292
g301
sg31
g32
sg33
g34
sg21
S'2'
sg19
S'space'
p429
sg30
g11
sg295
L3L
sg296
g388
sg298
L3L
sS'block.thisIndex'
p430
I12
sg300
g313
sg302
g293
sg304
g345
sa(dp431
S'block.thisTrialN'
p432
I15
sS'block.thisRepN'
p433
I0
sg29
NsS'block.thisN'
p434
I15
sg287
(S'DIVIDE'
S'DOUBLE'
S'INCREASE'
S'THIRD'
S'x'
S'y'
tp435
sg27
g28
sg289
L4L
sg290
(I2
I3
I6
I2
tp436
sg22
I1
sg20
F5.7335301061393693
sg23
F6.9001029242645018
sVY
L3L
sVX
L6L
sg292
g313
sg31
g32
sg33
g34
sg21
S'2'
sg19
S'space'
p437
sg30
g11
sg295
L2L
sg296
g326
sg298
L2L
sS'block.thisIndex'
p438
I10
sg300
g388
sg302
g315
sg304
VBUUUxy
p439
sa(dp440
S'block.thisTrialN'
p441
I16
sS'block.thisRepN'
p442
I0
sg29
NsS'block.thisN'
p443
I16
sg287
(S'TRIPLE'
S'DOUBLE'
S'SUBTRACT'
S'DECREASE'
S'x'
S'y'
tp444
sg27
g28
sg289
L4L
sg290
(I4
I1
I2
I6
tp445
sg22
I0
sg20
F7.7633557438384742
sg23
F11.809703157457989
sVY
L3L
sVX
L5L
sg292
g303
sg31
g32
sg33
g34
sg21
S'1'
sg19
S'space'
p446
sg30
g11
sg295
L6L
sg296
g326
sg298
L6L
sS'block.thisIndex'
p447
I15
sg300
g301
sg302
g297
sg304
g422
sa(dp448
S'block.thisTrialN'
p449
I17
sS'block.thisRepN'
p450
I0
sg29
NsS'block.thisN'
p451
I17
sg287
(S'TIMES'
S'INCREASE'
S'HALF'
S'TRIPLE'
S'x'
S'y'
tp452
sg27
g28
sg289
L4L
sg290
(I6
I3
I4
I8
tp453
sg22
I0
sg20
F2.2600715115258936
sg23
F7.1887097581347916
sVY
L2L
sVX
L2L
sg292
g293
sg31
g32
sg33
g34
sg21
S'1'
sg19
S'space'
p454
sg30
g11
sg295
L8L
sg296
g313
sg298
L8L
sS'block.thisIndex'
p455
I11
sg300
g324
sg302
g301
sg304
g439
sa(dp456
S'block.thisTrialN'
p457
I0
sS'block.thisRepN'
p458
I0
sg29
NsS'block.thisN'
p459
I0
sVRule
p460
(S'THIRD'
S'HALF'
S'INCREASE'
S'SUBTRACT'
S'x'
S'y'
tp461
sg27
g28
sVLength
p462
L4L
sVIntermediate
p463
(I5
I6
I3
I1
tp464
sg22
I1
sg20
F7.3914439528307412
sg23
F9.141396795224864
sVY
L2L
sVX
L7L
sVOperatorc
p465
Vincrease
p466
sg31
g32
sg33
g34
sg21
S'1'
sg19
S'space'
p467
sg30
g11
sVResult
p468
L1L
sVOperatora
p469
Vhalf
p470
sVCorrectResponse
p471
L1L
sS'block.thisIndex'
p472
I17
sVOperatorb
p473
Vthird
p474
sVOperatord
p475
VSUBTRACT
p476
sVStructure
p477
VUUUBxy
p478
sa(dp479
S'block.thisTrialN'
p480
I1
sS'block.thisRepN'
p481
I0
sg29
NsS'block.thisN'
p482
I1
sg460
(S'ADD'
S'TRIPLE'
S'HALF'
S'x'
S'y'
tp483
sg27
g28
sg462
L3L
sg463
(I2
I6
I8
tp484
sg22
I0
sg20
F4.3357084188028239
sg23
F7.876931492210133
sVY
L2L
sVX
L4L
sg465
g470
sg31
g32
sg33
g34
sg21
S'1'
sg19
S'space'
p485
sg30
g11
sg468
L8L
sg469
Vtriple
p486
sg471
L8L
sS'block.thisIndex'
p487
I5
sg473
VADD
p488
sg475
L0L
sg477
VBUUxy
p489
sa(dp490
S'block.thisTrialN'
p491
I2
sS'block.thisRepN'
p492
I0
sg29
NsS'block.thisN'
p493
I2
sg460
(S'ADD'
S'TRIPLE'
S'DOUBLE'
S'DECREASE'
S'x'
S'y'
tp494
sg27
g28
sg462
L4L
sg463
(I1
I2
I6
I8
tp495
sg22
I0
sg20
F7.2987680235528387
sg23
F4.3902456778741907
sVY
L2L
sVX
L2L
sg465
Vdouble
p496
sg31
g32
sg33
g34
sg21
S'3'
sg19
S'space'
p497
sg30
g11
sg468
L8L
sg469
g486
sg471
L8L
sS'block.thisIndex'
p498
I11
sg473
g488
sg475
Vdecrease
p499
sg477
VBUUUxy
p500
sa(dp501
S'block.thisTrialN'
p502
I3
sS'block.thisRepN'
p503
I0
sg29
NsS'block.thisN'
p504
I3
sg460
(S'DECREASE'
S'TIMES'
S'x'
S'y'
tp505
sg27
g28
sg462
L2L
sg463
(I9
I8
tp506
sg22
I1
sg20
F1.1100432169914711
sg23
F3.0596775226586033
sVY
L3L
sVX
L3L
sg465
L0L
sg31
g32
sg33
g34
sg21
S'8'
sg19
S'space'
p507
sg30
g11
sg468
L8L
sg469
VTIMES
p508
sg471
L8L
sS'block.thisIndex'
p509
I2
sg473
g499
sg475
L0L
sg477
VUBxy
p510
sa(dp511
S'block.thisTrialN'
p512
I4
sS'block.thisRepN'
p513
I0
sg29
NsS'block.thisN'
p514
I4
sg460
(S'DECREASE'
S'ADD'
S'THIRD'
S'HALF'
S'x'
S'y'
tp515
sg27
g28
sg462
L4L
sg463
(I3
I1
I7
I6
tp516
sg22
I1
sg20
F12.850086493475828
sg23
F8.5861149888951331
sVY
L6L
sVX
L6L
sg465
g474
sg31
g32
sg33
g34
sg21
S'6'
sg19
S'space'
p517
sg30
g11
sg468
L6L
sg469
g488
sg471
L6L
sS'block.thisIndex'
p518
I12
sg473
g499
sg475
g470
sg477
VUBUUxy
p519
sa(dp520
S'block.thisTrialN'
p521
I5
sS'block.thisRepN'
p522
I0
sg29
NsS'block.thisN'
p523
I5
sg460
(S'ADD'
S'DECREASE'
S'THIRD'
S'DOUBLE'
S'x'
S'y'
tp524
sg27
g28
sg462
L4L
sg463
(I18
I6
I5
I9
tp525
sg22
I1
sg20
F3.3950779736042023
sg23
F7.2016437084821519
sVY
L4L
sVX
L9L
sg465
g474
sg31
g32
sg33
g34
sg21
S'9'
sg19
S'space'
p526
sg30
g11
sg468
L9L
sg469
g499
sg471
L9L
sS'block.thisIndex'
p527
I10
sg473
g488
sg475
g496
sg477
g500
sa(dp528
S'block.thisTrialN'
p529
I6
sS'block.thisRepN'
p530
I0
sg29
NsS'block.thisN'
p531
I6
sg460
(S'INCREASE'
S'HALF'
S'THIRD'
S'TIMES'
S'x'
S'y'
tp532
sg27
g28
sg462
L4L
sg463
(I12
I4
I2
I3
tp533
sg22
I1
sg20
F6.884568045323249
sg23
F14.517674380680546
sVY
L4L
sVX
L3L
sg465
g474
sg31
g32
sg33
g34
sg21
S'3'
sg19
S'space'
p534
sg30
g11
sg468
L3L
sg469
g470
sg471
L3L
sS'block.thisIndex'
p535
I16
sg473
g466
sg475
g508
sg477
g478
sa(dp536
S'block.thisTrialN'
p537
I7
sS'block.thisRepN'
p538
I0
sg29
NsS'block.thisN'
p539
I7
sg460
(S'HALF'
S'INCREASE'
S'TIMES'
S'x'
S'y'
tp540
sg27
g28
sg462
L3L
sg463
(I9
I10
I5
tp541
sg22
I1
sg20
F4.2933852352434769
sg23
F4.2270528070221189
sVY
L3L
sVX
L3L
sg465
g508
sg31
g32
sg33
g34
sg21
S'5'
sg19
S'space'
p542
sg30
g11
sg468
L5L
sg469
g466
sg471
L5L
sS'block.thisIndex'
p543
I9
sg473
g470
sg475
L0L
sg477
VUUBxy
p544
sa(dp545
S'block.thisTrialN'
p546
I8
sS'block.thisRepN'
p547
I0
sg29
NsS'block.thisN'
p548
I8
sg460
(S'DECREASE'
S'TRIPLE'
S'SUBTRACT'
S'DOUBLE'
S'x'
S'y'
tp549
sg27
g28
sg462
L4L
sg463
(I6
I3
I9
I8
tp550
sg22
I0
sg20
F5.8308885467995424
sg23
F6.5190976821468212
sVY
L3L
sVX
L3L
sg465
g476
sg31
g32
sg33
g34
sg21
S'2'
sg19
S'space'
p551
sg30
g11
sg468
L8L
sg469
g486
sg471
L8L
sS'block.thisIndex'
p552
I15
sg473
g499
sg475
g496
sg477
VUUBUxy
p553
sa(dp554
S'block.thisTrialN'
p555
I9
sS'block.thisRepN'
p556
I0
sg29
NsS'block.thisN'
p557
I9
sg460
(S'DOUBLE'
S'THIRD'
S'ADD'
S'x'
S'y'
tp558
sg27
g28
sg462
L3L
sg463
(I9
I3
I6
tp559
sg22
I0
sVY
L4L
sVX
L5L
sg465
g488
sg31
g32
sg33
g34
sg21
Nsg19
Nsg30
g11
sg468
L6L
sg469
g474
sg471
L6L
sS'block.thisIndex'
p560
I8
sg473
g496
sg475
L0L
sg477
g544
sa(dp561
S'block.thisTrialN'
p562
I10
sS'block.thisRepN'
p563
I0
sg29
NsS'block.thisN'
p564
I10
sg460
(S'ADD'
S'DECREASE'
S'x'
S'y'
tp565
sg27
g28
sg462
L2L
sg463
(I2
I7
tp566
sg22
I1
sg20
F0.810393285471946
sg23
F2.566351501212921
sVY
L5L
sVX
L3L
sg465
L0L
sg31
g32
sg33
g34
sg21
S'7'
sg19
S'space'
p567
sg30
g11
sg468
L7L
sg469
g499
sg471
L7L
sS'block.thisIndex'
p568
I0
sg473
g488
sg475
L0L
sg477
VBUxy
p569
sa(dp570
S'block.thisTrialN'
p571
I11
sS'block.thisRepN'
p572
I0
sg29
NsS'block.thisN'
p573
I11
sg460
(S'ADD'
S'DOUBLE'
S'DECREASE'
S'x'
S'y'
tp574
sg27
g28
sg462
L3L
sg463
(I1
I2
I7
tp575
sg22
I0
sg20
F1.4135234988352749
sg23
F3.0088530262000859
sVY
L5L
sVX
L2L
sg465
g499
sg31
g32
sg33
g34
sg21
S'6'
sg19
S'space'
p576
sg30
g11
sg468
L7L
sg469
g496
sg471
L7L
sS'block.thisIndex'
p577
I4
sg473
g488
sg475
L0L
sg477
g489
sa(dp578
S'block.thisTrialN'
p579
I12
sS'block.thisRepN'
p580
I0
sg29
NsS'block.thisN'
p581
I12
sg460
(S'HALF'
S'ADD'
S'x'
S'y'
tp582
sg27
g28
sg462
L2L
sg463
(I12
I6
tp583
sg22
I1
sg20
F1.2371195065788925
sg23
F3.2341980114579201
sVY
L8L
sVX
L4L
sg465
L0L
sg31
g32
sg33
g34
sg21
S'6'
sg19
S'space'
p584
sg30
g11
sg468
L6L
sg469
g488
sg471
L6L
sS'block.thisIndex'
p585
I3
sg473
g470
sg475
L0L
sg477
g510
sa(dp586
S'block.thisTrialN'
p587
I13
sS'block.thisRepN'
p588
I0
sg29
NsS'block.thisN'
p589
I13
sg460
(S'DOUBLE'
S'SUBTRACT'
S'INCREASE'
S'x'
S'y'
tp590
sg27
g28
sg462
L3L
sg463
(I4
I1
I2
tp591
sg22
I0
sg20
F1.2332513602159452
sg23
F2.5990611879678909
sVY
L3L
sVX
L3L
sg465
g466
sg31
g32
sg33
g34
sg21
S'1'
sg19
S'space'
p592
sg30
g11
sg468
L2L
sg469
g476
sg471
L2L
sS'block.thisIndex'
p593
I6
sg473
g496
sg475
L0L
sg477
VUBUxy
p594
sa(dp595
S'block.thisTrialN'
p596
I14
sS'block.thisRepN'
p597
I0
sg29
NsS'block.thisN'
p598
I14
sg460
(S'DECREASE'
S'SUBTRACT'
S'DOUBLE'
S'THIRD'
S'x'
S'y'
tp599
sg27
g28
sg462
L4L
sg463
(I3
I6
I4
I3
tp600
sg22
I1
sg20
F5.3477821589331143
sg23
F6.7368705075641628
sVY
L2L
sVX
L9L
sg465
g496
sg31
g32
sg33
g34
sg21
S'3'
sg19
S'space'
p601
sg30
g11
sg468
L3L
sg469
g476
sg471
L3L
sS'block.thisIndex'
p602
I13
sg473
g499
sg475
g474
sg477
g519
sa(dp603
S'block.thisTrialN'
p604
I15
sS'block.thisRepN'
p605
I0
sg29
NsS'block.thisN'
p606
I15
sg460
(S'DIVIDE'
S'DECREASE'
S'x'
S'y'
tp607
sg27
g28
sg462
L2L
sg463
(I8
I2
tp608
sg22
I1
sg20
F1.3186053535318933
sg23
F3.3614086869929451
sVY
L4L
sVX
L9L
sg465
L0L
sg31
g32
sg33
g34
sg21
S'2'
sg19
S'space'
p609
sg30
g11
sg468
L2L
sg469
g499
sg471
L2L
sS'block.thisIndex'
p610
I1
sg473
VDIVIDE
p611
sg475
L0L
sg477
g569
sa(dp612
S'block.thisTrialN'
p613
I16
sS'block.thisRepN'
p614
I0
sg29
NsS'block.thisN'
p615
I16
sg460
(S'INCREASE'
S'ADD'
S'HALF'
S'x'
S'y'
tp616
sg27
g28
sg462
L3L
sg463
(I1
I4
I5
tp617
sg22
I1
sg20
F2.965536646253895
sg23
F4.1666144637856632
sVY
L3L
sVX
L2L
sg465
g470
sg31
g32
sg33
g34
sg21
S'5'
sg19
S'space'
p618
sg30
g11
sg468
L5L
sg469
g488
sg471
L5L
sS'block.thisIndex'
p619
I7
sg473
g466
sg475
L0L
sg477
g594
sa(dp620
S'block.thisTrialN'
p621
I17
sS'block.thisRepN'
p622
I0
sg29
NsS'block.thisN'
p623
I17
sg460
(S'DECREASE'
S'DOUBLE'
S'TIMES'
S'THIRD'
S'x'
S'y'
tp624
sg27
g28
sg462
L4L
sg463
(I1
I3
I6
I5
tp625
sg22
I1
sg20
F5.7024662976327818
sg23
F7.0748505393567029
sVY
L3L
sVX
L3L
sg465
g508
sg31
g32
sg33
g34
sg21
S'5'
sg19
S'space'
p626
sg30
g11
sg468
L5L
sg469
g496
sg471
L5L
sS'block.thisIndex'
p627
I14
sg473
g499
sg475
g474
sg477
g553
sa(dp628
S'block.thisTrialN'
p629
I0
sS'block.thisRepN'
p630
I0
sg29
NsS'block.thisN'
p631
I0
sVRule
p632
(S'TRIPLE'
S'HALF'
S'TIMES'
S'x'
S'y'
tp633
sg27
g28
sVLength
p634
L3L
sVIntermediate
p635
(I6
I3
I9
tp636
sg22
I0
sg20
F1.3315847991034389
sg23
F6.2423189140099566
sVY
L3L
sVX
L2L
sVOperatorc
p637
VTIMES
p638
sg31
g32
sg33
g34
sg21
S'2'
sg19
S'space'
p639
sg30
g11
sVResult
p640
L9L
sVOperatora
p641
Vhalf
p642
sVCorrectResponse
p643
L9L
sS'block.thisIndex'
p644
I9
sVOperatorb
p645
Vtriple
p646
sVOperatord
p647
L0L
sVStructure
p648
VUUBxy
p649
sa(dp650
S'block.thisTrialN'
p651
I1
sS'block.thisRepN'
p652
I0
sg29
NsS'block.thisN'
p653
I1
sg632
(S'TIMES'
S'DECREASE'
S'THIRD'
S'DOUBLE'
S'x'
S'y'
tp654
sg27
g28
sg634
L4L
sg635
(I6
I2
I1
I2
tp655
sg22
I1
sg20
F2.7251400816312525
sg23
F6.8718899182858877
sVY
L2L
sVX
L3L
sg637
Vthird
p656
sg31
g32
sg33
g34
sg21
S'2'
sg19
S'space'
p657
sg30
g11
sg640
L2L
sg641
Vdecrease
p658
sg643
L2L
sS'block.thisIndex'
p659
I11
sg645
g638
sg647
Vdouble
p660
sg648
VBUUUxy
p661
sa(dp662
S'block.thisTrialN'
p663
I2
sS'block.thisRepN'
p664
I0
sg29
NsS'block.thisN'
p665
I2
sg632
(S'THIRD'
S'INCREASE'
S'SUBTRACT'
S'HALF'
S'x'
S'y'
tp666
sg27
g28
sg634
L4L
sg635
(I4
I2
I3
I1
tp667
sg22
I1
sg20
F6.8983083115308546
sg23
F4.8527255681110546
sVY
L2L
sVX
L8L
sg637
VSUBTRACT
p668
sg31
g32
sg33
g34
sg21
S'1'
sg19
S'space'
p669
sg30
g11
sg640
L1L
sg641
Vincrease
p670
sg643
L1L
sS'block.thisIndex'
p671
I15
sg645
g656
sg647
g642
sg648
VUUBUxy
p672
sa(dp673
S'block.thisTrialN'
p674
I3
sS'block.thisRepN'
p675
I0
sg29
NsS'block.thisN'
p676
I3
sg632
(S'INCREASE'
S'HALF'
S'TIMES'
S'TRIPLE'
S'x'
S'y'
tp677
sg27
g28
sg634
L4L
sg635
(I6
I12
I6
I7
tp678
sg22
I1
sg20
F6.7421899524633773
sg23
F6.1113464809895959
sVY
L2L
sVX
L2L
sg637
g638
sg31
g32
sg33
g34
sg21
S'7'
sg19
S'space'
p679
sg30
g11
sg640
L7L
sg641
g642
sg643
L7L
sS'block.thisIndex'
p680
I14
sg645
g670
sg647
g646
sg648
g672
sa(dp681
S'block.thisTrialN'
p682
I4
sS'block.thisRepN'
p683
I0
sg29
NsS'block.thisN'
p684
I4
sg632
(S'DIVIDE'
S'DECREASE'
S'THIRD'
S'DOUBLE'
S'x'
S'y'
tp685
sg27
g28
sg634
L4L
sg635
(I12
I4
I3
I1
tp686
sg22
I1
sg20
F2.9837270480929874
sg23
F8.565111930569401
sVY
L3L
sVX
L6L
sg637
g656
sg31
g32
sg33
g34
sg21
S'1'
sg19
S'space'
p687
sg30
g11
sg640
L1L
sg641
g658
sg643
L1L
sS'block.thisIndex'
p688
I10
sg645
VDIVIDE
p689
sg647
g660
sg648
g661
sa(dp690
S'block.thisTrialN'
p691
I5
sS'block.thisRepN'
p692
I0
sg29
NsS'block.thisN'
p693
I5
sg632
(S'INCREASE'
S'TIMES'
S'x'
S'y'
tp694
sg27
g28
sg634
L2L
sg635
(I8
I9
tp695
sg22
I1
sg20
F0.8666296172013972
sg23
F1.7021044354187325
sVY
L4L
sVX
L2L
sg637
L0L
sg31
g32
sg33
g34
sg21
S'9'
sg19
S'space'
p696
sg30
g11
sg640
L9L
sg641
g638
sg643
L9L
sS'block.thisIndex'
p697
I2
sg645
g670
sg647
L0L
sg648
VUBxy
p698
sa(dp699
S'block.thisTrialN'
p700
I6
sS'block.thisRepN'
p701
I0
sg29
NsS'block.thisN'
p702
I6
sg632
(S'ADD'
S'DECREASE'
S'HALF'
S'x'
S'y'
tp703
sg27
g28
sg634
L3L
sg635
(I3
I2
I6
tp704
sg22
I1
sg20
F1.8952209336857777
sg23
F3.8592065417906269
sVY
L4L
sVX
L6L
sg637
g642
sg31
g32
sg33
g34
sg21
S'6'
sg19
S'space'
p705
sg30
g11
sg640
L6L
sg641
g658
sg643
L6L
sS'block.thisIndex'
p706
I4
sg645
VADD
p707
sg647
L0L
sg648
VBUUxy
p708
sa(dp709
S'block.thisTrialN'
p710
I7
sS'block.thisRepN'
p711
I0
sg29
NsS'block.thisN'
p712
I7
sg632
(S'DECREASE'
S'HALF'
S'TRIPLE'
S'ADD'
S'x'
S'y'
tp713
sg27
g28
sg634
L4L
sg635
(I4
I12
I6
I5
tp714
sg22
I0
sg20
F2.4831987782090437
sg23
F8.8992668614955619
sVY
L2L
sVX
L2L
sg637
g646
sg31
g32
sg33
g34
sg21
S'3'
sg19
S'space'
p715
sg30
g11
sg640
L5L
sg641
g642
sg643
L5L
sS'block.thisIndex'
p716
I16
sg645
g658
sg647
g707
sg648
VUUUBxy
p717
sa(dp718
S'block.thisTrialN'
p719
I8
sS'block.thisRepN'
p720
I0
sg29
NsS'block.thisN'
p721
I8
sg632
(S'TRIPLE'
S'SUBTRACT'
S'INCREASE'
S'HALF'
S'x'
S'y'
tp722
sg27
g28
sg634
L4L
sg635
(I3
I4
I1
I3
tp723
sg22
I0
sg20
F6.1027163815451786
sg23
F3.0876606026140507
sVY
L3L
sVX
L6L
sg637
g670
sg31
g32
sg33
g34
sg21
S'1'
sg19
S'space'
p724
sg30
g11
sg640
L3L
sg641
g668
sg643
L3L
sS'block.thisIndex'
p725
I13
sg645
g646
sg647
g642
sg648
VUBUUxy
p726
sa(dp727
S'block.thisTrialN'
p728
I9
sS'block.thisRepN'
p729
I0
sg29
NsS'block.thisN'
p730
I9
sg632
(S'TRIPLE'
S'SUBTRACT'
S'x'
S'y'
tp731
sg27
g28
sg634
L2L
sg635
(I2
I6
tp732
sg22
I1
sg20
F1.6225780339736957
sg23
F2.3855754151882138
sVY
L6L
sVX
L8L
sg637
L0L
sg31
g32
sg33
g34
sg21
S'6'
sg19
S'space'
p733
sg30
g11
sg640
L6L
sg641
g668
sg643
L6L
sS'block.thisIndex'
p734
I3
sg645
g646
sg647
L0L
sg648
g698
sa(dp735
S'block.thisTrialN'
p736
I10
sS'block.thisRepN'
p737
I0
sg29
NsS'block.thisN'
p738
I10
sg632
(S'DECREASE'
S'DIVIDE'
S'TRIPLE'
S'DOUBLE'
S'x'
S'y'
tp739
sg27
g28
sg634
L4L
sg635
(I6
I18
I2
I1
tp740
sg22
I0
sg20
F4.0843359495629556
sg23
F14.580775596055901
sVY
L9L
sVX
L3L
sg637
g646
sg31
g32
sg33
g34
sg21
S'2'
sg19
S'space'
p741
sg30
g11
sg640
L1L
sg641
g689
sg643
L1L
sS'block.thisIndex'
p742
I12
sg645
g658
sg647
g660
sg648
g726
sa(dp743
S'block.thisTrialN'
p744
I11
sS'block.thisRepN'
p745
I0
sg29
NsS'block.thisN'
p746
I11
sg632
(S'DECREASE'
S'HALF'
S'DIVIDE'
S'x'
S'y'
tp747
sg27
g28
sg634
L3L
sg635
(I4
I2
I1
tp748
sg22
I1
sg20
F2.0871636544761714
sg23
F2.7104930600617081
sVY
L2L
sVX
L8L
sg637
g689
sg31
g32
sg33
g34
sg21
S'1'
sg19
S'space'
p749
sg30
g11
sg640
L1L
sg641
g642
sg643
L1L
sS'block.thisIndex'
p750
I8
sg645
g658
sg647
L0L
sg648
g649
sa(dp751
S'block.thisTrialN'
p752
I12
sS'block.thisRepN'
p753
I0
sg29
NsS'block.thisN'
p754
I12
sg632
(S'SUBTRACT'
S'DOUBLE'
S'DECREASE'
S'x'
S'y'
tp755
sg27
g28
sg634
L3L
sg635
(I8
I16
I7
tp756
sg22
I0
sg20
F2.4219278718228452
sg23
F4.0685686948418152
sVY
L9L
sVX
L9L
sg637
g658
sg31
g32
sg33
g34
sg21
S'2'
sg19
S'space'
p757
sg30
g11
sg640
L7L
sg641
g660
sg643
L7L
sS'block.thisIndex'
p758
I5
sg645
g668
sg647
L0L
sg648
g708
sa(dp759
S'block.thisTrialN'
p760
I13
sS'block.thisRepN'
p761
I0
sg29
NsS'block.thisN'
p762
I13
sg632
(S'SUBTRACT'
S'THIRD'
S'x'
S'y'
tp763
sg27
g28
sg634
L2L
sg635
(I3
I1
tp764
sg22
I1
sg20
F0.82078790076775476
sg23
F1.9529439102916513
sVY
L2L
sVX
L9L
sg637
L0L
sg31
g32
sg33
g34
sg21
S'1'
sg19
S'space'
p765
sg30
g11
sg640
L1L
sg641
g656
sg643
L1L
sS'block.thisIndex'
p766
I0
sg645
g668
sg647
L0L
sg648
VBUxy
p767
sa(dp768
S'block.thisTrialN'
p769
I14
sS'block.thisRepN'
p770
I0
sg29
NsS'block.thisN'
p771
I14
sg632
(S'INCREASE'
S'TRIPLE'
S'HALF'
S'ADD'
S'x'
S'y'
tp772
sg27
g28
sg634
L4L
sg635
(I4
I2
I6
I7
tp773
sg22
I0
sg20
F1.6673327638127375
sg23
F4.3241697728808504
sVY
L2L
sVX
L2L
sg637
g642
sg31
g32
sg33
g34
sg21
S'9'
sg19
S'space'
p774
sg30
g11
sg640
L7L
sg641
g646
sg643
L7L
sS'block.thisIndex'
p775
I17
sg645
g670
sg647
g707
sg648
g717
sa(dp776
S'block.thisTrialN'
p777
I15
sS'block.thisRepN'
p778
I0
sg29
NsS'block.thisN'
p779
I15
sg632
(S'DOUBLE'
S'TIMES'
S'THIRD'
S'x'
S'y'
tp780
sg27
g28
sg634
L3L
sg635
(I1
I4
I8
tp781
sg22
I1
sg20
F1.4068416460650042
sg23
F3.6663021213607863
sVY
L4L
sVX
L3L
sg637
g656
sg31
g32
sg33
g34
sg21
S'8'
sg19
S'space'
p782
sg30
g11
sg640
L8L
sg641
g638
sg643
L8L
sS'block.thisIndex'
p783
I6
sg645
g660
sg647
L0L
sg648
VUBUxy
p784
sa(dp785
S'block.thisTrialN'
p786
I16
sS'block.thisRepN'
p787
I0
sg29
NsS'block.thisN'
p788
I16
sg632
(S'TIMES'
S'THIRD'
S'x'
S'y'
tp789
sg27
g28
sg634
L2L
sg635
(I1
I4
tp790
sg22
I1
sg20
F0.93268557428382337
sg23
F1.3490703745046631
sVY
L4L
sVX
L3L
sg637
L0L
sg31
g32
sg33
g34
sg21
S'4'
sg19
S'space'
p791
sg30
g11
sg640
L4L
sg641
g656
sg643
L4L
sS'block.thisIndex'
p792
I1
sg645
g638
sg647
L0L
sg648
g767
sa(dp793
S'block.thisTrialN'
p794
I17
sS'block.thisRepN'
p795
I0
sg29
NsS'block.thisN'
p796
I17
sg632
(S'INCREASE'
S'DIVIDE'
S'HALF'
S'x'
S'y'
tp797
sg27
g28
sg634
L3L
sg635
(I2
I1
I2
tp798
sg22
I1
sg20
F1.0732095605926588
sg23
F4.0645084185525775
sVY
L2L
sVX
L4L
sg637
g642
sg31
g32
sg33
g34
sg21
S'2'
sg19
S'space'
p799
sg30
g11
sg640
L2L
sg641
g689
sg643
L2L
sS'block.thisIndex'
p800
I7
sg645
g670
sg647
L0L
sg648
g784
sa(dp801
S'block.thisTrialN'
p802
I0
sS'block.thisRepN'
p803
I0
sg29
NsS'block.thisN'
p804
I0
sVRule
p805
(S'HALF'
S'TIMES'
S'DECREASE'
S'x'
S'y'
tp806
sg27
g28
sVLength
p807
L3L
sVIntermediate
p808
(I8
I16
I8
tp809
sg22
I1
sg20
F1.3528618788695894
sg23
F10.965393861144548
sVY
L2L
sVX
L9L
sVOperatorc
p810
Vdecrease
p811
sg31
g32
sg33
g34
sg21
S'8'
sg19
S'space'
p812
sg30
g11
sVResult
p813
L8L
sVOperatora
p814
VTIMES
p815
sVCorrectResponse
p816
L8L
sS'block.thisIndex'
p817
I6
sVOperatorb
p818
Vhalf
p819
sVOperatord
p820
L0L
sVStructure
p821
VUBUxy
p822
sa(dp823
S'block.thisTrialN'
p824
I1
sS'block.thisRepN'
p825
I0
sg29
NsS'block.thisN'
p826
I1
sg805
(S'TIMES'
S'HALF'
S'INCREASE'
S'THIRD'
S'x'
S'y'
tp827
sg27
g28
sg807
L4L
sg808
(I1
I2
I1
I9
tp828
sg22
I1
sg20
F2.053120606840821
sg23
F5.4246603866922669
sVY
L9L
sVX
L3L
sg810
Vincrease
p829
sg31
g32
sg33
g34
sg21
S'9'
sg19
S'space'
p830
sg30
g11
sg813
L9L
sg814
g819
sg816
L9L
sS'block.thisIndex'
p831
I11
sg818
g815
sg820
Vthird
p832
sg821
VBUUUxy
p833
sa(dp834
S'block.thisTrialN'
p835
I2
sS'block.thisRepN'
p836
I0
sg29
NsS'block.thisN'
p837
I2
sg805
(S'INCREASE'
S'DIVIDE'
S'TRIPLE'
S'x'
S'y'
tp838
sg27
g28
sg807
L3L
sg808
(I6
I2
I3
tp839
sg22
I1
sg20
F1.4288165530015249
sg23
F9.7039256453572307
sVY
L3L
sVX
L2L
sg810
Vtriple
p840
sg31
g32
sg33
g34
sg21
S'3'
sg19
S'space'
p841
sg30
g11
sg813
L3L
sg814
VDIVIDE
p842
sg816
L3L
sS'block.thisIndex'
p843
I7
sg818
g829
sg820
L0L
sg821
g822
sa(dp844
S'block.thisTrialN'
p845
I3
sS'block.thisRepN'
p846
I0
sg29
NsS'block.thisN'
p847
I3
sg805
(S'TRIPLE'
S'HALF'
S'ADD'
S'x'
S'y'
tp848
sg27
g28
sg807
L3L
sg808
(I6
I3
I9
tp849
sg22
I1
sg20
F2.3854102324403357
sg23
F5.5440717761230189
sVY
L3L
sVX
L3L
sg810
VADD
p850
sg31
g32
sg33
g34
sg21
S'9'
sg19
S'space'
p851
sg30
g11
sg813
L9L
sg814
g819
sg816
L9L
sS'block.thisIndex'
p852
I8
sg818
g840
sg820
L0L
sg821
VUUBxy
p853
sa(dp854
S'block.thisTrialN'
p855
I4
sS'block.thisRepN'
p856
I0
sg29
NsS'block.thisN'
p857
I4
sg805
(S'SUBTRACT'
S'INCREASE'
S'HALF'
S'x'
S'y'
tp858
sg27
g28
sg807
L3L
sg808
(I4
I5
I3
tp859
sg22
I0
sg20
F8.0507212572265416
sg23
F3.8433042012038641
sVY
L2L
sVX
L8L
sg810
g819
sg31
g32
sg33
g34
sg21
S'4'
sg19
S'space'
p860
sg30
g11
sg813
L3L
sg814
g829
sg816
L3L
sS'block.thisIndex'
p861
I5
sg818
VSUBTRACT
p862
sg820
L0L
sg821
VBUUxy
p863
sa(dp864
S'block.thisTrialN'
p865
I5
sS'block.thisRepN'
p866
I0
sg29
NsS'block.thisN'
p867
I5
sg805
(S'HALF'
S'SUBTRACT'
S'DECREASE'
S'TRIPLE'
S'x'
S'y'
tp868
sg27
g28
sg807
L4L
sg808
(I15
I14
I10
I5
tp869
sg22
I1
sg20
F3.8619838519953191
sg23
F9.5695284696994349
sVY
L4L
sVX
L5L
sg810
g811
sg31
g32
sg33
g34
sg21
S'5'
sg19
S'space'
p870
sg30
g11
sg813
L5L
sg814
g862
sg816
L5L
sS'block.thisIndex'
p871
I12
sg818
g819
sg820
g840
sg821
VUBUUxy
p872
sa(dp873
S'block.thisTrialN'
p874
I6
sS'block.thisRepN'
p875
I0
sg29
NsS'block.thisN'
p876
I6
sg805
(S'TRIPLE'
S'INCREASE'
S'SUBTRACT'
S'x'
S'y'
tp877
sg27
g28
sg807
L3L
sg808
(I1
I2
I6
tp878
sg22
I1
sg20
F3.399459516396746
sg23
F4.5959923581976909
sVY
L2L
sVX
L3L
sg810
g862
sg31
g32
sg33
g34
sg21
S'6'
sg19
S'space'
p879
sg30
g11
sg813
L6L
sg814
g829
sg816
L6L
sS'block.thisIndex'
p880
I9
sg818
g840
sg820
L0L
sg821
g853
sa(dp881
S'block.thisTrialN'
p882
I7
sS'block.thisRepN'
p883
I0
sg29
NsS'block.thisN'
p884
I7
sg805
(S'DOUBLE'
S'DIVIDE'
S'x'
S'y'
tp885
sg27
g28
sg807
L2L
sg808
(I1
I2
tp886
sg22
I1
sg20
F0.67423054404207505
sg23
F2.5952525353932288
sVY
L8L
sVX
L8L
sg810
L0L
sg31
g32
sg33
g34
sg21
S'2'
sg19
S'space'
p887
sg30
g11
sg813
L2L
sg814
g842
sg816
L2L
sS'block.thisIndex'
p888
I2
sg818
Vdouble
p889
sg820
L0L
sg821
VUBxy
p890
sa(dp891
S'block.thisTrialN'
p892
I8
sS'block.thisRepN'
p893
I0
sg29
NsS'block.thisN'
p894
I8
sg805
(S'INCREASE'
S'DIVIDE'
S'x'
S'y'
tp895
sg27
g28
sg807
L2L
sg808
(I4
I5
tp896
sg22
I1
sg20
F0.89886090386426076
sg23
F1.3980050681857392
sVY
L2L
sVX
L8L
sg810
L0L
sg31
g32
sg33
g34
sg21
S'5'
sg19
S'space'
p897
sg30
g11
sg813
L5L
sg814
g842
sg816
L5L
sS'block.thisIndex'
p898
I3
sg818
g829
sg820
L0L
sg821
g890
sa(dp899
S'block.thisTrialN'
p900
I9
sS'block.thisRepN'
p901
I0
sg29
NsS'block.thisN'
p902
I9
sg805
(S'DECREASE'
S'THIRD'
S'DOUBLE'
S'ADD'
S'x'
S'y'
tp903
sg27
g28
sg807
L4L
sg808
(I9
I18
I6
I5
tp904
sg22
I1
sg20
F3.636032030073693
sg23
F7.0587060240213759
sVY
L4L
sVX
L5L
sg810
g889
sg31
g32
sg33
g34
sg21
S'5'
sg19
S'space'
p905
sg30
g11
sg813
L5L
sg814
g832
sg816
L5L
sS'block.thisIndex'
p906
I16
sg818
g811
sg820
g850
sg821
VUUUBxy
p907
sa(dp908
S'block.thisTrialN'
p909
I10
sS'block.thisRepN'
p910
I0
sg29
NsS'block.thisN'
p911
I10
sg805
(S'TRIPLE'
S'DOUBLE'
S'SUBTRACT'
S'INCREASE'
S'x'
S'y'
tp912
sg27
g28
sg807
L4L
sg808
(I5
I1
I2
I6
tp913
sg22
I1
sg20
F7.858960167504847
sg23
F3.4299231375043746
sVY
L4L
sVX
L4L
sg810
g862
sg31
g32
sg33
g34
sg21
S'6'
sg19
S'space'
p914
sg30
g11
sg813
L6L
sg814
g889
sg816
L6L
sS'block.thisIndex'
p915
I14
sg818
g840
sg820
g829
sg821
VUUBUxy
p916
sa(dp917
S'block.thisTrialN'
p918
I11
sS'block.thisRepN'
p919
I0
sg29
NsS'block.thisN'
p920
I11
sg805
(S'ADD'
S'HALF'
S'x'
S'y'
tp921
sg27
g28
sg807
L2L
sg808
(I2
I7
tp922
sg22
I1
sg20
F1.2186592829239089
sg23
F2.4369220571825281
sVY
L5L
sVX
L4L
sg810
L0L
sg31
g32
sg33
g34
sg21
S'7'
sg19
S'space'
p923
sg30
g11
sg813
L7L
sg814
g819
sg816
L7L
sS'block.thisIndex'
p924
I0
sg818
g850
sg820
L0L
sg821
VBUxy
p925
sa(dp926
S'block.thisTrialN'
p927
I12
sS'block.thisRepN'
p928
I0
sg29
NsS'block.thisN'
p929
I12
sg805
(S'DIVIDE'
S'TRIPLE'
S'DECREASE'
S'x'
S'y'
tp930
sg27
g28
sg807
L3L
sg808
(I6
I18
I9
tp931
sg22
I1
sg20
F1.1254762565658893
sg23
F7.3508775859081652
sVY
L2L
sVX
L7L
sg810
g811
sg31
g32
sg33
g34
sg21
S'9'
sg19
S'space'
p932
sg30
g11
sg813
L9L
sg814
g840
sg816
L9L
sS'block.thisIndex'
p933
I4
sg818
g842
sg820
L0L
sg821
g863
sa(dp934
S'block.thisTrialN'
p935
I13
sS'block.thisRepN'
p936
I0
sg29
NsS'block.thisN'
p937
I13
sg805
(S'THIRD'
S'INCREASE'
S'HALF'
S'TIMES'
S'x'
S'y'
tp938
sg27
g28
sg807
L4L
sg808
(I28
I14
I15
I5
tp939
sg22
I1
sg20
F5.2178757146757562
sg23
F8.7102669836312998
sVY
L4L
sVX
L7L
sg810
g819
sg31
g32
sg33
g34
sg21
S'5'
sg19
S'space'
p940
sg30
g11
sg813
L5L
sg814
g829
sg816
L5L
sS'block.thisIndex'
p941
I17
sg818
g832
sg820
g815
sg821
g907
sa(dp942
S'block.thisTrialN'
p943
I14
sS'block.thisRepN'
p944
I0
sg29
NsS'block.thisN'
p945
I14
sg805
(S'SUBTRACT'
S'TRIPLE'
S'x'
S'y'
tp946
sg27
g28
sg807
L2L
sg808
(I12
I9
tp947
sg22
I1
sg20
F0.96420223548193462
sg23
F2.22883447111235
sVY
L3L
sVX
L4L
sg810
L0L
sg31
g32
sg33
g34
sg21
S'9'
sg19
S'space'
p948
sg30
g11
sg813
L9L
sg814
g840
sg816
L9L
sS'block.thisIndex'
p949
I1
sg818
g862
sg820
L0L
sg821
g925
sa(dp950
S'block.thisTrialN'
p951
I15
sS'block.thisRepN'
p952
I0
sg29
NsS'block.thisN'
p953
I15
sg805
(S'TRIPLE'
S'INCREASE'
S'DIVIDE'
S'DOUBLE'
S'x'
S'y'
tp954
sg27
g28
sg807
L4L
sg808
(I16
I2
I3
I9
tp955
sg22
I1
sg20
F1.9718849837954622
sg23
F8.5980763907136861
sVY
L8L
sVX
L8L
sg810
g842
sg31
g32
sg33
g34
sg21
S'9'
sg19
S'space'
p956
sg30
g11
sg813
L9L
sg814
g829
sg816
L9L
sS'block.thisIndex'
p957
I15
sg818
g840
sg820
g889
sg821
g916
sa(dp958
S'block.thisTrialN'
p959
I16
sS'block.thisRepN'
p960
I0
sg29
NsS'block.thisN'
p961
I16
sg805
(S'INCREASE'
S'TIMES'
S'TRIPLE'
S'HALF'
S'x'
S'y'
tp962
sg27
g28
sg807
L4L
sg808
(I1
I3
I6
I7
tp963
sg22
I1
sg20
F1.5048947642208077
sg23
F8.0991436043696012
sVY
L2L
sVX
L2L
sg810
g840
sg31
g32
sg33
g34
sg21
S'7'
sg19
S'space'
p964
sg30
g11
sg813
L7L
sg814
g815
sg816
L7L
sS'block.thisIndex'
p965
I13
sg818
g829
sg820
g819
sg821
g872
sa(dp966
S'block.thisTrialN'
p967
I17
sS'block.thisRepN'
p968
I0
sg29
NsS'block.thisN'
p969
I17
sg805
(S'DIVIDE'
S'DOUBLE'
S'INCREASE'
S'TRIPLE'
S'x'
S'y'
tp970
sg27
g28
sg807
L4L
sg808
(I9
I10
I20
I5
tp971
sg22
I1
sg20
F10.66247667054995
sg23
F6.6165978579956573
sVY
L4L
sVX
L3L
sg810
g829
sg31
g32
sg33
g34
sg21
S'5'
sg19
S'space'
p972
sg30
g11
sg813
L5L
sg814
g889
sg816
L5L
sS'block.thisIndex'
p973
I10
sg818
g842
sg820
g840
sg821
g833
sa(dp974
S'block.thisTrialN'
p975
I0
sS'block.thisRepN'
p976
I0
sg29
NsS'block.thisN'
p977
I0
sVRule
p978
(S'INCREASE'
S'DIVIDE'
S'THIRD'
S'x'
S'y'
tp979
sg27
g28
sVLength
p980
L3L
sVIntermediate
p981
(I3
I1
I2
tp982
sg22
I1
sg20
F7.6470691783179063
sg23
F5.3817982593318447
sVY
L3L
sVX
L9L
sVOperatorc
p983
Vthird
p984
sg31
g32
sg33
g34
sg21
S'2'
sg19
S'space'
p985
sg30
g11
sVResult
p986
L2L
sVOperatora
p987
VDIVIDE
p988
sVCorrectResponse
p989
L2L
sS'block.thisIndex'
p990
I7
sVOperatorb
p991
Vincrease
p992
sVOperatord
p993
L0L
sVStructure
p994
VUBUxy
p995
sa(dp996
S'block.thisTrialN'
p997
I1
sS'block.thisRepN'
p998
I0
sg29
NsS'block.thisN'
p999
I1
sg978
(S'DOUBLE'
S'DECREASE'
S'TRIPLE'
S'DIVIDE'
S'x'
S'y'
tp1000
sg27
g28
sg980
L4L
sg981
(I1
I3
I2
I4
tp1001
sg22
I1
sg20
F13.647702962218318
sg23
F7.2504811122780666
sVY
L4L
sVX
L4L
sg983
Vtriple
p1002
sg31
g32
sg33
g34
sg21
S'4'
sg19
S'space'
p1003
sg30
g11
sg986
L4L
sg987
Vdecrease
p1004
sg989
L4L
sS'block.thisIndex'
p1005
I17
sg991
Vdouble
p1006
sg993
g988
sg994
VUUUBxy
p1007
sa(dp1008
S'block.thisTrialN'
p1009
I2
sS'block.thisRepN'
p1010
I0
sg29
NsS'block.thisN'
p1011
I2
sg978
(S'DIVIDE'
S'DOUBLE'
S'THIRD'
S'x'
S'y'
tp1012
sg27
g28
sg980
L3L
sg981
(I2
I4
I1
tp1013
sg22
I1
sg20
F1.414752570562996
sg23
F3.2049438641115557
sVY
L4L
sVX
L6L
sg983
g984
sg31
g32
sg33
g34
sg21
S'1'
sg19
S'space'
p1014
sg30
g11
sg986
L1L
sg987
g1006
sg989
L1L
sS'block.thisIndex'
p1015
I4
sg991
g988
sg993
L0L
sg994
VBUUxy
p1016
sa(dp1017
S'block.thisTrialN'
p1018
I3
sS'block.thisRepN'
p1019
I0
sg29
NsS'block.thisN'
p1020
I3
sg978
(S'ADD'
S'THIRD'
S'INCREASE'
S'HALF'
S'x'
S'y'
tp1021
sg27
g28
sg980
L4L
sg981
(I2
I3
I1
I7
tp1022
sg22
I0
sg20
F4.8015007133944891
sg23
F4.1990536287485156
sVY
L6L
sVX
L4L
sg983
g992
sg31
g32
sg33
g34
sg21
S'9'
sg19
S'space'
p1023
sg30
g11
sg986
L7L
sg987
g984
sg989
L7L
sS'block.thisIndex'
p1024
I10
sg991
VADD
p1025
sg993
Vhalf
p1026
sg994
VBUUUxy
p1027
sa(dp1028
S'block.thisTrialN'
p1029
I4
sS'block.thisRepN'
p1030
I0
sg29
NsS'block.thisN'
p1031
I4
sg978
(S'DECREASE'
S'TIMES'
S'DOUBLE'
S'THIRD'
S'x'
S'y'
tp1032
sg27
g28
sg980
L4L
sg981
(I1
I2
I8
I7
tp1033
sg22
I1
sg20
F1.3156152655428741
sg23
F7.0464104070561007
sVY
L4L
sVX
L3L
sg983
g1006
sg31
g32
sg33
g34
sg21
S'7'
sg19
S'space'
p1034
sg30
g11
sg986
L7L
sg987
VTIMES
p1035
sg989
L7L
sS'block.thisIndex'
p1036
I13
sg991
g1004
sg993
g984
sg994
VUBUUxy
p1037
sa(dp1038
S'block.thisTrialN'
p1039
I5
sS'block.thisRepN'
p1040
I0
sg29
NsS'block.thisN'
p1041
I5
sg978
(S'DECREASE'
S'HALF'
S'TRIPLE'
S'DIVIDE'
S'x'
S'y'
tp1042
sg27
g28
sg980
L4L
sg981
(I4
I12
I6
I5
tp1043
sg22
I1
sg20
F2.8962169297738001
sg23
F9.4301107179489918
sVY
L2L
sVX
L8L
sg983
g1002
sg31
g32
sg33
g34
sg21
S'5'
sg19
S'space'
p1044
sg30
g11
sg986
L5L
sg987
g1026
sg989
L5L
sS'block.thisIndex'
p1045
I16
sg991
g1004
sg993
g988
sg994
g1007
sa(dp1046
S'block.thisTrialN'
p1047
I6
sS'block.thisRepN'
p1048
I0
sg29
NsS'block.thisN'
p1049
I6
sg978
(S'DOUBLE'
S'TRIPLE'
S'DIVIDE'
S'DECREASE'
S'x'
S'y'
tp1050
sg27
g28
sg980
L4L
sg981
(I8
I1
I3
I6
tp1051
sg22
I1
sg20
F5.9434564003313426
sg23
F6.9758962652122136
sVY
L8L
sVX
L9L
sg983
g988
sg31
g32
sg33
g34
sg21
S'6'
sg19
S'space'
p1052
sg30
g11
sg986
L6L
sg987
g1002
sg989
L6L
sS'block.thisIndex'
p1053
I15
sg991
g1006
sg993
g1004
sg994
VUUBUxy
p1054
sa(dp1055
S'block.thisTrialN'
p1056
I7
sS'block.thisRepN'
p1057
I0
sg29
NsS'block.thisN'
p1058
I7
sg978
(S'DOUBLE'
S'SUBTRACT'
S'x'
S'y'
tp1059
sg27
g28
sg980
L2L
sg981
(I1
I2
tp1060
sg22
I1
sg20
F0.91722943709464744
sg23
F1.3487214609340299
sVY
L7L
sVX
L8L
sg983
L0L
sg31
g32
sg33
g34
sg21
S'2'
sg19
S'space'
p1061
sg30
g11
sg986
L2L
sg987
VSUBTRACT
p1062
sg989
L2L
sS'block.thisIndex'
p1063
I2
sg991
g1006
sg993
L0L
sg994
VUBxy
p1064
sa(dp1065
S'block.thisTrialN'
p1066
I8
sS'block.thisRepN'
p1067
I0
sg29
NsS'block.thisN'
p1068
I8
sg978
(S'ADD'
S'DOUBLE'
S'x'
S'y'
tp1069
sg27
g28
sg980
L2L
sg981
(I4
I8
tp1070
sg22
I1
sg20
F0.91679058290901594
sg23
F2.1816457452659961
sVY
L4L
sVX
L2L
sg983
L0L
sg31
g32
sg33
g34
sg21
S'8'
sg19
S'space'
p1071
sg30
g11
sg986
L8L
sg987
g1006
sg989
L8L
sS'block.thisIndex'
p1072
I0
sg991
g1025
sg993
L0L
sg994
VBUxy
p1073
sa(dp1074
S'block.thisTrialN'
p1075
I9
sS'block.thisRepN'
p1076
I0
sg29
NsS'block.thisN'
p1077
I9
sg978
(S'DIVIDE'
S'INCREASE'
S'DOUBLE'
S'THIRD'
S'x'
S'y'
tp1078
sg27
g28
sg980
L4L
sg981
(I2
I4
I5
I1
tp1079
sg22
I1
sg20
F5.2465282747580204
sg23
F9.9083533133089077
sVY
L5L
sVX
L6L
sg983
g1006
sg31
g32
sg33
g34
sg21
S'1'
sg19
S'space'
p1080
sg30
g11
sg986
L1L
sg987
g992
sg989
L1L
sS'block.thisIndex'
p1081
I11
sg991
g988
sg993
g984
sg994
g1027
sa(dp1082
S'block.thisTrialN'
p1083
I10
sS'block.thisRepN'
p1084
I0
sg29
NsS'block.thisN'
p1085
I10
sg978
(S'SUBTRACT'
S'HALF'
S'TRIPLE'
S'x'
S'y'
tp1086
sg27
g28
sg980
L3L
sg981
(I12
I6
I2
tp1087
sg22
I1
sg20
F2.3732185546250548
sg23
F6.1801891972718295
sVY
L4L
sVX
L4L
sg983
g1002
sg31
g32
sg33
g34
sg21
S'2'
sg19
S'space'
p1088
sg30
g11
sg986
L2L
sg987
g1026
sg989
L2L
sS'block.thisIndex'
p1089
I5
sg991
g1062
sg993
L0L
sg994
g1016
sa(dp1090
S'block.thisTrialN'
p1091
I11
sS'block.thisRepN'
p1092
I0
sg29
NsS'block.thisN'
p1093
I11
sg978
(S'DECREASE'
S'ADD'
S'DOUBLE'
S'THIRD'
S'x'
S'y'
tp1094
sg27
g28
sg980
L4L
sg981
(I3
I6
I10
I9
tp1095
sg22
I0
sg20
F3.8245591072773095
sg23
F8.7275051348551642
sVY
L4L
sVX
L9L
sg983
g1006
sg31
g32
sg33
g34
sg21
S'6'
sg19
S'space'
p1096
sg30
g11
sg986
L9L
sg987
g1025
sg989
L9L
sS'block.thisIndex'
p1097
I12
sg991
Vdecrease 
p1098
sg993
g984
sg994
g1037
sa(dp1099
S'block.thisTrialN'
p1100
I12
sS'block.thisRepN'
p1101
I0
sg29
NsS'block.thisN'
p1102
I12
sg978
(S'DOUBLE'
S'TRIPLE'
S'SUBTRACT'
S'x'
S'y'
tp1103
sg27
g28
sg980
L3L
sg981
(I1
I3
I6
tp1104
sg22
I1
sg20
F3.6480207290442195
sg23
F2.2945520135108382
sVY
L3L
sVX
L4L
sg983
g1062
sg31
g32
sg33
g34
sg21
S'6'
sg19
S'space'
p1105
sg30
g11
sg986
L6L
sg987
g1002
sg989
L6L
sS'block.thisIndex'
p1106
I9
sg991
g1006
sg993
L0L
sg994
VUUBxy
p1107
sa(dp1108
S'block.thisTrialN'
p1109
I13
sS'block.thisRepN'
p1110
I0
sg29
NsS'block.thisN'
p1111
I13
sg978
(S'HALF'
S'SUBTRACT'
S'TRIPLE'
S'x'
S'y'
tp1112
sg27
g28
sg980
L3L
sg981
(I9
I2
I1
tp1113
sg22
I1
sg20
F4.9020602700184099
sg23
F2.5475273155316245
sVY
L7L
sVX
L3L
sg983
g1002
sg31
g32
sg33
g34
sg21
S'1'
sg19
S'space'
p1114
sg30
g11
sg986
L1L
sg987
g1062
sg989
L1L
sS'block.thisIndex'
p1115
I6
sg991
g1026
sg993
L0L
sg994
g995
sa(dp1116
S'block.thisTrialN'
p1117
I14
sS'block.thisRepN'
p1118
I0
sg29
NsS'block.thisN'
p1119
I14
sg978
(S'DIVIDE'
S'DOUBLE'
S'x'
S'y'
tp1120
sg27
g28
sg980
L2L
sg981
(I12
I2
tp1121
sg22
I1
sg20
F1.186342605156824
sg23
F2.4359022635908332
sVY
L6L
sVX
L6L
sg983
L0L
sg31
g32
sg33
g34
sg21
S'2'
sg19
S'space'
p1122
sg30
g11
sg986
L2L
sg987
g1006
sg989
L2L
sS'block.thisIndex'
p1123
I1
sg991
g988
sg993
L0L
sg994
g1073
sa(dp1124
S'block.thisTrialN'
p1125
I15
sS'block.thisRepN'
p1126
I0
sg29
NsS'block.thisN'
p1127
I15
sg978
(S'DOUBLE'
S'DECREASE'
S'SUBTRACT'
S'x'
S'y'
tp1128
sg27
g28
sg980
L3L
sg981
(I5
I4
I8
tp1129
sg22
I1
sg20
F3.1888182468246669
sg23
F3.6211309350037482
sVY
L2L
sVX
L7L
sg983
g1062
sg31
g32
sg33
g34
sg21
S'8'
sg19
S'space'
p1130
sg30
g11
sg986
L8L
sg987
g1004
sg989
L8L
sS'block.thisIndex'
p1131
I8
sg991
g1006
sg993
L0L
sg994
g1107
sa(dp1132
S'block.thisTrialN'
p1133
I16
sS'block.thisRepN'
p1134
I0
sg29
NsS'block.thisN'
p1135
I16
sg978
(S'DECREASE'
S'THIRD'
S'TIMES'
S'HALF'
S'x'
S'y'
tp1136
sg27
g28
sg980
L4L
sg981
(I2
I12
I4
I3
tp1137
sg22
I1
sg20
F2.8705950533912983
sg23
F5.3612708013970405
sVY
L6L
sVX
L4L
sg983
g1035
sg31
g32
sg33
g34
sg21
S'3'
sg19
S'space'
p1138
sg30
g11
sg986
L3L
sg987
g984
sg989
L3L
sS'block.thisIndex'
p1139
I14
sg991
g1004
sg993
g1026
sg994
g1054
sa(dp1140
S'block.thisTrialN'
p1141
I17
sS'block.thisRepN'
p1142
I0
sg29
NsS'block.thisN'
p1143
I17
sg978
(S'HALF'
S'TIMES'
S'x'
S'y'
tp1144
sg27
g28
sg980
L2L
sg981
(I16
I8
tp1145
sg22
I1
sg20
F0.75852974742883816
sg23
F1.6804511449299753
sVY
L4L
sVX
L4L
sg983
L0L
sg31
g32
sg33
g34
sg21
S'8'
sg19
S'space'
p1146
sg30
g11
sg986
L8L
sg987
g1035
sg989
L8L
sS'block.thisIndex'
p1147
I3
sg991
g1026
sg993
L0L
sg994
g1064
sa(dp1148
S'block.thisTrialN'
p1149
I0
sS'block.thisRepN'
p1150
I0
sg29
NsS'block.thisN'
p1151
I0
sVRule
p1152
(S'TIMES'
S'INCREASE'
S'x'
S'y'
tp1153
sg27
g28
sVLength
p1154
L2L
sVIntermediate
p1155
(I3
I6
tp1156
sg22
I1
sg20
F0.83371310203801841
sg23
F2.3247710101422854
sVY
L2L
sVX
L2L
sVOperatorc
p1157
L0L
sg31
g32
sg33
g34
sg21
S'6'
sg19
S'space'
p1158
sg30
g11
sVResult
p1159
L6L
sVOperatora
p1160
Vincrease
p1161
sVCorrectResponse
p1162
L6L
sS'block.thisIndex'
p1163
I1
sVOperatorb
p1164
VTIMES
p1165
sVOperatord
p1166
L0L
sVStructure
p1167
VBUxy
p1168
sa(dp1169
S'block.thisTrialN'
p1170
I1
sS'block.thisRepN'
p1171
I0
sg29
NsS'block.thisN'
p1172
I1
sg1152
(S'THIRD'
S'TIMES'
S'DECREASE'
S'x'
S'y'
tp1173
sg27
g28
sg1154
L3L
sg1155
(I3
I15
I5
tp1174
sg22
I1
sg20
F1.220669823087519
sg23
F3.9900547378056217
sVY
L5L
sVX
L4L
sg1157
Vdecrease
p1175
sg31
g32
sg33
g34
sg21
S'5'
sg19
S'space'
p1176
sg30
g11
sg1159
L5L
sg1160
g1165
sg1162
L5L
sS'block.thisIndex'
p1177
I7
sg1164
Vthird
p1178
sg1166
L0L
sg1167
VUBUxy
p1179
sa(dp1180
S'block.thisTrialN'
p1181
I2
sS'block.thisRepN'
p1182
I0
sg29
NsS'block.thisN'
p1183
I2
sg1152
(S'THIRD'
S'DECREASE'
S'TIMES'
S'x'
S'y'
tp1184
sg27
g28
sg1154
L3L
sg1155
(I25
I24
I8
tp1185
sg22
I1
sg20
F0.93408647808246315
sg23
F7.4256703812861815
sVY
L5L
sVX
L5L
sg1157
g1165
sg31
g32
sg33
g34
sg21
S'8'
sg19
S'space'
p1186
sg30
g11
sg1159
L8L
sg1160
g1175
sg1162
L8L
sS'block.thisIndex'
p1187
I8
sg1164
g1178
sg1166
L0L
sg1167
VUUBxy
p1188
sa(dp1189
S'block.thisTrialN'
p1190
I3
sS'block.thisRepN'
p1191
I0
sg29
NsS'block.thisN'
p1192
I3
sg1152
(S'THIRD'
S'ADD'
S'INCREASE'
S'x'
S'y'
tp1193
sg27
g28
sg1154
L3L
sg1155
(I8
I15
I5
tp1194
sg22
I1
sg20
F1.0422482913709246
sg23
F3.2382302906480618
sVY
L7L
sVX
L7L
sg1157
g1161
sg31
g32
sg33
g34
sg21
S'5'
sg19
S'space'
p1195
sg30
g11
sg1159
L5L
sg1160
VADD
p1196
sg1162
L5L
sS'block.thisIndex'
p1197
I6
sg1164
g1178
sg1166
L0L
sg1167
g1179
sa(dp1198
S'block.thisTrialN'
p1199
I4
sS'block.thisRepN'
p1200
I0
sg29
NsS'block.thisN'
p1201
I4
sg1152
(S'THIRD'
S'DOUBLE'
S'ADD'
S'INCREASE'
S'x'
S'y'
tp1202
sg27
g28
sg1154
L4L
sg1155
(I10
I12
I24
I8
tp1203
sg22
I1
sg20
F1.0911553379555698
sg23
F5.5715603576682042
sVY
L2L
sVX
L9L
sg1157
g1196
sg31
g32
sg33
g34
sg21
S'8'
sg19
S'space'
p1204
sg30
g11
sg1159
L8L
sg1160
Vdouble
p1205
sg1162
L8L
sS'block.thisIndex'
p1206
I14
sg1164
g1178
sg1166
g1161
sg1167
VUUBUxy
p1207
sa(dp1208
S'block.thisTrialN'
p1209
I5
sS'block.thisRepN'
p1210
I0
sg29
NsS'block.thisN'
p1211
I5
sg1152
(S'THIRD'
S'ADD'
S'x'
S'y'
tp1212
sg27
g28
sg1154
L2L
sg1155
(I9
I3
tp1213
sg22
I1
sg20
F0.54758225978002883
sg23
F5.9893387125048321
sVY
L5L
sVX
L4L
sg1157
L0L
sg31
g32
sg33
g34
sg21
S'3'
sg19
S'space'
p1214
sg30
g11
sg1159
L3L
sg1160
g1196
sg1162
L3L
sS'block.thisIndex'
p1215
I2
sg1164
g1178
sg1166
L0L
sg1167
VUBxy
p1216
sa(dp1217
S'block.thisTrialN'
p1218
I6
sS'block.thisRepN'
p1219
I0
sg29
NsS'block.thisN'
p1220
I6
sg1152
(S'TIMES'
S'DECREASE'
S'x'
S'y'
tp1221
sg27
g28
sg1154
L2L
sg1155
(I2
I4
tp1222
sg22
I1
sg20
F0.88314229410025291
sg23
F1.3652309881581459
sVY
L2L
sVX
L3L
sg1157
L0L
sg31
g32
sg33
g34
sg21
S'4'
sg19
S'space'
p1223
sg30
g11
sg1159
L4L
sg1160
g1175
sg1162
L4L
sS'block.thisIndex'
p1224
I0
sg1164
g1165
sg1166
L0L
sg1167
g1168
sa(dp1225
S'block.thisTrialN'
p1226
I7
sS'block.thisRepN'
p1227
I0
sg29
NsS'block.thisN'
p1228
I7
sg1152
(S'TIMES'
S'THIRD'
S'HALF'
S'x'
S'y'
tp1229
sg27
g28
sg1154
L3L
sg1155
(I3
I1
I5
tp1230
sg22
I1
sg20
F1.6973302335827611
sg23
F3.3825933763873763
sVY
L5L
sVX
L6L
sg1157
Vhalf
p1231
sg31
g32
sg33
g34
sg21
S'5'
sg19
S'space'
p1232
sg30
g11
sg1159
L5L
sg1160
g1178
sg1162
L5L
sS'block.thisIndex'
p1233
I5
sg1164
g1165
sg1166
L0L
sg1167
VBUUxy
p1234
sa(dp1235
S'block.thisTrialN'
p1236
I8
sS'block.thisRepN'
p1237
I0
sg29
NsS'block.thisN'
p1238
I8
sg1152
(S'TIMES'
S'DECREASE'
S'HALF'
S'x'
S'y'
tp1239
sg27
g28
sg1154
L3L
sg1155
(I4
I3
I9
tp1240
sg22
I1
sg20
F1.0337375294766389
sg23
F3.6149386811594013
sVY
L3L
sVX
L8L
sg1157
g1231
sg31
g32
sg33
g34
sg21
S'9'
sg19
S'space'
p1241
sg30
g11
sg1159
L9L
sg1160
g1175
sg1162
L9L
sS'block.thisIndex'
p1242
I4
sg1164
g1165
sg1166
L0L
sg1167
g1234
sa(dp1243
S'block.thisTrialN'
p1244
I9
sS'block.thisRepN'
p1245
I0
sg29
NsS'block.thisN'
p1246
I9
sg1152
(S'THIRD'
S'SUBTRACT'
S'x'
S'y'
tp1247
sg27
g28
sg1154
L2L
sg1155
(I3
I1
tp1248
sg22
I1
sg20
F0.66468494012951851
sg23
F1.9750220564601477
sVY
L2L
sVX
L5L
sg1157
L0L
sg31
g32
sg33
g34
sg21
S'1'
sg19
S'space'
p1249
sg30
g11
sg1159
L1L
sg1160
VSUBTRACT
p1250
sg1162
L1L
sS'block.thisIndex'
p1251
I3
sg1164
g1178
sg1166
L0L
sg1167
g1216
sa(dp1252
S'block.thisTrialN'
p1253
I10
sS'block.thisRepN'
p1254
I0
sg29
NsS'block.thisN'
p1255
I10
sg1152
(S'TRIPLE'
S'HALF'
S'ADD'
S'DECREASE'
S'x'
S'y'
tp1256
sg27
g28
sg1154
L4L
sg1155
(I1
I4
I2
I6
tp1257
sg22
I1
sg20
F3.9365687690442428
sg23
F5.9890923381899484
sVY
L3L
sVX
L2L
sg1157
g1196
sg31
g32
sg33
g34
sg21
S'6'
sg19
S'space'
p1258
sg30
g11
sg1159
L6L
sg1160
g1231
sg1162
L6L
sS'block.thisIndex'
p1259
I15
sg1164
Vtriple
p1260
sg1166
g1175
sg1167
g1207
sa(dp1261
S'block.thisTrialN'
p1262
I11
sS'block.thisRepN'
p1263
I0
sg29
NsS'block.thisN'
p1264
I11
sg1152
(S'TIMES'
S'INCREASE'
S'THIRD'
S'DOUBLE'
S'x'
S'y'
tp1265
sg27
g28
sg1154
L4L
sg1155
(I6
I2
I3
I9
tp1266
sg22
I1
sg20
F4.5164425092225429
sg23
F5.0664941113209352
sVY
L3L
sVX
L3L
sg1157
g1178
sg31
g32
sg33
g34
sg21
S'9'
sg19
S'space'
p1267
sg30
g11
sg1159
L9L
sg1160
g1161
sg1162
L9L
sS'block.thisIndex'
p1268
I11
sg1164
g1165
sg1166
g1205
sg1167
VBUUUxy
p1269
sa(dp1270
S'block.thisTrialN'
p1271
I12
sS'block.thisRepN'
p1272
I0
sg29
NsS'block.thisN'
p1273
I12
sg1152
(S'TRIPLE'
S'SUBTRACT'
S'DOUBLE'
S'DECREASE'
S'x'
S'y'
tp1274
sg27
g28
sg1154
L4L
sg1155
(I2
I4
I1
I3
tp1275
sg22
I1
sg20
F8.9604166804929264
sg23
F4.5003735860227607
sVY
L3L
sVX
L3L
sg1157
g1205
sg31
g32
sg33
g34
sg21
S'3'
sg19
S'space'
p1276
sg30
g11
sg1159
L3L
sg1160
g1250
sg1162
L3L
sS'block.thisIndex'
p1277
I13
sg1164
g1260
sg1166
g1175
sg1167
VUBUUxy
p1278
sa(dp1279
S'block.thisTrialN'
p1280
I13
sS'block.thisRepN'
p1281
I0
sg29
NsS'block.thisN'
p1282
I13
sg1152
(S'TRIPLE'
S'DECREASE'
S'HALF'
S'TIMES'
S'x'
S'y'
tp1283
sg27
g28
sg1154
L4L
sg1155
(I6
I3
I2
I6
tp1284
sg22
I1
sg20
F1.5617214843514375
sg23
F4.9014562330557965
sVY
L2L
sVX
L3L
sg1157
g1231
sg31
g32
sg33
g34
sg21
S'6'
sg19
S'space'
p1285
sg30
g11
sg1159
L6L
sg1160
g1175
sg1162
L6L
sS'block.thisIndex'
p1286
I17
sg1164
g1260
sg1166
g1165
sg1167
VUUUBxy
p1287
sa(dp1288
S'block.thisTrialN'
p1289
I14
sS'block.thisRepN'
p1290
I0
sg29
NsS'block.thisN'
p1291
I14
sg1152
(S'SUBTRACT'
S'HALF'
S'INCREASE'
S'TRIPLE'
S'x'
S'y'
tp1292
sg27
g28
sg1154
L4L
sg1155
(I15
I16
I8
I3
tp1293
sg22
I1
sg20
F1.6968353852280416
sg23
F7.3131245754484553
sVY
L5L
sVX
L5L
sg1157
g1161
sg31
g32
sg33
g34
sg21
S'3'
sg19
S'space'
p1294
sg30
g11
sg1159
L3L
sg1160
g1231
sg1162
L3L
sS'block.thisIndex'
p1295
I10
sg1164
g1250
sg1166
g1260
sg1167
g1269
sa(dp1296
S'block.thisTrialN'
p1297
I15
sS'block.thisRepN'
p1298
I0
sg29
NsS'block.thisN'
p1299
I15
sg1152
(S'THIRD'
S'INCREASE'
S'HALF'
S'DIVIDE'
S'x'
S'y'
tp1300
sg27
g28
sg1154
L4L
sg1155
(I4
I2
I3
I1
tp1301
sg22
I1
sg20
F3.6362605562026147
sg23
F3.2979459593479987
sVY
L2L
sVX
L8L
sg1157
g1231
sg31
g32
sg33
g34
sg21
S'1'
sg19
S'space'
p1302
sg30
g11
sg1159
L1L
sg1160
g1161
sg1162
L1L
sS'block.thisIndex'
p1303
I16
sg1164
g1178
sg1166
VDIVIDE
p1304
sg1167
g1287
sa(dp1305
S'block.thisTrialN'
p1306
I16
sS'block.thisRepN'
p1307
I0
sg29
NsS'block.thisN'
p1308
I16
sg1152
(S'TRIPLE'
S'HALF'
S'DIVIDE'
S'x'
S'y'
tp1309
sg27
g28
sg1154
L3L
sg1155
(I2
I1
I3
tp1310
sg22
I1
sg20
F0.75783506993320771
sg23
F4.791557900927728
sVY
L2L
sVX
L4L
sg1157
g1304
sg31
g32
sg33
g34
sg21
S'3'
sg19
S'space'
p1311
sg30
g11
sg1159
L3L
sg1160
g1231
sg1162
L3L
sS'block.thisIndex'
p1312
I9
sg1164
g1260
sg1166
L0L
sg1167
g1188
sa(dp1313
S'block.thisTrialN'
p1314
I17
sS'block.thisRepN'
p1315
I0
sg29
NsS'block.thisN'
p1316
I17
sg1152
(S'INCREASE'
S'DIVIDE'
S'TRIPLE'
S'DOUBLE'
S'x'
S'y'
tp1317
sg27
g28
sg1154
L4L
sg1155
(I6
I18
I3
I4
tp1318
sg22
I1
sg20
F2.8180662347876932
sg23
F10.180806532822317
sVY
L6L
sVX
L3L
sg1157
g1260
sg31
g32
sg33
g34
sg21
S'4'
sg19
S'space'
p1319
sg30
g11
sg1159
L4L
sg1160
g1304
sg1162
L4L
sS'block.thisIndex'
p1320
I12
sg1164
g1161
sg1166
g1205
sg1167
g1278
sa(dp1321
S'block.thisTrialN'
p1322
I0
sS'block.thisRepN'
p1323
I0
sg29
NsS'block.thisN'
p1324
I0
sVRule
p1325
(S'DECREASE'
S'TRIPLE'
S'DIVIDE'
S'DOUBLE'
S'x'
S'y'
tp1326
sg27
g28
sVLength
p1327
L4L
sVIntermediate
p1328
(I6
I2
I6
I5
tp1329
sg22
I0
sg20
F6.2516961854998954
sg23
F10.119982879783493
sVY
L3L
sVX
L3L
sVOperatorc
p1330
VDIVIDE
p1331
sg31
g32
sg33
g34
sg21
S'7'
sg19
S'space'
p1332
sg30
g11
sVResult
p1333
L5L
sVOperatora
p1334
Vtriple
p1335
sVCorrectResponse
p1336
L5L
sS'block.thisIndex'
p1337
I14
sVOperatorb
p1338
Vdecrease
p1339
sVOperatord
p1340
Vdouble
p1341
sVStructure
p1342
VUUBUxy
p1343
sa(dp1344
S'block.thisTrialN'
p1345
I1
sS'block.thisRepN'
p1346
I0
sg29
NsS'block.thisN'
p1347
I1
sg1325
(S'DOUBLE'
S'DIVIDE'
S'TRIPLE'
S'INCREASE'
S'x'
S'y'
tp1348
sg27
g28
sg1327
L4L
sg1328
(I5
I15
I3
I6
tp1349
sg22
I1
sg20
F4.9170835023396648
sg23
F6.9298865663295146
sVY
L5L
sVX
L4L
sg1330
g1335
sg31
g32
sg33
g34
sg21
S'6'
sg19
S'space'
p1350
sg30
g11
sg1333
L6L
sg1334
g1331
sg1336
L6L
sS'block.thisIndex'
p1351
I12
sg1338
g1341
sg1340
Vincrease
p1352
sg1342
VUBUUxy
p1353
sa(dp1354
S'block.thisTrialN'
p1355
I2
sS'block.thisRepN'
p1356
I0
sg29
NsS'block.thisN'
p1357
I2
sg1325
(S'THIRD'
S'DIVIDE'
S'DECREASE'
S'x'
S'y'
tp1358
sg27
g28
sg1327
L3L
sg1328
(I6
I3
I1
tp1359
sg22
I1
sg20
F0.96434607048286125
sg23
F4.0505942204908933
sVY
L2L
sVX
L7L
sg1330
g1339
sg31
g32
sg33
g34
sg21
S'1'
sg19
S'space'
p1360
sg30
g11
sg1333
L1L
sg1334
g1331
sg1336
L1L
sS'block.thisIndex'
p1361
I6
sg1338
Vthird
p1362
sg1340
L0L
sg1342
VUBUxy
p1363
sa(dp1364
S'block.thisTrialN'
p1365
I3
sS'block.thisRepN'
p1366
I0
sg29
NsS'block.thisN'
p1367
I3
sg1325
(S'DOUBLE'
S'THIRD'
S'TIMES'
S'x'
S'y'
tp1368
sg27
g28
sg1327
L3L
sg1328
(I12
I4
I8
tp1369
sg22
I1
sg20
F2.276670979365008
sg23
F6.3112288232659921
sVY
L6L
sVX
L2L
sg1330
VTIMES
p1370
sg31
g32
sg33
g34
sg21
S'8'
sg19
S'space'
p1371
sg30
g11
sg1333
L8L
sg1334
g1362
sg1336
L8L
sS'block.thisIndex'
p1372
I9
sg1338
g1341
sg1340
L0L
sg1342
VUUBxy
p1373
sa(dp1374
S'block.thisTrialN'
p1375
I4
sS'block.thisRepN'
p1376
I0
sg29
NsS'block.thisN'
p1377
I4
sg1325
(S'TIMES'
S'HALF'
S'INCREASE'
S'x'
S'y'
tp1378
sg27
g28
sg1327
L3L
sg1328
(I6
I3
I9
tp1379
sg22
I1
sg20
F3.6889594570675399
sg23
F3.4409525865921751
sVY
L3L
sVX
L5L
sg1330
g1352
sg31
g32
sg33
g34
sg21
S'9'
sg19
S'space'
p1380
sg30
g11
sg1333
L9L
sg1334
Vhalf
p1381
sg1336
L9L
sS'block.thisIndex'
p1382
I5
sg1338
g1370
sg1340
L0L
sg1342
VBUUxy
p1383
sa(dp1384
S'block.thisTrialN'
p1385
I5
sS'block.thisRepN'
p1386
I0
sg29
NsS'block.thisN'
p1387
I5
sg1325
(S'THIRD'
S'DIVIDE'
S'x'
S'y'
tp1388
sg27
g28
sg1327
L2L
sg1328
(I3
I1
tp1389
sg22
I1
sg20
F1.0921051388140768
sg23
F2.9356683130317833
sVY
L2L
sVX
L6L
sg1330
L0L
sg31
g32
sg33
g34
sg21
S'1'
sg19
S'space'
p1390
sg30
g11
sg1333
L1L
sg1334
g1331
sg1336
L1L
sS'block.thisIndex'
p1391
I3
sg1338
g1362
sg1340
L0L
sg1342
VUBxy
p1392
sa(dp1393
S'block.thisTrialN'
p1394
I6
sS'block.thisRepN'
p1395
I0
sg29
NsS'block.thisN'
p1396
I6
sg1325
(S'SUBTRACT'
S'TRIPLE'
S'DECREASE'
S'DOUBLE'
S'x'
S'y'
tp1397
sg27
g28
sg1327
L4L
sg1328
(I4
I3
I9
I1
tp1398
sg22
I0
sg20
F6.4513671498571057
sg23
F14.806570634333184
sVY
L8L
sVX
L2L
sg1330
g1339
sg31
g32
sg33
g34
sg21
S'8'
sg19
S'space'
p1399
sg30
g11
sg1333
L1L
sg1334
g1335
sg1336
L1L
sS'block.thisIndex'
p1400
I11
sg1338
VSUBTRACT
p1401
sg1340
g1341
sg1342
VBUUUxy
p1402
sa(dp1403
S'block.thisTrialN'
p1404
I7
sS'block.thisRepN'
p1405
I0
sg29
NsS'block.thisN'
p1406
I7
sg1325
(S'INCREASE'
S'SUBTRACT'
S'x'
S'y'
tp1407
sg27
g28
sg1327
L2L
sg1328
(I3
I4
tp1408
sg22
I1
sg20
F5.7626096216845326
sg23
F1.9692837052571122
sVY
L3L
sVX
L6L
sg1330
L0L
sg31
g32
sg33
g34
sg21
S'4'
sg19
S'space'
p1409
sg30
g11
sg1333
L4L
sg1334
g1401
sg1336
L4L
sS'block.thisIndex'
p1410
I2
sg1338
g1352
sg1340
L0L
sg1342
g1392
sa(dp1411
S'block.thisTrialN'
p1412
I8
sS'block.thisRepN'
p1413
I0
sg29
NsS'block.thisN'
p1414
I8
sg1325
(S'SUBTRACT'
S'DOUBLE'
S'TRIPLE'
S'DECREASE'
S'x'
S'y'
tp1415
sg27
g28
sg1327
L4L
sg1328
(I2
I6
I12
I8
tp1416
sg22
I1
sg20
F3.7670944037090521
sg23
F9.4758120990009047
sVY
L4L
sVX
L3L
sg1330
g1335
sg31
g32
sg33
g34
sg21
S'8'
sg19
S'space'
p1417
sg30
g11
sg1333
L8L
sg1334
g1341
sg1336
L8L
sS'block.thisIndex'
p1418
I10
sg1338
g1401
sg1340
g1339
sg1342
g1402
sa(dp1419
S'block.thisTrialN'
p1420
I9
sS'block.thisRepN'
p1421
I0
sg29
NsS'block.thisN'
p1422
I9
sg1325
(S'TIMES'
S'DOUBLE'
S'x'
S'y'
tp1423
sg27
g28
sg1327
L2L
sg1328
(I4
I8
tp1424
sg22
I1
sg20
F0.91607385769020766
sg23
F1.8760418850579299
sVY
L2L
sVX
L2L
sg1330
L0L
sg31
g32
sg33
g34
sg21
S'8'
sg19
S'space'
p1425
sg30
g11
sg1333
L8L
sg1334
g1341
sg1336
L8L
sS'block.thisIndex'
p1426
I1
sg1338
g1370
sg1340
L0L
sg1342
VBUxy
p1427
sa(dp1428
S'block.thisTrialN'
p1429
I10
sS'block.thisRepN'
p1430
I0
sg29
NsS'block.thisN'
p1431
I10
sg1325
(S'INCREASE'
S'ADD'
S'HALF'
S'TRIPLE'
S'x'
S'y'
tp1432
sg27
g28
sg1327
L4L
sg1328
(I6
I3
I6
I7
tp1433
sg22
I1
sg20
F8.5327200106694363
sg23
F8.1664569802233018
sVY
L3L
sVX
L2L
sg1330
g1381
sg31
g32
sg33
g34
sg21
S'7'
sg19
S'space'
p1434
sg30
g11
sg1333
L7L
sg1334
VADD
p1435
sg1336
L7L
sS'block.thisIndex'
p1436
I13
sg1338
g1352
sg1340
g1335
sg1342
g1353
sa(dp1437
S'block.thisTrialN'
p1438
I11
sS'block.thisRepN'
p1439
I0
sg29
NsS'block.thisN'
p1440
I11
sg1325
(S'THIRD'
S'TIMES'
S'HALF'
S'x'
S'y'
tp1441
sg27
g28
sg1327
L3L
sg1328
(I3
I18
I6
tp1442
sg22
I1
sg20
F1.009148395358352
sg23
F3.6210346950392704
sVY
L6L
sVX
L6L
sg1330
g1381
sg31
g32
sg33
g34
sg21
S'6'
sg19
S'space'
p1443
sg30
g11
sg1333
L6L
sg1334
g1370
sg1336
L6L
sS'block.thisIndex'
p1444
I7
sg1338
g1362
sg1340
L0L
sg1342
g1363
sa(dp1445
S'block.thisTrialN'
p1446
I12
sS'block.thisRepN'
p1447
I0
sg29
NsS'block.thisN'
p1448
I12
sg1325
(S'THIRD'
S'DECREASE'
S'TIMES'
S'HALF'
S'x'
S'y'
tp1449
sg27
g28
sg1327
L4L
sg1328
(I4
I16
I15
I5
tp1450
sg22
I1
sg20
F6.7600790357682854
sg23
F6.1495820911077317
sVY
L4L
sVX
L8L
sg1330
g1370
sg31
g32
sg33
g34
sg21
S'5'
sg19
S'space'
p1451
sg30
g11
sg1333
L5L
sg1334
g1339
sg1336
L5L
sS'block.thisIndex'
p1452
I15
sg1338
g1362
sg1340
g1381
sg1342
g1343
sa(dp1453
S'block.thisTrialN'
p1454
I13
sS'block.thisRepN'
p1455
I0
sg29
NsS'block.thisN'
p1456
I13
sg1325
(S'DOUBLE'
S'DECREASE'
S'ADD'
S'x'
S'y'
tp1457
sg27
g28
sg1327
L3L
sg1328
(I4
I3
I6
tp1458
sg22
I1
sg20
F0.74378718581283465
sg23
F6.0177137515856884
sVY
L2L
sVX
L2L
sg1330
g1435
sg31
g32
sg33
g34
sg21
S'6'
sg19
S'space'
p1459
sg30
g11
sg1333
L6L
sg1334
g1339
sg1336
L6L
sS'block.thisIndex'
p1460
I8
sg1338
g1341
sg1340
L0L
sg1342
g1373
sa(dp1461
S'block.thisTrialN'
p1462
I14
sS'block.thisRepN'
p1463
I0
sg29
NsS'block.thisN'
p1464
I14
sg1325
(S'DIVIDE'
S'THIRD'
S'x'
S'y'
tp1465
sg27
g28
sg1327
L2L
sg1328
(I3
I1
tp1466
sg22
I1
sg20
F0.61390873862546869
sg23
F1.9420222499757074
sVY
L3L
sVX
L9L
sg1330
L0L
sg31
g32
sg33
g34
sg21
S'1'
sg19
S'space'
p1467
sg30
g11
sg1333
L1L
sg1334
g1362
sg1336
L1L
sS'block.thisIndex'
p1468
I0
sg1338
g1331
sg1340
L0L
sg1342
g1427
sa(dp1469
S'block.thisTrialN'
p1470
I15
sS'block.thisRepN'
p1471
I0
sg29
NsS'block.thisN'
p1472
I15
sg1325
(S'SUBTRACT'
S'TRIPLE'
S'DECREASE'
S'x'
S'y'
tp1473
sg27
g28
sg1327
L3L
sg1328
(I4
I12
I3
tp1474
sg22
I1
sg20
F1.8427565083547961
sg23
F6.5305726347432937
sVY
L9L
sVX
L5L
sg1330
g1339
sg31
g32
sg33
g34
sg21
S'3'
sg19
S'space'
p1475
sg30
g11
sg1333
L3L
sg1334
g1335
sg1336
L3L
sS'block.thisIndex'
p1476
I4
sg1338
g1401
sg1340
L0L
sg1342
g1383
sa(dp1477
S'block.thisTrialN'
p1478
I16
sS'block.thisRepN'
p1479
I0
sg29
NsS'block.thisN'
p1480
I16
sg1325
(S'DECREASE'
S'TRIPLE'
S'HALF'
S'SUBTRACT'
S'x'
S'y'
tp1481
sg27
g28
sg1327
L4L
sg1328
(I4
I2
I6
I5
tp1482
sg22
I1
sg20
F4.4364268588542473
sg23
F4.6436622838373296
sVY
L2L
sVX
L6L
sg1330
g1381
sg31
g32
sg33
g34
sg21
S'5'
sg19
S'space'
p1483
sg30
g11
sg1333
L5L
sg1334
g1335
sg1336
L5L
sS'block.thisIndex'
p1484
I16
sg1338
g1339
sg1340
g1401
sg1342
VUUUBxy
p1485
sa(dp1486
S'block.thisTrialN'
p1487
I17
sS'block.thisRepN'
p1488
I0
sg29
NsS'block.thisN'
p1489
I17
sg1325
(S'HALF'
S'TRIPLE'
S'INCREASE'
S'SUBTRACT'
S'x'
S'y'
tp1490
sg27
g28
sg1327
L4L
sg1328
(I1
I2
I6
I3
tp1491
sg22
I1
sg20
F2.820412739936728
sg23
F6.1143582666991279
sVY
L2L
sVX
L3L
sg1330
g1352
sg31
g32
sg33
g34
sg21
S'3'
sg19
S'space'
p1492
sg30
g11
sg1333
L3L
sg1334
g1335
sg1336
L3L
sS'block.thisIndex'
p1493
I17
sg1338
g1381
sg1340
g1401
sg1342
g1485
sasS'loops'
p1494
(lp1495
g1
(cpsychopy.data
TrialHandler
p1496
g3
NtRp1497
(dp1498
S'origin'
p1499
NsS'thisTrial'
p1500
(lp1501
sS'_exp'
p1502
I329999312
sg10
S'practice_trials'
p1503
sg6
S'C:\\Users\\experimenter\\Desktop\\Experiments\\KRITL\\2. kritl_experimenter.py'
p1504
sS'thisRepN'
p1505
I1
sg24
I01
sg25
g26
sS'data'
p1506
g1
(cpsychopy.data
DataHandler
p1507
c__builtin__
dict
p1508
(dp1509
g15
cnumpy.core.multiarray
_reconstruct
p1510
(cnumpy
ndarray
p1511
(I0
tS'b'
tRp1512
(I1
(I6
I1
tcnumpy
dtype
p1513
(S'O4'
I0
I1
tRp1514
(I3
S'|'
NNNI-1
I-1
I63
tbI00
(lp1515
(lp1516
F1.5792263077455573
aa(lp1517
F4.8155769445293117
aa(lp1518
F13.039806246233638
aa(lp1519
F4.8001145080779679
aa(lp1520
F6.1856346290442161
aa(lp1521
F7.8339860735577531
aatbsg16
g1510
(g1511
(I0
tS'b'
tRp1522
(I1
(I6
I1
tg1514
I00
(lp1523
S'7'
aS'8'
aNaS'1'
aS'7'
aS'4'
atbsS'ran'
p1524
cnumpy.ma.core
_mareconstruct
p1525
(cnumpy.ma.core
MaskedArray
p1526
g1511
(I0
tp1527
S'b'
tRp1528
(I1
(I6
I1
tg1513
(S'f4'
I0
I1
tRp1529
(I3
S'<'
NNNI-1
I-1
I0
tbI00
S'\x00\x00\x80?\x00\x00\x80?\x00\x00\x80?\x00\x00\x80?\x00\x00\x80?\x00\x00\x80?'
S'\x00\x00\x00\x00\x00\x00'
Ntbsg18
g1525
(g1526
g1511
g1527
S'b'
tRp1530
(I1
(I6
I1
tg1529
I00
S'\x86s~@\x99t\x92A\x00\x00\x00\x00\xfc\xd4\x02A\x95\xa6\xec@=\\\xf9@'
S'\x00\x00\x01\x00\x00\x00'
Ntbsg14
g1510
(g1511
(I0
tS'b'
tRp1531
(I1
(I6
I1
tg1514
I00
(lp1532
(lp1533
g116
aa(lp1534
g79
aa(lp1535
g65
aa(lp1536
g88
aa(lp1537
g108
aa(lp1538
g100
aatbsS'order'
p1539
g1525
(g1526
g1511
g1527
S'b'
tRp1540
(I1
(I6
I1
tg1529
I00
S'\x00\x00\xa0@\x00\x00\x80?\x00\x00\x00\x00\x00\x00\x00@\x00\x00\x80@\x00\x00@@'
S'\x00\x00\x00\x00\x00\x00'
Ntbsg17
g1525
(g1526
g1511
g1527
S'b'
tRp1541
(I1
(I6
I1
tg1529
I00
S'\x00\x00\x80?\x00\x00\x80?\x00\x00\x00\x00\x00\x00\x00\x00\x00\x00\x00\x00\x00\x00\x00\x00'
S'\x00\x00\x00\x00\x00\x00'
NtbstRp1542
(dp1543
S'isNumeric'
p1544
(dp1545
g16
I00
sg1524
I01
sg18
I01
sg14
I00
sg17
I01
sg1539
I01
sg15
I00
ssS'trials'
p1546
g1497
sS'dataTypes'
p1547
(lp1548
g1524
ag1539
ag14
ag15
ag16
ag17
ag18
asS'dataShape'
p1549
(lp1550
I6
aI1
asbsS'method'
p1551
S'fullRandom'
p1552
sS'sequenceIndices'
p1553
g1510
(g1511
(I0
tS'b'
tRp1554
(I1
(I6
I1
tg1514
I00
(lp1555
I2
aI1
aI3
aI5
aI4
aI0
atbsS'finished'
p1556
I01
sS'nReps'
p1557
I1
sS'nRemaining'
p1558
I-1
sS'trialList'
p1559
(lp1560
g1
(cpsychopy.data
TrialType
p1561
g1508
(dp1562
g43
L0L
sg44
g68
sg45
g74
sg46
L7L
sg49
L2L
sg48
L0L
sg47
L5L
sg50
L3L
stRp1563
ag1
(g1561
g1508
(dp1564
g43
L0L
sg44
g74
sg45
g75
sg46
L8L
sg49
L2L
sg48
L0L
sg47
L3L
sg50
L3L
stRp1565
ag1
(g1561
g1508
(dp1566
g43
L0L
sg44
g68
sg45
g66
sg46
L7L
sg49
L2L
sg48
L0L
sg47
L5L
sg50
L4L
stRp1567
ag1
(g1561
g1508
(dp1568
g43
g68
sg44
g84
sg45
g66
sg46
L8L
sg49
L3L
sg48
L0L
sg47
L2L
sg50
L4L
stRp1569
ag1
(g1561
g1508
(dp1570
g43
g93
sg44
g94
sg45
g97
sg46
L3L
sg49
L3L
sg48
L0L
sg47
L3L
sg50
L2L
stRp1571
ag1
(g1561
g1508
(dp1572
g43
g93
sg44
g94
sg45
g95
sg46
L9L
sg49
L4L
sg48
g97
sg47
L8L
sg50
L8L
stRp1573
asS'seed'
p1574
NsS'thisIndex'
p1575
I0
sS'thisN'
p1576
I6
sS'thisTrialN'
p1577
I0
sS'nTotal'
p1578
I6
sbag1
(g1496
g3
NtRp1579
(dp1580
g1499
Nsg1500
(lp1581
sg1502
I329999312
sg10
S'block'
p1582
sg6
g1504
sg1505
I1
sg24
I01
sg25
g26
sg1506
g1
(g1507
g1508
(dp1583
g22
g1525
(g1526
g1511
g1527
S'b'
tRp1584
(I1
(I18
I1
tg1529
I00
S'\x00\x00\x80?\x00\x00\x80?\x00\x00\x80?\x00\x00\x80?\x00\x00\x80?\x00\x00\x00\x00\x00\x00\x00\x00\x00\x00\x00\x00\x00\x00\x00\x00\x00\x00\x80?\x00\x00\x80?\x00\x00\x00\x00\x00\x00\x80?\x00\x00\x80?\x00\x00\x80?\x00\x00\x80?\x00\x00\x00\x00\x00\x00\x80?'
S'\x00\x00\x00\x00\x00\x00\x00\x00\x00\x00\x00\x00\x00\x00\x00\x00\x00\x00'
Ntbsg19
g1510
(g1511
(I0
tS'b'
tRp1585
(I1
(I18
I1
tg1514
I00
(lp1586
g230
ag273
ag281
ag264
ag139
ag188
ag127
ag214
ag161
ag180
ag196
ag205
ag222
ag149
ag171
ag256
ag239
ag248
atbsg23
g1525
(g1526
g1511
g1527
S'b'
tRp1587
(I1
(I18
I1
tg1529
I00
S'\xab\x00\xf9@\xe6&\xe8?\x90|,@\x00\xb2\r@{\xb1\x97@-\xffFAo\xc9\xaf@\xb1\xb3n@\xe51\xad@\xa216A\xfe\x8f\x92@\x1e\xf4\x91A<x\x07A\\\x1f\xd0@\xb0p\x0fA\x19\x11\xb8@\x7f?gAr\xe7\xf2@'
S'\x00\x00\x00\x00\x00\x00\x00\x00\x00\x00\x00\x00\x00\x00\x00\x00\x00\x00'
Ntbsg1524
g1525
(g1526
g1511
g1527
S'b'
tRp1588
(I1
(I18
I1
tg1529
I00
S'\x00\x00\x80?\x00\x00\x80?\x00\x00\x80?\x00\x00\x80?\x00\x00\x80?\x00\x00\x80?\x00\x00\x80?\x00\x00\x80?\x00\x00\x80?\x00\x00\x80?\x00\x00\x80?\x00\x00\x80?\x00\x00\x80?\x00\x00\x80?\x00\x00\x80?\x00\x00\x80?\x00\x00\x80?\x00\x00\x80?'
S'\x00\x00\x00\x00\x00\x00\x00\x00\x00\x00\x00\x00\x00\x00\x00\x00\x00\x00'
Ntbsg21
g1510
(g1511
(I0
tS'b'
tRp1589
(I1
(I18
I1
tg1514
I00
(lp1590
S'2'
aS'3'
aS'1'
aS'6'
aS'9'
aS'3'
aS'1'
aS'1'
aS'3'
aS'1'
aS'8'
aS'2'
aS'8'
aS'2'
aS'8'
aS'1'
aS'3'
aS'6'
atbsg1539
g1525
(g1526
g1511
g1527
S'b'
tRp1591
(I1
(I18
I1
tg1529
I00
S'\x00\x000A\x00\x00\x80A\x00\x00\x88A\x00\x00pA\x00\x00\x80?\x00\x00\xc0@\x00\x00\x00\x00\x00\x00\x10A\x00\x00@@\x00\x00\xa0@\x00\x00\xe0@\x00\x00\x00A\x00\x00 A\x00\x00\x00@\x00\x00\x80@\x00\x00`A\x00\x00@A\x00\x00PA'
S'\x00\x00\x00\x00\x00\x00\x00\x00\x00\x00\x00\x00\x00\x00\x00\x00\x00\x00'
Ntbsg20
g1525
(g1526
g1511
g1527
S'b'
tRp1592
(I1
(I18
I1
tg1529
I00
S"\r'\xa6?~\xab\xc8?,\x84\x87?\xe54z?\xedj\xb8@\xbd\n\xd9?\xe3\x12e@Q\xd9\x13@\xb2\xc0\x10@5J\xae?\xb2h\xf7@\xb3\x1e\xac@\xe5\x9a6@a\x81\xbe@?a\xf8@\xbd\xa6\x15@\x92\xe7\xde@\xb9*N@"
S'\x00\x00\x00\x00\x00\x00\x00\x00\x00\x00\x00\x00\x00\x00\x00\x00\x00\x00'
NtbstRp1593
(dp1594
g1544
(dp1595
g1524
I01
sg21
I00
sg20
I01
sg22
I01
sg19
I00
sg23
I01
sg1539
I01
ssg1546
g1579
sg1547
(lp1596
g1524
ag1539
ag19
ag20
ag21
ag22
ag23
asg1549
(lp1597
I18
aI1
asbsg1551
g1552
sg1553
g1510
(g1511
(I0
tS'b'
tRp1598
(I1
(I18
I1
tg1514
I00
(lp1599
I6
aI4
aI13
aI8
aI14
aI9
aI5
aI10
aI11
aI7
aI12
aI0
aI16
aI17
aI15
aI3
aI1
aI2
atbsg1556
I01
sg1557
I1
sg1558
I-1
sg1559
(lp1600
g1
(g1561
g1508
(dp1601
g51
g228
sVY
L2L
sg53
L2L
sg54
g229
sg55
L2L
sg56
L2L
sg52
g163
sVX
L3L
sg57
L0L
sg58
g160
sg59
L0L
sg60
g232
stRp1602
ag1
(g1561
g1508
(dp1603
g51
g271
sVY
L2L
sg53
L2L
sg54
g272
sg55
L3L
sg56
L3L
sg52
g152
sVX
L6L
sg57
L0L
sg58
g207
sg59
L0L
sg60
g232
stRp1604
ag1
(g1561
g1508
(dp1605
g51
g279
sVY
L4L
sg53
L2L
sg54
g280
sg55
L1L
sg56
L1L
sg52
g160
sVX
L8L
sg57
L0L
sg58
g152
sg59
L0L
sg60
g266
stRp1606
ag1
(g1561
g1508
(dp1607
g51
g262
sVY
L2L
sg53
L2L
sg54
g263
sg55
L6L
sg56
L6L
sg52
g128
sVX
L3L
sg57
L0L
sg58
g163
sg59
L0L
sg60
g266
stRp1608
ag1
(g1561
g1508
(dp1609
g51
g136
sVY
L8L
sg53
L3L
sg54
g137
sg55
L9L
sg56
L9L
sg52
g130
sVX
L6L
sg57
g138
sg58
g128
sg59
L0L
sg60
g141
stRp1610
ag1
(g1561
g1508
(dp1611
g51
g186
sVY
L2L
sg53
L3L
sg54
g187
sg55
L4L
sg56
L4L
sg52
g152
sVX
L3L
sg57
g126
sg58
g160
sg59
L0L
sg60
g141
stRp1612
ag1
(g1561
g1508
(dp1613
g51
g124
sVY
L3L
sg53
L3L
sg54
g125
sg55
L6L
sg56
L6L
sg52
g128
sVX
L3L
sg57
g126
sg58
g130
sg59
L0L
sg60
g131
stRp1614
ag1
(g1561
g1508
(dp1615
g51
g212
sVY
L2L
sg53
L3L
sg54
g213
sg55
L3L
sg56
L3L
sg52
g207
sVX
L8L
sg57
g130
sg58
g163
sg59
L0L
sg60
g131
stRp1616
ag1
(g1561
g1508
(dp1617
g51
g158
sVY
L3L
sg53
L3L
sg54
g159
sg55
L7L
sg56
L7L
sg52
g126
sVX
L6L
sg57
g160
sg58
g163
sg59
L0L
sg60
g164
stRp1618
ag1
(g1561
g1508
(dp1619
g51
g178
sVY
L3L
sg53
L3L
sg54
g179
sg55
L1L
sg56
L1L
sg52
g130
sVX
L3L
sg57
g128
sg58
g138
sg59
L0L
sg60
g164
stRp1620
ag1
(g1561
g1508
(dp1621
g51
g194
sVY
L6L
sg53
L4L
sg54
g195
sg55
L8L
sg56
L8L
sg52
g148
sVX
L6L
sg57
g152
sg58
g128
sg59
g138
sg60
g198
stRp1622
ag1
(g1561
g1508
(dp1623
g51
g203
sVY
L9L
sg53
L4L
sg54
g204
sg55
L8L
sg56
L8L
sg52
g152
sVX
L3L
sg57
g126
sg58
g207
sg59
g148
sg60
g198
stRp1624
ag1
(g1561
g1508
(dp1625
g51
g220
sVY
L2L
sg53
L4L
sg54
g221
sg55
L8L
sg56
L8L
sg52
g128
sVX
L3L
sg57
g163
sg58
g148
sg59
g138
sg60
g153
stRp1626
ag1
(g1561
g1508
(dp1627
g51
g146
sVY
L3L
sg53
L4L
sg54
g147
sg55
L2L
sg56
L2L
sg52
g150
sVX
L2L
sg57
g148
sg58
g138
sg59
g152
sg60
g153
stRp1628
ag1
(g1561
g1508
(dp1629
g51
g169
sVY
L7L
sg53
L4L
sg54
g170
sg55
L8L
sg56
L8L
sg52
g148
sVX
L6L
sg57
g128
sg58
g138
sg59
g152
sg60
g173
stRp1630
ag1
(g1561
g1508
(dp1631
g51
g254
sVY
L9L
sg53
L4L
sg54
g255
sg55
L1L
sg56
L1L
sg52
g163
sVX
L9L
sg57
g160
sg58
g138
sg59
g148
sg60
g173
stRp1632
ag1
(g1561
g1508
(dp1633
g51
g237
sVY
L3L
sg53
L4L
sg54
g238
sg55
L6L
sg56
L6L
sg52
g126
sVX
L9L
sg57
g163
sg58
g130
sg59
g160
sg60
g241
stRp1634
ag1
(g1561
g1508
(dp1635
g51
g246
sVY
L4L
sg53
L4L
sg54
g247
sg55
L6L
sg56
L6L
sg52
g148
sVX
L2L
sg57
g163
sg58
g138
sg59
g150
sg60
g241
stRp1636
asg1574
Nsg1575
I2
sg1576
I18
sg1577
I0
sg1578
I18
sbag1
(g1496
g3
NtRp1637
(dp1638
g1499
Nsg1500
(lp1639
sg1502
I329999312
sg10
g1582
sg6
g1504
sg1505
I1
sg24
I01
sg25
g26
sg1506
g1
(g1507
g1508
(dp1640
g22
g1525
(g1526
g1511
g1527
S'b'
tRp1641
(I1
(I18
I1
tg1529
I00
S'\x00\x00\x80?\x00\x00\x80?\x00\x00\x80?\x00\x00\x80?\x00\x00\x00\x00\x00\x00\x00\x00\x00\x00\x00\x00\x00\x00\x80?\x00\x00\x00\x00\x00\x00\x80?\x00\x00\x80?\x00\x00\x00\x00\x00\x00\x00\x00\x00\x00\x80?\x00\x00\x80?\x00\x00\x00\x00\x00\x00\x00\x00\x00\x00\x80?'
S'\x00\x00\x00\x00\x00\x00\x00\x00\x00\x00\x00\x00\x00\x00\x00\x00\x00\x00'
Ntbsg19
g1510
(g1511
(I0
tS'b'
tRp1642
(I1
(I18
I1
tg1514
I00
(lp1643
g378
ag334
ag361
ag323
ag386
ag404
ag370
ag352
ag396
ag312
ag437
ag454
ag429
ag343
ag420
ag446
ag412
ag294
atbsg23
g1525
(g1526
g1511
g1527
S'b'
tRp1644
(I1
(I18
I1
tg1529
I00
S'\x98\xc9\x1b@VjV@9\x88\xbd?\xe8$}@\xa4\x9cxAkb:A\xe7a\x89@\x89\xfa\xa9@\xead\x9d@\xb1\x88\xe7@\xa5\xcd\xdc@\xe9\t\xe6@i}\x10Ay\x0c\x17A x\xe1@\x8b\xf4<A4\xec/A\xfe\xe7\xb4@'
S'\x00\x00\x00\x00\x00\x00\x00\x00\x00\x00\x00\x00\x00\x00\x00\x00\x00\x00'
Ntbsg1524
g1525
(g1526
g1511
g1527
S'b'
tRp1645
(I1
(I18
I1
tg1529
I00
S'\x00\x00\x80?\x00\x00\x80?\x00\x00\x80?\x00\x00\x80?\x00\x00\x80?\x00\x00\x80?\x00\x00\x80?\x00\x00\x80?\x00\x00\x80?\x00\x00\x80?\x00\x00\x80?\x00\x00\x80?\x00\x00\x80?\x00\x00\x80?\x00\x00\x80?\x00\x00\x80?\x00\x00\x80?\x00\x00\x80?'
S'\x00\x00\x00\x00\x00\x00\x00\x00\x00\x00\x00\x00\x00\x00\x00\x00\x00\x00'
Ntbsg21
g1510
(g1511
(I0
tS'b'
tRp1646
(I1
(I18
I1
tg1514
I00
(lp1647
S'7'
aS'2'
aS'8'
aS'8'
aS'3'
aS'3'
aS'1'
aS'2'
aS'7'
aS'1'
aS'2'
aS'1'
aS'2'
aS'4'
aS'7'
aS'1'
aS'2'
aS'3'
atbsg1539
g1525
(g1526
g1511
g1527
S'b'
tRp1648
(I1
(I18
I1
tg1529
I00
S'\x00\x00\x00A\x00\x00@@\x00\x00\xc0@\x00\x00\x00@\x00\x00\x10A\x00\x000A\x00\x00\xe0@\x00\x00\xa0@\x00\x00 A\x00\x00\x80?\x00\x00pA\x00\x00\x88A\x00\x00`A\x00\x00\x80@\x00\x00PA\x00\x00\x80A\x00\x00@A\x00\x00\x00\x00'
S'\x00\x00\x00\x00\x00\x00\x00\x00\x00\x00\x00\x00\x00\x00\x00\x00\x00\x00'
Ntbsg20
g1525
(g1526
g1511
g1527
S'b'
tRp1649
(I1
(I18
I1
tg1529
I00
S'P\x1dn@\x1c\x81\x83?\xa6\x80z?\x03\x18\xff?\x97\xf1\x8b@\xb7F\x94@YV\xd1?c\xe6\x18@\x9e\x1d\x9c?\x14Q\xa6?\x14y\xb7@\x03\xa5\x10@\x0e\xe2\xf1?\xfe\x15&@1\xe1n@im\xf8@e%\x02AKQ\x1bA'
S'\x00\x00\x00\x00\x00\x00\x00\x00\x00\x00\x00\x00\x00\x00\x00\x00\x00\x00'
NtbstRp1650
(dp1651
g1544
(dp1652
g1524
I01
sg21
I00
sg20
I01
sg22
I01
sg19
I00
sg23
I01
sg1539
I01
ssg1546
g1637
sg1547
(lp1653
g1524
ag1539
ag19
ag20
ag21
ag22
ag23
asg1549
(lp1654
I18
aI1
asbsg1551
g1552
sg1553
g1510
(g1511
(I0
tS'b'
tRp1655
(I1
(I18
I1
tg1514
I00
(lp1656
I17
aI9
aI3
aI1
aI13
aI7
aI2
aI6
aI0
aI4
aI8
aI5
aI16
aI14
aI12
aI10
aI15
aI11
atbsg1556
I01
sg1557
I1
sg1558
I-1
sg1559
(lp1657
g1
(g1561
g1508
(dp1658
g287
g376
sVY
L6L
sg289
L2L
sg290
g377
sg298
L7L
sg295
L7L
sg296
g315
sVX
L3L
sg292
L0L
sg300
g362
sg302
L0L
sg304
g336
stRp1659
ag1
(g1561
g1508
(dp1660
g287
g332
sVY
L4L
sg289
L2L
sg290
g333
sg298
L2L
sg295
L2L
sg296
g313
sVX
L5L
sg292
L0L
sg300
g303
sg302
L0L
sg304
g336
stRp1661
ag1
(g1561
g1508
(dp1662
g287
g359
sVY
L2L
sg289
L2L
sg290
g360
sg298
L8L
sg295
L8L
sg296
g362
sVX
L2L
sg292
L0L
sg300
g326
sg302
L0L
sg304
g327
stRp1663
ag1
(g1561
g1508
(dp1664
g287
g321
sVY
L2L
sg289
L2L
sg290
g322
sg298
L8L
sg295
L8L
sg296
g324
sVX
L2L
sg292
L0L
sg300
g326
sg302
L0L
sg304
g327
stRp1665
ag1
(g1561
g1508
(dp1666
g287
g384
sVY
L3L
sg289
L3L
sg290
g385
sg298
L4L
sg295
L4L
sg296
g301
sVX
L8L
sg292
g293
sg300
g388
sg302
L0L
sg304
g389
stRp1667
ag1
(g1561
g1508
(dp1668
g287
g402
sVY
L2L
sg289
L3L
sg290
g403
sg298
L4L
sg295
L4L
sg296
g315
sVX
L3L
sg292
g326
sg300
g324
sg302
L0L
sg304
g389
stRp1669
ag1
(g1561
g1508
(dp1670
g287
g368
sVY
L2L
sg289
L3L
sg290
g369
sg298
L9L
sg295
L9L
sg296
g362
sVX
L2L
sg292
g301
sg300
g313
sg302
L0L
sg304
g354
stRp1671
ag1
(g1561
g1508
(dp1672
g287
g350
sVY
L2L
sg289
L3L
sg290
g351
sg298
L2L
sg295
L2L
sg296
g303
sVX
L9L
sg292
g315
sg300
g313
sg302
L0L
sg304
g354
stRp1673
ag1
(g1561
g1508
(dp1674
g287
g394
sVY
L4L
sg289
L3L
sg290
g395
sg298
L5L
sg295
L5L
sg296
g301
sVX
L8L
sg292
g388
sg300
g297
sg302
L0L
sg304
g316
stRp1675
ag1
(g1561
g1508
(dp1676
g287
g310
sVY
L6L
sg289
L3L
sg290
g311
sg298
L1L
sg295
L1L
sg296
g313
sVX
L8L
sg292
g303
sg300
g315
sg302
L0L
sg304
g316
stRp1677
ag1
(g1561
g1508
(dp1678
g287
g435
sVY
L3L
sg289
L4L
sg290
g436
sg298
L2L
sg295
L2L
sg296
g326
sVX
L6L
sg292
g313
sg300
g388
sg302
g315
sg304
g439
stRp1679
ag1
(g1561
g1508
(dp1680
g287
g452
sVY
L2L
sg289
L4L
sg290
g453
sg298
L8L
sg295
L8L
sg296
g313
sVX
L2L
sg292
g293
sg300
g324
sg302
g301
sg304
g439
stRp1681
ag1
(g1561
g1508
(dp1682
g287
g427
sVY
L3L
sg289
L4L
sg290
g428
sg298
L3L
sg295
L3L
sg296
g388
sVX
L4L
sg292
g301
sg300
g313
sg302
g293
sg304
g345
stRp1683
ag1
(g1561
g1508
(dp1684
g287
g341
sVY
L3L
sg289
L4L
sg290
g342
sg298
L4L
sg295
L4L
sg296
g324
sVX
L7L
sg292
g293
sg300
g315
sg302
g313
sg304
g345
stRp1685
ag1
(g1561
g1508
(dp1686
g287
g418
sVY
L4L
sg289
L4L
sg290
g419
sg298
L7L
sg295
L7L
sg296
g313
sVX
L8L
sg292
g362
sg300
g315
sg302
g326
sg304
g422
stRp1687
ag1
(g1561
g1508
(dp1688
g287
g444
sVY
L3L
sg289
L4L
sg290
g445
sg298
L6L
sg295
L6L
sg296
g326
sVX
L5L
sg292
g303
sg300
g301
sg302
g297
sg304
g422
stRp1689
ag1
(g1561
g1508
(dp1690
g287
g410
sVY
L2L
sg289
L4L
sg290
g411
sg298
L8L
sg295
L8L
sg296
g301
sVX
L4L
sg292
g293
sg300
g297
sg302
g362
sg304
g305
stRp1691
ag1
(g1561
g1508
(dp1692
g287
g288
sVY
L5L
sg289
L4L
sg290
g291
sg298
L3L
sg295
L3L
sg296
g297
sVX
L9L
sg292
g293
sg300
g301
sg302
g303
sg304
g305
stRp1693
asg1574
Nsg1575
I11
sg1576
I18
sg1577
I0
sg1578
I18
sbag1
(g1496
g3
NtRp1694
(dp1695
g1499
Nsg1500
(lp1696
sg1502
I329999312
sg10
g1582
sg6
g1504
sg1505
I1
sg24
I01
sg25
g26
sg1506
g1
(g1507
g1508
(dp1697
g22
g1525
(g1526
g1511
g1527
S'b'
tRp1698
(I1
(I18
I1
tg1529
I00
S'\x00\x00\x80?\x00\x00\x80?\x00\x00\x80?\x00\x00\x80?\x00\x00\x00\x00\x00\x00\x00\x00\x00\x00\x00\x00\x00\x00\x80?\x00\x00\x00\x00\x00\x00\x80?\x00\x00\x80?\x00\x00\x00\x00\x00\x00\x80?\x00\x00\x80?\x00\x00\x80?\x00\x00\x00\x00\x00\x00\x80?\x00\x00\x80?'
S'\x00\x00\x00\x00\x00\x00\x00\x00\x00\x00\x00\x00\x00\x00\x00\x00\x00\x00'
Ntbsg19
g1510
(g1511
(I0
tS'b'
tRp1699
(I1
(I18
I1
tg1514
I00
(lp1700
g567
ag609
ag507
ag584
ag576
ag485
ag592
ag618
aNag542
ag526
ag497
ag517
ag601
ag626
ag551
ag534
ag467
atbsg23
g1525
(g1526
g1511
g1527
S'b'
tRp1701
(I1
(I18
I1
tg1529
I00
S'\x1a?$@R!W@\xc2\xd1C@\x1a\xfdN@\x0c\x91@@\xd3\x0f\xfc@\x05W&@\xe8T\x85@\x00\x00\x00\x00\x04D\x87@\xdes\xe6@\xe5|\x8c@\xba`\tAq\x94\xd7@-e\xe2@s\x9c\xd0@eHhA)C\x12A'
S'\x00\x00\x00\x00\x00\x00\x00\x00\x01\x00\x00\x00\x00\x00\x00\x00\x00\x00'
Ntbsg1524
g1525
(g1526
g1511
g1527
S'b'
tRp1702
(I1
(I18
I1
tg1529
I00
S'\x00\x00\x80?\x00\x00\x80?\x00\x00\x80?\x00\x00\x80?\x00\x00\x80?\x00\x00\x80?\x00\x00\x80?\x00\x00\x80?\x00\x00\x80?\x00\x00\x80?\x00\x00\x80?\x00\x00\x80?\x00\x00\x80?\x00\x00\x80?\x00\x00\x80?\x00\x00\x80?\x00\x00\x80?\x00\x00\x80?'
S'\x00\x00\x00\x00\x00\x00\x00\x00\x00\x00\x00\x00\x00\x00\x00\x00\x00\x00'
Ntbsg21
g1510
(g1511
(I0
tS'b'
tRp1703
(I1
(I18
I1
tg1514
I00
(lp1704
S'7'
aS'2'
aS'8'
aS'6'
aS'6'
aS'1'
aS'1'
aS'5'
aNaS'5'
aS'9'
aS'3'
aS'6'
aS'3'
aS'5'
aS'2'
aS'3'
aS'1'
atbsg1539
g1525
(g1526
g1511
g1527
S'b'
tRp1705
(I1
(I18
I1
tg1529
I00
S'\x00\x00 A\x00\x00pA\x00\x00@@\x00\x00@A\x00\x000A\x00\x00\x80?\x00\x00PA\x00\x00\x80A\x00\x00\x10A\x00\x00\xe0@\x00\x00\xa0@\x00\x00\x00@\x00\x00\x80@\x00\x00`A\x00\x00\x88A\x00\x00\x00A\x00\x00\xc0@\x00\x00\x00\x00'
S'\x00\x00\x00\x00\x00\x00\x00\x00\x00\x00\x00\x00\x00\x00\x00\x00\x00\x00'
Ntbsg20
g1525
(g1526
g1511
g1527
S'b'
tRp1706
(I1
(I18
I1
tg1529
I00
S'\xefuO?\x0f\xc8\xa8?\xe5\x15\x8e?\xefY\x9e?W\xee\xb4? \xbe\x8a@.\xdb\x9d?Z\xcb=@\x00\x00\x00\x00ic\x89@\xf5HY@\x82\x8f\xe9@\xf4\x99MA\x08!\xab@\x9bz\xb6@\xa4\x96\xba@bN\xdc@\xb5\x86\xec@'
S'\x00\x00\x00\x00\x00\x00\x00\x00\x01\x00\x00\x00\x00\x00\x00\x00\x00\x00'
NtbstRp1707
(dp1708
g1544
(dp1709
g1524
I01
sg21
I00
sg20
I01
sg22
I01
sg19
I00
sg23
I01
sg1539
I01
ssg1546
g1694
sg1547
(lp1710
g1524
ag1539
ag19
ag20
ag21
ag22
ag23
asg1549
(lp1711
I18
aI1
asbsg1551
g1552
sg1553
g1510
(g1511
(I0
tS'b'
tRp1712
(I1
(I18
I1
tg1514
I00
(lp1713
I17
aI5
aI11
aI2
aI12
aI10
aI16
aI9
aI15
aI8
aI0
aI4
aI3
aI6
aI13
aI1
aI7
aI14
atbsg1556
I01
sg1557
I1
sg1558
I-1
sg1559
(lp1714
g1
(g1561
g1508
(dp1715
g460
g565
sVY
L5L
sg462
L2L
sg463
g566
sg471
L7L
sg468
L7L
sg469
g499
sVX
L3L
sg465
L0L
sg473
g488
sg475
L0L
sg477
g569
stRp1716
ag1
(g1561
g1508
(dp1717
g460
g607
sVY
L4L
sg462
L2L
sg463
g608
sg471
L2L
sg468
L2L
sg469
g499
sVX
L9L
sg465
L0L
sg473
g611
sg475
L0L
sg477
g569
stRp1718
ag1
(g1561
g1508
(dp1719
g460
g505
sVY
L3L
sg462
L2L
sg463
g506
sg471
L8L
sg468
L8L
sg469
g508
sVX
L3L
sg465
L0L
sg473
g499
sg475
L0L
sg477
g510
stRp1720
ag1
(g1561
g1508
(dp1721
g460
g582
sVY
L8L
sg462
L2L
sg463
g583
sg471
L6L
sg468
L6L
sg469
g488
sVX
L4L
sg465
L0L
sg473
g470
sg475
L0L
sg477
g510
stRp1722
ag1
(g1561
g1508
(dp1723
g460
g574
sVY
L5L
sg462
L3L
sg463
g575
sg471
L7L
sg468
L7L
sg469
g496
sVX
L2L
sg465
g499
sg473
g488
sg475
L0L
sg477
g489
stRp1724
ag1
(g1561
g1508
(dp1725
g460
g483
sVY
L2L
sg462
L3L
sg463
g484
sg471
L8L
sg468
L8L
sg469
g486
sVX
L4L
sg465
g470
sg473
g488
sg475
L0L
sg477
g489
stRp1726
ag1
(g1561
g1508
(dp1727
g460
g590
sVY
L3L
sg462
L3L
sg463
g591
sg471
L2L
sg468
L2L
sg469
g476
sVX
L3L
sg465
g466
sg473
g496
sg475
L0L
sg477
g594
stRp1728
ag1
(g1561
g1508
(dp1729
g460
g616
sVY
L3L
sg462
L3L
sg463
g617
sg471
L5L
sg468
L5L
sg469
g488
sVX
L2L
sg465
g470
sg473
g466
sg475
L0L
sg477
g594
stRp1730
ag1
(g1561
g1508
(dp1731
g460
g558
sVY
L4L
sg462
L3L
sg463
g559
sg471
L6L
sg468
L6L
sg469
g474
sVX
L5L
sg465
g488
sg473
g496
sg475
L0L
sg477
g544
stRp1732
ag1
(g1561
g1508
(dp1733
g460
g540
sVY
L3L
sg462
L3L
sg463
g541
sg471
L5L
sg468
L5L
sg469
g466
sVX
L3L
sg465
g508
sg473
g470
sg475
L0L
sg477
g544
stRp1734
ag1
(g1561
g1508
(dp1735
g460
g524
sVY
L4L
sg462
L4L
sg463
g525
sg471
L9L
sg468
L9L
sg469
g499
sVX
L9L
sg465
g474
sg473
g488
sg475
g496
sg477
g500
stRp1736
ag1
(g1561
g1508
(dp1737
g460
g494
sVY
L2L
sg462
L4L
sg463
g495
sg471
L8L
sg468
L8L
sg469
g486
sVX
L2L
sg465
g496
sg473
g488
sg475
g499
sg477
g500
stRp1738
ag1
(g1561
g1508
(dp1739
g460
g515
sVY
L6L
sg462
L4L
sg463
g516
sg471
L6L
sg468
L6L
sg469
g488
sVX
L6L
sg465
g474
sg473
g499
sg475
g470
sg477
g519
stRp1740
ag1
(g1561
g1508
(dp1741
g460
g599
sVY
L2L
sg462
L4L
sg463
g600
sg471
L3L
sg468
L3L
sg469
g476
sVX
L9L
sg465
g496
sg473
g499
sg475
g474
sg477
g519
stRp1742
ag1
(g1561
g1508
(dp1743
g460
g624
sVY
L3L
sg462
L4L
sg463
g625
sg471
L5L
sg468
L5L
sg469
g496
sVX
L3L
sg465
g508
sg473
g499
sg475
g474
sg477
g553
stRp1744
ag1
(g1561
g1508
(dp1745
g460
g549
sVY
L3L
sg462
L4L
sg463
g550
sg471
L8L
sg468
L8L
sg469
g486
sVX
L3L
sg465
g476
sg473
g499
sg475
g496
sg477
g553
stRp1746
ag1
(g1561
g1508
(dp1747
g460
g532
sVY
L4L
sg462
L4L
sg463
g533
sg471
L3L
sg468
L3L
sg469
g470
sVX
L3L
sg465
g474
sg473
g466
sg475
g508
sg477
g478
stRp1748
ag1
(g1561
g1508
(dp1749
g460
g461
sVY
L2L
sg462
L4L
sg463
g464
sg471
L1L
sg468
L1L
sg469
g470
sVX
L7L
sg465
g466
sg473
g474
sg475
g476
sg477
g478
stRp1750
asg1574
Nsg1575
I14
sg1576
I18
sg1577
I0
sg1578
I18
sbag1
(g1496
g3
NtRp1751
(dp1752
g1499
Nsg1500
(lp1753
sg1502
I329999312
sg10
g1582
sg6
g1504
sg1505
I1
sg24
I01
sg25
g26
sg1506
g1
(g1507
g1508
(dp1754
g22
g1525
(g1526
g1511
g1527
S'b'
tRp1755
(I1
(I18
I1
tg1529
I00
S'\x00\x00\x80?\x00\x00\x80?\x00\x00\x80?\x00\x00\x80?\x00\x00\x80?\x00\x00\x00\x00\x00\x00\x80?\x00\x00\x80?\x00\x00\x80?\x00\x00\x00\x00\x00\x00\x80?\x00\x00\x80?\x00\x00\x00\x00\x00\x00\x00\x00\x00\x00\x80?\x00\x00\x80?\x00\x00\x00\x00\x00\x00\x00\x00'
S'\x00\x00\x00\x00\x00\x00\x00\x00\x00\x00\x00\x00\x00\x00\x00\x00\x00\x00'
Ntbsg19
g1510
(g1511
(I0
tS'b'
tRp1756
(I1
(I18
I1
tg1514
I00
(lp1757
g765
ag791
ag696
ag733
ag705
ag757
ag782
ag799
ag749
ag639
ag687
ag657
ag741
ag724
ag679
ag669
ag715
ag774
atbsg23
g1525
(g1526
g1511
g1527
S'b'
tRp1758
(I1
(I18
I1
tg1529
I00
S'\x11\xfa\xf9?W\xae\xac?\x8f\xde\xd9?E\xad\x18@=\xfdv@\xb71\x82@\xb2\xa4j@t\x10\x82@\xb8x-@\x14\xc1\xc7@\xb3\n\tA\x86\xe6\xdb@\xdbJiA;\x9cE@&\x90\xc3@\x87I\x9b@fc\x0eA\x99_\x8a@'
S'\x00\x00\x00\x00\x00\x00\x00\x00\x00\x00\x00\x00\x00\x00\x00\x00\x00\x00'
Ntbsg1524
g1525
(g1526
g1511
g1527
S'b'
tRp1759
(I1
(I18
I1
tg1529
I00
S'\x00\x00\x80?\x00\x00\x80?\x00\x00\x80?\x00\x00\x80?\x00\x00\x80?\x00\x00\x80?\x00\x00\x80?\x00\x00\x80?\x00\x00\x80?\x00\x00\x80?\x00\x00\x80?\x00\x00\x80?\x00\x00\x80?\x00\x00\x80?\x00\x00\x80?\x00\x00\x80?\x00\x00\x80?\x00\x00\x80?'
S'\x00\x00\x00\x00\x00\x00\x00\x00\x00\x00\x00\x00\x00\x00\x00\x00\x00\x00'
Ntbsg21
g1510
(g1511
(I0
tS'b'
tRp1760
(I1
(I18
I1
tg1514
I00
(lp1761
S'1'
aS'4'
aS'9'
aS'6'
aS'6'
aS'2'
aS'8'
aS'2'
aS'1'
aS'2'
aS'1'
aS'2'
aS'2'
aS'1'
aS'7'
aS'1'
aS'3'
aS'9'
atbsg1539
g1525
(g1526
g1511
g1527
S'b'
tRp1762
(I1
(I18
I1
tg1529
I00
S'\x00\x00PA\x00\x00\x80A\x00\x00\xa0@\x00\x00\x10A\x00\x00\xc0@\x00\x00@A\x00\x00pA\x00\x00\x88A\x00\x000A\x00\x00\x00\x00\x00\x00\x80@\x00\x00\x80?\x00\x00 A\x00\x00\x00A\x00\x00@@\x00\x00\x00@\x00\x00\xe0@\x00\x00`A'
S'\x00\x00\x00\x00\x00\x00\x00\x00\x00\x00\x00\x00\x00\x00\x00\x00\x00\x00'
Ntbsg20
g1525
(g1526
g1511
g1527
S'b'
tRp1763
(I1
(I18
I1
tg1529
I00
S'(\x1fR?{\xc4n?p\xdb]?\xa3\xb0\xcf?\x99\x96\xf2?\xde\x00\x1b@c\x13\xb4?\xee^\x89?\x17\x94\x05@_q\xaa?b\xf5>@\xb2h.@\xe1\xb2\x82@tI\xc3@\x05\xc0\xd7@\xf1\xbe\xdc@\xbb\xec\x1e@)k\xd5?'
S'\x00\x00\x00\x00\x00\x00\x00\x00\x00\x00\x00\x00\x00\x00\x00\x00\x00\x00'
NtbstRp1764
(dp1765
g1544
(dp1766
g1524
I01
sg21
I00
sg20
I01
sg22
I01
sg19
I00
sg23
I01
sg1539
I01
ssg1546
g1751
sg1547
(lp1767
g1524
ag1539
ag19
ag20
ag21
ag22
ag23
asg1549
(lp1768
I18
aI1
asbsg1551
g1552
sg1553
g1510
(g1511
(I0
tS'b'
tRp1769
(I1
(I18
I1
tg1514
I00
(lp1770
I9
aI11
aI15
aI14
aI10
aI2
aI4
aI16
aI13
aI3
aI12
aI8
aI5
aI0
aI17
aI6
aI1
aI7
atbsg1556
I01
sg1557
I1
sg1558
I-1
sg1559
(lp1771
g1
(g1561
g1508
(dp1772
g632
g763
sVY
L2L
sg634
L2L
sg635
g764
sg643
L1L
sg640
L1L
sg641
g656
sVX
L9L
sg637
L0L
sg645
g668
sg647
L0L
sg648
g767
stRp1773
ag1
(g1561
g1508
(dp1774
g632
g789
sVY
L4L
sg634
L2L
sg635
g790
sg643
L4L
sg640
L4L
sg641
g656
sVX
L3L
sg637
L0L
sg645
g638
sg647
L0L
sg648
g767
stRp1775
ag1
(g1561
g1508
(dp1776
g632
g694
sVY
L4L
sg634
L2L
sg635
g695
sg643
L9L
sg640
L9L
sg641
g638
sVX
L2L
sg637
L0L
sg645
g670
sg647
L0L
sg648
g698
stRp1777
ag1
(g1561
g1508
(dp1778
g632
g731
sVY
L6L
sg634
L2L
sg635
g732
sg643
L6L
sg640
L6L
sg641
g668
sVX
L8L
sg637
L0L
sg645
g646
sg647
L0L
sg648
g698
stRp1779
ag1
(g1561
g1508
(dp1780
g632
g703
sVY
L4L
sg634
L3L
sg635
g704
sg643
L6L
sg640
L6L
sg641
g658
sVX
L6L
sg637
g642
sg645
g707
sg647
L0L
sg648
g708
stRp1781
ag1
(g1561
g1508
(dp1782
g632
g755
sVY
L9L
sg634
L3L
sg635
g756
sg643
L7L
sg640
L7L
sg641
g660
sVX
L9L
sg637
g658
sg645
g668
sg647
L0L
sg648
g708
stRp1783
ag1
(g1561
g1508
(dp1784
g632
g780
sVY
L4L
sg634
L3L
sg635
g781
sg643
L8L
sg640
L8L
sg641
g638
sVX
L3L
sg637
g656
sg645
g660
sg647
L0L
sg648
g784
stRp1785
ag1
(g1561
g1508
(dp1786
g632
g797
sVY
L2L
sg634
L3L
sg635
g798
sg643
L2L
sg640
L2L
sg641
g689
sVX
L4L
sg637
g642
sg645
g670
sg647
L0L
sg648
g784
stRp1787
ag1
(g1561
g1508
(dp1788
g632
g747
sVY
L2L
sg634
L3L
sg635
g748
sg643
L1L
sg640
L1L
sg641
g642
sVX
L8L
sg637
g689
sg645
g658
sg647
L0L
sg648
g649
stRp1789
ag1
(g1561
g1508
(dp1790
g632
g633
sVY
L3L
sg634
L3L
sg635
g636
sg643
L9L
sg640
L9L
sg641
g642
sVX
L2L
sg637
g638
sg645
g646
sg647
L0L
sg648
g649
stRp1791
ag1
(g1561
g1508
(dp1792
g632
g685
sVY
L3L
sg634
L4L
sg635
g686
sg643
L1L
sg640
L1L
sg641
g658
sVX
L6L
sg637
g656
sg645
g689
sg647
g660
sg648
g661
stRp1793
ag1
(g1561
g1508
(dp1794
g632
g654
sVY
L2L
sg634
L4L
sg635
g655
sg643
L2L
sg640
L2L
sg641
g658
sVX
L3L
sg637
g656
sg645
g638
sg647
g660
sg648
g661
stRp1795
ag1
(g1561
g1508
(dp1796
g632
g739
sVY
L9L
sg634
L4L
sg635
g740
sg643
L1L
sg640
L1L
sg641
g689
sVX
L3L
sg637
g646
sg645
g658
sg647
g660
sg648
g726
stRp1797
ag1
(g1561
g1508
(dp1798
g632
g722
sVY
L3L
sg634
L4L
sg635
g723
sg643
L3L
sg640
L3L
sg641
g668
sVX
L6L
sg637
g670
sg645
g646
sg647
g642
sg648
g726
stRp1799
ag1
(g1561
g1508
(dp1800
g632
g677
sVY
L2L
sg634
L4L
sg635
g678
sg643
L7L
sg640
L7L
sg641
g642
sVX
L2L
sg637
g638
sg645
g670
sg647
g646
sg648
g672
stRp1801
ag1
(g1561
g1508
(dp1802
g632
g666
sVY
L2L
sg634
L4L
sg635
g667
sg643
L1L
sg640
L1L
sg641
g670
sVX
L8L
sg637
g668
sg645
g656
sg647
g642
sg648
g672
stRp1803
ag1
(g1561
g1508
(dp1804
g632
g713
sVY
L2L
sg634
L4L
sg635
g714
sg643
L5L
sg640
L5L
sg641
g642
sVX
L2L
sg637
g646
sg645
g658
sg647
g707
sg648
g717
stRp1805
ag1
(g1561
g1508
(dp1806
g632
g772
sVY
L2L
sg634
L4L
sg635
g773
sg643
L7L
sg640
L7L
sg641
g646
sVX
L2L
sg637
g642
sg645
g670
sg647
g707
sg648
g717
stRp1807
asg1574
Nsg1575
I7
sg1576
I18
sg1577
I0
sg1578
I18
sbag1
(g1496
g3
NtRp1808
(dp1809
g1499
Nsg1500
(lp1810
sg1502
I329999312
sg10
g1582
sg6
g1504
sg1505
I1
sg24
I01
sg25
g26
sg1506
g1
(g1507
g1508
(dp1811
g22
g1525
(g1526
g1511
g1527
S'b'
tRp1812
(I1
(I18
I1
tg1529
I00
S'\x00\x00\x80?\x00\x00\x80?\x00\x00\x80?\x00\x00\x80?\x00\x00\x80?\x00\x00\x00\x00\x00\x00\x80?\x00\x00\x80?\x00\x00\x80?\x00\x00\x80?\x00\x00\x80?\x00\x00\x80?\x00\x00\x80?\x00\x00\x80?\x00\x00\x80?\x00\x00\x80?\x00\x00\x80?\x00\x00\x80?'
S'\x00\x00\x00\x00\x00\x00\x00\x00\x00\x00\x00\x00\x00\x00\x00\x00\x00\x00'
Ntbsg19
g1510
(g1511
(I0
tS'b'
tRp1813
(I1
(I18
I1
tg1514
I00
(lp1814
g923
ag948
ag887
ag897
ag932
ag860
ag812
ag841
ag851
ag879
ag972
ag830
ag870
ag964
ag914
ag956
ag905
ag940
atbsg23
g1525
(g1526
g1511
g1527
S'b'
tRp1815
(I1
(I18
I1
tg1529
I00
S'\x88\xf6\x1b@9\xa5\x0e@\x9e\x18&@\xd4\xf1\xb2?d:\xeb@\xb2\xf8u@Ar/AHC\x1bA\ti\xb1@_\x12\x93@+\xbb\xd3@\xd1\x96\xad@\xca\x1c\x19A\x18\x96\x01A\xdc\x83[@\xb9\x91\tA\xeb\xe0\xe1@A]\x0bA'
S'\x00\x00\x00\x00\x00\x00\x00\x00\x00\x00\x00\x00\x00\x00\x00\x00\x00\x00'
Ntbsg1524
g1525
(g1526
g1511
g1527
S'b'
tRp1816
(I1
(I18
I1
tg1529
I00
S'\x00\x00\x80?\x00\x00\x80?\x00\x00\x80?\x00\x00\x80?\x00\x00\x80?\x00\x00\x80?\x00\x00\x80?\x00\x00\x80?\x00\x00\x80?\x00\x00\x80?\x00\x00\x80?\x00\x00\x80?\x00\x00\x80?\x00\x00\x80?\x00\x00\x80?\x00\x00\x80?\x00\x00\x80?\x00\x00\x80?'
S'\x00\x00\x00\x00\x00\x00\x00\x00\x00\x00\x00\x00\x00\x00\x00\x00\x00\x00'
Ntbsg21
g1510
(g1511
(I0
tS'b'
tRp1817
(I1
(I18
I1
tg1514
I00
(lp1818
S'7'
aS'9'
aS'2'
aS'5'
aS'9'
aS'4'
aS'8'
aS'3'
aS'9'
aS'6'
aS'5'
aS'9'
aS'5'
aS'7'
aS'6'
aS'9'
aS'5'
aS'5'
atbsg1539
g1525
(g1526
g1511
g1527
S'b'
tRp1819
(I1
(I18
I1
tg1529
I00
S'\x00\x000A\x00\x00`A\x00\x00\xe0@\x00\x00\x00A\x00\x00@A\x00\x00\x80@\x00\x00\x00\x00\x00\x00\x00@\x00\x00@@\x00\x00\xc0@\x00\x00\x88A\x00\x00\x80?\x00\x00\xa0@\x00\x00\x80A\x00\x00 A\x00\x00pA\x00\x00\x10A\x00\x00PA'
S'\x00\x00\x00\x00\x00\x00\x00\x00\x00\x00\x00\x00\x00\x00\x00\x00\x00\x00'
Ntbsg20
g1525
(g1526
g1511
g1527
S'b'
tRp1820
(I1
(I18
I1
tg1529
I00
S'\x07\xfd\x9b?\xf5\xd5v?_\x9a,?\xc0\x1bf?\x9b\x0f\x90?\xc1\xcf\x00A\x94*\xad?v\xe3\xb6?\x90\xaa\x18@\xbf\x90Y@\x81\x99*ATf\x03@\xbe*w@d\xa0\xc0?\x9a|\xfb@\xbaf\xfc?\xc0\xb4h@\xd6\xf8\xa6@'
S'\x00\x00\x00\x00\x00\x00\x00\x00\x00\x00\x00\x00\x00\x00\x00\x00\x00\x00'
NtbstRp1821
(dp1822
g1544
(dp1823
g1524
I01
sg21
I00
sg20
I01
sg22
I01
sg19
I00
sg23
I01
sg1539
I01
ssg1546
g1808
sg1547
(lp1824
g1524
ag1539
ag19
ag20
ag21
ag22
ag23
asg1549
(lp1825
I18
aI1
asbsg1551
g1552
sg1553
g1510
(g1511
(I0
tS'b'
tRp1826
(I1
(I18
I1
tg1514
I00
(lp1827
I6
aI11
aI7
aI8
aI5
aI12
aI9
aI2
aI3
aI16
aI14
aI0
aI4
aI17
aI1
aI15
aI13
aI10
atbsg1556
I01
sg1557
I1
sg1558
I-1
sg1559
(lp1828
g1
(g1561
g1508
(dp1829
g805
g921
sVY
L5L
sg807
L2L
sg808
g922
sg816
L7L
sg813
L7L
sg814
g819
sVX
L4L
sg810
L0L
sg818
g850
sg820
L0L
sg821
g925
stRp1830
ag1
(g1561
g1508
(dp1831
g805
g946
sVY
L3L
sg807
L2L
sg808
g947
sg816
L9L
sg813
L9L
sg814
g840
sVX
L4L
sg810
L0L
sg818
g862
sg820
L0L
sg821
g925
stRp1832
ag1
(g1561
g1508
(dp1833
g805
g885
sVY
L8L
sg807
L2L
sg808
g886
sg816
L2L
sg813
L2L
sg814
g842
sVX
L8L
sg810
L0L
sg818
g889
sg820
L0L
sg821
g890
stRp1834
ag1
(g1561
g1508
(dp1835
g805
g895
sVY
L2L
sg807
L2L
sg808
g896
sg816
L5L
sg813
L5L
sg814
g842
sVX
L8L
sg810
L0L
sg818
g829
sg820
L0L
sg821
g890
stRp1836
ag1
(g1561
g1508
(dp1837
g805
g930
sVY
L2L
sg807
L3L
sg808
g931
sg816
L9L
sg813
L9L
sg814
g840
sVX
L7L
sg810
g811
sg818
g842
sg820
L0L
sg821
g863
stRp1838
ag1
(g1561
g1508
(dp1839
g805
g858
sVY
L2L
sg807
L3L
sg808
g859
sg816
L3L
sg813
L3L
sg814
g829
sVX
L8L
sg810
g819
sg818
g862
sg820
L0L
sg821
g863
stRp1840
ag1
(g1561
g1508
(dp1841
g805
g806
sVY
L2L
sg807
L3L
sg808
g809
sg816
L8L
sg813
L8L
sg814
g815
sVX
L9L
sg810
g811
sg818
g819
sg820
L0L
sg821
g822
stRp1842
ag1
(g1561
g1508
(dp1843
g805
g838
sVY
L3L
sg807
L3L
sg808
g839
sg816
L3L
sg813
L3L
sg814
g842
sVX
L2L
sg810
g840
sg818
g829
sg820
L0L
sg821
g822
stRp1844
ag1
(g1561
g1508
(dp1845
g805
g848
sVY
L3L
sg807
L3L
sg808
g849
sg816
L9L
sg813
L9L
sg814
g819
sVX
L3L
sg810
g850
sg818
g840
sg820
L0L
sg821
g853
stRp1846
ag1
(g1561
g1508
(dp1847
g805
g877
sVY
L2L
sg807
L3L
sg808
g878
sg816
L6L
sg813
L6L
sg814
g829
sVX
L3L
sg810
g862
sg818
g840
sg820
L0L
sg821
g853
stRp1848
ag1
(g1561
g1508
(dp1849
g805
g970
sVY
L4L
sg807
L4L
sg808
g971
sg816
L5L
sg813
L5L
sg814
g889
sVX
L3L
sg810
g829
sg818
g842
sg820
g840
sg821
g833
stRp1850
ag1
(g1561
g1508
(dp1851
g805
g827
sVY
L9L
sg807
L4L
sg808
g828
sg816
L9L
sg813
L9L
sg814
g819
sVX
L3L
sg810
g829
sg818
g815
sg820
g832
sg821
g833
stRp1852
ag1
(g1561
g1508
(dp1853
g805
g868
sVY
L4L
sg807
L4L
sg808
g869
sg816
L5L
sg813
L5L
sg814
g862
sVX
L5L
sg810
g811
sg818
g819
sg820
g840
sg821
g872
stRp1854
ag1
(g1561
g1508
(dp1855
g805
g962
sVY
L2L
sg807
L4L
sg808
g963
sg816
L7L
sg813
L7L
sg814
g815
sVX
L2L
sg810
g840
sg818
g829
sg820
g819
sg821
g872
stRp1856
ag1
(g1561
g1508
(dp1857
g805
g912
sVY
L4L
sg807
L4L
sg808
g913
sg816
L6L
sg813
L6L
sg814
g889
sVX
L4L
sg810
g862
sg818
g840
sg820
g829
sg821
g916
stRp1858
ag1
(g1561
g1508
(dp1859
g805
g954
sVY
L8L
sg807
L4L
sg808
g955
sg816
L9L
sg813
L9L
sg814
g829
sVX
L8L
sg810
g842
sg818
g840
sg820
g889
sg821
g916
stRp1860
ag1
(g1561
g1508
(dp1861
g805
g903
sVY
L4L
sg807
L4L
sg808
g904
sg816
L5L
sg813
L5L
sg814
g832
sVX
L5L
sg810
g889
sg818
g811
sg820
g850
sg821
g907
stRp1862
ag1
(g1561
g1508
(dp1863
g805
g938
sVY
L4L
sg807
L4L
sg808
g939
sg816
L5L
sg813
L5L
sg814
g829
sVX
L7L
sg810
g819
sg818
g832
sg820
g815
sg821
g907
stRp1864
asg1574
Nsg1575
I10
sg1576
I18
sg1577
I0
sg1578
I18
sbag1
(g1496
g3
NtRp1865
(dp1866
g1499
Nsg1500
(lp1867
sg1502
I329999312
sg10
g1582
sg6
g1504
sg1505
I1
sg24
I01
sg25
g26
sg1506
g1
(g1507
g1508
(dp1868
g22
g1525
(g1526
g1511
g1527
S'b'
tRp1869
(I1
(I18
I1
tg1529
I00
S'\x00\x00\x80?\x00\x00\x80?\x00\x00\x80?\x00\x00\x80?\x00\x00\x80?\x00\x00\x80?\x00\x00\x80?\x00\x00\x80?\x00\x00\x80?\x00\x00\x80?\x00\x00\x00\x00\x00\x00\x80?\x00\x00\x00\x00\x00\x00\x80?\x00\x00\x80?\x00\x00\x80?\x00\x00\x80?\x00\x00\x80?'
S'\x00\x00\x00\x00\x00\x00\x00\x00\x00\x00\x00\x00\x00\x00\x00\x00\x00\x00'
Ntbsg19
g1510
(g1511
(I0
tS'b'
tRp1870
(I1
(I18
I1
tg1514
I00
(lp1871
g1071
ag1122
ag1061
ag1146
ag1014
ag1088
ag1114
ag985
ag1130
ag1105
ag1023
ag1080
ag1096
ag1034
ag1138
ag1052
ag1044
ag1003
atbsg23
g1525
(g1526
g1511
g1527
S'b'
tRp1872
(I1
(I18
I1
tg1529
I00
S'\x15\xa0\x0b@\xd3\xe5\x1b@\xe8\xa2\xac?\x06\x19\xd7?\xcd\x1dM@\x1c\xc4\xc5@\xb0\n#@\xb17\xac@\x9c\xc0g@\xf1\xd9\x12@\xa6^\x86@\x9d\x88\x1eA\xdc\xa3\x0bA2|\xe1@\x88\x8f\xab@\x8b:\xdf@\xbc\xe1\x16A\xf1\x03\xe8@'
S'\x00\x00\x00\x00\x00\x00\x00\x00\x00\x00\x00\x00\x00\x00\x00\x00\x00\x00'
Ntbsg1524
g1525
(g1526
g1511
g1527
S'b'
tRp1873
(I1
(I18
I1
tg1529
I00
S'\x00\x00\x80?\x00\x00\x80?\x00\x00\x80?\x00\x00\x80?\x00\x00\x80?\x00\x00\x80?\x00\x00\x80?\x00\x00\x80?\x00\x00\x80?\x00\x00\x80?\x00\x00\x80?\x00\x00\x80?\x00\x00\x80?\x00\x00\x80?\x00\x00\x80?\x00\x00\x80?\x00\x00\x80?\x00\x00\x80?'
S'\x00\x00\x00\x00\x00\x00\x00\x00\x00\x00\x00\x00\x00\x00\x00\x00\x00\x00'
Ntbsg21
g1510
(g1511
(I0
tS'b'
tRp1874
(I1
(I18
I1
tg1514
I00
(lp1875
S'8'
aS'2'
aS'2'
aS'8'
aS'1'
aS'2'
aS'1'
aS'2'
aS'8'
aS'6'
aS'9'
aS'1'
aS'6'
aS'7'
aS'3'
aS'6'
aS'5'
aS'4'
atbsg1539
g1525
(g1526
g1511
g1527
S'b'
tRp1876
(I1
(I18
I1
tg1529
I00
S'\x00\x00\x00A\x00\x00`A\x00\x00\xe0@\x00\x00\x88A\x00\x00\x00@\x00\x00 A\x00\x00PA\x00\x00\x00\x00\x00\x00pA\x00\x00@A\x00\x00@@\x00\x00\x10A\x00\x000A\x00\x00\x80@\x00\x00\x80A\x00\x00\xc0@\x00\x00\xa0@\x00\x00\x80?'
S'\x00\x00\x00\x00\x00\x00\x00\x00\x00\x00\x00\x00\x00\x00\x00\x00\x00\x00'
Ntbsg20
g1525
(g1526
g1511
g1527
S'b'
tRp1877
(I1
(I18
I1
tg1529
I00
S'\xca\xb2j?\x13\xda\x97?\x8c\xcfj?\x01/B?\x9d\x16\xb5?\xd0\xe2\x17@\xad\xdd\x9c@\xca\xb4\xf4@\x99\x15L@,yi@\xe5\xa5\x99@\x8f\xe3\xa7@\x94\xc5t@\x15f\xa8?\xd4\xb77@\xcb0\xbe@\x9e[9@\xfe\\ZA'
S'\x00\x00\x00\x00\x00\x00\x00\x00\x00\x00\x00\x00\x00\x00\x00\x00\x00\x00'
NtbstRp1878
(dp1879
g1544
(dp1880
g1524
I01
sg21
I00
sg20
I01
sg22
I01
sg19
I00
sg23
I01
sg1539
I01
ssg1546
g1865
sg1547
(lp1881
g1524
ag1539
ag19
ag20
ag21
ag22
ag23
asg1549
(lp1882
I18
aI1
asbsg1551
g1552
sg1553
g1510
(g1511
(I0
tS'b'
tRp1883
(I1
(I18
I1
tg1514
I00
(lp1884
I7
aI17
aI4
aI10
aI13
aI16
aI15
aI2
aI0
aI11
aI5
aI12
aI9
aI6
aI1
aI8
aI14
aI3
atbsg1556
I01
sg1557
I1
sg1558
I-1
sg1559
(lp1885
g1
(g1561
g1508
(dp1886
g978
g1069
sVY
L4L
sg980
L2L
sg981
g1070
sg989
L8L
sg986
L8L
sg987
g1006
sVX
L2L
sg983
L0L
sg991
g1025
sg993
L0L
sg994
g1073
stRp1887
ag1
(g1561
g1508
(dp1888
g978
g1120
sVY
L6L
sg980
L2L
sg981
g1121
sg989
L2L
sg986
L2L
sg987
g1006
sVX
L6L
sg983
L0L
sg991
g988
sg993
L0L
sg994
g1073
stRp1889
ag1
(g1561
g1508
(dp1890
g978
g1059
sVY
L7L
sg980
L2L
sg981
g1060
sg989
L2L
sg986
L2L
sg987
g1062
sVX
L8L
sg983
L0L
sg991
g1006
sg993
L0L
sg994
g1064
stRp1891
ag1
(g1561
g1508
(dp1892
g978
g1144
sVY
L4L
sg980
L2L
sg981
g1145
sg989
L8L
sg986
L8L
sg987
g1035
sVX
L4L
sg983
L0L
sg991
g1026
sg993
L0L
sg994
g1064
stRp1893
ag1
(g1561
g1508
(dp1894
g978
g1012
sVY
L4L
sg980
L3L
sg981
g1013
sg989
L1L
sg986
L1L
sg987
g1006
sVX
L6L
sg983
g984
sg991
g988
sg993
L0L
sg994
g1016
stRp1895
ag1
(g1561
g1508
(dp1896
g978
g1086
sVY
L4L
sg980
L3L
sg981
g1087
sg989
L2L
sg986
L2L
sg987
g1026
sVX
L4L
sg983
g1002
sg991
g1062
sg993
L0L
sg994
g1016
stRp1897
ag1
(g1561
g1508
(dp1898
g978
g1112
sVY
L7L
sg980
L3L
sg981
g1113
sg989
L1L
sg986
L1L
sg987
g1062
sVX
L3L
sg983
g1002
sg991
g1026
sg993
L0L
sg994
g995
stRp1899
ag1
(g1561
g1508
(dp1900
g978
g979
sVY
L3L
sg980
L3L
sg981
g982
sg989
L2L
sg986
L2L
sg987
g988
sVX
L9L
sg983
g984
sg991
g992
sg993
L0L
sg994
g995
stRp1901
ag1
(g1561
g1508
(dp1902
g978
g1128
sVY
L2L
sg980
L3L
sg981
g1129
sg989
L8L
sg986
L8L
sg987
g1004
sVX
L7L
sg983
g1062
sg991
g1006
sg993
L0L
sg994
g1107
stRp1903
ag1
(g1561
g1508
(dp1904
g978
g1103
sVY
L3L
sg980
L3L
sg981
g1104
sg989
L6L
sg986
L6L
sg987
g1002
sVX
L4L
sg983
g1062
sg991
g1006
sg993
L0L
sg994
g1107
stRp1905
ag1
(g1561
g1508
(dp1906
g978
g1021
sVY
L6L
sg980
L4L
sg981
g1022
sg989
L7L
sg986
L7L
sg987
g984
sVX
L4L
sg983
g992
sg991
g1025
sg993
g1026
sg994
g1027
stRp1907
ag1
(g1561
g1508
(dp1908
g978
g1078
sVY
L5L
sg980
L4L
sg981
g1079
sg989
L1L
sg986
L1L
sg987
g992
sVX
L6L
sg983
g1006
sg991
g988
sg993
g984
sg994
g1027
stRp1909
ag1
(g1561
g1508
(dp1910
g978
g1094
sVY
L4L
sg980
L4L
sg981
g1095
sg989
L9L
sg986
L9L
sg987
g1025
sVX
L9L
sg983
g1006
sg991
g1098
sg993
g984
sg994
g1037
stRp1911
ag1
(g1561
g1508
(dp1912
g978
g1032
sVY
L4L
sg980
L4L
sg981
g1033
sg989
L7L
sg986
L7L
sg987
g1035
sVX
L3L
sg983
g1006
sg991
g1004
sg993
g984
sg994
g1037
stRp1913
ag1
(g1561
g1508
(dp1914
g978
g1136
sVY
L6L
sg980
L4L
sg981
g1137
sg989
L3L
sg986
L3L
sg987
g984
sVX
L4L
sg983
g1035
sg991
g1004
sg993
g1026
sg994
g1054
stRp1915
ag1
(g1561
g1508
(dp1916
g978
g1050
sVY
L8L
sg980
L4L
sg981
g1051
sg989
L6L
sg986
L6L
sg987
g1002
sVX
L9L
sg983
g988
sg991
g1006
sg993
g1004
sg994
g1054
stRp1917
ag1
(g1561
g1508
(dp1918
g978
g1042
sVY
L2L
sg980
L4L
sg981
g1043
sg989
L5L
sg986
L5L
sg987
g1026
sVX
L8L
sg983
g1002
sg991
g1004
sg993
g988
sg994
g1007
stRp1919
ag1
(g1561
g1508
(dp1920
g978
g1000
sVY
L4L
sg980
L4L
sg981
g1001
sg989
L4L
sg986
L4L
sg987
g1004
sVX
L4L
sg983
g1002
sg991
g1006
sg993
g988
sg994
g1007
stRp1921
asg1574
Nsg1575
I3
sg1576
I18
sg1577
I0
sg1578
I18
sbag1
(g1496
g3
NtRp1922
(dp1923
g1499
Nsg1500
(lp1924
sg1502
I329999312
sg10
g1582
sg6
g1504
sg1505
I1
sg24
I01
sg25
g26
sg1506
g1
(g1507
g1508
(dp1925
g22
g1525
(g1526
g1511
g1527
S'b'
tRp1926
(I1
(I18
I1
tg1529
I00
S'\x00\x00\x80?\x00\x00\x80?\x00\x00\x80?\x00\x00\x80?\x00\x00\x80?\x00\x00\x80?\x00\x00\x80?\x00\x00\x80?\x00\x00\x80?\x00\x00\x80?\x00\x00\x80?\x00\x00\x80?\x00\x00\x80?\x00\x00\x80?\x00\x00\x80?\x00\x00\x80?\x00\x00\x80?\x00\x00\x80?'
S'\x00\x00\x00\x00\x00\x00\x00\x00\x00\x00\x00\x00\x00\x00\x00\x00\x00\x00'
Ntbsg19
g1510
(g1511
(I0
tS'b'
tRp1927
(I1
(I18
I1
tg1514
I00
(lp1928
g1223
ag1158
ag1214
ag1249
ag1241
ag1232
ag1195
ag1176
ag1186
ag1311
ag1294
ag1267
ag1319
ag1276
ag1204
ag1258
ag1302
ag1285
atbsg23
g1525
(g1526
g1511
g1527
S'b'
tRp1929
(I1
(I18
I1
tg1529
I00
S'\xe4\xbf\xae?\x0c\xc9\x14@\xaa\xa8\xbf@\x86\xcd\xfc?([g@i|X@*?O@\x0f]\x7f@\x17\x9f\xed@qT\x99@\x1e\x05\xea@\xb8 \xa2@\x95\xe4"A\x0f\x03\x90@9J\xb2@\xa5\xa6\xbf@\x8c\x11S@\xbb\xd8\x9c@'
S'\x00\x00\x00\x00\x00\x00\x00\x00\x00\x00\x00\x00\x00\x00\x00\x00\x00\x00'
Ntbsg1524
g1525
(g1526
g1511
g1527
S'b'
tRp1930
(I1
(I18
I1
tg1529
I00
S'\x00\x00\x80?\x00\x00\x80?\x00\x00\x80?\x00\x00\x80?\x00\x00\x80?\x00\x00\x80?\x00\x00\x80?\x00\x00\x80?\x00\x00\x80?\x00\x00\x80?\x00\x00\x80?\x00\x00\x80?\x00\x00\x80?\x00\x00\x80?\x00\x00\x80?\x00\x00\x80?\x00\x00\x80?\x00\x00\x80?'
S'\x00\x00\x00\x00\x00\x00\x00\x00\x00\x00\x00\x00\x00\x00\x00\x00\x00\x00'
Ntbsg21
g1510
(g1511
(I0
tS'b'
tRp1931
(I1
(I18
I1
tg1514
I00
(lp1932
S'4'
aS'6'
aS'3'
aS'1'
aS'9'
aS'5'
aS'5'
aS'5'
aS'8'
aS'3'
aS'3'
aS'9'
aS'4'
aS'3'
aS'8'
aS'6'
aS'1'
aS'6'
atbsg1539
g1525
(g1526
g1511
g1527
S'b'
tRp1933
(I1
(I18
I1
tg1529
I00
S'\x00\x00\xc0@\x00\x00\x00\x00\x00\x00\xa0@\x00\x00\x10A\x00\x00\x00A\x00\x00\xe0@\x00\x00@@\x00\x00\x80?\x00\x00\x00@\x00\x00\x80A\x00\x00`A\x00\x000A\x00\x00\x88A\x00\x00@A\x00\x00\x80@\x00\x00 A\x00\x00pA\x00\x00PA'
S'\x00\x00\x00\x00\x00\x00\x00\x00\x00\x00\x00\x00\x00\x00\x00\x00\x00\x00'
Ntbsg20
g1525
(g1526
g1511
g1527
S'b'
tRp1934
(I1
(I18
I1
tg1529
I00
S'\x9d\x15b?9nU?Z.\x0c?\xcb(*?\x83Q\x84?\x1eB\xd9?dh\x85?\xe9>\x9c?K o?{\x01B?\xe71\xd9?\xb2\x86\x90@2[4@\xde]\x0fA\xfa\xaa\x8b?\xbe\xf0{@~\xb8h@}\xe6\xc7?'
S'\x00\x00\x00\x00\x00\x00\x00\x00\x00\x00\x00\x00\x00\x00\x00\x00\x00\x00'
NtbstRp1935
(dp1936
g1544
(dp1937
g1524
I01
sg21
I00
sg20
I01
sg22
I01
sg19
I00
sg23
I01
sg1539
I01
ssg1546
g1922
sg1547
(lp1938
g1524
ag1539
ag19
ag20
ag21
ag22
ag23
asg1549
(lp1939
I18
aI1
asbsg1551
g1552
sg1553
g1510
(g1511
(I0
tS'b'
tRp1940
(I1
(I18
I1
tg1514
I00
(lp1941
I1
aI7
aI8
aI6
aI14
aI2
aI0
aI5
aI4
aI3
aI15
aI11
aI13
aI17
aI10
aI16
aI9
aI12
atbsg1556
I01
sg1557
I1
sg1558
I-1
sg1559
(lp1942
g1
(g1561
g1508
(dp1943
g1152
g1221
sVY
L2L
sg1154
L2L
sg1155
g1222
sg1162
L4L
sg1159
L4L
sg1160
g1175
sVX
L3L
sg1157
L0L
sg1164
g1165
sg1166
L0L
sg1167
g1168
stRp1944
ag1
(g1561
g1508
(dp1945
g1152
g1153
sVY
L2L
sg1154
L2L
sg1155
g1156
sg1162
L6L
sg1159
L6L
sg1160
g1161
sVX
L2L
sg1157
L0L
sg1164
g1165
sg1166
L0L
sg1167
g1168
stRp1946
ag1
(g1561
g1508
(dp1947
g1152
g1212
sVY
L5L
sg1154
L2L
sg1155
g1213
sg1162
L3L
sg1159
L3L
sg1160
g1196
sVX
L4L
sg1157
L0L
sg1164
g1178
sg1166
L0L
sg1167
g1216
stRp1948
ag1
(g1561
g1508
(dp1949
g1152
g1247
sVY
L2L
sg1154
L2L
sg1155
g1248
sg1162
L1L
sg1159
L1L
sg1160
g1250
sVX
L5L
sg1157
L0L
sg1164
g1178
sg1166
L0L
sg1167
g1216
stRp1950
ag1
(g1561
g1508
(dp1951
g1152
g1239
sVY
L3L
sg1154
L3L
sg1155
g1240
sg1162
L9L
sg1159
L9L
sg1160
g1175
sVX
L8L
sg1157
g1231
sg1164
g1165
sg1166
L0L
sg1167
g1234
stRp1952
ag1
(g1561
g1508
(dp1953
g1152
g1229
sVY
L5L
sg1154
L3L
sg1155
g1230
sg1162
L5L
sg1159
L5L
sg1160
g1178
sVX
L6L
sg1157
g1231
sg1164
g1165
sg1166
L0L
sg1167
g1234
stRp1954
ag1
(g1561
g1508
(dp1955
g1152
g1193
sVY
L7L
sg1154
L3L
sg1155
g1194
sg1162
L5L
sg1159
L5L
sg1160
g1196
sVX
L7L
sg1157
g1161
sg1164
g1178
sg1166
L0L
sg1167
g1179
stRp1956
ag1
(g1561
g1508
(dp1957
g1152
g1173
sVY
L5L
sg1154
L3L
sg1155
g1174
sg1162
L5L
sg1159
L5L
sg1160
g1165
sVX
L4L
sg1157
g1175
sg1164
g1178
sg1166
L0L
sg1167
g1179
stRp1958
ag1
(g1561
g1508
(dp1959
g1152
g1184
sVY
L5L
sg1154
L3L
sg1155
g1185
sg1162
L8L
sg1159
L8L
sg1160
g1175
sVX
L5L
sg1157
g1165
sg1164
g1178
sg1166
L0L
sg1167
g1188
stRp1960
ag1
(g1561
g1508
(dp1961
g1152
g1309
sVY
L2L
sg1154
L3L
sg1155
g1310
sg1162
L3L
sg1159
L3L
sg1160
g1231
sVX
L4L
sg1157
g1304
sg1164
g1260
sg1166
L0L
sg1167
g1188
stRp1962
ag1
(g1561
g1508
(dp1963
g1152
g1292
sVY
L5L
sg1154
L4L
sg1155
g1293
sg1162
L3L
sg1159
L3L
sg1160
g1231
sVX
L5L
sg1157
g1161
sg1164
g1250
sg1166
g1260
sg1167
g1269
stRp1964
ag1
(g1561
g1508
(dp1965
g1152
g1265
sVY
L3L
sg1154
L4L
sg1155
g1266
sg1162
L9L
sg1159
L9L
sg1160
g1161
sVX
L3L
sg1157
g1178
sg1164
g1165
sg1166
g1205
sg1167
g1269
stRp1966
ag1
(g1561
g1508
(dp1967
g1152
g1317
sVY
L6L
sg1154
L4L
sg1155
g1318
sg1162
L4L
sg1159
L4L
sg1160
g1304
sVX
L3L
sg1157
g1260
sg1164
g1161
sg1166
g1205
sg1167
g1278
stRp1968
ag1
(g1561
g1508
(dp1969
g1152
g1274
sVY
L3L
sg1154
L4L
sg1155
g1275
sg1162
L3L
sg1159
L3L
sg1160
g1250
sVX
L3L
sg1157
g1205
sg1164
g1260
sg1166
g1175
sg1167
g1278
stRp1970
ag1
(g1561
g1508
(dp1971
g1152
g1202
sVY
L2L
sg1154
L4L
sg1155
g1203
sg1162
L8L
sg1159
L8L
sg1160
g1205
sVX
L9L
sg1157
g1196
sg1164
g1178
sg1166
g1161
sg1167
g1207
stRp1972
ag1
(g1561
g1508
(dp1973
g1152
g1256
sVY
L3L
sg1154
L4L
sg1155
g1257
sg1162
L6L
sg1159
L6L
sg1160
g1231
sVX
L2L
sg1157
g1196
sg1164
g1260
sg1166
g1175
sg1167
g1207
stRp1974
ag1
(g1561
g1508
(dp1975
g1152
g1300
sVY
L2L
sg1154
L4L
sg1155
g1301
sg1162
L1L
sg1159
L1L
sg1160
g1161
sVX
L8L
sg1157
g1231
sg1164
g1178
sg1166
g1304
sg1167
g1287
stRp1976
ag1
(g1561
g1508
(dp1977
g1152
g1283
sVY
L2L
sg1154
L4L
sg1155
g1284
sg1162
L6L
sg1159
L6L
sg1160
g1175
sVX
L3L
sg1157
g1231
sg1164
g1260
sg1166
g1165
sg1167
g1287
stRp1978
asg1574
Nsg1575
I12
sg1576
I18
sg1577
I0
sg1578
I18
sbag1
(g1496
g3
NtRp1979
(dp1980
g1499
Nsg1500
(lp1981
sg1502
I329999312
sg10
g1582
sg6
g1504
sg1505
I1
sg24
I01
sg25
g26
sg1506
g1
(g1507
g1508
(dp1982
g22
g1525
(g1526
g1511
g1527
S'b'
tRp1983
(I1
(I18
I1
tg1529
I00
S'\x00\x00\x80?\x00\x00\x80?\x00\x00\x80?\x00\x00\x80?\x00\x00\x80?\x00\x00\x80?\x00\x00\x80?\x00\x00\x80?\x00\x00\x80?\x00\x00\x80?\x00\x00\x80?\x00\x00\x00\x00\x00\x00\x80?\x00\x00\x80?\x00\x00\x00\x00\x00\x00\x80?\x00\x00\x80?\x00\x00\x80?'
S'\x00\x00\x00\x00\x00\x00\x00\x00\x00\x00\x00\x00\x00\x00\x00\x00\x00\x00'
Ntbsg19
g1510
(g1511
(I0
tS'b'
tRp1984
(I1
(I18
I1
tg1514
I00
(lp1985
g1467
ag1425
ag1409
ag1390
ag1475
ag1380
ag1360
ag1443
ag1459
ag1371
ag1417
ag1399
ag1350
ag1434
ag1332
ag1451
ag1483
ag1492
atbsg23
g1525
(g1526
g1511
g1527
S'b'
tRp1986
(I1
(I18
I1
tg1529
I00
S'/\x94\xf8?$"\xf0?}\x11\xfc?\xfd\xe1;@s\xfa\xd0@\x918\\@x\x9e\x81@\x08\xbfg@\x1c\x91\xc0@\x96\xf5\xc9@\xed\x9c\x17A\xb7\xe7lA\xa1\xc1\xdd@\xcf\xa9\x02As\xeb!A`\xc9\xc4@\xe2\x98\x94@\xd3\xa8\xc3@'
S'\x00\x00\x00\x00\x00\x00\x00\x00\x00\x00\x00\x00\x00\x00\x00\x00\x00\x00'
Ntbsg1524
g1525
(g1526
g1511
g1527
S'b'
tRp1987
(I1
(I18
I1
tg1529
I00
S'\x00\x00\x80?\x00\x00\x80?\x00\x00\x80?\x00\x00\x80?\x00\x00\x80?\x00\x00\x80?\x00\x00\x80?\x00\x00\x80?\x00\x00\x80?\x00\x00\x80?\x00\x00\x80?\x00\x00\x80?\x00\x00\x80?\x00\x00\x80?\x00\x00\x80?\x00\x00\x80?\x00\x00\x80?\x00\x00\x80?'
S'\x00\x00\x00\x00\x00\x00\x00\x00\x00\x00\x00\x00\x00\x00\x00\x00\x00\x00'
Ntbsg21
g1510
(g1511
(I0
tS'b'
tRp1988
(I1
(I18
I1
tg1514
I00
(lp1989
S'1'
aS'8'
aS'4'
aS'1'
aS'3'
aS'9'
aS'1'
aS'6'
aS'6'
aS'8'
aS'8'
aS'8'
aS'6'
aS'7'
aS'7'
aS'5'
aS'5'
aS'3'
atbsg1539
g1525
(g1526
g1511
g1527
S'b'
tRp1990
(I1
(I18
I1
tg1529
I00
S'\x00\x00`A\x00\x00\x10A\x00\x00\xe0@\x00\x00\xa0@\x00\x00pA\x00\x00\x80@\x00\x00\x00@\x00\x000A\x00\x00PA\x00\x00@@\x00\x00\x00A\x00\x00\xc0@\x00\x00\x80?\x00\x00 A\x00\x00\x00\x00\x00\x00@A\x00\x00\x80A\x00\x00\x88A'
S'\x00\x00\x00\x00\x00\x00\x00\x00\x00\x00\x00\x00\x00\x00\x00\x00\x00\x00'
Ntbsg20
g1525
(g1526
g1511
g1527
S'b'
tRp1991
(I1
(I18
I1
tg1529
I00
S' )\x1d?\xd1\x83j?Lg\xb8@\x1a\xca\x8b?r\xdf\xeb?\xe9\x17l@b\xdfv?\xc6+\x81?\xd6h>?\xfa\xb4\x11@\x13\x18q@\x9aq\xce@\xc0X\x9d@\x05\x86\x08A\xe5\r\xc8@\x91R\xd8@5\xf7\x8d@\xa4\x814@'
S'\x00\x00\x00\x00\x00\x00\x00\x00\x00\x00\x00\x00\x00\x00\x00\x00\x00\x00'
NtbstRp1992
(dp1993
g1544
(dp1994
g1524
I01
sg21
I00
sg20
I01
sg22
I01
sg19
I00
sg23
I01
sg1539
I01
ssg1546
g1979
sg1547
(lp1995
g1524
ag1539
ag19
ag20
ag21
ag22
ag23
asg1549
(lp1996
I18
aI1
asbsg1551
g1552
sg1553
g1510
(g1511
(I0
tS'b'
tRp1997
(I1
(I18
I1
tg1514
I00
(lp1998
I14
aI12
aI6
aI9
aI5
aI3
aI11
aI2
aI10
aI1
aI13
aI7
aI15
aI8
aI0
aI4
aI16
aI17
atbsg1556
I01
sg1557
I1
sg1558
I-1
sg1559
(lp1999
g1
(g1561
g1508
(dp2000
g1325
g1465
sVY
L3L
sg1327
L2L
sg1328
g1466
sg1336
L1L
sg1333
L1L
sg1334
g1362
sVX
L9L
sg1330
L0L
sg1338
g1331
sg1340
L0L
sg1342
g1427
stRp2001
ag1
(g1561
g1508
(dp2002
g1325
g1423
sVY
L2L
sg1327
L2L
sg1328
g1424
sg1336
L8L
sg1333
L8L
sg1334
g1341
sVX
L2L
sg1330
L0L
sg1338
g1370
sg1340
L0L
sg1342
g1427
stRp2003
ag1
(g1561
g1508
(dp2004
g1325
g1407
sVY
L3L
sg1327
L2L
sg1328
g1408
sg1336
L4L
sg1333
L4L
sg1334
g1401
sVX
L6L
sg1330
L0L
sg1338
g1352
sg1340
L0L
sg1342
g1392
stRp2005
ag1
(g1561
g1508
(dp2006
g1325
g1388
sVY
L2L
sg1327
L2L
sg1328
g1389
sg1336
L1L
sg1333
L1L
sg1334
g1331
sVX
L6L
sg1330
L0L
sg1338
g1362
sg1340
L0L
sg1342
g1392
stRp2007
ag1
(g1561
g1508
(dp2008
g1325
g1473
sVY
L9L
sg1327
L3L
sg1328
g1474
sg1336
L3L
sg1333
L3L
sg1334
g1335
sVX
L5L
sg1330
g1339
sg1338
g1401
sg1340
L0L
sg1342
g1383
stRp2009
ag1
(g1561
g1508
(dp2010
g1325
g1378
sVY
L3L
sg1327
L3L
sg1328
g1379
sg1336
L9L
sg1333
L9L
sg1334
g1381
sVX
L5L
sg1330
g1352
sg1338
g1370
sg1340
L0L
sg1342
g1383
stRp2011
ag1
(g1561
g1508
(dp2012
g1325
g1358
sVY
L2L
sg1327
L3L
sg1328
g1359
sg1336
L1L
sg1333
L1L
sg1334
g1331
sVX
L7L
sg1330
g1339
sg1338
g1362
sg1340
L0L
sg1342
g1363
stRp2013
ag1
(g1561
g1508
(dp2014
g1325
g1441
sVY
L6L
sg1327
L3L
sg1328
g1442
sg1336
L6L
sg1333
L6L
sg1334
g1370
sVX
L6L
sg1330
g1381
sg1338
g1362
sg1340
L0L
sg1342
g1363
stRp2015
ag1
(g1561
g1508
(dp2016
g1325
g1457
sVY
L2L
sg1327
L3L
sg1328
g1458
sg1336
L6L
sg1333
L6L
sg1334
g1339
sVX
L2L
sg1330
g1435
sg1338
g1341
sg1340
L0L
sg1342
g1373
stRp2017
ag1
(g1561
g1508
(dp2018
g1325
g1368
sVY
L6L
sg1327
L3L
sg1328
g1369
sg1336
L8L
sg1333
L8L
sg1334
g1362
sVX
L2L
sg1330
g1370
sg1338
g1341
sg1340
L0L
sg1342
g1373
stRp2019
ag1
(g1561
g1508
(dp2020
g1325
g1415
sVY
L4L
sg1327
L4L
sg1328
g1416
sg1336
L8L
sg1333
L8L
sg1334
g1341
sVX
L3L
sg1330
g1335
sg1338
g1401
sg1340
g1339
sg1342
g1402
stRp2021
ag1
(g1561
g1508
(dp2022
g1325
g1397
sVY
L8L
sg1327
L4L
sg1328
g1398
sg1336
L1L
sg1333
L1L
sg1334
g1335
sVX
L2L
sg1330
g1339
sg1338
g1401
sg1340
g1341
sg1342
g1402
stRp2023
ag1
(g1561
g1508
(dp2024
g1325
g1348
sVY
L5L
sg1327
L4L
sg1328
g1349
sg1336
L6L
sg1333
L6L
sg1334
g1331
sVX
L4L
sg1330
g1335
sg1338
g1341
sg1340
g1352
sg1342
g1353
stRp2025
ag1
(g1561
g1508
(dp2026
g1325
g1432
sVY
L3L
sg1327
L4L
sg1328
g1433
sg1336
L7L
sg1333
L7L
sg1334
g1435
sVX
L2L
sg1330
g1381
sg1338
g1352
sg1340
g1335
sg1342
g1353
stRp2027
ag1
(g1561
g1508
(dp2028
g1325
g1326
sVY
L3L
sg1327
L4L
sg1328
g1329
sg1336
L5L
sg1333
L5L
sg1334
g1335
sVX
L3L
sg1330
g1331
sg1338
g1339
sg1340
g1341
sg1342
g1343
stRp2029
ag1
(g1561
g1508
(dp2030
g1325
g1449
sVY
L4L
sg1327
L4L
sg1328
g1450
sg1336
L5L
sg1333
L5L
sg1334
g1339
sVX
L8L
sg1330
g1370
sg1338
g1362
sg1340
g1381
sg1342
g1343
stRp2031
ag1
(g1561
g1508
(dp2032
g1325
g1481
sVY
L2L
sg1327
L4L
sg1328
g1482
sg1336
L5L
sg1333
L5L
sg1334
g1335
sVX
L6L
sg1330
g1381
sg1338
g1339
sg1340
g1401
sg1342
g1485
stRp2033
ag1
(g1561
g1508
(dp2034
g1325
g1490
sVY
L2L
sg1327
L4L
sg1328
g1491
sg1336
L3L
sg1333
L3L
sg1334
g1335
sVX
L3L
sg1330
g1352
sg1338
g1381
sg1340
g1401
sg1342
g1485
stRp2035
asg1574
Nsg1575
I17
sg1576
I18
sg1577
I0
sg1578
I18
sbasS'savePickle'
p2036
I00
sb.