ccopy_reg
_reconstructor
p1
(cpsychopy.data
ExperimentHandler
p2
c__builtin__
object
p3
NtRp4
(dp5
S'originPath'
p6
NsS'dataFileName'
p7
VC:\u005cUsers\u005cexperimenter\u005cDesktop\u005cExperiments\u005cKRITL\u005cdata/31034_KRITL_2017_Apr_14_0926
p8
sS'runtimeInfo'
p9
NsS'name'
p10
S'KRITL'
p11
sS'dataNames'
p12
(lp13
S'practice_encoding.keys'
p14
aS'practice_encoding.rt'
p15
aS'practice_execution.keys'
p16
aS'practice_execution.corr'
p17
aS'practice_execution.rt'
p18
aS'encoding.keys'
p19
aS'encoding.rt'
p20
aS'execution.keys'
p21
aS'execution.corr'
p22
aS'execution.rt'
p23
asS'autoLog'
p24
I01
sS'extraInfo'
p25
(dp26
S'date'
p27
V2017_Apr_14_0926
p28
sS'frameRate'
p29
cnumpy.core.multiarray
scalar
p30
(cnumpy
dtype
p31
(S'f8'
I0
I1
tRp32
(I3
S'<'
NNNI-1
I-1
I0
tbS'c;|n\xd7\x01N@'
tRp33
sS'expName'
p34
g11
sVsession
p35
V001
p36
sVparticipant
p37
V31034
p38
ssS'loopsUnfinished'
p39
(lp40
sS'saveWideText'
p41
I00
sS'thisEntry'
p42
(dp43
sS'version'
p44
S''
sS'_paramNamesSoFar'
p45
(lp46
Voperationc
p47
aVoperationb
p48
aVoperationa
p49
aVcorrectresponse
p50
aVvaluey
p51
aVoperationd
p52
aVcondition
p53
aVvaluex
p54
aVRule
p55
aVOperatora
p56
aVLength
p57
aVIntermediate
p58
aVCorrectResponse
p59
aVResult
p60
aVY
aVX
aVOperatorc
p61
aVOperatorb
p62
aVOperatord
p63
aVStructure
p64
asS'entries'
p65
(lp66
(dp67
g18
F5.3997282883501612
sg29
g33
sg17
I1
sg47
Vincrease
p68
sg48
VDIVIDE
p69
sg49
Vtriple
p70
sg35
g36
sg50
L3L
sS'practice_trials.thisTrialN'
p71
I0
sg52
L0L
sS'practice_trials.thisRepN'
p72
I0
sg37
g38
sg53
L3L
sg27
g28
sg16
S'3'
sg14
(lp73
S'space'
p74
asS'practice_trials.thisIndex'
p75
I4
sS'practice_trials.thisN'
p76
I0
sg34
g11
sg15
(lp77
F9.1160387913550949
asg51
L3L
sg54
L2L
sa(dp78
g18
F1.6665117494994774
sg29
g33
sg17
I1
sg47
L0L
sg48
Vdecrease
p79
sg49
VTIMES
p80
sg35
g36
sg50
L8L
sS'practice_trials.thisTrialN'
p81
I1
sg52
L0L
sS'practice_trials.thisRepN'
p82
I0
sg37
g38
sg53
L2L
sg27
g28
sg16
S'8'
sg14
(lp83
S'space'
p84
asS'practice_trials.thisIndex'
p85
I1
sS'practice_trials.thisN'
p86
I1
sg34
g11
sg15
(lp87
F3.5998430063918931
asg51
L3L
sg54
L3L
sa(dp88
g18
F1.9500189155223779
sg29
g33
sg17
I1
sg47
L0L
sg48
VADD
p89
sg49
g79
sg35
g36
sg50
L7L
sS'practice_trials.thisTrialN'
p90
I2
sg52
L0L
sS'practice_trials.thisRepN'
p91
I0
sg37
g38
sg53
L2L
sg27
g28
sg16
S'7'
sg14
(lp92
S'space'
p93
asS'practice_trials.thisIndex'
p94
I0
sS'practice_trials.thisN'
p95
I2
sg34
g11
sg15
(lp96
F2.5999073996499646
asg51
L5L
sg54
L3L
sa(dp97
g18
F3.0832521126430947
sg29
g33
sg17
I1
sg47
g89
sg48
Vtriple 
p98
sg49
Vhalf
p99
sg35
g36
sg50
L8L
sS'practice_trials.thisTrialN'
p100
I3
sg52
L0L
sS'practice_trials.thisRepN'
p101
I0
sg37
g38
sg53
L3L
sg27
g28
sg16
S'8'
sg14
(lp102
S'space'
p103
asS'practice_trials.thisIndex'
p104
I3
sS'practice_trials.thisN'
p105
I3
sg34
g11
sg15
(lp106
F5.2663638549274765
asg51
L2L
sg54
L4L
sa(dp107
g18
F10.382637821749086
sg29
g33
sg17
I1
sg47
g68
sg48
g69
sg49
Vdouble
p108
sg35
g36
sg50
L9L
sS'practice_trials.thisTrialN'
p109
I4
sg52
g70
sS'practice_trials.thisRepN'
p110
I0
sg37
g38
sg53
L4L
sg27
g28
sg16
S'9'
sg14
(lp111
S'space'
p112
asS'practice_trials.thisIndex'
p113
I5
sS'practice_trials.thisN'
p114
I4
sg34
g11
sg15
(lp115
F10.199268156371545
asg51
L8L
sg54
L8L
sa(dp116
g18
F1.8000028696988011
sg29
g33
sg17
I1
sg47
L0L
sg48
g89
sg49
g99
sg35
g36
sg50
L7L
sS'practice_trials.thisTrialN'
p117
I5
sg52
L0L
sS'practice_trials.thisRepN'
p118
I0
sg37
g38
sg53
L2L
sg27
g28
sg16
S'7'
sg14
(lp119
S'space'
p120
asS'practice_trials.thisIndex'
p121
I2
sS'practice_trials.thisN'
p122
I5
sg34
g11
sg15
(lp123
F3.3998787726450246
asg51
L5L
sg54
L4L
sa(dp124
S'block.thisTrialN'
p125
I0
sS'block.thisRepN'
p126
I0
sg29
g33
sS'block.thisN'
p127
I0
sg55
(S'DECREASE'
S'THIRD'
S'TIMES'
S'HALF'
S'x'
S'y'
tp128
sg27
g28
sg57
L4L
sg58
(I2
I12
I4
I3
tp129
sg22
I1
sg20
F15.44885301218892
sg23
F14.44897199976549
sVY
L6L
sVX
L4L
sg61
VTIMES
p130
sg35
g36
sg37
g38
sg21
S'3'
sg19
S'space'
p131
sg34
g11
sg60
L3L
sg56
Vthird
p132
sg59
L3L
sS'block.thisIndex'
p133
I14
sg62
Vdecrease
p134
sg63
Vhalf
p135
sg64
VUUBUxy
p136
sa(dp137
S'block.thisTrialN'
p138
I1
sS'block.thisRepN'
p139
I0
sg29
g33
sS'block.thisN'
p140
I1
sg55
(S'ADD'
S'THIRD'
S'INCREASE'
S'HALF'
S'x'
S'y'
tp141
sg27
g28
sg57
L4L
sg58
(I2
I3
I1
I7
tp142
sg22
I1
sg20
F7.3828624982998008
sg23
F3.683227755187545
sVY
L6L
sVX
L4L
sg61
Vincrease
p143
sg35
g36
sg37
g38
sg21
S'7'
sg19
S'space'
p144
sg34
g11
sg60
L7L
sg56
g132
sg59
L7L
sS'block.thisIndex'
p145
I10
sg62
VADD
p146
sg63
g135
sg64
VBUUUxy
p147
sa(dp148
S'block.thisTrialN'
p149
I2
sS'block.thisRepN'
p150
I0
sg29
g33
sS'block.thisN'
p151
I2
sg55
(S'DIVIDE'
S'DOUBLE'
S'THIRD'
S'x'
S'y'
tp152
sg27
g28
sg57
L3L
sg58
(I2
I4
I1
tp153
sg22
I1
sg20
F4.2997839675517753
sg23
F4.699780327922781
sVY
L4L
sVX
L6L
sg61
g132
sg35
g36
sg37
g38
sg21
S'1'
sg19
S'space'
p154
sg34
g11
sg60
L1L
sg56
Vdouble
p155
sg59
L1L
sS'block.thisIndex'
p156
I4
sg62
VDIVIDE
p157
sg63
L0L
sg64
VBUUxy
p158
sa(dp159
S'block.thisTrialN'
p160
I3
sS'block.thisRepN'
p161
I0
sg29
g33
sS'block.thisN'
p162
I3
sg55
(S'DOUBLE'
S'TRIPLE'
S'SUBTRACT'
S'x'
S'y'
tp163
sg27
g28
sg57
L3L
sg58
(I1
I3
I6
tp164
sg22
I1
sg20
F5.1330652146571083
sg23
F1.5001496093900641
sVY
L3L
sVX
L4L
sg61
VSUBTRACT
p165
sg35
g36
sg37
g38
sg21
S'6'
sg19
S'space'
p166
sg34
g11
sg60
L6L
sg56
Vtriple
p167
sg59
L6L
sS'block.thisIndex'
p168
I9
sg62
g155
sg63
L0L
sg64
VUUBxy
p169
sa(dp170
S'block.thisTrialN'
p171
I4
sS'block.thisRepN'
p172
I0
sg29
g33
sS'block.thisN'
p173
I4
sg55
(S'INCREASE'
S'DIVIDE'
S'THIRD'
S'x'
S'y'
tp174
sg27
g28
sg57
L3L
sg58
(I3
I1
I2
tp175
sg22
I0
sg20
F4.1164314503839705
sg23
F2.4164628420985537
sVY
L3L
sVX
L9L
sg61
g132
sg35
g36
sg37
g38
sg21
S'1'
sg19
S'space'
p176
sg34
g11
sg60
L2L
sg56
g157
sg59
L2L
sS'block.thisIndex'
p177
I7
sg62
g143
sg63
L0L
sg64
VUBUxy
p178
sa(dp179
S'block.thisTrialN'
p180
I5
sS'block.thisRepN'
p181
I0
sg29
g33
sS'block.thisN'
p182
I5
sg55
(S'ADD'
S'DOUBLE'
S'x'
S'y'
tp183
sg27
g28
sg57
L2L
sg58
(I4
I8
tp184
sg22
I1
sg20
F1.6333558593178168
sg23
F2.6499878737668041
sVY
L4L
sVX
L2L
sg61
L0L
sg35
g36
sg37
g38
sg21
S'8'
sg19
S'space'
p185
sg34
g11
sg60
L8L
sg56
g155
sg59
L8L
sS'block.thisIndex'
p186
I0
sg62
g146
sg63
L0L
sg64
VBUxy
p187
sa(dp188
S'block.thisTrialN'
p189
I6
sS'block.thisRepN'
p190
I0
sg29
g33
sS'block.thisN'
p191
I6
sg55
(S'SUBTRACT'
S'HALF'
S'TRIPLE'
S'x'
S'y'
tp192
sg27
g28
sg57
L3L
sg58
(I12
I6
I2
tp193
sg22
I1
sg20
F5.916328981082188
sg23
F4.7998054903000593
sVY
L4L
sVX
L4L
sg61
g167
sg35
g36
sg37
g38
sg21
S'2'
sg19
S'space'
p194
sg34
g11
sg60
L2L
sg56
g135
sg59
L2L
sS'block.thisIndex'
p195
I5
sg62
g165
sg63
L0L
sg64
g158
sa(dp196
S'block.thisTrialN'
p197
I7
sS'block.thisRepN'
p198
I0
sg29
g33
sS'block.thisN'
p199
I7
sg55
(S'DOUBLE'
S'DECREASE'
S'SUBTRACT'
S'x'
S'y'
tp200
sg27
g28
sg57
L3L
sg58
(I5
I4
I8
tp201
sg22
I1
sg20
F2.4999501302081626
sg23
F3.8496742364950478
sVY
L2L
sVX
L7L
sg61
g165
sg35
g36
sg37
g38
sg21
S'8'
sg19
S'space'
p202
sg34
g11
sg60
L8L
sg56
g134
sg59
L8L
sS'block.thisIndex'
p203
I8
sg62
g155
sg63
L0L
sg64
g169
sa(dp204
S'block.thisTrialN'
p205
I8
sS'block.thisRepN'
p206
I0
sg29
g33
sS'block.thisN'
p207
I8
sg55
(S'DECREASE'
S'ADD'
S'DOUBLE'
S'THIRD'
S'x'
S'y'
tp208
sg27
g28
sg57
L4L
sg58
(I3
I6
I10
I9
tp209
sg22
I1
sg20
F12.349124268876039
sg23
F3.8998572498967405
sVY
L4L
sVX
L9L
sg61
g155
sg35
g36
sg37
g38
sg21
S'9'
sg19
S'space'
p210
sg34
g11
sg60
L9L
sg56
g146
sg59
L9L
sS'block.thisIndex'
p211
I12
sg62
Vdecrease 
p212
sg63
g132
sg64
VUBUUxy
p213
sa(dp214
S'block.thisTrialN'
p215
I9
sS'block.thisRepN'
p216
I0
sg29
g33
sS'block.thisN'
p217
I9
sg55
(S'DOUBLE'
S'DECREASE'
S'TRIPLE'
S'DIVIDE'
S'x'
S'y'
tp218
sg27
g28
sg57
L4L
sg58
(I1
I3
I2
I4
tp219
sg22
I1
sg20
F14.982219755358528
sg23
F15.682241908056312
sVY
L4L
sVX
L4L
sg61
g167
sg35
g36
sg37
g38
sg21
S'4'
sg19
S'space'
p220
sg34
g11
sg60
L4L
sg56
g134
sg59
L4L
sS'block.thisIndex'
p221
I17
sg62
g155
sg63
g157
sg64
VUUUBxy
p222
sa(dp223
S'block.thisTrialN'
p224
I10
sS'block.thisRepN'
p225
I0
sg29
g33
sS'block.thisN'
p226
I10
sg55
(S'DECREASE'
S'HALF'
S'TRIPLE'
S'DIVIDE'
S'x'
S'y'
tp227
sg27
g28
sg57
L4L
sg58
(I4
I12
I6
I5
tp228
sg22
I1
sg20
F10.815959104671492
sg23
F9.1660492727532983
sVY
L2L
sVX
L8L
sg61
g167
sg35
g36
sg37
g38
sg21
S'5'
sg19
S'space'
p229
sg34
g11
sg60
L5L
sg56
g135
sg59
L5L
sS'block.thisIndex'
p230
I16
sg62
g134
sg63
g157
sg64
g222
sa(dp231
S'block.thisTrialN'
p232
I11
sS'block.thisRepN'
p233
I0
sg29
g33
sS'block.thisN'
p234
I11
sg55
(S'DOUBLE'
S'SUBTRACT'
S'x'
S'y'
tp235
sg27
g28
sg57
L2L
sg58
(I1
I2
tp236
sg22
I1
sg20
F2.4499609965714626
sg23
F1.2832331446261378
sVY
L7L
sVX
L8L
sg61
L0L
sg35
g36
sg37
g38
sg21
S'2'
sg19
S'space'
p237
sg34
g11
sg60
L2L
sg56
g165
sg59
L2L
sS'block.thisIndex'
p238
I2
sg62
g155
sg63
L0L
sg64
VUBxy
p239
sa(dp240
S'block.thisTrialN'
p241
I12
sS'block.thisRepN'
p242
I0
sg29
g33
sS'block.thisN'
p243
I12
sg55
(S'HALF'
S'SUBTRACT'
S'TRIPLE'
S'x'
S'y'
tp244
sg27
g28
sg57
L3L
sg58
(I9
I2
I1
tp245
sg22
I1
sg20
F4.3831239210121566
sg23
F3.2999376015213784
sVY
L7L
sVX
L3L
sg61
g167
sg35
g36
sg37
g38
sg21
S'1'
sg19
S'space'
p246
sg34
g11
sg60
L1L
sg56
g165
sg59
L1L
sS'block.thisIndex'
p247
I6
sg62
g135
sg63
L0L
sg64
g178
sa(dp248
S'block.thisTrialN'
p249
I13
sS'block.thisRepN'
p250
I0
sg29
g33
sS'block.thisN'
p251
I13
sg55
(S'DECREASE'
S'TIMES'
S'DOUBLE'
S'THIRD'
S'x'
S'y'
tp252
sg27
g28
sg57
L4L
sg58
(I1
I2
I8
I7
tp253
sg22
I1
sg20
F11.082356556100422
sg23
F5.349806347701815
sVY
L4L
sVX
L3L
sg61
g155
sg35
g36
sg37
g38
sg21
S'7'
sg19
S'space'
p254
sg34
g11
sg60
L7L
sg56
g130
sg59
L7L
sS'block.thisIndex'
p255
I13
sg62
g134
sg63
g132
sg64
g213
sa(dp256
S'block.thisTrialN'
p257
I14
sS'block.thisRepN'
p258
I0
sg29
g33
sS'block.thisN'
p259
I14
sg55
(S'DIVIDE'
S'DOUBLE'
S'x'
S'y'
tp260
sg27
g28
sg57
L2L
sg58
(I12
I2
tp261
sg22
I0
sg20
F1.7499419935484184
sg23
F1.5667340112995589
sVY
L6L
sVX
L6L
sg61
L0L
sg35
g36
sg37
g38
sg21
S'6'
sg19
S'space'
p262
sg34
g11
sg60
L2L
sg56
g155
sg59
L2L
sS'block.thisIndex'
p263
I1
sg62
g157
sg63
L0L
sg64
g187
sa(dp264
S'block.thisTrialN'
p265
I15
sS'block.thisRepN'
p266
I0
sg29
g33
sS'block.thisN'
p267
I15
sg55
(S'DOUBLE'
S'TRIPLE'
S'DIVIDE'
S'DECREASE'
S'x'
S'y'
tp268
sg27
g28
sg57
L4L
sg58
(I8
I1
I3
I6
tp269
sg22
I1
sg20
F13.132402033850667
sg23
F3.3498497431864962
sVY
L8L
sVX
L9L
sg61
g157
sg35
g36
sg37
g38
sg21
S'6'
sg19
S'space'
p270
sg34
g11
sg60
L6L
sg56
g167
sg59
L6L
sS'block.thisIndex'
p271
I15
sg62
g155
sg63
g134
sg64
g136
sa(dp272
S'block.thisTrialN'
p273
I16
sS'block.thisRepN'
p274
I0
sg29
g33
sS'block.thisN'
p275
I16
sg55
(S'HALF'
S'TIMES'
S'x'
S'y'
tp276
sg27
g28
sg57
L2L
sg58
(I16
I8
tp277
sg22
I1
sg20
F1.5333730425336398
sg23
F1.950022415156127
sVY
L4L
sVX
L4L
sg61
L0L
sg35
g36
sg37
g38
sg21
S'8'
sg19
S'space'
p278
sg34
g11
sg60
L8L
sg56
g130
sg59
L8L
sS'block.thisIndex'
p279
I3
sg62
g135
sg63
L0L
sg64
g239
sa(dp280
S'block.thisTrialN'
p281
I17
sS'block.thisRepN'
p282
I0
sg29
g33
sS'block.thisN'
p283
I17
sg55
(S'DIVIDE'
S'INCREASE'
S'DOUBLE'
S'THIRD'
S'x'
S'y'
tp284
sg27
g28
sg57
L4L
sg58
(I2
I4
I5
I1
tp285
sg22
I1
sg20
F8.9993977128469851
sg23
F7.9995310489321128
sVY
L5L
sVX
L6L
sg61
g155
sg35
g36
sg37
g38
sg21
S'1'
sg19
S'space'
p286
sg34
g11
sg60
L1L
sg56
g143
sg59
L1L
sS'block.thisIndex'
p287
I11
sg62
g157
sg63
g132
sg64
g147
sa(dp288
S'block.thisTrialN'
p289
I0
sS'block.thisRepN'
p290
I0
sg29
g33
sS'block.thisN'
p291
I0
sVRule
p292
(S'SUBTRACT'
S'DECREASE'
S'x'
S'y'
tp293
sg27
g28
sVLength
p294
L2L
sVIntermediate
p295
(I5
I3
tp296
sg22
I1
sg20
F6.5329324385093059
sg23
F2.8832770300505217
sVY
L2L
sVX
L6L
sVOperatorc
p297
L0L
sg35
g36
sg37
g38
sg21
S'3'
sg19
S'space'
p298
sg34
g11
sVResult
p299
L3L
sVOperatora
p300
Vdecrease
p301
sVCorrectResponse
p302
L3L
sS'block.thisIndex'
p303
I1
sVOperatorb
p304
VSUBTRACT
p305
sVOperatord
p306
L0L
sVStructure
p307
VBUxy
p308
sa(dp309
S'block.thisTrialN'
p310
I1
sS'block.thisRepN'
p311
I0
sg29
g33
sS'block.thisN'
p312
I1
sg292
(S'THIRD'
S'INCREASE'
S'DIVIDE'
S'DOUBLE'
S'x'
S'y'
tp313
sg27
g28
sg294
L4L
sg295
(I18
I2
I3
I1
tp314
sg22
I1
sg20
F13.032201539768721
sg23
F10.232732014410431
sVY
L9L
sVX
L9L
sg297
VDIVIDE
p315
sg35
g36
sg37
g38
sg21
S'1'
sg19
S'space'
p316
sg34
g11
sg299
L1L
sg300
Vincrease
p317
sg302
L1L
sS'block.thisIndex'
p318
I15
sg304
Vthird
p319
sg306
Vdouble
p320
sg307
VUUBUxy
p321
sa(dp322
S'block.thisTrialN'
p323
I2
sS'block.thisRepN'
p324
I0
sg29
g33
sS'block.thisN'
p325
I2
sg292
(S'ADD'
S'DOUBLE'
S'DECREASE'
S'THIRD'
S'x'
S'y'
tp326
sg27
g28
sg294
L4L
sg295
(I2
I1
I2
I8
tp327
sg22
I1
sg20
F7.2994941977813141
sg23
F8.3328453675785568
sVY
L6L
sVX
L6L
sg297
g301
sg35
g36
sg37
g38
sg21
S'8'
sg19
S'space'
p328
sg34
g11
sg299
L8L
sg300
g320
sg302
L8L
sS'block.thisIndex'
p329
I10
sg304
VADD
p330
sg306
g319
sg307
VBUUUxy
p331
sa(dp332
S'block.thisTrialN'
p333
I3
sS'block.thisRepN'
p334
I0
sg29
g33
sS'block.thisN'
p335
I3
sg292
(S'HALF'
S'TRIPLE'
S'INCREASE'
S'DIVIDE'
S'x'
S'y'
tp336
sg27
g28
sg294
L4L
sg295
(I3
I4
I12
I6
tp337
sg22
I1
sg20
F8.0994911181041971
sg23
F3.8330474714894081
sVY
L3L
sVX
L9L
sg297
g317
sg35
g36
sg37
g38
sg21
S'6'
sg19
S'space'
p338
sg34
g11
sg299
L6L
sg300
Vtriple
p339
sg302
L6L
sS'block.thisIndex'
p340
I16
sg304
Vhalf
p341
sg306
g315
sg307
VUUUBxy
p342
sa(dp343
S'block.thisTrialN'
p344
I4
sS'block.thisRepN'
p345
I0
sg29
g33
sS'block.thisN'
p346
I4
sg292
(S'DECREASE'
S'DIVIDE'
S'x'
S'y'
tp347
sg27
g28
sg294
L2L
sg295
(I2
I1
tp348
sg22
I1
sg20
F1.633329262083862
sg23
F3.0832706607034197
sVY
L4L
sVX
L8L
sg297
L0L
sg35
g36
sg37
g38
sg21
S'1'
sg19
S'space'
p349
sg34
g11
sg299
L1L
sg300
g315
sg302
L1L
sS'block.thisIndex'
p350
I2
sg304
g301
sg306
L0L
sg307
VUBxy
p351
sa(dp352
S'block.thisTrialN'
p353
I5
sS'block.thisRepN'
p354
I0
sg29
g33
sS'block.thisN'
p355
I5
sg292
(S'DOUBLE'
S'ADD'
S'INCREASE'
S'THIRD'
S'x'
S'y'
tp356
sg27
g28
sg294
L4L
sg295
(I1
I2
I4
I8
tp357
sg22
I1
sg20
F10.899241314167739
sg23
F11.399230290320702
sVY
L2L
sVX
L3L
sg297
g317
sg35
g36
sg37
g38
sg21
S'8'
sg19
S'space'
p358
sg34
g11
sg299
L8L
sg300
g330
sg302
L8L
sS'block.thisIndex'
p359
I12
sg304
g320
sg306
g319
sg307
VUBUUxy
p360
sa(dp361
S'block.thisTrialN'
p362
I6
sS'block.thisRepN'
p363
I0
sg29
g33
sS'block.thisN'
p364
I6
sg292
(S'HALF'
S'ADD'
S'TRIPLE'
S'x'
S'y'
tp365
sg27
g28
sg294
L3L
sg295
(I9
I12
I6
tp366
sg22
I1
sg20
F3.1499170061579207
sg23
F3.499909884412773
sVY
L3L
sVX
L3L
sg297
g339
sg35
g36
sg37
g38
sg21
S'6'
sg19
S'space'
p367
sg34
g11
sg299
L6L
sg300
g330
sg302
L6L
sS'block.thisIndex'
p368
I6
sg304
g341
sg306
L0L
sg307
VUBUxy
p369
sa(dp370
S'block.thisTrialN'
p371
I7
sS'block.thisRepN'
p372
I0
sg29
g33
sS'block.thisN'
p373
I7
sg292
(S'DIVIDE'
S'INCREASE'
S'x'
S'y'
tp374
sg27
g28
sg294
L2L
sg295
(I4
I2
tp375
sg22
I1
sg20
F1.5666780171595747
sg23
F1.433414723171154
sVY
L2L
sVX
L3L
sg297
L0L
sg35
g36
sg37
g38
sg21
S'2'
sg19
S'space'
p376
sg34
g11
sg299
L2L
sg300
g317
sg302
L2L
sS'block.thisIndex'
p377
I0
sg304
g315
sg306
L0L
sg307
g308
sa(dp378
S'block.thisTrialN'
p379
I8
sS'block.thisRepN'
p380
I0
sg29
g33
sS'block.thisN'
p381
I8
sg292
(S'DIVIDE'
S'DECREASE'
S'TRIPLE'
S'x'
S'y'
tp382
sg27
g28
sg294
L3L
sg295
(I9
I8
I4
tp383
sg22
I1
sg20
F3.6165054676530417
sg23
F1.9500458627153421
sVY
L2L
sVX
L3L
sg297
g339
sg35
g36
sg37
g38
sg21
S'4'
sg19
S'space'
p384
sg34
g11
sg299
L4L
sg300
g301
sg302
L4L
sS'block.thisIndex'
p385
I5
sg304
g315
sg306
L0L
sg307
VBUUxy
p386
sa(dp387
S'block.thisTrialN'
p388
I9
sS'block.thisRepN'
p389
I0
sg29
g33
sS'block.thisN'
p390
I9
sg292
(S'INCREASE'
S'SUBTRACT'
S'HALF'
S'x'
S'y'
tp391
sg27
g28
sg294
L3L
sg295
(I4
I2
I3
tp392
sg22
I1
sg20
F3.8998271530435886
sg23
F2.8333015449752565
sVY
L2L
sVX
L8L
sg297
g341
sg35
g36
sg37
g38
sg21
S'3'
sg19
S'space'
p393
sg34
g11
sg299
L3L
sg300
g305
sg302
L3L
sS'block.thisIndex'
p394
I7
sg304
g317
sg306
L0L
sg307
g369
sa(dp395
S'block.thisTrialN'
p396
I10
sS'block.thisRepN'
p397
I0
sg29
g33
sS'block.thisN'
p398
I10
sg292
(S'THIRD'
S'TIMES'
S'DOUBLE'
S'DECREASE'
S'x'
S'y'
tp399
sg27
g28
sg294
L4L
sg295
(I1
I2
I6
I2
tp400
sg22
I1
sg20
F13.032390520049375
sg23
F4.1165185912977904
sVY
L3L
sVX
L2L
sg297
g320
sg35
g36
sg37
g38
sg21
S'2'
sg19
S'space'
p401
sg34
g11
sg299
L2L
sg300
VTIMES
p402
sg302
L2L
sS'block.thisIndex'
p403
I13
sg304
g319
sg306
g301
sg307
g360
sa(dp404
S'block.thisTrialN'
p405
I11
sS'block.thisRepN'
p406
I0
sg29
g33
sS'block.thisN'
p407
I11
sg292
(S'THIRD'
S'DOUBLE'
S'ADD'
S'DECREASE'
S'x'
S'y'
tp408
sg27
g28
sg294
L4L
sg295
(I5
I12
I24
I8
tp409
sg22
I1
sg20
F10.365983409632463
sg23
F6.1330242689291481
sVY
L7L
sVX
L6L
sg297
g330
sg35
g36
sg37
g38
sg21
S'8'
sg19
S'space'
p410
sg34
g11
sg299
L8L
sg300
g320
sg302
L8L
sS'block.thisIndex'
p411
I14
sg304
g319
sg306
g301
sg307
g321
sa(dp412
S'block.thisTrialN'
p413
I12
sS'block.thisRepN'
p414
I0
sg29
g33
sS'block.thisN'
p415
I12
sg292
(S'INCREASE'
S'TRIPLE'
S'DIVIDE'
S'x'
S'y'
tp416
sg27
g28
sg294
L3L
sg295
(I2
I6
I7
tp417
sg22
I1
sg20
F3.6165275153616676
sg23
F2.2666665733413538
sVY
L3L
sVX
L6L
sg297
g315
sg35
g36
sg37
g38
sg21
S'7'
sg19
S'space'
p418
sg34
g11
sg299
L7L
sg300
g339
sg302
L7L
sS'block.thisIndex'
p419
I8
sg304
g317
sg306
L0L
sg307
VUUBxy
p420
sa(dp421
S'block.thisTrialN'
p422
I13
sS'block.thisRepN'
p423
I0
sg29
g33
sS'block.thisN'
p424
I13
sg292
(S'INCREASE'
S'ADD'
S'x'
S'y'
tp425
sg27
g28
sg294
L2L
sg295
(I5
I6
tp426
sg22
I1
sg20
F0.99997585252276622
sg23
F1.5832060924440157
sVY
L2L
sVX
L3L
sg297
L0L
sg35
g36
sg37
g38
sg21
S'6'
sg19
S'space'
p427
sg34
g11
sg299
L6L
sg300
g330
sg302
L6L
sS'block.thisIndex'
p428
I3
sg304
g317
sg306
L0L
sg307
g351
sa(dp429
S'block.thisTrialN'
p430
I14
sS'block.thisRepN'
p431
I0
sg29
g33
sS'block.thisN'
p432
I14
sg292
(S'THIRD'
S'DOUBLE'
S'INCREASE'
S'TIMES'
S'x'
S'y'
tp433
sg27
g28
sg294
L4L
sg295
(I8
I9
I18
I6
tp434
sg22
I0
sg20
F7.2162263367936248
sg23
F16.398829232173739
sVY
L4L
sVX
L2L
sg297
g317
sg35
g36
sg37
g38
sg21
S'4'
sg19
S'space'
p435
sg34
g11
sg299
L6L
sg300
g320
sg302
L6L
sS'block.thisIndex'
p436
I17
sg304
g319
sg306
g402
sg307
g342
sa(dp437
S'block.thisTrialN'
p438
I15
sS'block.thisRepN'
p439
I0
sg29
g33
sS'block.thisN'
p440
I15
sg292
(S'SUBTRACT'
S'DECREASE'
S'TRIPLE'
S'DOUBLE'
S'x'
S'y'
tp441
sg27
g28
sg294
L4L
sg295
(I6
I18
I17
I8
tp442
sg22
I0
sg20
F8.7494250974850729
sVY
L9L
sVX
L3L
sg297
g339
sg35
g36
sg37
g38
sg21
Nsg19
S'space'
p443
sg34
g11
sg299
L8L
sg300
g301
sg302
L8L
sS'block.thisIndex'
p444
I11
sg304
g305
sg306
g320
sg307
g331
sa(dp445
S'block.thisTrialN'
p446
I16
sS'block.thisRepN'
p447
I0
sg29
g33
sS'block.thisN'
p448
I16
sg292
(S'THIRD'
S'HALF'
S'ADD'
S'x'
S'y'
tp449
sg27
g28
sg294
L3L
sg295
(I6
I3
I1
tp450
sg22
I1
sg20
F2.2333091041946318
sg23
F7.2829381254123291
sVY
L3L
sVX
L3L
sg297
g330
sg35
g36
sg37
g38
sg21
S'1'
sg19
S'space'
p451
sg34
g11
sg299
L1L
sg300
g341
sg302
L1L
sS'block.thisIndex'
p452
I9
sg304
g319
sg306
L0L
sg307
g420
sa(dp453
S'block.thisTrialN'
p454
I17
sS'block.thisRepN'
p455
I0
sg29
g33
sS'block.thisN'
p456
I17
sg292
(S'ADD'
S'HALF'
S'THIRD'
S'x'
S'y'
tp457
sg27
g28
sg294
L3L
sg295
(I2
I1
I9
tp458
sg22
I1
sg20
F3.9831580074678641
sg23
F1.5500631509057712
sVY
L8L
sVX
L6L
sg297
g319
sg35
g36
sg37
g38
sg21
S'9'
sg19
S'space'
p459
sg34
g11
sg299
L9L
sg300
g341
sg302
L9L
sS'block.thisIndex'
p460
I4
sg304
g330
sg306
L0L
sg307
g386
sa(dp461
S'block.thisTrialN'
p462
I0
sS'block.thisRepN'
p463
I0
sg29
g33
sS'block.thisN'
p464
I0
sVRule
p465
(S'SUBTRACT'
S'INCREASE'
S'x'
S'y'
tp466
sg27
g28
sVLength
p467
L2L
sVIntermediate
p468
(I6
I2
tp469
sg22
I1
sg20
F5.0497119625506457
sg23
F3.9498645816202043
sVY
L4L
sVX
L5L
sVOperatorc
p470
L0L
sg35
g36
sg37
g38
sg21
S'2'
sg19
S'space'
p471
sg34
g11
sVResult
p472
L2L
sVOperatora
p473
Vincrease
p474
sVCorrectResponse
p475
L2L
sS'block.thisIndex'
p476
I1
sVOperatorb
p477
VSUBTRACT
p478
sVOperatord
p479
L0L
sVStructure
p480
VBUxy
p481
sa(dp482
S'block.thisTrialN'
p483
I1
sS'block.thisRepN'
p484
I0
sg29
g33
sS'block.thisN'
p485
I1
sg465
(S'THIRD'
S'INCREASE'
S'ADD'
S'DOUBLE'
S'x'
S'y'
tp486
sg27
g28
sg467
L4L
sg468
(I16
I20
I21
I7
tp487
sg22
I0
sg20
F6.0496601679624291
sg23
F8.5661439728719415
sVY
L4L
sVX
L8L
sg470
VADD
p488
sg35
g36
sg37
g38
sg21
S'6'
sg19
S'space'
p489
sg34
g11
sg472
L7L
sg473
g474
sg475
L7L
sS'block.thisIndex'
p490
I14
sg477
Vthird
p491
sg479
Vdouble
p492
sg480
VUUBUxy
p493
sa(dp494
S'block.thisTrialN'
p495
I2
sS'block.thisRepN'
p496
I0
sg29
g33
sS'block.thisN'
p497
I2
sg465
(S'ADD'
S'THIRD'
S'x'
S'y'
tp498
sg27
g28
sg467
L2L
sg468
(I1
I7
tp499
sg22
I1
sg20
F1.9833413883170579
sg23
F1.5667102137813345
sVY
L6L
sVX
L3L
sg470
L0L
sg35
g36
sg37
g38
sg21
S'7'
sg19
S'space'
p500
sg34
g11
sg472
L7L
sg473
g491
sg475
L7L
sS'block.thisIndex'
p501
I0
sg477
g488
sg479
L0L
sg480
g481
sa(dp502
S'block.thisTrialN'
p503
I3
sS'block.thisRepN'
p504
I0
sg29
g33
sS'block.thisN'
p505
I3
sg465
(S'DECREASE'
S'TRIPLE'
S'DIVIDE'
S'x'
S'y'
tp506
sg27
g28
sg467
L3L
sg468
(I2
I6
I5
tp507
sg22
I1
sg20
F3.2332342120062094
sg23
F2.316689653438516
sVY
L4L
sVX
L8L
sg470
VDIVIDE
p508
sg35
g36
sg37
g38
sg21
S'5'
sg19
S'space'
p509
sg34
g11
sg472
L5L
sg473
Vtriple
p510
sg475
L5L
sS'block.thisIndex'
p511
I8
sg477
Vdecrease
p512
sg479
L0L
sg480
VUUBxy
p513
sa(dp514
S'block.thisTrialN'
p515
I4
sS'block.thisRepN'
p516
I0
sg29
g33
sS'block.thisN'
p517
I4
sg465
(S'TRIPLE'
S'DECREASE'
S'HALF'
S'SUBTRACT'
S'x'
S'y'
tp518
sg27
g28
sg467
L4L
sg468
(I4
I2
I1
I3
tp519
sg22
I1
sg20
F6.3329482568515232
sg23
F4.8662558562064078
sVY
L5L
sVX
L9L
sg470
Vhalf
p520
sg35
g36
sg37
g38
sg21
S'3'
sg19
S'space'
p521
sg34
g11
sg472
L3L
sg473
g512
sg475
L3L
sS'block.thisIndex'
p522
I17
sg477
g510
sg479
g478
sg480
VUUUBxy
p523
sa(dp524
S'block.thisTrialN'
p525
I5
sS'block.thisRepN'
p526
I0
sg29
g33
sS'block.thisN'
p527
I5
sg465
(S'TIMES'
S'THIRD'
S'DOUBLE'
S'x'
S'y'
tp528
sg27
g28
sg467
L3L
sg468
(I6
I2
I4
tp529
sg22
I1
sg20
F2.9332409663038561
sg23
F2.7666184533591149
sVY
L2L
sVX
L3L
sg470
g492
sg35
g36
sg37
g38
sg21
S'4'
sg19
S'space'
p530
sg34
g11
sg472
L4L
sg473
g491
sg475
L4L
sS'block.thisIndex'
p531
I5
sg477
VTIMES
p532
sg479
L0L
sg480
VBUUxy
p533
sa(dp534
S'block.thisTrialN'
p535
I6
sS'block.thisRepN'
p536
I0
sg29
g33
sS'block.thisN'
p537
I6
sg465
(S'TRIPLE'
S'DOUBLE'
S'SUBTRACT'
S'DECREASE'
S'x'
S'y'
tp538
sg27
g28
sg467
L4L
sg468
(I4
I1
I2
I6
tp539
sg22
I1
sg20
F5.4661527569551254
sg23
F3.0166215155477403
sVY
L3L
sVX
L5L
sg470
g478
sg35
g36
sg37
g38
sg21
S'6'
sg19
S'space'
p540
sg34
g11
sg472
L6L
sg473
g492
sg475
L6L
sS'block.thisIndex'
p541
I15
sg477
g510
sg479
g512
sg480
g493
sa(dp542
S'block.thisTrialN'
p543
I7
sS'block.thisRepN'
p544
I0
sg29
g33
sS'block.thisN'
p545
I7
sg465
(S'INCREASE'
S'DIVIDE'
S'TRIPLE'
S'HALF'
S'x'
S'y'
tp546
sg27
g28
sg467
L4L
sg468
(I2
I6
I2
I3
tp547
sg22
I1
sg20
F8.1328016921470407
sg23
F9.7160581793286838
sVY
L3L
sVX
L4L
sg470
g510
sg35
g36
sg37
g38
sg21
S'3'
sg19
S'space'
p548
sg34
g11
sg472
L3L
sg473
g508
sg475
L3L
sS'block.thisIndex'
p549
I12
sg477
g474
sg479
g520
sg480
VUBUUxy
p550
sa(dp551
S'block.thisTrialN'
p552
I8
sS'block.thisRepN'
p553
I0
sg29
g33
sS'block.thisN'
p554
I8
sg465
(S'DECREASE'
S'TRIPLE'
S'HALF'
S'ADD'
S'x'
S'y'
tp555
sg27
g28
sg467
L4L
sg468
(I6
I3
I9
I8
tp556
sg22
I1
sg20
F7.5662017168506281
sg23
F4.4664859221957158
sVY
L2L
sVX
L4L
sg470
g520
sg35
g36
sg37
g38
sg21
S'8'
sg19
S'space'
p557
sg34
g11
sg472
L8L
sg473
g510
sg475
L8L
sS'block.thisIndex'
p558
I16
sg477
g512
sg479
g488
sg480
g523
sa(dp559
S'block.thisTrialN'
p560
I9
sS'block.thisRepN'
p561
I0
sg29
g33
sS'block.thisN'
p562
I9
sg465
(S'DIVIDE'
S'DOUBLE'
S'INCREASE'
S'THIRD'
S'x'
S'y'
tp563
sg27
g28
sg467
L4L
sg468
(I2
I3
I6
I2
tp564
sg22
I1
sg20
F11.549277482903562
sg23
F11.21578433290415
sVY
L3L
sVX
L6L
sg470
g474
sg35
g36
sg37
g38
sg21
S'2'
sg19
S'space'
p565
sg34
g11
sg472
L2L
sg473
g492
sg475
L2L
sS'block.thisIndex'
p566
I10
sg477
g508
sg479
g491
sg480
VBUUUxy
p567
sa(dp568
S'block.thisTrialN'
p569
I10
sS'block.thisRepN'
p570
I0
sg29
g33
sS'block.thisN'
p571
I10
sg465
(S'DOUBLE'
S'TIMES'
S'x'
S'y'
tp572
sg27
g28
sg467
L2L
sg468
(I4
I8
tp573
sg22
I1
sg20
F2.5165940434089862
sg23
F1.483475949280546
sVY
L2L
sVX
L2L
sg470
L0L
sg35
g36
sg37
g38
sg21
S'8'
sg19
S'space'
p574
sg34
g11
sg472
L8L
sg473
g532
sg475
L8L
sS'block.thisIndex'
p575
I3
sg477
g492
sg479
L0L
sg480
VUBxy
p576
sa(dp577
S'block.thisTrialN'
p578
I11
sS'block.thisRepN'
p579
I0
sg29
g33
sS'block.thisN'
p580
I11
sg465
(S'DIVIDE'
S'TRIPLE'
S'HALF'
S'x'
S'y'
tp581
sg27
g28
sg467
L3L
sg468
(I4
I12
I4
tp582
sg22
I1
sg20
F3.1331961009855149
sg23
F2.7833029623434413
sVY
L3L
sVX
L8L
sg470
g520
sg35
g36
sg37
g38
sg21
S'4'
sg19
S'space'
p583
sg34
g11
sg472
L4L
sg473
g510
sg475
L4L
sS'block.thisIndex'
p584
I4
sg477
g508
sg479
L0L
sg480
g533
sa(dp585
S'block.thisTrialN'
p586
I12
sS'block.thisRepN'
p587
I0
sg29
g33
sS'block.thisN'
p588
I12
sg465
(S'TIMES'
S'INCREASE'
S'HALF'
S'TRIPLE'
S'x'
S'y'
tp589
sg27
g28
sg467
L4L
sg468
(I6
I3
I4
I8
tp590
sg22
I1
sg20
F6.6495955647114897
sg23
F2.6499927732511424
sVY
L2L
sVX
L2L
sg470
g520
sg35
g36
sg37
g38
sg21
S'8'
sg19
S'space'
p591
sg34
g11
sg472
L8L
sg473
g474
sg475
L8L
sS'block.thisIndex'
p592
I11
sg477
g532
sg479
g510
sg480
g567
sa(dp593
S'block.thisTrialN'
p594
I13
sS'block.thisRepN'
p595
I0
sg29
g33
sS'block.thisN'
p596
I13
sg465
(S'INCREASE'
S'SUBTRACT'
S'THIRD'
S'x'
S'y'
tp597
sg27
g28
sg467
L3L
sg468
(I3
I1
I2
tp598
sg22
I1
sg20
F3.7998331374110421
sg23
F3.0832514127250761
sVY
L2L
sVX
L9L
sg470
g491
sg35
g36
sg37
g38
sg21
S'2'
sg19
S'space'
p599
sg34
g11
sg472
L2L
sg473
g478
sg475
L2L
sS'block.thisIndex'
p600
I7
sg477
g474
sg479
L0L
sg480
VUBUxy
p601
sa(dp602
S'block.thisTrialN'
p603
I14
sS'block.thisRepN'
p604
I0
sg29
g33
sS'block.thisN'
p605
I14
sg465
(S'THIRD'
S'TIMES'
S'HALF'
S'INCREASE'
S'x'
S'y'
tp606
sg27
g28
sg467
L4L
sg468
(I8
I4
I12
I4
tp607
sg22
I1
sg20
F6.2664107500459068
sg23
F2.8165606918919366
sVY
L3L
sVX
L7L
sg470
g520
sg35
g36
sg37
g38
sg21
S'4'
sg19
S'space'
p608
sg34
g11
sg472
L4L
sg473
g532
sg475
L4L
sS'block.thisIndex'
p609
I13
sg477
g491
sg479
g474
sg480
g550
sa(dp610
S'block.thisTrialN'
p611
I15
sS'block.thisRepN'
p612
I0
sg29
g33
sS'block.thisN'
p613
I15
sg465
(S'THIRD'
S'INCREASE'
S'SUBTRACT'
S'x'
S'y'
tp614
sg27
g28
sg467
L3L
sg468
(I2
I3
I1
tp615
sg22
I1
sg20
F2.7999129290838027
sg23
F4.6333145636162953
sVY
L6L
sVX
L8L
sg470
g478
sg35
g36
sg37
g38
sg21
S'1'
sg19
S'space'
p616
sg34
g11
sg472
L1L
sg473
g474
sg475
L1L
sS'block.thisIndex'
p617
I9
sg477
g491
sg479
L0L
sg480
g513
sa(dp618
S'block.thisTrialN'
p619
I16
sS'block.thisRepN'
p620
I0
sg29
g33
sS'block.thisN'
p621
I16
sg465
(S'DOUBLE'
S'ADD'
S'x'
S'y'
tp622
sg27
g28
sg467
L2L
sg468
(I4
I8
tp623
sg22
I1
sg20
F1.3832908535987372
sg23
F1.2834497720177751
sVY
L2L
sVX
L2L
sg470
L0L
sg35
g36
sg37
g38
sg21
S'8'
sg19
S'space'
p624
sg34
g11
sg472
L8L
sg473
g488
sg475
L8L
sS'block.thisIndex'
p625
I2
sg477
g492
sg479
L0L
sg480
g576
sa(dp626
S'block.thisTrialN'
p627
I17
sS'block.thisRepN'
p628
I0
sg29
g33
sS'block.thisN'
p629
I17
sg465
(S'INCREASE'
S'ADD'
S'TRIPLE'
S'x'
S'y'
tp630
sg27
g28
sg467
L3L
sg468
(I6
I8
I9
tp631
sg22
I1
sg20
F5.4663238891080255
sg23
F2.6499497277400224
sVY
L2L
sVX
L2L
sg470
g510
sg35
g36
sg37
g38
sg21
S'9'
sg19
S'space'
p632
sg34
g11
sg472
L9L
sg473
g488
sg475
L9L
sS'block.thisIndex'
p633
I6
sg477
g474
sg479
L0L
sg480
g601
sa(dp634
S'block.thisTrialN'
p635
I0
sS'block.thisRepN'
p636
I0
sg29
g33
sS'block.thisN'
p637
I0
sVRule
p638
(S'DOUBLE'
S'DIVIDE'
S'TRIPLE'
S'INCREASE'
S'x'
S'y'
tp639
sg27
g28
sVLength
p640
L4L
sVIntermediate
p641
(I5
I15
I3
I6
tp642
sg22
I1
sg20
F15.115580339188455
sg23
F8.4494682479999028
sVY
L5L
sVX
L4L
sVOperatorc
p643
Vtriple
p644
sg35
g36
sg37
g38
sg21
S'6'
sg19
S'space'
p645
sg34
g11
sVResult
p646
L6L
sVOperatora
p647
VDIVIDE
p648
sVCorrectResponse
p649
L6L
sS'block.thisIndex'
p650
I12
sVOperatorb
p651
Vdouble
p652
sVOperatord
p653
Vincrease
p654
sVStructure
p655
VUBUUxy
p656
sa(dp657
S'block.thisTrialN'
p658
I1
sS'block.thisRepN'
p659
I0
sg29
g33
sS'block.thisN'
p660
I1
sg638
(S'DECREASE'
S'TRIPLE'
S'HALF'
S'SUBTRACT'
S'x'
S'y'
tp661
sg27
g28
sg640
L4L
sg641
(I4
I2
I6
I5
tp662
sg22
I1
sg20
F7.5328389982460067
sg23
F5.849726731015835
sVY
L2L
sVX
L6L
sg643
Vhalf
p663
sg35
g36
sg37
g38
sg21
S'5'
sg19
S'space'
p664
sg34
g11
sg646
L5L
sg647
g644
sg649
L5L
sS'block.thisIndex'
p665
I16
sg651
Vdecrease
p666
sg653
VSUBTRACT
p667
sg655
VUUUBxy
p668
sa(dp669
S'block.thisTrialN'
p670
I2
sS'block.thisRepN'
p671
I0
sg29
g33
sS'block.thisN'
p672
I2
sg638
(S'DIVIDE'
S'THIRD'
S'x'
S'y'
tp673
sg27
g28
sg640
L2L
sg641
(I3
I1
tp674
sg22
I1
sg20
F1.1501073863037163
sg23
F1.2834319238754688
sVY
L3L
sVX
L9L
sg643
L0L
sg35
g36
sg37
g38
sg21
S'1'
sg19
S'space'
p675
sg34
g11
sg646
L1L
sg647
Vthird
p676
sg649
L1L
sS'block.thisIndex'
p677
I0
sg651
g648
sg653
L0L
sg655
VBUxy
p678
sa(dp679
S'block.thisTrialN'
p680
I3
sS'block.thisRepN'
p681
I0
sg29
g33
sS'block.thisN'
p682
I3
sg638
(S'SUBTRACT'
S'TRIPLE'
S'DECREASE'
S'DOUBLE'
S'x'
S'y'
tp683
sg27
g28
sg640
L4L
sg641
(I4
I3
I9
I1
tp684
sg22
I1
sg20
F5.9329928421939258
sg23
F3.1333626835985342
sVY
L8L
sVX
L2L
sg643
g666
sg35
g36
sg37
g38
sg21
S'1'
sg19
S'space'
p685
sg34
g11
sg646
L1L
sg647
g644
sg649
L1L
sS'block.thisIndex'
p686
I11
sg651
g667
sg653
g652
sg655
VBUUUxy
p687
sa(dp688
S'block.thisTrialN'
p689
I4
sS'block.thisRepN'
p690
I0
sg29
g33
sS'block.thisN'
p691
I4
sg638
(S'DECREASE'
S'TRIPLE'
S'DIVIDE'
S'DOUBLE'
S'x'
S'y'
tp692
sg27
g28
sg640
L4L
sg641
(I6
I2
I6
I5
tp693
sg22
I1
sg20
F5.1330456166906515
sg23
F5.2830942091095494
sVY
L3L
sVX
L3L
sg643
g648
sg35
g36
sg37
g38
sg21
S'5'
sg19
S'space'
p694
sg34
g11
sg646
L5L
sg647
g644
sg649
L5L
sS'block.thisIndex'
p695
I14
sg651
g666
sg653
g652
sg655
VUUBUxy
p696
sa(dp697
S'block.thisTrialN'
p698
I5
sS'block.thisRepN'
p699
I0
sg29
g33
sS'block.thisN'
p700
I5
sg638
(S'DOUBLE'
S'THIRD'
S'TIMES'
S'x'
S'y'
tp701
sg27
g28
sg640
L3L
sg641
(I12
I4
I8
tp702
sg22
I1
sg20
F1.8833858686848544
sg23
F6.7329887126252288
sVY
L6L
sVX
L2L
sg643
VTIMES
p703
sg35
g36
sg37
g38
sg21
S'8'
sg19
S'space'
p704
sg34
g11
sg646
L8L
sg647
g676
sg649
L8L
sS'block.thisIndex'
p705
I9
sg651
g652
sg653
L0L
sg655
VUUBxy
p706
sa(dp707
S'block.thisTrialN'
p708
I6
sS'block.thisRepN'
p709
I0
sg29
g33
sS'block.thisN'
p710
I6
sg638
(S'THIRD'
S'TIMES'
S'HALF'
S'x'
S'y'
tp711
sg27
g28
sg640
L3L
sg641
(I3
I18
I6
tp712
sg22
I1
sg20
F1.9166299496719148
sg23
F8.1495621431968175
sVY
L6L
sVX
L6L
sg643
g663
sg35
g36
sg37
g38
sg21
S'6'
sg19
S'space'
p713
sg34
g11
sg646
L6L
sg647
g703
sg649
L6L
sS'block.thisIndex'
p714
I7
sg651
g676
sg653
L0L
sg655
VUBUxy
p715
sa(dp716
S'block.thisTrialN'
p717
I7
sS'block.thisRepN'
p718
I0
sg29
g33
sS'block.thisN'
p719
I7
sg638
(S'INCREASE'
S'ADD'
S'HALF'
S'TRIPLE'
S'x'
S'y'
tp720
sg27
g28
sg640
L4L
sg641
(I6
I3
I6
I7
tp721
sg22
I1
sg20
F5.7496280763007235
sg23
F6.8162926198565401
sVY
L3L
sVX
L2L
sg643
g663
sg35
g36
sg37
g38
sg21
S'7'
sg19
S'space'
p722
sg34
g11
sg646
L7L
sg647
VADD
p723
sg649
L7L
sS'block.thisIndex'
p724
I13
sg651
g654
sg653
g644
sg655
g656
sa(dp725
S'block.thisTrialN'
p726
I8
sS'block.thisRepN'
p727
I0
sg29
g33
sS'block.thisN'
p728
I8
sg638
(S'THIRD'
S'DIVIDE'
S'DECREASE'
S'x'
S'y'
tp729
sg27
g28
sg640
L3L
sg641
(I6
I3
I1
tp730
sg22
I1
sg20
F2.8332588494522497
sg23
F3.8332378516352037
sVY
L2L
sVX
L7L
sg643
g666
sg35
g36
sg37
g38
sg21
S'1'
sg19
S'space'
p731
sg34
g11
sg646
L1L
sg647
g648
sg649
L1L
sS'block.thisIndex'
p732
I6
sg651
g676
sg653
L0L
sg655
g715
sa(dp733
S'block.thisTrialN'
p734
I9
sS'block.thisRepN'
p735
I0
sg29
g33
sS'block.thisN'
p736
I9
sg638
(S'SUBTRACT'
S'DOUBLE'
S'TRIPLE'
S'DECREASE'
S'x'
S'y'
tp737
sg27
g28
sg640
L4L
sg641
(I2
I6
I12
I8
tp738
sg22
I1
sg20
F4.8497414294834016
sg23
F2.5499998075247277
sVY
L4L
sVX
L3L
sg643
g644
sg35
g36
sg37
g38
sg21
S'8'
sg19
S'space'
p739
sg34
g11
sg646
L8L
sg647
g652
sg649
L8L
sS'block.thisIndex'
p740
I10
sg651
g667
sg653
g666
sg655
g687
sa(dp741
S'block.thisTrialN'
p742
I10
sS'block.thisRepN'
p743
I0
sg29
g33
sS'block.thisN'
p744
I10
sg638
(S'INCREASE'
S'SUBTRACT'
S'x'
S'y'
tp745
sg27
g28
sg640
L2L
sg641
(I3
I4
tp746
sg22
I1
sg20
F1.2666991199512267
sg23
F2.4166633711720351
sVY
L3L
sVX
L6L
sg643
L0L
sg35
g36
sg37
g38
sg21
S'4'
sg19
S'space'
p747
sg34
g11
sg646
L4L
sg647
g667
sg649
L4L
sS'block.thisIndex'
p748
I2
sg651
g654
sg653
L0L
sg655
VUBxy
p749
sa(dp750
S'block.thisTrialN'
p751
I11
sS'block.thisRepN'
p752
I0
sg29
g33
sS'block.thisN'
p753
I11
sg638
(S'SUBTRACT'
S'TRIPLE'
S'DECREASE'
S'x'
S'y'
tp754
sg27
g28
sg640
L3L
sg641
(I4
I12
I3
tp755
sg22
I1
sg20
F4.3164572776877321
sg23
F2.8166362840129295
sVY
L9L
sVX
L5L
sg643
g666
sg35
g36
sg37
g38
sg21
S'3'
sg19
S'space'
p756
sg34
g11
sg646
L3L
sg647
g644
sg649
L3L
sS'block.thisIndex'
p757
I4
sg651
g667
sg653
L0L
sg655
VBUUxy
p758
sa(dp759
S'block.thisTrialN'
p760
I12
sS'block.thisRepN'
p761
I0
sg29
g33
sS'block.thisN'
p762
I12
sg638
(S'TIMES'
S'DOUBLE'
S'x'
S'y'
tp763
sg27
g28
sg640
L2L
sg641
(I4
I8
tp764
sg22
I1
sg20
F0.75012642430374399
sg23
F2.8166296346898889
sVY
L2L
sVX
L2L
sg643
L0L
sg35
g36
sg37
g38
sg21
S'8'
sg19
S'space'
p765
sg34
g11
sg646
L8L
sg647
g652
sg649
L8L
sS'block.thisIndex'
p766
I1
sg651
g703
sg653
L0L
sg655
g678
sa(dp767
S'block.thisTrialN'
p768
I13
sS'block.thisRepN'
p769
I0
sg29
g33
sS'block.thisN'
p770
I13
sg638
(S'DOUBLE'
S'DECREASE'
S'ADD'
S'x'
S'y'
tp771
sg27
g28
sg640
L3L
sg641
(I4
I3
I6
tp772
sg22
I1
sg20
F1.5833754747727653
sg23
F2.9834505769395037
sVY
L2L
sVX
L2L
sg643
g723
sg35
g36
sg37
g38
sg21
S'6'
sg19
S'space'
p773
sg34
g11
sg646
L6L
sg647
g666
sg649
L6L
sS'block.thisIndex'
p774
I8
sg651
g652
sg653
L0L
sg655
g706
sa(dp775
S'block.thisTrialN'
p776
I14
sS'block.thisRepN'
p777
I0
sg29
g33
sS'block.thisN'
p778
I14
sg638
(S'TIMES'
S'HALF'
S'INCREASE'
S'x'
S'y'
tp779
sg27
g28
sg640
L3L
sg641
(I6
I3
I9
tp780
sg22
I1
sg20
F1.0499796846270328
sg23
F2.416653922162368
sVY
L3L
sVX
L5L
sg643
g654
sg35
g36
sg37
g38
sg21
S'9'
sg19
S'space'
p781
sg34
g11
sg646
L9L
sg647
g663
sg649
L9L
sS'block.thisIndex'
p782
I5
sg651
g703
sg653
L0L
sg655
g758
sa(dp783
S'block.thisTrialN'
p784
I15
sS'block.thisRepN'
p785
I0
sg29
g33
sS'block.thisN'
p786
I15
sg638
(S'HALF'
S'TRIPLE'
S'INCREASE'
S'SUBTRACT'
S'x'
S'y'
tp787
sg27
g28
sg640
L4L
sg641
(I1
I2
I6
I3
tp788
sg22
I1
sg20
F3.7331671940046363
sg23
F6.0663506263081217
sVY
L2L
sVX
L3L
sg643
g654
sg35
g36
sg37
g38
sg21
S'3'
sg19
S'space'
p789
sg34
g11
sg646
L3L
sg647
g644
sg649
L3L
sS'block.thisIndex'
p790
I17
sg651
g663
sg653
g667
sg655
g668
sa(dp791
S'block.thisTrialN'
p792
I16
sS'block.thisRepN'
p793
I0
sg29
g33
sS'block.thisN'
p794
I16
sg638
(S'THIRD'
S'DECREASE'
S'TIMES'
S'HALF'
S'x'
S'y'
tp795
sg27
g28
sg640
L4L
sg641
(I4
I16
I15
I5
tp796
sg22
I1
sg20
F4.0997994359204313
sg23
F4.1165255905652884
sVY
L4L
sVX
L8L
sg643
g703
sg35
g36
sg37
g38
sg21
S'5'
sg19
S'space'
p797
sg34
g11
sg646
L5L
sg647
g666
sg649
L5L
sS'block.thisIndex'
p798
I15
sg651
g676
sg653
g663
sg655
g696
sa(dp799
S'block.thisTrialN'
p800
I17
sS'block.thisRepN'
p801
I0
sg29
g33
sS'block.thisN'
p802
I17
sg638
(S'THIRD'
S'DIVIDE'
S'x'
S'y'
tp803
sg27
g28
sg640
L2L
sg641
(I3
I1
tp804
sg22
I1
sg20
F1.0500699752010405
sg23
F1.2334487396146869
sVY
L2L
sVX
L6L
sg643
L0L
sg35
g36
sg37
g38
sg21
S'1'
sg19
S'space'
p805
sg34
g11
sg646
L1L
sg647
g648
sg649
L1L
sS'block.thisIndex'
p806
I3
sg651
g676
sg653
L0L
sg655
g749
sa(dp807
S'block.thisTrialN'
p808
I0
sS'block.thisRepN'
p809
I0
sg29
g33
sS'block.thisN'
p810
I0
sVRule
p811
(S'DECREASE'
S'ADD'
S'THIRD'
S'HALF'
S'x'
S'y'
tp812
sg27
g28
sVLength
p813
L4L
sVIntermediate
p814
(I3
I1
I7
I6
tp815
sg22
I1
sg20
F6.8662054614542285
sg23
F3.9832098020560807
sVY
L6L
sVX
L6L
sVOperatorc
p816
Vthird
p817
sg35
g36
sg37
g38
sg21
S'6'
sg19
S'space'
p818
sg34
g11
sVResult
p819
L6L
sVOperatora
p820
VADD
p821
sVCorrectResponse
p822
L6L
sS'block.thisIndex'
p823
I12
sVOperatorb
p824
Vdecrease
p825
sVOperatord
p826
Vhalf
p827
sVStructure
p828
VUBUUxy
p829
sa(dp830
S'block.thisTrialN'
p831
I1
sS'block.thisRepN'
p832
I0
sg29
g33
sS'block.thisN'
p833
I1
sg811
(S'DOUBLE'
S'SUBTRACT'
S'INCREASE'
S'x'
S'y'
tp834
sg27
g28
sg813
L3L
sg814
(I4
I1
I2
tp835
sg22
I1
sg20
F10.249302085328964
sg23
F2.7666275524243247
sVY
L3L
sVX
L3L
sg816
Vincrease
p836
sg35
g36
sg37
g38
sg21
S'2'
sg19
S'space'
p837
sg34
g11
sg819
L2L
sg820
VSUBTRACT
p838
sg822
L2L
sS'block.thisIndex'
p839
I6
sg824
Vdouble
p840
sg826
L0L
sg828
VUBUxy
p841
sa(dp842
S'block.thisTrialN'
p843
I2
sS'block.thisRepN'
p844
I0
sg29
g33
sS'block.thisN'
p845
I2
sg811
(S'ADD'
S'DECREASE'
S'THIRD'
S'DOUBLE'
S'x'
S'y'
tp846
sg27
g28
sg813
L4L
sg814
(I18
I6
I5
I9
tp847
sg22
I1
sg20
F3.2332181137026055
sg23
F6.9496374553273199
sVY
L4L
sVX
L9L
sg816
g817
sg35
g36
sg37
g38
sg21
S'9'
sg19
S'space'
p848
sg34
g11
sg819
L9L
sg820
g825
sg822
L9L
sS'block.thisIndex'
p849
I10
sg824
g821
sg826
g840
sg828
VBUUUxy
p850
sa(dp851
S'block.thisTrialN'
p852
I3
sS'block.thisRepN'
p853
I0
sg29
g33
sS'block.thisN'
p854
I3
sg811
(S'INCREASE'
S'ADD'
S'HALF'
S'x'
S'y'
tp855
sg27
g28
sg813
L3L
sg814
(I1
I4
I5
tp856
sg22
I1
sg20
F0.78342264985258225
sg23
F4.016524575650692
sVY
L3L
sVX
L2L
sg816
g827
sg35
g36
sg37
g38
sg21
S'5'
sg19
S'space'
p857
sg34
g11
sg819
L5L
sg820
g821
sg822
L5L
sS'block.thisIndex'
p858
I7
sg824
g836
sg826
L0L
sg828
g841
sa(dp859
S'block.thisTrialN'
p860
I4
sS'block.thisRepN'
p861
I0
sg29
g33
sS'block.thisN'
p862
I4
sg811
(S'DECREASE'
S'TRIPLE'
S'SUBTRACT'
S'DOUBLE'
S'x'
S'y'
tp863
sg27
g28
sg813
L4L
sg814
(I6
I3
I9
I8
tp864
sg22
I1
sg20
F4.9664010560518363
sg23
F9.232776809745701
sVY
L3L
sVX
L3L
sg816
g838
sg35
g36
sg37
g38
sg21
S'8'
sg19
S'space'
p865
sg34
g11
sg819
L8L
sg820
Vtriple
p866
sg822
L8L
sS'block.thisIndex'
p867
I15
sg824
g825
sg826
g840
sg828
VUUBUxy
p868
sa(dp869
S'block.thisTrialN'
p870
I5
sS'block.thisRepN'
p871
I0
sg29
g33
sS'block.thisN'
p872
I5
sg811
(S'INCREASE'
S'HALF'
S'THIRD'
S'TIMES'
S'x'
S'y'
tp873
sg27
g28
sg813
L4L
sg814
(I12
I4
I2
I3
tp874
sg22
I1
sg20
F7.0827173684519948
sg23
F6.0830298858345486
sVY
L4L
sVX
L3L
sg816
g817
sg35
g36
sg37
g38
sg21
S'3'
sg19
S'space'
p875
sg34
g11
sg819
L3L
sg820
g827
sg822
L3L
sS'block.thisIndex'
p876
I16
sg824
g836
sg826
VTIMES
p877
sg828
VUUUBxy
p878
sa(dp879
S'block.thisTrialN'
p880
I6
sS'block.thisRepN'
p881
I0
sg29
g33
sS'block.thisN'
p882
I6
sg811
(S'DECREASE'
S'TIMES'
S'x'
S'y'
tp883
sg27
g28
sg813
L2L
sg814
(I9
I8
tp884
sg22
I1
sg20
F1.3000541393557796
sg23
F3.8331839572492754
sVY
L3L
sVX
L3L
sg816
L0L
sg35
g36
sg37
g38
sg21
S'8'
sg19
S'space'
p885
sg34
g11
sg819
L8L
sg820
g877
sg822
L8L
sS'block.thisIndex'
p886
I2
sg824
g825
sg826
L0L
sg828
VUBxy
p887
sa(dp888
S'block.thisTrialN'
p889
I7
sS'block.thisRepN'
p890
I0
sg29
g33
sS'block.thisN'
p891
I7
sg811
(S'DECREASE'
S'SUBTRACT'
S'DOUBLE'
S'THIRD'
S'x'
S'y'
tp892
sg27
g28
sg813
L4L
sg814
(I3
I6
I4
I3
tp893
sg22
I0
sg20
F9.5993453583068913
sg23
F5.6830541732924758
sVY
L2L
sVX
L9L
sg816
g840
sg35
g36
sg37
g38
sg21
S'2'
sg19
S'space'
p894
sg34
g11
sg819
L3L
sg820
g838
sg822
L3L
sS'block.thisIndex'
p895
I13
sg824
g825
sg826
g817
sg828
g829
sa(dp896
S'block.thisTrialN'
p897
I8
sS'block.thisRepN'
p898
I0
sg29
g33
sS'block.thisN'
p899
I8
sg811
(S'THIRD'
S'HALF'
S'INCREASE'
S'SUBTRACT'
S'x'
S'y'
tp900
sg27
g28
sg813
L4L
sg814
(I5
I6
I3
I1
tp901
sg22
I1
sg20
F3.2332307123724604
sg23
F8.316167507917271
sVY
L2L
sVX
L7L
sg816
g836
sg35
g36
sg37
g38
sg21
S'1'
sg19
S'space'
p902
sg34
g11
sg819
L1L
sg820
g827
sg822
L1L
sS'block.thisIndex'
p903
I17
sg824
g817
sg826
g838
sg828
g878
sa(dp904
S'block.thisTrialN'
p905
I9
sS'block.thisRepN'
p906
I0
sg29
g33
sS'block.thisN'
p907
I9
sg811
(S'ADD'
S'DOUBLE'
S'DECREASE'
S'x'
S'y'
tp908
sg27
g28
sg813
L3L
sg814
(I1
I2
I7
tp909
sg22
I1
sg20
F2.2499761149956612
sg23
F3.1332895412342623
sVY
L5L
sVX
L2L
sg816
g825
sg35
g36
sg37
g38
sg21
S'7'
sg19
S'space'
p910
sg34
g11
sg819
L7L
sg820
g840
sg822
L7L
sS'block.thisIndex'
p911
I4
sg824
g821
sg826
L0L
sg828
VBUUxy
p912
sa(dp913
S'block.thisTrialN'
p914
I10
sS'block.thisRepN'
p915
I0
sg29
g33
sS'block.thisN'
p916
I10
sg811
(S'DOUBLE'
S'THIRD'
S'ADD'
S'x'
S'y'
tp917
sg27
g28
sg813
L3L
sg814
(I9
I3
I6
tp918
sg22
I1
sg20
F0.75008827829151414
sg23
F3.2832061974331737
sVY
L4L
sVX
L5L
sg816
g821
sg35
g36
sg37
g38
sg21
S'6'
sg19
S'space'
p919
sg34
g11
sg819
L6L
sg820
g817
sg822
L6L
sS'block.thisIndex'
p920
I8
sg824
g840
sg826
L0L
sg828
VUUBxy
p921
sa(dp922
S'block.thisTrialN'
p923
I11
sS'block.thisRepN'
p924
I0
sg29
g33
sS'block.thisN'
p925
I11
sg811
(S'ADD'
S'DECREASE'
S'x'
S'y'
tp926
sg27
g28
sg813
L2L
sg814
(I2
I7
tp927
sg22
I1
sg20
F0.56676795776002109
sg23
F2.1500216452404857
sVY
L5L
sVX
L3L
sg816
L0L
sg35
g36
sg37
g38
sg21
S'7'
sg19
S'space'
p928
sg34
g11
sg819
L7L
sg820
g825
sg822
L7L
sS'block.thisIndex'
p929
I0
sg824
g821
sg826
L0L
sg828
VBUxy
p930
sa(dp931
S'block.thisTrialN'
p932
I12
sS'block.thisRepN'
p933
I0
sg29
g33
sS'block.thisN'
p934
I12
sg811
(S'HALF'
S'INCREASE'
S'TIMES'
S'x'
S'y'
tp935
sg27
g28
sg813
L3L
sg814
(I9
I10
I5
tp936
sg22
I1
sg20
F0.78341950017784256
sg23
F2.6166619013238233
sVY
L3L
sVX
L3L
sg816
g877
sg35
g36
sg37
g38
sg21
S'5'
sg19
S'space'
p937
sg34
g11
sg819
L5L
sg820
g836
sg822
L5L
sS'block.thisIndex'
p938
I9
sg824
g827
sg826
L0L
sg828
g921
sa(dp939
S'block.thisTrialN'
p940
I13
sS'block.thisRepN'
p941
I0
sg29
g33
sS'block.thisN'
p942
I13
sg811
(S'ADD'
S'TRIPLE'
S'HALF'
S'x'
S'y'
tp943
sg27
g28
sg813
L3L
sg814
(I2
I6
I8
tp944
sg22
I1
sg20
F8.2994417032459751
sg23
F2.3833373987436062
sVY
L2L
sVX
L4L
sg816
g827
sg35
g36
sg37
g38
sg21
S'8'
sg19
S'space'
p945
sg34
g11
sg819
L8L
sg820
g866
sg822
L8L
sS'block.thisIndex'
p946
I5
sg824
g821
sg826
L0L
sg828
g912
sa(dp947
S'block.thisTrialN'
p948
I14
sS'block.thisRepN'
p949
I0
sg29
g33
sS'block.thisN'
p950
I14
sg811
(S'ADD'
S'TRIPLE'
S'DOUBLE'
S'DECREASE'
S'x'
S'y'
tp951
sg27
g28
sg813
L4L
sg814
(I1
I2
I6
I8
tp952
sg22
I1
sg20
F1.5666902658704203
sg23
F4.4163659022160573
sVY
L2L
sVX
L2L
sg816
g840
sg35
g36
sg37
g38
sg21
S'8'
sg19
S'space'
p953
sg34
g11
sg819
L8L
sg820
g866
sg822
L8L
sS'block.thisIndex'
p954
I11
sg824
g821
sg826
g825
sg828
g850
sa(dp955
S'block.thisTrialN'
p956
I15
sS'block.thisRepN'
p957
I0
sg29
g33
sS'block.thisN'
p958
I15
sg811
(S'HALF'
S'ADD'
S'x'
S'y'
tp959
sg27
g28
sg813
L2L
sg814
(I12
I6
tp960
sg22
I1
sg20
F1.0500629759335425
sg23
F1.6500746647070628
sVY
L8L
sVX
L4L
sg816
L0L
sg35
g36
sg37
g38
sg21
S'6'
sg19
S'space'
p961
sg34
g11
sg819
L6L
sg820
g821
sg822
L6L
sS'block.thisIndex'
p962
I3
sg824
g827
sg826
L0L
sg828
g887
sa(dp963
S'block.thisTrialN'
p964
I16
sS'block.thisRepN'
p965
I0
sg29
g33
sS'block.thisN'
p966
I16
sg811
(S'DECREASE'
S'DOUBLE'
S'TIMES'
S'THIRD'
S'x'
S'y'
tp967
sg27
g28
sg813
L4L
sg814
(I1
I3
I6
I5
tp968
sg22
I1
sg20
F5.1831260907929391
sg23
F3.6832365042646416
sVY
L3L
sVX
L3L
sg816
g877
sg35
g36
sg37
g38
sg21
S'5'
sg19
S'space'
p969
sg34
g11
sg819
L5L
sg820
g840
sg822
L5L
sS'block.thisIndex'
p970
I14
sg824
g825
sg826
g817
sg828
g868
sa(dp971
S'block.thisTrialN'
p972
I17
sS'block.thisRepN'
p973
I0
sg29
g33
sS'block.thisN'
p974
I17
sg811
(S'DIVIDE'
S'DECREASE'
S'x'
S'y'
tp975
sg27
g28
sg813
L2L
sg814
(I8
I2
tp976
sg22
I1
sg20
F0.98321085194766056
sg23
F2.083374599867966
sVY
L4L
sVX
L9L
sg816
L0L
sg35
g36
sg37
g38
sg21
S'2'
sg19
S'space'
p977
sg34
g11
sg819
L2L
sg820
g825
sg822
L2L
sS'block.thisIndex'
p978
I1
sg824
VDIVIDE
p979
sg826
L0L
sg828
g930
sa(dp980
S'block.thisTrialN'
p981
I0
sS'block.thisRepN'
p982
I0
sg29
g33
sS'block.thisN'
p983
I0
sVRule
p984
(S'TRIPLE'
S'HALF'
S'DIVIDE'
S'x'
S'y'
tp985
sg27
g28
sVLength
p986
L3L
sVIntermediate
p987
(I2
I1
I3
tp988
sg22
I1
sg20
F7.3994966125319479
sg23
F4.0498694461130071
sVY
L2L
sVX
L4L
sVOperatorc
p989
VDIVIDE
p990
sg35
g36
sg37
g38
sg21
S'3'
sg19
S'space'
p991
sg34
g11
sVResult
p992
L3L
sVOperatora
p993
Vhalf
p994
sVCorrectResponse
p995
L3L
sS'block.thisIndex'
p996
I9
sVOperatorb
p997
Vtriple
p998
sVOperatord
p999
L0L
sVStructure
p1000
VUUBxy
p1001
sa(dp1002
S'block.thisTrialN'
p1003
I1
sS'block.thisRepN'
p1004
I0
sg29
g33
sS'block.thisN'
p1005
I1
sg984
(S'THIRD'
S'SUBTRACT'
S'x'
S'y'
tp1006
sg27
g28
sg986
L2L
sg987
(I3
I1
tp1007
sg22
I1
sg20
F3.1998830422089668
sg23
F3.4663966814987361
sVY
L2L
sVX
L5L
sg989
L0L
sg35
g36
sg37
g38
sg21
S'1'
sg19
S'space'
p1008
sg34
g11
sg992
L1L
sg993
VSUBTRACT
p1009
sg995
L1L
sS'block.thisIndex'
p1010
I3
sg997
Vthird
p1011
sg999
L0L
sg1000
VUBxy
p1012
sa(dp1013
S'block.thisTrialN'
p1014
I2
sS'block.thisRepN'
p1015
I0
sg29
g33
sS'block.thisN'
p1016
I2
sg984
(S'THIRD'
S'DOUBLE'
S'ADD'
S'INCREASE'
S'x'
S'y'
tp1017
sg27
g28
sg986
L4L
sg987
(I10
I12
I24
I8
tp1018
sg22
I1
sg20
F1.7998177390254568
sg23
F4.3829776362836128
sVY
L2L
sVX
L9L
sg989
VADD
p1019
sg35
g36
sg37
g38
sg21
S'8'
sg19
S'space'
p1020
sg34
g11
sg992
L8L
sg993
Vdouble
p1021
sg995
L8L
sS'block.thisIndex'
p1022
I14
sg997
g1011
sg999
Vincrease
p1023
sg1000
VUUBUxy
p1024
sa(dp1025
S'block.thisTrialN'
p1026
I3
sS'block.thisRepN'
p1027
I0
sg29
g33
sS'block.thisN'
p1028
I3
sg984
(S'THIRD'
S'INCREASE'
S'HALF'
S'DIVIDE'
S'x'
S'y'
tp1029
sg27
g28
sg986
L4L
sg987
(I4
I2
I3
I1
tp1030
sg22
I1
sg20
F1.3998493757244432
sg23
F4.8831251458905172
sVY
L2L
sVX
L8L
sg989
g994
sg35
g36
sg37
g38
sg21
S'1'
sg19
S'space'
p1031
sg34
g11
sg992
L1L
sg993
g1023
sg995
L1L
sS'block.thisIndex'
p1032
I16
sg997
g1011
sg999
g990
sg1000
VUUUBxy
p1033
sa(dp1034
S'block.thisTrialN'
p1035
I4
sS'block.thisRepN'
p1036
I0
sg29
g33
sS'block.thisN'
p1037
I4
sg984
(S'THIRD'
S'ADD'
S'x'
S'y'
tp1038
sg27
g28
sg986
L2L
sg987
(I9
I3
tp1039
sg22
I1
sg20
F1.4834430527116638
sg23
F4.8162187775742495
sVY
L5L
sVX
L4L
sg989
L0L
sg35
g36
sg37
g38
sg21
S'3'
sg19
S'space'
p1040
sg34
g11
sg992
L3L
sg993
g1019
sg995
L3L
sS'block.thisIndex'
p1041
I2
sg997
g1011
sg999
L0L
sg1000
g1012
sa(dp1042
S'block.thisTrialN'
p1043
I5
sS'block.thisRepN'
p1044
I0
sg29
g33
sS'block.thisN'
p1045
I5
sg984
(S'TRIPLE'
S'HALF'
S'ADD'
S'DECREASE'
S'x'
S'y'
tp1046
sg27
g28
sg986
L4L
sg987
(I1
I4
I2
I6
tp1047
sg22
I1
sg20
F0.45011918006639462
sg23
F6.8996602204570081
sVY
L3L
sVX
L2L
sg989
g1019
sg35
g36
sg37
g38
sg21
S'6'
sg19
S'space'
p1048
sg34
g11
sg992
L6L
sg993
g994
sg995
L6L
sS'block.thisIndex'
p1049
I15
sg997
g998
sg999
Vdecrease
p1050
sg1000
g1024
sa(dp1051
S'block.thisTrialN'
p1052
I6
sS'block.thisRepN'
p1053
I0
sg29
g33
sS'block.thisN'
p1054
I6
sg984
(S'TIMES'
S'INCREASE'
S'THIRD'
S'DOUBLE'
S'x'
S'y'
tp1055
sg27
g28
sg986
L4L
sg987
(I6
I2
I3
I9
tp1056
sg22
I1
sg20
F4.6328883081005188
sg23
F5.2497636871557916
sVY
L3L
sVX
L3L
sg989
g1011
sg35
g36
sg37
g38
sg21
S'9'
sg19
S'space'
p1057
sg34
g11
sg992
L9L
sg993
g1023
sg995
L9L
sS'block.thisIndex'
p1058
I11
sg997
VTIMES
p1059
sg999
g1021
sg1000
VBUUUxy
p1060
sa(dp1061
S'block.thisTrialN'
p1062
I7
sS'block.thisRepN'
p1063
I0
sg29
g33
sS'block.thisN'
p1064
I7
sg984
(S'INCREASE'
S'DIVIDE'
S'TRIPLE'
S'DOUBLE'
S'x'
S'y'
tp1065
sg27
g28
sg986
L4L
sg987
(I6
I18
I3
I4
tp1066
sg22
I0
sg20
F2.5164383096707752
sg23
F9.1161129836109467
sVY
L6L
sVX
L3L
sg989
g998
sg35
g36
sg37
g38
sg21
S'6'
sg19
S'space'
p1067
sg34
g11
sg992
L4L
sg993
g990
sg995
L4L
sS'block.thisIndex'
p1068
I12
sg997
g1023
sg999
g1021
sg1000
VUBUUxy
p1069
sa(dp1070
S'block.thisTrialN'
p1071
I8
sS'block.thisRepN'
p1072
I0
sg29
g33
sS'block.thisN'
p1073
I8
sg984
(S'SUBTRACT'
S'HALF'
S'INCREASE'
S'TRIPLE'
S'x'
S'y'
tp1074
sg27
g28
sg986
L4L
sg987
(I15
I16
I8
I3
tp1075
sg22
I1
sg20
F2.0999590192805044
sg23
F4.5331676139612682
sVY
L5L
sVX
L5L
sg989
g1023
sg35
g36
sg37
g38
sg21
S'3'
sg19
S'space'
p1076
sg34
g11
sg992
L3L
sg993
g994
sg995
L3L
sS'block.thisIndex'
p1077
I10
sg997
g1009
sg999
g998
sg1000
g1060
sa(dp1078
S'block.thisTrialN'
p1079
I9
sS'block.thisRepN'
p1080
I0
sg29
g33
sS'block.thisN'
p1081
I9
sg984
(S'THIRD'
S'DECREASE'
S'TIMES'
S'x'
S'y'
tp1082
sg27
g28
sg986
L3L
sg987
(I25
I24
I8
tp1083
sg22
I1
sg20
F1.0833815991209121
sg23
F3.5499109167867573
sVY
L5L
sVX
L5L
sg989
g1059
sg35
g36
sg37
g38
sg21
S'8'
sg19
S'space'
p1084
sg34
g11
sg992
L8L
sg993
g1050
sg995
L8L
sS'block.thisIndex'
p1085
I8
sg997
g1011
sg999
L0L
sg1000
g1001
sa(dp1086
S'block.thisTrialN'
p1087
I10
sS'block.thisRepN'
p1088
I0
sg29
g33
sS'block.thisN'
p1089
I10
sg984
(S'TRIPLE'
S'DECREASE'
S'HALF'
S'TIMES'
S'x'
S'y'
tp1090
sg27
g28
sg986
L4L
sg987
(I6
I3
I2
I6
tp1091
sg22
I1
sg20
F1.5000428705243394
sg23
F8.149474302350427
sVY
L2L
sVX
L3L
sg989
g994
sg35
g36
sg37
g38
sg21
S'6'
sg19
S'space'
p1092
sg34
g11
sg992
L6L
sg993
g1050
sg995
L6L
sS'block.thisIndex'
p1093
I17
sg997
g998
sg999
g1059
sg1000
g1033
sa(dp1094
S'block.thisTrialN'
p1095
I11
sS'block.thisRepN'
p1096
I0
sg29
g33
sS'block.thisN'
p1097
I11
sg984
(S'TIMES'
S'THIRD'
S'HALF'
S'x'
S'y'
tp1098
sg27
g28
sg986
L3L
sg987
(I3
I1
I5
tp1099
sg22
I1
sg20
F1.0667191378597636
sg23
F9.782708374390495
sVY
L5L
sVX
L6L
sg989
g994
sg35
g36
sg37
g38
sg21
S'5'
sg19
S'space'
p1100
sg34
g11
sg992
L5L
sg993
g1011
sg995
L5L
sS'block.thisIndex'
p1101
I5
sg997
g1059
sg999
L0L
sg1000
VBUUxy
p1102
sa(dp1103
S'block.thisTrialN'
p1104
I12
sS'block.thisRepN'
p1105
I0
sg29
g33
sS'block.thisN'
p1106
I12
sg984
(S'TIMES'
S'DECREASE'
S'HALF'
S'x'
S'y'
tp1107
sg27
g28
sg986
L3L
sg987
(I4
I3
I9
tp1108
sg22
I1
sg20
F1.849826820573071
sg23
F3.5832347894465784
sVY
L3L
sVX
L8L
sg989
g994
sg35
g36
sg37
g38
sg21
S'9'
sg19
S'space'
p1109
sg34
g11
sg992
L9L
sg993
g1050
sg995
L9L
sS'block.thisIndex'
p1110
I4
sg997
g1059
sg999
L0L
sg1000
g1102
sa(dp1111
S'block.thisTrialN'
p1112
I13
sS'block.thisRepN'
p1113
I0
sg29
g33
sS'block.thisN'
p1114
I13
sg984
(S'TIMES'
S'DECREASE'
S'x'
S'y'
tp1115
sg27
g28
sg986
L2L
sg987
(I2
I4
tp1116
sg22
I1
sg20
F1.0001714821119094
sg23
F3.3830745761661092
sVY
L2L
sVX
L3L
sg989
L0L
sg35
g36
sg37
g38
sg21
S'4'
sg19
S'space'
p1117
sg34
g11
sg992
L4L
sg993
g1050
sg995
L4L
sS'block.thisIndex'
p1118
I0
sg997
g1059
sg999
L0L
sg1000
VBUxy
p1119
sa(dp1120
S'block.thisTrialN'
p1121
I14
sS'block.thisRepN'
p1122
I0
sg29
g33
sS'block.thisN'
p1123
I14
sg984
(S'THIRD'
S'TIMES'
S'DECREASE'
S'x'
S'y'
tp1124
sg27
g28
sg986
L3L
sg987
(I3
I15
I5
tp1125
sg22
I1
sg20
F1.0500643757841317
sg23
F3.3498882391722873
sVY
L5L
sVX
L4L
sg989
g1050
sg35
g36
sg37
g38
sg21
S'5'
sg19
S'space'
p1126
sg34
g11
sg992
L5L
sg993
g1059
sg995
L5L
sS'block.thisIndex'
p1127
I7
sg997
g1011
sg999
L0L
sg1000
VUBUxy
p1128
sa(dp1129
S'block.thisTrialN'
p1130
I15
sS'block.thisRepN'
p1131
I0
sg29
g33
sS'block.thisN'
p1132
I15
sg984
(S'TRIPLE'
S'SUBTRACT'
S'DOUBLE'
S'DECREASE'
S'x'
S'y'
tp1133
sg27
g28
sg986
L4L
sg987
(I2
I4
I1
I3
tp1134
sg22
I1
sg20
F2.9832405988418031
sg23
F6.316332690679701
sVY
L3L
sVX
L3L
sg989
g1021
sg35
g36
sg37
g38
sg21
S'3'
sg19
S'space'
p1135
sg34
g11
sg992
L3L
sg993
g1009
sg995
L3L
sS'block.thisIndex'
p1136
I13
sg997
g998
sg999
g1050
sg1000
g1069
sa(dp1137
S'block.thisTrialN'
p1138
I16
sS'block.thisRepN'
p1139
I0
sg29
g33
sS'block.thisN'
p1140
I16
sg984
(S'TIMES'
S'INCREASE'
S'x'
S'y'
tp1141
sg27
g28
sg986
L2L
sg987
(I3
I6
tp1142
sg22
I1
sg20
F0.71678470351616852
sg23
F1.9666950253740652
sVY
L2L
sVX
L2L
sg989
L0L
sg35
g36
sg37
g38
sg21
S'6'
sg19
S'space'
p1143
sg34
g11
sg992
L6L
sg993
g1023
sg995
L6L
sS'block.thisIndex'
p1144
I1
sg997
g1059
sg999
L0L
sg1000
g1119
sa(dp1145
S'block.thisTrialN'
p1146
I17
sS'block.thisRepN'
p1147
I0
sg29
g33
sS'block.thisN'
p1148
I17
sg984
(S'THIRD'
S'ADD'
S'INCREASE'
S'x'
S'y'
tp1149
sg27
g28
sg986
L3L
sg987
(I8
I15
I5
tp1150
sg22
I1
sg20
F8.5826660987950163
sg23
F3.9830505686695687
sVY
L7L
sVX
L7L
sg989
g1023
sg35
g36
sg37
g38
sg21
S'5'
sg19
S'space'
p1151
sg34
g11
sg992
L5L
sg993
g1019
sg995
L5L
sS'block.thisIndex'
p1152
I6
sg997
g1011
sg999
L0L
sg1000
g1128
sa(dp1153
S'block.thisTrialN'
p1154
I0
sS'block.thisRepN'
p1155
I0
sg29
g33
sS'block.thisN'
p1156
I0
sVRule
p1157
(S'DIVIDE'
S'DOUBLE'
S'INCREASE'
S'TRIPLE'
S'x'
S'y'
tp1158
sg27
g28
sVLength
p1159
L4L
sVIntermediate
p1160
(I9
I10
I20
I5
tp1161
sg22
I1
sg20
F2.6999154138320591
sg23
F3.5665786275203573
sVY
L4L
sVX
L3L
sVOperatorc
p1162
Vincrease
p1163
sg35
g36
sg37
g38
sg21
S'5'
sg19
S'space'
p1164
sg34
g11
sVResult
p1165
L5L
sVOperatora
p1166
Vdouble
p1167
sVCorrectResponse
p1168
L5L
sS'block.thisIndex'
p1169
I10
sVOperatorb
p1170
VDIVIDE
p1171
sVOperatord
p1172
Vtriple
p1173
sVStructure
p1174
VBUUUxy
p1175
sa(dp1176
S'block.thisTrialN'
p1177
I1
sS'block.thisRepN'
p1178
I0
sg29
g33
sS'block.thisN'
p1179
I1
sg1157
(S'TRIPLE'
S'INCREASE'
S'SUBTRACT'
S'x'
S'y'
tp1180
sg27
g28
sg1159
L3L
sg1160
(I1
I2
I6
tp1181
sg22
I1
sg20
F4.4497727162233787
sg23
F5.5330584253533743
sVY
L2L
sVX
L3L
sg1162
VSUBTRACT
p1182
sg35
g36
sg37
g38
sg21
S'6'
sg19
S'space'
p1183
sg34
g11
sg1165
L6L
sg1166
g1163
sg1168
L6L
sS'block.thisIndex'
p1184
I9
sg1170
g1173
sg1172
L0L
sg1174
VUUBxy
p1185
sa(dp1186
S'block.thisTrialN'
p1187
I2
sS'block.thisRepN'
p1188
I0
sg29
g33
sS'block.thisN'
p1189
I2
sg1157
(S'TRIPLE'
S'INCREASE'
S'DIVIDE'
S'DOUBLE'
S'x'
S'y'
tp1190
sg27
g28
sg1159
L4L
sg1160
(I16
I2
I3
I9
tp1191
sg22
I1
sg20
F2.6332806171703851
sg23
F10.549308629648294
sVY
L8L
sVX
L8L
sg1162
g1171
sg35
g36
sg37
g38
sg21
S'9'
sg19
S'space'
p1192
sg34
g11
sg1165
L9L
sg1166
g1163
sg1168
L9L
sS'block.thisIndex'
p1193
I15
sg1170
g1173
sg1172
g1167
sg1174
VUUBUxy
p1194
sa(dp1195
S'block.thisTrialN'
p1196
I3
sS'block.thisRepN'
p1197
I0
sg29
g33
sS'block.thisN'
p1198
I3
sg1157
(S'TRIPLE'
S'DOUBLE'
S'SUBTRACT'
S'INCREASE'
S'x'
S'y'
tp1199
sg27
g28
sg1159
L4L
sg1160
(I5
I1
I2
I6
tp1200
sg22
I1
sg20
F3.4165258355351398
sg23
F4.0165315749327419
sVY
L4L
sVX
L4L
sg1162
g1182
sg35
g36
sg37
g38
sg21
S'6'
sg19
S'space'
p1201
sg34
g11
sg1165
L6L
sg1166
g1167
sg1168
L6L
sS'block.thisIndex'
p1202
I14
sg1170
g1173
sg1172
g1163
sg1174
g1194
sa(dp1203
S'block.thisTrialN'
p1204
I4
sS'block.thisRepN'
p1205
I0
sg29
g33
sS'block.thisN'
p1206
I4
sg1157
(S'ADD'
S'HALF'
S'x'
S'y'
tp1207
sg27
g28
sg1159
L2L
sg1160
(I2
I7
tp1208
sg22
I1
sg20
F1.4333758772263536
sg23
F2.066481162677519
sVY
L5L
sVX
L4L
sg1162
L0L
sg35
g36
sg37
g38
sg21
S'7'
sg19
S'space'
p1209
sg34
g11
sg1165
L7L
sg1166
Vhalf
p1210
sg1168
L7L
sS'block.thisIndex'
p1211
I0
sg1170
VADD
p1212
sg1172
L0L
sg1174
VBUxy
p1213
sa(dp1214
S'block.thisTrialN'
p1215
I5
sS'block.thisRepN'
p1216
I0
sg29
g33
sS'block.thisN'
p1217
I5
sg1157
(S'DECREASE'
S'THIRD'
S'DOUBLE'
S'ADD'
S'x'
S'y'
tp1218
sg27
g28
sg1159
L4L
sg1160
(I9
I18
I6
I5
tp1219
sg22
I1
sg20
F2.2666319269483211
sg23
F5.516235680814134
sVY
L4L
sVX
L5L
sg1162
g1167
sg35
g36
sg37
g38
sg21
S'5'
sg19
S'space'
p1220
sg34
g11
sg1165
L5L
sg1166
Vthird
p1221
sg1168
L5L
sS'block.thisIndex'
p1222
I16
sg1170
Vdecrease
p1223
sg1172
g1212
sg1174
VUUUBxy
p1224
sa(dp1225
S'block.thisTrialN'
p1226
I6
sS'block.thisRepN'
p1227
I0
sg29
g33
sS'block.thisN'
p1228
I6
sg1157
(S'SUBTRACT'
S'TRIPLE'
S'x'
S'y'
tp1229
sg27
g28
sg1159
L2L
sg1160
(I12
I9
tp1230
sg22
I1
sg20
F0.93341664796753321
sg23
F3.6332172737747896
sVY
L3L
sVX
L4L
sg1162
L0L
sg35
g36
sg37
g38
sg21
S'9'
sg19
S'space'
p1231
sg34
g11
sg1165
L9L
sg1166
g1173
sg1168
L9L
sS'block.thisIndex'
p1232
I1
sg1170
g1182
sg1172
L0L
sg1174
g1213
sa(dp1233
S'block.thisTrialN'
p1234
I7
sS'block.thisRepN'
p1235
I0
sg29
g33
sS'block.thisN'
p1236
I7
sg1157
(S'THIRD'
S'INCREASE'
S'HALF'
S'TIMES'
S'x'
S'y'
tp1237
sg27
g28
sg1159
L4L
sg1160
(I28
I14
I15
I5
tp1238
sg22
I1
sg20
F3.5998479058762314
sg23
F4.0332048850686988
sVY
L4L
sVX
L7L
sg1162
g1210
sg35
g36
sg37
g38
sg21
S'5'
sg19
S'space'
p1239
sg34
g11
sg1165
L5L
sg1166
g1163
sg1168
L5L
sS'block.thisIndex'
p1240
I17
sg1170
g1221
sg1172
VTIMES
p1241
sg1174
g1224
sa(dp1242
S'block.thisTrialN'
p1243
I8
sS'block.thisRepN'
p1244
I0
sg29
g33
sS'block.thisN'
p1245
I8
sg1157
(S'TIMES'
S'HALF'
S'INCREASE'
S'THIRD'
S'x'
S'y'
tp1246
sg27
g28
sg1159
L4L
sg1160
(I1
I2
I1
I9
tp1247
sg22
I1
sg20
F2.9665763877565041
sg23
F4.6664739534462569
sVY
L9L
sVX
L3L
sg1162
g1163
sg35
g36
sg37
g38
sg21
S'9'
sg19
S'space'
p1248
sg34
g11
sg1165
L9L
sg1166
g1210
sg1168
L9L
sS'block.thisIndex'
p1249
I11
sg1170
g1241
sg1172
g1221
sg1174
g1175
sa(dp1250
S'block.thisTrialN'
p1251
I9
sS'block.thisRepN'
p1252
I0
sg29
g33
sS'block.thisN'
p1253
I9
sg1157
(S'DIVIDE'
S'TRIPLE'
S'DECREASE'
S'x'
S'y'
tp1254
sg27
g28
sg1159
L3L
sg1160
(I6
I18
I9
tp1255
sg22
I1
sg20
F1.200068172882311
sg23
F4.2998473109328188
sVY
L2L
sVX
L7L
sg1162
g1223
sg35
g36
sg37
g38
sg21
S'9'
sg19
S'space'
p1256
sg34
g11
sg1165
L9L
sg1166
g1173
sg1168
L9L
sS'block.thisIndex'
p1257
I4
sg1170
g1171
sg1172
L0L
sg1174
VBUUxy
p1258
sa(dp1259
S'block.thisTrialN'
p1260
I10
sS'block.thisRepN'
p1261
I0
sg29
g33
sS'block.thisN'
p1262
I10
sg1157
(S'HALF'
S'SUBTRACT'
S'DECREASE'
S'TRIPLE'
S'x'
S'y'
tp1263
sg27
g28
sg1159
L4L
sg1160
(I15
I14
I10
I5
tp1264
sg22
I1
sg20
F2.0499912334198598
sg23
F6.1163583080051467
sVY
L4L
sVX
L5L
sg1162
g1223
sg35
g36
sg37
g38
sg21
S'5'
sg19
S'space'
p1265
sg34
g11
sg1165
L5L
sg1166
g1182
sg1168
L5L
sS'block.thisIndex'
p1266
I12
sg1170
g1210
sg1172
g1173
sg1174
VUBUUxy
p1267
sa(dp1268
S'block.thisTrialN'
p1269
I11
sS'block.thisRepN'
p1270
I0
sg29
g33
sS'block.thisN'
p1271
I11
sg1157
(S'INCREASE'
S'DIVIDE'
S'x'
S'y'
tp1272
sg27
g28
sg1159
L2L
sg1160
(I4
I5
tp1273
sg22
I1
sg20
F0.78342964912008028
sg23
F3.7498933486203896
sVY
L2L
sVX
L8L
sg1162
L0L
sg35
g36
sg37
g38
sg21
S'5'
sg19
S'space'
p1274
sg34
g11
sg1165
L5L
sg1166
g1171
sg1168
L5L
sS'block.thisIndex'
p1275
I3
sg1170
g1163
sg1172
L0L
sg1174
VUBxy
p1276
sa(dp1277
S'block.thisTrialN'
p1278
I12
sS'block.thisRepN'
p1279
I0
sg29
g33
sS'block.thisN'
p1280
I12
sg1157
(S'INCREASE'
S'TIMES'
S'TRIPLE'
S'HALF'
S'x'
S'y'
tp1281
sg27
g28
sg1159
L4L
sg1160
(I1
I3
I6
I7
tp1282
sg22
I1
sg20
F2.8499269101303071
sg23
F6.149665032455232
sVY
L2L
sVX
L2L
sg1162
g1173
sg35
g36
sg37
g38
sg21
S'7'
sg19
S'space'
p1283
sg34
g11
sg1165
L7L
sg1166
g1241
sg1168
L7L
sS'block.thisIndex'
p1284
I13
sg1170
g1163
sg1172
g1210
sg1174
g1267
sa(dp1285
S'block.thisTrialN'
p1286
I13
sS'block.thisRepN'
p1287
I0
sg29
g33
sS'block.thisN'
p1288
I13
sg1157
(S'TRIPLE'
S'HALF'
S'ADD'
S'x'
S'y'
tp1289
sg27
g28
sg1159
L3L
sg1160
(I6
I3
I9
tp1290
sg22
I1
sg20
F1.1334197276446503
sg23
F6.2996943768957863
sVY
L3L
sVX
L3L
sg1162
g1212
sg35
g36
sg37
g38
sg21
S'9'
sg19
S'space'
p1291
sg34
g11
sg1165
L9L
sg1166
g1210
sg1168
L9L
sS'block.thisIndex'
p1292
I8
sg1170
g1173
sg1172
L0L
sg1174
g1185
sa(dp1293
S'block.thisTrialN'
p1294
I14
sS'block.thisRepN'
p1295
I0
sg29
g33
sS'block.thisN'
p1296
I14
sg1157
(S'SUBTRACT'
S'INCREASE'
S'HALF'
S'x'
S'y'
tp1297
sg27
g28
sg1159
L3L
sg1160
(I4
I5
I3
tp1298
sg22
I0
sg20
F1.200068172896863
sg23
F12.899118127024849
sVY
L2L
sVX
L8L
sg1162
g1210
sg35
g36
sg37
g38
sg21
S'8'
sg19
S'space'
p1299
sg34
g11
sg1165
L3L
sg1166
g1163
sg1168
L3L
sS'block.thisIndex'
p1300
I5
sg1170
g1182
sg1172
L0L
sg1174
g1258
sa(dp1301
S'block.thisTrialN'
p1302
I15
sS'block.thisRepN'
p1303
I0
sg29
g33
sS'block.thisN'
p1304
I15
sg1157
(S'DOUBLE'
S'DIVIDE'
S'x'
S'y'
tp1305
sg27
g28
sg1159
L2L
sg1160
(I1
I2
tp1306
sg22
I1
sg20
F0.95009380771080032
sg23
F1.916674395033624
sVY
L8L
sVX
L8L
sg1162
L0L
sg35
g36
sg37
g38
sg21
S'2'
sg19
S'space'
p1307
sg34
g11
sg1165
L2L
sg1166
g1171
sg1168
L2L
sS'block.thisIndex'
p1308
I2
sg1170
g1167
sg1172
L0L
sg1174
g1276
sa(dp1309
S'block.thisTrialN'
p1310
I16
sS'block.thisRepN'
p1311
I0
sg29
g33
sS'block.thisN'
p1312
I16
sg1157
(S'INCREASE'
S'DIVIDE'
S'TRIPLE'
S'x'
S'y'
tp1313
sg27
g28
sg1159
L3L
sg1160
(I6
I2
I3
tp1314
sg22
I1
sg20
F0.9835870626848191
sg23
F4.3834798338793917
sVY
L3L
sVX
L2L
sg1162
g1173
sg35
g36
sg37
g38
sg21
S'3'
sg19
S'space'
p1315
sg34
g11
sg1165
L3L
sg1166
g1171
sg1168
L3L
sS'block.thisIndex'
p1316
I7
sg1170
g1163
sg1172
L0L
sg1174
VUBUxy
p1317
sa(dp1318
S'block.thisTrialN'
p1319
I17
sS'block.thisRepN'
p1320
I0
sg29
g33
sS'block.thisN'
p1321
I17
sg1157
(S'HALF'
S'TIMES'
S'DECREASE'
S'x'
S'y'
tp1322
sg27
g28
sg1159
L3L
sg1160
(I8
I16
I8
tp1323
sg22
I1
sg20
F0.76682213210733607
sg23
F4.3998630242858781
sVY
L2L
sVX
L9L
sg1162
g1223
sg35
g36
sg37
g38
sg21
S'8'
sg19
S'space'
p1324
sg34
g11
sg1165
L8L
sg1166
g1241
sg1168
L8L
sS'block.thisIndex'
p1325
I6
sg1170
g1210
sg1172
L0L
sg1174
g1317
sa(dp1326
S'block.thisTrialN'
p1327
I0
sS'block.thisRepN'
p1328
I0
sg29
g33
sS'block.thisN'
p1329
I0
sVRule
p1330
(S'ADD'
S'DECREASE'
S'HALF'
S'x'
S'y'
tp1331
sg27
g28
sVLength
p1332
L3L
sVIntermediate
p1333
(I3
I2
I6
tp1334
sg22
I1
sg20
F1.1500387934502214
sg23
F8.0995355634659063
sVY
L4L
sVX
L6L
sVOperatorc
p1335
Vhalf
p1336
sg35
g36
sg37
g38
sg21
S'6'
sg19
S'space'
p1337
sg34
g11
sVResult
p1338
L6L
sVOperatora
p1339
Vdecrease
p1340
sVCorrectResponse
p1341
L6L
sS'block.thisIndex'
p1342
I4
sVOperatorb
p1343
VADD
p1344
sVOperatord
p1345
L0L
sVStructure
p1346
VBUUxy
p1347
sa(dp1348
S'block.thisTrialN'
p1349
I1
sS'block.thisRepN'
p1350
I0
sg29
g33
sS'block.thisN'
p1351
I1
sg1330
(S'INCREASE'
S'TIMES'
S'x'
S'y'
tp1352
sg27
g28
sg1332
L2L
sg1333
(I8
I9
tp1353
sg22
I1
sg20
F0.91674053811584599
sg23
F2.5999913908890449
sVY
L4L
sVX
L2L
sg1335
L0L
sg35
g36
sg37
g38
sg21
S'9'
sg19
S'space'
p1354
sg34
g11
sg1338
L9L
sg1339
VTIMES
p1355
sg1341
L9L
sS'block.thisIndex'
p1356
I2
sg1343
Vincrease
p1357
sg1345
L0L
sg1346
VUBxy
p1358
sa(dp1359
S'block.thisTrialN'
p1360
I2
sS'block.thisRepN'
p1361
I0
sg29
g33
sS'block.thisN'
p1362
I2
sg1330
(S'TRIPLE'
S'HALF'
S'TIMES'
S'x'
S'y'
tp1363
sg27
g28
sg1332
L3L
sg1333
(I6
I3
I9
tp1364
sg22
I1
sg20
F0.83340793388197199
sg23
F3.633025843751966
sVY
L3L
sVX
L2L
sg1335
g1355
sg35
g36
sg37
g38
sg21
S'9'
sg19
S'space'
p1365
sg34
g11
sg1338
L9L
sg1339
g1336
sg1341
L9L
sS'block.thisIndex'
p1366
I9
sg1343
Vtriple
p1367
sg1345
L0L
sg1346
VUUBxy
p1368
sa(dp1369
S'block.thisTrialN'
p1370
I3
sS'block.thisRepN'
p1371
I0
sg29
g33
sS'block.thisN'
p1372
I3
sg1330
(S'TRIPLE'
S'SUBTRACT'
S'x'
S'y'
tp1373
sg27
g28
sg1332
L2L
sg1333
(I2
I6
tp1374
sg22
I1
sg20
F1.2167001873312984
sg23
F3.0999124741356354
sVY
L6L
sVX
L8L
sg1335
L0L
sg35
g36
sg37
g38
sg21
S'6'
sg19
S'space'
p1375
sg34
g11
sg1338
L6L
sg1339
VSUBTRACT
p1376
sg1341
L6L
sS'block.thisIndex'
p1377
I3
sg1343
g1367
sg1345
L0L
sg1346
g1358
sa(dp1378
S'block.thisTrialN'
p1379
I4
sS'block.thisRepN'
p1380
I0
sg29
g33
sS'block.thisN'
p1381
I4
sg1330
(S'TIMES'
S'THIRD'
S'x'
S'y'
tp1382
sg27
g28
sg1332
L2L
sg1333
(I1
I4
tp1383
sg22
I1
sg20
F0.5668243018881185
sg23
F2.783162976949825
sVY
L4L
sVX
L3L
sg1335
L0L
sg35
g36
sg37
g38
sg21
S'4'
sg19
S'space'
p1384
sg34
g11
sg1338
L4L
sg1339
Vthird
p1385
sg1341
L4L
sS'block.thisIndex'
p1386
I1
sg1343
g1355
sg1345
L0L
sg1346
VBUxy
p1387
sa(dp1388
S'block.thisTrialN'
p1389
I5
sS'block.thisRepN'
p1390
I0
sg29
g33
sS'block.thisN'
p1391
I5
sg1330
(S'DECREASE'
S'DIVIDE'
S'TRIPLE'
S'DOUBLE'
S'x'
S'y'
tp1392
sg27
g28
sg1332
L4L
sg1333
(I6
I18
I2
I1
tp1393
sg22
I1
sg20
F3.4165604819136206
sg23
F4.1831967834150419
sVY
L9L
sVX
L3L
sg1335
g1367
sg35
g36
sg37
g38
sg21
S'1'
sg19
S'space'
p1394
sg34
g11
sg1338
L1L
sg1339
VDIVIDE
p1395
sg1341
L1L
sS'block.thisIndex'
p1396
I12
sg1343
g1340
sg1345
Vdouble
p1397
sg1346
VUBUUxy
p1398
sa(dp1399
S'block.thisTrialN'
p1400
I6
sS'block.thisRepN'
p1401
I0
sg29
g33
sS'block.thisN'
p1402
I6
sg1330
(S'INCREASE'
S'TRIPLE'
S'HALF'
S'ADD'
S'x'
S'y'
tp1403
sg27
g28
sg1332
L4L
sg1333
(I4
I2
I6
I7
tp1404
sg22
I1
sg20
F2.9832255504152272
sg23
F9.3327799244143534
sVY
L2L
sVX
L2L
sg1335
g1336
sg35
g36
sg37
g38
sg21
S'7'
sg19
S'space'
p1405
sg34
g11
sg1338
L7L
sg1339
g1367
sg1341
L7L
sS'block.thisIndex'
p1406
I17
sg1343
g1357
sg1345
g1344
sg1346
VUUUBxy
p1407
sa(dp1408
S'block.thisTrialN'
p1409
I7
sS'block.thisRepN'
p1410
I0
sg29
g33
sS'block.thisN'
p1411
I7
sg1330
(S'THIRD'
S'INCREASE'
S'SUBTRACT'
S'HALF'
S'x'
S'y'
tp1412
sg27
g28
sg1332
L4L
sg1333
(I4
I2
I3
I1
tp1413
sg22
I1
sg20
F3.1665612693323055
sg23
F7.3995767541637179
sVY
L2L
sVX
L8L
sg1335
g1376
sg35
g36
sg37
g38
sg21
S'1'
sg19
S'space'
p1414
sg34
g11
sg1338
L1L
sg1339
g1357
sg1341
L1L
sS'block.thisIndex'
p1415
I15
sg1343
g1385
sg1345
g1336
sg1346
VUUBUxy
p1416
sa(dp1417
S'block.thisTrialN'
p1418
I8
sS'block.thisRepN'
p1419
I0
sg29
g33
sS'block.thisN'
p1420
I8
sg1330
(S'TIMES'
S'DECREASE'
S'THIRD'
S'DOUBLE'
S'x'
S'y'
tp1421
sg27
g28
sg1332
L4L
sg1333
(I6
I2
I1
I2
tp1422
sg22
I1
sg20
F2.0000052494578995
sg23
F7.78288615582278
sVY
L2L
sVX
L3L
sg1335
g1385
sg35
g36
sg37
g38
sg21
S'2'
sg19
S'space'
p1423
sg34
g11
sg1338
L2L
sg1339
g1340
sg1341
L2L
sS'block.thisIndex'
p1424
I11
sg1343
g1355
sg1345
g1397
sg1346
VBUUUxy
p1425
sa(dp1426
S'block.thisTrialN'
p1427
I9
sS'block.thisRepN'
p1428
I0
sg29
g33
sS'block.thisN'
p1429
I9
sg1330
(S'DECREASE'
S'HALF'
S'TRIPLE'
S'ADD'
S'x'
S'y'
tp1430
sg27
g28
sg1332
L4L
sg1333
(I4
I12
I6
I5
tp1431
sg22
I1
sg20
F3.0665613043238409
sg23
F4.9164637170033529
sVY
L2L
sVX
L2L
sg1335
g1367
sg35
g36
sg37
g38
sg21
S'5'
sg19
S'space'
p1432
sg34
g11
sg1338
L5L
sg1339
g1336
sg1341
L5L
sS'block.thisIndex'
p1433
I16
sg1343
g1340
sg1345
g1344
sg1346
g1407
sa(dp1434
S'block.thisTrialN'
p1435
I10
sS'block.thisRepN'
p1436
I0
sg29
g33
sS'block.thisN'
p1437
I10
sg1330
(S'SUBTRACT'
S'THIRD'
S'x'
S'y'
tp1438
sg27
g28
sg1332
L2L
sg1333
(I3
I1
tp1439
sg22
I1
sg20
F1.0000699927040841
sg23
F3.5999087995151058
sVY
L2L
sVX
L9L
sg1335
L0L
sg35
g36
sg37
g38
sg21
S'1'
sg19
S'space'
p1440
sg34
g11
sg1338
L1L
sg1339
g1385
sg1341
L1L
sS'block.thisIndex'
p1441
I0
sg1343
g1376
sg1345
L0L
sg1346
g1387
sa(dp1442
S'block.thisTrialN'
p1443
I11
sS'block.thisRepN'
p1444
I0
sg29
g33
sS'block.thisN'
p1445
I11
sg1330
(S'INCREASE'
S'HALF'
S'TIMES'
S'TRIPLE'
S'x'
S'y'
tp1446
sg27
g28
sg1332
L4L
sg1333
(I6
I12
I6
I7
tp1447
sg22
I1
sg20
F1.8666775621968554
sg23
F5.8997102652356261
sVY
L2L
sVX
L2L
sg1335
g1355
sg35
g36
sg37
g38
sg21
S'7'
sg19
S'space'
p1448
sg34
g11
sg1338
L7L
sg1339
g1336
sg1341
L7L
sS'block.thisIndex'
p1449
I14
sg1343
g1357
sg1345
g1367
sg1346
g1416
sa(dp1450
S'block.thisTrialN'
p1451
I12
sS'block.thisRepN'
p1452
I0
sg29
g33
sS'block.thisN'
p1453
I12
sg1330
(S'TRIPLE'
S'SUBTRACT'
S'INCREASE'
S'HALF'
S'x'
S'y'
tp1454
sg27
g28
sg1332
L4L
sg1333
(I3
I4
I1
I3
tp1455
sg22
I1
sg20
F2.1499831492546946
sg23
F3.7165505779412342
sVY
L3L
sVX
L6L
sg1335
g1357
sg35
g36
sg37
g38
sg21
S'3'
sg19
S'space'
p1456
sg34
g11
sg1338
L3L
sg1339
g1376
sg1341
L3L
sS'block.thisIndex'
p1457
I13
sg1343
g1367
sg1345
g1336
sg1346
g1398
sa(dp1458
S'block.thisTrialN'
p1459
I13
sS'block.thisRepN'
p1460
I0
sg29
g33
sS'block.thisN'
p1461
I13
sg1330
(S'DECREASE'
S'HALF'
S'DIVIDE'
S'x'
S'y'
tp1462
sg27
g28
sg1332
L3L
sg1333
(I4
I2
I1
tp1463
sg22
I1
sg20
F1.0167454026232008
sg23
F2.3833321493002586
sVY
L2L
sVX
L8L
sg1335
g1395
sg35
g36
sg37
g38
sg21
S'1'
sg19
S'space'
p1464
sg34
g11
sg1338
L1L
sg1339
g1336
sg1341
L1L
sS'block.thisIndex'
p1465
I8
sg1343
g1340
sg1345
L0L
sg1346
g1368
sa(dp1466
S'block.thisTrialN'
p1467
I14
sS'block.thisRepN'
p1468
I0
sg29
g33
sS'block.thisN'
p1469
I14
sg1330
(S'DOUBLE'
S'TIMES'
S'THIRD'
S'x'
S'y'
tp1470
sg27
g28
sg1332
L3L
sg1333
(I1
I4
I8
tp1471
sg22
I1
sg20
F0.95007560960948467
sg23
F3.3999914608866675
sVY
L4L
sVX
L3L
sg1335
g1385
sg35
g36
sg37
g38
sg21
S'8'
sg19
S'space'
p1472
sg34
g11
sg1338
L8L
sg1339
g1355
sg1341
L8L
sS'block.thisIndex'
p1473
I6
sg1343
g1397
sg1345
L0L
sg1346
VUBUxy
p1474
sa(dp1475
S'block.thisTrialN'
p1476
I15
sS'block.thisRepN'
p1477
I0
sg29
g33
sS'block.thisN'
p1478
I15
sg1330
(S'SUBTRACT'
S'DOUBLE'
S'DECREASE'
S'x'
S'y'
tp1479
sg27
g28
sg1332
L3L
sg1333
(I8
I16
I7
tp1480
sg22
I1
sg20
F1.2332485605147667
sg23
F6.9662778689089464
sVY
L9L
sVX
L9L
sg1335
g1340
sg35
g36
sg37
g38
sg21
S'7'
sg19
S'space'
p1481
sg34
g11
sg1338
L7L
sg1339
g1397
sg1341
L7L
sS'block.thisIndex'
p1482
I5
sg1343
g1376
sg1345
L0L
sg1346
g1347
sa(dp1483
S'block.thisTrialN'
p1484
I16
sS'block.thisRepN'
p1485
I0
sg29
g33
sS'block.thisN'
p1486
I16
sg1330
(S'INCREASE'
S'DIVIDE'
S'HALF'
S'x'
S'y'
tp1487
sg27
g28
sg1332
L3L
sg1333
(I2
I1
I2
tp1488
sg22
I1
sg20
F0.78341635050310288
sg23
F3.0832839593203971
sVY
L2L
sVX
L4L
sg1335
g1336
sg35
g36
sg37
g38
sg21
S'2'
sg19
S'space'
p1489
sg34
g11
sg1338
L2L
sg1339
g1395
sg1341
L2L
sS'block.thisIndex'
p1490
I7
sg1343
g1357
sg1345
L0L
sg1346
g1474
sa(dp1491
S'block.thisTrialN'
p1492
I17
sS'block.thisRepN'
p1493
I0
sg29
g33
sS'block.thisN'
p1494
I17
sg1330
(S'DIVIDE'
S'DECREASE'
S'THIRD'
S'DOUBLE'
S'x'
S'y'
tp1495
sg27
g28
sg1332
L4L
sg1333
(I12
I4
I3
I1
tp1496
sg22
I0
sg20
F2.4999410311429529
sg23
F9.1327729951299261
sVY
L3L
sVX
L6L
sg1335
g1385
sg35
g36
sg37
g38
sg21
S'2'
sg19
S'space'
p1497
sg34
g11
sg1338
L1L
sg1339
g1340
sg1341
L1L
sS'block.thisIndex'
p1498
I10
sg1343
g1395
sg1345
g1397
sg1346
g1425
sasS'loops'
p1499
(lp1500
g1
(cpsychopy.data
TrialHandler
p1501
g3
NtRp1502
(dp1503
S'origin'
p1504
NsS'thisTrial'
p1505
(lp1506
sS'_exp'
p1507
I343434224
sg10
S'practice_trials'
p1508
sg6
S'C:\\Users\\experimenter\\Desktop\\Experiments\\KRITL\\2. kritl_experimenter.py'
p1509
sS'thisRepN'
p1510
I1
sg24
I01
sg25
g26
sS'data'
p1511
g1
(cpsychopy.data
DataHandler
p1512
c__builtin__
dict
p1513
(dp1514
g15
cnumpy.core.multiarray
_reconstruct
p1515
(cnumpy
ndarray
p1516
(I0
tS'b'
tRp1517
(I1
(I6
I1
tg31
(S'O4'
I0
I1
tRp1518
(I3
S'|'
NNNI-1
I-1
I63
tbI00
(lp1519
(lp1520
F2.5999073996499646
aa(lp1521
F3.5998430063918931
aa(lp1522
F3.3998787726450246
aa(lp1523
F5.2663638549274765
aa(lp1524
F9.1160387913550949
aa(lp1525
F10.199268156371545
aatbsg16
g1515
(g1516
(I0
tS'b'
tRp1526
(I1
(I6
I1
tg1518
I00
(lp1527
S'7'
aS'8'
aS'7'
aS'8'
aS'3'
aS'9'
atbsS'ran'
p1528
cnumpy.ma.core
_mareconstruct
p1529
(cnumpy.ma.core
MaskedArray
p1530
g1516
(I0
tp1531
S'b'
tRp1532
(I1
(I6
I1
tg31
(S'f4'
I0
I1
tRp1533
(I3
S'<'
NNNI-1
I-1
I0
tbI00
S'\x00\x00\x80?\x00\x00\x80?\x00\x00\x80?\x00\x00\x80?\x00\x00\x80?\x00\x00\x80?'
S'\x00\x00\x00\x00\x00\x00'
Ntbsg18
g1529
(g1530
g1516
g1531
S'b'
tRp1534
(I1
(I6
I1
tg1533
I00
S'8\x9a\xf9?BP\xd5?~f\xe6?\x01TE@\x93\xca\xac@I\x1f&A'
S'\x00\x00\x00\x00\x00\x00'
Ntbsg14
g1515
(g1516
(I0
tS'b'
tRp1535
(I1
(I6
I1
tg1518
I00
(lp1536
(lp1537
g93
aa(lp1538
g84
aa(lp1539
g120
aa(lp1540
g103
aa(lp1541
g74
aa(lp1542
g112
aatbsS'order'
p1543
g1529
(g1530
g1516
g1531
S'b'
tRp1544
(I1
(I6
I1
tg1533
I00
S'\x00\x00\x00@\x00\x00\x80?\x00\x00\xa0@\x00\x00@@\x00\x00\x00\x00\x00\x00\x80@'
S'\x00\x00\x00\x00\x00\x00'
Ntbsg17
g1529
(g1530
g1516
g1531
S'b'
tRp1545
(I1
(I6
I1
tg1533
I00
S'\x00\x00\x80?\x00\x00\x80?\x00\x00\x80?\x00\x00\x80?\x00\x00\x80?\x00\x00\x80?'
S'\x00\x00\x00\x00\x00\x00'
NtbstRp1546
(dp1547
S'isNumeric'
p1548
(dp1549
g16
I00
sg1528
I01
sg18
I01
sg14
I00
sg17
I01
sg1543
I01
sg15
I00
ssS'trials'
p1550
g1502
sS'dataTypes'
p1551
(lp1552
g1528
ag1543
ag14
ag15
ag16
ag17
ag18
asS'dataShape'
p1553
(lp1554
I6
aI1
asbsS'method'
p1555
S'fullRandom'
p1556
sS'sequenceIndices'
p1557
g1515
(g1516
(I0
tS'b'
tRp1558
(I1
(I6
I1
tg1518
I00
(lp1559
I4
aI1
aI0
aI3
aI5
aI2
atbsS'finished'
p1560
I01
sS'nReps'
p1561
I1
sS'nRemaining'
p1562
I-1
sS'trialList'
p1563
(lp1564
g1
(cpsychopy.data
TrialType
p1565
g1513
(dp1566
g47
L0L
sg48
g89
sg49
g79
sg50
L7L
sg53
L2L
sg52
L0L
sg51
L5L
sg54
L3L
stRp1567
ag1
(g1565
g1513
(dp1568
g47
L0L
sg48
g79
sg49
g80
sg50
L8L
sg53
L2L
sg52
L0L
sg51
L3L
sg54
L3L
stRp1569
ag1
(g1565
g1513
(dp1570
g47
L0L
sg48
g89
sg49
g99
sg50
L7L
sg53
L2L
sg52
L0L
sg51
L5L
sg54
L4L
stRp1571
ag1
(g1565
g1513
(dp1572
g47
g89
sg48
g98
sg49
g99
sg50
L8L
sg53
L3L
sg52
L0L
sg51
L2L
sg54
L4L
stRp1573
ag1
(g1565
g1513
(dp1574
g47
g68
sg48
g69
sg49
g70
sg50
L3L
sg53
L3L
sg52
L0L
sg51
L3L
sg54
L2L
stRp1575
ag1
(g1565
g1513
(dp1576
g47
g68
sg48
g69
sg49
g108
sg50
L9L
sg53
L4L
sg52
g70
sg51
L8L
sg54
L8L
stRp1577
asS'seed'
p1578
NsS'thisIndex'
p1579
I2
sS'thisN'
p1580
I6
sS'thisTrialN'
p1581
I0
sS'nTotal'
p1582
I6
sbag1
(g1501
g3
NtRp1583
(dp1584
g1504
Nsg1505
(lp1585
sg1507
I343434224
sg10
S'block'
p1586
sg6
g1509
sg1510
I1
sg24
I01
sg25
g26
sg1511
g1
(g1512
g1513
(dp1587
g22
g1529
(g1530
g1516
g1531
S'b'
tRp1588
(I1
(I18
I1
tg1533
I00
S'\x00\x00\x80?\x00\x00\x00\x00\x00\x00\x80?\x00\x00\x80?\x00\x00\x80?\x00\x00\x80?\x00\x00\x80?\x00\x00\x00\x00\x00\x00\x80?\x00\x00\x80?\x00\x00\x80?\x00\x00\x80?\x00\x00\x80?\x00\x00\x80?\x00\x00\x80?\x00\x00\x80?\x00\x00\x80?\x00\x00\x80?'
S'\x00\x00\x00\x00\x00\x00\x00\x00\x00\x00\x00\x00\x00\x00\x00\x00\x00\x00'
Ntbsg19
g1515
(g1516
(I0
tS'b'
tRp1589
(I1
(I18
I1
tg1518
I00
(lp1590
g185
ag262
ag237
ag278
ag154
ag194
ag246
ag176
ag202
ag166
ag144
ag286
ag210
ag254
ag131
ag270
ag229
ag220
atbsg23
g1529
(g1530
g1516
g1531
S'b'
tRp1591
(I1
(I18
I1
tg1533
I00
S'g\x99)@\xbd\x8a\xc8?\xfc@\xa4?V\x9a\xf9?\x9ad\x96@\x02\x98\x99@-2S@T\xa7\x1a@\x10av@\xe7\x04\xc0?\x01\xbak@)\xfc\xff@C\x97y@\x9d1\xab@\xfd.gA\xf0cV@#\xa8\x12Av\xeazA'
S'\x00\x00\x00\x00\x00\x00\x00\x00\x00\x00\x00\x00\x00\x00\x00\x00\x00\x00'
Ntbsg1528
g1529
(g1530
g1516
g1531
S'b'
tRp1592
(I1
(I18
I1
tg1533
I00
S'\x00\x00\x80?\x00\x00\x80?\x00\x00\x80?\x00\x00\x80?\x00\x00\x80?\x00\x00\x80?\x00\x00\x80?\x00\x00\x80?\x00\x00\x80?\x00\x00\x80?\x00\x00\x80?\x00\x00\x80?\x00\x00\x80?\x00\x00\x80?\x00\x00\x80?\x00\x00\x80?\x00\x00\x80?\x00\x00\x80?'
S'\x00\x00\x00\x00\x00\x00\x00\x00\x00\x00\x00\x00\x00\x00\x00\x00\x00\x00'
Ntbsg21
g1515
(g1516
(I0
tS'b'
tRp1593
(I1
(I18
I1
tg1518
I00
(lp1594
S'8'
aS'6'
aS'2'
aS'8'
aS'1'
aS'2'
aS'1'
aS'1'
aS'8'
aS'6'
aS'7'
aS'1'
aS'9'
aS'7'
aS'3'
aS'6'
aS'5'
aS'4'
atbsg1543
g1529
(g1530
g1516
g1531
S'b'
tRp1595
(I1
(I18
I1
tg1533
I00
S'\x00\x00\xa0@\x00\x00`A\x00\x000A\x00\x00\x80A\x00\x00\x00@\x00\x00\xc0@\x00\x00@A\x00\x00\x80@\x00\x00\xe0@\x00\x00@@\x00\x00\x80?\x00\x00\x88A\x00\x00\x00A\x00\x00PA\x00\x00\x00\x00\x00\x00pA\x00\x00 A\x00\x00\x10A'
S'\x00\x00\x00\x00\x00\x00\x00\x00\x00\x00\x00\x00\x00\x00\x00\x00\x00\x00'
Ntbsg20
g1529
(g1530
g1516
g1531
S'b'
tRp1596
(I1
(I18
I1
tg1533
I00
S'\xce\x11\xd1?\x19\xfe\xdf?)\xcc\x1c@\x91E\xc4?\xd5\x97\x89@\x91R\xbd@\x8dB\x8c@\xce\xb9\x83@/\xff\x1f@\x12B\xa4@i@\xec@\x88\xfd\x0fA\x03\x96EAUQ1A\x80.wAR\x1eRA+\x0e-A,\xb7oA'
S'\x00\x00\x00\x00\x00\x00\x00\x00\x00\x00\x00\x00\x00\x00\x00\x00\x00\x00'
NtbstRp1597
(dp1598
g1548
(dp1599
g1528
I01
sg21
I00
sg20
I01
sg22
I01
sg19
I00
sg23
I01
sg1543
I01
ssg1550
g1583
sg1551
(lp1600
g1528
ag1543
ag19
ag20
ag21
ag22
ag23
asg1553
(lp1601
I18
aI1
asbsg1555
g1556
sg1557
g1515
(g1516
(I0
tS'b'
tRp1602
(I1
(I18
I1
tg1518
I00
(lp1603
I14
aI10
aI4
aI9
aI7
aI0
aI5
aI8
aI12
aI17
aI16
aI2
aI6
aI13
aI1
aI15
aI3
aI11
atbsg1560
I01
sg1561
I1
sg1562
I-1
sg1563
(lp1604
g1
(g1565
g1513
(dp1605
g55
g183
sVY
L4L
sg57
L2L
sg58
g184
sg59
L8L
sg60
L8L
sg56
g155
sVX
L2L
sg61
L0L
sg62
g146
sg63
L0L
sg64
g187
stRp1606
ag1
(g1565
g1513
(dp1607
g55
g260
sVY
L6L
sg57
L2L
sg58
g261
sg59
L2L
sg60
L2L
sg56
g155
sVX
L6L
sg61
L0L
sg62
g157
sg63
L0L
sg64
g187
stRp1608
ag1
(g1565
g1513
(dp1609
g55
g235
sVY
L7L
sg57
L2L
sg58
g236
sg59
L2L
sg60
L2L
sg56
g165
sVX
L8L
sg61
L0L
sg62
g155
sg63
L0L
sg64
g239
stRp1610
ag1
(g1565
g1513
(dp1611
g55
g276
sVY
L4L
sg57
L2L
sg58
g277
sg59
L8L
sg60
L8L
sg56
g130
sVX
L4L
sg61
L0L
sg62
g135
sg63
L0L
sg64
g239
stRp1612
ag1
(g1565
g1513
(dp1613
g55
g152
sVY
L4L
sg57
L3L
sg58
g153
sg59
L1L
sg60
L1L
sg56
g155
sVX
L6L
sg61
g132
sg62
g157
sg63
L0L
sg64
g158
stRp1614
ag1
(g1565
g1513
(dp1615
g55
g192
sVY
L4L
sg57
L3L
sg58
g193
sg59
L2L
sg60
L2L
sg56
g135
sVX
L4L
sg61
g167
sg62
g165
sg63
L0L
sg64
g158
stRp1616
ag1
(g1565
g1513
(dp1617
g55
g244
sVY
L7L
sg57
L3L
sg58
g245
sg59
L1L
sg60
L1L
sg56
g165
sVX
L3L
sg61
g167
sg62
g135
sg63
L0L
sg64
g178
stRp1618
ag1
(g1565
g1513
(dp1619
g55
g174
sVY
L3L
sg57
L3L
sg58
g175
sg59
L2L
sg60
L2L
sg56
g157
sVX
L9L
sg61
g132
sg62
g143
sg63
L0L
sg64
g178
stRp1620
ag1
(g1565
g1513
(dp1621
g55
g200
sVY
L2L
sg57
L3L
sg58
g201
sg59
L8L
sg60
L8L
sg56
g134
sVX
L7L
sg61
g165
sg62
g155
sg63
L0L
sg64
g169
stRp1622
ag1
(g1565
g1513
(dp1623
g55
g163
sVY
L3L
sg57
L3L
sg58
g164
sg59
L6L
sg60
L6L
sg56
g167
sVX
L4L
sg61
g165
sg62
g155
sg63
L0L
sg64
g169
stRp1624
ag1
(g1565
g1513
(dp1625
g55
g141
sVY
L6L
sg57
L4L
sg58
g142
sg59
L7L
sg60
L7L
sg56
g132
sVX
L4L
sg61
g143
sg62
g146
sg63
g135
sg64
g147
stRp1626
ag1
(g1565
g1513
(dp1627
g55
g284
sVY
L5L
sg57
L4L
sg58
g285
sg59
L1L
sg60
L1L
sg56
g143
sVX
L6L
sg61
g155
sg62
g157
sg63
g132
sg64
g147
stRp1628
ag1
(g1565
g1513
(dp1629
g55
g208
sVY
L4L
sg57
L4L
sg58
g209
sg59
L9L
sg60
L9L
sg56
g146
sVX
L9L
sg61
g155
sg62
g212
sg63
g132
sg64
g213
stRp1630
ag1
(g1565
g1513
(dp1631
g55
g252
sVY
L4L
sg57
L4L
sg58
g253
sg59
L7L
sg60
L7L
sg56
g130
sVX
L3L
sg61
g155
sg62
g134
sg63
g132
sg64
g213
stRp1632
ag1
(g1565
g1513
(dp1633
g55
g128
sVY
L6L
sg57
L4L
sg58
g129
sg59
L3L
sg60
L3L
sg56
g132
sVX
L4L
sg61
g130
sg62
g134
sg63
g135
sg64
g136
stRp1634
ag1
(g1565
g1513
(dp1635
g55
g268
sVY
L8L
sg57
L4L
sg58
g269
sg59
L6L
sg60
L6L
sg56
g167
sVX
L9L
sg61
g157
sg62
g155
sg63
g134
sg64
g136
stRp1636
ag1
(g1565
g1513
(dp1637
g55
g227
sVY
L2L
sg57
L4L
sg58
g228
sg59
L5L
sg60
L5L
sg56
g135
sVX
L8L
sg61
g167
sg62
g134
sg63
g157
sg64
g222
stRp1638
ag1
(g1565
g1513
(dp1639
g55
g218
sVY
L4L
sg57
L4L
sg58
g219
sg59
L4L
sg60
L4L
sg56
g134
sVX
L4L
sg61
g167
sg62
g155
sg63
g157
sg64
g222
stRp1640
asg1578
Nsg1579
I11
sg1580
I18
sg1581
I0
sg1582
I18
sbag1
(g1501
g3
NtRp1641
(dp1642
g1504
Nsg1505
(lp1643
sg1507
I343434224
sg10
g1586
sg6
g1509
sg1510
I1
sg24
I01
sg25
g26
sg1511
g1
(g1512
g1513
(dp1644
g22
g1529
(g1530
g1516
g1531
S'b'
tRp1645
(I1
(I18
I1
tg1533
I00
S'\x00\x00\x80?\x00\x00\x80?\x00\x00\x80?\x00\x00\x80?\x00\x00\x80?\x00\x00\x80?\x00\x00\x80?\x00\x00\x80?\x00\x00\x80?\x00\x00\x80?\x00\x00\x80?\x00\x00\x00\x00\x00\x00\x80?\x00\x00\x80?\x00\x00\x80?\x00\x00\x80?\x00\x00\x80?\x00\x00\x00\x00'
S'\x00\x00\x00\x00\x00\x00\x00\x00\x00\x00\x00\x00\x00\x00\x00\x00\x00\x00'
Ntbsg19
g1515
(g1516
(I0
tS'b'
tRp1646
(I1
(I18
I1
tg1518
I00
(lp1647
g376
ag298
ag349
ag427
ag459
ag384
ag367
ag393
ag418
ag451
ag328
ag443
ag358
ag401
ag410
ag316
ag338
ag435
atbsg23
g1529
(g1530
g1516
g1531
S'b'
tRp1648
(I1
(I18
I1
tg1533
I00
S'"z\xb7?\x9c\x878@NTE@\x7f\xa6\xca?xh\xc6?\x1a\x9b\xf9?\x86\xfe_@\xd0T5@\x11\x11\x11@\xd4\r\xe9@VS\x05A\x00\x00\x00\x00?c6A\x85\xba\x83@\xbcA\xc4@E\xb9#A\xa6Pu@\xcd0\x83A'
S'\x00\x00\x00\x00\x00\x00\x00\x00\x00\x00\x00\x01\x00\x00\x00\x00\x00\x00'
Ntbsg1528
g1529
(g1530
g1516
g1531
S'b'
tRp1649
(I1
(I18
I1
tg1533
I00
S'\x00\x00\x80?\x00\x00\x80?\x00\x00\x80?\x00\x00\x80?\x00\x00\x80?\x00\x00\x80?\x00\x00\x80?\x00\x00\x80?\x00\x00\x80?\x00\x00\x80?\x00\x00\x80?\x00\x00\x80?\x00\x00\x80?\x00\x00\x80?\x00\x00\x80?\x00\x00\x80?\x00\x00\x80?\x00\x00\x80?'
S'\x00\x00\x00\x00\x00\x00\x00\x00\x00\x00\x00\x00\x00\x00\x00\x00\x00\x00'
Ntbsg21
g1515
(g1516
(I0
tS'b'
tRp1650
(I1
(I18
I1
tg1518
I00
(lp1651
S'2'
aS'3'
aS'1'
aS'6'
aS'9'
aS'4'
aS'6'
aS'3'
aS'7'
aS'1'
aS'8'
aNaS'8'
aS'2'
aS'8'
aS'1'
aS'6'
aS'4'
atbsg1543
g1529
(g1530
g1516
g1531
S'b'
tRp1652
(I1
(I18
I1
tg1533
I00
S'\x00\x00\xe0@\x00\x00\x00\x00\x00\x00\x80@\x00\x00PA\x00\x00\x88A\x00\x00\x00A\x00\x00\xc0@\x00\x00\x10A\x00\x00@A\x00\x00\x80A\x00\x00\x00@\x00\x00pA\x00\x00\xa0@\x00\x00 A\x00\x000A\x00\x00\x80?\x00\x00@@\x00\x00`A'
S'\x00\x00\x00\x00\x00\x00\x00\x00\x00\x00\x00\x00\x00\x00\x00\x00\x00\x00'
Ntbsg20
g1529
(g1530
g1516
g1531
S'b'
tRp1653
(I1
(I18
I1
tg1533
I00
S'\xe8\x88\xc8?\xc8\r\xd1@\xef\x10\xd1?k\xfe\x7f?\x10\xec~@\xd3tg@=\x98I@\xc5\x96y@0ug@\x89\xee\x0e@u\x95\xe9@\xa5\xfd\x0bAKc.A\xac\x84PA\x11\xdb%A\xe6\x83PA\x84\x97\x01AS\xeb\xe6@'
S'\x00\x00\x00\x00\x00\x00\x00\x00\x00\x00\x00\x00\x00\x00\x00\x00\x00\x00'
NtbstRp1654
(dp1655
g1548
(dp1656
g1528
I01
sg21
I00
sg20
I01
sg22
I01
sg19
I00
sg23
I01
sg1543
I01
ssg1550
g1641
sg1551
(lp1657
g1528
ag1543
ag19
ag20
ag21
ag22
ag23
asg1553
(lp1658
I18
aI1
asbsg1555
g1556
sg1557
g1515
(g1516
(I0
tS'b'
tRp1659
(I1
(I18
I1
tg1518
I00
(lp1660
I1
aI15
aI10
aI16
aI2
aI12
aI6
aI0
aI5
aI7
aI13
aI14
aI8
aI3
aI17
aI11
aI9
aI4
atbsg1560
I01
sg1561
I1
sg1562
I-1
sg1563
(lp1661
g1
(g1565
g1513
(dp1662
g292
g374
sVY
L2L
sg294
L2L
sg295
g375
sg302
L2L
sg299
L2L
sg300
g317
sVX
L3L
sg297
L0L
sg304
g315
sg306
L0L
sg307
g308
stRp1663
ag1
(g1565
g1513
(dp1664
g292
g293
sVY
L2L
sg294
L2L
sg295
g296
sg302
L3L
sg299
L3L
sg300
g301
sVX
L6L
sg297
L0L
sg304
g305
sg306
L0L
sg307
g308
stRp1665
ag1
(g1565
g1513
(dp1666
g292
g347
sVY
L4L
sg294
L2L
sg295
g348
sg302
L1L
sg299
L1L
sg300
g315
sVX
L8L
sg297
L0L
sg304
g301
sg306
L0L
sg307
g351
stRp1667
ag1
(g1565
g1513
(dp1668
g292
g425
sVY
L2L
sg294
L2L
sg295
g426
sg302
L6L
sg299
L6L
sg300
g330
sVX
L3L
sg297
L0L
sg304
g317
sg306
L0L
sg307
g351
stRp1669
ag1
(g1565
g1513
(dp1670
g292
g457
sVY
L8L
sg294
L3L
sg295
g458
sg302
L9L
sg299
L9L
sg300
g341
sVX
L6L
sg297
g319
sg304
g330
sg306
L0L
sg307
g386
stRp1671
ag1
(g1565
g1513
(dp1672
g292
g382
sVY
L2L
sg294
L3L
sg295
g383
sg302
L4L
sg299
L4L
sg300
g301
sVX
L3L
sg297
g339
sg304
g315
sg306
L0L
sg307
g386
stRp1673
ag1
(g1565
g1513
(dp1674
g292
g365
sVY
L3L
sg294
L3L
sg295
g366
sg302
L6L
sg299
L6L
sg300
g330
sVX
L3L
sg297
g339
sg304
g341
sg306
L0L
sg307
g369
stRp1675
ag1
(g1565
g1513
(dp1676
g292
g391
sVY
L2L
sg294
L3L
sg295
g392
sg302
L3L
sg299
L3L
sg300
g305
sVX
L8L
sg297
g341
sg304
g317
sg306
L0L
sg307
g369
stRp1677
ag1
(g1565
g1513
(dp1678
g292
g416
sVY
L3L
sg294
L3L
sg295
g417
sg302
L7L
sg299
L7L
sg300
g339
sVX
L6L
sg297
g315
sg304
g317
sg306
L0L
sg307
g420
stRp1679
ag1
(g1565
g1513
(dp1680
g292
g449
sVY
L3L
sg294
L3L
sg295
g450
sg302
L1L
sg299
L1L
sg300
g341
sVX
L3L
sg297
g330
sg304
g319
sg306
L0L
sg307
g420
stRp1681
ag1
(g1565
g1513
(dp1682
g292
g326
sVY
L6L
sg294
L4L
sg295
g327
sg302
L8L
sg299
L8L
sg300
g320
sVX
L6L
sg297
g301
sg304
g330
sg306
g319
sg307
g331
stRp1683
ag1
(g1565
g1513
(dp1684
g292
g441
sVY
L9L
sg294
L4L
sg295
g442
sg302
L8L
sg299
L8L
sg300
g301
sVX
L3L
sg297
g339
sg304
g305
sg306
g320
sg307
g331
stRp1685
ag1
(g1565
g1513
(dp1686
g292
g356
sVY
L2L
sg294
L4L
sg295
g357
sg302
L8L
sg299
L8L
sg300
g330
sVX
L3L
sg297
g317
sg304
g320
sg306
g319
sg307
g360
stRp1687
ag1
(g1565
g1513
(dp1688
g292
g399
sVY
L3L
sg294
L4L
sg295
g400
sg302
L2L
sg299
L2L
sg300
g402
sVX
L2L
sg297
g320
sg304
g319
sg306
g301
sg307
g360
stRp1689
ag1
(g1565
g1513
(dp1690
g292
g408
sVY
L7L
sg294
L4L
sg295
g409
sg302
L8L
sg299
L8L
sg300
g320
sVX
L6L
sg297
g330
sg304
g319
sg306
g301
sg307
g321
stRp1691
ag1
(g1565
g1513
(dp1692
g292
g313
sVY
L9L
sg294
L4L
sg295
g314
sg302
L1L
sg299
L1L
sg300
g317
sVX
L9L
sg297
g315
sg304
g319
sg306
g320
sg307
g321
stRp1693
ag1
(g1565
g1513
(dp1694
g292
g336
sVY
L3L
sg294
L4L
sg295
g337
sg302
L6L
sg299
L6L
sg300
g339
sVX
L9L
sg297
g317
sg304
g341
sg306
g315
sg307
g342
stRp1695
ag1
(g1565
g1513
(dp1696
g292
g433
sVY
L4L
sg294
L4L
sg295
g434
sg302
L6L
sg299
L6L
sg300
g320
sVX
L2L
sg297
g317
sg304
g319
sg306
g402
sg307
g342
stRp1697
asg1578
Nsg1579
I4
sg1580
I18
sg1581
I0
sg1582
I18
sbag1
(g1501
g3
NtRp1698
(dp1699
g1504
Nsg1505
(lp1700
sg1507
I343434224
sg10
g1586
sg6
g1509
sg1510
I1
sg24
I01
sg25
g26
sg1511
g1
(g1512
g1513
(dp1701
g22
g1529
(g1530
g1516
g1531
S'b'
tRp1702
(I1
(I18
I1
tg1533
I00
S'\x00\x00\x80?\x00\x00\x80?\x00\x00\x80?\x00\x00\x80?\x00\x00\x80?\x00\x00\x80?\x00\x00\x80?\x00\x00\x80?\x00\x00\x80?\x00\x00\x80?\x00\x00\x80?\x00\x00\x80?\x00\x00\x80?\x00\x00\x80?\x00\x00\x00\x00\x00\x00\x80?\x00\x00\x80?\x00\x00\x80?'
S'\x00\x00\x00\x00\x00\x00\x00\x00\x00\x00\x00\x00\x00\x00\x00\x00\x00\x00'
Ntbsg19
g1515
(g1516
(I0
tS'b'
tRp1703
(I1
(I18
I1
tg1518
I00
(lp1704
g500
ag471
ag624
ag574
ag583
ag530
ag632
ag599
ag509
ag616
ag565
ag591
ag548
ag608
ag489
ag540
ag557
ag521
atbsg23
g1529
(g1530
g1516
g1531
S'b'
tRp1705
(I1
(I18
I1
tg1533
I00
S'\xf6\x89\xc8?\x95\xca|@\x15H\xa4?\x8a\xe2\xbd?\xa3!2@G\x101@\xc7\x98)@\xfeSE@\xa5D\x14@\x1dD\x94@\xdas3A{\x99)@\xf9t\x1bA\x88B4@\xed\x0e\tAT\x10A@t\xed\x8e@^\xb8\x9b@'
S'\x00\x00\x00\x00\x00\x00\x00\x00\x00\x00\x00\x00\x00\x00\x00\x00\x00\x00'
Ntbsg1528
g1529
(g1530
g1516
g1531
S'b'
tRp1706
(I1
(I18
I1
tg1533
I00
S'\x00\x00\x80?\x00\x00\x80?\x00\x00\x80?\x00\x00\x80?\x00\x00\x80?\x00\x00\x80?\x00\x00\x80?\x00\x00\x80?\x00\x00\x80?\x00\x00\x80?\x00\x00\x80?\x00\x00\x80?\x00\x00\x80?\x00\x00\x80?\x00\x00\x80?\x00\x00\x80?\x00\x00\x80?\x00\x00\x80?'
S'\x00\x00\x00\x00\x00\x00\x00\x00\x00\x00\x00\x00\x00\x00\x00\x00\x00\x00'
Ntbsg21
g1515
(g1516
(I0
tS'b'
tRp1707
(I1
(I18
I1
tg1518
I00
(lp1708
S'7'
aS'2'
aS'8'
aS'8'
aS'4'
aS'4'
aS'9'
aS'2'
aS'5'
aS'1'
aS'2'
aS'8'
aS'3'
aS'4'
aS'6'
aS'6'
aS'8'
aS'3'
atbsg1543
g1529
(g1530
g1516
g1531
S'b'
tRp1709
(I1
(I18
I1
tg1533
I00
S'\x00\x00\x00@\x00\x00\x00\x00\x00\x00\x80A\x00\x00 A\x00\x000A\x00\x00\xa0@\x00\x00\x88A\x00\x00PA\x00\x00@@\x00\x00pA\x00\x00\x10A\x00\x00@A\x00\x00\xe0@\x00\x00`A\x00\x00\x80?\x00\x00\xc0@\x00\x00\x00A\x00\x00\x80@'
S'\x00\x00\x00\x00\x00\x00\x00\x00\x00\x00\x00\x00\x00\x00\x00\x00\x00\x00'
Ntbsg20
g1529
(g1530
g1516
g1531
S'b'
tRp1710
(I1
(I18
I1
tg1533
I00
S'!\xde\xfd?>\x97\xa1@\xad\x0f\xb1?\xe0\x0f!@I\x86H@8\xba;@ \xec\xae@w0s@O\xedN@\xc613@\xd7\xc98A}\xc9\xd4@\xf5\x1f\x02Ap\x86\xc8@\xd1\x96\xc1@\xb9\xea\xae@S\x1e\xf2@\x83\xa7\xca@'
S'\x00\x00\x00\x00\x00\x00\x00\x00\x00\x00\x00\x00\x00\x00\x00\x00\x00\x00'
NtbstRp1711
(dp1712
g1548
(dp1713
g1528
I01
sg21
I00
sg20
I01
sg22
I01
sg19
I00
sg23
I01
sg1543
I01
ssg1550
g1698
sg1551
(lp1714
g1528
ag1543
ag19
ag20
ag21
ag22
ag23
asg1553
(lp1715
I18
aI1
asbsg1555
g1556
sg1557
g1515
(g1516
(I0
tS'b'
tRp1716
(I1
(I18
I1
tg1518
I00
(lp1717
I1
aI14
aI0
aI8
aI17
aI5
aI15
aI12
aI16
aI10
aI3
aI4
aI11
aI7
aI13
aI9
aI2
aI6
atbsg1560
I01
sg1561
I1
sg1562
I-1
sg1563
(lp1718
g1
(g1565
g1513
(dp1719
g465
g498
sVY
L6L
sg467
L2L
sg468
g499
sg475
L7L
sg472
L7L
sg473
g491
sVX
L3L
sg470
L0L
sg477
g488
sg479
L0L
sg480
g481
stRp1720
ag1
(g1565
g1513
(dp1721
g465
g466
sVY
L4L
sg467
L2L
sg468
g469
sg475
L2L
sg472
L2L
sg473
g474
sVX
L5L
sg470
L0L
sg477
g478
sg479
L0L
sg480
g481
stRp1722
ag1
(g1565
g1513
(dp1723
g465
g622
sVY
L2L
sg467
L2L
sg468
g623
sg475
L8L
sg472
L8L
sg473
g488
sVX
L2L
sg470
L0L
sg477
g492
sg479
L0L
sg480
g576
stRp1724
ag1
(g1565
g1513
(dp1725
g465
g572
sVY
L2L
sg467
L2L
sg468
g573
sg475
L8L
sg472
L8L
sg473
g532
sVX
L2L
sg470
L0L
sg477
g492
sg479
L0L
sg480
g576
stRp1726
ag1
(g1565
g1513
(dp1727
g465
g581
sVY
L3L
sg467
L3L
sg468
g582
sg475
L4L
sg472
L4L
sg473
g510
sVX
L8L
sg470
g520
sg477
g508
sg479
L0L
sg480
g533
stRp1728
ag1
(g1565
g1513
(dp1729
g465
g528
sVY
L2L
sg467
L3L
sg468
g529
sg475
L4L
sg472
L4L
sg473
g491
sVX
L3L
sg470
g492
sg477
g532
sg479
L0L
sg480
g533
stRp1730
ag1
(g1565
g1513
(dp1731
g465
g630
sVY
L2L
sg467
L3L
sg468
g631
sg475
L9L
sg472
L9L
sg473
g488
sVX
L2L
sg470
g510
sg477
g474
sg479
L0L
sg480
g601
stRp1732
ag1
(g1565
g1513
(dp1733
g465
g597
sVY
L2L
sg467
L3L
sg468
g598
sg475
L2L
sg472
L2L
sg473
g478
sVX
L9L
sg470
g491
sg477
g474
sg479
L0L
sg480
g601
stRp1734
ag1
(g1565
g1513
(dp1735
g465
g506
sVY
L4L
sg467
L3L
sg468
g507
sg475
L5L
sg472
L5L
sg473
g510
sVX
L8L
sg470
g508
sg477
g512
sg479
L0L
sg480
g513
stRp1736
ag1
(g1565
g1513
(dp1737
g465
g614
sVY
L6L
sg467
L3L
sg468
g615
sg475
L1L
sg472
L1L
sg473
g474
sVX
L8L
sg470
g478
sg477
g491
sg479
L0L
sg480
g513
stRp1738
ag1
(g1565
g1513
(dp1739
g465
g563
sVY
L3L
sg467
L4L
sg468
g564
sg475
L2L
sg472
L2L
sg473
g492
sVX
L6L
sg470
g474
sg477
g508
sg479
g491
sg480
g567
stRp1740
ag1
(g1565
g1513
(dp1741
g465
g589
sVY
L2L
sg467
L4L
sg468
g590
sg475
L8L
sg472
L8L
sg473
g474
sVX
L2L
sg470
g520
sg477
g532
sg479
g510
sg480
g567
stRp1742
ag1
(g1565
g1513
(dp1743
g465
g546
sVY
L3L
sg467
L4L
sg468
g547
sg475
L3L
sg472
L3L
sg473
g508
sVX
L4L
sg470
g510
sg477
g474
sg479
g520
sg480
g550
stRp1744
ag1
(g1565
g1513
(dp1745
g465
g606
sVY
L3L
sg467
L4L
sg468
g607
sg475
L4L
sg472
L4L
sg473
g532
sVX
L7L
sg470
g520
sg477
g491
sg479
g474
sg480
g550
stRp1746
ag1
(g1565
g1513
(dp1747
g465
g486
sVY
L4L
sg467
L4L
sg468
g487
sg475
L7L
sg472
L7L
sg473
g474
sVX
L8L
sg470
g488
sg477
g491
sg479
g492
sg480
g493
stRp1748
ag1
(g1565
g1513
(dp1749
g465
g538
sVY
L3L
sg467
L4L
sg468
g539
sg475
L6L
sg472
L6L
sg473
g492
sVX
L5L
sg470
g478
sg477
g510
sg479
g512
sg480
g493
stRp1750
ag1
(g1565
g1513
(dp1751
g465
g555
sVY
L2L
sg467
L4L
sg468
g556
sg475
L8L
sg472
L8L
sg473
g510
sVX
L4L
sg470
g520
sg477
g512
sg479
g488
sg480
g523
stRp1752
ag1
(g1565
g1513
(dp1753
g465
g518
sVY
L5L
sg467
L4L
sg468
g519
sg475
L3L
sg472
L3L
sg473
g512
sVX
L9L
sg470
g520
sg477
g510
sg479
g478
sg480
g523
stRp1754
asg1578
Nsg1579
I6
sg1580
I18
sg1581
I0
sg1582
I18
sbag1
(g1501
g3
NtRp1755
(dp1756
g1504
Nsg1505
(lp1757
sg1507
I343434224
sg10
g1586
sg6
g1509
sg1510
I1
sg24
I01
sg25
g26
sg1511
g1
(g1512
g1513
(dp1758
g22
g1529
(g1530
g1516
g1531
S'b'
tRp1759
(I1
(I18
I1
tg1533
I00
S'\x00\x00\x80?\x00\x00\x80?\x00\x00\x80?\x00\x00\x80?\x00\x00\x80?\x00\x00\x80?\x00\x00\x80?\x00\x00\x80?\x00\x00\x80?\x00\x00\x80?\x00\x00\x80?\x00\x00\x80?\x00\x00\x80?\x00\x00\x80?\x00\x00\x80?\x00\x00\x80?\x00\x00\x80?\x00\x00\x80?'
S'\x00\x00\x00\x00\x00\x00\x00\x00\x00\x00\x00\x00\x00\x00\x00\x00\x00\x00'
Ntbsg19
g1515
(g1516
(I0
tS'b'
tRp1760
(I1
(I18
I1
tg1518
I00
(lp1761
g675
ag765
ag747
ag805
ag756
ag781
ag731
ag713
ag773
ag704
ag739
ag685
ag645
ag722
ag694
ag797
ag664
ag789
atbsg23
g1529
(g1530
g1516
g1531
S'b'
tRp1762
(I1
(I18
I1
tg1533
I00
S'\x7fG\xa4?\xa9C4@\x9d\xaa\x1a@\xa6\xe1\x9d?\xc5C4@u\xaa\x1a@\xc5Su@\x9bd\x02A\xdb\xf0>@\xa5t\xd7@23#@\x04\x89H@\x061\x07A\x12\x1f\xda@\x1c\x0f\xa9@\x94\xba\x83@\xf60\xbb@\x8b\x1f\xc2@'
S'\x00\x00\x00\x00\x00\x00\x00\x00\x00\x00\x00\x00\x00\x00\x00\x00\x00\x00'
Ntbsg1528
g1529
(g1530
g1516
g1531
S'b'
tRp1763
(I1
(I18
I1
tg1533
I00
S'\x00\x00\x80?\x00\x00\x80?\x00\x00\x80?\x00\x00\x80?\x00\x00\x80?\x00\x00\x80?\x00\x00\x80?\x00\x00\x80?\x00\x00\x80?\x00\x00\x80?\x00\x00\x80?\x00\x00\x80?\x00\x00\x80?\x00\x00\x80?\x00\x00\x80?\x00\x00\x80?\x00\x00\x80?\x00\x00\x80?'
S'\x00\x00\x00\x00\x00\x00\x00\x00\x00\x00\x00\x00\x00\x00\x00\x00\x00\x00'
Ntbsg21
g1515
(g1516
(I0
tS'b'
tRp1764
(I1
(I18
I1
tg1518
I00
(lp1765
S'1'
aS'8'
aS'4'
aS'1'
aS'3'
aS'9'
aS'1'
aS'6'
aS'6'
aS'8'
aS'8'
aS'1'
aS'6'
aS'7'
aS'5'
aS'5'
aS'5'
aS'3'
atbsg1543
g1529
(g1530
g1516
g1531
S'b'
tRp1766
(I1
(I18
I1
tg1533
I00
S'\x00\x00\x00@\x00\x00@A\x00\x00 A\x00\x00\x88A\x00\x000A\x00\x00`A\x00\x00\x00A\x00\x00\xc0@\x00\x00PA\x00\x00\xa0@\x00\x00\x10A\x00\x00@@\x00\x00\x00\x00\x00\x00\xe0@\x00\x00\x80@\x00\x00\x80A\x00\x00\x80?\x00\x00pA'
S'\x00\x00\x00\x00\x00\x00\x00\x00\x00\x00\x00\x00\x00\x00\x00\x00\x00\x00'
Ntbsg20
g1529
(g1530
g1516
g1531
S'b'
tRp1767
(I1
(I18
I1
tg1533
I00
S'\xb86\x93?I\x08@?2#\xa2?\xb1h\x86?k \x8a@\xbce\x86?\x1dT5@!T\xf5?\x0c\xac\xca?\xca\x12\xf1?\x151\x9b@\x14\xdb\xbd@k\xd9qA\xf4\xfc\xb7@\xe9A\xa4@\x8f1\x83@\x04\r\xf1@6\xecn@'
S'\x00\x00\x00\x00\x00\x00\x00\x00\x00\x00\x00\x00\x00\x00\x00\x00\x00\x00'
NtbstRp1768
(dp1769
g1548
(dp1770
g1528
I01
sg21
I00
sg20
I01
sg22
I01
sg19
I00
sg23
I01
sg1543
I01
ssg1550
g1755
sg1551
(lp1771
g1528
ag1543
ag19
ag20
ag21
ag22
ag23
asg1553
(lp1772
I18
aI1
asbsg1555
g1556
sg1557
g1515
(g1516
(I0
tS'b'
tRp1773
(I1
(I18
I1
tg1518
I00
(lp1774
I12
aI16
aI0
aI11
aI14
aI9
aI7
aI13
aI6
aI10
aI2
aI4
aI1
aI8
aI5
aI17
aI15
aI3
atbsg1560
I01
sg1561
I1
sg1562
I-1
sg1563
(lp1775
g1
(g1565
g1513
(dp1776
g638
g673
sVY
L3L
sg640
L2L
sg641
g674
sg649
L1L
sg646
L1L
sg647
g676
sVX
L9L
sg643
L0L
sg651
g648
sg653
L0L
sg655
g678
stRp1777
ag1
(g1565
g1513
(dp1778
g638
g763
sVY
L2L
sg640
L2L
sg641
g764
sg649
L8L
sg646
L8L
sg647
g652
sVX
L2L
sg643
L0L
sg651
g703
sg653
L0L
sg655
g678
stRp1779
ag1
(g1565
g1513
(dp1780
g638
g745
sVY
L3L
sg640
L2L
sg641
g746
sg649
L4L
sg646
L4L
sg647
g667
sVX
L6L
sg643
L0L
sg651
g654
sg653
L0L
sg655
g749
stRp1781
ag1
(g1565
g1513
(dp1782
g638
g803
sVY
L2L
sg640
L2L
sg641
g804
sg649
L1L
sg646
L1L
sg647
g648
sVX
L6L
sg643
L0L
sg651
g676
sg653
L0L
sg655
g749
stRp1783
ag1
(g1565
g1513
(dp1784
g638
g754
sVY
L9L
sg640
L3L
sg641
g755
sg649
L3L
sg646
L3L
sg647
g644
sVX
L5L
sg643
g666
sg651
g667
sg653
L0L
sg655
g758
stRp1785
ag1
(g1565
g1513
(dp1786
g638
g779
sVY
L3L
sg640
L3L
sg641
g780
sg649
L9L
sg646
L9L
sg647
g663
sVX
L5L
sg643
g654
sg651
g703
sg653
L0L
sg655
g758
stRp1787
ag1
(g1565
g1513
(dp1788
g638
g729
sVY
L2L
sg640
L3L
sg641
g730
sg649
L1L
sg646
L1L
sg647
g648
sVX
L7L
sg643
g666
sg651
g676
sg653
L0L
sg655
g715
stRp1789
ag1
(g1565
g1513
(dp1790
g638
g711
sVY
L6L
sg640
L3L
sg641
g712
sg649
L6L
sg646
L6L
sg647
g703
sVX
L6L
sg643
g663
sg651
g676
sg653
L0L
sg655
g715
stRp1791
ag1
(g1565
g1513
(dp1792
g638
g771
sVY
L2L
sg640
L3L
sg641
g772
sg649
L6L
sg646
L6L
sg647
g666
sVX
L2L
sg643
g723
sg651
g652
sg653
L0L
sg655
g706
stRp1793
ag1
(g1565
g1513
(dp1794
g638
g701
sVY
L6L
sg640
L3L
sg641
g702
sg649
L8L
sg646
L8L
sg647
g676
sVX
L2L
sg643
g703
sg651
g652
sg653
L0L
sg655
g706
stRp1795
ag1
(g1565
g1513
(dp1796
g638
g737
sVY
L4L
sg640
L4L
sg641
g738
sg649
L8L
sg646
L8L
sg647
g652
sVX
L3L
sg643
g644
sg651
g667
sg653
g666
sg655
g687
stRp1797
ag1
(g1565
g1513
(dp1798
g638
g683
sVY
L8L
sg640
L4L
sg641
g684
sg649
L1L
sg646
L1L
sg647
g644
sVX
L2L
sg643
g666
sg651
g667
sg653
g652
sg655
g687
stRp1799
ag1
(g1565
g1513
(dp1800
g638
g639
sVY
L5L
sg640
L4L
sg641
g642
sg649
L6L
sg646
L6L
sg647
g648
sVX
L4L
sg643
g644
sg651
g652
sg653
g654
sg655
g656
stRp1801
ag1
(g1565
g1513
(dp1802
g638
g720
sVY
L3L
sg640
L4L
sg641
g721
sg649
L7L
sg646
L7L
sg647
g723
sVX
L2L
sg643
g663
sg651
g654
sg653
g644
sg655
g656
stRp1803
ag1
(g1565
g1513
(dp1804
g638
g692
sVY
L3L
sg640
L4L
sg641
g693
sg649
L5L
sg646
L5L
sg647
g644
sVX
L3L
sg643
g648
sg651
g666
sg653
g652
sg655
g696
stRp1805
ag1
(g1565
g1513
(dp1806
g638
g795
sVY
L4L
sg640
L4L
sg641
g796
sg649
L5L
sg646
L5L
sg647
g666
sVX
L8L
sg643
g703
sg651
g676
sg653
g663
sg655
g696
stRp1807
ag1
(g1565
g1513
(dp1808
g638
g661
sVY
L2L
sg640
L4L
sg641
g662
sg649
L5L
sg646
L5L
sg647
g644
sVX
L6L
sg643
g663
sg651
g666
sg653
g667
sg655
g668
stRp1809
ag1
(g1565
g1513
(dp1810
g638
g787
sVY
L2L
sg640
L4L
sg641
g788
sg649
L3L
sg646
L3L
sg647
g644
sVX
L3L
sg643
g654
sg651
g663
sg653
g667
sg655
g668
stRp1811
asg1578
Nsg1579
I3
sg1580
I18
sg1581
I0
sg1582
I18
sbag1
(g1501
g3
NtRp1812
(dp1813
g1504
Nsg1505
(lp1814
sg1507
I343434224
sg10
g1586
sg6
g1509
sg1510
I1
sg24
I01
sg25
g26
sg1511
g1
(g1512
g1513
(dp1815
g22
g1529
(g1530
g1516
g1531
S'b'
tRp1816
(I1
(I18
I1
tg1533
I00
S'\x00\x00\x80?\x00\x00\x80?\x00\x00\x80?\x00\x00\x80?\x00\x00\x80?\x00\x00\x80?\x00\x00\x80?\x00\x00\x80?\x00\x00\x80?\x00\x00\x80?\x00\x00\x80?\x00\x00\x80?\x00\x00\x80?\x00\x00\x00\x00\x00\x00\x80?\x00\x00\x80?\x00\x00\x80?\x00\x00\x80?'
S'\x00\x00\x00\x00\x00\x00\x00\x00\x00\x00\x00\x00\x00\x00\x00\x00\x00\x00'
Ntbsg19
g1515
(g1516
(I0
tS'b'
tRp1817
(I1
(I18
I1
tg1518
I00
(lp1818
g928
ag977
ag885
ag961
ag910
ag945
ag837
ag857
ag919
ag937
ag848
ag953
ag818
ag894
ag969
ag865
ag875
ag902
atbsg23
g1529
(g1530
g1516
g1531
S'b'
tRp1819
(I1
(I18
I1
tg1533
I00
S"\xf4\x99\t@\x02V\x05@\xe3Ru@\xa65\xd3?\xd1\x87H@\x9a\x88\x18@m\x101@_\x87\x80@\r R@cw'@nc\xde@\xdfR\x8d@\xe9\xec~@\x94\xdb\xb5@&\xbak@t\xb9\x13A.\xa8\xc2@\x06\x0f\x05A"
S'\x00\x00\x00\x00\x00\x00\x00\x00\x00\x00\x00\x00\x00\x00\x00\x00\x00\x00'
Ntbsg1528
g1529
(g1530
g1516
g1531
S'b'
tRp1820
(I1
(I18
I1
tg1533
I00
S'\x00\x00\x80?\x00\x00\x80?\x00\x00\x80?\x00\x00\x80?\x00\x00\x80?\x00\x00\x80?\x00\x00\x80?\x00\x00\x80?\x00\x00\x80?\x00\x00\x80?\x00\x00\x80?\x00\x00\x80?\x00\x00\x80?\x00\x00\x80?\x00\x00\x80?\x00\x00\x80?\x00\x00\x80?\x00\x00\x80?'
S'\x00\x00\x00\x00\x00\x00\x00\x00\x00\x00\x00\x00\x00\x00\x00\x00\x00\x00'
Ntbsg21
g1515
(g1516
(I0
tS'b'
tRp1821
(I1
(I18
I1
tg1518
I00
(lp1822
S'7'
aS'2'
aS'8'
aS'6'
aS'7'
aS'8'
aS'2'
aS'5'
aS'6'
aS'5'
aS'9'
aS'8'
aS'6'
aS'2'
aS'5'
aS'8'
aS'3'
aS'1'
atbsg1543
g1529
(g1530
g1516
g1531
S'b'
tRp1823
(I1
(I18
I1
tg1533
I00
S'\x00\x000A\x00\x00\x88A\x00\x00\xc0@\x00\x00pA\x00\x00\x10A\x00\x00PA\x00\x00\x80?\x00\x00@@\x00\x00 A\x00\x00@A\x00\x00\x00@\x00\x00`A\x00\x00\x00\x00\x00\x00\xe0@\x00\x00\x80A\x00\x00\x80@\x00\x00\xa0@\x00\x00\x00A'
S'\x00\x00\x00\x00\x00\x00\x00\x00\x00\x00\x00\x00\x00\x00\x00\x00\x00\x00'
Ntbsg20
g1529
(g1530
g1516
g1531
S'b'
tRp1824
(I1
(I18
I1
tg1533
I00
S'\xb4\x17\x11?\xb5\xb3{?-h\xa6?wh\x86?\x9c\xff\x0f@\x83\xca\x04A$\xfd#Ac\x8eH?\xc9\x05@?.\x8eH?\x0c\xedN@N\x89\xc8?\xf5\xb7\xdb@\xeb\x96\x19A+\xdc\xa5@\xc2\xec\x9e@\x9f\xa5\xe2@A\xedN@'
S'\x00\x00\x00\x00\x00\x00\x00\x00\x00\x00\x00\x00\x00\x00\x00\x00\x00\x00'
NtbstRp1825
(dp1826
g1548
(dp1827
g1528
I01
sg21
I00
sg20
I01
sg22
I01
sg19
I00
sg23
I01
sg1543
I01
ssg1550
g1812
sg1551
(lp1828
g1528
ag1543
ag19
ag20
ag21
ag22
ag23
asg1553
(lp1829
I18
aI1
asbsg1555
g1556
sg1557
g1515
(g1516
(I0
tS'b'
tRp1830
(I1
(I18
I1
tg1518
I00
(lp1831
I12
aI6
aI10
aI7
aI15
aI16
aI2
aI13
aI17
aI4
aI8
aI0
aI9
aI5
aI11
aI3
aI14
aI1
atbsg1560
I01
sg1561
I1
sg1562
I-1
sg1563
(lp1832
g1
(g1565
g1513
(dp1833
g811
g926
sVY
L5L
sg813
L2L
sg814
g927
sg822
L7L
sg819
L7L
sg820
g825
sVX
L3L
sg816
L0L
sg824
g821
sg826
L0L
sg828
g930
stRp1834
ag1
(g1565
g1513
(dp1835
g811
g975
sVY
L4L
sg813
L2L
sg814
g976
sg822
L2L
sg819
L2L
sg820
g825
sVX
L9L
sg816
L0L
sg824
g979
sg826
L0L
sg828
g930
stRp1836
ag1
(g1565
g1513
(dp1837
g811
g883
sVY
L3L
sg813
L2L
sg814
g884
sg822
L8L
sg819
L8L
sg820
g877
sVX
L3L
sg816
L0L
sg824
g825
sg826
L0L
sg828
g887
stRp1838
ag1
(g1565
g1513
(dp1839
g811
g959
sVY
L8L
sg813
L2L
sg814
g960
sg822
L6L
sg819
L6L
sg820
g821
sVX
L4L
sg816
L0L
sg824
g827
sg826
L0L
sg828
g887
stRp1840
ag1
(g1565
g1513
(dp1841
g811
g908
sVY
L5L
sg813
L3L
sg814
g909
sg822
L7L
sg819
L7L
sg820
g840
sVX
L2L
sg816
g825
sg824
g821
sg826
L0L
sg828
g912
stRp1842
ag1
(g1565
g1513
(dp1843
g811
g943
sVY
L2L
sg813
L3L
sg814
g944
sg822
L8L
sg819
L8L
sg820
g866
sVX
L4L
sg816
g827
sg824
g821
sg826
L0L
sg828
g912
stRp1844
ag1
(g1565
g1513
(dp1845
g811
g834
sVY
L3L
sg813
L3L
sg814
g835
sg822
L2L
sg819
L2L
sg820
g838
sVX
L3L
sg816
g836
sg824
g840
sg826
L0L
sg828
g841
stRp1846
ag1
(g1565
g1513
(dp1847
g811
g855
sVY
L3L
sg813
L3L
sg814
g856
sg822
L5L
sg819
L5L
sg820
g821
sVX
L2L
sg816
g827
sg824
g836
sg826
L0L
sg828
g841
stRp1848
ag1
(g1565
g1513
(dp1849
g811
g917
sVY
L4L
sg813
L3L
sg814
g918
sg822
L6L
sg819
L6L
sg820
g817
sVX
L5L
sg816
g821
sg824
g840
sg826
L0L
sg828
g921
stRp1850
ag1
(g1565
g1513
(dp1851
g811
g935
sVY
L3L
sg813
L3L
sg814
g936
sg822
L5L
sg819
L5L
sg820
g836
sVX
L3L
sg816
g877
sg824
g827
sg826
L0L
sg828
g921
stRp1852
ag1
(g1565
g1513
(dp1853
g811
g846
sVY
L4L
sg813
L4L
sg814
g847
sg822
L9L
sg819
L9L
sg820
g825
sVX
L9L
sg816
g817
sg824
g821
sg826
g840
sg828
g850
stRp1854
ag1
(g1565
g1513
(dp1855
g811
g951
sVY
L2L
sg813
L4L
sg814
g952
sg822
L8L
sg819
L8L
sg820
g866
sVX
L2L
sg816
g840
sg824
g821
sg826
g825
sg828
g850
stRp1856
ag1
(g1565
g1513
(dp1857
g811
g812
sVY
L6L
sg813
L4L
sg814
g815
sg822
L6L
sg819
L6L
sg820
g821
sVX
L6L
sg816
g817
sg824
g825
sg826
g827
sg828
g829
stRp1858
ag1
(g1565
g1513
(dp1859
g811
g892
sVY
L2L
sg813
L4L
sg814
g893
sg822
L3L
sg819
L3L
sg820
g838
sVX
L9L
sg816
g840
sg824
g825
sg826
g817
sg828
g829
stRp1860
ag1
(g1565
g1513
(dp1861
g811
g967
sVY
L3L
sg813
L4L
sg814
g968
sg822
L5L
sg819
L5L
sg820
g840
sVX
L3L
sg816
g877
sg824
g825
sg826
g817
sg828
g868
stRp1862
ag1
(g1565
g1513
(dp1863
g811
g863
sVY
L3L
sg813
L4L
sg814
g864
sg822
L8L
sg819
L8L
sg820
g866
sVX
L3L
sg816
g838
sg824
g825
sg826
g840
sg828
g868
stRp1864
ag1
(g1565
g1513
(dp1865
g811
g873
sVY
L4L
sg813
L4L
sg814
g874
sg822
L3L
sg819
L3L
sg820
g827
sVX
L3L
sg816
g817
sg824
g836
sg826
g877
sg828
g878
stRp1866
ag1
(g1565
g1513
(dp1867
g811
g900
sVY
L2L
sg813
L4L
sg814
g901
sg822
L1L
sg819
L1L
sg820
g827
sVX
L7L
sg816
g836
sg824
g817
sg826
g838
sg828
g878
stRp1868
asg1578
Nsg1579
I1
sg1580
I18
sg1581
I0
sg1582
I18
sbag1
(g1501
g3
NtRp1869
(dp1870
g1504
Nsg1505
(lp1871
sg1507
I343434224
sg10
g1586
sg6
g1509
sg1510
I1
sg24
I01
sg25
g26
sg1511
g1
(g1512
g1513
(dp1872
g22
g1529
(g1530
g1516
g1531
S'b'
tRp1873
(I1
(I18
I1
tg1533
I00
S'\x00\x00\x80?\x00\x00\x80?\x00\x00\x80?\x00\x00\x80?\x00\x00\x80?\x00\x00\x80?\x00\x00\x80?\x00\x00\x80?\x00\x00\x80?\x00\x00\x80?\x00\x00\x80?\x00\x00\x80?\x00\x00\x00\x00\x00\x00\x80?\x00\x00\x80?\x00\x00\x80?\x00\x00\x80?\x00\x00\x80?'
S'\x00\x00\x00\x00\x00\x00\x00\x00\x00\x00\x00\x00\x00\x00\x00\x00\x00\x00'
Ntbsg19
g1515
(g1516
(I0
tS'b'
tRp1874
(I1
(I18
I1
tg1518
I00
(lp1875
g1117
ag1143
ag1040
ag1008
ag1109
ag1100
ag1151
ag1126
ag1084
ag991
ag1076
ag1057
ag1067
ag1135
ag1020
ag1048
ag1031
ag1092
atbsg23
g1529
(g1530
g1516
g1531
S'b'
tRp1876
(I1
(I18
I1
tg1533
I00
S'K\x84X@\xaa\xbc\xfb?w\x1e\x9a@q\xd9]@\xb8Se@\xf9\x85\x1cAM\xea~@\x92dV@\xbe1c@\x88\x98\x81@\xb6\x0f\x91@\x10\xfe\xa7@\x99\xdb\x11Af\x1f\xca@ZA\x8c@\x04\xca\xdc@\x90B\x9c@?d\x02A'
S'\x00\x00\x00\x00\x00\x00\x00\x00\x00\x00\x00\x00\x00\x00\x00\x00\x00\x00'
Ntbsg1528
g1529
(g1530
g1516
g1531
S'b'
tRp1877
(I1
(I18
I1
tg1533
I00
S'\x00\x00\x80?\x00\x00\x80?\x00\x00\x80?\x00\x00\x80?\x00\x00\x80?\x00\x00\x80?\x00\x00\x80?\x00\x00\x80?\x00\x00\x80?\x00\x00\x80?\x00\x00\x80?\x00\x00\x80?\x00\x00\x80?\x00\x00\x80?\x00\x00\x80?\x00\x00\x80?\x00\x00\x80?\x00\x00\x80?'
S'\x00\x00\x00\x00\x00\x00\x00\x00\x00\x00\x00\x00\x00\x00\x00\x00\x00\x00'
Ntbsg21
g1515
(g1516
(I0
tS'b'
tRp1878
(I1
(I18
I1
tg1518
I00
(lp1879
S'4'
aS'6'
aS'3'
aS'1'
aS'9'
aS'5'
aS'5'
aS'5'
aS'8'
aS'3'
aS'3'
aS'9'
aS'6'
aS'3'
aS'8'
aS'6'
aS'1'
aS'6'
atbsg1543
g1529
(g1530
g1516
g1531
S'b'
tRp1880
(I1
(I18
I1
tg1533
I00
S'\x00\x00PA\x00\x00\x80A\x00\x00\x80@\x00\x00\x80?\x00\x00@A\x00\x000A\x00\x00\x88A\x00\x00`A\x00\x00\x10A\x00\x00\x00\x00\x00\x00\x00A\x00\x00\xc0@\x00\x00\xe0@\x00\x00pA\x00\x00\x00@\x00\x00\xa0@\x00\x00@@\x00\x00 A'
S'\x00\x00\x00\x00\x00\x00\x00\x00\x00\x00\x00\x00\x00\x00\x00\x00\x00\x00'
Ntbsg20
g1529
(g1530
g1516
g1531
S'b'
tRp1881
(I1
(I18
I1
tg1533
I00
S'\x9e\x05\x80?4\x7f7?v\xe1\xbd?\xe2\xcaL@ \xc7\xec?A\x8a\x88?\x9aR\tA\x82h\x86?@\xac\x8a?\xad\xc8\xec@\xbbe\x06@\x9f@\x94@S\r!@j\xed>@m`\xe6?\x05v\xe6>D.\xb3?h\x01\xc0?'
S'\x00\x00\x00\x00\x00\x00\x00\x00\x00\x00\x00\x00\x00\x00\x00\x00\x00\x00'
NtbstRp1882
(dp1883
g1548
(dp1884
g1528
I01
sg21
I00
sg20
I01
sg22
I01
sg19
I00
sg23
I01
sg1543
I01
ssg1550
g1869
sg1551
(lp1885
g1528
ag1543
ag19
ag20
ag21
ag22
ag23
asg1553
(lp1886
I18
aI1
asbsg1555
g1556
sg1557
g1515
(g1516
(I0
tS'b'
tRp1887
(I1
(I18
I1
tg1518
I00
(lp1888
I9
aI3
aI14
aI16
aI2
aI15
aI11
aI12
aI10
aI8
aI17
aI5
aI4
aI0
aI7
aI13
aI1
aI6
atbsg1560
I01
sg1561
I1
sg1562
I-1
sg1563
(lp1889
g1
(g1565
g1513
(dp1890
g984
g1115
sVY
L2L
sg986
L2L
sg987
g1116
sg995
L4L
sg992
L4L
sg993
g1050
sVX
L3L
sg989
L0L
sg997
g1059
sg999
L0L
sg1000
g1119
stRp1891
ag1
(g1565
g1513
(dp1892
g984
g1141
sVY
L2L
sg986
L2L
sg987
g1142
sg995
L6L
sg992
L6L
sg993
g1023
sVX
L2L
sg989
L0L
sg997
g1059
sg999
L0L
sg1000
g1119
stRp1893
ag1
(g1565
g1513
(dp1894
g984
g1038
sVY
L5L
sg986
L2L
sg987
g1039
sg995
L3L
sg992
L3L
sg993
g1019
sVX
L4L
sg989
L0L
sg997
g1011
sg999
L0L
sg1000
g1012
stRp1895
ag1
(g1565
g1513
(dp1896
g984
g1006
sVY
L2L
sg986
L2L
sg987
g1007
sg995
L1L
sg992
L1L
sg993
g1009
sVX
L5L
sg989
L0L
sg997
g1011
sg999
L0L
sg1000
g1012
stRp1897
ag1
(g1565
g1513
(dp1898
g984
g1107
sVY
L3L
sg986
L3L
sg987
g1108
sg995
L9L
sg992
L9L
sg993
g1050
sVX
L8L
sg989
g994
sg997
g1059
sg999
L0L
sg1000
g1102
stRp1899
ag1
(g1565
g1513
(dp1900
g984
g1098
sVY
L5L
sg986
L3L
sg987
g1099
sg995
L5L
sg992
L5L
sg993
g1011
sVX
L6L
sg989
g994
sg997
g1059
sg999
L0L
sg1000
g1102
stRp1901
ag1
(g1565
g1513
(dp1902
g984
g1149
sVY
L7L
sg986
L3L
sg987
g1150
sg995
L5L
sg992
L5L
sg993
g1019
sVX
L7L
sg989
g1023
sg997
g1011
sg999
L0L
sg1000
g1128
stRp1903
ag1
(g1565
g1513
(dp1904
g984
g1124
sVY
L5L
sg986
L3L
sg987
g1125
sg995
L5L
sg992
L5L
sg993
g1059
sVX
L4L
sg989
g1050
sg997
g1011
sg999
L0L
sg1000
g1128
stRp1905
ag1
(g1565
g1513
(dp1906
g984
g1082
sVY
L5L
sg986
L3L
sg987
g1083
sg995
L8L
sg992
L8L
sg993
g1050
sVX
L5L
sg989
g1059
sg997
g1011
sg999
L0L
sg1000
g1001
stRp1907
ag1
(g1565
g1513
(dp1908
g984
g985
sVY
L2L
sg986
L3L
sg987
g988
sg995
L3L
sg992
L3L
sg993
g994
sVX
L4L
sg989
g990
sg997
g998
sg999
L0L
sg1000
g1001
stRp1909
ag1
(g1565
g1513
(dp1910
g984
g1074
sVY
L5L
sg986
L4L
sg987
g1075
sg995
L3L
sg992
L3L
sg993
g994
sVX
L5L
sg989
g1023
sg997
g1009
sg999
g998
sg1000
g1060
stRp1911
ag1
(g1565
g1513
(dp1912
g984
g1055
sVY
L3L
sg986
L4L
sg987
g1056
sg995
L9L
sg992
L9L
sg993
g1023
sVX
L3L
sg989
g1011
sg997
g1059
sg999
g1021
sg1000
g1060
stRp1913
ag1
(g1565
g1513
(dp1914
g984
g1065
sVY
L6L
sg986
L4L
sg987
g1066
sg995
L4L
sg992
L4L
sg993
g990
sVX
L3L
sg989
g998
sg997
g1023
sg999
g1021
sg1000
g1069
stRp1915
ag1
(g1565
g1513
(dp1916
g984
g1133
sVY
L3L
sg986
L4L
sg987
g1134
sg995
L3L
sg992
L3L
sg993
g1009
sVX
L3L
sg989
g1021
sg997
g998
sg999
g1050
sg1000
g1069
stRp1917
ag1
(g1565
g1513
(dp1918
g984
g1017
sVY
L2L
sg986
L4L
sg987
g1018
sg995
L8L
sg992
L8L
sg993
g1021
sVX
L9L
sg989
g1019
sg997
g1011
sg999
g1023
sg1000
g1024
stRp1919
ag1
(g1565
g1513
(dp1920
g984
g1046
sVY
L3L
sg986
L4L
sg987
g1047
sg995
L6L
sg992
L6L
sg993
g994
sVX
L2L
sg989
g1019
sg997
g998
sg999
g1050
sg1000
g1024
stRp1921
ag1
(g1565
g1513
(dp1922
g984
g1029
sVY
L2L
sg986
L4L
sg987
g1030
sg995
L1L
sg992
L1L
sg993
g1023
sVX
L8L
sg989
g994
sg997
g1011
sg999
g990
sg1000
g1033
stRp1923
ag1
(g1565
g1513
(dp1924
g984
g1090
sVY
L2L
sg986
L4L
sg987
g1091
sg995
L6L
sg992
L6L
sg993
g1050
sVX
L3L
sg989
g994
sg997
g998
sg999
g1059
sg1000
g1033
stRp1925
asg1578
Nsg1579
I6
sg1580
I18
sg1581
I0
sg1582
I18
sbag1
(g1501
g3
NtRp1926
(dp1927
g1504
Nsg1505
(lp1928
sg1507
I343434224
sg10
g1586
sg6
g1509
sg1510
I1
sg24
I01
sg25
g26
sg1511
g1
(g1512
g1513
(dp1929
g22
g1529
(g1530
g1516
g1531
S'b'
tRp1930
(I1
(I18
I1
tg1533
I00
S'\x00\x00\x80?\x00\x00\x80?\x00\x00\x80?\x00\x00\x80?\x00\x00\x80?\x00\x00\x00\x00\x00\x00\x80?\x00\x00\x80?\x00\x00\x80?\x00\x00\x80?\x00\x00\x80?\x00\x00\x80?\x00\x00\x80?\x00\x00\x80?\x00\x00\x80?\x00\x00\x80?\x00\x00\x80?\x00\x00\x80?'
S'\x00\x00\x00\x00\x00\x00\x00\x00\x00\x00\x00\x00\x00\x00\x00\x00\x00\x00'
Ntbsg19
g1515
(g1516
(I0
tS'b'
tRp1931
(I1
(I18
I1
tg1518
I00
(lp1932
g1209
ag1231
ag1307
ag1274
ag1256
ag1299
ag1324
ag1315
ag1291
ag1183
ag1164
ag1248
ag1265
ag1283
ag1201
ag1192
ag1220
ag1239
atbsg23
g1529
(g1530
g1516
g1531
S'b'
tRp1933
(I1
(I18
I1
tg1533
I00
S':A\x04@\xa2\x86h@\x96U\xf5?A\xfeo@Y\x98\x89@\xcabNA\xae\xcb\x8c@xE\x8c@\x19\x97\xc9@\xd1\x0e\xb1@\xd3Bd@\xc1S\x95@5\xb9\xc3@\x0e\xca\xc4@m\x87\x80@\xf8\xc9(A\x01\x85\xb0@\x04\x10\x81@'
S'\x00\x00\x00\x00\x00\x00\x00\x00\x00\x00\x00\x00\x00\x00\x00\x00\x00\x00'
Ntbsg1528
g1529
(g1530
g1516
g1531
S'b'
tRp1934
(I1
(I18
I1
tg1533
I00
S'\x00\x00\x80?\x00\x00\x80?\x00\x00\x80?\x00\x00\x80?\x00\x00\x80?\x00\x00\x80?\x00\x00\x80?\x00\x00\x80?\x00\x00\x80?\x00\x00\x80?\x00\x00\x80?\x00\x00\x80?\x00\x00\x80?\x00\x00\x80?\x00\x00\x80?\x00\x00\x80?\x00\x00\x80?\x00\x00\x80?'
S'\x00\x00\x00\x00\x00\x00\x00\x00\x00\x00\x00\x00\x00\x00\x00\x00\x00\x00'
Ntbsg21
g1515
(g1516
(I0
tS'b'
tRp1935
(I1
(I18
I1
tg1518
I00
(lp1936
S'7'
aS'9'
aS'2'
aS'5'
aS'9'
aS'8'
aS'8'
aS'3'
aS'9'
aS'6'
aS'5'
aS'9'
aS'5'
aS'7'
aS'6'
aS'9'
aS'5'
aS'5'
atbsg1543
g1529
(g1530
g1516
g1531
S'b'
tRp1937
(I1
(I18
I1
tg1533
I00
S'\x00\x00\x80@\x00\x00\xc0@\x00\x00pA\x00\x000A\x00\x00\x10A\x00\x00`A\x00\x00\x88A\x00\x00\x80A\x00\x00PA\x00\x00\x80?\x00\x00\x00\x00\x00\x00\x00A\x00\x00 A\x00\x00@A\x00\x00@@\x00\x00\x00@\x00\x00\xa0@\x00\x00\xe0@'
S'\x00\x00\x00\x00\x00\x00\x00\x00\x00\x00\x00\x00\x00\x00\x00\x00\x00\x00'
Ntbsg20
g1529
(g1530
g1516
g1531
S'b'
tRp1938
(I1
(I18
I1
tg1533
I00
S'\xdcx\xb7?e\xf4n?Y9s?\xd8\x8eH?\xd5\x9b\x99?\xd5\x9b\x99?uND?]\xcc{?\xe6\x13\x91?\x8ad\x8e@j\xcb,@c\xdc=@\x0e3\x03@4e6@\\\xa8Z@\xab\x87(@\x7f\x10\x11@\xe8cf@'
S'\x00\x00\x00\x00\x00\x00\x00\x00\x00\x00\x00\x00\x00\x00\x00\x00\x00\x00'
NtbstRp1939
(dp1940
g1548
(dp1941
g1528
I01
sg21
I00
sg20
I01
sg22
I01
sg19
I00
sg23
I01
sg1543
I01
ssg1550
g1926
sg1551
(lp1942
g1528
ag1543
ag19
ag20
ag21
ag22
ag23
asg1553
(lp1943
I18
aI1
asbsg1555
g1556
sg1557
g1515
(g1516
(I0
tS'b'
tRp1944
(I1
(I18
I1
tg1518
I00
(lp1945
I10
aI9
aI15
aI14
aI0
aI16
aI1
aI17
aI11
aI4
aI12
aI3
aI13
aI8
aI5
aI2
aI7
aI6
atbsg1560
I01
sg1561
I1
sg1562
I-1
sg1563
(lp1946
g1
(g1565
g1513
(dp1947
g1157
g1207
sVY
L5L
sg1159
L2L
sg1160
g1208
sg1168
L7L
sg1165
L7L
sg1166
g1210
sVX
L4L
sg1162
L0L
sg1170
g1212
sg1172
L0L
sg1174
g1213
stRp1948
ag1
(g1565
g1513
(dp1949
g1157
g1229
sVY
L3L
sg1159
L2L
sg1160
g1230
sg1168
L9L
sg1165
L9L
sg1166
g1173
sVX
L4L
sg1162
L0L
sg1170
g1182
sg1172
L0L
sg1174
g1213
stRp1950
ag1
(g1565
g1513
(dp1951
g1157
g1305
sVY
L8L
sg1159
L2L
sg1160
g1306
sg1168
L2L
sg1165
L2L
sg1166
g1171
sVX
L8L
sg1162
L0L
sg1170
g1167
sg1172
L0L
sg1174
g1276
stRp1952
ag1
(g1565
g1513
(dp1953
g1157
g1272
sVY
L2L
sg1159
L2L
sg1160
g1273
sg1168
L5L
sg1165
L5L
sg1166
g1171
sVX
L8L
sg1162
L0L
sg1170
g1163
sg1172
L0L
sg1174
g1276
stRp1954
ag1
(g1565
g1513
(dp1955
g1157
g1254
sVY
L2L
sg1159
L3L
sg1160
g1255
sg1168
L9L
sg1165
L9L
sg1166
g1173
sVX
L7L
sg1162
g1223
sg1170
g1171
sg1172
L0L
sg1174
g1258
stRp1956
ag1
(g1565
g1513
(dp1957
g1157
g1297
sVY
L2L
sg1159
L3L
sg1160
g1298
sg1168
L3L
sg1165
L3L
sg1166
g1163
sVX
L8L
sg1162
g1210
sg1170
g1182
sg1172
L0L
sg1174
g1258
stRp1958
ag1
(g1565
g1513
(dp1959
g1157
g1322
sVY
L2L
sg1159
L3L
sg1160
g1323
sg1168
L8L
sg1165
L8L
sg1166
g1241
sVX
L9L
sg1162
g1223
sg1170
g1210
sg1172
L0L
sg1174
g1317
stRp1960
ag1
(g1565
g1513
(dp1961
g1157
g1313
sVY
L3L
sg1159
L3L
sg1160
g1314
sg1168
L3L
sg1165
L3L
sg1166
g1171
sVX
L2L
sg1162
g1173
sg1170
g1163
sg1172
L0L
sg1174
g1317
stRp1962
ag1
(g1565
g1513
(dp1963
g1157
g1289
sVY
L3L
sg1159
L3L
sg1160
g1290
sg1168
L9L
sg1165
L9L
sg1166
g1210
sVX
L3L
sg1162
g1212
sg1170
g1173
sg1172
L0L
sg1174
g1185
stRp1964
ag1
(g1565
g1513
(dp1965
g1157
g1180
sVY
L2L
sg1159
L3L
sg1160
g1181
sg1168
L6L
sg1165
L6L
sg1166
g1163
sVX
L3L
sg1162
g1182
sg1170
g1173
sg1172
L0L
sg1174
g1185
stRp1966
ag1
(g1565
g1513
(dp1967
g1157
g1158
sVY
L4L
sg1159
L4L
sg1160
g1161
sg1168
L5L
sg1165
L5L
sg1166
g1167
sVX
L3L
sg1162
g1163
sg1170
g1171
sg1172
g1173
sg1174
g1175
stRp1968
ag1
(g1565
g1513
(dp1969
g1157
g1246
sVY
L9L
sg1159
L4L
sg1160
g1247
sg1168
L9L
sg1165
L9L
sg1166
g1210
sVX
L3L
sg1162
g1163
sg1170
g1241
sg1172
g1221
sg1174
g1175
stRp1970
ag1
(g1565
g1513
(dp1971
g1157
g1263
sVY
L4L
sg1159
L4L
sg1160
g1264
sg1168
L5L
sg1165
L5L
sg1166
g1182
sVX
L5L
sg1162
g1223
sg1170
g1210
sg1172
g1173
sg1174
g1267
stRp1972
ag1
(g1565
g1513
(dp1973
g1157
g1281
sVY
L2L
sg1159
L4L
sg1160
g1282
sg1168
L7L
sg1165
L7L
sg1166
g1241
sVX
L2L
sg1162
g1173
sg1170
g1163
sg1172
g1210
sg1174
g1267
stRp1974
ag1
(g1565
g1513
(dp1975
g1157
g1199
sVY
L4L
sg1159
L4L
sg1160
g1200
sg1168
L6L
sg1165
L6L
sg1166
g1167
sVX
L4L
sg1162
g1182
sg1170
g1173
sg1172
g1163
sg1174
g1194
stRp1976
ag1
(g1565
g1513
(dp1977
g1157
g1190
sVY
L8L
sg1159
L4L
sg1160
g1191
sg1168
L9L
sg1165
L9L
sg1166
g1163
sVX
L8L
sg1162
g1171
sg1170
g1173
sg1172
g1167
sg1174
g1194
stRp1978
ag1
(g1565
g1513
(dp1979
g1157
g1218
sVY
L4L
sg1159
L4L
sg1160
g1219
sg1168
L5L
sg1165
L5L
sg1166
g1221
sVX
L5L
sg1162
g1167
sg1170
g1223
sg1172
g1212
sg1174
g1224
stRp1980
ag1
(g1565
g1513
(dp1981
g1157
g1237
sVY
L4L
sg1159
L4L
sg1160
g1238
sg1168
L5L
sg1165
L5L
sg1166
g1163
sVX
L7L
sg1162
g1210
sg1170
g1221
sg1172
g1241
sg1174
g1224
stRp1982
asg1578
Nsg1579
I6
sg1580
I18
sg1581
I0
sg1582
I18
sbag1
(g1501
g3
NtRp1983
(dp1984
g1504
Nsg1505
(lp1985
sg1507
I343434224
sg10
g1586
sg6
g1509
sg1510
I1
sg24
I01
sg25
g26
sg1511
g1
(g1512
g1513
(dp1986
g22
g1529
(g1530
g1516
g1531
S'b'
tRp1987
(I1
(I18
I1
tg1533
I00
S'\x00\x00\x80?\x00\x00\x80?\x00\x00\x80?\x00\x00\x80?\x00\x00\x80?\x00\x00\x80?\x00\x00\x80?\x00\x00\x80?\x00\x00\x80?\x00\x00\x80?\x00\x00\x00\x00\x00\x00\x80?\x00\x00\x80?\x00\x00\x80?\x00\x00\x80?\x00\x00\x80?\x00\x00\x80?\x00\x00\x80?'
S'\x00\x00\x00\x00\x00\x00\x00\x00\x00\x00\x00\x00\x00\x00\x00\x00\x00\x00'
Ntbsg19
g1515
(g1516
(I0
tS'b'
tRp1988
(I1
(I18
I1
tg1518
I00
(lp1989
g1440
ag1384
ag1354
ag1375
ag1337
ag1481
ag1472
ag1489
ag1464
ag1365
ag1497
ag1423
ag1394
ag1456
ag1448
ag1414
ag1432
ag1405
atbsg23
g1529
(g1530
g1516
g1531
S'b'
tRp1990
(I1
(I18
I1
tg1533
I00
S'\xe8df@X\x1f2@Bf&@\xf7dF@\xb3\x97\x01A\xc0\xeb\xde@v\x99Y@\x86TE@\x84\x88\x18@\x7f\x83h@\xd7\x1f\x12Ag\r\xf9@\xc0\xdc\x85@\xf7\xdbm@m\xca\xbc@U\xc9\xec@\xacS\x9d@\x11S\x15A'
S'\x00\x00\x00\x00\x00\x00\x00\x00\x00\x00\x00\x00\x00\x00\x00\x00\x00\x00'
Ntbsg1528
g1529
(g1530
g1516
g1531
S'b'
tRp1991
(I1
(I18
I1
tg1533
I00
S'\x00\x00\x80?\x00\x00\x80?\x00\x00\x80?\x00\x00\x80?\x00\x00\x80?\x00\x00\x80?\x00\x00\x80?\x00\x00\x80?\x00\x00\x80?\x00\x00\x80?\x00\x00\x80?\x00\x00\x80?\x00\x00\x80?\x00\x00\x80?\x00\x00\x80?\x00\x00\x80?\x00\x00\x80?\x00\x00\x80?'
S'\x00\x00\x00\x00\x00\x00\x00\x00\x00\x00\x00\x00\x00\x00\x00\x00\x00\x00'
Ntbsg21
g1515
(g1516
(I0
tS'b'
tRp1992
(I1
(I18
I1
tg1518
I00
(lp1993
S'1'
aS'4'
aS'9'
aS'6'
aS'6'
aS'7'
aS'8'
aS'2'
aS'1'
aS'9'
aS'2'
aS'2'
aS'1'
aS'3'
aS'7'
aS'1'
aS'5'
aS'7'
atbsg1543
g1529
(g1530
g1516
g1531
S'b'
tRp1994
(I1
(I18
I1
tg1533
I00
S'\x00\x00 A\x00\x00\x80@\x00\x00\x80?\x00\x00@@\x00\x00\x00\x00\x00\x00pA\x00\x00`A\x00\x00\x80A\x00\x00PA\x00\x00\x00@\x00\x00\x88A\x00\x00\x00A\x00\x00\xa0@\x00\x00@A\x00\x000A\x00\x00\xe0@\x00\x00\x10A\x00\x00\xc0@'
S'\x00\x00\x00\x00\x00\x00\x00\x00\x00\x00\x00\x00\x00\x00\x00\x00\x00\x00'
Ntbsg20
g1529
(g1530
g1516
g1531
S'b'
tRp1995
(I1
(I18
I1
tg1533
I00
S'K\x02\x80?f\x1b\x11?\x82\xafj?\xd5\xbc\x9b?y4\x93?\x17\xdb\x9d?(8s?\xf9\x8dH?\xb7$\x82?9ZU?\t\xff\x1f@\x16\x00\x00@\xed\xa8Z@S\x99\t@J\xef\xee?\xf1\xa8J@\x8aBD@+\xed>@'
S'\x00\x00\x00\x00\x00\x00\x00\x00\x00\x00\x00\x00\x00\x00\x00\x00\x00\x00'
NtbstRp1996
(dp1997
g1548
(dp1998
g1528
I01
sg21
I00
sg20
I01
sg22
I01
sg19
I00
sg23
I01
sg1543
I01
ssg1550
g1983
sg1551
(lp1999
g1528
ag1543
ag19
ag20
ag21
ag22
ag23
asg1553
(lp2000
I18
aI1
asbsg1555
g1556
sg1557
g1515
(g1516
(I0
tS'b'
tRp2001
(I1
(I18
I1
tg1518
I00
(lp2002
I4
aI2
aI9
aI3
aI1
aI12
aI17
aI15
aI11
aI16
aI0
aI14
aI13
aI8
aI6
aI5
aI7
aI10
atbsg1560
I01
sg1561
I1
sg1562
I-1
sg1563
(lp2003
g1
(g1565
g1513
(dp2004
g1330
g1438
sVY
L2L
sg1332
L2L
sg1333
g1439
sg1341
L1L
sg1338
L1L
sg1339
g1385
sVX
L9L
sg1335
L0L
sg1343
g1376
sg1345
L0L
sg1346
g1387
stRp2005
ag1
(g1565
g1513
(dp2006
g1330
g1382
sVY
L4L
sg1332
L2L
sg1333
g1383
sg1341
L4L
sg1338
L4L
sg1339
g1385
sVX
L3L
sg1335
L0L
sg1343
g1355
sg1345
L0L
sg1346
g1387
stRp2007
ag1
(g1565
g1513
(dp2008
g1330
g1352
sVY
L4L
sg1332
L2L
sg1333
g1353
sg1341
L9L
sg1338
L9L
sg1339
g1355
sVX
L2L
sg1335
L0L
sg1343
g1357
sg1345
L0L
sg1346
g1358
stRp2009
ag1
(g1565
g1513
(dp2010
g1330
g1373
sVY
L6L
sg1332
L2L
sg1333
g1374
sg1341
L6L
sg1338
L6L
sg1339
g1376
sVX
L8L
sg1335
L0L
sg1343
g1367
sg1345
L0L
sg1346
g1358
stRp2011
ag1
(g1565
g1513
(dp2012
g1330
g1331
sVY
L4L
sg1332
L3L
sg1333
g1334
sg1341
L6L
sg1338
L6L
sg1339
g1340
sVX
L6L
sg1335
g1336
sg1343
g1344
sg1345
L0L
sg1346
g1347
stRp2013
ag1
(g1565
g1513
(dp2014
g1330
g1479
sVY
L9L
sg1332
L3L
sg1333
g1480
sg1341
L7L
sg1338
L7L
sg1339
g1397
sVX
L9L
sg1335
g1340
sg1343
g1376
sg1345
L0L
sg1346
g1347
stRp2015
ag1
(g1565
g1513
(dp2016
g1330
g1470
sVY
L4L
sg1332
L3L
sg1333
g1471
sg1341
L8L
sg1338
L8L
sg1339
g1355
sVX
L3L
sg1335
g1385
sg1343
g1397
sg1345
L0L
sg1346
g1474
stRp2017
ag1
(g1565
g1513
(dp2018
g1330
g1487
sVY
L2L
sg1332
L3L
sg1333
g1488
sg1341
L2L
sg1338
L2L
sg1339
g1395
sVX
L4L
sg1335
g1336
sg1343
g1357
sg1345
L0L
sg1346
g1474
stRp2019
ag1
(g1565
g1513
(dp2020
g1330
g1462
sVY
L2L
sg1332
L3L
sg1333
g1463
sg1341
L1L
sg1338
L1L
sg1339
g1336
sVX
L8L
sg1335
g1395
sg1343
g1340
sg1345
L0L
sg1346
g1368
stRp2021
ag1
(g1565
g1513
(dp2022
g1330
g1363
sVY
L3L
sg1332
L3L
sg1333
g1364
sg1341
L9L
sg1338
L9L
sg1339
g1336
sVX
L2L
sg1335
g1355
sg1343
g1367
sg1345
L0L
sg1346
g1368
stRp2023
ag1
(g1565
g1513
(dp2024
g1330
g1495
sVY
L3L
sg1332
L4L
sg1333
g1496
sg1341
L1L
sg1338
L1L
sg1339
g1340
sVX
L6L
sg1335
g1385
sg1343
g1395
sg1345
g1397
sg1346
g1425
stRp2025
ag1
(g1565
g1513
(dp2026
g1330
g1421
sVY
L2L
sg1332
L4L
sg1333
g1422
sg1341
L2L
sg1338
L2L
sg1339
g1340
sVX
L3L
sg1335
g1385
sg1343
g1355
sg1345
g1397
sg1346
g1425
stRp2027
ag1
(g1565
g1513
(dp2028
g1330
g1392
sVY
L9L
sg1332
L4L
sg1333
g1393
sg1341
L1L
sg1338
L1L
sg1339
g1395
sVX
L3L
sg1335
g1367
sg1343
g1340
sg1345
g1397
sg1346
g1398
stRp2029
ag1
(g1565
g1513
(dp2030
g1330
g1454
sVY
L3L
sg1332
L4L
sg1333
g1455
sg1341
L3L
sg1338
L3L
sg1339
g1376
sVX
L6L
sg1335
g1357
sg1343
g1367
sg1345
g1336
sg1346
g1398
stRp2031
ag1
(g1565
g1513
(dp2032
g1330
g1446
sVY
L2L
sg1332
L4L
sg1333
g1447
sg1341
L7L
sg1338
L7L
sg1339
g1336
sVX
L2L
sg1335
g1355
sg1343
g1357
sg1345
g1367
sg1346
g1416
stRp2033
ag1
(g1565
g1513
(dp2034
g1330
g1412
sVY
L2L
sg1332
L4L
sg1333
g1413
sg1341
L1L
sg1338
L1L
sg1339
g1357
sVX
L8L
sg1335
g1376
sg1343
g1385
sg1345
g1336
sg1346
g1416
stRp2035
ag1
(g1565
g1513
(dp2036
g1330
g1430
sVY
L2L
sg1332
L4L
sg1333
g1431
sg1341
L5L
sg1338
L5L
sg1339
g1336
sVX
L2L
sg1335
g1367
sg1343
g1340
sg1345
g1344
sg1346
g1407
stRp2037
ag1
(g1565
g1513
(dp2038
g1330
g1403
sVY
L2L
sg1332
L4L
sg1333
g1404
sg1341
L7L
sg1338
L7L
sg1339
g1367
sVX
L2L
sg1335
g1336
sg1343
g1357
sg1345
g1344
sg1346
g1407
stRp2039
asg1578
Nsg1579
I10
sg1580
I18
sg1581
I0
sg1582
I18
sbasS'savePickle'
p2040
I00
sb.