ccopy_reg
_reconstructor
p1
(cpsychopy.data
ExperimentHandler
p2
c__builtin__
object
p3
NtRp4
(dp5
S'originPath'
p6
NsS'dataFileName'
p7
VC:\u005cUsers\u005cexperimenter\u005cDesktop\u005cExperiments\u005cKRITL\u005cdata/31045_KRITL_2017_May_05_0906
p8
sS'runtimeInfo'
p9
NsS'name'
p10
S'KRITL'
p11
sS'dataNames'
p12
(lp13
S'practice_encoding.keys'
p14
aS'practice_encoding.rt'
p15
aS'practice_execution.keys'
p16
aS'practice_execution.corr'
p17
aS'practice_execution.rt'
p18
aS'encoding.keys'
p19
aS'encoding.rt'
p20
aS'execution.keys'
p21
aS'execution.corr'
p22
aS'execution.rt'
p23
asS'autoLog'
p24
I01
sS'extraInfo'
p25
(dp26
S'date'
p27
V2017_May_05_0906
p28
sS'frameRate'
p29
cnumpy.core.multiarray
scalar
p30
(cnumpy
dtype
p31
(S'f8'
I0
I1
tRp32
(I3
S'<'
NNNI-1
I-1
I0
tbS'\x1d\xfb0\x07l\x00N@'
tRp33
sS'expName'
p34
g11
sVsession
p35
V001
p36
sVparticipant
p37
V31045
p38
ssS'loopsUnfinished'
p39
(lp40
sS'saveWideText'
p41
I00
sS'thisEntry'
p42
(dp43
sS'version'
p44
S''
sS'_paramNamesSoFar'
p45
(lp46
Voperationc
p47
aVoperationb
p48
aVoperationa
p49
aVcorrectresponse
p50
aVvaluey
p51
aVoperationd
p52
aVcondition
p53
aVvaluex
p54
aVRule
p55
aVOperatora
p56
aVLength
p57
aVIntermediate
p58
aVCorrectResponse
p59
aVResult
p60
aVY
aVX
aVOperatorc
p61
aVOperatorb
p62
aVOperatord
p63
aVStructure
p64
asS'entries'
p65
(lp66
(dp67
g18
F5.899668269790709
sg29
g33
sg17
I1
sg47
L0L
sg48
Vdecrease
p68
sg49
VTIMES
p69
sg35
g36
sg50
L8L
sS'practice_trials.thisTrialN'
p70
I0
sg52
L0L
sS'practice_trials.thisRepN'
p71
I0
sg37
g38
sg53
L2L
sg27
g28
sg16
S'8'
sg14
(lp72
S'space'
p73
asS'practice_trials.thisIndex'
p74
I1
sS'practice_trials.thisN'
p75
I0
sg34
g11
sg15
(lp76
F2.1832916233688593
asg51
L3L
sg54
L3L
sa(dp77
g18
F8.6327892683912069
sg29
g33
sg17
I0
sg47
VADD
p78
sg48
Vtriple 
p79
sg49
Vhalf
p80
sg35
g36
sg50
L8L
sS'practice_trials.thisTrialN'
p81
I1
sg52
L0L
sS'practice_trials.thisRepN'
p82
I0
sg37
g38
sg53
L3L
sg27
g28
sg16
S'1'
sg14
(lp83
S'space'
p84
asS'practice_trials.thisIndex'
p85
I3
sS'practice_trials.thisN'
p86
I1
sg34
g11
sg15
(lp87
F4.8163846600800753
asg51
L2L
sg54
L4L
sa(dp88
g18
F1.7833617562428117
sg29
g33
sg17
I1
sg47
L0L
sg48
g78
sg49
g68
sg35
g36
sg50
L7L
sS'practice_trials.thisTrialN'
p89
I2
sg52
L0L
sS'practice_trials.thisRepN'
p90
I0
sg37
g38
sg53
L2L
sg27
g28
sg16
S'7'
sg14
(lp91
S'space'
p92
asS'practice_trials.thisIndex'
p93
I0
sS'practice_trials.thisN'
p94
I2
sg34
g11
sg15
(lp95
F3.1665091246832162
asg51
L5L
sg54
L3L
sa(dp96
g18
F7.699507356621325
sg29
g33
sg17
I1
sg47
Vincrease
p97
sg48
VDIVIDE
p98
sg49
Vtriple
p99
sg35
g36
sg50
L3L
sS'practice_trials.thisTrialN'
p100
I3
sg52
L0L
sS'practice_trials.thisRepN'
p101
I0
sg37
g38
sg53
L3L
sg27
g28
sg16
S'3'
sg14
(lp102
S'space'
p103
asS'practice_trials.thisIndex'
p104
I4
sS'practice_trials.thisN'
p105
I3
sg34
g11
sg15
(lp106
F8.0828024095389992
asg51
L3L
sg54
L2L
sa(dp107
g18
F1.6667017797008157
sg29
g33
sg17
I1
sg47
L0L
sg48
g78
sg49
g80
sg35
g36
sg50
L7L
sS'practice_trials.thisTrialN'
p108
I4
sg52
L0L
sS'practice_trials.thisRepN'
p109
I0
sg37
g38
sg53
L2L
sg27
g28
sg16
S'7'
sg14
(lp110
S'space'
p111
asS'practice_trials.thisIndex'
p112
I2
sS'practice_trials.thisN'
p113
I4
sg34
g11
sg15
(lp114
F2.1331100098323077
asg51
L5L
sg54
L4L
sa(dp115
g18
F9.7327059421222657
sg29
g33
sg17
I0
sg47
g97
sg48
g98
sg49
Vdouble
p116
sg35
g36
sg50
L9L
sS'practice_trials.thisTrialN'
p117
I5
sg52
g99
sS'practice_trials.thisRepN'
p118
I0
sg37
g38
sg53
L4L
sg27
g28
sg16
S'1'
sg14
(lp119
S'space'
p120
asS'practice_trials.thisIndex'
p121
I5
sS'practice_trials.thisN'
p122
I5
sg34
g11
sg15
(lp123
F6.5829103733412921
asg51
L8L
sg54
L8L
sa(dp124
S'block.thisTrialN'
p125
I0
sS'block.thisRepN'
p126
I0
sg29
g33
sS'block.thisN'
p127
I0
sg55
(S'INCREASE'
S'DIVIDE'
S'TRIPLE'
S'x'
S'y'
tp128
sg27
g28
sg57
L3L
sg58
(I6
I2
I3
tp129
sg22
I1
sg20
F6.5829264717176557
sg23
F3.8165358444675803
sVY
L3L
sVX
L2L
sg61
Vtriple
p130
sg35
g36
sg37
g38
sg21
S'3'
sg19
S'space'
p131
sg34
g11
sg60
L3L
sg56
VDIVIDE
p132
sg59
L3L
sS'block.thisIndex'
p133
I7
sg62
Vincrease
p134
sg63
L0L
sg64
VUBUxy
p135
sa(dp136
S'block.thisTrialN'
p137
I1
sS'block.thisRepN'
p138
I0
sg29
g33
sS'block.thisN'
p139
I1
sg55
(S'INCREASE'
S'DIVIDE'
S'x'
S'y'
tp140
sg27
g28
sg57
L2L
sg58
(I4
I5
tp141
sg22
I1
sg20
F1.7833435581997037
sg23
F1.8501144903711975
sVY
L2L
sVX
L8L
sg61
L0L
sg35
g36
sg37
g38
sg21
S'5'
sg19
S'space'
p142
sg34
g11
sg60
L5L
sg56
g132
sg59
L5L
sS'block.thisIndex'
p143
I3
sg62
g134
sg63
L0L
sg64
VUBxy
p144
sa(dp145
S'block.thisTrialN'
p146
I2
sS'block.thisRepN'
p147
I0
sg29
g33
sS'block.thisN'
p148
I2
sg55
(S'DOUBLE'
S'DIVIDE'
S'x'
S'y'
tp149
sg27
g28
sg57
L2L
sg58
(I1
I2
tp150
sg22
I1
sg20
F1.2667012198362499
sg23
F3.0499565871432424
sVY
L8L
sVX
L8L
sg61
L0L
sg35
g36
sg37
g38
sg21
S'2'
sg19
S'space'
p151
sg34
g11
sg60
L2L
sg56
g132
sg59
L2L
sS'block.thisIndex'
p152
I2
sg62
Vdouble
p153
sg63
L0L
sg64
g144
sa(dp154
S'block.thisTrialN'
p155
I3
sS'block.thisRepN'
p156
I0
sg29
g33
sS'block.thisN'
p157
I3
sg55
(S'HALF'
S'TIMES'
S'DECREASE'
S'x'
S'y'
tp158
sg27
g28
sg57
L3L
sg58
(I8
I16
I8
tp159
sg22
I1
sg20
F3.0998956758994609
sg23
F4.6498058927245438
sVY
L2L
sVX
L9L
sg61
Vdecrease
p160
sg35
g36
sg37
g38
sg21
S'8'
sg19
S'space'
p161
sg34
g11
sg60
L8L
sg56
VTIMES
p162
sg59
L8L
sS'block.thisIndex'
p163
I6
sg62
Vhalf
p164
sg63
L0L
sg64
g135
sa(dp165
S'block.thisTrialN'
p166
I4
sS'block.thisRepN'
p167
I0
sg29
g33
sS'block.thisN'
p168
I4
sg55
(S'TRIPLE'
S'DOUBLE'
S'SUBTRACT'
S'INCREASE'
S'x'
S'y'
tp169
sg27
g28
sg57
L4L
sg58
(I5
I1
I2
I6
tp170
sg22
I1
sg20
F5.2330497812945396
sg23
F6.3330056509003043
sVY
L4L
sVX
L4L
sg61
VSUBTRACT
p171
sg35
g36
sg37
g38
sg21
S'6'
sg19
S'space'
p172
sg34
g11
sg60
L6L
sg56
g153
sg59
L6L
sS'block.thisIndex'
p173
I14
sg62
g130
sg63
g134
sg64
VUUBUxy
p174
sa(dp175
S'block.thisTrialN'
p176
I5
sS'block.thisRepN'
p177
I0
sg29
g33
sS'block.thisN'
p178
I5
sg55
(S'TRIPLE'
S'INCREASE'
S'SUBTRACT'
S'x'
S'y'
tp179
sg27
g28
sg57
L3L
sg58
(I1
I2
I6
tp180
sg22
I1
sg20
F2.9333442056085914
sg23
F2.750123274512589
sVY
L2L
sVX
L3L
sg61
g171
sg35
g36
sg37
g38
sg21
S'6'
sg19
S'space'
p181
sg34
g11
sg60
L6L
sg56
g134
sg59
L6L
sS'block.thisIndex'
p182
I9
sg62
g130
sg63
L0L
sg64
VUUBxy
p183
sa(dp184
S'block.thisTrialN'
p185
I6
sS'block.thisRepN'
p186
I0
sg29
g33
sS'block.thisN'
p187
I6
sg55
(S'TRIPLE'
S'INCREASE'
S'DIVIDE'
S'DOUBLE'
S'x'
S'y'
tp188
sg27
g28
sg57
L4L
sg58
(I16
I2
I3
I9
tp189
sg22
I1
sg20
F4.1330113201402128
sg23
F6.2829941194504499
sVY
L8L
sVX
L8L
sg61
g132
sg35
g36
sg37
g38
sg21
S'9'
sg19
S'space'
p190
sg34
g11
sg60
L9L
sg56
g134
sg59
L9L
sS'block.thisIndex'
p191
I15
sg62
g130
sg63
g153
sg64
g174
sa(dp192
S'block.thisTrialN'
p193
I7
sS'block.thisRepN'
p194
I0
sg29
g33
sS'block.thisN'
p195
I7
sg55
(S'THIRD'
S'INCREASE'
S'HALF'
S'TIMES'
S'x'
S'y'
tp196
sg27
g28
sg57
L4L
sg58
(I28
I14
I15
I5
tp197
sg22
I0
sg20
F6.0161438153591007
sg23
F12.099161802558228
sVY
L4L
sVX
L7L
sg61
g164
sg35
g36
sg37
g38
sg21
S'1'
sg19
S'space'
p198
sg34
g11
sg60
L5L
sg56
g134
sg59
L5L
sS'block.thisIndex'
p199
I17
sg62
Vthird
p200
sg63
g162
sg64
VUUUBxy
p201
sa(dp202
S'block.thisTrialN'
p203
I8
sS'block.thisRepN'
p204
I0
sg29
g33
sS'block.thisN'
p205
I8
sg55
(S'DIVIDE'
S'DOUBLE'
S'INCREASE'
S'TRIPLE'
S'x'
S'y'
tp206
sg27
g28
sg57
L4L
sg58
(I9
I10
I20
I5
tp207
sg22
I1
sg20
F8.3327858739066869
sg23
F12.282504870556295
sVY
L4L
sVX
L3L
sg61
g134
sg35
g36
sg37
g38
sg21
S'5'
sg19
S'space'
p208
sg34
g11
sg60
L5L
sg56
g153
sg59
L5L
sS'block.thisIndex'
p209
I10
sg62
g132
sg63
g130
sg64
VBUUUxy
p210
sa(dp211
S'block.thisTrialN'
p212
I9
sS'block.thisRepN'
p213
I0
sg29
g33
sS'block.thisN'
p214
I9
sg55
(S'SUBTRACT'
S'INCREASE'
S'HALF'
S'x'
S'y'
tp215
sg27
g28
sg57
L3L
sg58
(I4
I5
I3
tp216
sg22
I1
sg20
F6.016325096366927
sg23
F2.7999629739206284
sVY
L2L
sVX
L8L
sg61
g164
sg35
g36
sg37
g38
sg21
S'3'
sg19
S'space'
p217
sg34
g11
sg60
L3L
sg56
g134
sg59
L3L
sS'block.thisIndex'
p218
I5
sg62
g171
sg63
L0L
sg64
VBUUxy
p219
sa(dp220
S'block.thisTrialN'
p221
I10
sS'block.thisRepN'
p222
I0
sg29
g33
sS'block.thisN'
p223
I10
sg55
(S'INCREASE'
S'TIMES'
S'TRIPLE'
S'HALF'
S'x'
S'y'
tp224
sg27
g28
sg57
L4L
sg58
(I1
I3
I6
I7
tp225
sg22
I1
sg20
F4.3831057229544967
sg23
F7.4162490144371986
sVY
L2L
sVX
L2L
sg61
g130
sg35
g36
sg37
g38
sg21
S'7'
sg19
S'space'
p226
sg34
g11
sg60
L7L
sg56
g162
sg59
L7L
sS'block.thisIndex'
p227
I13
sg62
g134
sg63
g164
sg64
VUBUUxy
p228
sa(dp229
S'block.thisTrialN'
p230
I11
sS'block.thisRepN'
p231
I0
sg29
g33
sS'block.thisN'
p232
I11
sg55
(S'TIMES'
S'HALF'
S'INCREASE'
S'THIRD'
S'x'
S'y'
tp233
sg27
g28
sg57
L4L
sg58
(I1
I2
I1
I9
tp234
sg22
I1
sg20
F6.8163108180742711
sg23
F11.49922500597313
sVY
L9L
sVX
L3L
sg61
g134
sg35
g36
sg37
g38
sg21
S'9'
sg19
S'space'
p235
sg34
g11
sg60
L9L
sg56
g164
sg59
L9L
sS'block.thisIndex'
p236
I11
sg62
g162
sg63
g200
sg64
g210
sa(dp237
S'block.thisTrialN'
p238
I12
sS'block.thisRepN'
p239
I0
sg29
g33
sS'block.thisN'
p240
I12
sg55
(S'DIVIDE'
S'TRIPLE'
S'DECREASE'
S'x'
S'y'
tp241
sg27
g28
sg57
L3L
sg58
(I6
I18
I9
tp242
sg22
I1
sg20
F3.5331833623349667
sg23
F11.399249888490885
sVY
L2L
sVX
L7L
sg61
g160
sg35
g36
sg37
g38
sg21
S'9'
sg19
S'space'
p243
sg34
g11
sg60
L9L
sg56
g130
sg59
L9L
sS'block.thisIndex'
p244
I4
sg62
g132
sg63
L0L
sg64
g219
sa(dp245
S'block.thisTrialN'
p246
I13
sS'block.thisRepN'
p247
I0
sg29
g33
sS'block.thisN'
p248
I13
sg55
(S'HALF'
S'SUBTRACT'
S'DECREASE'
S'TRIPLE'
S'x'
S'y'
tp249
sg27
g28
sg57
L4L
sg58
(I15
I14
I10
I5
tp250
sg22
I1
sg20
F3.6665134993381798
sg23
F5.9330561857204884
sVY
L4L
sVX
L5L
sg61
g160
sg35
g36
sg37
g38
sg21
S'5'
sg19
S'space'
p251
sg34
g11
sg60
L5L
sg56
g171
sg59
L5L
sS'block.thisIndex'
p252
I12
sg62
g164
sg63
g130
sg64
g228
sa(dp253
S'block.thisTrialN'
p254
I14
sS'block.thisRepN'
p255
I0
sg29
g33
sS'block.thisN'
p256
I14
sg55
(S'DECREASE'
S'THIRD'
S'DOUBLE'
S'ADD'
S'x'
S'y'
tp257
sg27
g28
sg57
L4L
sg58
(I9
I18
I6
I5
tp258
sg22
I1
sg20
F4.5164383095689118
sg23
F7.2662522164173424
sVY
L4L
sVX
L5L
sg61
g153
sg35
g36
sg37
g38
sg21
S'5'
sg19
S'space'
p259
sg34
g11
sg60
L5L
sg56
g200
sg59
L5L
sS'block.thisIndex'
p260
I16
sg62
g160
sg63
VADD
p261
sg64
g201
sa(dp262
S'block.thisTrialN'
p263
I15
sS'block.thisRepN'
p264
I0
sg29
g33
sS'block.thisN'
p265
I15
sg55
(S'ADD'
S'HALF'
S'x'
S'y'
tp266
sg27
g28
sg57
L2L
sg58
(I2
I7
tp267
sg22
I1
sg20
F3.2165448034647852
sg23
F3.0166120664216578
sVY
L5L
sVX
L4L
sg61
L0L
sg35
g36
sg37
g38
sg21
S'7'
sg19
S'space'
p268
sg34
g11
sg60
L7L
sg56
g164
sg59
L7L
sS'block.thisIndex'
p269
I0
sg62
g261
sg63
L0L
sg64
VBUxy
p270
sa(dp271
S'block.thisTrialN'
p272
I16
sS'block.thisRepN'
p273
I0
sg29
g33
sS'block.thisN'
p274
I16
sg55
(S'SUBTRACT'
S'TRIPLE'
S'x'
S'y'
tp275
sg27
g28
sg57
L2L
sg58
(I12
I9
tp276
sg22
I0
sg20
F2.7665663086809218
sg23
F3.4332453408278525
sVY
L3L
sVX
L4L
sg61
L0L
sg35
g36
sg37
g38
sg21
S'8'
sg19
S'space'
p277
sg34
g11
sg60
L9L
sg56
g130
sg59
L9L
sS'block.thisIndex'
p278
I1
sg62
g171
sg63
L0L
sg64
g270
sa(dp279
S'block.thisTrialN'
p280
I17
sS'block.thisRepN'
p281
I0
sg29
g33
sS'block.thisN'
p282
I17
sg55
(S'TRIPLE'
S'HALF'
S'ADD'
S'x'
S'y'
tp283
sg27
g28
sg57
L3L
sg58
(I6
I3
I9
tp284
sg22
I1
sg20
F4.6164431741926819
sg23
F4.0498634967952967
sVY
L3L
sVX
L3L
sg61
g261
sg35
g36
sg37
g38
sg21
S'9'
sg19
S'space'
p285
sg34
g11
sg60
L9L
sg56
g164
sg59
L9L
sS'block.thisIndex'
p286
I8
sg62
g130
sg63
L0L
sg64
g183
sa(dp287
S'block.thisTrialN'
p288
I0
sS'block.thisRepN'
p289
I0
sg29
g33
sS'block.thisN'
p290
I0
sVRule
p291
(S'HALF'
S'SUBTRACT'
S'TRIPLE'
S'x'
S'y'
tp292
sg27
g28
sVLength
p293
L3L
sVIntermediate
p294
(I9
I2
I1
tp295
sg22
I1
sg20
F9.349358044564724
sg23
F3.6832284550182521
sVY
L7L
sVX
L3L
sVOperatorc
p296
Vtriple
p297
sg35
g36
sg37
g38
sg21
S'1'
sg19
S'space'
p298
sg34
g11
sVResult
p299
L1L
sVOperatora
p300
VSUBTRACT
p301
sVCorrectResponse
p302
L1L
sS'block.thisIndex'
p303
I6
sVOperatorb
p304
Vhalf
p305
sVOperatord
p306
L0L
sVStructure
p307
VUBUxy
p308
sa(dp309
S'block.thisTrialN'
p310
I1
sS'block.thisRepN'
p311
I0
sg29
g33
sS'block.thisN'
p312
I1
sg291
(S'DOUBLE'
S'SUBTRACT'
S'x'
S'y'
tp313
sg27
g28
sg293
L2L
sg294
(I1
I2
tp314
sg22
I1
sg20
F0.10019384487532079
sg23
F2.4331001059617847
sVY
L7L
sVX
L8L
sg296
L0L
sg35
g36
sg37
g38
sg21
S'2'
sg19
S'space'
p315
sg34
g11
sg299
L2L
sg300
g301
sg302
L2L
sS'block.thisIndex'
p316
I2
sg304
Vdouble
p317
sg306
L0L
sg307
VUBxy
p318
sa(dp319
S'block.thisTrialN'
p320
I2
sS'block.thisRepN'
p321
I0
sg29
g33
sS'block.thisN'
p322
I2
sg291
(S'DOUBLE'
S'TRIPLE'
S'DIVIDE'
S'DECREASE'
S'x'
S'y'
tp323
sg27
g28
sg293
L4L
sg294
(I8
I1
I3
I6
tp324
sg22
I0
sg20
F4.9164108724799007
sg23
F8.8327874485403299
sVY
L8L
sVX
L9L
sg296
VDIVIDE
p325
sg35
g36
sg37
g38
sg21
S'2'
sg19
S'space'
p326
sg34
g11
sg299
L6L
sg300
g297
sg302
L6L
sS'block.thisIndex'
p327
I15
sg304
g317
sg306
Vdecrease
p328
sg307
VUUBUxy
p329
sa(dp330
S'block.thisTrialN'
p331
I3
sS'block.thisRepN'
p332
I0
sg29
g33
sS'block.thisN'
p333
I3
sg291
(S'SUBTRACT'
S'HALF'
S'TRIPLE'
S'x'
S'y'
tp334
sg27
g28
sg293
L3L
sg294
(I12
I6
I2
tp335
sg22
I1
sg20
F5.783007943071425
sg23
F8.849263729294762
sVY
L4L
sVX
L4L
sg296
g297
sg35
g36
sg37
g38
sg21
S'2'
sg19
S'space'
p336
sg34
g11
sg299
L2L
sg300
g305
sg302
L2L
sS'block.thisIndex'
p337
I5
sg304
g301
sg306
L0L
sg307
VBUUxy
p338
sa(dp339
S'block.thisTrialN'
p340
I4
sS'block.thisRepN'
p341
I0
sg29
g33
sS'block.thisN'
p342
I4
sg291
(S'ADD'
S'THIRD'
S'INCREASE'
S'HALF'
S'x'
S'y'
tp343
sg27
g28
sg293
L4L
sg294
(I2
I3
I1
I7
tp344
sg22
I0
sg20
F1.9831401593983173
sg23
F5.7664004259277135
sVY
L6L
sVX
L4L
sg296
Vincrease
p345
sg35
g36
sg37
g38
sg21
S'1'
sg19
S'space'
p346
sg34
g11
sg299
L7L
sg300
Vthird
p347
sg302
L7L
sS'block.thisIndex'
p348
I10
sg304
VADD
p349
sg306
g305
sg307
VBUUUxy
p350
sa(dp351
S'block.thisTrialN'
p352
I5
sS'block.thisRepN'
p353
I0
sg29
g33
sS'block.thisN'
p354
I5
sg291
(S'DECREASE'
S'ADD'
S'DOUBLE'
S'THIRD'
S'x'
S'y'
tp355
sg27
g28
sg293
L4L
sg294
(I3
I6
I10
I9
tp356
sg22
I1
sg20
F4.3164485287852585
sg23
F5.9161802465096116
sVY
L4L
sVX
L9L
sg296
g317
sg35
g36
sg37
g38
sg21
S'9'
sg19
S'space'
p357
sg34
g11
sg299
L9L
sg300
g349
sg302
L9L
sS'block.thisIndex'
p358
I12
sg304
Vdecrease 
p359
sg306
g347
sg307
VUBUUxy
p360
sa(dp361
S'block.thisTrialN'
p362
I6
sS'block.thisRepN'
p363
I0
sg29
g33
sS'block.thisN'
p364
I6
sg291
(S'ADD'
S'DOUBLE'
S'x'
S'y'
tp365
sg27
g28
sg293
L2L
sg294
(I4
I8
tp366
sg22
I1
sg20
F1.4500435879454017
sg23
F1.4000950499903411
sVY
L4L
sVX
L2L
sg296
L0L
sg35
g36
sg37
g38
sg21
S'8'
sg19
S'space'
p367
sg34
g11
sg299
L8L
sg300
g317
sg302
L8L
sS'block.thisIndex'
p368
I0
sg304
g349
sg306
L0L
sg307
VBUxy
p369
sa(dp370
S'block.thisTrialN'
p371
I7
sS'block.thisRepN'
p372
I0
sg29
g33
sS'block.thisN'
p373
I7
sg291
(S'DOUBLE'
S'TRIPLE'
S'SUBTRACT'
S'x'
S'y'
tp374
sg27
g28
sg293
L3L
sg294
(I1
I3
I6
tp375
sg22
I1
sg20
F6.5496043488383293
sg23
F6.632974049076438
sVY
L3L
sVX
L4L
sg296
g301
sg35
g36
sg37
g38
sg21
S'6'
sg19
S'space'
p376
sg34
g11
sg299
L6L
sg300
g297
sg302
L6L
sS'block.thisIndex'
p377
I9
sg304
g317
sg306
L0L
sg307
VUUBxy
p378
sa(dp379
S'block.thisTrialN'
p380
I8
sS'block.thisRepN'
p381
I0
sg29
g33
sS'block.thisN'
p382
I8
sg291
(S'DOUBLE'
S'DECREASE'
S'TRIPLE'
S'DIVIDE'
S'x'
S'y'
tp383
sg27
g28
sg293
L4L
sg294
(I1
I3
I2
I4
tp384
sg22
I1
sg20
F6.566272409632802
sg23
F4.7997974411118776
sVY
L4L
sVX
L4L
sg296
g297
sg35
g36
sg37
g38
sg21
S'4'
sg19
S'space'
p385
sg34
g11
sg299
L4L
sg300
g328
sg302
L4L
sS'block.thisIndex'
p386
I17
sg304
g317
sg306
g325
sg307
VUUUBxy
p387
sa(dp388
S'block.thisTrialN'
p389
I9
sS'block.thisRepN'
p390
I0
sg29
g33
sS'block.thisN'
p391
I9
sg291
(S'DOUBLE'
S'DECREASE'
S'SUBTRACT'
S'x'
S'y'
tp392
sg27
g28
sg293
L3L
sg294
(I5
I4
I8
tp393
sg22
I1
sg20
F2.2166322944685817
sg23
F4.0165371743496507
sVY
L2L
sVX
L7L
sg296
g301
sg35
g36
sg37
g38
sg21
S'8'
sg19
S'space'
p394
sg34
g11
sg299
L8L
sg300
g328
sg302
L8L
sS'block.thisIndex'
p395
I8
sg304
g317
sg306
L0L
sg307
g378
sa(dp396
S'block.thisTrialN'
p397
I10
sS'block.thisRepN'
p398
I0
sg29
g33
sS'block.thisN'
p399
I10
sg291
(S'DIVIDE'
S'DOUBLE'
S'x'
S'y'
tp400
sg27
g28
sg293
L2L
sg294
(I12
I2
tp401
sg22
I1
sg20
F0.10015079937875271
sg23
F5.0497837050352246
sVY
L6L
sVX
L6L
sg296
L0L
sg35
g36
sg37
g38
sg21
S'2'
sg19
S'space'
p402
sg34
g11
sg299
L2L
sg300
g317
sg302
L2L
sS'block.thisIndex'
p403
I1
sg304
g325
sg306
L0L
sg307
g369
sa(dp404
S'block.thisTrialN'
p405
I11
sS'block.thisRepN'
p406
I0
sg29
g33
sS'block.thisN'
p407
I11
sg291
(S'DECREASE'
S'HALF'
S'TRIPLE'
S'DIVIDE'
S'x'
S'y'
tp408
sg27
g28
sg293
L4L
sg294
(I4
I12
I6
I5
tp409
sg22
I1
sg20
F3.299903305247426
sg23
F4.8164711012504995
sVY
L2L
sVX
L8L
sg296
g297
sg35
g36
sg37
g38
sg21
S'5'
sg19
S'space'
p410
sg34
g11
sg299
L5L
sg300
g305
sg302
L5L
sS'block.thisIndex'
p411
I16
sg304
g328
sg306
g325
sg307
g387
sa(dp412
S'block.thisTrialN'
p413
I12
sS'block.thisRepN'
p414
I0
sg29
g33
sS'block.thisN'
p415
I12
sg291
(S'HALF'
S'TIMES'
S'x'
S'y'
tp416
sg27
g28
sg293
L2L
sg294
(I16
I8
tp417
sg22
I1
sg20
F1.4833667606581002
sg23
F11.532569876406342
sVY
L4L
sVX
L4L
sg296
L0L
sg35
g36
sg37
g38
sg21
S'8'
sg19
S'space'
p418
sg34
g11
sg299
L8L
sg300
VTIMES
p419
sg302
L8L
sS'block.thisIndex'
p420
I3
sg304
g305
sg306
L0L
sg307
g318
sa(dp421
S'block.thisTrialN'
p422
I13
sS'block.thisRepN'
p423
I0
sg29
g33
sS'block.thisN'
p424
I13
sg291
(S'DIVIDE'
S'INCREASE'
S'DOUBLE'
S'THIRD'
S'x'
S'y'
tp425
sg27
g28
sg293
L4L
sg294
(I2
I4
I5
I1
tp426
sg22
I1
sg20
F4.4831182865891606
sg23
F6.7663965763058513
sVY
L5L
sVX
L6L
sg296
g317
sg35
g36
sg37
g38
sg21
S'1'
sg19
S'space'
p427
sg34
g11
sg299
L1L
sg300
g345
sg302
L1L
sS'block.thisIndex'
p428
I11
sg304
g325
sg306
g347
sg307
g350
sa(dp429
S'block.thisTrialN'
p430
I14
sS'block.thisRepN'
p431
I0
sg29
g33
sS'block.thisN'
p432
I14
sg291
(S'DECREASE'
S'TIMES'
S'DOUBLE'
S'THIRD'
S'x'
S'y'
tp433
sg27
g28
sg293
L4L
sg294
(I1
I2
I8
I7
tp434
sg22
I0
sg20
F2.0499803845304996
sg23
F5.6497324004303664
sVY
L4L
sVX
L3L
sg296
g317
sg35
g36
sg37
g38
sg21
S'9'
sg19
S'space'
p435
sg34
g11
sg299
L7L
sg300
g419
sg302
L7L
sS'block.thisIndex'
p436
I13
sg304
g328
sg306
g347
sg307
g360
sa(dp437
S'block.thisTrialN'
p438
I15
sS'block.thisRepN'
p439
I0
sg29
g33
sS'block.thisN'
p440
I15
sg291
(S'INCREASE'
S'DIVIDE'
S'THIRD'
S'x'
S'y'
tp441
sg27
g28
sg293
L3L
sg294
(I3
I1
I2
tp442
sg22
I1
sg20
F2.0166414636187255
sg23
F3.7998842319939286
sVY
L3L
sVX
L9L
sg296
g347
sg35
g36
sg37
g38
sg21
S'2'
sg19
S'space'
p443
sg34
g11
sg299
L2L
sg300
g325
sg302
L2L
sS'block.thisIndex'
p444
I7
sg304
g345
sg306
L0L
sg307
g308
sa(dp445
S'block.thisTrialN'
p446
I16
sS'block.thisRepN'
p447
I0
sg29
g33
sS'block.thisN'
p448
I16
sg291
(S'DIVIDE'
S'DOUBLE'
S'THIRD'
S'x'
S'y'
tp449
sg27
g28
sg293
L3L
sg294
(I2
I4
I1
tp450
sg22
I1
sg20
F2.5832561370916665
sg23
F3.4333083340898156
sVY
L4L
sVX
L6L
sg296
g347
sg35
g36
sg37
g38
sg21
S'1'
sg19
S'space'
p451
sg34
g11
sg299
L1L
sg300
g317
sg302
L1L
sS'block.thisIndex'
p452
I4
sg304
g325
sg306
L0L
sg307
g338
sa(dp453
S'block.thisTrialN'
p454
I17
sS'block.thisRepN'
p455
I0
sg29
g33
sS'block.thisN'
p456
I17
sg291
(S'DECREASE'
S'THIRD'
S'TIMES'
S'HALF'
S'x'
S'y'
tp457
sg27
g28
sg293
L4L
sg294
(I2
I12
I4
I3
tp458
sg22
I0
sg20
F2.7330632549710572
sg23
F7.049625871470198
sVY
L6L
sVX
L4L
sg296
g419
sg35
g36
sg37
g38
sg21
S'5'
sg19
S'space'
p459
sg34
g11
sg299
L3L
sg300
g347
sg302
L3L
sS'block.thisIndex'
p460
I14
sg304
g328
sg306
g305
sg307
g329
sa(dp461
S'block.thisTrialN'
p462
I0
sS'block.thisRepN'
p463
I0
sg29
g33
sS'block.thisN'
p464
I0
sVRule
p465
(S'TRIPLE'
S'SUBTRACT'
S'INCREASE'
S'HALF'
S'x'
S'y'
tp466
sg27
g28
sVLength
p467
L4L
sVIntermediate
p468
(I3
I4
I1
I3
tp469
sg22
I1
sg20
F1.433380426838994
sg23
F6.1828937151003629
sVY
L3L
sVX
L6L
sVOperatorc
p470
Vincrease
p471
sg35
g36
sg37
g38
sg21
S'3'
sg19
S'space'
p472
sg34
g11
sVResult
p473
L3L
sVOperatora
p474
VSUBTRACT
p475
sVCorrectResponse
p476
L3L
sS'block.thisIndex'
p477
I13
sVOperatorb
p478
Vtriple
p479
sVOperatord
p480
Vhalf
p481
sVStructure
p482
VUBUUxy
p483
sa(dp484
S'block.thisTrialN'
p485
I1
sS'block.thisRepN'
p486
I0
sg29
g33
sS'block.thisN'
p487
I1
sg465
(S'INCREASE'
S'HALF'
S'TIMES'
S'TRIPLE'
S'x'
S'y'
tp488
sg27
g28
sg467
L4L
sg468
(I6
I12
I6
I7
tp489
sg22
I1
sg20
F5.316345639526844
sg23
F4.7998135392554104
sVY
L2L
sVX
L2L
sg470
VTIMES
p490
sg35
g36
sg37
g38
sg21
S'7'
sg19
S'space'
p491
sg34
g11
sg473
L7L
sg474
g481
sg476
L7L
sS'block.thisIndex'
p492
I14
sg478
g471
sg480
g479
sg482
VUUBUxy
p493
sa(dp494
S'block.thisTrialN'
p495
I2
sS'block.thisRepN'
p496
I0
sg29
g33
sS'block.thisN'
p497
I2
sg465
(S'DECREASE'
S'HALF'
S'DIVIDE'
S'x'
S'y'
tp498
sg27
g28
sg467
L3L
sg468
(I4
I2
I1
tp499
sg22
I1
sg20
F2.366623492911458
sg23
F3.0332759276498109
sVY
L2L
sVX
L8L
sg470
VDIVIDE
p500
sg35
g36
sg37
g38
sg21
S'1'
sg19
S'space'
p501
sg34
g11
sg473
L1L
sg474
g481
sg476
L1L
sS'block.thisIndex'
p502
I8
sg478
Vdecrease
p503
sg480
L0L
sg482
VUUBxy
p504
sa(dp505
S'block.thisTrialN'
p506
I3
sS'block.thisRepN'
p507
I0
sg29
g33
sS'block.thisN'
p508
I3
sg465
(S'TIMES'
S'DECREASE'
S'THIRD'
S'DOUBLE'
S'x'
S'y'
tp509
sg27
g28
sg467
L4L
sg468
(I6
I2
I1
I2
tp510
sg22
I0
sg20
F3.1165714357048273
sg23
F11.282580462750047
sVY
L2L
sVX
L3L
sg470
Vthird
p511
sg35
g36
sg37
g38
sg21
S'5'
sg19
S'space'
p512
sg34
g11
sg473
L2L
sg474
g503
sg476
L2L
sS'block.thisIndex'
p513
I11
sg478
g490
sg480
Vdouble
p514
sg482
VBUUUxy
p515
sa(dp516
S'block.thisTrialN'
p517
I4
sS'block.thisRepN'
p518
I0
sg29
g33
sS'block.thisN'
p519
I4
sg465
(S'INCREASE'
S'DIVIDE'
S'HALF'
S'x'
S'y'
tp520
sg27
g28
sg467
L3L
sg468
(I2
I1
I2
tp521
sg22
I1
sg20
F1.4666602038778365
sg23
F7.9661998269148171
sVY
L2L
sVX
L4L
sg470
g481
sg35
g36
sg37
g38
sg21
S'2'
sg19
S'space'
p522
sg34
g11
sg473
L2L
sg474
g500
sg476
L2L
sS'block.thisIndex'
p523
I7
sg478
g471
sg480
L0L
sg482
VUBUxy
p524
sa(dp525
S'block.thisTrialN'
p526
I5
sS'block.thisRepN'
p527
I0
sg29
g33
sS'block.thisN'
p528
I5
sg465
(S'DIVIDE'
S'DECREASE'
S'THIRD'
S'DOUBLE'
S'x'
S'y'
tp529
sg27
g28
sg467
L4L
sg468
(I12
I4
I3
I1
tp530
sg22
I1
sg20
F6.3829503390006721
sg23
F7.2329269440378994
sVY
L3L
sVX
L6L
sg470
g511
sg35
g36
sg37
g38
sg21
S'1'
sg19
S'space'
p531
sg34
g11
sg473
L1L
sg474
g503
sg476
L1L
sS'block.thisIndex'
p532
I10
sg478
g500
sg480
g514
sg482
g515
sa(dp533
S'block.thisTrialN'
p534
I6
sS'block.thisRepN'
p535
I0
sg29
g33
sS'block.thisN'
p536
I6
sg465
(S'INCREASE'
S'TRIPLE'
S'HALF'
S'ADD'
S'x'
S'y'
tp537
sg27
g28
sg467
L4L
sg468
(I4
I2
I6
I7
tp538
sg22
I0
sg20
F19.781871961662546
sVY
L2L
sVX
L2L
sg470
g481
sg35
g36
sg37
g38
sg21
Nsg19
S'space'
p539
sg34
g11
sg473
L7L
sg474
g479
sg476
L7L
sS'block.thisIndex'
p540
I17
sg478
g471
sg480
VADD
p541
sg482
VUUUBxy
p542
sa(dp543
S'block.thisTrialN'
p544
I7
sS'block.thisRepN'
p545
I0
sg29
g33
sS'block.thisN'
p546
I7
sg465
(S'DECREASE'
S'DIVIDE'
S'TRIPLE'
S'DOUBLE'
S'x'
S'y'
tp547
sg27
g28
sg467
L4L
sg468
(I6
I18
I2
I1
tp548
sg22
I1
sg20
F2.466367284534499
sg23
F7.8995342336129397
sVY
L9L
sVX
L3L
sg470
g479
sg35
g36
sg37
g38
sg21
S'1'
sg19
S'space'
p549
sg34
g11
sg473
L1L
sg474
g500
sg476
L1L
sS'block.thisIndex'
p550
I12
sg478
g503
sg480
g514
sg482
g483
sa(dp551
S'block.thisTrialN'
p552
I8
sS'block.thisRepN'
p553
I0
sg29
g33
sS'block.thisN'
p554
I8
sg465
(S'TIMES'
S'THIRD'
S'x'
S'y'
tp555
sg27
g28
sg467
L2L
sg468
(I1
I4
tp556
sg22
I1
sg20
F1.5500792493112385
sg23
F1.6833960874937475
sVY
L4L
sVX
L3L
sg470
L0L
sg35
g36
sg37
g38
sg21
S'4'
sg19
S'space'
p557
sg34
g11
sg473
L4L
sg474
g511
sg476
L4L
sS'block.thisIndex'
p558
I1
sg478
g490
sg480
L0L
sg482
VBUxy
p559
sa(dp560
S'block.thisTrialN'
p561
I9
sS'block.thisRepN'
p562
I0
sg29
g33
sS'block.thisN'
p563
I9
sg465
(S'DECREASE'
S'HALF'
S'TRIPLE'
S'ADD'
S'x'
S'y'
tp564
sg27
g28
sg467
L4L
sg468
(I4
I12
I6
I5
tp565
sg22
I0
sg20
F0.033476806711405516
sg23
F3.0333207231014967
sVY
L2L
sVX
L2L
sg470
g479
sg35
g36
sg37
g38
sg21
S'6'
sg19
S'space'
p566
sg34
g11
sg473
L5L
sg474
g481
sg476
L5L
sS'block.thisIndex'
p567
I16
sg478
g503
sg480
g541
sg482
g542
sa(dp568
S'block.thisTrialN'
p569
I10
sS'block.thisRepN'
p570
I0
sg29
g33
sS'block.thisN'
p571
I10
sg465
(S'THIRD'
S'INCREASE'
S'SUBTRACT'
S'HALF'
S'x'
S'y'
tp572
sg27
g28
sg467
L4L
sg468
(I4
I2
I3
I1
tp573
sg22
I1
sg20
F1.5500197552610189
sg23
F5.4997261536773294
sVY
L2L
sVX
L8L
sg470
g475
sg35
g36
sg37
g38
sg21
S'1'
sg19
S'space'
p574
sg34
g11
sg473
L1L
sg474
g471
sg476
L1L
sS'block.thisIndex'
p575
I15
sg478
g511
sg480
g481
sg482
g493
sa(dp576
S'block.thisTrialN'
p577
I11
sS'block.thisRepN'
p578
I0
sg29
g33
sS'block.thisN'
p579
I11
sg465
(S'DOUBLE'
S'TIMES'
S'THIRD'
S'x'
S'y'
tp580
sg27
g28
sg467
L3L
sg468
(I1
I4
I8
tp581
sg22
I1
sg20
F2.3999568144790828
sg23
F3.6665610943455249
sVY
L4L
sVX
L3L
sg470
g511
sg35
g36
sg37
g38
sg21
S'8'
sg19
S'space'
p582
sg34
g11
sg473
L8L
sg474
g490
sg476
L8L
sS'block.thisIndex'
p583
I6
sg478
g514
sg480
L0L
sg482
g524
sa(dp584
S'block.thisTrialN'
p585
I12
sS'block.thisRepN'
p586
I0
sg29
g33
sS'block.thisN'
p587
I12
sg465
(S'TRIPLE'
S'HALF'
S'TIMES'
S'x'
S'y'
tp588
sg27
g28
sg467
L3L
sg468
(I6
I3
I9
tp589
sg22
I1
sg20
F3.0332374316640198
sg23
F3.133280442096293
sVY
L3L
sVX
L2L
sg470
g490
sg35
g36
sg37
g38
sg21
S'9'
sg19
S'space'
p590
sg34
g11
sg473
L9L
sg474
g481
sg476
L9L
sS'block.thisIndex'
p591
I9
sg478
g479
sg480
L0L
sg482
g504
sa(dp592
S'block.thisTrialN'
p593
I13
sS'block.thisRepN'
p594
I0
sg29
g33
sS'block.thisN'
p595
I13
sg465
(S'SUBTRACT'
S'THIRD'
S'x'
S'y'
tp596
sg27
g28
sg467
L2L
sg468
(I3
I1
tp597
sg22
I1
sg20
F1.1667075541336089
sg23
F1.8833932178094983
sVY
L2L
sVX
L9L
sg470
L0L
sg35
g36
sg37
g38
sg21
S'1'
sg19
S'space'
p598
sg34
g11
sg473
L1L
sg474
g511
sg476
L1L
sS'block.thisIndex'
p599
I0
sg478
g475
sg480
L0L
sg482
g559
sa(dp600
S'block.thisTrialN'
p601
I14
sS'block.thisRepN'
p602
I0
sg29
g33
sS'block.thisN'
p603
I14
sg465
(S'TRIPLE'
S'SUBTRACT'
S'x'
S'y'
tp604
sg27
g28
sg467
L2L
sg468
(I2
I6
tp605
sg22
I1
sg20
F1.4000439553055912
sg23
F2.2333640484139323
sVY
L6L
sVX
L8L
sg470
L0L
sg35
g36
sg37
g38
sg21
S'6'
sg19
S'space'
p606
sg34
g11
sg473
L6L
sg474
g475
sg476
L6L
sS'block.thisIndex'
p607
I3
sg478
g479
sg480
L0L
sg482
VUBxy
p608
sa(dp609
S'block.thisTrialN'
p610
I15
sS'block.thisRepN'
p611
I0
sg29
g33
sS'block.thisN'
p612
I15
sg465
(S'INCREASE'
S'TIMES'
S'x'
S'y'
tp613
sg27
g28
sg467
L2L
sg468
(I8
I9
tp614
sg22
I1
sg20
F2.1499754500109702
sg23
F2.2167453328147531
sVY
L4L
sVX
L2L
sg470
L0L
sg35
g36
sg37
g38
sg21
S'9'
sg19
S'space'
p615
sg34
g11
sg473
L9L
sg474
g490
sg476
L9L
sS'block.thisIndex'
p616
I2
sg478
g471
sg480
L0L
sg482
g608
sa(dp617
S'block.thisTrialN'
p618
I16
sS'block.thisRepN'
p619
I0
sg29
g33
sS'block.thisN'
p620
I16
sg465
(S'SUBTRACT'
S'DOUBLE'
S'DECREASE'
S'x'
S'y'
tp621
sg27
g28
sg467
L3L
sg468
(I8
I16
I7
tp622
sg22
I0
sg20
F0.083254912402480841
sg23
F6.1830155022908002
sVY
L9L
sVX
L9L
sg470
g503
sg35
g36
sg37
g38
sg21
S'9'
sg19
S'space'
p623
sg34
g11
sg473
L7L
sg474
g514
sg476
L7L
sS'block.thisIndex'
p624
I5
sg478
g475
sg480
L0L
sg482
VBUUxy
p625
sa(dp626
S'block.thisTrialN'
p627
I17
sS'block.thisRepN'
p628
I0
sg29
g33
sS'block.thisN'
p629
I17
sg465
(S'ADD'
S'DECREASE'
S'HALF'
S'x'
S'y'
tp630
sg27
g28
sg467
L3L
sg468
(I3
I2
I6
tp631
sg22
I1
sg20
F4.9995488971471786
sg23
F3.0832801095675677
sVY
L4L
sVX
L6L
sg470
g481
sg35
g36
sg37
g38
sg21
S'6'
sg19
S'space'
p632
sg34
g11
sg473
L6L
sg474
g503
sg476
L6L
sS'block.thisIndex'
p633
I4
sg478
g541
sg480
L0L
sg482
g625
sa(dp634
S'block.thisTrialN'
p635
I0
sS'block.thisRepN'
p636
I0
sg29
g33
sS'block.thisN'
p637
I0
sVRule
p638
(S'THIRD'
S'DECREASE'
S'TIMES'
S'x'
S'y'
tp639
sg27
g28
sVLength
p640
L3L
sVIntermediate
p641
(I25
I24
I8
tp642
sg22
I0
sg20
F2.2665496855042875
sg23
F6.6329953968524933
sVY
L5L
sVX
L5L
sVOperatorc
p643
VTIMES
p644
sg35
g36
sg37
g38
sg21
S'6'
sg19
S'space'
p645
sg34
g11
sVResult
p646
L8L
sVOperatora
p647
Vdecrease
p648
sVCorrectResponse
p649
L8L
sS'block.thisIndex'
p650
I8
sVOperatorb
p651
Vthird
p652
sVOperatord
p653
L0L
sVStructure
p654
VUUBxy
p655
sa(dp656
S'block.thisTrialN'
p657
I1
sS'block.thisRepN'
p658
I0
sg29
g33
sS'block.thisN'
p659
I1
sg638
(S'THIRD'
S'SUBTRACT'
S'x'
S'y'
tp660
sg27
g28
sg640
L2L
sg641
(I3
I1
tp661
sg22
I1
sg20
F3.4998773375991732
sg23
F1.5831875442527235
sVY
L2L
sVX
L5L
sg643
L0L
sg35
g36
sg37
g38
sg21
S'1'
sg19
S'space'
p662
sg34
g11
sg646
L1L
sg647
VSUBTRACT
p663
sg649
L1L
sS'block.thisIndex'
p664
I3
sg651
g652
sg653
L0L
sg654
VUBxy
p665
sa(dp666
S'block.thisTrialN'
p667
I2
sS'block.thisRepN'
p668
I0
sg29
g33
sS'block.thisN'
p669
I2
sg638
(S'TRIPLE'
S'SUBTRACT'
S'DOUBLE'
S'DECREASE'
S'x'
S'y'
tp670
sg27
g28
sg640
L4L
sg641
(I2
I4
I1
I3
tp671
sg22
I1
sg20
F1.7831472286488861
sg23
F4.7998135394882411
sVY
L3L
sVX
L3L
sg643
Vdouble
p672
sg35
g36
sg37
g38
sg21
S'3'
sg19
S'space'
p673
sg34
g11
sg646
L3L
sg647
g663
sg649
L3L
sS'block.thisIndex'
p674
I13
sg651
Vtriple
p675
sg653
g648
sg654
VUBUUxy
p676
sa(dp677
S'block.thisTrialN'
p678
I3
sS'block.thisRepN'
p679
I0
sg29
g33
sS'block.thisN'
p680
I3
sg638
(S'TRIPLE'
S'HALF'
S'ADD'
S'DECREASE'
S'x'
S'y'
tp681
sg27
g28
sg640
L4L
sg641
(I1
I4
I2
I6
tp682
sg22
I1
sg20
F8.4993565923068672
sg23
F5.0164699812885374
sVY
L3L
sVX
L2L
sg643
VADD
p683
sg35
g36
sg37
g38
sg21
S'6'
sg19
S'space'
p684
sg34
g11
sg646
L6L
sg647
Vhalf
p685
sg649
L6L
sS'block.thisIndex'
p686
I15
sg651
g675
sg653
g648
sg654
VUUBUxy
p687
sa(dp688
S'block.thisTrialN'
p689
I4
sS'block.thisRepN'
p690
I0
sg29
g33
sS'block.thisN'
p691
I4
sg638
(S'SUBTRACT'
S'HALF'
S'INCREASE'
S'TRIPLE'
S'x'
S'y'
tp692
sg27
g28
sg640
L4L
sg641
(I15
I16
I8
I3
tp693
sg22
I1
sg20
F3.4499113017227501
sg23
F11.382571678608656
sVY
L5L
sVX
L5L
sg643
Vincrease
p694
sg35
g36
sg37
g38
sg21
S'3'
sg19
S'space'
p695
sg34
g11
sg646
L3L
sg647
g685
sg649
L3L
sS'block.thisIndex'
p696
I10
sg651
g663
sg653
g675
sg654
VBUUUxy
p697
sa(dp698
S'block.thisTrialN'
p699
I5
sS'block.thisRepN'
p700
I0
sg29
g33
sS'block.thisN'
p701
I5
sg638
(S'TIMES'
S'INCREASE'
S'THIRD'
S'DOUBLE'
S'x'
S'y'
tp702
sg27
g28
sg640
L4L
sg641
(I6
I2
I3
I9
tp703
sg22
I0
sg20
F2.4499837441835552
sg23
F7.8994761395733804
sVY
L3L
sVX
L3L
sg643
g652
sg35
g36
sg37
g38
sg21
S'7'
sg19
S'space'
p704
sg34
g11
sg646
L9L
sg647
g694
sg649
L9L
sS'block.thisIndex'
p705
I11
sg651
g644
sg653
g672
sg654
g697
sa(dp706
S'block.thisTrialN'
p707
I6
sS'block.thisRepN'
p708
I0
sg29
g33
sS'block.thisN'
p709
I6
sg638
(S'THIRD'
S'INCREASE'
S'HALF'
S'DIVIDE'
S'x'
S'y'
tp710
sg27
g28
sg640
L4L
sg641
(I4
I2
I3
I1
tp711
sg22
I1
sg20
F5.8828129784669727
sg23
F4.7498209059704095
sVY
L2L
sVX
L8L
sg643
g685
sg35
g36
sg37
g38
sg21
S'1'
sg19
S'space'
p712
sg34
g11
sg646
L1L
sg647
g694
sg649
L1L
sS'block.thisIndex'
p713
I16
sg651
g652
sg653
VDIVIDE
p714
sg654
VUUUBxy
p715
sa(dp716
S'block.thisTrialN'
p717
I7
sS'block.thisRepN'
p718
I0
sg29
g33
sS'block.thisN'
p719
I7
sg638
(S'TIMES'
S'INCREASE'
S'x'
S'y'
tp720
sg27
g28
sg640
L2L
sg641
(I3
I6
tp721
sg22
I1
sg20
F1.0167436529882252
sg23
F3.599897600710392
sVY
L2L
sVX
L2L
sg643
L0L
sg35
g36
sg37
g38
sg21
S'6'
sg19
S'space'
p722
sg34
g11
sg646
L6L
sg647
g694
sg649
L6L
sS'block.thisIndex'
p723
I1
sg651
g644
sg653
L0L
sg654
VBUxy
p724
sa(dp725
S'block.thisTrialN'
p726
I8
sS'block.thisRepN'
p727
I0
sg29
g33
sS'block.thisN'
p728
I8
sg638
(S'TIMES'
S'THIRD'
S'HALF'
S'x'
S'y'
tp729
sg27
g28
sg640
L3L
sg641
(I3
I1
I5
tp730
sg22
I1
sg20
F1.2833745297975838
sg23
F3.9665259930770844
sVY
L5L
sVX
L6L
sg643
g685
sg35
g36
sg37
g38
sg21
S'5'
sg19
S'space'
p731
sg34
g11
sg646
L5L
sg647
g652
sg649
L5L
sS'block.thisIndex'
p732
I5
sg651
g644
sg653
L0L
sg654
VBUUxy
p733
sa(dp734
S'block.thisTrialN'
p735
I9
sS'block.thisRepN'
p736
I0
sg29
g33
sS'block.thisN'
p737
I9
sg638
(S'TIMES'
S'DECREASE'
S'x'
S'y'
tp738
sg27
g28
sg640
L2L
sg641
(I2
I4
tp739
sg22
I1
sg20
F0.93339775013737381
sg23
F1.7500648305285722
sVY
L2L
sVX
L3L
sg643
L0L
sg35
g36
sg37
g38
sg21
S'4'
sg19
S'space'
p740
sg34
g11
sg646
L4L
sg647
g648
sg649
L4L
sS'block.thisIndex'
p741
I0
sg651
g644
sg653
L0L
sg654
g724
sa(dp742
S'block.thisTrialN'
p743
I10
sS'block.thisRepN'
p744
I0
sg29
g33
sS'block.thisN'
p745
I10
sg638
(S'THIRD'
S'ADD'
S'INCREASE'
S'x'
S'y'
tp746
sg27
g28
sg640
L3L
sg641
(I8
I15
I5
tp747
sg22
I1
sg20
F4.9997403272427619
sg23
F6.0496787161100656
sVY
L7L
sVX
L7L
sg643
g694
sg35
g36
sg37
g38
sg21
S'5'
sg19
S'space'
p748
sg34
g11
sg646
L5L
sg647
g683
sg649
L5L
sS'block.thisIndex'
p749
I6
sg651
g652
sg653
L0L
sg654
VUBUxy
p750
sa(dp751
S'block.thisTrialN'
p752
I11
sS'block.thisRepN'
p753
I0
sg29
g33
sS'block.thisN'
p754
I11
sg638
(S'THIRD'
S'DOUBLE'
S'ADD'
S'INCREASE'
S'x'
S'y'
tp755
sg27
g28
sg640
L4L
sg641
(I10
I12
I24
I8
tp756
sg22
I1
sg20
F1.9500052670482546
sg23
F9.5993373091332614
sVY
L2L
sVX
L9L
sg643
g683
sg35
g36
sg37
g38
sg21
S'8'
sg19
S'space'
p757
sg34
g11
sg646
L8L
sg647
g672
sg649
L8L
sS'block.thisIndex'
p758
I14
sg651
g652
sg653
g694
sg654
g687
sa(dp759
S'block.thisTrialN'
p760
I12
sS'block.thisRepN'
p761
I0
sg29
g33
sS'block.thisN'
p762
I12
sg638
(S'TRIPLE'
S'DECREASE'
S'HALF'
S'TIMES'
S'x'
S'y'
tp763
sg27
g28
sg640
L4L
sg641
(I6
I3
I2
I6
tp764
sg22
I0
sg20
F7.4661877532489598
sg23
F8.7161379710305482
sVY
L2L
sVX
L3L
sg643
g685
sg35
g36
sg37
g38
sg21
S'2'
sg19
S'space'
p765
sg34
g11
sg646
L6L
sg647
g648
sg649
L6L
sS'block.thisIndex'
p766
I17
sg651
g675
sg653
g644
sg654
g715
sa(dp767
S'block.thisTrialN'
p768
I13
sS'block.thisRepN'
p769
I0
sg29
g33
sS'block.thisN'
p770
I13
sg638
(S'TIMES'
S'DECREASE'
S'HALF'
S'x'
S'y'
tp771
sg27
g28
sg640
L3L
sg641
(I4
I3
I9
tp772
sg22
I1
sg20
F1.633367758244276
sg23
F3.733242086134851
sVY
L3L
sVX
L8L
sg643
g685
sg35
g36
sg37
g38
sg21
S'9'
sg19
S'space'
p773
sg34
g11
sg646
L9L
sg647
g648
sg649
L9L
sS'block.thisIndex'
p774
I4
sg651
g644
sg653
L0L
sg654
g733
sa(dp775
S'block.thisTrialN'
p776
I14
sS'block.thisRepN'
p777
I0
sg29
g33
sS'block.thisN'
p778
I14
sg638
(S'INCREASE'
S'DIVIDE'
S'TRIPLE'
S'DOUBLE'
S'x'
S'y'
tp779
sg27
g28
sg640
L4L
sg641
(I6
I18
I3
I4
tp780
sg22
I0
sg20
F13.332432760624215
sg23
F7.949479621835053
sVY
L6L
sVX
L3L
sg643
g675
sg35
g36
sg37
g38
sg21
S'9'
sg19
S'space'
p781
sg34
g11
sg646
L4L
sg647
g714
sg649
L4L
sS'block.thisIndex'
p782
I12
sg651
g694
sg653
g672
sg654
g676
sa(dp783
S'block.thisTrialN'
p784
I15
sS'block.thisRepN'
p785
I0
sg29
g33
sS'block.thisN'
p786
I15
sg638
(S'THIRD'
S'ADD'
S'x'
S'y'
tp787
sg27
g28
sg640
L2L
sg641
(I9
I3
tp788
sg22
I1
sg20
F1.4000285570509732
sg23
F1.5500533517915756
sVY
L5L
sVX
L4L
sg643
L0L
sg35
g36
sg37
g38
sg21
S'3'
sg19
S'space'
p789
sg34
g11
sg646
L3L
sg647
g683
sg649
L3L
sS'block.thisIndex'
p790
I2
sg651
g652
sg653
L0L
sg654
g665
sa(dp791
S'block.thisTrialN'
p792
I16
sS'block.thisRepN'
p793
I0
sg29
g33
sS'block.thisN'
p794
I16
sg638
(S'TRIPLE'
S'HALF'
S'DIVIDE'
S'x'
S'y'
tp795
sg27
g28
sg640
L3L
sg641
(I2
I1
I3
tp796
sg22
I1
sg20
F4.7664245737250894
sg23
F2.4999987753108144
sVY
L2L
sVX
L4L
sg643
g714
sg35
g36
sg37
g38
sg21
S'3'
sg19
S'space'
p797
sg34
g11
sg646
L3L
sg647
g685
sg649
L3L
sS'block.thisIndex'
p798
I9
sg651
g675
sg653
L0L
sg654
g655
sa(dp799
S'block.thisTrialN'
p800
I17
sS'block.thisRepN'
p801
I0
sg29
g33
sS'block.thisN'
p802
I17
sg638
(S'THIRD'
S'TIMES'
S'DECREASE'
S'x'
S'y'
tp803
sg27
g28
sg640
L3L
sg641
(I3
I15
I5
tp804
sg22
I1
sg20
F4.6664330076891929
sg23
F4.0665354069788009
sVY
L5L
sVX
L4L
sg643
g648
sg35
g36
sg37
g38
sg21
S'5'
sg19
S'space'
p805
sg34
g11
sg646
L5L
sg647
g644
sg649
L5L
sS'block.thisIndex'
p806
I7
sg651
g652
sg653
L0L
sg654
g750
sa(dp807
S'block.thisTrialN'
p808
I0
sS'block.thisRepN'
p809
I0
sg29
g33
sS'block.thisN'
p810
I0
sVRule
p811
(S'SUBTRACT'
S'INCREASE'
S'x'
S'y'
tp812
sg27
g28
sVLength
p813
L2L
sVIntermediate
p814
(I6
I2
tp815
sg22
I1
sg20
F1.45003273896873
sg23
F3.2332646588329226
sVY
L4L
sVX
L5L
sVOperatorc
p816
L0L
sg35
g36
sg37
g38
sg21
S'2'
sg19
S'space'
p817
sg34
g11
sVResult
p818
L2L
sVOperatora
p819
Vincrease
p820
sVCorrectResponse
p821
L2L
sS'block.thisIndex'
p822
I1
sVOperatorb
p823
VSUBTRACT
p824
sVOperatord
p825
L0L
sVStructure
p826
VBUxy
p827
sa(dp828
S'block.thisTrialN'
p829
I1
sS'block.thisRepN'
p830
I0
sg29
g33
sS'block.thisN'
p831
I1
sg811
(S'INCREASE'
S'SUBTRACT'
S'THIRD'
S'x'
S'y'
tp832
sg27
g28
sg813
L3L
sg814
(I3
I1
I2
tp833
sg22
I0
sg20
F0.050180213758721948
sg23
F4.1831673865672201
sVY
L2L
sVX
L9L
sg816
Vthird
p834
sg35
g36
sg37
g38
sg21
S'3'
sg19
S'space'
p835
sg34
g11
sg818
L2L
sg819
g824
sg821
L2L
sS'block.thisIndex'
p836
I7
sg823
g820
sg825
L0L
sg826
VUBUxy
p837
sa(dp838
S'block.thisTrialN'
p839
I2
sS'block.thisRepN'
p840
I0
sg29
g33
sS'block.thisN'
p841
I2
sg811
(S'ADD'
S'THIRD'
S'x'
S'y'
tp842
sg27
g28
sg813
L2L
sg814
(I1
I7
tp843
sg22
I1
sg20
F0.76684103021398187
sg23
F1.5833719749934971
sVY
L6L
sVX
L3L
sg816
L0L
sg35
g36
sg37
g38
sg21
S'7'
sg19
S'space'
p844
sg34
g11
sg818
L7L
sg819
g834
sg821
L7L
sS'block.thisIndex'
p845
I0
sg823
VADD
p846
sg825
L0L
sg826
g827
sa(dp847
S'block.thisTrialN'
p848
I3
sS'block.thisRepN'
p849
I0
sg29
g33
sS'block.thisN'
p850
I3
sg811
(S'DECREASE'
S'TRIPLE'
S'HALF'
S'ADD'
S'x'
S'y'
tp851
sg27
g28
sg813
L4L
sg814
(I6
I3
I9
I8
tp852
sg22
I1
sg20
F3.9998372669797391
sg23
F7.4328922277782112
sVY
L2L
sVX
L4L
sg816
Vhalf
p853
sg35
g36
sg37
g38
sg21
S'8'
sg19
S'space'
p854
sg34
g11
sg818
L8L
sg819
Vtriple
p855
sg821
L8L
sS'block.thisIndex'
p856
I16
sg823
Vdecrease
p857
sg825
g846
sg826
VUUUBxy
p858
sa(dp859
S'block.thisTrialN'
p860
I4
sS'block.thisRepN'
p861
I0
sg29
g33
sS'block.thisN'
p862
I4
sg811
(S'THIRD'
S'TIMES'
S'HALF'
S'INCREASE'
S'x'
S'y'
tp863
sg27
g28
sg813
L4L
sg814
(I8
I4
I12
I4
tp864
sg22
I1
sg20
F2.5332883512601256
sg23
F7.4997016559354961
sVY
L3L
sVX
L7L
sg816
g853
sg35
g36
sg37
g38
sg21
S'4'
sg19
S'space'
p865
sg34
g11
sg818
L4L
sg819
VTIMES
p866
sg821
L4L
sS'block.thisIndex'
p867
I13
sg823
g834
sg825
g820
sg826
VUBUUxy
p868
sa(dp869
S'block.thisTrialN'
p870
I5
sS'block.thisRepN'
p871
I0
sg29
g33
sS'block.thisN'
p872
I5
sg811
(S'TRIPLE'
S'DOUBLE'
S'SUBTRACT'
S'DECREASE'
S'x'
S'y'
tp873
sg27
g28
sg813
L4L
sg814
(I4
I1
I2
I6
tp874
sg22
I1
sg20
F5.1329392278566957
sg23
F4.8164767005946487
sVY
L3L
sVX
L5L
sg816
g824
sg35
g36
sg37
g38
sg21
S'6'
sg19
S'space'
p875
sg34
g11
sg818
L6L
sg819
Vdouble
p876
sg821
L6L
sS'block.thisIndex'
p877
I15
sg823
g855
sg825
g857
sg826
VUUBUxy
p878
sa(dp879
S'block.thisTrialN'
p880
I6
sS'block.thisRepN'
p881
I0
sg29
g33
sS'block.thisN'
p882
I6
sg811
(S'TRIPLE'
S'DECREASE'
S'HALF'
S'SUBTRACT'
S'x'
S'y'
tp883
sg27
g28
sg813
L4L
sg814
(I4
I2
I1
I3
tp884
sg22
I1
sg20
F2.7165964231826365
sg23
F7.7995545663870871
sVY
L5L
sVX
L9L
sg816
g853
sg35
g36
sg37
g38
sg21
S'3'
sg19
S'space'
p885
sg34
g11
sg818
L3L
sg819
g857
sg821
L3L
sS'block.thisIndex'
p886
I17
sg823
g855
sg825
g824
sg826
g858
sa(dp887
S'block.thisTrialN'
p888
I7
sS'block.thisRepN'
p889
I0
sg29
g33
sS'block.thisN'
p890
I7
sg811
(S'DECREASE'
S'TRIPLE'
S'DIVIDE'
S'x'
S'y'
tp891
sg27
g28
sg813
L3L
sg814
(I2
I6
I5
tp892
sg22
I1
sg20
F2.1333227877039462
sg23
F4.6498020431026816
sVY
L4L
sVX
L8L
sg816
VDIVIDE
p893
sg35
g36
sg37
g38
sg21
S'5'
sg19
S'space'
p894
sg34
g11
sg818
L5L
sg819
g855
sg821
L5L
sS'block.thisIndex'
p895
I8
sg823
g857
sg825
L0L
sg826
VUUBxy
p896
sa(dp897
S'block.thisTrialN'
p898
I8
sS'block.thisRepN'
p899
I0
sg29
g33
sS'block.thisN'
p900
I8
sg811
(S'THIRD'
S'INCREASE'
S'SUBTRACT'
S'x'
S'y'
tp901
sg27
g28
sg813
L3L
sg814
(I2
I3
I1
tp902
sg22
I1
sg20
F1.9666645785328001
sg23
F2.6999801569618285
sVY
L6L
sVX
L8L
sg816
g824
sg35
g36
sg37
g38
sg21
S'1'
sg19
S'space'
p903
sg34
g11
sg818
L1L
sg819
g820
sg821
L1L
sS'block.thisIndex'
p904
I9
sg823
g834
sg825
L0L
sg826
g896
sa(dp905
S'block.thisTrialN'
p906
I9
sS'block.thisRepN'
p907
I0
sg29
g33
sS'block.thisN'
p908
I9
sg811
(S'INCREASE'
S'ADD'
S'TRIPLE'
S'x'
S'y'
tp909
sg27
g28
sg813
L3L
sg814
(I6
I8
I9
tp910
sg22
I1
sg20
F2.9332507653161883
sg23
F4.8831293454859406
sVY
L2L
sVX
L2L
sg816
g855
sg35
g36
sg37
g38
sg21
S'9'
sg19
S'space'
p911
sg34
g11
sg818
L9L
sg819
g846
sg821
L9L
sS'block.thisIndex'
p912
I6
sg823
g820
sg825
L0L
sg826
g837
sa(dp913
S'block.thisTrialN'
p914
I10
sS'block.thisRepN'
p915
I0
sg29
g33
sS'block.thisN'
p916
I10
sg811
(S'TIMES'
S'THIRD'
S'DOUBLE'
S'x'
S'y'
tp917
sg27
g28
sg813
L3L
sg814
(I6
I2
I4
tp918
sg22
I1
sg20
F1.3167068015318364
sg23
F8.0995054664090276
sVY
L2L
sVX
L3L
sg816
g876
sg35
g36
sg37
g38
sg21
S'4'
sg19
S'space'
p919
sg34
g11
sg818
L4L
sg819
g834
sg821
L4L
sS'block.thisIndex'
p920
I5
sg823
g866
sg825
L0L
sg826
VBUUxy
p921
sa(dp922
S'block.thisTrialN'
p923
I11
sS'block.thisRepN'
p924
I0
sg29
g33
sS'block.thisN'
p925
I11
sg811
(S'TIMES'
S'INCREASE'
S'HALF'
S'TRIPLE'
S'x'
S'y'
tp926
sg27
g28
sg813
L4L
sg814
(I6
I3
I4
I8
tp927
sg22
I1
sg20
F3.8665060801431537
sg23
F6.3330112504772842
sVY
L2L
sVX
L2L
sg816
g853
sg35
g36
sg37
g38
sg21
S'8'
sg19
S'space'
p928
sg34
g11
sg818
L8L
sg819
g820
sg821
L8L
sS'block.thisIndex'
p929
I11
sg823
g866
sg825
g855
sg826
VBUUUxy
p930
sa(dp931
S'block.thisTrialN'
p932
I12
sS'block.thisRepN'
p933
I0
sg29
g33
sS'block.thisN'
p934
I12
sg811
(S'DOUBLE'
S'ADD'
S'x'
S'y'
tp935
sg27
g28
sg813
L2L
sg814
(I4
I8
tp936
sg22
I1
sg20
F0.88340336689725518
sg23
F2.1000262121669948
sVY
L2L
sVX
L2L
sg816
L0L
sg35
g36
sg37
g38
sg21
S'8'
sg19
S'space'
p937
sg34
g11
sg818
L8L
sg819
g846
sg821
L8L
sS'block.thisIndex'
p938
I2
sg823
g876
sg825
L0L
sg826
VUBxy
p939
sa(dp940
S'block.thisTrialN'
p941
I13
sS'block.thisRepN'
p942
I0
sg29
g33
sS'block.thisN'
p943
I13
sg811
(S'DIVIDE'
S'DOUBLE'
S'INCREASE'
S'THIRD'
S'x'
S'y'
tp944
sg27
g28
sg813
L4L
sg814
(I2
I3
I6
I2
tp945
sg22
I1
sg20
F3.2832303449977189
sg23
F6.19968251301907
sVY
L3L
sVX
L6L
sg816
g820
sg35
g36
sg37
g38
sg21
S'2'
sg19
S'space'
p946
sg34
g11
sg818
L2L
sg819
g876
sg821
L2L
sS'block.thisIndex'
p947
I10
sg823
g893
sg825
g834
sg826
g930
sa(dp948
S'block.thisTrialN'
p949
I14
sS'block.thisRepN'
p950
I0
sg29
g33
sS'block.thisN'
p951
I14
sg811
(S'INCREASE'
S'DIVIDE'
S'TRIPLE'
S'HALF'
S'x'
S'y'
tp952
sg27
g28
sg813
L4L
sg814
(I2
I6
I2
I3
tp953
sg22
I1
sg20
F1.1167569165118039
sg23
F9.5660603316500783
sVY
L3L
sVX
L4L
sg816
g855
sg35
g36
sg37
g38
sg21
S'3'
sg19
S'space'
p954
sg34
g11
sg818
L3L
sg819
g893
sg821
L3L
sS'block.thisIndex'
p955
I12
sg823
g820
sg825
g853
sg826
g868
sa(dp956
S'block.thisTrialN'
p957
I15
sS'block.thisRepN'
p958
I0
sg29
g33
sS'block.thisN'
p959
I15
sg811
(S'THIRD'
S'INCREASE'
S'ADD'
S'DOUBLE'
S'x'
S'y'
tp960
sg27
g28
sg813
L4L
sg814
(I16
I20
I21
I7
tp961
sg22
I0
sg20
F1.7000249524135143
sg23
F8.3162469496019185
sVY
L4L
sVX
L8L
sg816
g846
sg35
g36
sg37
g38
sg21
S'5'
sg19
S'space'
p962
sg34
g11
sg818
L7L
sg819
g820
sg821
L7L
sS'block.thisIndex'
p963
I14
sg823
g834
sg825
g876
sg826
g878
sa(dp964
S'block.thisTrialN'
p965
I16
sS'block.thisRepN'
p966
I0
sg29
g33
sS'block.thisN'
p967
I16
sg811
(S'DIVIDE'
S'TRIPLE'
S'HALF'
S'x'
S'y'
tp968
sg27
g28
sg813
L3L
sg814
(I4
I12
I4
tp969
sg22
I1
sg20
F1.0500430278480053
sg23
F5.5664008460007608
sVY
L3L
sVX
L8L
sg816
g853
sg35
g36
sg37
g38
sg21
S'4'
sg19
S'space'
p970
sg34
g11
sg818
L4L
sg819
g855
sg821
L4L
sS'block.thisIndex'
p971
I4
sg823
g893
sg825
L0L
sg826
g921
sa(dp972
S'block.thisTrialN'
p973
I17
sS'block.thisRepN'
p974
I0
sg29
g33
sS'block.thisN'
p975
I17
sg811
(S'DOUBLE'
S'TIMES'
S'x'
S'y'
tp976
sg27
g28
sg813
L2L
sg814
(I4
I8
tp977
sg22
I1
sg20
F1.1498753605410457
sg23
F3.5165807448793203
sVY
L2L
sVX
L2L
sg816
L0L
sg35
g36
sg37
g38
sg21
S'8'
sg19
S'space'
p978
sg34
g11
sg818
L8L
sg819
g866
sg821
L8L
sS'block.thisIndex'
p979
I3
sg823
g876
sg825
L0L
sg826
g939
sa(dp980
S'block.thisTrialN'
p981
I0
sS'block.thisRepN'
p982
I0
sg29
g33
sS'block.thisN'
p983
I0
sVRule
p984
(S'ADD'
S'TRIPLE'
S'DOUBLE'
S'DECREASE'
S'x'
S'y'
tp985
sg27
g28
sVLength
p986
L4L
sVIntermediate
p987
(I1
I2
I6
I8
tp988
sg22
I1
sg20
F7.4162059689406306
sg23
F4.8164662017952651
sVY
L2L
sVX
L2L
sVOperatorc
p989
Vdouble
p990
sg35
g36
sg37
g38
sg21
S'8'
sg19
S'space'
p991
sg34
g11
sVResult
p992
L8L
sVOperatora
p993
Vtriple
p994
sVCorrectResponse
p995
L8L
sS'block.thisIndex'
p996
I11
sVOperatorb
p997
VADD
p998
sVOperatord
p999
Vdecrease
p1000
sVStructure
p1001
VBUUUxy
p1002
sa(dp1003
S'block.thisTrialN'
p1004
I1
sS'block.thisRepN'
p1005
I0
sg29
g33
sS'block.thisN'
p1006
I1
sg984
(S'INCREASE'
S'ADD'
S'HALF'
S'x'
S'y'
tp1007
sg27
g28
sg986
L3L
sg987
(I1
I4
I5
tp1008
sg22
I1
sg20
F2.733315228484571
sg23
F3.1998938911128789
sVY
L3L
sVX
L2L
sg989
Vhalf
p1009
sg35
g36
sg37
g38
sg21
S'5'
sg19
S'space'
p1010
sg34
g11
sg992
L5L
sg993
g998
sg995
L5L
sS'block.thisIndex'
p1011
I7
sg997
Vincrease
p1012
sg999
L0L
sg1001
VUBUxy
p1013
sa(dp1014
S'block.thisTrialN'
p1015
I2
sS'block.thisRepN'
p1016
I0
sg29
g33
sS'block.thisN'
p1017
I2
sg984
(S'DECREASE'
S'TIMES'
S'x'
S'y'
tp1018
sg27
g28
sg986
L2L
sg987
(I9
I8
tp1019
sg22
I1
sg20
F0.70009774481877685
sg23
F1.5500607013236731
sVY
L3L
sVX
L3L
sg989
L0L
sg35
g36
sg37
g38
sg21
S'8'
sg19
S'space'
p1020
sg34
g11
sg992
L8L
sg993
VTIMES
p1021
sg995
L8L
sS'block.thisIndex'
p1022
I2
sg997
g1000
sg999
L0L
sg1001
VUBxy
p1023
sa(dp1024
S'block.thisTrialN'
p1025
I3
sS'block.thisRepN'
p1026
I0
sg29
g33
sS'block.thisN'
p1027
I3
sg984
(S'INCREASE'
S'HALF'
S'THIRD'
S'TIMES'
S'x'
S'y'
tp1028
sg27
g28
sg986
L4L
sg987
(I12
I4
I2
I3
tp1029
sg22
I1
sg20
F2.0333287720568478
sg23
F4.7164655369706452
sVY
L4L
sVX
L3L
sg989
Vthird
p1030
sg35
g36
sg37
g38
sg21
S'3'
sg19
S'space'
p1031
sg34
g11
sg992
L3L
sg993
g1009
sg995
L3L
sS'block.thisIndex'
p1032
I16
sg997
g1012
sg999
g1021
sg1001
VUUUBxy
p1033
sa(dp1034
S'block.thisTrialN'
p1035
I4
sS'block.thisRepN'
p1036
I0
sg29
g33
sS'block.thisN'
p1037
I4
sg984
(S'DIVIDE'
S'DECREASE'
S'x'
S'y'
tp1038
sg27
g28
sg986
L2L
sg987
(I8
I2
tp1039
sg22
I1
sg20
F0.73343946551904082
sg23
F1.7500389334745705
sVY
L4L
sVX
L9L
sg989
L0L
sg35
g36
sg37
g38
sg21
S'2'
sg19
S'space'
p1040
sg34
g11
sg992
L2L
sg993
g1000
sg995
L2L
sS'block.thisIndex'
p1041
I1
sg997
VDIVIDE
p1042
sg999
L0L
sg1001
VBUxy
p1043
sa(dp1044
S'block.thisTrialN'
p1045
I5
sS'block.thisRepN'
p1046
I0
sg29
g33
sS'block.thisN'
p1047
I5
sg984
(S'ADD'
S'DECREASE'
S'THIRD'
S'DOUBLE'
S'x'
S'y'
tp1048
sg27
g28
sg986
L4L
sg987
(I18
I6
I5
I9
tp1049
sg22
I1
sg20
F1.4333762272726744
sg23
F7.0662589357234538
sVY
L4L
sVX
L9L
sg989
g1030
sg35
g36
sg37
g38
sg21
S'9'
sg19
S'space'
p1050
sg34
g11
sg992
L9L
sg993
g1000
sg995
L9L
sS'block.thisIndex'
p1051
I10
sg997
g998
sg999
g990
sg1001
g1002
sa(dp1052
S'block.thisTrialN'
p1053
I6
sS'block.thisRepN'
p1054
I0
sg29
g33
sS'block.thisN'
p1055
I6
sg984
(S'ADD'
S'DECREASE'
S'x'
S'y'
tp1056
sg27
g28
sg986
L2L
sg987
(I2
I7
tp1057
sg22
I1
sg20
F0.70010334416292608
sg23
F1.7500543317291886
sVY
L5L
sVX
L3L
sg989
L0L
sg35
g36
sg37
g38
sg21
S'7'
sg19
S'space'
p1058
sg34
g11
sg992
L7L
sg993
g1000
sg995
L7L
sS'block.thisIndex'
p1059
I0
sg997
g998
sg999
L0L
sg1001
g1043
sa(dp1060
S'block.thisTrialN'
p1061
I7
sS'block.thisRepN'
p1062
I0
sg29
g33
sS'block.thisN'
p1063
I7
sg984
(S'DOUBLE'
S'SUBTRACT'
S'INCREASE'
S'x'
S'y'
tp1064
sg27
g28
sg986
L3L
sg987
(I4
I1
I2
tp1065
sg22
I0
sg20
F0.13347607175819576
sg23
F4.1331856020260602
sVY
L3L
sVX
L3L
sg989
g1012
sg35
g36
sg37
g38
sg21
S'1'
sg19
S'space'
p1066
sg34
g11
sg992
L2L
sg993
VSUBTRACT
p1067
sg995
L2L
sS'block.thisIndex'
p1068
I6
sg997
g990
sg999
L0L
sg1001
g1013
sa(dp1069
S'block.thisTrialN'
p1070
I8
sS'block.thisRepN'
p1071
I0
sg29
g33
sS'block.thisN'
p1072
I8
sg984
(S'THIRD'
S'HALF'
S'INCREASE'
S'SUBTRACT'
S'x'
S'y'
tp1073
sg27
g28
sg986
L4L
sg987
(I5
I6
I3
I1
tp1074
sg22
I1
sg20
F2.6499339793808758
sg23
F3.7165691258851439
sVY
L2L
sVX
L7L
sg989
g1012
sg35
g36
sg37
g38
sg21
S'1'
sg19
S'space'
p1075
sg34
g11
sg992
L1L
sg993
g1009
sg995
L1L
sS'block.thisIndex'
p1076
I17
sg997
g1030
sg999
g1067
sg1001
g1033
sa(dp1077
S'block.thisTrialN'
p1078
I9
sS'block.thisRepN'
p1079
I0
sg29
g33
sS'block.thisN'
p1080
I9
sg984
(S'DECREASE'
S'DOUBLE'
S'TIMES'
S'THIRD'
S'x'
S'y'
tp1081
sg27
g28
sg986
L4L
sg987
(I1
I3
I6
I5
tp1082
sg22
I1
sg20
F3.9331566251348704
sg23
F5.283104358240962
sVY
L3L
sVX
L3L
sg989
g1021
sg35
g36
sg37
g38
sg21
S'5'
sg19
S'space'
p1083
sg34
g11
sg992
L5L
sg993
g990
sg995
L5L
sS'block.thisIndex'
p1084
I14
sg997
g1000
sg999
g1030
sg1001
VUUBUxy
p1085
sa(dp1086
S'block.thisTrialN'
p1087
I10
sS'block.thisRepN'
p1088
I0
sg29
g33
sS'block.thisN'
p1089
I10
sg984
(S'DECREASE'
S'TRIPLE'
S'SUBTRACT'
S'DOUBLE'
S'x'
S'y'
tp1090
sg27
g28
sg986
L4L
sg987
(I6
I3
I9
I8
tp1091
sg22
I1
sg20
F2.7332700833212584
sg23
F5.4496967741288245
sVY
L3L
sVX
L3L
sg989
g1067
sg35
g36
sg37
g38
sg21
S'8'
sg19
S'space'
p1092
sg34
g11
sg992
L8L
sg993
g994
sg995
L8L
sS'block.thisIndex'
p1093
I15
sg997
g1000
sg999
g990
sg1001
g1085
sa(dp1094
S'block.thisTrialN'
p1095
I11
sS'block.thisRepN'
p1096
I0
sg29
g33
sS'block.thisN'
p1097
I11
sg984
(S'HALF'
S'INCREASE'
S'TIMES'
S'x'
S'y'
tp1098
sg27
g28
sg986
L3L
sg987
(I9
I10
I5
tp1099
sg22
I1
sg20
F2.8832525324542075
sg23
F2.1500272448174655
sVY
L3L
sVX
L3L
sg989
g1021
sg35
g36
sg37
g38
sg21
S'5'
sg19
S'space'
p1100
sg34
g11
sg992
L5L
sg993
g1012
sg995
L5L
sS'block.thisIndex'
p1101
I9
sg997
g1009
sg999
L0L
sg1001
VUUBxy
p1102
sa(dp1103
S'block.thisTrialN'
p1104
I12
sS'block.thisRepN'
p1105
I0
sg29
g33
sS'block.thisN'
p1106
I12
sg984
(S'ADD'
S'TRIPLE'
S'HALF'
S'x'
S'y'
tp1107
sg27
g28
sg986
L3L
sg987
(I2
I6
I8
tp1108
sg22
I1
sg20
F2.683256802149117
sg23
F4.7665127643849701
sVY
L2L
sVX
L4L
sg989
g1009
sg35
g36
sg37
g38
sg21
S'8'
sg19
S'space'
p1109
sg34
g11
sg992
L8L
sg993
g994
sg995
L8L
sS'block.thisIndex'
p1110
I5
sg997
g998
sg999
L0L
sg1001
VBUUxy
p1111
sa(dp1112
S'block.thisTrialN'
p1113
I13
sS'block.thisRepN'
p1114
I0
sg29
g33
sS'block.thisN'
p1115
I13
sg984
(S'HALF'
S'ADD'
S'x'
S'y'
tp1116
sg27
g28
sg986
L2L
sg987
(I12
I6
tp1117
sg22
I1
sg20
F1.4333608287852257
sg23
F2.1333637335337698
sVY
L8L
sVX
L4L
sg989
L0L
sg35
g36
sg37
g38
sg21
S'6'
sg19
S'space'
p1118
sg34
g11
sg992
L6L
sg993
g998
sg995
L6L
sS'block.thisIndex'
p1119
I3
sg997
g1009
sg999
L0L
sg1001
g1023
sa(dp1120
S'block.thisTrialN'
p1121
I14
sS'block.thisRepN'
p1122
I0
sg29
g33
sS'block.thisN'
p1123
I14
sg984
(S'ADD'
S'DOUBLE'
S'DECREASE'
S'x'
S'y'
tp1124
sg27
g28
sg986
L3L
sg987
(I1
I2
I7
tp1125
sg22
I1
sg20
F2.4166147261857986
sg23
F4.7331510956864804
sVY
L5L
sVX
L2L
sg989
g1000
sg35
g36
sg37
g38
sg21
S'7'
sg19
S'space'
p1126
sg34
g11
sg992
L7L
sg993
g990
sg995
L7L
sS'block.thisIndex'
p1127
I4
sg997
g998
sg999
L0L
sg1001
g1111
sa(dp1128
S'block.thisTrialN'
p1129
I15
sS'block.thisRepN'
p1130
I0
sg29
g33
sS'block.thisN'
p1131
I15
sg984
(S'DECREASE'
S'ADD'
S'THIRD'
S'HALF'
S'x'
S'y'
tp1132
sg27
g28
sg986
L4L
sg987
(I3
I1
I7
I6
tp1133
sg22
I0
sg20
F4.5997807127423584
sg23
F9.6160844615660608
sVY
L6L
sVX
L6L
sg989
g1030
sg35
g36
sg37
g38
sg21
S'7'
sg19
S'space'
p1134
sg34
g11
sg992
L6L
sg993
g998
sg995
L6L
sS'block.thisIndex'
p1135
I12
sg997
g1000
sg999
g1009
sg1001
VUBUUxy
p1136
sa(dp1137
S'block.thisTrialN'
p1138
I16
sS'block.thisRepN'
p1139
I0
sg29
g33
sS'block.thisN'
p1140
I16
sg984
(S'DECREASE'
S'SUBTRACT'
S'DOUBLE'
S'THIRD'
S'x'
S'y'
tp1141
sg27
g28
sg986
L4L
sg987
(I3
I6
I4
I3
tp1142
sg22
I0
sg20
F2.5499329643789679
sg23
F8.649475877173245
sVY
L2L
sVX
L9L
sg989
g990
sg35
g36
sg37
g38
sg21
S'4'
sg19
S'space'
p1143
sg34
g11
sg992
L3L
sg993
g1067
sg995
L3L
sS'block.thisIndex'
p1144
I13
sg997
g1000
sg999
g1030
sg1001
g1136
sa(dp1145
S'block.thisTrialN'
p1146
I17
sS'block.thisRepN'
p1147
I0
sg29
g33
sS'block.thisN'
p1148
I17
sg984
(S'DOUBLE'
S'THIRD'
S'ADD'
S'x'
S'y'
tp1149
sg27
g28
sg986
L3L
sg987
(I9
I3
I6
tp1150
sg22
I1
sg20
F0.95006896019913256
sg23
F7.6829029889777303
sVY
L4L
sVX
L5L
sg989
g998
sg35
g36
sg37
g38
sg21
S'6'
sg19
S'space'
p1151
sg34
g11
sg992
L6L
sg993
g1030
sg995
L6L
sS'block.thisIndex'
p1152
I8
sg997
g990
sg999
L0L
sg1001
g1102
sa(dp1153
S'block.thisTrialN'
p1154
I0
sS'block.thisRepN'
p1155
I0
sg29
g33
sS'block.thisN'
p1156
I0
sVRule
p1157
(S'SUBTRACT'
S'TRIPLE'
S'DECREASE'
S'DOUBLE'
S'x'
S'y'
tp1158
sg27
g28
sVLength
p1159
L4L
sVIntermediate
p1160
(I4
I3
I9
I1
tp1161
sg22
I1
sg20
F17.365354525158182
sg23
F4.1165129919536412
sVY
L8L
sVX
L2L
sVOperatorc
p1162
Vdecrease
p1163
sg35
g36
sg37
g38
sg21
S'1'
sg19
S'space'
p1164
sg34
g11
sVResult
p1165
L1L
sVOperatora
p1166
Vtriple
p1167
sVCorrectResponse
p1168
L1L
sS'block.thisIndex'
p1169
I11
sVOperatorb
p1170
VSUBTRACT
p1171
sVOperatord
p1172
Vdouble
p1173
sVStructure
p1174
VBUUUxy
p1175
sa(dp1176
S'block.thisTrialN'
p1177
I1
sS'block.thisRepN'
p1178
I0
sg29
g33
sS'block.thisN'
p1179
I1
sg1157
(S'DOUBLE'
S'DECREASE'
S'ADD'
S'x'
S'y'
tp1180
sg27
g28
sg1159
L3L
sg1160
(I4
I3
I6
tp1181
sg22
I1
sg20
F0.13351876731030643
sg23
F3.9165148115716875
sVY
L2L
sVX
L2L
sg1162
VADD
p1182
sg35
g36
sg37
g38
sg21
S'6'
sg19
S'space'
p1183
sg34
g11
sg1165
L6L
sg1166
g1163
sg1168
L6L
sS'block.thisIndex'
p1184
I8
sg1170
g1173
sg1172
L0L
sg1174
VUUBxy
p1185
sa(dp1186
S'block.thisTrialN'
p1187
I2
sS'block.thisRepN'
p1188
I0
sg29
g33
sS'block.thisN'
p1189
I2
sg1157
(S'TIMES'
S'DOUBLE'
S'x'
S'y'
tp1190
sg27
g28
sg1159
L2L
sg1160
(I4
I8
tp1191
sg22
I1
sg20
F0.76676543802022934
sg23
F3.4332509401720017
sVY
L2L
sVX
L2L
sg1162
L0L
sg35
g36
sg37
g38
sg21
S'8'
sg19
S'space'
p1192
sg34
g11
sg1165
L8L
sg1166
g1173
sg1168
L8L
sS'block.thisIndex'
p1193
I1
sg1170
VTIMES
p1194
sg1172
L0L
sg1174
VBUxy
p1195
sa(dp1196
S'block.thisTrialN'
p1197
I3
sS'block.thisRepN'
p1198
I0
sg29
g33
sS'block.thisN'
p1199
I3
sg1157
(S'TIMES'
S'HALF'
S'INCREASE'
S'x'
S'y'
tp1200
sg27
g28
sg1159
L3L
sg1160
(I6
I3
I9
tp1201
sg22
I0
sg20
F6.4160208383109421
sg23
F11.499327894998714
sVY
L3L
sVX
L5L
sg1162
Vincrease
p1202
sg35
g36
sg37
g38
sg21
S'7'
sg19
S'space'
p1203
sg34
g11
sg1165
L9L
sg1166
Vhalf
p1204
sg1168
L9L
sS'block.thisIndex'
p1205
I5
sg1170
g1194
sg1172
L0L
sg1174
VBUUxy
p1206
sa(dp1207
S'block.thisTrialN'
p1208
I4
sS'block.thisRepN'
p1209
I0
sg29
g33
sS'block.thisN'
p1210
I4
sg1157
(S'THIRD'
S'DIVIDE'
S'x'
S'y'
tp1211
sg27
g28
sg1159
L2L
sg1160
(I3
I1
tp1212
sg22
I1
sg20
F0.73337892186827958
sg23
F1.4333779769949615
sVY
L2L
sVX
L6L
sg1162
L0L
sg35
g36
sg37
g38
sg21
S'1'
sg19
S'space'
p1213
sg34
g11
sg1165
L1L
sg1166
VDIVIDE
p1214
sg1168
L1L
sS'block.thisIndex'
p1215
I3
sg1170
Vthird
p1216
sg1172
L0L
sg1174
VUBxy
p1217
sa(dp1218
S'block.thisTrialN'
p1219
I5
sS'block.thisRepN'
p1220
I0
sg29
g33
sS'block.thisN'
p1221
I5
sg1157
(S'INCREASE'
S'SUBTRACT'
S'x'
S'y'
tp1222
sg27
g28
sg1159
L2L
sg1160
(I3
I4
tp1223
sg22
I1
sg20
F1.250088453060016
sg23
F1.1000776567962021
sVY
L3L
sVX
L6L
sg1162
L0L
sg35
g36
sg37
g38
sg21
S'4'
sg19
S'space'
p1224
sg34
g11
sg1165
L4L
sg1166
g1171
sg1168
L4L
sS'block.thisIndex'
p1225
I2
sg1170
g1202
sg1172
L0L
sg1174
g1217
sa(dp1226
S'block.thisTrialN'
p1227
I6
sS'block.thisRepN'
p1228
I0
sg29
g33
sS'block.thisN'
p1229
I6
sg1157
(S'THIRD'
S'DIVIDE'
S'DECREASE'
S'x'
S'y'
tp1230
sg27
g28
sg1159
L3L
sg1160
(I6
I3
I1
tp1231
sg22
I1
sg20
F1.2000457753892988
sg23
F4.8498310202267021
sVY
L2L
sVX
L7L
sg1162
g1163
sg35
g36
sg37
g38
sg21
S'1'
sg19
S'space'
p1232
sg34
g11
sg1165
L1L
sg1166
g1214
sg1168
L1L
sS'block.thisIndex'
p1233
I6
sg1170
g1216
sg1172
L0L
sg1174
VUBUxy
p1234
sa(dp1235
S'block.thisTrialN'
p1236
I7
sS'block.thisRepN'
p1237
I0
sg29
g33
sS'block.thisN'
p1238
I7
sg1157
(S'SUBTRACT'
S'DOUBLE'
S'TRIPLE'
S'DECREASE'
S'x'
S'y'
tp1239
sg27
g28
sg1159
L4L
sg1160
(I2
I6
I12
I8
tp1240
sg22
I1
sg20
F10.8826187485829
sg23
F6.1995096311438829
sVY
L4L
sVX
L3L
sg1162
g1167
sg35
g36
sg37
g38
sg21
S'8'
sg19
S'space'
p1241
sg34
g11
sg1165
L8L
sg1166
g1173
sg1168
L8L
sS'block.thisIndex'
p1242
I10
sg1170
g1171
sg1172
g1163
sg1174
g1175
sa(dp1243
S'block.thisTrialN'
p1244
I8
sS'block.thisRepN'
p1245
I0
sg29
g33
sS'block.thisN'
p1246
I8
sg1157
(S'DOUBLE'
S'DIVIDE'
S'TRIPLE'
S'INCREASE'
S'x'
S'y'
tp1247
sg27
g28
sg1159
L4L
sg1160
(I5
I15
I3
I6
tp1248
sg22
I1
sg20
F3.3165661164093763
sg23
F3.8332014554180205
sVY
L5L
sVX
L4L
sg1162
g1167
sg35
g36
sg37
g38
sg21
S'6'
sg19
S'space'
p1249
sg34
g11
sg1165
L6L
sg1166
g1214
sg1168
L6L
sS'block.thisIndex'
p1250
I12
sg1170
g1173
sg1172
g1202
sg1174
VUBUUxy
p1251
sa(dp1252
S'block.thisTrialN'
p1253
I9
sS'block.thisRepN'
p1254
I0
sg29
g33
sS'block.thisN'
p1255
I9
sg1157
(S'SUBTRACT'
S'TRIPLE'
S'DECREASE'
S'x'
S'y'
tp1256
sg27
g28
sg1159
L3L
sg1160
(I4
I12
I3
tp1257
sg22
I1
sg20
F18.631964754546061
sg23
F7.6330692390911281
sVY
L9L
sVX
L5L
sg1162
g1163
sg35
g36
sg37
g38
sg21
S'3'
sg19
S'space'
p1258
sg34
g11
sg1165
L3L
sg1166
g1167
sg1168
L3L
sS'block.thisIndex'
p1259
I4
sg1170
g1171
sg1172
L0L
sg1174
g1206
sa(dp1260
S'block.thisTrialN'
p1261
I10
sS'block.thisRepN'
p1262
I0
sg29
g33
sS'block.thisN'
p1263
I10
sg1157
(S'DECREASE'
S'TRIPLE'
S'DIVIDE'
S'DOUBLE'
S'x'
S'y'
tp1264
sg27
g28
sg1159
L4L
sg1160
(I6
I2
I6
I5
tp1265
sg22
I0
sg20
F6.5661810690071434
sg23
F5.2164513631723821
sVY
L3L
sVX
L3L
sg1162
g1214
sg35
g36
sg37
g38
sg21
S'7'
sg19
S'space'
p1266
sg34
g11
sg1165
L5L
sg1166
g1167
sg1168
L5L
sS'block.thisIndex'
p1267
I14
sg1170
g1163
sg1172
g1173
sg1174
VUUBUxy
p1268
sa(dp1269
S'block.thisTrialN'
p1270
I11
sS'block.thisRepN'
p1271
I0
sg29
g33
sS'block.thisN'
p1272
I11
sg1157
(S'HALF'
S'TRIPLE'
S'INCREASE'
S'SUBTRACT'
S'x'
S'y'
tp1273
sg27
g28
sg1159
L4L
sg1160
(I1
I2
I6
I3
tp1274
sg22
I1
sg20
F1.7333460254594684
sg23
F3.4998997354414314
sVY
L2L
sVX
L3L
sg1162
g1202
sg35
g36
sg37
g38
sg21
S'3'
sg19
S'space'
p1275
sg34
g11
sg1165
L3L
sg1166
g1167
sg1168
L3L
sS'block.thisIndex'
p1276
I17
sg1170
g1204
sg1172
g1171
sg1174
VUUUBxy
p1277
sa(dp1278
S'block.thisTrialN'
p1279
I12
sS'block.thisRepN'
p1280
I0
sg29
g33
sS'block.thisN'
p1281
I12
sg1157
(S'DECREASE'
S'TRIPLE'
S'HALF'
S'SUBTRACT'
S'x'
S'y'
tp1282
sg27
g28
sg1159
L4L
sg1160
(I4
I2
I6
I5
tp1283
sg22
I1
sg20
F2.7665999054443091
sg23
F4.3998374768998474
sVY
L2L
sVX
L6L
sg1162
g1204
sg35
g36
sg37
g38
sg21
S'5'
sg19
S'space'
p1284
sg34
g11
sg1165
L5L
sg1166
g1167
sg1168
L5L
sS'block.thisIndex'
p1285
I16
sg1170
g1163
sg1172
g1171
sg1174
g1277
sa(dp1286
S'block.thisTrialN'
p1287
I13
sS'block.thisRepN'
p1288
I0
sg29
g33
sS'block.thisN'
p1289
I13
sg1157
(S'THIRD'
S'TIMES'
S'HALF'
S'x'
S'y'
tp1290
sg27
g28
sg1159
L3L
sg1160
(I3
I18
I6
tp1291
sg22
I1
sg20
F0.95010045706294477
sg23
F4.3498560425359756
sVY
L6L
sVX
L6L
sg1162
g1204
sg35
g36
sg37
g38
sg21
S'6'
sg19
S'space'
p1292
sg34
g11
sg1165
L6L
sg1166
g1194
sg1168
L6L
sS'block.thisIndex'
p1293
I7
sg1170
g1216
sg1172
L0L
sg1174
g1234
sa(dp1294
S'block.thisTrialN'
p1295
I14
sS'block.thisRepN'
p1296
I0
sg29
g33
sS'block.thisN'
p1297
I14
sg1157
(S'THIRD'
S'DECREASE'
S'TIMES'
S'HALF'
S'x'
S'y'
tp1298
sg27
g28
sg1159
L4L
sg1160
(I4
I16
I15
I5
tp1299
sg22
I1
sg20
F2.1166361789219081
sg23
F4.7831234310287982
sVY
L4L
sVX
L8L
sg1162
g1194
sg35
g36
sg37
g38
sg21
S'5'
sg19
S'space'
p1300
sg34
g11
sg1165
L5L
sg1166
g1163
sg1168
L5L
sS'block.thisIndex'
p1301
I15
sg1170
g1216
sg1172
g1204
sg1174
g1268
sa(dp1302
S'block.thisTrialN'
p1303
I15
sS'block.thisRepN'
p1304
I0
sg29
g33
sS'block.thisN'
p1305
I15
sg1157
(S'DIVIDE'
S'THIRD'
S'x'
S'y'
tp1306
sg27
g28
sg1159
L2L
sg1160
(I3
I1
tp1307
sg22
I1
sg20
F2.3832793047185987
sg23
F1.5332113595213741
sVY
L3L
sVX
L9L
sg1162
L0L
sg35
g36
sg37
g38
sg21
S'1'
sg19
S'space'
p1308
sg34
g11
sg1165
L1L
sg1166
g1216
sg1168
L1L
sS'block.thisIndex'
p1309
I0
sg1170
g1214
sg1172
L0L
sg1174
g1195
sa(dp1310
S'block.thisTrialN'
p1311
I16
sS'block.thisRepN'
p1312
I0
sg29
g33
sS'block.thisN'
p1313
I16
sg1157
(S'DOUBLE'
S'THIRD'
S'TIMES'
S'x'
S'y'
tp1314
sg27
g28
sg1159
L3L
sg1160
(I12
I4
I8
tp1315
sg22
I1
sg20
F4.3664579601027071
sg23
F4.6998118245974183
sVY
L6L
sVX
L2L
sg1162
g1194
sg35
g36
sg37
g38
sg21
S'8'
sg19
S'space'
p1316
sg34
g11
sg1165
L8L
sg1166
g1216
sg1168
L8L
sS'block.thisIndex'
p1317
I9
sg1170
g1173
sg1172
L0L
sg1174
g1185
sa(dp1318
S'block.thisTrialN'
p1319
I17
sS'block.thisRepN'
p1320
I0
sg29
g33
sS'block.thisN'
p1321
I17
sg1157
(S'INCREASE'
S'ADD'
S'HALF'
S'TRIPLE'
S'x'
S'y'
tp1322
sg27
g28
sg1159
L4L
sg1160
(I6
I3
I6
I7
tp1323
sg22
I1
sg20
F1.833334791706875
sg23
F6.0330323532689363
sVY
L3L
sVX
L2L
sg1162
g1204
sg35
g36
sg37
g38
sg21
S'7'
sg19
S'space'
p1324
sg34
g11
sg1165
L7L
sg1166
g1182
sg1168
L7L
sS'block.thisIndex'
p1325
I13
sg1170
g1202
sg1172
g1167
sg1174
g1251
sa(dp1326
S'block.thisTrialN'
p1327
I0
sS'block.thisRepN'
p1328
I0
sg29
g33
sS'block.thisN'
p1329
I0
sVRule
p1330
(S'HALF'
S'TRIPLE'
S'INCREASE'
S'DIVIDE'
S'x'
S'y'
tp1331
sg27
g28
sVLength
p1332
L4L
sVIntermediate
p1333
(I3
I4
I12
I6
tp1334
sg22
I0
sVY
L3L
sVX
L9L
sVOperatorc
p1335
Vincrease
p1336
sg35
g36
sg37
g38
sg21
Nsg19
Nsg34
g11
sVResult
p1337
L6L
sVOperatora
p1338
Vtriple
p1339
sVCorrectResponse
p1340
L6L
sS'block.thisIndex'
p1341
I16
sVOperatorb
p1342
Vhalf
p1343
sVOperatord
p1344
VDIVIDE
p1345
sVStructure
p1346
VUUUBxy
p1347
sa(dp1348
S'block.thisTrialN'
p1349
I1
sS'block.thisRepN'
p1350
I0
sg29
g33
sS'block.thisN'
p1351
I1
sg1330
(S'DIVIDE'
S'INCREASE'
S'x'
S'y'
tp1352
sg27
g28
sg1332
L2L
sg1333
(I4
I2
tp1353
sg22
I1
sg20
F0.83339183544740081
sg23
F3.016606817021966
sVY
L2L
sVX
L3L
sg1335
L0L
sg35
g36
sg37
g38
sg21
S'2'
sg19
S'space'
p1354
sg34
g11
sg1337
L2L
sg1338
g1336
sg1340
L2L
sS'block.thisIndex'
p1355
I0
sg1342
g1345
sg1344
L0L
sg1346
VBUxy
p1356
sa(dp1357
S'block.thisTrialN'
p1358
I2
sS'block.thisRepN'
p1359
I0
sg29
g33
sS'block.thisN'
p1360
I2
sg1330
(S'DIVIDE'
S'DECREASE'
S'TRIPLE'
S'x'
S'y'
tp1361
sg27
g28
sg1332
L3L
sg1333
(I9
I8
I4
tp1362
sg22
I1
sg20
F5.1830560981761664
sg23
F2.8832973279058933
sVY
L2L
sVX
L3L
sg1335
g1339
sg35
g36
sg37
g38
sg21
S'4'
sg19
S'space'
p1363
sg34
g11
sg1337
L4L
sg1338
Vdecrease
p1364
sg1340
L4L
sS'block.thisIndex'
p1365
I5
sg1342
g1345
sg1344
L0L
sg1346
VBUUxy
p1366
sa(dp1367
S'block.thisTrialN'
p1368
I3
sS'block.thisRepN'
p1369
I0
sg29
g33
sS'block.thisN'
p1370
I3
sg1330
(S'SUBTRACT'
S'DECREASE'
S'TRIPLE'
S'DOUBLE'
S'x'
S'y'
tp1371
sg27
g28
sg1332
L4L
sg1333
(I6
I18
I17
I8
tp1372
sg22
I1
sg20
F2.8999139438383281
sg23
F11.932533690240234
sVY
L9L
sVX
L3L
sg1335
g1339
sg35
g36
sg37
g38
sg21
S'8'
sg19
S'space'
p1373
sg34
g11
sg1337
L8L
sg1338
g1364
sg1340
L8L
sS'block.thisIndex'
p1374
I11
sg1342
VSUBTRACT
p1375
sg1344
Vdouble
p1376
sg1346
VBUUUxy
p1377
sa(dp1378
S'block.thisTrialN'
p1379
I4
sS'block.thisRepN'
p1380
I0
sg29
g33
sS'block.thisN'
p1381
I4
sg1330
(S'INCREASE'
S'TRIPLE'
S'DIVIDE'
S'x'
S'y'
tp1382
sg27
g28
sg1332
L3L
sg1333
(I2
I6
I7
tp1383
sg22
I1
sg20
F2.1666284622624516
sg23
F3.9498670315369964
sVY
L3L
sVX
L6L
sg1335
g1345
sg35
g36
sg37
g38
sg21
S'7'
sg19
S'space'
p1384
sg34
g11
sg1337
L7L
sg1338
g1339
sg1340
L7L
sS'block.thisIndex'
p1385
I8
sg1342
g1336
sg1344
L0L
sg1346
VUUBxy
p1386
sa(dp1387
S'block.thisTrialN'
p1388
I5
sS'block.thisRepN'
p1389
I0
sg29
g33
sS'block.thisN'
p1390
I5
sg1330
(S'INCREASE'
S'SUBTRACT'
S'HALF'
S'x'
S'y'
tp1391
sg27
g28
sg1332
L3L
sg1333
(I4
I2
I3
tp1392
sg22
I1
sg20
F4.8997578602284193
sg23
F4.4829643026459962
sVY
L2L
sVX
L8L
sg1335
g1343
sg35
g36
sg37
g38
sg21
S'3'
sg19
S'space'
p1393
sg34
g11
sg1337
L3L
sg1338
g1375
sg1340
L3L
sS'block.thisIndex'
p1394
I7
sg1342
g1336
sg1344
L0L
sg1346
VUBUxy
p1395
sa(dp1396
S'block.thisTrialN'
p1397
I6
sS'block.thisRepN'
p1398
I0
sg29
g33
sS'block.thisN'
p1399
I6
sg1330
(S'DOUBLE'
S'ADD'
S'INCREASE'
S'THIRD'
S'x'
S'y'
tp1400
sg27
g28
sg1332
L4L
sg1333
(I1
I2
I4
I8
tp1401
sg22
I1
sg20
F12.482530348002911
sg23
F11.715752311050892
sVY
L2L
sVX
L3L
sg1335
g1336
sg35
g36
sg37
g38
sg21
S'8'
sg19
S'space'
p1402
sg34
g11
sg1337
L8L
sg1338
VADD
p1403
sg1340
L8L
sS'block.thisIndex'
p1404
I12
sg1342
g1376
sg1344
Vthird
p1405
sg1346
VUBUUxy
p1406
sa(dp1407
S'block.thisTrialN'
p1408
I7
sS'block.thisRepN'
p1409
I0
sg29
g33
sS'block.thisN'
p1410
I7
sg1330
(S'ADD'
S'DOUBLE'
S'DECREASE'
S'THIRD'
S'x'
S'y'
tp1411
sg27
g28
sg1332
L4L
sg1333
(I2
I1
I2
I8
tp1412
sg22
I1
sg20
F3.4665352671872824
sg23
F6.2330385823734105
sVY
L6L
sVX
L6L
sg1335
g1364
sg35
g36
sg37
g38
sg21
S'8'
sg19
S'space'
p1413
sg34
g11
sg1337
L8L
sg1338
g1376
sg1340
L8L
sS'block.thisIndex'
p1414
I10
sg1342
g1403
sg1344
g1405
sg1346
g1377
sa(dp1415
S'block.thisTrialN'
p1416
I8
sS'block.thisRepN'
p1417
I0
sg29
g33
sS'block.thisN'
p1418
I8
sg1330
(S'THIRD'
S'DOUBLE'
S'INCREASE'
S'TIMES'
S'x'
S'y'
tp1419
sg27
g28
sg1332
L4L
sg1333
(I8
I9
I18
I6
tp1420
sg22
I1
sg20
F4.6829145378433168
sg23
F7.0829507941380143
sVY
L4L
sVX
L2L
sg1335
g1336
sg35
g36
sg37
g38
sg21
S'6'
sg19
S'space'
p1421
sg34
g11
sg1337
L6L
sg1338
g1376
sg1340
L6L
sS'block.thisIndex'
p1422
I17
sg1342
g1405
sg1344
VTIMES
p1423
sg1346
g1347
sa(dp1424
S'block.thisTrialN'
p1425
I9
sS'block.thisRepN'
p1426
I0
sg29
g33
sS'block.thisN'
p1427
I9
sg1330
(S'DECREASE'
S'DIVIDE'
S'x'
S'y'
tp1428
sg27
g28
sg1332
L2L
sg1333
(I2
I1
tp1429
sg22
I1
sg20
F7.6495105235371739
sg23
F2.9999594041146338
sVY
L4L
sVX
L8L
sg1335
L0L
sg35
g36
sg37
g38
sg21
S'1'
sg19
S'space'
p1430
sg34
g11
sg1337
L1L
sg1338
g1345
sg1340
L1L
sS'block.thisIndex'
p1431
I2
sg1342
g1364
sg1344
L0L
sg1346
VUBxy
p1432
sa(dp1433
S'block.thisTrialN'
p1434
I10
sS'block.thisRepN'
p1435
I0
sg29
g33
sS'block.thisN'
p1436
I10
sg1330
(S'THIRD'
S'DOUBLE'
S'ADD'
S'DECREASE'
S'x'
S'y'
tp1437
sg27
g28
sg1332
L4L
sg1333
(I5
I12
I24
I8
tp1438
sg22
I1
sg20
F6.1163093131035566
sg23
F8.1493644136935472
sVY
L7L
sVX
L6L
sg1335
g1403
sg35
g36
sg37
g38
sg21
S'8'
sg19
S'space'
p1439
sg34
g11
sg1337
L8L
sg1338
g1376
sg1340
L8L
sS'block.thisIndex'
p1440
I14
sg1342
g1405
sg1344
g1364
sg1346
VUUBUxy
p1441
sa(dp1442
S'block.thisTrialN'
p1443
I11
sS'block.thisRepN'
p1444
I0
sg29
g33
sS'block.thisN'
p1445
I11
sg1330
(S'THIRD'
S'TIMES'
S'DOUBLE'
S'DECREASE'
S'x'
S'y'
tp1446
sg27
g28
sg1332
L4L
sg1333
(I1
I2
I6
I2
tp1447
sg22
I1
sg20
F4.4998139943927526
sg23
F6.2996775784995407
sVY
L3L
sVX
L2L
sg1335
g1376
sg35
g36
sg37
g38
sg21
S'2'
sg19
S'space'
p1448
sg34
g11
sg1337
L2L
sg1338
g1423
sg1340
L2L
sS'block.thisIndex'
p1449
I13
sg1342
g1405
sg1344
g1364
sg1346
g1406
sa(dp1450
S'block.thisTrialN'
p1451
I12
sS'block.thisRepN'
p1452
I0
sg29
g33
sS'block.thisN'
p1453
I12
sg1330
(S'ADD'
S'HALF'
S'THIRD'
S'x'
S'y'
tp1454
sg27
g28
sg1332
L3L
sg1333
(I2
I1
I9
tp1455
sg22
I1
sg20
F1.6500176207628101
sg23
F4.7498132069595158
sVY
L8L
sVX
L6L
sg1335
g1405
sg35
g36
sg37
g38
sg21
S'9'
sg19
S'space'
p1456
sg34
g11
sg1337
L9L
sg1338
g1343
sg1340
L9L
sS'block.thisIndex'
p1457
I4
sg1342
g1403
sg1344
L0L
sg1346
g1366
sa(dp1458
S'block.thisTrialN'
p1459
I13
sS'block.thisRepN'
p1460
I0
sg29
g33
sS'block.thisN'
p1461
I13
sg1330
(S'THIRD'
S'HALF'
S'ADD'
S'x'
S'y'
tp1462
sg27
g28
sg1332
L3L
sg1333
(I6
I3
I1
tp1463
sg22
I1
sg20
F2.4499592466745526
sg23
F3.533229207387194
sVY
L3L
sVX
L3L
sg1335
g1403
sg35
g36
sg37
g38
sg21
S'1'
sg19
S'space'
p1464
sg34
g11
sg1337
L1L
sg1338
g1343
sg1340
L1L
sS'block.thisIndex'
p1465
I9
sg1342
g1405
sg1344
L0L
sg1346
g1386
sa(dp1466
S'block.thisTrialN'
p1467
I14
sS'block.thisRepN'
p1468
I0
sg29
g33
sS'block.thisN'
p1469
I14
sg1330
(S'SUBTRACT'
S'DECREASE'
S'x'
S'y'
tp1470
sg27
g28
sg1332
L2L
sg1333
(I5
I3
tp1471
sg22
I0
sg20
F1.0167915977071971
sg23
F18.465318094007671
sVY
L2L
sVX
L6L
sg1335
L0L
sg35
g36
sg37
g38
sg21
S'1'
sg19
S'space'
p1472
sg34
g11
sg1337
L3L
sg1338
g1364
sg1340
L3L
sS'block.thisIndex'
p1473
I1
sg1342
g1375
sg1344
L0L
sg1346
g1356
sa(dp1474
S'block.thisTrialN'
p1475
I15
sS'block.thisRepN'
p1476
I0
sg29
g33
sS'block.thisN'
p1477
I15
sg1330
(S'HALF'
S'ADD'
S'TRIPLE'
S'x'
S'y'
tp1478
sg27
g28
sg1332
L3L
sg1333
(I9
I12
I6
tp1479
sg22
I1
sg20
F1.5166976326145232
sg23
F5.1663747387938201
sVY
L3L
sVX
L3L
sg1335
g1339
sg35
g36
sg37
g38
sg21
S'6'
sg19
S'space'
p1480
sg34
g11
sg1337
L6L
sg1338
g1403
sg1340
L6L
sS'block.thisIndex'
p1481
I6
sg1342
g1343
sg1344
L0L
sg1346
g1395
sa(dp1482
S'block.thisTrialN'
p1483
I16
sS'block.thisRepN'
p1484
I0
sg29
g33
sS'block.thisN'
p1485
I16
sg1330
(S'THIRD'
S'INCREASE'
S'DIVIDE'
S'DOUBLE'
S'x'
S'y'
tp1486
sg27
g28
sg1332
L4L
sg1333
(I18
I2
I3
I1
tp1487
sg22
I0
sg20
F3.1996212697122246
sg23
F9.1661024671047926
sVY
L9L
sVX
L9L
sg1335
g1345
sg35
g36
sg37
g38
sg21
S'2'
sg19
S'space'
p1488
sg34
g11
sg1337
L1L
sg1338
g1336
sg1340
L1L
sS'block.thisIndex'
p1489
I15
sg1342
g1405
sg1344
g1376
sg1346
g1441
sa(dp1490
S'block.thisTrialN'
p1491
I17
sS'block.thisRepN'
p1492
I0
sg29
g33
sS'block.thisN'
p1493
I17
sg1330
(S'INCREASE'
S'ADD'
S'x'
S'y'
tp1494
sg27
g28
sg1332
L2L
sg1333
(I5
I6
tp1495
sg22
I1
sg20
F0.83342998148873448
sg23
F2.9332938108127564
sVY
L2L
sVX
L3L
sg1335
L0L
sg35
g36
sg37
g38
sg21
S'6'
sg19
S'space'
p1496
sg34
g11
sg1337
L6L
sg1338
g1403
sg1340
L6L
sS'block.thisIndex'
p1497
I3
sg1342
g1336
sg1344
L0L
sg1346
g1432
sasS'loops'
p1498
(lp1499
g1
(cpsychopy.data
TrialHandler
p1500
g3
NtRp1501
(dp1502
S'origin'
p1503
NsS'thisTrial'
p1504
(lp1505
sS'_exp'
p1506
I350024688
sg10
S'practice_trials'
p1507
sg6
S'C:\\Users\\experimenter\\Desktop\\Experiments\\KRITL\\2. kritl_experimenter.py'
p1508
sS'thisRepN'
p1509
I1
sg24
I01
sg25
g26
sS'data'
p1510
g1
(cpsychopy.data
DataHandler
p1511
c__builtin__
dict
p1512
(dp1513
g15
cnumpy.core.multiarray
_reconstruct
p1514
(cnumpy
ndarray
p1515
(I0
tS'b'
tRp1516
(I1
(I6
I1
tg31
(S'O4'
I0
I1
tRp1517
(I3
S'|'
NNNI-1
I-1
I63
tbI00
(lp1518
(lp1519
F3.1665091246832162
aa(lp1520
F2.1832916233688593
aa(lp1521
F2.1331100098323077
aa(lp1522
F4.8163846600800753
aa(lp1523
F8.0828024095389992
aa(lp1524
F6.5829103733412921
aatbsg16
g1514
(g1515
(I0
tS'b'
tRp1525
(I1
(I6
I1
tg1517
I00
(lp1526
S'7'
aS'8'
aS'7'
aS'1'
aS'3'
aS'1'
atbsS'ran'
p1527
cnumpy.ma.core
_mareconstruct
p1528
(cnumpy.ma.core
MaskedArray
p1529
g1515
(I0
tp1530
S'b'
tRp1531
(I1
(I6
I1
tg31
(S'f4'
I0
I1
tRp1532
(I3
S'<'
NNNI-1
I-1
I0
tbI00
S'\x00\x00\x80?\x00\x00\x80?\x00\x00\x80?\x00\x00\x80?\x00\x00\x80?\x00\x00\x80?'
S'\x00\x00\x00\x00\x00\x00'
Ntbsg18
g1528
(g1529
g1515
g1530
S'b'
tRp1533
(I1
(I6
I1
tg1532
I00
S'3E\xe4?\x15\xca\xbc@|V\xd5?\xe8\x1f\nA]b\xf6@*\xb9\x1bA'
S'\x00\x00\x00\x00\x00\x00'
Ntbsg14
g1514
(g1515
(I0
tS'b'
tRp1534
(I1
(I6
I1
tg1517
I00
(lp1535
(lp1536
g92
aa(lp1537
g73
aa(lp1538
g111
aa(lp1539
g84
aa(lp1540
g103
aa(lp1541
g120
aatbsS'order'
p1542
g1528
(g1529
g1515
g1530
S'b'
tRp1543
(I1
(I6
I1
tg1532
I00
S'\x00\x00\x00@\x00\x00\x00\x00\x00\x00\x80@\x00\x00\x80?\x00\x00@@\x00\x00\xa0@'
S'\x00\x00\x00\x00\x00\x00'
Ntbsg17
g1528
(g1529
g1515
g1530
S'b'
tRp1544
(I1
(I6
I1
tg1532
I00
S'\x00\x00\x80?\x00\x00\x80?\x00\x00\x80?\x00\x00\x00\x00\x00\x00\x80?\x00\x00\x00\x00'
S'\x00\x00\x00\x00\x00\x00'
NtbstRp1545
(dp1546
S'isNumeric'
p1547
(dp1548
g16
I00
sg1527
I01
sg18
I01
sg14
I00
sg17
I01
sg1542
I01
sg15
I00
ssS'trials'
p1549
g1501
sS'dataTypes'
p1550
(lp1551
g1527
ag1542
ag14
ag15
ag16
ag17
ag18
asS'dataShape'
p1552
(lp1553
I6
aI1
asbsS'method'
p1554
S'fullRandom'
p1555
sS'sequenceIndices'
p1556
g1514
(g1515
(I0
tS'b'
tRp1557
(I1
(I6
I1
tg1517
I00
(lp1558
I1
aI3
aI0
aI4
aI2
aI5
atbsS'finished'
p1559
I01
sS'nReps'
p1560
I1
sS'nRemaining'
p1561
I-1
sS'trialList'
p1562
(lp1563
g1
(cpsychopy.data
TrialType
p1564
g1512
(dp1565
g47
L0L
sg48
g78
sg49
g68
sg50
L7L
sg53
L2L
sg52
L0L
sg51
L5L
sg54
L3L
stRp1566
ag1
(g1564
g1512
(dp1567
g47
L0L
sg48
g68
sg49
g69
sg50
L8L
sg53
L2L
sg52
L0L
sg51
L3L
sg54
L3L
stRp1568
ag1
(g1564
g1512
(dp1569
g47
L0L
sg48
g78
sg49
g80
sg50
L7L
sg53
L2L
sg52
L0L
sg51
L5L
sg54
L4L
stRp1570
ag1
(g1564
g1512
(dp1571
g47
g78
sg48
g79
sg49
g80
sg50
L8L
sg53
L3L
sg52
L0L
sg51
L2L
sg54
L4L
stRp1572
ag1
(g1564
g1512
(dp1573
g47
g97
sg48
g98
sg49
g99
sg50
L3L
sg53
L3L
sg52
L0L
sg51
L3L
sg54
L2L
stRp1574
ag1
(g1564
g1512
(dp1575
g47
g97
sg48
g98
sg49
g116
sg50
L9L
sg53
L4L
sg52
g99
sg51
L8L
sg54
L8L
stRp1576
asS'seed'
p1577
NsS'thisIndex'
p1578
I5
sS'thisN'
p1579
I6
sS'thisTrialN'
p1580
I0
sS'nTotal'
p1581
I6
sbag1
(g1500
g3
NtRp1582
(dp1583
g1503
Nsg1504
(lp1584
sg1506
I350024688
sg10
S'block'
p1585
sg6
g1508
sg1509
I1
sg24
I01
sg25
g26
sg1510
g1
(g1511
g1512
(dp1586
g22
g1528
(g1529
g1515
g1530
S'b'
tRp1587
(I1
(I18
I1
tg1532
I00
S'\x00\x00\x80?\x00\x00\x00\x00\x00\x00\x80?\x00\x00\x80?\x00\x00\x80?\x00\x00\x80?\x00\x00\x80?\x00\x00\x80?\x00\x00\x80?\x00\x00\x80?\x00\x00\x80?\x00\x00\x80?\x00\x00\x80?\x00\x00\x80?\x00\x00\x80?\x00\x00\x80?\x00\x00\x80?\x00\x00\x00\x00'
S'\x00\x00\x00\x00\x00\x00\x00\x00\x00\x00\x00\x00\x00\x00\x00\x00\x00\x00'
Ntbsg19
g1514
(g1515
(I0
tS'b'
tRp1588
(I1
(I18
I1
tg1517
I00
(lp1589
g268
ag277
ag151
ag142
ag243
ag217
ag161
ag131
ag285
ag181
ag208
ag235
ag251
ag226
ag172
ag190
ag259
ag198
atbsg23
g1528
(g1529
g1515
g1530
S'b'
tRp1590
(I1
(I18
I1
tg1532
I00
S',\x10A@K\xba[@}2C@\x8d\xd0\xec?Tc6A\x9823@6\xcb\x94@ Bt@{\x98\x81@\x05\x020@$\x85DA\xd3\xfc7A\x99\xdb\xbd@\xe9Q\xed@\xfb\xa7\xca@J\x0e\xc9@#\x85\xe8@+\x96AA'
S'\x00\x00\x00\x00\x00\x00\x00\x00\x00\x00\x00\x00\x00\x00\x00\x00\x00\x00'
Ntbsg1527
g1528
(g1529
g1515
g1530
S'b'
tRp1591
(I1
(I18
I1
tg1532
I00
S'\x00\x00\x80?\x00\x00\x80?\x00\x00\x80?\x00\x00\x80?\x00\x00\x80?\x00\x00\x80?\x00\x00\x80?\x00\x00\x80?\x00\x00\x80?\x00\x00\x80?\x00\x00\x80?\x00\x00\x80?\x00\x00\x80?\x00\x00\x80?\x00\x00\x80?\x00\x00\x80?\x00\x00\x80?\x00\x00\x80?'
S'\x00\x00\x00\x00\x00\x00\x00\x00\x00\x00\x00\x00\x00\x00\x00\x00\x00\x00'
Ntbsg21
g1514
(g1515
(I0
tS'b'
tRp1592
(I1
(I18
I1
tg1517
I00
(lp1593
S'7'
aS'8'
aS'2'
aS'5'
aS'9'
aS'3'
aS'8'
aS'3'
aS'9'
aS'6'
aS'5'
aS'9'
aS'5'
aS'7'
aS'6'
aS'9'
aS'5'
aS'1'
atbsg1542
g1528
(g1529
g1515
g1530
S'b'
tRp1594
(I1
(I18
I1
tg1532
I00
S'\x00\x00pA\x00\x00\x80A\x00\x00\x00@\x00\x00\x80?\x00\x00@A\x00\x00\x10A\x00\x00@@\x00\x00\x00\x00\x00\x00\x88A\x00\x00\xa0@\x00\x00\x00A\x00\x000A\x00\x00PA\x00\x00 A\x00\x00\x80@\x00\x00\xc0@\x00\x00`A\x00\x00\xe0@'
S'\x00\x00\x00\x00\x00\x00\x00\x00\x00\x00\x00\x00\x00\x00\x00\x00\x00\x00'
Ntbsg20
g1528
(g1529
g1515
g1530
S'b'
tRp1595
(I1
(I18
I1
tg1532
I00
S'\xdf\xdbM@l\x0f1@D#\xa2?\x9aD\xe4?\xad\x1fb@\xbc\x85\xc0@\xb1dF@U\xa7\xd2@\xe7\xb9\x93@\xe9\xbb;@\x17S\x05A8\x1f\xda@(\xa8j@gB\x8c@%u\xa7@\xa1A\x84@\xaa\x86\x90@@\x84\xc0@'
S'\x00\x00\x00\x00\x00\x00\x00\x00\x00\x00\x00\x00\x00\x00\x00\x00\x00\x00'
NtbstRp1596
(dp1597
g1547
(dp1598
g1527
I01
sg21
I00
sg20
I01
sg22
I01
sg19
I00
sg23
I01
sg1542
I01
ssg1549
g1582
sg1550
(lp1599
g1527
ag1542
ag19
ag20
ag21
ag22
ag23
asg1552
(lp1600
I18
aI1
asbsg1554
g1555
sg1556
g1514
(g1515
(I0
tS'b'
tRp1601
(I1
(I18
I1
tg1517
I00
(lp1602
I7
aI3
aI2
aI6
aI14
aI9
aI15
aI17
aI10
aI5
aI13
aI11
aI4
aI12
aI16
aI0
aI1
aI8
atbsg1559
I01
sg1560
I1
sg1561
I-1
sg1562
(lp1603
g1
(g1564
g1512
(dp1604
g55
g266
sVY
L5L
sg57
L2L
sg58
g267
sg59
L7L
sg60
L7L
sg56
g164
sVX
L4L
sg61
L0L
sg62
g261
sg63
L0L
sg64
g270
stRp1605
ag1
(g1564
g1512
(dp1606
g55
g275
sVY
L3L
sg57
L2L
sg58
g276
sg59
L9L
sg60
L9L
sg56
g130
sVX
L4L
sg61
L0L
sg62
g171
sg63
L0L
sg64
g270
stRp1607
ag1
(g1564
g1512
(dp1608
g55
g149
sVY
L8L
sg57
L2L
sg58
g150
sg59
L2L
sg60
L2L
sg56
g132
sVX
L8L
sg61
L0L
sg62
g153
sg63
L0L
sg64
g144
stRp1609
ag1
(g1564
g1512
(dp1610
g55
g140
sVY
L2L
sg57
L2L
sg58
g141
sg59
L5L
sg60
L5L
sg56
g132
sVX
L8L
sg61
L0L
sg62
g134
sg63
L0L
sg64
g144
stRp1611
ag1
(g1564
g1512
(dp1612
g55
g241
sVY
L2L
sg57
L3L
sg58
g242
sg59
L9L
sg60
L9L
sg56
g130
sVX
L7L
sg61
g160
sg62
g132
sg63
L0L
sg64
g219
stRp1613
ag1
(g1564
g1512
(dp1614
g55
g215
sVY
L2L
sg57
L3L
sg58
g216
sg59
L3L
sg60
L3L
sg56
g134
sVX
L8L
sg61
g164
sg62
g171
sg63
L0L
sg64
g219
stRp1615
ag1
(g1564
g1512
(dp1616
g55
g158
sVY
L2L
sg57
L3L
sg58
g159
sg59
L8L
sg60
L8L
sg56
g162
sVX
L9L
sg61
g160
sg62
g164
sg63
L0L
sg64
g135
stRp1617
ag1
(g1564
g1512
(dp1618
g55
g128
sVY
L3L
sg57
L3L
sg58
g129
sg59
L3L
sg60
L3L
sg56
g132
sVX
L2L
sg61
g130
sg62
g134
sg63
L0L
sg64
g135
stRp1619
ag1
(g1564
g1512
(dp1620
g55
g283
sVY
L3L
sg57
L3L
sg58
g284
sg59
L9L
sg60
L9L
sg56
g164
sVX
L3L
sg61
g261
sg62
g130
sg63
L0L
sg64
g183
stRp1621
ag1
(g1564
g1512
(dp1622
g55
g179
sVY
L2L
sg57
L3L
sg58
g180
sg59
L6L
sg60
L6L
sg56
g134
sVX
L3L
sg61
g171
sg62
g130
sg63
L0L
sg64
g183
stRp1623
ag1
(g1564
g1512
(dp1624
g55
g206
sVY
L4L
sg57
L4L
sg58
g207
sg59
L5L
sg60
L5L
sg56
g153
sVX
L3L
sg61
g134
sg62
g132
sg63
g130
sg64
g210
stRp1625
ag1
(g1564
g1512
(dp1626
g55
g233
sVY
L9L
sg57
L4L
sg58
g234
sg59
L9L
sg60
L9L
sg56
g164
sVX
L3L
sg61
g134
sg62
g162
sg63
g200
sg64
g210
stRp1627
ag1
(g1564
g1512
(dp1628
g55
g249
sVY
L4L
sg57
L4L
sg58
g250
sg59
L5L
sg60
L5L
sg56
g171
sVX
L5L
sg61
g160
sg62
g164
sg63
g130
sg64
g228
stRp1629
ag1
(g1564
g1512
(dp1630
g55
g224
sVY
L2L
sg57
L4L
sg58
g225
sg59
L7L
sg60
L7L
sg56
g162
sVX
L2L
sg61
g130
sg62
g134
sg63
g164
sg64
g228
stRp1631
ag1
(g1564
g1512
(dp1632
g55
g169
sVY
L4L
sg57
L4L
sg58
g170
sg59
L6L
sg60
L6L
sg56
g153
sVX
L4L
sg61
g171
sg62
g130
sg63
g134
sg64
g174
stRp1633
ag1
(g1564
g1512
(dp1634
g55
g188
sVY
L8L
sg57
L4L
sg58
g189
sg59
L9L
sg60
L9L
sg56
g134
sVX
L8L
sg61
g132
sg62
g130
sg63
g153
sg64
g174
stRp1635
ag1
(g1564
g1512
(dp1636
g55
g257
sVY
L4L
sg57
L4L
sg58
g258
sg59
L5L
sg60
L5L
sg56
g200
sVX
L5L
sg61
g153
sg62
g160
sg63
g261
sg64
g201
stRp1637
ag1
(g1564
g1512
(dp1638
g55
g196
sVY
L4L
sg57
L4L
sg58
g197
sg59
L5L
sg60
L5L
sg56
g134
sVX
L7L
sg61
g164
sg62
g200
sg63
g162
sg64
g201
stRp1639
asg1577
Nsg1578
I8
sg1579
I18
sg1580
I0
sg1581
I18
sbag1
(g1500
g3
NtRp1640
(dp1641
g1503
Nsg1504
(lp1642
sg1506
I350024688
sg10
g1585
sg6
g1508
sg1509
I1
sg24
I01
sg25
g26
sg1510
g1
(g1511
g1512
(dp1643
g22
g1528
(g1529
g1515
g1530
S'b'
tRp1644
(I1
(I18
I1
tg1532
I00
S'\x00\x00\x80?\x00\x00\x80?\x00\x00\x80?\x00\x00\x80?\x00\x00\x80?\x00\x00\x80?\x00\x00\x80?\x00\x00\x80?\x00\x00\x80?\x00\x00\x80?\x00\x00\x00\x00\x00\x00\x80?\x00\x00\x80?\x00\x00\x00\x00\x00\x00\x00\x00\x00\x00\x00\x00\x00\x00\x80?\x00\x00\x80?'
S'\x00\x00\x00\x00\x00\x00\x00\x00\x00\x00\x00\x00\x00\x00\x00\x00\x00\x00'
Ntbsg19
g1514
(g1515
(I0
tS'b'
tRp1645
(I1
(I18
I1
tg1517
I00
(lp1646
g367
ag402
ag315
ag418
ag451
ag336
ag298
ag443
ag394
ag376
ag346
ag427
ag357
ag435
ag459
ag326
ag410
ag385
atbsg23
g1528
(g1529
g1515
g1530
S'b'
tRp1647
(I1
(I18
I1
tg1532
I00
S'Q6\xb3?\xd4\x97\xa1@\xea\xb7\x1b@h\x858AS\xbb[@\x96\x96\rA\x04\xbak@N1s@y\x87\x80@SA\xd4@Z\x86\xb8@R\x86\xd8@YQ\xbd@\x9c\xca\xb4@\x89\x96\xe1@\x19S\rA\x88 \x9a@\xf1\x97\x99@'
S'\x00\x00\x00\x00\x00\x00\x00\x00\x00\x00\x00\x00\x00\x00\x00\x00\x00\x00'
Ntbsg1527
g1528
(g1529
g1515
g1530
S'b'
tRp1648
(I1
(I18
I1
tg1532
I00
S'\x00\x00\x80?\x00\x00\x80?\x00\x00\x80?\x00\x00\x80?\x00\x00\x80?\x00\x00\x80?\x00\x00\x80?\x00\x00\x80?\x00\x00\x80?\x00\x00\x80?\x00\x00\x80?\x00\x00\x80?\x00\x00\x80?\x00\x00\x80?\x00\x00\x80?\x00\x00\x80?\x00\x00\x80?\x00\x00\x80?'
S'\x00\x00\x00\x00\x00\x00\x00\x00\x00\x00\x00\x00\x00\x00\x00\x00\x00\x00'
Ntbsg21
g1514
(g1515
(I0
tS'b'
tRp1649
(I1
(I18
I1
tg1517
I00
(lp1650
S'8'
aS'2'
aS'2'
aS'8'
aS'1'
aS'2'
aS'1'
aS'2'
aS'8'
aS'6'
aS'1'
aS'1'
aS'9'
aS'9'
aS'5'
aS'2'
aS'5'
aS'4'
atbsg1542
g1528
(g1529
g1515
g1530
S'b'
tRp1651
(I1
(I18
I1
tg1532
I00
S'\x00\x00\xc0@\x00\x00 A\x00\x00\x80?\x00\x00@A\x00\x00\x80A\x00\x00@@\x00\x00\x00\x00\x00\x00pA\x00\x00\x10A\x00\x00\xe0@\x00\x00\x80@\x00\x00PA\x00\x00\xa0@\x00\x00`A\x00\x00\x88A\x00\x00\x00@\x00\x000A\x00\x00\x00A'
S'\x00\x00\x00\x00\x00\x00\x00\x00\x00\x00\x00\x00\x00\x00\x00\x00\x00\x00'
Ntbsg20
g1528
(g1529
g1515
g1530
S'b'
tRp1652
(I1
(I18
I1
tg1532
I00
S'\x07\x9b\xb9?\xdd\x1b\xcd=n2\xcd=\xf6\xde\xbd?\x12T%@g\x0e\xb9@\xf8\x96\x15A\xa7\x10\x01@N\xdd\r@\\\x96\xd1@\x89\xd7\xfd?\xb4u\x8f@Y \x8a@\xe12\x03@\x82\xea.@=S\x9d@\x9e1S@\xe7\x1e\xd2@'
S'\x00\x00\x00\x00\x00\x00\x00\x00\x00\x00\x00\x00\x00\x00\x00\x00\x00\x00'
NtbstRp1653
(dp1654
g1547
(dp1655
g1527
I01
sg21
I00
sg20
I01
sg22
I01
sg19
I00
sg23
I01
sg1542
I01
ssg1549
g1640
sg1550
(lp1656
g1527
ag1542
ag19
ag20
ag21
ag22
ag23
asg1552
(lp1657
I18
aI1
asbsg1554
g1555
sg1556
g1514
(g1515
(I0
tS'b'
tRp1658
(I1
(I18
I1
tg1517
I00
(lp1659
I6
aI2
aI15
aI5
aI10
aI12
aI0
aI9
aI17
aI8
aI1
aI16
aI3
aI11
aI13
aI7
aI4
aI14
atbsg1559
I01
sg1560
I1
sg1561
I-1
sg1562
(lp1660
g1
(g1564
g1512
(dp1661
g291
g365
sVY
L4L
sg293
L2L
sg294
g366
sg302
L8L
sg299
L8L
sg300
g317
sVX
L2L
sg296
L0L
sg304
g349
sg306
L0L
sg307
g369
stRp1662
ag1
(g1564
g1512
(dp1663
g291
g400
sVY
L6L
sg293
L2L
sg294
g401
sg302
L2L
sg299
L2L
sg300
g317
sVX
L6L
sg296
L0L
sg304
g325
sg306
L0L
sg307
g369
stRp1664
ag1
(g1564
g1512
(dp1665
g291
g313
sVY
L7L
sg293
L2L
sg294
g314
sg302
L2L
sg299
L2L
sg300
g301
sVX
L8L
sg296
L0L
sg304
g317
sg306
L0L
sg307
g318
stRp1666
ag1
(g1564
g1512
(dp1667
g291
g416
sVY
L4L
sg293
L2L
sg294
g417
sg302
L8L
sg299
L8L
sg300
g419
sVX
L4L
sg296
L0L
sg304
g305
sg306
L0L
sg307
g318
stRp1668
ag1
(g1564
g1512
(dp1669
g291
g449
sVY
L4L
sg293
L3L
sg294
g450
sg302
L1L
sg299
L1L
sg300
g317
sVX
L6L
sg296
g347
sg304
g325
sg306
L0L
sg307
g338
stRp1670
ag1
(g1564
g1512
(dp1671
g291
g334
sVY
L4L
sg293
L3L
sg294
g335
sg302
L2L
sg299
L2L
sg300
g305
sVX
L4L
sg296
g297
sg304
g301
sg306
L0L
sg307
g338
stRp1672
ag1
(g1564
g1512
(dp1673
g291
g292
sVY
L7L
sg293
L3L
sg294
g295
sg302
L1L
sg299
L1L
sg300
g301
sVX
L3L
sg296
g297
sg304
g305
sg306
L0L
sg307
g308
stRp1674
ag1
(g1564
g1512
(dp1675
g291
g441
sVY
L3L
sg293
L3L
sg294
g442
sg302
L2L
sg299
L2L
sg300
g325
sVX
L9L
sg296
g347
sg304
g345
sg306
L0L
sg307
g308
stRp1676
ag1
(g1564
g1512
(dp1677
g291
g392
sVY
L2L
sg293
L3L
sg294
g393
sg302
L8L
sg299
L8L
sg300
g328
sVX
L7L
sg296
g301
sg304
g317
sg306
L0L
sg307
g378
stRp1678
ag1
(g1564
g1512
(dp1679
g291
g374
sVY
L3L
sg293
L3L
sg294
g375
sg302
L6L
sg299
L6L
sg300
g297
sVX
L4L
sg296
g301
sg304
g317
sg306
L0L
sg307
g378
stRp1680
ag1
(g1564
g1512
(dp1681
g291
g343
sVY
L6L
sg293
L4L
sg294
g344
sg302
L7L
sg299
L7L
sg300
g347
sVX
L4L
sg296
g345
sg304
g349
sg306
g305
sg307
g350
stRp1682
ag1
(g1564
g1512
(dp1683
g291
g425
sVY
L5L
sg293
L4L
sg294
g426
sg302
L1L
sg299
L1L
sg300
g345
sVX
L6L
sg296
g317
sg304
g325
sg306
g347
sg307
g350
stRp1684
ag1
(g1564
g1512
(dp1685
g291
g355
sVY
L4L
sg293
L4L
sg294
g356
sg302
L9L
sg299
L9L
sg300
g349
sVX
L9L
sg296
g317
sg304
g359
sg306
g347
sg307
g360
stRp1686
ag1
(g1564
g1512
(dp1687
g291
g433
sVY
L4L
sg293
L4L
sg294
g434
sg302
L7L
sg299
L7L
sg300
g419
sVX
L3L
sg296
g317
sg304
g328
sg306
g347
sg307
g360
stRp1688
ag1
(g1564
g1512
(dp1689
g291
g457
sVY
L6L
sg293
L4L
sg294
g458
sg302
L3L
sg299
L3L
sg300
g347
sVX
L4L
sg296
g419
sg304
g328
sg306
g305
sg307
g329
stRp1690
ag1
(g1564
g1512
(dp1691
g291
g323
sVY
L8L
sg293
L4L
sg294
g324
sg302
L6L
sg299
L6L
sg300
g297
sVX
L9L
sg296
g325
sg304
g317
sg306
g328
sg307
g329
stRp1692
ag1
(g1564
g1512
(dp1693
g291
g408
sVY
L2L
sg293
L4L
sg294
g409
sg302
L5L
sg299
L5L
sg300
g305
sVX
L8L
sg296
g297
sg304
g328
sg306
g325
sg307
g387
stRp1694
ag1
(g1564
g1512
(dp1695
g291
g383
sVY
L4L
sg293
L4L
sg294
g384
sg302
L4L
sg299
L4L
sg300
g328
sVX
L4L
sg296
g297
sg304
g317
sg306
g325
sg307
g387
stRp1696
asg1577
Nsg1578
I14
sg1579
I18
sg1580
I0
sg1581
I18
sbag1
(g1500
g3
NtRp1697
(dp1698
g1503
Nsg1504
(lp1699
sg1506
I350024688
sg10
g1585
sg6
g1508
sg1509
I1
sg24
I01
sg25
g26
sg1510
g1
(g1511
g1512
(dp1700
g22
g1528
(g1529
g1515
g1530
S'b'
tRp1701
(I1
(I18
I1
tg1532
I00
S'\x00\x00\x80?\x00\x00\x80?\x00\x00\x80?\x00\x00\x80?\x00\x00\x80?\x00\x00\x00\x00\x00\x00\x80?\x00\x00\x80?\x00\x00\x80?\x00\x00\x80?\x00\x00\x80?\x00\x00\x00\x00\x00\x00\x80?\x00\x00\x80?\x00\x00\x80?\x00\x00\x80?\x00\x00\x00\x00\x00\x00\x00\x00'
S'\x00\x00\x00\x00\x00\x00\x00\x00\x00\x00\x00\x00\x00\x00\x00\x00\x00\x00'
Ntbsg19
g1514
(g1515
(I0
tS'b'
tRp1702
(I1
(I18
I1
tg1517
I00
(lp1703
g598
ag557
ag615
ag606
ag632
ag623
ag582
ag522
ag501
ag590
ag531
ag512
ag549
ag472
ag491
ag574
ag566
ag539
atbsg23
g1528
(g1529
g1515
g1530
S'b'
tRp1704
(I1
(I18
I1
tg1532
I00
S'\x07\x13\xf1?\x86y\xd7?(\xdf\r@p\xef\x0e@vTE@C\xdb\xc5@\xf0\xa8j@\x1c\xeb\xfe@1!B@\xab\x87H@#t\xe7@s\x854A\xfc\xc8\xfc@D\xda\xc5@\x13\x98\x99@\xc2\xfd\xaf@\xed!B@\x00\x00\x00\x00'
S'\x00\x00\x00\x00\x00\x00\x00\x00\x00\x00\x00\x00\x00\x00\x00\x00\x00\x01'
Ntbsg1527
g1528
(g1529
g1515
g1530
S'b'
tRp1705
(I1
(I18
I1
tg1532
I00
S'\x00\x00\x80?\x00\x00\x80?\x00\x00\x80?\x00\x00\x80?\x00\x00\x80?\x00\x00\x80?\x00\x00\x80?\x00\x00\x80?\x00\x00\x80?\x00\x00\x80?\x00\x00\x80?\x00\x00\x80?\x00\x00\x80?\x00\x00\x80?\x00\x00\x80?\x00\x00\x80?\x00\x00\x80?\x00\x00\x80?'
S'\x00\x00\x00\x00\x00\x00\x00\x00\x00\x00\x00\x00\x00\x00\x00\x00\x00\x00'
Ntbsg21
g1514
(g1515
(I0
tS'b'
tRp1706
(I1
(I18
I1
tg1517
I00
(lp1707
S'1'
aS'4'
aS'9'
aS'6'
aS'6'
aS'9'
aS'8'
aS'2'
aS'1'
aS'9'
aS'1'
aS'5'
aS'1'
aS'3'
aS'7'
aS'1'
aS'6'
aNatbsg1542
g1528
(g1529
g1515
g1530
S'b'
tRp1708
(I1
(I18
I1
tg1532
I00
S'\x00\x00PA\x00\x00\x00A\x00\x00pA\x00\x00`A\x00\x00\x88A\x00\x00\x80A\x00\x000A\x00\x00\x80@\x00\x00\x00@\x00\x00@A\x00\x00\xa0@\x00\x00@@\x00\x00\xe0@\x00\x00\x00\x00\x00\x00\x80?\x00\x00 A\x00\x00\x10A\x00\x00\xc0@'
S'\x00\x00\x00\x00\x00\x00\x00\x00\x00\x00\x00\x00\x00\x00\x00\x00\x00\x00'
Ntbsg20
g1528
(g1529
g1515
g1530
S'b'
tRp1709
(I1
(I18
I1
tg1532
I00
S'\xacV\x95?\xffh\xc6?3\x99\t@\xa44\xb3?N\xfc\x9f@\x8d\x81\xaa=\xe4\x98\x19@\x86\xbb\xbb?\xc2v\x17@\x90 B@!A\xcc@\xe8uG@\xf6\xd8\x1d@\x03y\xb7?\x81\x1f\xaa@\x0cg\xc6?\xfa\x1e\t=FA\x9eA'
S'\x00\x00\x00\x00\x00\x00\x00\x00\x00\x00\x00\x00\x00\x00\x00\x00\x00\x00'
NtbstRp1710
(dp1711
g1547
(dp1712
g1527
I01
sg21
I00
sg20
I01
sg22
I01
sg19
I00
sg23
I01
sg1542
I01
ssg1549
g1697
sg1550
(lp1713
g1527
ag1542
ag19
ag20
ag21
ag22
ag23
asg1552
(lp1714
I18
aI1
asbsg1554
g1555
sg1556
g1514
(g1515
(I0
tS'b'
tRp1715
(I1
(I18
I1
tg1517
I00
(lp1716
I13
aI14
aI8
aI11
aI7
aI10
aI17
aI12
aI1
aI16
aI15
aI6
aI9
aI0
aI3
aI2
aI5
aI4
atbsg1559
I01
sg1560
I1
sg1561
I-1
sg1562
(lp1717
g1
(g1564
g1512
(dp1718
g465
g596
sVY
L2L
sg467
L2L
sg468
g597
sg476
L1L
sg473
L1L
sg474
g511
sVX
L9L
sg470
L0L
sg478
g475
sg480
L0L
sg482
g559
stRp1719
ag1
(g1564
g1512
(dp1720
g465
g555
sVY
L4L
sg467
L2L
sg468
g556
sg476
L4L
sg473
L4L
sg474
g511
sVX
L3L
sg470
L0L
sg478
g490
sg480
L0L
sg482
g559
stRp1721
ag1
(g1564
g1512
(dp1722
g465
g613
sVY
L4L
sg467
L2L
sg468
g614
sg476
L9L
sg473
L9L
sg474
g490
sVX
L2L
sg470
L0L
sg478
g471
sg480
L0L
sg482
g608
stRp1723
ag1
(g1564
g1512
(dp1724
g465
g604
sVY
L6L
sg467
L2L
sg468
g605
sg476
L6L
sg473
L6L
sg474
g475
sVX
L8L
sg470
L0L
sg478
g479
sg480
L0L
sg482
g608
stRp1725
ag1
(g1564
g1512
(dp1726
g465
g630
sVY
L4L
sg467
L3L
sg468
g631
sg476
L6L
sg473
L6L
sg474
g503
sVX
L6L
sg470
g481
sg478
g541
sg480
L0L
sg482
g625
stRp1727
ag1
(g1564
g1512
(dp1728
g465
g621
sVY
L9L
sg467
L3L
sg468
g622
sg476
L7L
sg473
L7L
sg474
g514
sVX
L9L
sg470
g503
sg478
g475
sg480
L0L
sg482
g625
stRp1729
ag1
(g1564
g1512
(dp1730
g465
g580
sVY
L4L
sg467
L3L
sg468
g581
sg476
L8L
sg473
L8L
sg474
g490
sVX
L3L
sg470
g511
sg478
g514
sg480
L0L
sg482
g524
stRp1731
ag1
(g1564
g1512
(dp1732
g465
g520
sVY
L2L
sg467
L3L
sg468
g521
sg476
L2L
sg473
L2L
sg474
g500
sVX
L4L
sg470
g481
sg478
g471
sg480
L0L
sg482
g524
stRp1733
ag1
(g1564
g1512
(dp1734
g465
g498
sVY
L2L
sg467
L3L
sg468
g499
sg476
L1L
sg473
L1L
sg474
g481
sVX
L8L
sg470
g500
sg478
g503
sg480
L0L
sg482
g504
stRp1735
ag1
(g1564
g1512
(dp1736
g465
g588
sVY
L3L
sg467
L3L
sg468
g589
sg476
L9L
sg473
L9L
sg474
g481
sVX
L2L
sg470
g490
sg478
g479
sg480
L0L
sg482
g504
stRp1737
ag1
(g1564
g1512
(dp1738
g465
g529
sVY
L3L
sg467
L4L
sg468
g530
sg476
L1L
sg473
L1L
sg474
g503
sVX
L6L
sg470
g511
sg478
g500
sg480
g514
sg482
g515
stRp1739
ag1
(g1564
g1512
(dp1740
g465
g509
sVY
L2L
sg467
L4L
sg468
g510
sg476
L2L
sg473
L2L
sg474
g503
sVX
L3L
sg470
g511
sg478
g490
sg480
g514
sg482
g515
stRp1741
ag1
(g1564
g1512
(dp1742
g465
g547
sVY
L9L
sg467
L4L
sg468
g548
sg476
L1L
sg473
L1L
sg474
g500
sVX
L3L
sg470
g479
sg478
g503
sg480
g514
sg482
g483
stRp1743
ag1
(g1564
g1512
(dp1744
g465
g466
sVY
L3L
sg467
L4L
sg468
g469
sg476
L3L
sg473
L3L
sg474
g475
sVX
L6L
sg470
g471
sg478
g479
sg480
g481
sg482
g483
stRp1745
ag1
(g1564
g1512
(dp1746
g465
g488
sVY
L2L
sg467
L4L
sg468
g489
sg476
L7L
sg473
L7L
sg474
g481
sVX
L2L
sg470
g490
sg478
g471
sg480
g479
sg482
g493
stRp1747
ag1
(g1564
g1512
(dp1748
g465
g572
sVY
L2L
sg467
L4L
sg468
g573
sg476
L1L
sg473
L1L
sg474
g471
sVX
L8L
sg470
g475
sg478
g511
sg480
g481
sg482
g493
stRp1749
ag1
(g1564
g1512
(dp1750
g465
g564
sVY
L2L
sg467
L4L
sg468
g565
sg476
L5L
sg473
L5L
sg474
g481
sVX
L2L
sg470
g479
sg478
g503
sg480
g541
sg482
g542
stRp1751
ag1
(g1564
g1512
(dp1752
g465
g537
sVY
L2L
sg467
L4L
sg468
g538
sg476
L7L
sg473
L7L
sg474
g479
sVX
L2L
sg470
g481
sg478
g471
sg480
g541
sg482
g542
stRp1753
asg1577
Nsg1578
I4
sg1579
I18
sg1580
I0
sg1581
I18
sbag1
(g1500
g3
NtRp1754
(dp1755
g1503
Nsg1504
(lp1756
sg1506
I350024688
sg10
g1585
sg6
g1508
sg1509
I1
sg24
I01
sg25
g26
sg1510
g1
(g1511
g1512
(dp1757
g22
g1528
(g1529
g1515
g1530
S'b'
tRp1758
(I1
(I18
I1
tg1532
I00
S'\x00\x00\x80?\x00\x00\x80?\x00\x00\x80?\x00\x00\x80?\x00\x00\x80?\x00\x00\x80?\x00\x00\x80?\x00\x00\x80?\x00\x00\x00\x00\x00\x00\x80?\x00\x00\x80?\x00\x00\x00\x00\x00\x00\x00\x00\x00\x00\x80?\x00\x00\x80?\x00\x00\x80?\x00\x00\x80?\x00\x00\x00\x00'
S'\x00\x00\x00\x00\x00\x00\x00\x00\x00\x00\x00\x00\x00\x00\x00\x00\x00\x00'
Ntbsg19
g1514
(g1515
(I0
tS'b'
tRp1759
(I1
(I18
I1
tg1517
I00
(lp1760
g740
ag722
ag789
ag662
ag773
ag731
ag748
ag805
ag645
ag797
ag695
ag704
ag781
ag673
ag757
ag684
ag712
ag765
atbsg23
g1528
(g1529
g1515
g1530
S'b'
tRp1761
(I1
(I18
I1
tg1532
I00
S' \x02\xe0?\xb9df@&h\xc6?\xe4\xa5\xca?p\xedn@\x90\xdb}@\xf8\x96\xc1@\x0f!\x82@\x80A\xd4@\xfb\xff\x1f@\x03\x1f6A\x82\xc8\xfc@#b\xfe@\x13\x98\x99@\xe3\x96\x19A\xec\x86\xa0@\x88\xfe\x97@Mu\x0bA'
S'\x00\x00\x00\x00\x00\x00\x00\x00\x00\x00\x00\x00\x00\x00\x00\x00\x00\x00'
Ntbsg1527
g1528
(g1529
g1515
g1530
S'b'
tRp1762
(I1
(I18
I1
tg1532
I00
S'\x00\x00\x80?\x00\x00\x80?\x00\x00\x80?\x00\x00\x80?\x00\x00\x80?\x00\x00\x80?\x00\x00\x80?\x00\x00\x80?\x00\x00\x80?\x00\x00\x80?\x00\x00\x80?\x00\x00\x80?\x00\x00\x80?\x00\x00\x80?\x00\x00\x80?\x00\x00\x80?\x00\x00\x80?\x00\x00\x80?'
S'\x00\x00\x00\x00\x00\x00\x00\x00\x00\x00\x00\x00\x00\x00\x00\x00\x00\x00'
Ntbsg21
g1514
(g1515
(I0
tS'b'
tRp1763
(I1
(I18
I1
tg1517
I00
(lp1764
S'4'
aS'6'
aS'3'
aS'1'
aS'9'
aS'5'
aS'5'
aS'5'
aS'6'
aS'3'
aS'3'
aS'7'
aS'9'
aS'3'
aS'8'
aS'6'
aS'1'
aS'2'
atbsg1542
g1528
(g1529
g1515
g1530
S'b'
tRp1765
(I1
(I18
I1
tg1532
I00
S'\x00\x00\x10A\x00\x00\xe0@\x00\x00pA\x00\x00\x80?\x00\x00PA\x00\x00\x00A\x00\x00 A\x00\x00\x88A\x00\x00\x00\x00\x00\x00\x80A\x00\x00\x80@\x00\x00\xa0@\x00\x00`A\x00\x00\x00@\x00\x000A\x00\x00@@\x00\x00\xc0@\x00\x00@A'
S'\x00\x00\x00\x00\x00\x00\x00\x00\x00\x00\x00\x00\x00\x00\x00\x00\x00\x00'
Ntbsg20
g1528
(g1529
g1515
g1530
S'b'
tRp1766
(I1
(I18
I1
tg1532
I00
S'(\xf3n?\xa8$\x82?#4\xb3?\xfe\xfd_@2\x12\xd1?\x9eE\xa4?\xdf\xfd\x9f@kS\x95@&\x0f\x11@\x8d\x86\x98@Y\xcb\\@\x89\xcc\x1c@\xa5QUA+>\xe4?\xc6\x99\xf9?]\xfd\x07A\x01@\xbc@\x03\xeb\xee@'
S'\x00\x00\x00\x00\x00\x00\x00\x00\x00\x00\x00\x00\x00\x00\x00\x00\x00\x00'
NtbstRp1767
(dp1768
g1547
(dp1769
g1527
I01
sg21
I00
sg20
I01
sg22
I01
sg19
I00
sg23
I01
sg1542
I01
ssg1549
g1754
sg1550
(lp1770
g1527
ag1542
ag19
ag20
ag21
ag22
ag23
asg1552
(lp1771
I18
aI1
asbsg1554
g1555
sg1556
g1514
(g1515
(I0
tS'b'
tRp1772
(I1
(I18
I1
tg1517
I00
(lp1773
I8
aI3
aI13
aI15
aI10
aI11
aI16
aI1
aI5
aI0
aI6
aI14
aI17
aI4
aI12
aI2
aI9
aI7
atbsg1559
I01
sg1560
I1
sg1561
I-1
sg1562
(lp1774
g1
(g1564
g1512
(dp1775
g638
g738
sVY
L2L
sg640
L2L
sg641
g739
sg649
L4L
sg646
L4L
sg647
g648
sVX
L3L
sg643
L0L
sg651
g644
sg653
L0L
sg654
g724
stRp1776
ag1
(g1564
g1512
(dp1777
g638
g720
sVY
L2L
sg640
L2L
sg641
g721
sg649
L6L
sg646
L6L
sg647
g694
sVX
L2L
sg643
L0L
sg651
g644
sg653
L0L
sg654
g724
stRp1778
ag1
(g1564
g1512
(dp1779
g638
g787
sVY
L5L
sg640
L2L
sg641
g788
sg649
L3L
sg646
L3L
sg647
g683
sVX
L4L
sg643
L0L
sg651
g652
sg653
L0L
sg654
g665
stRp1780
ag1
(g1564
g1512
(dp1781
g638
g660
sVY
L2L
sg640
L2L
sg641
g661
sg649
L1L
sg646
L1L
sg647
g663
sVX
L5L
sg643
L0L
sg651
g652
sg653
L0L
sg654
g665
stRp1782
ag1
(g1564
g1512
(dp1783
g638
g771
sVY
L3L
sg640
L3L
sg641
g772
sg649
L9L
sg646
L9L
sg647
g648
sVX
L8L
sg643
g685
sg651
g644
sg653
L0L
sg654
g733
stRp1784
ag1
(g1564
g1512
(dp1785
g638
g729
sVY
L5L
sg640
L3L
sg641
g730
sg649
L5L
sg646
L5L
sg647
g652
sVX
L6L
sg643
g685
sg651
g644
sg653
L0L
sg654
g733
stRp1786
ag1
(g1564
g1512
(dp1787
g638
g746
sVY
L7L
sg640
L3L
sg641
g747
sg649
L5L
sg646
L5L
sg647
g683
sVX
L7L
sg643
g694
sg651
g652
sg653
L0L
sg654
g750
stRp1788
ag1
(g1564
g1512
(dp1789
g638
g803
sVY
L5L
sg640
L3L
sg641
g804
sg649
L5L
sg646
L5L
sg647
g644
sVX
L4L
sg643
g648
sg651
g652
sg653
L0L
sg654
g750
stRp1790
ag1
(g1564
g1512
(dp1791
g638
g639
sVY
L5L
sg640
L3L
sg641
g642
sg649
L8L
sg646
L8L
sg647
g648
sVX
L5L
sg643
g644
sg651
g652
sg653
L0L
sg654
g655
stRp1792
ag1
(g1564
g1512
(dp1793
g638
g795
sVY
L2L
sg640
L3L
sg641
g796
sg649
L3L
sg646
L3L
sg647
g685
sVX
L4L
sg643
g714
sg651
g675
sg653
L0L
sg654
g655
stRp1794
ag1
(g1564
g1512
(dp1795
g638
g692
sVY
L5L
sg640
L4L
sg641
g693
sg649
L3L
sg646
L3L
sg647
g685
sVX
L5L
sg643
g694
sg651
g663
sg653
g675
sg654
g697
stRp1796
ag1
(g1564
g1512
(dp1797
g638
g702
sVY
L3L
sg640
L4L
sg641
g703
sg649
L9L
sg646
L9L
sg647
g694
sVX
L3L
sg643
g652
sg651
g644
sg653
g672
sg654
g697
stRp1798
ag1
(g1564
g1512
(dp1799
g638
g779
sVY
L6L
sg640
L4L
sg641
g780
sg649
L4L
sg646
L4L
sg647
g714
sVX
L3L
sg643
g675
sg651
g694
sg653
g672
sg654
g676
stRp1800
ag1
(g1564
g1512
(dp1801
g638
g670
sVY
L3L
sg640
L4L
sg641
g671
sg649
L3L
sg646
L3L
sg647
g663
sVX
L3L
sg643
g672
sg651
g675
sg653
g648
sg654
g676
stRp1802
ag1
(g1564
g1512
(dp1803
g638
g755
sVY
L2L
sg640
L4L
sg641
g756
sg649
L8L
sg646
L8L
sg647
g672
sVX
L9L
sg643
g683
sg651
g652
sg653
g694
sg654
g687
stRp1804
ag1
(g1564
g1512
(dp1805
g638
g681
sVY
L3L
sg640
L4L
sg641
g682
sg649
L6L
sg646
L6L
sg647
g685
sVX
L2L
sg643
g683
sg651
g675
sg653
g648
sg654
g687
stRp1806
ag1
(g1564
g1512
(dp1807
g638
g710
sVY
L2L
sg640
L4L
sg641
g711
sg649
L1L
sg646
L1L
sg647
g694
sVX
L8L
sg643
g685
sg651
g652
sg653
g714
sg654
g715
stRp1808
ag1
(g1564
g1512
(dp1809
g638
g763
sVY
L2L
sg640
L4L
sg641
g764
sg649
L6L
sg646
L6L
sg647
g648
sVX
L3L
sg643
g685
sg651
g675
sg653
g644
sg654
g715
stRp1810
asg1577
Nsg1578
I7
sg1579
I18
sg1580
I0
sg1581
I18
sbag1
(g1500
g3
NtRp1811
(dp1812
g1503
Nsg1504
(lp1813
sg1506
I350024688
sg10
g1585
sg6
g1508
sg1509
I1
sg24
I01
sg25
g26
sg1510
g1
(g1511
g1512
(dp1814
g22
g1528
(g1529
g1515
g1530
S'b'
tRp1815
(I1
(I18
I1
tg1532
I00
S'\x00\x00\x80?\x00\x00\x80?\x00\x00\x80?\x00\x00\x80?\x00\x00\x80?\x00\x00\x80?\x00\x00\x80?\x00\x00\x00\x00\x00\x00\x80?\x00\x00\x80?\x00\x00\x80?\x00\x00\x80?\x00\x00\x80?\x00\x00\x80?\x00\x00\x00\x00\x00\x00\x80?\x00\x00\x80?\x00\x00\x80?'
S'\x00\x00\x00\x00\x00\x00\x00\x00\x00\x00\x00\x00\x00\x00\x00\x00\x00\x00'
Ntbsg19
g1514
(g1515
(I0
tS'b'
tRp1816
(I1
(I18
I1
tg1517
I00
(lp1817
g844
ag817
ag937
ag978
ag970
ag919
ag911
ag835
ag894
ag903
ag946
ag928
ag954
ag865
ag962
ag875
ag854
ag885
atbsg23
g1528
(g1529
g1515
g1530
S'b'
tRp1818
(I1
(I18
I1
tg1532
I00
S'\xef\xab\xca?\xcf\xedN@\xd4f\x06@\xa9\x0fa@\xf5\x1f\xb2@\x93\x97\x01A\x98B\x9c@\x82\xdc\x85@.\xcb\x94@z\xcc,@\xcdc\xc6@\x07\xa8\xca@\x95\x0e\x19A\x8e\xfd\xef@Y\x0f\x05A\x94 \x9a@A\xda\xed@\xf3\x95\xf9@'
S'\x00\x00\x00\x00\x00\x00\x00\x00\x00\x00\x00\x00\x00\x00\x00\x00\x00\x00'
Ntbsg1527
g1528
(g1529
g1515
g1530
S'b'
tRp1819
(I1
(I18
I1
tg1532
I00
S'\x00\x00\x80?\x00\x00\x80?\x00\x00\x80?\x00\x00\x80?\x00\x00\x80?\x00\x00\x80?\x00\x00\x80?\x00\x00\x80?\x00\x00\x80?\x00\x00\x80?\x00\x00\x80?\x00\x00\x80?\x00\x00\x80?\x00\x00\x80?\x00\x00\x80?\x00\x00\x80?\x00\x00\x80?\x00\x00\x80?'
S'\x00\x00\x00\x00\x00\x00\x00\x00\x00\x00\x00\x00\x00\x00\x00\x00\x00\x00'
Ntbsg21
g1514
(g1515
(I0
tS'b'
tRp1820
(I1
(I18
I1
tg1517
I00
(lp1821
S'7'
aS'2'
aS'8'
aS'8'
aS'4'
aS'4'
aS'9'
aS'3'
aS'5'
aS'1'
aS'2'
aS'8'
aS'3'
aS'4'
aS'5'
aS'6'
aS'8'
aS'3'
atbsg1542
g1528
(g1529
g1515
g1530
S'b'
tRp1822
(I1
(I18
I1
tg1532
I00
S'\x00\x00\x00@\x00\x00\x00\x00\x00\x00@A\x00\x00\x88A\x00\x00\x80A\x00\x00 A\x00\x00\x10A\x00\x00\x80?\x00\x00\xe0@\x00\x00\x00A\x00\x00PA\x00\x000A\x00\x00`A\x00\x00\x80@\x00\x00pA\x00\x00\xa0@\x00\x00@@\x00\x00\xc0@'
S'\x00\x00\x00\x00\x00\x00\x00\x00\x00\x00\x00\x00\x00\x00\x00\x00\x00\x00'
Ntbsg20
g1528
(g1529
g1515
g1530
S'b'
tRp1823
(I1
(I18
I1
tg1532
I00
S'\xb2OD?\xac\x9a\xb9?\xb9&b?\x1e/\x93?\xcfg\x86?\xd9\x89\xa8?a\xba;@\xc5\x89M=\\\x88\x08@\xaa\xbb\xfb?r R@\xd6tw@\xe4\xf1\x8e?e!"@k\x9a\xd9?\nA\xa4@U\xfd\x7f@\xb7\xdc-@'
S'\x00\x00\x00\x00\x00\x00\x00\x00\x00\x00\x00\x00\x00\x00\x00\x00\x00\x00'
NtbstRp1824
(dp1825
g1547
(dp1826
g1527
I01
sg21
I00
sg20
I01
sg22
I01
sg19
I00
sg23
I01
sg1542
I01
ssg1549
g1811
sg1550
(lp1827
g1527
ag1542
ag19
ag20
ag21
ag22
ag23
asg1552
(lp1828
I18
aI1
asbsg1554
g1555
sg1556
g1514
(g1515
(I0
tS'b'
tRp1829
(I1
(I18
I1
tg1517
I00
(lp1830
I1
aI7
aI0
aI16
aI13
aI15
aI17
aI8
aI9
aI6
aI5
aI11
aI2
aI10
aI12
aI14
aI4
aI3
atbsg1559
I01
sg1560
I1
sg1561
I-1
sg1562
(lp1831
g1
(g1564
g1512
(dp1832
g811
g842
sVY
L6L
sg813
L2L
sg814
g843
sg821
L7L
sg818
L7L
sg819
g834
sVX
L3L
sg816
L0L
sg823
g846
sg825
L0L
sg826
g827
stRp1833
ag1
(g1564
g1512
(dp1834
g811
g812
sVY
L4L
sg813
L2L
sg814
g815
sg821
L2L
sg818
L2L
sg819
g820
sVX
L5L
sg816
L0L
sg823
g824
sg825
L0L
sg826
g827
stRp1835
ag1
(g1564
g1512
(dp1836
g811
g935
sVY
L2L
sg813
L2L
sg814
g936
sg821
L8L
sg818
L8L
sg819
g846
sVX
L2L
sg816
L0L
sg823
g876
sg825
L0L
sg826
g939
stRp1837
ag1
(g1564
g1512
(dp1838
g811
g976
sVY
L2L
sg813
L2L
sg814
g977
sg821
L8L
sg818
L8L
sg819
g866
sVX
L2L
sg816
L0L
sg823
g876
sg825
L0L
sg826
g939
stRp1839
ag1
(g1564
g1512
(dp1840
g811
g968
sVY
L3L
sg813
L3L
sg814
g969
sg821
L4L
sg818
L4L
sg819
g855
sVX
L8L
sg816
g853
sg823
g893
sg825
L0L
sg826
g921
stRp1841
ag1
(g1564
g1512
(dp1842
g811
g917
sVY
L2L
sg813
L3L
sg814
g918
sg821
L4L
sg818
L4L
sg819
g834
sVX
L3L
sg816
g876
sg823
g866
sg825
L0L
sg826
g921
stRp1843
ag1
(g1564
g1512
(dp1844
g811
g909
sVY
L2L
sg813
L3L
sg814
g910
sg821
L9L
sg818
L9L
sg819
g846
sVX
L2L
sg816
g855
sg823
g820
sg825
L0L
sg826
g837
stRp1845
ag1
(g1564
g1512
(dp1846
g811
g832
sVY
L2L
sg813
L3L
sg814
g833
sg821
L2L
sg818
L2L
sg819
g824
sVX
L9L
sg816
g834
sg823
g820
sg825
L0L
sg826
g837
stRp1847
ag1
(g1564
g1512
(dp1848
g811
g891
sVY
L4L
sg813
L3L
sg814
g892
sg821
L5L
sg818
L5L
sg819
g855
sVX
L8L
sg816
g893
sg823
g857
sg825
L0L
sg826
g896
stRp1849
ag1
(g1564
g1512
(dp1850
g811
g901
sVY
L6L
sg813
L3L
sg814
g902
sg821
L1L
sg818
L1L
sg819
g820
sVX
L8L
sg816
g824
sg823
g834
sg825
L0L
sg826
g896
stRp1851
ag1
(g1564
g1512
(dp1852
g811
g944
sVY
L3L
sg813
L4L
sg814
g945
sg821
L2L
sg818
L2L
sg819
g876
sVX
L6L
sg816
g820
sg823
g893
sg825
g834
sg826
g930
stRp1853
ag1
(g1564
g1512
(dp1854
g811
g926
sVY
L2L
sg813
L4L
sg814
g927
sg821
L8L
sg818
L8L
sg819
g820
sVX
L2L
sg816
g853
sg823
g866
sg825
g855
sg826
g930
stRp1855
ag1
(g1564
g1512
(dp1856
g811
g952
sVY
L3L
sg813
L4L
sg814
g953
sg821
L3L
sg818
L3L
sg819
g893
sVX
L4L
sg816
g855
sg823
g820
sg825
g853
sg826
g868
stRp1857
ag1
(g1564
g1512
(dp1858
g811
g863
sVY
L3L
sg813
L4L
sg814
g864
sg821
L4L
sg818
L4L
sg819
g866
sVX
L7L
sg816
g853
sg823
g834
sg825
g820
sg826
g868
stRp1859
ag1
(g1564
g1512
(dp1860
g811
g960
sVY
L4L
sg813
L4L
sg814
g961
sg821
L7L
sg818
L7L
sg819
g820
sVX
L8L
sg816
g846
sg823
g834
sg825
g876
sg826
g878
stRp1861
ag1
(g1564
g1512
(dp1862
g811
g873
sVY
L3L
sg813
L4L
sg814
g874
sg821
L6L
sg818
L6L
sg819
g876
sVX
L5L
sg816
g824
sg823
g855
sg825
g857
sg826
g878
stRp1863
ag1
(g1564
g1512
(dp1864
g811
g851
sVY
L2L
sg813
L4L
sg814
g852
sg821
L8L
sg818
L8L
sg819
g855
sVX
L4L
sg816
g853
sg823
g857
sg825
g846
sg826
g858
stRp1865
ag1
(g1564
g1512
(dp1866
g811
g883
sVY
L5L
sg813
L4L
sg814
g884
sg821
L3L
sg818
L3L
sg819
g857
sVX
L9L
sg816
g853
sg823
g855
sg825
g824
sg826
g858
stRp1867
asg1577
Nsg1578
I3
sg1579
I18
sg1580
I0
sg1581
I18
sbag1
(g1500
g3
NtRp1868
(dp1869
g1503
Nsg1504
(lp1870
sg1506
I350024688
sg10
g1585
sg6
g1508
sg1509
I1
sg24
I01
sg25
g26
sg1510
g1
(g1511
g1512
(dp1871
g22
g1528
(g1529
g1515
g1530
S'b'
tRp1872
(I1
(I18
I1
tg1532
I00
S'\x00\x00\x80?\x00\x00\x80?\x00\x00\x80?\x00\x00\x80?\x00\x00\x80?\x00\x00\x80?\x00\x00\x00\x00\x00\x00\x80?\x00\x00\x80?\x00\x00\x80?\x00\x00\x80?\x00\x00\x80?\x00\x00\x00\x00\x00\x00\x00\x00\x00\x00\x80?\x00\x00\x80?\x00\x00\x80?\x00\x00\x80?'
S'\x00\x00\x00\x00\x00\x00\x00\x00\x00\x00\x00\x00\x00\x00\x00\x00\x00\x00'
Ntbsg19
g1514
(g1515
(I0
tS'b'
tRp1873
(I1
(I18
I1
tg1517
I00
(lp1874
g1058
ag1040
ag1020
ag1118
ag1126
ag1109
ag1066
ag1010
ag1151
ag1100
ag1050
ag991
ag1134
ag1143
ag1083
ag1092
ag1031
ag1075
atbsg23
g1528
(g1529
g1515
g1530
S'b'
tRp1875
(I1
(I18
I1
tg1532
I00
S'\xc8\x01\xe0?G\x01\xe0?dh\xc6?\x08\x89\x08@\xf9u\x97@F\x87\x98@\x0eC\x84@\x10\xcbL@W\xda\xf5@\x0c\x9a\t@\xcb\x1e\xe2@~ \x9a@{\xdb\x19AAd\nA1\x0f\xa9@\xeac\xae@I\xed\x96@E\xdcm@'
S'\x00\x00\x00\x00\x00\x00\x00\x00\x00\x00\x00\x00\x00\x00\x00\x00\x00\x00'
Ntbsg1527
g1528
(g1529
g1515
g1530
S'b'
tRp1876
(I1
(I18
I1
tg1532
I00
S'\x00\x00\x80?\x00\x00\x80?\x00\x00\x80?\x00\x00\x80?\x00\x00\x80?\x00\x00\x80?\x00\x00\x80?\x00\x00\x80?\x00\x00\x80?\x00\x00\x80?\x00\x00\x80?\x00\x00\x80?\x00\x00\x80?\x00\x00\x80?\x00\x00\x80?\x00\x00\x80?\x00\x00\x80?\x00\x00\x80?'
S'\x00\x00\x00\x00\x00\x00\x00\x00\x00\x00\x00\x00\x00\x00\x00\x00\x00\x00'
Ntbsg21
g1514
(g1515
(I0
tS'b'
tRp1877
(I1
(I18
I1
tg1517
I00
(lp1878
S'7'
aS'2'
aS'8'
aS'6'
aS'7'
aS'8'
aS'1'
aS'5'
aS'6'
aS'5'
aS'9'
aS'8'
aS'7'
aS'4'
aS'5'
aS'8'
aS'3'
aS'1'
atbsg1542
g1528
(g1529
g1515
g1530
S'b'
tRp1879
(I1
(I18
I1
tg1532
I00
S'\x00\x00\xc0@\x00\x00\x80@\x00\x00\x00@\x00\x00PA\x00\x00`A\x00\x00@A\x00\x00\xe0@\x00\x00\x80?\x00\x00\x88A\x00\x000A\x00\x00\xa0@\x00\x00\x00\x00\x00\x00pA\x00\x00\x80A\x00\x00\x10A\x00\x00 A\x00\x00@@\x00\x00\x00A'
S'\x00\x00\x00\x00\x00\x00\x00\x00\x00\x00\x00\x00\x00\x00\x00\x00\x00\x00'
Ntbsg20
g1528
(g1529
g1515
g1530
S'b'
tRp1880
(I1
(I18
I1
tg1532
I00
S'\xf993?\xb0\xc2;?\x9b93?^x\xb7?\xd1\xa9\x1a@{\xba+@\xf4\xad\x08>\xa3\xee.@\xb87s?6\x878@\xdfx\xb7?\x8fQ\xed@g1\x93@\x1a2#@\xd7\xb8{@\xe6\xed.@\x0f"\x02@\x85\x98)@'
S'\x00\x00\x00\x00\x00\x00\x00\x00\x00\x00\x00\x00\x00\x00\x00\x00\x00\x00'
NtbstRp1881
(dp1882
g1547
(dp1883
g1527
I01
sg21
I00
sg20
I01
sg22
I01
sg19
I00
sg23
I01
sg1542
I01
ssg1549
g1868
sg1550
(lp1884
g1527
ag1542
ag19
ag20
ag21
ag22
ag23
asg1552
(lp1885
I18
aI1
asbsg1554
g1555
sg1556
g1514
(g1515
(I0
tS'b'
tRp1886
(I1
(I18
I1
tg1517
I00
(lp1887
I11
aI7
aI2
aI16
aI1
aI10
aI0
aI6
aI17
aI14
aI15
aI9
aI5
aI3
aI4
aI12
aI13
aI8
atbsg1559
I01
sg1560
I1
sg1561
I-1
sg1562
(lp1888
g1
(g1564
g1512
(dp1889
g984
g1056
sVY
L5L
sg986
L2L
sg987
g1057
sg995
L7L
sg992
L7L
sg993
g1000
sVX
L3L
sg989
L0L
sg997
g998
sg999
L0L
sg1001
g1043
stRp1890
ag1
(g1564
g1512
(dp1891
g984
g1038
sVY
L4L
sg986
L2L
sg987
g1039
sg995
L2L
sg992
L2L
sg993
g1000
sVX
L9L
sg989
L0L
sg997
g1042
sg999
L0L
sg1001
g1043
stRp1892
ag1
(g1564
g1512
(dp1893
g984
g1018
sVY
L3L
sg986
L2L
sg987
g1019
sg995
L8L
sg992
L8L
sg993
g1021
sVX
L3L
sg989
L0L
sg997
g1000
sg999
L0L
sg1001
g1023
stRp1894
ag1
(g1564
g1512
(dp1895
g984
g1116
sVY
L8L
sg986
L2L
sg987
g1117
sg995
L6L
sg992
L6L
sg993
g998
sVX
L4L
sg989
L0L
sg997
g1009
sg999
L0L
sg1001
g1023
stRp1896
ag1
(g1564
g1512
(dp1897
g984
g1124
sVY
L5L
sg986
L3L
sg987
g1125
sg995
L7L
sg992
L7L
sg993
g990
sVX
L2L
sg989
g1000
sg997
g998
sg999
L0L
sg1001
g1111
stRp1898
ag1
(g1564
g1512
(dp1899
g984
g1107
sVY
L2L
sg986
L3L
sg987
g1108
sg995
L8L
sg992
L8L
sg993
g994
sVX
L4L
sg989
g1009
sg997
g998
sg999
L0L
sg1001
g1111
stRp1900
ag1
(g1564
g1512
(dp1901
g984
g1064
sVY
L3L
sg986
L3L
sg987
g1065
sg995
L2L
sg992
L2L
sg993
g1067
sVX
L3L
sg989
g1012
sg997
g990
sg999
L0L
sg1001
g1013
stRp1902
ag1
(g1564
g1512
(dp1903
g984
g1007
sVY
L3L
sg986
L3L
sg987
g1008
sg995
L5L
sg992
L5L
sg993
g998
sVX
L2L
sg989
g1009
sg997
g1012
sg999
L0L
sg1001
g1013
stRp1904
ag1
(g1564
g1512
(dp1905
g984
g1149
sVY
L4L
sg986
L3L
sg987
g1150
sg995
L6L
sg992
L6L
sg993
g1030
sVX
L5L
sg989
g998
sg997
g990
sg999
L0L
sg1001
g1102
stRp1906
ag1
(g1564
g1512
(dp1907
g984
g1098
sVY
L3L
sg986
L3L
sg987
g1099
sg995
L5L
sg992
L5L
sg993
g1012
sVX
L3L
sg989
g1021
sg997
g1009
sg999
L0L
sg1001
g1102
stRp1908
ag1
(g1564
g1512
(dp1909
g984
g1048
sVY
L4L
sg986
L4L
sg987
g1049
sg995
L9L
sg992
L9L
sg993
g1000
sVX
L9L
sg989
g1030
sg997
g998
sg999
g990
sg1001
g1002
stRp1910
ag1
(g1564
g1512
(dp1911
g984
g985
sVY
L2L
sg986
L4L
sg987
g988
sg995
L8L
sg992
L8L
sg993
g994
sVX
L2L
sg989
g990
sg997
g998
sg999
g1000
sg1001
g1002
stRp1912
ag1
(g1564
g1512
(dp1913
g984
g1132
sVY
L6L
sg986
L4L
sg987
g1133
sg995
L6L
sg992
L6L
sg993
g998
sVX
L6L
sg989
g1030
sg997
g1000
sg999
g1009
sg1001
g1136
stRp1914
ag1
(g1564
g1512
(dp1915
g984
g1141
sVY
L2L
sg986
L4L
sg987
g1142
sg995
L3L
sg992
L3L
sg993
g1067
sVX
L9L
sg989
g990
sg997
g1000
sg999
g1030
sg1001
g1136
stRp1916
ag1
(g1564
g1512
(dp1917
g984
g1081
sVY
L3L
sg986
L4L
sg987
g1082
sg995
L5L
sg992
L5L
sg993
g990
sVX
L3L
sg989
g1021
sg997
g1000
sg999
g1030
sg1001
g1085
stRp1918
ag1
(g1564
g1512
(dp1919
g984
g1090
sVY
L3L
sg986
L4L
sg987
g1091
sg995
L8L
sg992
L8L
sg993
g994
sVX
L3L
sg989
g1067
sg997
g1000
sg999
g990
sg1001
g1085
stRp1920
ag1
(g1564
g1512
(dp1921
g984
g1028
sVY
L4L
sg986
L4L
sg987
g1029
sg995
L3L
sg992
L3L
sg993
g1009
sVX
L3L
sg989
g1030
sg997
g1012
sg999
g1021
sg1001
g1033
stRp1922
ag1
(g1564
g1512
(dp1923
g984
g1073
sVY
L2L
sg986
L4L
sg987
g1074
sg995
L1L
sg992
L1L
sg993
g1009
sVX
L7L
sg989
g1012
sg997
g1030
sg999
g1067
sg1001
g1033
stRp1924
asg1577
Nsg1578
I8
sg1579
I18
sg1580
I0
sg1581
I18
sbag1
(g1500
g3
NtRp1925
(dp1926
g1503
Nsg1504
(lp1927
sg1506
I350024688
sg10
g1585
sg6
g1508
sg1509
I1
sg24
I01
sg25
g26
sg1510
g1
(g1511
g1512
(dp1928
g22
g1528
(g1529
g1515
g1530
S'b'
tRp1929
(I1
(I18
I1
tg1532
I00
S'\x00\x00\x80?\x00\x00\x80?\x00\x00\x80?\x00\x00\x80?\x00\x00\x80?\x00\x00\x00\x00\x00\x00\x80?\x00\x00\x80?\x00\x00\x80?\x00\x00\x80?\x00\x00\x80?\x00\x00\x80?\x00\x00\x80?\x00\x00\x80?\x00\x00\x00\x00\x00\x00\x80?\x00\x00\x80?\x00\x00\x80?'
S'\x00\x00\x00\x00\x00\x00\x00\x00\x00\x00\x00\x00\x00\x00\x00\x00\x00\x00'
Ntbsg19
g1514
(g1515
(I0
tS'b'
tRp1930
(I1
(I18
I1
tg1517
I00
(lp1931
g1308
ag1192
ag1224
ag1213
ag1258
ag1203
ag1232
ag1292
ag1183
ag1316
ag1241
ag1164
ag1249
ag1324
ag1266
ag1300
ag1284
ag1275
atbsg23
g1528
(g1529
g1515
g1530
S'b'
tRp1932
(I1
(I18
I1
tg1532
I00
S'E@\xc4?b\xba[@X\xcf\x8c?\xeex\xb7?\x1aB\xf4@?\xfd7A\xd11\x9b@\x052\x8b@.\xa8z@\xdcd\x96@bb\xc6@y\xba\x83@,Su@\x9a\x0e\xc1@+\xed\xa6@Y\x0f\x99@x\xcb\x8c@[\xfe_@'
S'\x00\x00\x00\x00\x00\x00\x00\x00\x00\x00\x00\x00\x00\x00\x00\x00\x00\x00'
Ntbsg1527
g1528
(g1529
g1515
g1530
S'b'
tRp1933
(I1
(I18
I1
tg1532
I00
S'\x00\x00\x80?\x00\x00\x80?\x00\x00\x80?\x00\x00\x80?\x00\x00\x80?\x00\x00\x80?\x00\x00\x80?\x00\x00\x80?\x00\x00\x80?\x00\x00\x80?\x00\x00\x80?\x00\x00\x80?\x00\x00\x80?\x00\x00\x80?\x00\x00\x80?\x00\x00\x80?\x00\x00\x80?\x00\x00\x80?'
S'\x00\x00\x00\x00\x00\x00\x00\x00\x00\x00\x00\x00\x00\x00\x00\x00\x00\x00'
Ntbsg21
g1514
(g1515
(I0
tS'b'
tRp1934
(I1
(I18
I1
tg1517
I00
(lp1935
S'1'
aS'8'
aS'4'
aS'1'
aS'3'
aS'7'
aS'1'
aS'6'
aS'6'
aS'8'
aS'8'
aS'1'
aS'6'
aS'7'
aS'7'
aS'5'
aS'5'
aS'3'
atbsg1542
g1528
(g1529
g1515
g1530
S'b'
tRp1936
(I1
(I18
I1
tg1532
I00
S'\x00\x00pA\x00\x00\x00@\x00\x00\xa0@\x00\x00\x80@\x00\x00\x10A\x00\x00@@\x00\x00\xc0@\x00\x00PA\x00\x00\x80?\x00\x00\x80A\x00\x00\xe0@\x00\x00\x00\x00\x00\x00\x00A\x00\x00\x88A\x00\x00 A\x00\x00`A\x00\x00@A\x00\x000A'
S'\x00\x00\x00\x00\x00\x00\x00\x00\x00\x00\x00\x00\x00\x00\x00\x00\x00\x00'
Ntbsg20
g1528
(g1529
g1515
g1530
S'b'
tRp1937
(I1
(I18
I1
tg1532
I00
S'\xa6\x87\x18@\xbdJD?\xe6\x02\xa0?\xb9\xbe;?D\x0e\x95A\x0bP\xcd@\x1a\x9b\x99?\xc99s?%\xb9\x08>\x06\xba\x8b@5\x1f.A?\xec\x8aA\x9fBT@\xb7\xaa\xea?(\x1e\xd2@\xf8v\x07@\xf9\x0f1@H\xde\xdd?'
S'\x00\x00\x00\x00\x00\x00\x00\x00\x00\x00\x00\x00\x00\x00\x00\x00\x00\x00'
NtbstRp1938
(dp1939
g1547
(dp1940
g1527
I01
sg21
I00
sg20
I01
sg22
I01
sg19
I00
sg23
I01
sg1542
I01
ssg1549
g1925
sg1550
(lp1941
g1527
ag1542
ag19
ag20
ag21
ag22
ag23
asg1552
(lp1942
I18
aI1
asbsg1554
g1555
sg1556
g1514
(g1515
(I0
tS'b'
tRp1943
(I1
(I18
I1
tg1517
I00
(lp1944
I11
aI8
aI1
aI5
aI3
aI2
aI6
aI10
aI12
aI4
aI14
aI17
aI16
aI7
aI15
aI0
aI9
aI13
atbsg1559
I01
sg1560
I1
sg1561
I-1
sg1562
(lp1945
g1
(g1564
g1512
(dp1946
g1157
g1306
sVY
L3L
sg1159
L2L
sg1160
g1307
sg1168
L1L
sg1165
L1L
sg1166
g1216
sVX
L9L
sg1162
L0L
sg1170
g1214
sg1172
L0L
sg1174
g1195
stRp1947
ag1
(g1564
g1512
(dp1948
g1157
g1190
sVY
L2L
sg1159
L2L
sg1160
g1191
sg1168
L8L
sg1165
L8L
sg1166
g1173
sVX
L2L
sg1162
L0L
sg1170
g1194
sg1172
L0L
sg1174
g1195
stRp1949
ag1
(g1564
g1512
(dp1950
g1157
g1222
sVY
L3L
sg1159
L2L
sg1160
g1223
sg1168
L4L
sg1165
L4L
sg1166
g1171
sVX
L6L
sg1162
L0L
sg1170
g1202
sg1172
L0L
sg1174
g1217
stRp1951
ag1
(g1564
g1512
(dp1952
g1157
g1211
sVY
L2L
sg1159
L2L
sg1160
g1212
sg1168
L1L
sg1165
L1L
sg1166
g1214
sVX
L6L
sg1162
L0L
sg1170
g1216
sg1172
L0L
sg1174
g1217
stRp1953
ag1
(g1564
g1512
(dp1954
g1157
g1256
sVY
L9L
sg1159
L3L
sg1160
g1257
sg1168
L3L
sg1165
L3L
sg1166
g1167
sVX
L5L
sg1162
g1163
sg1170
g1171
sg1172
L0L
sg1174
g1206
stRp1955
ag1
(g1564
g1512
(dp1956
g1157
g1200
sVY
L3L
sg1159
L3L
sg1160
g1201
sg1168
L9L
sg1165
L9L
sg1166
g1204
sVX
L5L
sg1162
g1202
sg1170
g1194
sg1172
L0L
sg1174
g1206
stRp1957
ag1
(g1564
g1512
(dp1958
g1157
g1230
sVY
L2L
sg1159
L3L
sg1160
g1231
sg1168
L1L
sg1165
L1L
sg1166
g1214
sVX
L7L
sg1162
g1163
sg1170
g1216
sg1172
L0L
sg1174
g1234
stRp1959
ag1
(g1564
g1512
(dp1960
g1157
g1290
sVY
L6L
sg1159
L3L
sg1160
g1291
sg1168
L6L
sg1165
L6L
sg1166
g1194
sVX
L6L
sg1162
g1204
sg1170
g1216
sg1172
L0L
sg1174
g1234
stRp1961
ag1
(g1564
g1512
(dp1962
g1157
g1180
sVY
L2L
sg1159
L3L
sg1160
g1181
sg1168
L6L
sg1165
L6L
sg1166
g1163
sVX
L2L
sg1162
g1182
sg1170
g1173
sg1172
L0L
sg1174
g1185
stRp1963
ag1
(g1564
g1512
(dp1964
g1157
g1314
sVY
L6L
sg1159
L3L
sg1160
g1315
sg1168
L8L
sg1165
L8L
sg1166
g1216
sVX
L2L
sg1162
g1194
sg1170
g1173
sg1172
L0L
sg1174
g1185
stRp1965
ag1
(g1564
g1512
(dp1966
g1157
g1239
sVY
L4L
sg1159
L4L
sg1160
g1240
sg1168
L8L
sg1165
L8L
sg1166
g1173
sVX
L3L
sg1162
g1167
sg1170
g1171
sg1172
g1163
sg1174
g1175
stRp1967
ag1
(g1564
g1512
(dp1968
g1157
g1158
sVY
L8L
sg1159
L4L
sg1160
g1161
sg1168
L1L
sg1165
L1L
sg1166
g1167
sVX
L2L
sg1162
g1163
sg1170
g1171
sg1172
g1173
sg1174
g1175
stRp1969
ag1
(g1564
g1512
(dp1970
g1157
g1247
sVY
L5L
sg1159
L4L
sg1160
g1248
sg1168
L6L
sg1165
L6L
sg1166
g1214
sVX
L4L
sg1162
g1167
sg1170
g1173
sg1172
g1202
sg1174
g1251
stRp1971
ag1
(g1564
g1512
(dp1972
g1157
g1322
sVY
L3L
sg1159
L4L
sg1160
g1323
sg1168
L7L
sg1165
L7L
sg1166
g1182
sVX
L2L
sg1162
g1204
sg1170
g1202
sg1172
g1167
sg1174
g1251
stRp1973
ag1
(g1564
g1512
(dp1974
g1157
g1264
sVY
L3L
sg1159
L4L
sg1160
g1265
sg1168
L5L
sg1165
L5L
sg1166
g1167
sVX
L3L
sg1162
g1214
sg1170
g1163
sg1172
g1173
sg1174
g1268
stRp1975
ag1
(g1564
g1512
(dp1976
g1157
g1298
sVY
L4L
sg1159
L4L
sg1160
g1299
sg1168
L5L
sg1165
L5L
sg1166
g1163
sVX
L8L
sg1162
g1194
sg1170
g1216
sg1172
g1204
sg1174
g1268
stRp1977
ag1
(g1564
g1512
(dp1978
g1157
g1282
sVY
L2L
sg1159
L4L
sg1160
g1283
sg1168
L5L
sg1165
L5L
sg1166
g1167
sVX
L6L
sg1162
g1204
sg1170
g1163
sg1172
g1171
sg1174
g1277
stRp1979
ag1
(g1564
g1512
(dp1980
g1157
g1273
sVY
L2L
sg1159
L4L
sg1160
g1274
sg1168
L3L
sg1165
L3L
sg1166
g1167
sVX
L3L
sg1162
g1202
sg1170
g1204
sg1172
g1171
sg1174
g1277
stRp1981
asg1577
Nsg1578
I13
sg1579
I18
sg1580
I0
sg1581
I18
sbag1
(g1500
g3
NtRp1982
(dp1983
g1503
Nsg1504
(lp1984
sg1506
I350024688
sg10
g1585
sg6
g1508
sg1509
I1
sg24
I01
sg25
g26
sg1510
g1
(g1511
g1512
(dp1985
g22
g1528
(g1529
g1515
g1530
S'b'
tRp1986
(I1
(I18
I1
tg1532
I00
S'\x00\x00\x80?\x00\x00\x00\x00\x00\x00\x80?\x00\x00\x80?\x00\x00\x80?\x00\x00\x80?\x00\x00\x80?\x00\x00\x80?\x00\x00\x80?\x00\x00\x80?\x00\x00\x80?\x00\x00\x80?\x00\x00\x80?\x00\x00\x80?\x00\x00\x80?\x00\x00\x00\x00\x00\x00\x00\x00\x00\x00\x80?'
S'\x00\x00\x00\x00\x00\x00\x00\x00\x00\x00\x00\x00\x00\x00\x00\x00\x00\x00'
Ntbsg20
g1528
(g1529
g1515
g1530
S'b'
tRp1987
(I1
(I18
I1
tg1532
I00
S'+YU?:&\x82?\xca\xc8\xf4@\xab[U?\xc73\xd3?\x98\xdb\xa5@&#\xc2?\xd1\xca\x9c@\n\xaa\n@"\xcc\x1c@\xb7\xdb]@1\x989@r\xb8GAz\xfe\x8f@\xce\xb8\xc3@\x98\xc6L@\x00\x00\x00\x00p\xda\x95@'
S'\x00\x00\x00\x00\x00\x00\x00\x00\x00\x00\x00\x00\x00\x00\x00\x00\x01\x00'
Ntbsg23
g1528
(g1529
g1515
g1530
S'b'
tRp1988
(I1
(I18
I1
tg1532
I00
S'\x16\x10A@\xf9\xb8\x93AV\xff?@\x16\xbb;@x\xfe\x97@\xf2\x878@\xf1R\xa5@rt\x8f@\x9f\xca|@m b@\ru\xc7@\xa8\xeb>A\xb9s;A\xf5\x96\xc9@\xccc\x02A[\xa8\x12A\x00\x00\x00\x00\x88\xa7\xe2@'
S'\x00\x00\x00\x00\x00\x00\x00\x00\x00\x00\x00\x00\x00\x00\x00\x00\x01\x00'
Ntbsg1527
g1528
(g1529
g1515
g1530
S'b'
tRp1989
(I1
(I18
I1
tg1532
I00
S'\x00\x00\x80?\x00\x00\x80?\x00\x00\x80?\x00\x00\x80?\x00\x00\x80?\x00\x00\x80?\x00\x00\x80?\x00\x00\x80?\x00\x00\x80?\x00\x00\x80?\x00\x00\x80?\x00\x00\x80?\x00\x00\x80?\x00\x00\x80?\x00\x00\x80?\x00\x00\x80?\x00\x00\x80?\x00\x00\x80?'
S'\x00\x00\x00\x00\x00\x00\x00\x00\x00\x00\x00\x00\x00\x00\x00\x00\x00\x00'
Ntbsg21
g1514
(g1515
(I0
tS'b'
tRp1990
(I1
(I18
I1
tg1517
I00
(lp1991
S'2'
aS'1'
aS'1'
aS'6'
aS'9'
aS'4'
aS'6'
aS'3'
aS'7'
aS'1'
aS'8'
aS'8'
aS'8'
aS'2'
aS'8'
aS'2'
aNaS'6'
atbsg1542
g1528
(g1529
g1515
g1530
S'b'
tRp1992
(I1
(I18
I1
tg1532
I00
S'\x00\x00\x80?\x00\x00`A\x00\x00\x10A\x00\x00\x88A\x00\x00@A\x00\x00\x00@\x00\x00pA\x00\x00\xa0@\x00\x00\x80@\x00\x00PA\x00\x00\xe0@\x00\x00@@\x00\x00\xc0@\x00\x000A\x00\x00 A\x00\x00\x80A\x00\x00\x00\x00\x00\x00\x00A'
S'\x00\x00\x00\x00\x00\x00\x00\x00\x00\x00\x00\x00\x00\x00\x00\x00\x00\x00'
Ntbsg19
g1514
(g1515
(I0
tS'b'
tRp1993
(I1
(I18
I1
tg1517
I00
(lp1994
g1354
ag1472
ag1430
ag1496
ag1456
ag1363
ag1480
ag1393
ag1384
ag1464
ag1413
ag1373
ag1402
ag1448
ag1439
ag1488
aNag1421
atbstRp1995
(dp1996
g1547
(dp1997
g1527
I01
sg21
I00
sg19
I00
sg22
I01
sg20
I01
sg23
I01
sg1542
I01
ssg1549
g1982
sg1550
(lp1998
g1527
ag1542
ag19
ag21
ag22
ag20
ag23
asg1552
(lp1999
I18
aI1
asbsg1554
g1555
sg1556
g1514
(g1515
(I0
tS'b'
tRp2000
(I1
(I18
I1
tg1517
I00
(lp2001
I16
aI0
aI5
aI11
aI8
aI7
aI12
aI10
aI17
aI2
aI14
aI13
aI4
aI9
aI1
aI6
aI15
aI3
atbsg1559
I01
sg1560
I1
sg1561
I-1
sg1562
(lp2002
g1
(g1564
g1512
(dp2003
g1330
g1352
sVY
L2L
sg1332
L2L
sg1333
g1353
sg1340
L2L
sg1337
L2L
sg1338
g1336
sVX
L3L
sg1335
L0L
sg1342
g1345
sg1344
L0L
sg1346
g1356
stRp2004
ag1
(g1564
g1512
(dp2005
g1330
g1470
sVY
L2L
sg1332
L2L
sg1333
g1471
sg1340
L3L
sg1337
L3L
sg1338
g1364
sVX
L6L
sg1335
L0L
sg1342
g1375
sg1344
L0L
sg1346
g1356
stRp2006
ag1
(g1564
g1512
(dp2007
g1330
g1428
sVY
L4L
sg1332
L2L
sg1333
g1429
sg1340
L1L
sg1337
L1L
sg1338
g1345
sVX
L8L
sg1335
L0L
sg1342
g1364
sg1344
L0L
sg1346
g1432
stRp2008
ag1
(g1564
g1512
(dp2009
g1330
g1494
sVY
L2L
sg1332
L2L
sg1333
g1495
sg1340
L6L
sg1337
L6L
sg1338
g1403
sVX
L3L
sg1335
L0L
sg1342
g1336
sg1344
L0L
sg1346
g1432
stRp2010
ag1
(g1564
g1512
(dp2011
g1330
g1454
sVY
L8L
sg1332
L3L
sg1333
g1455
sg1340
L9L
sg1337
L9L
sg1338
g1343
sVX
L6L
sg1335
g1405
sg1342
g1403
sg1344
L0L
sg1346
g1366
stRp2012
ag1
(g1564
g1512
(dp2013
g1330
g1361
sVY
L2L
sg1332
L3L
sg1333
g1362
sg1340
L4L
sg1337
L4L
sg1338
g1364
sVX
L3L
sg1335
g1339
sg1342
g1345
sg1344
L0L
sg1346
g1366
stRp2014
ag1
(g1564
g1512
(dp2015
g1330
g1478
sVY
L3L
sg1332
L3L
sg1333
g1479
sg1340
L6L
sg1337
L6L
sg1338
g1403
sVX
L3L
sg1335
g1339
sg1342
g1343
sg1344
L0L
sg1346
g1395
stRp2016
ag1
(g1564
g1512
(dp2017
g1330
g1391
sVY
L2L
sg1332
L3L
sg1333
g1392
sg1340
L3L
sg1337
L3L
sg1338
g1375
sVX
L8L
sg1335
g1343
sg1342
g1336
sg1344
L0L
sg1346
g1395
stRp2018
ag1
(g1564
g1512
(dp2019
g1330
g1382
sVY
L3L
sg1332
L3L
sg1333
g1383
sg1340
L7L
sg1337
L7L
sg1338
g1339
sVX
L6L
sg1335
g1345
sg1342
g1336
sg1344
L0L
sg1346
g1386
stRp2020
ag1
(g1564
g1512
(dp2021
g1330
g1462
sVY
L3L
sg1332
L3L
sg1333
g1463
sg1340
L1L
sg1337
L1L
sg1338
g1343
sVX
L3L
sg1335
g1403
sg1342
g1405
sg1344
L0L
sg1346
g1386
stRp2022
ag1
(g1564
g1512
(dp2023
g1330
g1411
sVY
L6L
sg1332
L4L
sg1333
g1412
sg1340
L8L
sg1337
L8L
sg1338
g1376
sVX
L6L
sg1335
g1364
sg1342
g1403
sg1344
g1405
sg1346
g1377
stRp2024
ag1
(g1564
g1512
(dp2025
g1330
g1371
sVY
L9L
sg1332
L4L
sg1333
g1372
sg1340
L8L
sg1337
L8L
sg1338
g1364
sVX
L3L
sg1335
g1339
sg1342
g1375
sg1344
g1376
sg1346
g1377
stRp2026
ag1
(g1564
g1512
(dp2027
g1330
g1400
sVY
L2L
sg1332
L4L
sg1333
g1401
sg1340
L8L
sg1337
L8L
sg1338
g1403
sVX
L3L
sg1335
g1336
sg1342
g1376
sg1344
g1405
sg1346
g1406
stRp2028
ag1
(g1564
g1512
(dp2029
g1330
g1446
sVY
L3L
sg1332
L4L
sg1333
g1447
sg1340
L2L
sg1337
L2L
sg1338
g1423
sVX
L2L
sg1335
g1376
sg1342
g1405
sg1344
g1364
sg1346
g1406
stRp2030
ag1
(g1564
g1512
(dp2031
g1330
g1437
sVY
L7L
sg1332
L4L
sg1333
g1438
sg1340
L8L
sg1337
L8L
sg1338
g1376
sVX
L6L
sg1335
g1403
sg1342
g1405
sg1344
g1364
sg1346
g1441
stRp2032
ag1
(g1564
g1512
(dp2033
g1330
g1486
sVY
L9L
sg1332
L4L
sg1333
g1487
sg1340
L1L
sg1337
L1L
sg1338
g1336
sVX
L9L
sg1335
g1345
sg1342
g1405
sg1344
g1376
sg1346
g1441
stRp2034
ag1
(g1564
g1512
(dp2035
g1330
g1331
sVY
L3L
sg1332
L4L
sg1333
g1334
sg1340
L6L
sg1337
L6L
sg1338
g1339
sVX
L9L
sg1335
g1336
sg1342
g1343
sg1344
g1345
sg1346
g1347
stRp2036
ag1
(g1564
g1512
(dp2037
g1330
g1419
sVY
L4L
sg1332
L4L
sg1333
g1420
sg1340
L6L
sg1337
L6L
sg1338
g1376
sVX
L2L
sg1335
g1336
sg1342
g1405
sg1344
g1423
sg1346
g1347
stRp2038
asg1577
Nsg1578
I3
sg1579
I18
sg1580
I0
sg1581
I18
sbasS'savePickle'
p2039
I00
sb.