ccopy_reg
_reconstructor
p1
(cpsychopy.data
ExperimentHandler
p2
c__builtin__
object
p3
NtRp4
(dp5
S'originPath'
p6
NsS'dataFileName'
p7
VC:\u005cUsers\u005cexperimenter\u005cDesktop\u005cExperiments\u005cKRITL\u005cdata/31041_KRITL_2017_Apr_21_0942
p8
sS'runtimeInfo'
p9
NsS'name'
p10
S'KRITL'
p11
sS'dataNames'
p12
(lp13
S'practice_encoding.keys'
p14
aS'practice_encoding.rt'
p15
aS'practice_execution.keys'
p16
aS'practice_execution.corr'
p17
aS'practice_execution.rt'
p18
aS'encoding.keys'
p19
aS'execution.keys'
p20
aS'execution.corr'
p21
aS'encoding.rt'
p22
aS'execution.rt'
p23
asS'autoLog'
p24
I01
sS'extraInfo'
p25
(dp26
S'date'
p27
V2017_Apr_21_0942
p28
sS'frameRate'
p29
cnumpy.core.multiarray
scalar
p30
(cnumpy
dtype
p31
(S'f8'
I0
I1
tRp32
(I3
S'<'
NNNI-1
I-1
I0
tbS'R\xcf\x8er\x99\x00N@'
tRp33
sS'expName'
p34
g11
sVsession
p35
V003
p36
sVparticipant
p37
V31041
p38
ssS'loopsUnfinished'
p39
(lp40
sS'saveWideText'
p41
I00
sS'thisEntry'
p42
(dp43
sS'version'
p44
S''
sS'_paramNamesSoFar'
p45
(lp46
Voperationc
p47
aVoperationb
p48
aVoperationa
p49
aVcorrectresponse
p50
aVvaluey
p51
aVoperationd
p52
aVcondition
p53
aVvaluex
p54
aVRule
p55
aVOperatora
p56
aVLength
p57
aVIntermediate
p58
aVCorrectResponse
p59
aVResult
p60
aVY
aVX
aVOperatorc
p61
aVOperatorb
p62
aVOperatord
p63
aVStructure
p64
asS'entries'
p65
(lp66
(dp67
g18
F3.1832188311964273
sg29
g33
sg17
I1
sg47
L0L
sg48
VADD
p68
sg49
Vdecrease
p69
sg35
g36
sg50
L7L
sS'practice_trials.thisTrialN'
p70
I0
sg52
L0L
sS'practice_trials.thisRepN'
p71
I0
sg37
g38
sg53
L2L
sg27
g28
sg16
S'7'
sg14
(lp72
S'space'
p73
asS'practice_trials.thisIndex'
p74
I0
sS'practice_trials.thisN'
p75
I0
sg34
g11
sg15
(lp76
F3.1165283902082592
asg51
L5L
sg54
L3L
sa(dp77
g18
F7.4995420727645978
sg29
g33
sg17
I1
sg47
g68
sg48
Vtriple 
p78
sg49
Vhalf
p79
sg35
g36
sg50
L8L
sS'practice_trials.thisTrialN'
p80
I1
sg52
L0L
sS'practice_trials.thisRepN'
p81
I0
sg37
g38
sg53
L3L
sg27
g28
sg16
S'8'
sg14
(lp82
S'space'
p83
asS'practice_trials.thisIndex'
p84
I3
sS'practice_trials.thisN'
p85
I1
sg34
g11
sg15
(lp86
F3.7831416290719062
asg51
L2L
sg54
L4L
sa(dp87
g18
F1.7333645733306184
sg29
g33
sg17
I1
sg47
L0L
sg48
g69
sg49
VTIMES
p88
sg35
g36
sg50
L8L
sS'practice_trials.thisTrialN'
p89
I2
sg52
L0L
sS'practice_trials.thisRepN'
p90
I0
sg37
g38
sg53
L2L
sg27
g28
sg16
S'8'
sg14
(lp91
S'space'
p92
asS'practice_trials.thisIndex'
p93
I1
sS'practice_trials.thisN'
p94
I2
sg34
g11
sg15
(lp95
F2.1332839418901131
asg51
L3L
sg54
L3L
sa(dp96
g18
F3.666506850044243
sg29
g33
sg17
I1
sg47
L0L
sg48
g68
sg49
g79
sg35
g36
sg50
L7L
sS'practice_trials.thisTrialN'
p97
I3
sg52
L0L
sS'practice_trials.thisRepN'
p98
I0
sg37
g38
sg53
L2L
sg27
g28
sg16
S'7'
sg14
(lp99
S'space'
p100
asS'practice_trials.thisIndex'
p101
I2
sS'practice_trials.thisN'
p102
I3
sg34
g11
sg15
(lp103
F3.0665284077404067
asg51
L5L
sg54
L4L
sa(dp104
g18
F9.5993716055527329
sg29
g33
sg17
I1
sg47
Vincrease
p105
sg48
VDIVIDE
p106
sg49
Vdouble
p107
sg35
g36
sg50
L9L
sS'practice_trials.thisTrialN'
p108
I4
sg52
Vtriple
p109
sS'practice_trials.thisRepN'
p110
I0
sg37
g38
sg53
L4L
sg27
g28
sg16
S'9'
sg14
(lp111
S'space'
p112
asS'practice_trials.thisIndex'
p113
I5
sS'practice_trials.thisN'
p114
I4
sg34
g11
sg15
(lp115
F9.2160034100525081
asg51
L8L
sg54
L8L
sa(dp116
g18
F11.982493776828051
sg29
g33
sg17
I0
sg47
g105
sg48
g106
sg49
g109
sg35
g36
sg50
L3L
sS'practice_trials.thisTrialN'
p117
I5
sg52
L0L
sS'practice_trials.thisRepN'
p118
I0
sg37
g38
sg53
L3L
sg27
g28
sg16
S'9'
sg14
(lp119
S'space'
p120
asS'practice_trials.thisIndex'
p121
I4
sS'practice_trials.thisN'
p122
I5
sg34
g11
sg15
(lp123
F9.8991023786365986
asg51
L3L
sg54
L2L
sa(dp124
S'block.thisTrialN'
p125
I0
sS'block.thisRepN'
p126
I0
sg29
g33
sS'block.thisN'
p127
I0
sg55
(S'SUBTRACT'
S'DECREASE'
S'TRIPLE'
S'DOUBLE'
S'x'
S'y'
tp128
sg27
g28
sg57
L4L
sg58
(I6
I18
I17
I8
tp129
sg21
I0
sVY
L9L
sVX
L3L
sg61
Vtriple
p130
sg35
g36
sg37
g38
sg20
Nsg19
Nsg34
g11
sg60
L8L
sg56
Vdecrease
p131
sg59
L8L
sS'block.thisIndex'
p132
I11
sg62
VSUBTRACT
p133
sg63
Vdouble
p134
sg64
VBUUUxy
p135
sa(dp136
S'block.thisTrialN'
p137
I1
sS'block.thisRepN'
p138
I0
sg29
g33
sS'block.thisN'
p139
I1
sg55
(S'THIRD'
S'DOUBLE'
S'ADD'
S'DECREASE'
S'x'
S'y'
tp140
sg27
g28
sg57
L4L
sg58
(I5
I12
I24
I8
tp141
sg21
I0
sg22
F10.749041537521407
sVY
L7L
sVX
L6L
sg61
VADD
p142
sg35
g36
sg37
g38
sg20
Nsg19
S'space'
p143
sg34
g11
sg60
L8L
sg56
g134
sg59
L8L
sS'block.thisIndex'
p144
I14
sg62
Vthird
p145
sg63
g131
sg64
VUUBUxy
p146
sa(dp147
S'block.thisTrialN'
p148
I2
sS'block.thisRepN'
p149
I0
sg29
g33
sS'block.thisN'
p150
I2
sg55
(S'DIVIDE'
S'INCREASE'
S'x'
S'y'
tp151
sg27
g28
sg57
L2L
sg58
(I4
I2
tp152
sg21
I1
sg22
F5.1329658250324428
sg23
F2.7000029047485441
sVY
L2L
sVX
L3L
sg61
L0L
sg35
g36
sg37
g38
sg20
S'2'
sg19
S'space'
p153
sg34
g11
sg60
L2L
sg56
Vincrease
p154
sg59
L2L
sS'block.thisIndex'
p155
I0
sg62
VDIVIDE
p156
sg63
L0L
sg64
VBUxy
p157
sa(dp158
S'block.thisTrialN'
p159
I3
sS'block.thisRepN'
p160
I0
sg29
g33
sS'block.thisN'
p161
I3
sg55
(S'INCREASE'
S'ADD'
S'x'
S'y'
tp162
sg27
g28
sg57
L2L
sg58
(I5
I6
tp163
sg21
I1
sg22
F5.0996947968378663
sg23
F2.2833370837615803
sVY
L2L
sVX
L3L
sg61
L0L
sg35
g36
sg37
g38
sg20
S'6'
sg19
S'space'
p164
sg34
g11
sg60
L6L
sg56
g142
sg59
L6L
sS'block.thisIndex'
p165
I3
sg62
g154
sg63
L0L
sg64
VUBxy
p166
sa(dp167
S'block.thisTrialN'
p168
I4
sS'block.thisRepN'
p169
I0
sg29
g33
sS'block.thisN'
p170
I4
sg55
(S'HALF'
S'TRIPLE'
S'INCREASE'
S'DIVIDE'
S'x'
S'y'
tp171
sg27
g28
sg57
L4L
sg58
(I3
I4
I12
I6
tp172
sg21
I0
sg22
F9.0661235000006855
sg23
F11.699157042894512
sVY
L3L
sVX
L9L
sg61
g154
sg35
g36
sg37
g38
sg20
S'1'
sg19
S'space'
p173
sg34
g11
sg60
L6L
sg56
g130
sg59
L6L
sS'block.thisIndex'
p174
I16
sg62
Vhalf
p175
sg63
g156
sg64
VUUUBxy
p176
sa(dp177
S'block.thisTrialN'
p178
I5
sS'block.thisRepN'
p179
I0
sg29
g33
sS'block.thisN'
p180
I5
sg55
(S'THIRD'
S'DOUBLE'
S'INCREASE'
S'TIMES'
S'x'
S'y'
tp181
sg27
g28
sg57
L4L
sg58
(I8
I9
I18
I6
tp182
sg21
I0
sg22
F8.3827697578817606
sg23
F11.96586071245838
sVY
L4L
sVX
L2L
sg61
g154
sg35
g36
sg37
g38
sg20
S'2'
sg19
S'space'
p183
sg34
g11
sg60
L6L
sg56
g134
sg59
L6L
sS'block.thisIndex'
p184
I17
sg62
g145
sg63
VTIMES
p185
sg64
g176
sa(dp186
S'block.thisTrialN'
p187
I6
sS'block.thisRepN'
p188
I0
sg29
g33
sS'block.thisN'
p189
I6
sg55
(S'ADD'
S'HALF'
S'THIRD'
S'x'
S'y'
tp190
sg27
g28
sg57
L3L
sg58
(I2
I1
I9
tp191
sg21
I0
sg22
F8.6660812944173813
sg23
F7.4497212716378272
sVY
L8L
sVX
L6L
sg61
g145
sg35
g36
sg37
g38
sg20
S'2'
sg19
S'space'
p192
sg34
g11
sg60
L9L
sg56
g175
sg59
L9L
sS'block.thisIndex'
p193
I4
sg62
g142
sg63
L0L
sg64
VBUUxy
p194
sa(dp195
S'block.thisTrialN'
p196
I7
sS'block.thisRepN'
p197
I0
sg29
g33
sS'block.thisN'
p198
I7
sg55
(S'DOUBLE'
S'ADD'
S'INCREASE'
S'THIRD'
S'x'
S'y'
tp199
sg27
g28
sg57
L4L
sg58
(I1
I2
I4
I8
tp200
sg21
I0
sg22
F10.482554845395498
sg23
F4.8997918068198487
sVY
L2L
sVX
L3L
sg61
g154
sg35
g36
sg37
g38
sg20
S'5'
sg19
S'space'
p201
sg34
g11
sg60
L8L
sg56
g142
sg59
L8L
sS'block.thisIndex'
p202
I12
sg62
g134
sg63
g145
sg64
VUBUUxy
p203
sa(dp204
S'block.thisTrialN'
p205
I8
sS'block.thisRepN'
p206
I0
sg29
g33
sS'block.thisN'
p207
I8
sg55
(S'SUBTRACT'
S'DECREASE'
S'x'
S'y'
tp208
sg27
g28
sg57
L2L
sg58
(I5
I3
tp209
sg21
I1
sg22
F4.9330813830019906
sg23
F9.2494679680094123
sVY
L2L
sVX
L6L
sg61
L0L
sg35
g36
sg37
g38
sg20
S'3'
sg19
S'space'
p210
sg34
g11
sg60
L3L
sg56
g131
sg59
L3L
sS'block.thisIndex'
p211
I1
sg62
g133
sg63
L0L
sg64
g157
sa(dp212
S'block.thisTrialN'
p213
I9
sS'block.thisRepN'
p214
I0
sg29
g33
sS'block.thisN'
p215
I9
sg55
(S'THIRD'
S'TIMES'
S'DOUBLE'
S'DECREASE'
S'x'
S'y'
tp216
sg27
g28
sg57
L4L
sg58
(I1
I2
I6
I2
tp217
sg21
I0
sg22
F9.5660361842019483
sg23
F14.948927379446104
sVY
L3L
sVX
L2L
sg61
g134
sg35
g36
sg37
g38
sg20
S'3'
sg19
S'space'
p218
sg34
g11
sg60
L2L
sg56
g185
sg59
L2L
sS'block.thisIndex'
p219
I13
sg62
g145
sg63
g131
sg64
g203
sa(dp220
S'block.thisTrialN'
p221
I10
sS'block.thisRepN'
p222
I0
sg29
g33
sS'block.thisN'
p223
I10
sg55
(S'THIRD'
S'INCREASE'
S'DIVIDE'
S'DOUBLE'
S'x'
S'y'
tp224
sg27
g28
sg57
L4L
sg58
(I18
I2
I3
I1
tp225
sg21
I1
sg22
F9.5659990879939869
sg23
F6.9162890851730481
sVY
L9L
sVX
L9L
sg61
g156
sg35
g36
sg37
g38
sg20
S'1'
sg19
S'space'
p226
sg34
g11
sg60
L1L
sg56
g154
sg59
L1L
sS'block.thisIndex'
p227
I15
sg62
g145
sg63
g134
sg64
g146
sa(dp228
S'block.thisTrialN'
p229
I11
sS'block.thisRepN'
p230
I0
sg29
g33
sS'block.thisN'
p231
I11
sg55
(S'ADD'
S'DOUBLE'
S'DECREASE'
S'THIRD'
S'x'
S'y'
tp232
sg27
g28
sg57
L4L
sg58
(I2
I1
I2
I8
tp233
sg21
I1
sg22
F15.148902812041342
sg23
F12.382486987509765
sVY
L6L
sVX
L6L
sg61
g131
sg35
g36
sg37
g38
sg20
S'8'
sg19
S'space'
p234
sg34
g11
sg60
L8L
sg56
g134
sg59
L8L
sS'block.thisIndex'
p235
I10
sg62
g142
sg63
g145
sg64
g135
sa(dp236
S'block.thisTrialN'
p237
I12
sS'block.thisRepN'
p238
I0
sg29
g33
sS'block.thisN'
p239
I12
sg55
(S'HALF'
S'ADD'
S'TRIPLE'
S'x'
S'y'
tp240
sg27
g28
sg57
L3L
sg58
(I9
I12
I6
tp241
sg21
I1
sg22
F12.149131338228472
sg23
F7.9328518069814891
sVY
L3L
sVX
L3L
sg61
g130
sg35
g36
sg37
g38
sg20
S'6'
sg19
S'space'
p242
sg34
g11
sg60
L6L
sg56
g142
sg59
L6L
sS'block.thisIndex'
p243
I6
sg62
g175
sg63
L0L
sg64
VUBUxy
p244
sa(dp245
S'block.thisTrialN'
p246
I13
sS'block.thisRepN'
p247
I0
sg29
g33
sS'block.thisN'
p248
I13
sg55
(S'INCREASE'
S'SUBTRACT'
S'HALF'
S'x'
S'y'
tp249
sg27
g28
sg57
L3L
sg58
(I4
I2
I3
tp250
sg21
I1
sg22
F8.1161427304614335
sg23
F7.7495437350589782
sVY
L2L
sVX
L8L
sg61
g175
sg35
g36
sg37
g38
sg20
S'3'
sg19
S'space'
p251
sg34
g11
sg60
L3L
sg56
g133
sg59
L3L
sS'block.thisIndex'
p252
I7
sg62
g154
sg63
L0L
sg64
g244
sa(dp253
S'block.thisTrialN'
p254
I14
sS'block.thisRepN'
p255
I0
sg29
g33
sS'block.thisN'
p256
I14
sg55
(S'THIRD'
S'HALF'
S'ADD'
S'x'
S'y'
tp257
sg27
g28
sg57
L3L
sg58
(I6
I3
I1
tp258
sg21
I1
sg22
F7.2662014719098806
sg23
F6.3163263913011178
sVY
L3L
sVX
L3L
sg61
g142
sg35
g36
sg37
g38
sg20
S'1'
sg19
S'space'
p259
sg34
g11
sg60
L1L
sg56
g175
sg59
L1L
sS'block.thisIndex'
p260
I9
sg62
g145
sg63
L0L
sg64
VUUBxy
p261
sa(dp262
S'block.thisTrialN'
p263
I15
sS'block.thisRepN'
p264
I0
sg29
g33
sS'block.thisN'
p265
I15
sg55
(S'DIVIDE'
S'DECREASE'
S'TRIPLE'
S'x'
S'y'
tp266
sg27
g28
sg57
L3L
sg58
(I9
I8
I4
tp267
sg21
I1
sg22
F7.9494897708063945
sg23
F12.349178863223642
sVY
L2L
sVX
L3L
sg61
g130
sg35
g36
sg37
g38
sg20
S'4'
sg19
S'space'
p268
sg34
g11
sg60
L4L
sg56
g131
sg59
L4L
sS'block.thisIndex'
p269
I5
sg62
g156
sg63
L0L
sg64
g194
sa(dp270
S'block.thisTrialN'
p271
I16
sS'block.thisRepN'
p272
I0
sg29
g33
sS'block.thisN'
p273
I16
sg55
(S'DECREASE'
S'DIVIDE'
S'x'
S'y'
tp274
sg27
g28
sg57
L2L
sg58
(I2
I1
tp275
sg21
I0
sg22
F2.3166343591874465
sg23
F2.899968538316898
sVY
L4L
sVX
L8L
sg61
L0L
sg35
g36
sg37
g38
sg20
S'3'
sg19
S'space'
p276
sg34
g11
sg60
L1L
sg56
g156
sg59
L1L
sS'block.thisIndex'
p277
I2
sg62
g131
sg63
L0L
sg64
g166
sa(dp278
S'block.thisTrialN'
p279
I17
sS'block.thisRepN'
p280
I0
sg29
g33
sS'block.thisN'
p281
I17
sg55
(S'INCREASE'
S'TRIPLE'
S'DIVIDE'
S'x'
S'y'
tp282
sg27
g28
sg57
L3L
sg58
(I2
I6
I7
tp283
sg21
I1
sg22
F11.382557330070995
sg23
F5.1663404423743486
sVY
L3L
sVX
L6L
sg61
g156
sg35
g36
sg37
g38
sg20
S'7'
sg19
S'space'
p284
sg34
g11
sg60
L7L
sg56
g130
sg59
L7L
sS'block.thisIndex'
p285
I8
sg62
g154
sg63
L0L
sg64
g261
sa(dp286
S'block.thisTrialN'
p287
I0
sS'block.thisRepN'
p288
I0
sg29
g33
sS'block.thisN'
p289
I0
sVRule
p290
(S'TRIPLE'
S'SUBTRACT'
S'DOUBLE'
S'DECREASE'
S'x'
S'y'
tp291
sg27
g28
sVLength
p292
L4L
sVIntermediate
p293
(I2
I4
I1
I3
tp294
sg21
I0
sg22
F12.149130638223141
sVY
L3L
sVX
L3L
sVOperatorc
p295
Vdouble
p296
sg35
g36
sg37
g38
sg20
Nsg19
S'space'
p297
sg34
g11
sVResult
p298
L3L
sVOperatora
p299
VSUBTRACT
p300
sVCorrectResponse
p301
L3L
sS'block.thisIndex'
p302
I13
sVOperatorb
p303
Vtriple
p304
sVOperatord
p305
Vdecrease
p306
sVStructure
p307
VUBUUxy
p308
sa(dp309
S'block.thisTrialN'
p310
I1
sS'block.thisRepN'
p311
I0
sg29
g33
sS'block.thisN'
p312
I1
sg290
(S'TRIPLE'
S'HALF'
S'ADD'
S'DECREASE'
S'x'
S'y'
tp313
sg27
g28
sg292
L4L
sg293
(I1
I4
I2
I6
tp314
sg21
I1
sg22
F7.3662112358724698
sg23
F6.116439149598591
sVY
L3L
sVX
L2L
sg295
VADD
p315
sg35
g36
sg37
g38
sg20
S'6'
sg19
S'space'
p316
sg34
g11
sg298
L6L
sg299
Vhalf
p317
sg301
L6L
sS'block.thisIndex'
p318
I15
sg303
g304
sg305
g306
sg307
VUUBUxy
p319
sa(dp320
S'block.thisTrialN'
p321
I2
sS'block.thisRepN'
p322
I0
sg29
g33
sS'block.thisN'
p323
I2
sg290
(S'TIMES'
S'INCREASE'
S'THIRD'
S'DOUBLE'
S'x'
S'y'
tp324
sg27
g28
sg292
L4L
sg293
(I6
I2
I3
I9
tp325
sg21
I0
sg22
F9.2659278004430234
sg23
F16.665414263959974
sVY
L3L
sVX
L3L
sg295
Vthird
p326
sg35
g36
sg37
g38
sg20
S'3'
sg19
S'space'
p327
sg34
g11
sg298
L9L
sg299
Vincrease
p328
sg301
L9L
sS'block.thisIndex'
p329
I11
sg303
VTIMES
p330
sg305
g296
sg307
VBUUUxy
p331
sa(dp332
S'block.thisTrialN'
p333
I3
sS'block.thisRepN'
p334
I0
sg29
g33
sS'block.thisN'
p335
I3
sg290
(S'THIRD'
S'SUBTRACT'
S'x'
S'y'
tp336
sg27
g28
sg292
L2L
sg293
(I3
I1
tp337
sg21
I1
sg22
F2.2166469928342849
sg23
F4.6831560126738623
sVY
L2L
sVX
L5L
sg295
L0L
sg35
g36
sg37
g38
sg20
S'1'
sg19
S'space'
p338
sg34
g11
sg298
L1L
sg299
g300
sg301
L1L
sS'block.thisIndex'
p339
I3
sg303
g326
sg305
L0L
sg307
VUBxy
p340
sa(dp341
S'block.thisTrialN'
p342
I4
sS'block.thisRepN'
p343
I0
sg29
g33
sS'block.thisN'
p344
I4
sg290
(S'INCREASE'
S'DIVIDE'
S'TRIPLE'
S'DOUBLE'
S'x'
S'y'
tp345
sg27
g28
sg292
L4L
sg293
(I6
I18
I3
I4
tp346
sg21
I0
sg22
F10.149311569402926
sg23
F10.049352900008671
sVY
L6L
sVX
L3L
sg295
g304
sg35
g36
sg37
g38
sg20
S'3'
sg19
S'space'
p347
sg34
g11
sg298
L4L
sg299
VDIVIDE
p348
sg301
L4L
sS'block.thisIndex'
p349
I12
sg303
g328
sg305
g296
sg307
g308
sa(dp350
S'block.thisTrialN'
p351
I5
sS'block.thisRepN'
p352
I0
sg29
g33
sS'block.thisN'
p353
I5
sg290
(S'SUBTRACT'
S'HALF'
S'INCREASE'
S'TRIPLE'
S'x'
S'y'
tp354
sg27
g28
sg292
L4L
sg293
(I15
I16
I8
I3
tp355
sg21
I1
sg22
F10.432627655216493
sg23
F11.132596613606438
sVY
L5L
sVX
L5L
sg295
g328
sg35
g36
sg37
g38
sg20
S'3'
sg19
S'space'
p356
sg34
g11
sg298
L3L
sg299
g317
sg301
L3L
sS'block.thisIndex'
p357
I10
sg303
g300
sg305
g304
sg307
g331
sa(dp358
S'block.thisTrialN'
p359
I6
sS'block.thisRepN'
p360
I0
sg29
g33
sS'block.thisN'
p361
I6
sg290
(S'THIRD'
S'ADD'
S'x'
S'y'
tp362
sg27
g28
sg292
L2L
sg293
(I9
I3
tp363
sg21
I1
sg22
F2.0499695356702432
sg23
F2.5166885335929692
sVY
L5L
sVX
L4L
sg295
L0L
sg35
g36
sg37
g38
sg20
S'3'
sg19
S'space'
p364
sg34
g11
sg298
L3L
sg299
g315
sg301
L3L
sS'block.thisIndex'
p365
I2
sg303
g326
sg305
L0L
sg307
g340
sa(dp366
S'block.thisTrialN'
p367
I7
sS'block.thisRepN'
p368
I0
sg29
g33
sS'block.thisN'
p369
I7
sg290
(S'TIMES'
S'DECREASE'
S'HALF'
S'x'
S'y'
tp370
sg27
g28
sg292
L3L
sg293
(I4
I3
I9
tp371
sg21
I0
sg22
F3.8165421438170597
sg23
F4.8497582278214395
sVY
L3L
sVX
L8L
sg295
g317
sg35
g36
sg37
g38
sg20
S'1'
sg19
S'space'
p372
sg34
g11
sg298
L9L
sg299
g306
sg301
L9L
sS'block.thisIndex'
p373
I4
sg303
g330
sg305
L0L
sg307
VBUUxy
p374
sa(dp375
S'block.thisTrialN'
p376
I8
sS'block.thisRepN'
p377
I0
sg29
g33
sS'block.thisN'
p378
I8
sg290
(S'THIRD'
S'DECREASE'
S'TIMES'
S'x'
S'y'
tp379
sg27
g28
sg292
L3L
sg293
(I25
I24
I8
tp380
sg21
I1
sg22
F3.7163339505204931
sg23
F8.3328569164732471
sVY
L5L
sVX
L5L
sg295
g330
sg35
g36
sg37
g38
sg20
S'8'
sg19
S'space'
p381
sg34
g11
sg298
L8L
sg299
g306
sg301
L8L
sS'block.thisIndex'
p382
I8
sg303
g326
sg305
L0L
sg307
VUUBxy
p383
sa(dp384
S'block.thisTrialN'
p385
I9
sS'block.thisRepN'
p386
I0
sg29
g33
sS'block.thisN'
p387
I9
sg290
(S'TRIPLE'
S'DECREASE'
S'HALF'
S'TIMES'
S'x'
S'y'
tp388
sg27
g28
sg292
L4L
sg293
(I6
I3
I2
I6
tp389
sg21
I0
sg22
F9.3493646938586608
sg23
F10.432682949467562
sVY
L2L
sVX
L3L
sg295
g317
sg35
g36
sg37
g38
sg20
S'3'
sg19
S'space'
p390
sg34
g11
sg298
L6L
sg299
g306
sg301
L6L
sS'block.thisIndex'
p391
I17
sg303
g304
sg305
g330
sg307
VUUUBxy
p392
sa(dp393
S'block.thisTrialN'
p394
I10
sS'block.thisRepN'
p395
I0
sg29
g33
sS'block.thisN'
p396
I10
sg290
(S'THIRD'
S'ADD'
S'INCREASE'
S'x'
S'y'
tp397
sg27
g28
sg292
L3L
sg293
(I8
I15
I5
tp398
sg21
I1
sg22
F7.2828453850233927
sg23
F9.5993908535456285
sVY
L7L
sVX
L7L
sg295
g328
sg35
g36
sg37
g38
sg20
S'5'
sg19
S'space'
p399
sg34
g11
sg298
L5L
sg299
g315
sg301
L5L
sS'block.thisIndex'
p400
I6
sg303
g326
sg305
L0L
sg307
VUBUxy
p401
sa(dp402
S'block.thisTrialN'
p403
I11
sS'block.thisRepN'
p404
I0
sg29
g33
sS'block.thisN'
p405
I11
sg290
(S'TIMES'
S'THIRD'
S'HALF'
S'x'
S'y'
tp406
sg27
g28
sg292
L3L
sg293
(I3
I1
I5
tp407
sg21
I1
sg22
F5.3999148189323023
sg23
F1.5833229802083224
sVY
L5L
sVX
L6L
sg295
g317
sg35
g36
sg37
g38
sg20
S'5'
sg19
S'space'
p408
sg34
g11
sg298
L5L
sg299
g326
sg301
L5L
sS'block.thisIndex'
p409
I5
sg303
g330
sg305
L0L
sg307
g374
sa(dp410
S'block.thisTrialN'
p411
I12
sS'block.thisRepN'
p412
I0
sg29
g33
sS'block.thisN'
p413
I12
sg290
(S'TRIPLE'
S'HALF'
S'DIVIDE'
S'x'
S'y'
tp414
sg27
g28
sg292
L3L
sg293
(I2
I1
I3
tp415
sg21
I0
sg22
F4.5331168692791834
sg23
F13.682379093719646
sVY
L2L
sVX
L4L
sg295
g348
sg35
g36
sg37
g38
sg20
S'6'
sg19
S'space'
p416
sg34
g11
sg298
L3L
sg299
g317
sg301
L3L
sS'block.thisIndex'
p417
I9
sg303
g304
sg305
L0L
sg307
g383
sa(dp418
S'block.thisTrialN'
p419
I13
sS'block.thisRepN'
p420
I0
sg29
g33
sS'block.thisN'
p421
I13
sg290
(S'THIRD'
S'INCREASE'
S'HALF'
S'DIVIDE'
S'x'
S'y'
tp422
sg27
g28
sg292
L4L
sg293
(I4
I2
I3
I1
tp423
sg21
I1
sg22
F13.499036025605164
sg23
F9.0327775797341019
sVY
L2L
sVX
L8L
sg295
g317
sg35
g36
sg37
g38
sg20
S'1'
sg19
S'space'
p424
sg34
g11
sg298
L1L
sg299
g328
sg301
L1L
sS'block.thisIndex'
p425
I16
sg303
g326
sg305
g348
sg307
g392
sa(dp426
S'block.thisTrialN'
p427
I14
sS'block.thisRepN'
p428
I0
sg29
g33
sS'block.thisN'
p429
I14
sg290
(S'THIRD'
S'DOUBLE'
S'ADD'
S'INCREASE'
S'x'
S'y'
tp430
sg27
g28
sg292
L4L
sg293
(I10
I12
I24
I8
tp431
sg21
I1
sg22
F12.815736527903937
sg23
F12.599140279809944
sVY
L2L
sVX
L9L
sg295
g315
sg35
g36
sg37
g38
sg20
S'8'
sg19
S'space'
p432
sg34
g11
sg298
L8L
sg299
g296
sg301
L8L
sS'block.thisIndex'
p433
I14
sg303
g326
sg305
g328
sg307
g319
sa(dp434
S'block.thisTrialN'
p435
I15
sS'block.thisRepN'
p436
I0
sg29
g33
sS'block.thisN'
p437
I15
sg290
(S'THIRD'
S'TIMES'
S'DECREASE'
S'x'
S'y'
tp438
sg27
g28
sg292
L3L
sg293
(I3
I15
I5
tp439
sg21
I1
sg22
F2.7332119893981144
sg23
F7.1995859232265502
sVY
L5L
sVX
L4L
sg295
g306
sg35
g36
sg37
g38
sg20
S'5'
sg19
S'space'
p440
sg34
g11
sg298
L5L
sg299
g330
sg301
L5L
sS'block.thisIndex'
p441
I7
sg303
g326
sg305
L0L
sg307
g401
sa(dp442
S'block.thisTrialN'
p443
I16
sS'block.thisRepN'
p444
I0
sg29
g33
sS'block.thisN'
p445
I16
sg290
(S'TIMES'
S'INCREASE'
S'x'
S'y'
tp446
sg27
g28
sg292
L2L
sg293
(I3
I6
tp447
sg21
I1
sg22
F4.3497797504533082
sg23
F2.866615618695505
sVY
L2L
sVX
L2L
sg295
L0L
sg35
g36
sg37
g38
sg20
S'6'
sg19
S'space'
p448
sg34
g11
sg298
L6L
sg299
g328
sg301
L6L
sS'block.thisIndex'
p449
I1
sg303
g330
sg305
L0L
sg307
VBUxy
p450
sa(dp451
S'block.thisTrialN'
p452
I17
sS'block.thisRepN'
p453
I0
sg29
g33
sS'block.thisN'
p454
I17
sg290
(S'TIMES'
S'DECREASE'
S'x'
S'y'
tp455
sg27
g28
sg292
L2L
sg293
(I2
I4
tp456
sg21
I1
sg22
F7.6495087736984715
sg23
F3.1832702758256346
sVY
L2L
sVX
L3L
sg295
L0L
sg35
g36
sg37
g38
sg20
S'4'
sg19
S'space'
p457
sg34
g11
sg298
L4L
sg299
g306
sg301
L4L
sS'block.thisIndex'
p458
I0
sg303
g330
sg305
L0L
sg307
g450
sa(dp459
S'block.thisTrialN'
p460
I0
sS'block.thisRepN'
p461
I0
sg29
g33
sS'block.thisN'
p462
I0
sVRule
p463
(S'INCREASE'
S'SUBTRACT'
S'x'
S'y'
tp464
sg27
g28
sVLength
p465
L2L
sVIntermediate
p466
(I3
I4
tp467
sg21
I1
sg22
F8.9993763651000336
sg23
F4.0998578798025846
sVY
L3L
sVX
L6L
sVOperatorc
p468
L0L
sg35
g36
sg37
g38
sg20
S'4'
sg19
S'space'
p469
sg34
g11
sVResult
p470
L4L
sVOperatora
p471
VSUBTRACT
p472
sVCorrectResponse
p473
L4L
sS'block.thisIndex'
p474
I2
sVOperatorb
p475
Vincrease
p476
sVOperatord
p477
L0L
sVStructure
p478
VUBxy
p479
sa(dp480
S'block.thisTrialN'
p481
I1
sS'block.thisRepN'
p482
I0
sg29
g33
sS'block.thisN'
p483
I1
sg463
(S'INCREASE'
S'ADD'
S'HALF'
S'TRIPLE'
S'x'
S'y'
tp484
sg27
g28
sg465
L4L
sg466
(I6
I3
I6
I7
tp485
sg21
I0
sg22
F2.7665729580912739
sg23
F4.9164490186376497
sVY
L3L
sVX
L2L
sg468
Vhalf
p486
sg35
g36
sg37
g38
sg20
S'2'
sg19
S'space'
p487
sg34
g11
sg470
L7L
sg471
VADD
p488
sg473
L7L
sS'block.thisIndex'
p489
I13
sg475
g476
sg477
Vtriple
p490
sg478
VUBUUxy
p491
sa(dp492
S'block.thisTrialN'
p493
I2
sS'block.thisRepN'
p494
I0
sg29
g33
sS'block.thisN'
p495
I2
sg463
(S'DOUBLE'
S'THIRD'
S'TIMES'
S'x'
S'y'
tp496
sg27
g28
sg465
L3L
sg466
(I12
I4
I8
tp497
sg21
I1
sg22
F4.0498222010210156
sg23
F6.8329519313992932
sVY
L6L
sVX
L2L
sg468
VTIMES
p498
sg35
g36
sg37
g38
sg20
S'8'
sg19
S'space'
p499
sg34
g11
sg470
L8L
sg471
Vthird
p500
sg473
L8L
sS'block.thisIndex'
p501
I9
sg475
Vdouble
p502
sg477
L0L
sg478
VUUBxy
p503
sa(dp504
S'block.thisTrialN'
p505
I3
sS'block.thisRepN'
p506
I0
sg29
g33
sS'block.thisN'
p507
I3
sg463
(S'THIRD'
S'DIVIDE'
S'DECREASE'
S'x'
S'y'
tp508
sg27
g28
sg465
L3L
sg466
(I6
I3
I1
tp509
sg21
I1
sg22
F5.8996556708589196
sg23
F12.532488684752025
sVY
L2L
sVX
L7L
sg468
Vdecrease
p510
sg35
g36
sg37
g38
sg20
S'1'
sg19
S'space'
p511
sg34
g11
sg470
L1L
sg471
VDIVIDE
p512
sg473
L1L
sS'block.thisIndex'
p513
I6
sg475
g500
sg477
L0L
sg478
VUBUxy
p514
sa(dp515
S'block.thisTrialN'
p516
I4
sS'block.thisRepN'
p517
I0
sg29
g33
sS'block.thisN'
p518
I4
sg463
(S'SUBTRACT'
S'DOUBLE'
S'TRIPLE'
S'DECREASE'
S'x'
S'y'
tp519
sg27
g28
sg465
L4L
sg466
(I2
I6
I12
I8
tp520
sg21
I0
sg22
F10.082655774895102
sg23
F8.5494913106085733
sVY
L4L
sVX
L3L
sg468
g490
sg35
g36
sg37
g38
sg20
S'3'
sg19
S'space'
p521
sg34
g11
sg470
L8L
sg471
g502
sg473
L8L
sS'block.thisIndex'
p522
I10
sg475
g472
sg477
g510
sg478
VBUUUxy
p523
sa(dp524
S'block.thisTrialN'
p525
I5
sS'block.thisRepN'
p526
I0
sg29
g33
sS'block.thisN'
p527
I5
sg463
(S'SUBTRACT'
S'TRIPLE'
S'DECREASE'
S'x'
S'y'
tp528
sg27
g28
sg465
L3L
sg466
(I4
I12
I3
tp529
sg21
I1
sg22
F3.0998890266055241
sg23
F8.1828499695984647
sVY
L9L
sVX
L5L
sg468
g510
sg35
g36
sg37
g38
sg20
S'3'
sg19
S'space'
p530
sg34
g11
sg470
L3L
sg471
g490
sg473
L3L
sS'block.thisIndex'
p531
I4
sg475
g472
sg477
L0L
sg478
VBUUxy
p532
sa(dp533
S'block.thisTrialN'
p534
I6
sS'block.thisRepN'
p535
I0
sg29
g33
sS'block.thisN'
p536
I6
sg463
(S'DECREASE'
S'TRIPLE'
S'DIVIDE'
S'DOUBLE'
S'x'
S'y'
tp537
sg27
g28
sg465
L4L
sg466
(I6
I2
I6
I5
tp538
sg21
I0
sg22
F14.015660515753552
sg23
F10.982569368905388
sVY
L3L
sVX
L3L
sg468
g512
sg35
g36
sg37
g38
sg20
S'6'
sg19
S'space'
p539
sg34
g11
sg470
L5L
sg471
g490
sg473
L5L
sS'block.thisIndex'
p540
I14
sg475
g510
sg477
g502
sg478
VUUBUxy
p541
sa(dp542
S'block.thisTrialN'
p543
I7
sS'block.thisRepN'
p544
I0
sg29
g33
sS'block.thisN'
p545
I7
sg463
(S'THIRD'
S'DECREASE'
S'TIMES'
S'HALF'
S'x'
S'y'
tp546
sg27
g28
sg465
L4L
sg466
(I4
I16
I15
I5
tp547
sg21
I1
sg22
F9.8493351218057796
sg23
F8.2494952651904896
sVY
L4L
sVX
L8L
sg468
g498
sg35
g36
sg37
g38
sg20
S'5'
sg19
S'space'
p548
sg34
g11
sg470
L5L
sg471
g510
sg473
L5L
sS'block.thisIndex'
p549
I15
sg475
g500
sg477
g486
sg478
g541
sa(dp550
S'block.thisTrialN'
p551
I8
sS'block.thisRepN'
p552
I0
sg29
g33
sS'block.thisN'
p553
I8
sg463
(S'TIMES'
S'DOUBLE'
S'x'
S'y'
tp554
sg27
g28
sg465
L2L
sg466
(I4
I8
tp555
sg21
I1
sg22
F2.2333010550355539
sg23
F3.1166148312622681
sVY
L2L
sVX
L2L
sg468
L0L
sg35
g36
sg37
g38
sg20
S'8'
sg19
S'space'
p556
sg34
g11
sg470
L8L
sg471
g502
sg473
L8L
sS'block.thisIndex'
p557
I1
sg475
g498
sg477
L0L
sg478
VBUxy
p558
sa(dp559
S'block.thisTrialN'
p560
I9
sS'block.thisRepN'
p561
I0
sg29
g33
sS'block.thisN'
p562
I9
sg463
(S'DOUBLE'
S'DECREASE'
S'ADD'
S'x'
S'y'
tp563
sg27
g28
sg465
L3L
sg466
(I4
I3
I6
tp564
sg21
I0
sg22
F4.1331863020313904
sg23
F6.7069594787899405
sVY
L2L
sVX
L2L
sg468
g488
sg35
g36
sg37
g38
sg20
S'1'
sg19
S'space'
p565
sg34
g11
sg470
L6L
sg471
g510
sg473
L6L
sS'block.thisIndex'
p566
I8
sg475
g502
sg477
L0L
sg478
g503
sa(dp567
S'block.thisTrialN'
p568
I10
sS'block.thisRepN'
p569
I0
sg29
g33
sS'block.thisN'
p570
I10
sg463
(S'THIRD'
S'DIVIDE'
S'x'
S'y'
tp571
sg27
g28
sg465
L2L
sg466
(I3
I1
tp572
sg21
I1
sg22
F1.4666602041106671
sg23
F1.9668563584564254
sVY
L2L
sVX
L6L
sg468
L0L
sg35
g36
sg37
g38
sg20
S'1'
sg19
S'space'
p573
sg34
g11
sg470
L1L
sg471
g512
sg473
L1L
sS'block.thisIndex'
p574
I3
sg475
g500
sg477
L0L
sg478
g479
sa(dp575
S'block.thisTrialN'
p576
I11
sS'block.thisRepN'
p577
I0
sg29
g33
sS'block.thisN'
p578
I11
sg463
(S'DECREASE'
S'TRIPLE'
S'HALF'
S'SUBTRACT'
S'x'
S'y'
tp579
sg27
g28
sg465
L4L
sg466
(I4
I2
I6
I5
tp580
sg21
I0
sg22
F8.4327550419839099
sg23
F18.315286299912259
sVY
L2L
sVX
L6L
sg468
g486
sg35
g36
sg37
g38
sg20
S'4'
sg19
S'space'
p581
sg34
g11
sg470
L5L
sg471
g490
sg473
L5L
sS'block.thisIndex'
p582
I16
sg475
g510
sg477
g472
sg478
VUUUBxy
p583
sa(dp584
S'block.thisTrialN'
p585
I12
sS'block.thisRepN'
p586
I0
sg29
g33
sS'block.thisN'
p587
I12
sg463
(S'DIVIDE'
S'THIRD'
S'x'
S'y'
tp588
sg27
g28
sg465
L2L
sg466
(I3
I1
tp589
sg21
I1
sg22
F4.0831590223824605
sg23
F3.5165765453130007
sVY
L3L
sVX
L9L
sg468
L0L
sg35
g36
sg37
g38
sg20
S'1'
sg19
S'space'
p590
sg34
g11
sg470
L1L
sg471
g500
sg473
L1L
sS'block.thisIndex'
p591
I0
sg475
g512
sg477
L0L
sg478
g558
sa(dp592
S'block.thisTrialN'
p593
I13
sS'block.thisRepN'
p594
I0
sg29
g33
sS'block.thisN'
p595
I13
sg463
(S'SUBTRACT'
S'TRIPLE'
S'DECREASE'
S'DOUBLE'
S'x'
S'y'
tp596
sg27
g28
sg465
L4L
sg466
(I4
I3
I9
I1
tp597
sg21
I1
sg22
F13.082206771709025
sg23
F9.5159840569831431
sVY
L8L
sVX
L2L
sg468
g510
sg35
g36
sg37
g38
sg20
S'1'
sg19
S'space'
p598
sg34
g11
sg470
L1L
sg471
g490
sg473
L1L
sS'block.thisIndex'
p599
I11
sg475
g472
sg477
g502
sg478
g523
sa(dp600
S'block.thisTrialN'
p601
I14
sS'block.thisRepN'
p602
I0
sg29
g33
sS'block.thisN'
p603
I14
sg463
(S'DOUBLE'
S'DIVIDE'
S'TRIPLE'
S'INCREASE'
S'x'
S'y'
tp604
sg27
g28
sg465
L4L
sg466
(I5
I15
I3
I6
tp605
sg21
I0
sg22
F4.8997592601226643
sg23
F11.99921398202423
sVY
L5L
sVX
L4L
sg468
g490
sg35
g36
sg37
g38
sg20
S'4'
sg19
S'space'
p606
sg34
g11
sg470
L6L
sg471
g512
sg473
L6L
sS'block.thisIndex'
p607
I12
sg475
g502
sg477
g476
sg478
g491
sa(dp608
S'block.thisTrialN'
p609
I15
sS'block.thisRepN'
p610
I0
sg29
g33
sS'block.thisN'
p611
I15
sg463
(S'THIRD'
S'TIMES'
S'HALF'
S'x'
S'y'
tp612
sg27
g28
sg465
L3L
sg466
(I3
I18
I6
tp613
sg21
I1
sg22
F2.1999449857976288
sg23
F7.6828819912625477
sVY
L6L
sVX
L6L
sg468
g486
sg35
g36
sg37
g38
sg20
S'6'
sg19
S'space'
p614
sg34
g11
sg470
L6L
sg471
g498
sg473
L6L
sS'block.thisIndex'
p615
I7
sg475
g500
sg477
L0L
sg478
g514
sa(dp616
S'block.thisTrialN'
p617
I16
sS'block.thisRepN'
p618
I0
sg29
g33
sS'block.thisN'
p619
I16
sg463
(S'TIMES'
S'HALF'
S'INCREASE'
S'x'
S'y'
tp620
sg27
g28
sg465
L3L
sg466
(I6
I3
I9
tp621
sg21
I1
sg22
F3.6998863669577986
sg23
F6.9827443506801501
sVY
L3L
sVX
L5L
sg468
g476
sg35
g36
sg37
g38
sg20
S'9'
sg19
S'space'
p622
sg34
g11
sg470
L9L
sg471
g486
sg473
L9L
sS'block.thisIndex'
p623
I5
sg475
g498
sg477
L0L
sg478
g532
sa(dp624
S'block.thisTrialN'
p625
I17
sS'block.thisRepN'
p626
I0
sg29
g33
sS'block.thisN'
p627
I17
sg463
(S'HALF'
S'TRIPLE'
S'INCREASE'
S'SUBTRACT'
S'x'
S'y'
tp628
sg27
g28
sg465
L4L
sg466
(I1
I2
I6
I3
tp629
sg21
I0
sg22
F13.682338148006238
sg23
F12.949057915713638
sVY
L2L
sVX
L3L
sg468
g476
sg35
g36
sg37
g38
sg20
S'2'
sg19
S'space'
p630
sg34
g11
sg470
L3L
sg471
g490
sg473
L3L
sS'block.thisIndex'
p631
I17
sg475
g486
sg477
g472
sg478
g583
sa(dp632
S'block.thisTrialN'
p633
I0
sS'block.thisRepN'
p634
I0
sg29
g33
sS'block.thisN'
p635
I0
sVRule
p636
(S'TIMES'
S'THIRD'
S'x'
S'y'
tp637
sg27
g28
sVLength
p638
L2L
sVIntermediate
p639
(I1
I4
tp640
sg21
I1
sg22
F12.832412287825719
sg23
F3.4998923862585798
sVY
L4L
sVX
L3L
sVOperatorc
p641
L0L
sg35
g36
sg37
g38
sg20
S'4'
sg19
S'space'
p642
sg34
g11
sVResult
p643
L4L
sVOperatora
p644
Vthird
p645
sVCorrectResponse
p646
L4L
sS'block.thisIndex'
p647
I1
sVOperatorb
p648
VTIMES
p649
sVOperatord
p650
L0L
sVStructure
p651
VBUxy
p652
sa(dp653
S'block.thisTrialN'
p654
I1
sS'block.thisRepN'
p655
I0
sg29
g33
sS'block.thisN'
p656
I1
sg636
(S'TIMES'
S'DECREASE'
S'THIRD'
S'DOUBLE'
S'x'
S'y'
tp657
sg27
g28
sg638
L4L
sg639
(I6
I2
I1
I2
tp658
sg21
I1
sg22
F3.299869708600454
sg23
F16.332182186772116
sVY
L2L
sVX
L3L
sg641
g645
sg35
g36
sg37
g38
sg20
S'2'
sg19
S'space'
p659
sg34
g11
sg643
L2L
sg644
Vdecrease
p660
sg646
L2L
sS'block.thisIndex'
p661
I11
sg648
g649
sg650
Vdouble
p662
sg651
VBUUUxy
p663
sa(dp664
S'block.thisTrialN'
p665
I2
sS'block.thisRepN'
p666
I0
sg29
g33
sS'block.thisN'
p667
I2
sg636
(S'ADD'
S'DECREASE'
S'HALF'
S'x'
S'y'
tp668
sg27
g28
sg638
L3L
sg639
(I3
I2
I6
tp669
sg21
I1
sg22
F5.3161706576356664
sg23
F4.7998096898663789
sVY
L4L
sVX
L6L
sg641
Vhalf
p670
sg35
g36
sg37
g38
sg20
S'6'
sg19
S'space'
p671
sg34
g11
sg643
L6L
sg644
g660
sg646
L6L
sS'block.thisIndex'
p672
I4
sg648
VADD
p673
sg650
L0L
sg651
VBUUxy
p674
sa(dp675
S'block.thisTrialN'
p676
I3
sS'block.thisRepN'
p677
I0
sg29
g33
sS'block.thisN'
p678
I3
sg636
(S'DOUBLE'
S'TIMES'
S'THIRD'
S'x'
S'y'
tp679
sg27
g28
sg638
L3L
sg639
(I1
I4
I8
tp680
sg21
I1
sg22
F5.6663518161512911
sg23
F5.1331103600095958
sVY
L4L
sVX
L3L
sg641
g645
sg35
g36
sg37
g38
sg20
S'8'
sg19
S'space'
p681
sg34
g11
sg643
L8L
sg644
g649
sg646
L8L
sS'block.thisIndex'
p682
I6
sg648
g662
sg650
L0L
sg651
VUBUxy
p683
sa(dp684
S'block.thisTrialN'
p685
I4
sS'block.thisRepN'
p686
I0
sg29
g33
sS'block.thisN'
p687
I4
sg636
(S'SUBTRACT'
S'DOUBLE'
S'DECREASE'
S'x'
S'y'
tp688
sg27
g28
sg638
L3L
sg639
(I8
I16
I7
tp689
sg21
I1
sg22
F3.0832489628810436
sg23
F14.765588860842399
sVY
L9L
sVX
L9L
sg641
g660
sg35
g36
sg37
g38
sg20
S'7'
sg19
S'space'
p690
sg34
g11
sg643
L7L
sg644
g662
sg646
L7L
sS'block.thisIndex'
p691
I5
sg648
VSUBTRACT
p692
sg650
L0L
sg651
g674
sa(dp693
S'block.thisTrialN'
p694
I5
sS'block.thisRepN'
p695
I0
sg29
g33
sS'block.thisN'
p696
I5
sg636
(S'DECREASE'
S'HALF'
S'TRIPLE'
S'ADD'
S'x'
S'y'
tp697
sg27
g28
sg638
L4L
sg639
(I4
I12
I6
I5
tp698
sg21
I0
sg22
F4.5331228185677901
sg23
F16.315529874525964
sVY
L2L
sVX
L2L
sg641
Vtriple
p699
sg35
g36
sg37
g38
sg20
S'1'
sg19
S'space'
p700
sg34
g11
sg643
L5L
sg644
g670
sg646
L5L
sS'block.thisIndex'
p701
I16
sg648
g660
sg650
g673
sg651
VUUUBxy
p702
sa(dp703
S'block.thisTrialN'
p704
I6
sS'block.thisRepN'
p705
I0
sg29
g33
sS'block.thisN'
p706
I6
sg636
(S'SUBTRACT'
S'THIRD'
S'x'
S'y'
tp707
sg27
g28
sg638
L2L
sg639
(I3
I1
tp708
sg21
I1
sg22
F1.4998517904896289
sg23
F5.8663685445208102
sVY
L2L
sVX
L9L
sg641
L0L
sg35
g36
sg37
g38
sg20
S'1'
sg19
S'space'
p709
sg34
g11
sg643
L1L
sg644
g645
sg646
L1L
sS'block.thisIndex'
p710
I0
sg648
g692
sg650
L0L
sg651
g652
sa(dp711
S'block.thisTrialN'
p712
I7
sS'block.thisRepN'
p713
I0
sg29
g33
sS'block.thisN'
p714
I7
sg636
(S'INCREASE'
S'TIMES'
S'x'
S'y'
tp715
sg27
g28
sg638
L2L
sg639
(I8
I9
tp716
sg21
I0
sg22
F2.4499476979253814
sg23
F6.6329803485423326
sVY
L4L
sVX
L2L
sg641
L0L
sg35
g36
sg37
g38
sg20
S'5'
sg19
S'space'
p717
sg34
g11
sg643
L9L
sg644
g649
sg646
L9L
sS'block.thisIndex'
p718
I2
sg648
Vincrease
p719
sg650
L0L
sg651
VUBxy
p720
sa(dp721
S'block.thisTrialN'
p722
I8
sS'block.thisRepN'
p723
I0
sg29
g33
sS'block.thisN'
p724
I8
sg636
(S'DECREASE'
S'DIVIDE'
S'TRIPLE'
S'DOUBLE'
S'x'
S'y'
tp725
sg27
g28
sg638
L4L
sg639
(I6
I18
I2
I1
tp726
sg21
I0
sg22
F6.1496723816962913
sg23
F11.632549193454906
sVY
L9L
sVX
L3L
sg641
g699
sg35
g36
sg37
g38
sg20
S'4'
sg19
S'space'
p727
sg34
g11
sg643
L1L
sg644
VDIVIDE
p728
sg646
L1L
sS'block.thisIndex'
p729
I12
sg648
g660
sg650
g662
sg651
VUBUUxy
p730
sa(dp731
S'block.thisTrialN'
p732
I9
sS'block.thisRepN'
p733
I0
sg29
g33
sS'block.thisN'
p734
I9
sg636
(S'INCREASE'
S'DIVIDE'
S'HALF'
S'x'
S'y'
tp735
sg27
g28
sg638
L3L
sg639
(I2
I1
I2
tp736
sg21
I1
sg22
F2.3332985702436417
sg23
F3.6996938869124278
sVY
L2L
sVX
L4L
sg641
g670
sg35
g36
sg37
g38
sg20
S'2'
sg19
S'space'
p737
sg34
g11
sg643
L2L
sg644
g728
sg646
L2L
sS'block.thisIndex'
p738
I7
sg648
g719
sg650
L0L
sg651
g683
sa(dp739
S'block.thisTrialN'
p740
I10
sS'block.thisRepN'
p741
I0
sg29
g33
sS'block.thisN'
p742
I10
sg636
(S'TRIPLE'
S'HALF'
S'TIMES'
S'x'
S'y'
tp743
sg27
g28
sg638
L3L
sg639
(I6
I3
I9
tp744
sg21
I1
sg22
F4.0831530729774386
sg23
F6.3663386225234717
sVY
L3L
sVX
L2L
sg641
g649
sg35
g36
sg37
g38
sg20
S'9'
sg19
S'space'
p745
sg34
g11
sg643
L9L
sg644
g670
sg646
L9L
sS'block.thisIndex'
p746
I9
sg648
g699
sg650
L0L
sg651
VUUBxy
p747
sa(dp748
S'block.thisTrialN'
p749
I11
sS'block.thisRepN'
p750
I0
sg29
g33
sS'block.thisN'
p751
I11
sg636
(S'INCREASE'
S'TRIPLE'
S'HALF'
S'ADD'
S'x'
S'y'
tp752
sg27
g28
sg638
L4L
sg639
(I4
I2
I6
I7
tp753
sg21
I1
sg22
F4.9664175043581054
sg23
F5.3497584026772529
sVY
L2L
sVX
L2L
sg641
g670
sg35
g36
sg37
g38
sg20
S'7'
sg19
S'space'
p754
sg34
g11
sg643
L7L
sg644
g699
sg646
L7L
sS'block.thisIndex'
p755
I17
sg648
g719
sg650
g673
sg651
g702
sa(dp756
S'block.thisTrialN'
p757
I12
sS'block.thisRepN'
p758
I0
sg29
g33
sS'block.thisN'
p759
I12
sg636
(S'TRIPLE'
S'SUBTRACT'
S'x'
S'y'
tp760
sg27
g28
sg638
L2L
sg639
(I2
I6
tp761
sg21
I1
sg22
F1.9999902010895312
sg23
F2.5499875588575378
sVY
L6L
sVX
L8L
sg641
L0L
sg35
g36
sg37
g38
sg20
S'6'
sg19
S'space'
p762
sg34
g11
sg643
L6L
sg644
g692
sg646
L6L
sS'block.thisIndex'
p763
I3
sg648
g699
sg650
L0L
sg651
g720
sa(dp764
S'block.thisTrialN'
p765
I13
sS'block.thisRepN'
p766
I0
sg29
g33
sS'block.thisN'
p767
I13
sg636
(S'INCREASE'
S'HALF'
S'TIMES'
S'TRIPLE'
S'x'
S'y'
tp768
sg27
g28
sg638
L4L
sg639
(I6
I12
I6
I7
tp769
sg21
I1
sg22
F6.1829752565827221
sg23
F14.282153507228941
sVY
L2L
sVX
L2L
sg641
g649
sg35
g36
sg37
g38
sg20
S'7'
sg19
S'space'
p770
sg34
g11
sg643
L7L
sg644
g670
sg646
L7L
sS'block.thisIndex'
p771
I14
sg648
g719
sg650
g699
sg651
VUUBUxy
p772
sa(dp773
S'block.thisTrialN'
p774
I14
sS'block.thisRepN'
p775
I0
sg29
g33
sS'block.thisN'
p776
I14
sg636
(S'THIRD'
S'INCREASE'
S'SUBTRACT'
S'HALF'
S'x'
S'y'
tp777
sg27
g28
sg638
L4L
sg639
(I4
I2
I3
I1
tp778
sg21
I1
sg22
F3.4666434057289734
sg23
F10.699253632919863
sVY
L2L
sVX
L8L
sg641
g692
sg35
g36
sg37
g38
sg20
S'1'
sg19
S'space'
p779
sg34
g11
sg643
L1L
sg644
g719
sg646
L1L
sS'block.thisIndex'
p780
I15
sg648
g645
sg650
g670
sg651
g772
sa(dp781
S'block.thisTrialN'
p782
I15
sS'block.thisRepN'
p783
I0
sg29
g33
sS'block.thisN'
p784
I15
sg636
(S'DIVIDE'
S'DECREASE'
S'THIRD'
S'DOUBLE'
S'x'
S'y'
tp785
sg27
g28
sg638
L4L
sg639
(I12
I4
I3
I1
tp786
sg21
I1
sg22
F2.7665257130283862
sg23
F9.899378499831073
sVY
L3L
sVX
L6L
sg641
g645
sg35
g36
sg37
g38
sg20
S'1'
sg19
S'space'
p787
sg34
g11
sg643
L1L
sg644
g660
sg646
L1L
sS'block.thisIndex'
p788
I10
sg648
g728
sg650
g662
sg651
g663
sa(dp789
S'block.thisTrialN'
p790
I16
sS'block.thisRepN'
p791
I0
sg29
g33
sS'block.thisN'
p792
I16
sg636
(S'TRIPLE'
S'SUBTRACT'
S'INCREASE'
S'HALF'
S'x'
S'y'
tp793
sg27
g28
sg638
L4L
sg639
(I3
I4
I1
I3
tp794
sg21
I0
sg22
F5.4496761263580993
sg23
F5.0997717888094485
sVY
L3L
sVX
L6L
sg641
g719
sg35
g36
sg37
g38
sg20
S'4'
sg19
S'space'
p795
sg34
g11
sg643
L3L
sg644
g692
sg646
L3L
sS'block.thisIndex'
p796
I13
sg648
g699
sg650
g670
sg651
g730
sa(dp797
S'block.thisTrialN'
p798
I17
sS'block.thisRepN'
p799
I0
sg29
g33
sS'block.thisN'
p800
I17
sg636
(S'DECREASE'
S'HALF'
S'DIVIDE'
S'x'
S'y'
tp801
sg27
g28
sg638
L3L
sg639
(I4
I2
I1
tp802
sg21
I0
sg22
F4.1831446388969198
sg23
F5.3164310303982347
sVY
L2L
sVX
L8L
sg641
g728
sg35
g36
sg37
g38
sg20
S'3'
sg19
S'space'
p803
sg34
g11
sg643
L1L
sg644
g670
sg646
L1L
sS'block.thisIndex'
p804
I8
sg648
g660
sg650
L0L
sg651
g747
sa(dp805
S'block.thisTrialN'
p806
I0
sS'block.thisRepN'
p807
I0
sg29
g33
sS'block.thisN'
p808
I0
sVRule
p809
(S'ADD'
S'THIRD'
S'INCREASE'
S'HALF'
S'x'
S'y'
tp810
sg27
g28
sVLength
p811
L4L
sVIntermediate
p812
(I2
I3
I1
I7
tp813
sg21
I0
sg22
F9.832600218243897
sg23
F3.8665354771073908
sVY
L6L
sVX
L4L
sVOperatorc
p814
Vincrease
p815
sg35
g36
sg37
g38
sg20
S'6'
sg19
S'space'
p816
sg34
g11
sVResult
p817
L7L
sVOperatora
p818
Vthird
p819
sVCorrectResponse
p820
L7L
sS'block.thisIndex'
p821
I10
sVOperatorb
p822
VADD
p823
sVOperatord
p824
Vhalf
p825
sVStructure
p826
VBUUUxy
p827
sa(dp828
S'block.thisTrialN'
p829
I1
sS'block.thisRepN'
p830
I0
sg29
g33
sS'block.thisN'
p831
I1
sg809
(S'SUBTRACT'
S'HALF'
S'TRIPLE'
S'x'
S'y'
tp832
sg27
g28
sg811
L3L
sg812
(I12
I6
I2
tp833
sg21
I1
sg22
F5.0497287608450279
sg23
F5.3497636520769447
sVY
L4L
sVX
L4L
sg814
Vtriple
p834
sg35
g36
sg37
g38
sg20
S'2'
sg19
S'space'
p835
sg34
g11
sg817
L2L
sg818
g825
sg820
L2L
sS'block.thisIndex'
p836
I5
sg822
VSUBTRACT
p837
sg824
L0L
sg826
VBUUxy
p838
sa(dp839
S'block.thisTrialN'
p840
I2
sS'block.thisRepN'
p841
I0
sg29
g33
sS'block.thisN'
p842
I2
sg809
(S'INCREASE'
S'DIVIDE'
S'THIRD'
S'x'
S'y'
tp843
sg27
g28
sg811
L3L
sg812
(I3
I1
I2
tp844
sg21
I1
sg22
F4.6830846201628447
sg23
F2.8833001276943833
sVY
L3L
sVX
L9L
sg814
g819
sg35
g36
sg37
g38
sg20
S'2'
sg19
S'space'
p845
sg34
g11
sg817
L2L
sg818
VDIVIDE
p846
sg820
L2L
sS'block.thisIndex'
p847
I7
sg822
g815
sg824
L0L
sg826
VUBUxy
p848
sa(dp849
S'block.thisTrialN'
p850
I3
sS'block.thisRepN'
p851
I0
sg29
g33
sS'block.thisN'
p852
I3
sg809
(S'DECREASE'
S'HALF'
S'TRIPLE'
S'DIVIDE'
S'x'
S'y'
tp853
sg27
g28
sg811
L4L
sg812
(I4
I12
I6
I5
tp854
sg21
I1
sg22
F6.3496257665101439
sg23
F6.9496112080523744
sVY
L2L
sVX
L8L
sg814
g834
sg35
g36
sg37
g38
sg20
S'5'
sg19
S'space'
p855
sg34
g11
sg817
L5L
sg818
g825
sg820
L5L
sS'block.thisIndex'
p856
I16
sg822
Vdecrease
p857
sg824
g846
sg826
VUUUBxy
p858
sa(dp859
S'block.thisTrialN'
p860
I4
sS'block.thisRepN'
p861
I0
sg29
g33
sS'block.thisN'
p862
I4
sg809
(S'DIVIDE'
S'DOUBLE'
S'x'
S'y'
tp863
sg27
g28
sg811
L2L
sg812
(I12
I2
tp864
sg21
I1
sg22
F1.7167206602171063
sg23
F2.8166061871452257
sVY
L6L
sVX
L6L
sg814
L0L
sg35
g36
sg37
g38
sg20
S'2'
sg19
S'space'
p865
sg34
g11
sg817
L2L
sg818
Vdouble
p866
sg820
L2L
sS'block.thisIndex'
p867
I1
sg822
g846
sg824
L0L
sg826
VBUxy
p868
sa(dp869
S'block.thisTrialN'
p870
I5
sS'block.thisRepN'
p871
I0
sg29
g33
sS'block.thisN'
p872
I5
sg809
(S'DOUBLE'
S'SUBTRACT'
S'x'
S'y'
tp873
sg27
g28
sg811
L2L
sg812
(I1
I2
tp874
sg21
I1
sg22
F2.3332754727452993
sg23
F5.9995537966024131
sVY
L7L
sVX
L8L
sg814
L0L
sg35
g36
sg37
g38
sg20
S'2'
sg19
S'space'
p875
sg34
g11
sg817
L2L
sg818
g837
sg820
L2L
sS'block.thisIndex'
p876
I2
sg822
g866
sg824
L0L
sg826
VUBxy
p877
sa(dp878
S'block.thisTrialN'
p879
I6
sS'block.thisRepN'
p880
I0
sg29
g33
sS'block.thisN'
p881
I6
sg809
(S'DOUBLE'
S'TRIPLE'
S'DIVIDE'
S'DECREASE'
S'x'
S'y'
tp882
sg27
g28
sg811
L4L
sg812
(I8
I1
I3
I6
tp883
sg21
I1
sg22
F6.3329185099573806
sg23
F9.8993823494529352
sVY
L8L
sVX
L9L
sg814
g846
sg35
g36
sg37
g38
sg20
S'6'
sg19
S'space'
p884
sg34
g11
sg817
L6L
sg818
g834
sg820
L6L
sS'block.thisIndex'
p885
I15
sg822
g866
sg824
g857
sg826
VUUBUxy
p886
sa(dp887
S'block.thisTrialN'
p888
I7
sS'block.thisRepN'
p889
I0
sg29
g33
sS'block.thisN'
p890
I7
sg809
(S'DIVIDE'
S'INCREASE'
S'DOUBLE'
S'THIRD'
S'x'
S'y'
tp891
sg27
g28
sg811
L4L
sg812
(I2
I4
I5
I1
tp892
sg21
I1
sg22
F4.1497896194923669
sg23
F7.9995607958408073
sVY
L5L
sVX
L6L
sg814
g866
sg35
g36
sg37
g38
sg20
S'1'
sg19
S'space'
p893
sg34
g11
sg817
L1L
sg818
g815
sg820
L1L
sS'block.thisIndex'
p894
I11
sg822
g846
sg824
g819
sg826
g827
sa(dp895
S'block.thisTrialN'
p896
I8
sS'block.thisRepN'
p897
I0
sg29
g33
sS'block.thisN'
p898
I8
sg809
(S'DIVIDE'
S'DOUBLE'
S'THIRD'
S'x'
S'y'
tp899
sg27
g28
sg811
L3L
sg812
(I2
I4
I1
tp900
sg21
I1
sg22
F5.9329553961288184
sg23
F7.5328963922802359
sVY
L4L
sVX
L6L
sg814
g819
sg35
g36
sg37
g38
sg20
S'1'
sg19
S'space'
p901
sg34
g11
sg817
L1L
sg818
g866
sg820
L1L
sS'block.thisIndex'
p902
I4
sg822
g846
sg824
L0L
sg826
g838
sa(dp903
S'block.thisTrialN'
p904
I9
sS'block.thisRepN'
p905
I0
sg29
g33
sS'block.thisN'
p906
I9
sg809
(S'HALF'
S'TIMES'
S'x'
S'y'
tp907
sg27
g28
sg811
L2L
sg812
(I16
I8
tp908
sg21
I1
sg22
F1.6833645909791812
sg23
F5.4830773408757523
sVY
L4L
sVX
L4L
sg814
L0L
sg35
g36
sg37
g38
sg20
S'8'
sg19
S'space'
p909
sg34
g11
sg817
L8L
sg818
VTIMES
p910
sg820
L8L
sS'block.thisIndex'
p911
I3
sg822
g825
sg824
L0L
sg826
g877
sa(dp912
S'block.thisTrialN'
p913
I10
sS'block.thisRepN'
p914
I0
sg29
g33
sS'block.thisN'
p915
I10
sg809
(S'HALF'
S'SUBTRACT'
S'TRIPLE'
S'x'
S'y'
tp916
sg27
g28
sg811
L3L
sg812
(I9
I2
I1
tp917
sg21
I1
sg22
F8.8827506849775091
sg23
F13.382426793803461
sVY
L7L
sVX
L3L
sg814
g834
sg35
g36
sg37
g38
sg20
S'1'
sg19
S'space'
p918
sg34
g11
sg817
L1L
sg818
g837
sg820
L1L
sS'block.thisIndex'
p919
I6
sg822
g825
sg824
L0L
sg826
g848
sa(dp920
S'block.thisTrialN'
p921
I11
sS'block.thisRepN'
p922
I0
sg29
g33
sS'block.thisN'
p923
I11
sg809
(S'DOUBLE'
S'DECREASE'
S'SUBTRACT'
S'x'
S'y'
tp924
sg27
g28
sg811
L3L
sg812
(I5
I4
I8
tp925
sg21
I1
sg22
F2.0499919332796708
sg23
F5.0331089950632304
sVY
L2L
sVX
L7L
sg814
g837
sg35
g36
sg37
g38
sg20
S'8'
sg19
S'space'
p926
sg34
g11
sg817
L8L
sg818
g857
sg820
L8L
sS'block.thisIndex'
p927
I8
sg822
g866
sg824
L0L
sg826
VUUBxy
p928
sa(dp929
S'block.thisTrialN'
p930
I12
sS'block.thisRepN'
p931
I0
sg29
g33
sS'block.thisN'
p932
I12
sg809
(S'DOUBLE'
S'DECREASE'
S'TRIPLE'
S'DIVIDE'
S'x'
S'y'
tp933
sg27
g28
sg811
L4L
sg812
(I1
I3
I2
I4
tp934
sg21
I0
sg22
F4.5831154519692063
sg23
F9.8493638188811019
sVY
L4L
sVX
L4L
sg814
g834
sg35
g36
sg37
g38
sg20
S'8'
sg19
S'space'
p935
sg34
g11
sg817
L4L
sg818
g857
sg820
L4L
sS'block.thisIndex'
p936
I17
sg822
g866
sg824
g846
sg826
g858
sa(dp937
S'block.thisTrialN'
p938
I13
sS'block.thisRepN'
p939
I0
sg29
g33
sS'block.thisN'
p940
I13
sg809
(S'DOUBLE'
S'TRIPLE'
S'SUBTRACT'
S'x'
S'y'
tp941
sg27
g28
sg811
L3L
sg812
(I1
I3
I6
tp942
sg21
I1
sg22
F2.1831229410599917
sg23
F5.7830422396073118
sVY
L3L
sVX
L4L
sg814
g837
sg35
g36
sg37
g38
sg20
S'6'
sg19
S'space'
p943
sg34
g11
sg817
L6L
sg818
g834
sg820
L6L
sS'block.thisIndex'
p944
I9
sg822
g866
sg824
L0L
sg826
g928
sa(dp945
S'block.thisTrialN'
p946
I14
sS'block.thisRepN'
p947
I0
sg29
g33
sS'block.thisN'
p948
I14
sg809
(S'DECREASE'
S'TIMES'
S'DOUBLE'
S'THIRD'
S'x'
S'y'
tp949
sg27
g28
sg811
L4L
sg812
(I1
I2
I8
I7
tp950
sg21
I0
sg22
F4.5664347925921902
sg23
F0.95009310776367784
sVY
L4L
sVX
L3L
sg814
g866
sg35
g36
sg37
g38
sg20
S'1'
sg19
S'space'
p951
sg34
g11
sg817
L7L
sg818
g910
sg820
L7L
sS'block.thisIndex'
p952
I13
sg822
g857
sg824
g819
sg826
VUBUUxy
p953
sa(dp954
S'block.thisTrialN'
p955
I15
sS'block.thisRepN'
p956
I0
sg29
g33
sS'block.thisN'
p957
I15
sg809
(S'DECREASE'
S'THIRD'
S'TIMES'
S'HALF'
S'x'
S'y'
tp958
sg27
g28
sg811
L4L
sg812
(I2
I12
I4
I3
tp959
sg21
I1
sg22
F4.6997565304627642
sg23
F8.1995145307155326
sVY
L6L
sVX
L4L
sg814
g910
sg35
g36
sg37
g38
sg20
S'3'
sg19
S'space'
p960
sg34
g11
sg817
L3L
sg818
g819
sg820
L3L
sS'block.thisIndex'
p961
I14
sg822
g857
sg824
g825
sg826
g886
sa(dp962
S'block.thisTrialN'
p963
I16
sS'block.thisRepN'
p964
I0
sg29
g33
sS'block.thisN'
p965
I16
sg809
(S'DECREASE'
S'ADD'
S'DOUBLE'
S'THIRD'
S'x'
S'y'
tp966
sg27
g28
sg811
L4L
sg812
(I3
I6
I10
I9
tp967
sg21
I1
sg22
F3.9498330848291516
sg23
F10.332618241198361
sVY
L4L
sVX
L9L
sg814
g866
sg35
g36
sg37
g38
sg20
S'9'
sg19
S'space'
p968
sg34
g11
sg817
L9L
sg818
g823
sg820
L9L
sS'block.thisIndex'
p969
I12
sg822
Vdecrease 
p970
sg824
g819
sg826
g953
sa(dp971
S'block.thisTrialN'
p972
I17
sS'block.thisRepN'
p973
I0
sg29
g33
sS'block.thisN'
p974
I17
sg809
(S'ADD'
S'DOUBLE'
S'x'
S'y'
tp975
sg27
g28
sg811
L2L
sg812
(I4
I8
tp976
sg21
I1
sg22
F1.5167070815805346
sg23
F2.5499882587464526
sVY
L4L
sVX
L2L
sg814
L0L
sg35
g36
sg37
g38
sg20
S'8'
sg19
S'space'
p977
sg34
g11
sg817
L8L
sg818
g866
sg820
L8L
sS'block.thisIndex'
p978
I0
sg822
g823
sg824
L0L
sg826
g868
sa(dp979
S'block.thisTrialN'
p980
I0
sS'block.thisRepN'
p981
I0
sg29
g33
sS'block.thisN'
p982
I0
sVRule
p983
(S'TIMES'
S'HALF'
S'INCREASE'
S'THIRD'
S'x'
S'y'
tp984
sg27
g28
sVLength
p985
L4L
sVIntermediate
p986
(I1
I2
I1
I9
tp987
sg21
I0
sg22
F6.2996065360493958
sg23
F8.6828039494575933
sVY
L9L
sVX
L3L
sVOperatorc
p988
Vincrease
p989
sg35
g36
sg37
g38
sg20
S'1'
sg19
S'space'
p990
sg34
g11
sVResult
p991
L9L
sVOperatora
p992
Vhalf
p993
sVCorrectResponse
p994
L9L
sS'block.thisIndex'
p995
I11
sVOperatorb
p996
VTIMES
p997
sVOperatord
p998
Vthird
p999
sVStructure
p1000
VBUUUxy
p1001
sa(dp1002
S'block.thisTrialN'
p1003
I1
sS'block.thisRepN'
p1004
I0
sg29
g33
sS'block.thisN'
p1005
I1
sg983
(S'INCREASE'
S'TIMES'
S'TRIPLE'
S'HALF'
S'x'
S'y'
tp1006
sg27
g28
sg985
L4L
sg986
(I1
I3
I6
I7
tp1007
sg21
I0
sg22
F5.5164155621314421
sg23
F9.1992657065857202
sVY
L2L
sVX
L2L
sg988
Vtriple
p1008
sg35
g36
sg37
g38
sg20
S'6'
sg19
S'space'
p1009
sg34
g11
sg991
L7L
sg992
g997
sg994
L7L
sS'block.thisIndex'
p1010
I13
sg996
g989
sg998
g993
sg1000
VUBUUxy
p1011
sa(dp1012
S'block.thisTrialN'
p1013
I2
sS'block.thisRepN'
p1014
I0
sg29
g33
sS'block.thisN'
p1015
I2
sg983
(S'TRIPLE'
S'INCREASE'
S'SUBTRACT'
S'x'
S'y'
tp1016
sg27
g28
sg985
L3L
sg986
(I1
I2
I6
tp1017
sg21
I1
sg22
F5.5996953218709677
sg23
F5.3664247135166079
sVY
L2L
sVX
L3L
sg988
VSUBTRACT
p1018
sg35
g36
sg37
g38
sg20
S'6'
sg19
S'space'
p1019
sg34
g11
sg991
L6L
sg992
g989
sg994
L6L
sS'block.thisIndex'
p1020
I9
sg996
g1008
sg998
L0L
sg1000
VUUBxy
p1021
sa(dp1022
S'block.thisTrialN'
p1023
I3
sS'block.thisRepN'
p1024
I0
sg29
g33
sS'block.thisN'
p1025
I3
sg983
(S'TRIPLE'
S'HALF'
S'ADD'
S'x'
S'y'
tp1026
sg27
g28
sg985
L3L
sg986
(I6
I3
I9
tp1027
sg21
I1
sg22
F1.7333470751764253
sg23
F4.3498399441596121
sVY
L3L
sVX
L3L
sg988
VADD
p1028
sg35
g36
sg37
g38
sg20
S'9'
sg19
S'space'
p1029
sg34
g11
sg991
L9L
sg992
g993
sg994
L9L
sS'block.thisIndex'
p1030
I8
sg996
g1008
sg998
L0L
sg1000
g1021
sa(dp1031
S'block.thisTrialN'
p1032
I4
sS'block.thisRepN'
p1033
I0
sg29
g33
sS'block.thisN'
p1034
I4
sg983
(S'INCREASE'
S'DIVIDE'
S'x'
S'y'
tp1035
sg27
g28
sg985
L2L
sg986
(I4
I5
tp1036
sg21
I1
sg22
F1.6833516422193497
sg23
F3.5165642965584993
sVY
L2L
sVX
L8L
sg988
L0L
sg35
g36
sg37
g38
sg20
S'5'
sg19
S'space'
p1037
sg34
g11
sg991
L5L
sg992
VDIVIDE
p1038
sg994
L5L
sS'block.thisIndex'
p1039
I3
sg996
g989
sg998
L0L
sg1000
VUBxy
p1040
sa(dp1041
S'block.thisTrialN'
p1042
I5
sS'block.thisRepN'
p1043
I0
sg29
g33
sS'block.thisN'
p1044
I5
sg983
(S'TRIPLE'
S'INCREASE'
S'DIVIDE'
S'DOUBLE'
S'x'
S'y'
tp1045
sg27
g28
sg985
L4L
sg986
(I16
I2
I3
I9
tp1046
sg21
I1
sg22
F2.6166654009139165
sg23
F10.765960172051564
sVY
L8L
sVX
L8L
sg988
g1038
sg35
g36
sg37
g38
sg20
S'9'
sg19
S'space'
p1047
sg34
g11
sg991
L9L
sg992
g989
sg994
L9L
sS'block.thisIndex'
p1048
I15
sg996
g1008
sg998
Vdouble
p1049
sg1000
VUUBUxy
p1050
sa(dp1051
S'block.thisTrialN'
p1052
I6
sS'block.thisRepN'
p1053
I0
sg29
g33
sS'block.thisN'
p1054
I6
sg983
(S'SUBTRACT'
S'INCREASE'
S'HALF'
S'x'
S'y'
tp1055
sg27
g28
sg985
L3L
sg986
(I4
I5
I3
tp1056
sg21
I0
sg22
F1.7166419184068218
sg23
F15.282275994424708
sVY
L2L
sVX
L8L
sg988
g993
sg35
g36
sg37
g38
sg20
S'2'
sg19
S'space'
p1057
sg34
g11
sg991
L3L
sg992
g989
sg994
L3L
sS'block.thisIndex'
p1058
I5
sg996
g1018
sg998
L0L
sg1000
VBUUxy
p1059
sa(dp1060
S'block.thisTrialN'
p1061
I7
sS'block.thisRepN'
p1062
I0
sg29
g33
sS'block.thisN'
p1063
I7
sg983
(S'THIRD'
S'INCREASE'
S'HALF'
S'TIMES'
S'x'
S'y'
tp1064
sg27
g28
sg985
L4L
sg986
(I28
I14
I15
I5
tp1065
sg21
I1
sg22
F8.3494196380488575
sg23
F11.032610297203064
sVY
L4L
sVX
L7L
sg988
g993
sg35
g36
sg37
g38
sg20
S'5'
sg19
S'space'
p1066
sg34
g11
sg991
L5L
sg992
g989
sg994
L5L
sS'block.thisIndex'
p1067
I17
sg996
g999
sg998
g997
sg1000
VUUUBxy
p1068
sa(dp1069
S'block.thisTrialN'
p1070
I8
sS'block.thisRepN'
p1071
I0
sg29
g33
sS'block.thisN'
p1072
I8
sg983
(S'HALF'
S'TIMES'
S'DECREASE'
S'x'
S'y'
tp1073
sg27
g28
sg985
L3L
sg986
(I8
I16
I8
tp1074
sg21
I1
sg22
F2.0833126562647521
sg23
F5.6333891057875007
sVY
L2L
sVX
L9L
sg988
Vdecrease
p1075
sg35
g36
sg37
g38
sg20
S'8'
sg19
S'space'
p1076
sg34
g11
sg991
L8L
sg992
g997
sg994
L8L
sS'block.thisIndex'
p1077
I6
sg996
g993
sg998
L0L
sg1000
VUBUxy
p1078
sa(dp1079
S'block.thisTrialN'
p1080
I9
sS'block.thisRepN'
p1081
I0
sg29
g33
sS'block.thisN'
p1082
I9
sg983
(S'ADD'
S'HALF'
S'x'
S'y'
tp1083
sg27
g28
sg985
L2L
sg986
(I2
I7
tp1084
sg21
I1
sg22
F1.4166416734224185
sg23
F2.2834203750826418
sVY
L5L
sVX
L4L
sg988
L0L
sg35
g36
sg37
g38
sg20
S'7'
sg19
S'space'
p1085
sg34
g11
sg991
L7L
sg992
g993
sg994
L7L
sS'block.thisIndex'
p1086
I0
sg996
g1028
sg998
L0L
sg1000
VBUxy
p1087
sa(dp1088
S'block.thisTrialN'
p1089
I10
sS'block.thisRepN'
p1090
I0
sg29
g33
sS'block.thisN'
p1091
I10
sg983
(S'TRIPLE'
S'DOUBLE'
S'SUBTRACT'
S'INCREASE'
S'x'
S'y'
tp1092
sg27
g28
sg985
L4L
sg986
(I5
I1
I2
I6
tp1093
sg21
I0
sg22
F4.2165024579735473
sg23
F7.8828703723847866
sVY
L4L
sVX
L4L
sg988
g1018
sg35
g36
sg37
g38
sg20
S'4'
sg19
S'space'
p1094
sg34
g11
sg991
L6L
sg992
g1049
sg994
L6L
sS'block.thisIndex'
p1095
I14
sg996
g1008
sg998
g989
sg1000
g1050
sa(dp1096
S'block.thisTrialN'
p1097
I11
sS'block.thisRepN'
p1098
I0
sg29
g33
sS'block.thisN'
p1099
I11
sg983
(S'DIVIDE'
S'TRIPLE'
S'DECREASE'
S'x'
S'y'
tp1100
sg27
g28
sg985
L3L
sg986
(I6
I18
I9
tp1101
sg21
I0
sg22
F3.0165963182225823
sg23
F15.498717208858579
sVY
L2L
sVX
L7L
sg988
g1075
sg35
g36
sg37
g38
sg20
S'1'
sg19
S'space'
p1102
sg34
g11
sg991
L9L
sg992
g1008
sg994
L9L
sS'block.thisIndex'
p1103
I4
sg996
g1038
sg998
L0L
sg1000
g1059
sa(dp1104
S'block.thisTrialN'
p1105
I12
sS'block.thisRepN'
p1106
I0
sg29
g33
sS'block.thisN'
p1107
I12
sg983
(S'INCREASE'
S'DIVIDE'
S'TRIPLE'
S'x'
S'y'
tp1108
sg27
g28
sg985
L3L
sg986
(I6
I2
I3
tp1109
sg21
I1
sg22
F4.5830895545659587
sg23
F10.016087121213786
sVY
L3L
sVX
L2L
sg988
g1008
sg35
g36
sg37
g38
sg20
S'3'
sg19
S'space'
p1110
sg34
g11
sg991
L3L
sg992
g1038
sg994
L3L
sS'block.thisIndex'
p1111
I7
sg996
g989
sg998
L0L
sg1000
g1078
sa(dp1112
S'block.thisTrialN'
p1113
I13
sS'block.thisRepN'
p1114
I0
sg29
g33
sS'block.thisN'
p1115
I13
sg983
(S'SUBTRACT'
S'TRIPLE'
S'x'
S'y'
tp1116
sg27
g28
sg985
L2L
sg986
(I12
I9
tp1117
sg21
I1
sg22
F1.3998542751651257
sg23
F3.2499519675038755
sVY
L3L
sVX
L4L
sg988
L0L
sg35
g36
sg37
g38
sg20
S'9'
sg19
S'space'
p1118
sg34
g11
sg991
L9L
sg992
g1008
sg994
L9L
sS'block.thisIndex'
p1119
I1
sg996
g1018
sg998
L0L
sg1000
g1087
sa(dp1120
S'block.thisTrialN'
p1121
I14
sS'block.thisRepN'
p1122
I0
sg29
g33
sS'block.thisN'
p1123
I14
sg983
(S'DIVIDE'
S'DOUBLE'
S'INCREASE'
S'TRIPLE'
S'x'
S'y'
tp1124
sg27
g28
sg985
L4L
sg986
(I9
I10
I20
I5
tp1125
sg21
I1
sg22
F7.2995361933717504
sg23
F10.915956969955005
sVY
L4L
sVX
L3L
sg988
g989
sg35
g36
sg37
g38
sg20
S'5'
sg19
S'space'
p1126
sg34
g11
sg991
L5L
sg992
g1049
sg994
L5L
sS'block.thisIndex'
p1127
I10
sg996
g1038
sg998
g1008
sg1000
g1001
sa(dp1128
S'block.thisTrialN'
p1129
I15
sS'block.thisRepN'
p1130
I0
sg29
g33
sS'block.thisN'
p1131
I15
sg983
(S'DECREASE'
S'THIRD'
S'DOUBLE'
S'ADD'
S'x'
S'y'
tp1132
sg27
g28
sg985
L4L
sg986
(I9
I18
I6
I5
tp1133
sg21
I0
sg22
F4.916226441739127
sg23
F9.8995527817169204
sVY
L4L
sVX
L5L
sg988
g1049
sg35
g36
sg37
g38
sg20
S'3'
sg19
S'space'
p1134
sg34
g11
sg991
L5L
sg992
g999
sg994
L5L
sS'block.thisIndex'
p1135
I16
sg996
g1075
sg998
g1028
sg1000
g1068
sa(dp1136
S'block.thisTrialN'
p1137
I16
sS'block.thisRepN'
p1138
I0
sg29
g33
sS'block.thisN'
p1139
I16
sg983
(S'HALF'
S'SUBTRACT'
S'DECREASE'
S'TRIPLE'
S'x'
S'y'
tp1140
sg27
g28
sg985
L4L
sg986
(I15
I14
I10
I5
tp1141
sg21
I0
sg22
F5.666328368592076
sg23
F13.682387142907828
sVY
L4L
sVX
L5L
sg988
g1075
sg35
g36
sg37
g38
sg20
S'3'
sg19
S'space'
p1142
sg34
g11
sg991
L5L
sg992
g1018
sg994
L5L
sS'block.thisIndex'
p1143
I12
sg996
g993
sg998
g1008
sg1000
g1011
sa(dp1144
S'block.thisTrialN'
p1145
I17
sS'block.thisRepN'
p1146
I0
sg29
g33
sS'block.thisN'
p1147
I17
sg983
(S'DOUBLE'
S'DIVIDE'
S'x'
S'y'
tp1148
sg27
g28
sg985
L2L
sg986
(I1
I2
tp1149
sg21
I1
sg22
F1.1167415180243552
sg23
F1.3834119408857077
sVY
L8L
sVX
L8L
sg988
L0L
sg35
g36
sg37
g38
sg20
S'2'
sg19
S'space'
p1150
sg34
g11
sg991
L2L
sg992
g1038
sg994
L2L
sS'block.thisIndex'
p1151
I2
sg996
g1049
sg998
L0L
sg1000
g1040
sa(dp1152
S'block.thisTrialN'
p1153
I0
sS'block.thisRepN'
p1154
I0
sg29
g33
sS'block.thisN'
p1155
I0
sVRule
p1156
(S'DOUBLE'
S'ADD'
S'x'
S'y'
tp1157
sg27
g28
sVLength
p1158
L2L
sVIntermediate
p1159
(I4
I8
tp1160
sg21
I0
sg22
F1.8164294556481764
sg23
F4.9831065628677607
sVY
L2L
sVX
L2L
sVOperatorc
p1161
L0L
sg35
g36
sg37
g38
sg20
S'6'
sg19
S'space'
p1162
sg34
g11
sVResult
p1163
L8L
sVOperatora
p1164
VADD
p1165
sVCorrectResponse
p1166
L8L
sS'block.thisIndex'
p1167
I2
sVOperatorb
p1168
Vdouble
p1169
sVOperatord
p1170
L0L
sVStructure
p1171
VUBxy
p1172
sa(dp1173
S'block.thisTrialN'
p1174
I1
sS'block.thisRepN'
p1175
I0
sg29
g33
sS'block.thisN'
p1176
I1
sg1156
(S'INCREASE'
S'DIVIDE'
S'TRIPLE'
S'HALF'
S'x'
S'y'
tp1177
sg27
g28
sg1158
L4L
sg1159
(I2
I6
I2
I3
tp1178
sg21
I0
sg22
F8.5992368696024641
sg23
F9.3160628688056022
sVY
L3L
sVX
L4L
sg1161
Vtriple
p1179
sg35
g36
sg37
g38
sg20
S'1'
sg19
S'space'
p1180
sg34
g11
sg1163
L3L
sg1164
VDIVIDE
p1181
sg1166
L3L
sS'block.thisIndex'
p1182
I12
sg1168
Vincrease
p1183
sg1170
Vhalf
p1184
sg1171
VUBUUxy
p1185
sa(dp1186
S'block.thisTrialN'
p1187
I2
sS'block.thisRepN'
p1188
I0
sg29
g33
sS'block.thisN'
p1189
I2
sg1156
(S'DOUBLE'
S'TIMES'
S'x'
S'y'
tp1190
sg27
g28
sg1158
L2L
sg1159
(I4
I8
tp1191
sg21
I1
sg22
F0.7834153005387634
sg23
F2.8333018949488178
sVY
L2L
sVX
L2L
sg1161
L0L
sg35
g36
sg37
g38
sg20
S'8'
sg19
S'space'
p1192
sg34
g11
sg1163
L8L
sg1164
VTIMES
p1193
sg1166
L8L
sS'block.thisIndex'
p1194
I3
sg1168
g1169
sg1170
L0L
sg1171
g1172
sa(dp1195
S'block.thisTrialN'
p1196
I3
sS'block.thisRepN'
p1197
I0
sg29
g33
sS'block.thisN'
p1198
I3
sg1156
(S'TRIPLE'
S'DOUBLE'
S'SUBTRACT'
S'DECREASE'
S'x'
S'y'
tp1199
sg27
g28
sg1158
L4L
sg1159
(I4
I1
I2
I6
tp1200
sg21
I0
sg22
F7.3995291590690613
sg23
F1.6500267196679488
sVY
L3L
sVX
L5L
sg1161
VSUBTRACT
p1201
sg35
g36
sg37
g38
sg20
S'4'
sg19
S'space'
p1202
sg34
g11
sg1163
L6L
sg1164
g1169
sg1166
L6L
sS'block.thisIndex'
p1203
I15
sg1168
g1179
sg1170
Vdecrease
p1204
sg1171
VUUBUxy
p1205
sa(dp1206
S'block.thisTrialN'
p1207
I4
sS'block.thisRepN'
p1208
I0
sg29
g33
sS'block.thisN'
p1209
I4
sg1156
(S'ADD'
S'THIRD'
S'x'
S'y'
tp1210
sg27
g28
sg1158
L2L
sg1159
(I1
I7
tp1211
sg21
I1
sg22
F2.3999477154575288
sg23
F10.182709984248504
sVY
L6L
sVX
L3L
sg1161
L0L
sg35
g36
sg37
g38
sg20
S'7'
sg19
S'space'
p1212
sg34
g11
sg1163
L7L
sg1164
Vthird
p1213
sg1166
L7L
sS'block.thisIndex'
p1214
I0
sg1168
g1165
sg1170
L0L
sg1171
VBUxy
p1215
sa(dp1216
S'block.thisTrialN'
p1217
I5
sS'block.thisRepN'
p1218
I0
sg29
g33
sS'block.thisN'
p1219
I5
sg1156
(S'THIRD'
S'INCREASE'
S'SUBTRACT'
S'x'
S'y'
tp1220
sg27
g28
sg1158
L3L
sg1159
(I2
I3
I1
tp1221
sg21
I0
sg22
F2.5666087244171649
sg23
F14.76563155639451
sVY
L6L
sVX
L8L
sg1161
g1201
sg35
g36
sg37
g38
sg20
S'3'
sg19
S'space'
p1222
sg34
g11
sg1163
L1L
sg1164
g1183
sg1166
L1L
sS'block.thisIndex'
p1223
I9
sg1168
g1213
sg1170
L0L
sg1171
VUUBxy
p1224
sa(dp1225
S'block.thisTrialN'
p1226
I6
sS'block.thisRepN'
p1227
I0
sg29
g33
sS'block.thisN'
p1228
I6
sg1156
(S'DIVIDE'
S'DOUBLE'
S'INCREASE'
S'THIRD'
S'x'
S'y'
tp1229
sg27
g28
sg1158
L4L
sg1159
(I2
I3
I6
I2
tp1230
sg21
I0
sg22
F5.9996528362389654
sg23
F9.0660962028196082
sVY
L3L
sVX
L6L
sg1161
g1183
sg35
g36
sg37
g38
sg20
S'6'
sg19
S'space'
p1231
sg34
g11
sg1163
L2L
sg1164
g1169
sg1166
L2L
sS'block.thisIndex'
p1232
I10
sg1168
g1181
sg1170
g1213
sg1171
VBUUUxy
p1233
sa(dp1234
S'block.thisTrialN'
p1235
I7
sS'block.thisRepN'
p1236
I0
sg29
g33
sS'block.thisN'
p1237
I7
sg1156
(S'DIVIDE'
S'TRIPLE'
S'HALF'
S'x'
S'y'
tp1238
sg27
g28
sg1158
L3L
sg1159
(I4
I12
I4
tp1239
sg21
I1
sg22
F1.916668095625937
sg23
F10.582641251385212
sVY
L3L
sVX
L8L
sg1161
g1184
sg35
g36
sg37
g38
sg20
S'4'
sg19
S'space'
p1240
sg34
g11
sg1163
L4L
sg1164
g1179
sg1166
L4L
sS'block.thisIndex'
p1241
I4
sg1168
g1181
sg1170
L0L
sg1171
VBUUxy
p1242
sa(dp1243
S'block.thisTrialN'
p1244
I8
sS'block.thisRepN'
p1245
I0
sg29
g33
sS'block.thisN'
p1246
I8
sg1156
(S'INCREASE'
S'ADD'
S'TRIPLE'
S'x'
S'y'
tp1247
sg27
g28
sg1158
L3L
sg1159
(I6
I8
I9
tp1248
sg21
I1
sg22
F2.0499978826846927
sg23
F11.49925265298225
sVY
L2L
sVX
L2L
sg1161
g1179
sg35
g36
sg37
g38
sg20
S'9'
sg19
S'space'
p1249
sg34
g11
sg1163
L9L
sg1164
g1165
sg1166
L9L
sS'block.thisIndex'
p1250
I6
sg1168
g1183
sg1170
L0L
sg1171
VUBUxy
p1251
sa(dp1252
S'block.thisTrialN'
p1253
I9
sS'block.thisRepN'
p1254
I0
sg29
g33
sS'block.thisN'
p1255
I9
sg1156
(S'TIMES'
S'INCREASE'
S'HALF'
S'TRIPLE'
S'x'
S'y'
tp1256
sg27
g28
sg1158
L4L
sg1159
(I6
I3
I4
I8
tp1257
sg21
I0
sg22
F6.9995705948676914
sg23
F0.066869972157292068
sVY
L2L
sVX
L2L
sg1161
g1184
sg35
g36
sg37
g38
sg20
S'4'
sg19
S'space'
p1258
sg34
g11
sg1163
L8L
sg1164
g1183
sg1166
L8L
sS'block.thisIndex'
p1259
I11
sg1168
g1193
sg1170
g1179
sg1171
g1233
sa(dp1260
S'block.thisTrialN'
p1261
I10
sS'block.thisRepN'
p1262
I0
sg29
g33
sS'block.thisN'
p1263
I10
sg1156
(S'THIRD'
S'INCREASE'
S'ADD'
S'DOUBLE'
S'x'
S'y'
tp1264
sg27
g28
sg1158
L4L
sg1159
(I16
I20
I21
I7
tp1265
sg21
I0
sg22
F3.2665433862712234
sg23
F4.5831581474049017
sVY
L4L
sVX
L8L
sg1161
g1165
sg35
g36
sg37
g38
sg20
S'4'
sg19
S'space'
p1266
sg34
g11
sg1163
L7L
sg1164
g1183
sg1166
L7L
sS'block.thisIndex'
p1267
I14
sg1168
g1213
sg1170
g1169
sg1171
g1205
sa(dp1268
S'block.thisTrialN'
p1269
I11
sS'block.thisRepN'
p1270
I0
sg29
g33
sS'block.thisN'
p1271
I11
sg1156
(S'INCREASE'
S'SUBTRACT'
S'THIRD'
S'x'
S'y'
tp1272
sg27
g28
sg1158
L3L
sg1159
(I3
I1
I2
tp1273
sg21
I1
sg22
F4.6497701965272427
sg23
F8.2662021717987955
sVY
L2L
sVX
L9L
sg1161
g1213
sg35
g36
sg37
g38
sg20
S'2'
sg19
S'space'
p1274
sg34
g11
sg1163
L2L
sg1164
g1201
sg1166
L2L
sS'block.thisIndex'
p1275
I7
sg1168
g1183
sg1170
L0L
sg1171
g1251
sa(dp1276
S'block.thisTrialN'
p1277
I12
sS'block.thisRepN'
p1278
I0
sg29
g33
sS'block.thisN'
p1279
I12
sg1156
(S'SUBTRACT'
S'INCREASE'
S'x'
S'y'
tp1280
sg27
g28
sg1158
L2L
sg1159
(I6
I2
tp1281
sg21
I1
sg22
F1.9166712453588843
sg23
F15.165591870550998
sVY
L4L
sVX
L5L
sg1161
L0L
sg35
g36
sg37
g38
sg20
S'2'
sg19
S'space'
p1282
sg34
g11
sg1163
L2L
sg1164
g1183
sg1166
L2L
sS'block.thisIndex'
p1283
I1
sg1168
g1201
sg1170
L0L
sg1171
g1215
sa(dp1284
S'block.thisTrialN'
p1285
I13
sS'block.thisRepN'
p1286
I0
sg29
g33
sS'block.thisN'
p1287
I13
sg1156
(S'DECREASE'
S'TRIPLE'
S'HALF'
S'ADD'
S'x'
S'y'
tp1288
sg27
g28
sg1158
L4L
sg1159
(I6
I3
I9
I8
tp1289
sg21
I0
sg22
F2.8165865892078727
sg23
F7.8328794890549034
sVY
L2L
sVX
L4L
sg1161
g1184
sg35
g36
sg37
g38
sg20
S'6'
sg19
S'space'
p1290
sg34
g11
sg1163
L8L
sg1164
g1179
sg1166
L8L
sS'block.thisIndex'
p1291
I16
sg1168
g1204
sg1170
g1165
sg1171
VUUUBxy
p1292
sa(dp1293
S'block.thisTrialN'
p1294
I14
sS'block.thisRepN'
p1295
I0
sg29
g33
sS'block.thisN'
p1296
I14
sg1156
(S'THIRD'
S'TIMES'
S'HALF'
S'INCREASE'
S'x'
S'y'
tp1297
sg27
g28
sg1158
L4L
sg1159
(I8
I4
I12
I4
tp1298
sg21
I0
sg22
F8.3494507848517969
sg23
F7.1329444772563875
sVY
L3L
sVX
L7L
sg1161
g1184
sg35
g36
sg37
g38
sg20
S'5'
sg19
S'space'
p1299
sg34
g11
sg1163
L4L
sg1164
g1193
sg1166
L4L
sS'block.thisIndex'
p1300
I13
sg1168
g1213
sg1170
g1183
sg1171
g1185
sa(dp1301
S'block.thisTrialN'
p1302
I15
sS'block.thisRepN'
p1303
I0
sg29
g33
sS'block.thisN'
p1304
I15
sg1156
(S'TRIPLE'
S'DECREASE'
S'HALF'
S'SUBTRACT'
S'x'
S'y'
tp1305
sg27
g28
sg1158
L4L
sg1159
(I4
I2
I1
I3
tp1306
sg21
I0
sg22
F3.5998661040794104
sg23
F1.8500161508563906
sVY
L5L
sVX
L9L
sg1161
g1184
sg35
g36
sg37
g38
sg20
S'9'
sg19
S'space'
p1307
sg34
g11
sg1163
L3L
sg1164
g1204
sg1166
L3L
sS'block.thisIndex'
p1308
I17
sg1168
g1179
sg1170
g1201
sg1171
g1292
sa(dp1309
S'block.thisTrialN'
p1310
I16
sS'block.thisRepN'
p1311
I0
sg29
g33
sS'block.thisN'
p1312
I16
sg1156
(S'DECREASE'
S'TRIPLE'
S'DIVIDE'
S'x'
S'y'
tp1313
sg27
g28
sg1158
L3L
sg1159
(I2
I6
I5
tp1314
sg21
I0
sg22
F2.3504334822064266
sg23
F4.7497992084827274
sVY
L4L
sVX
L8L
sg1161
g1181
sg35
g36
sg37
g38
sg20
S'7'
sg19
S'space'
p1315
sg34
g11
sg1163
L5L
sg1164
g1179
sg1166
L5L
sS'block.thisIndex'
p1316
I8
sg1168
g1204
sg1170
L0L
sg1171
g1224
sa(dp1317
S'block.thisTrialN'
p1318
I17
sS'block.thisRepN'
p1319
I0
sg29
g33
sS'block.thisN'
p1320
I17
sg1156
(S'TIMES'
S'THIRD'
S'DOUBLE'
S'x'
S'y'
tp1321
sg27
g28
sg1158
L3L
sg1159
(I6
I2
I4
tp1322
sg21
I1
sg22
F1.5000453202519566
sg23
F6.0496804658323526
sVY
L2L
sVX
L3L
sg1161
g1169
sg35
g36
sg37
g38
sg20
S'4'
sg19
S'space'
p1323
sg34
g11
sg1163
L4L
sg1164
g1213
sg1166
L4L
sS'block.thisIndex'
p1324
I5
sg1168
g1193
sg1170
L0L
sg1171
g1242
sa(dp1325
S'block.thisTrialN'
p1326
I0
sS'block.thisRepN'
p1327
I0
sg29
g33
sS'block.thisN'
p1328
I0
sVRule
p1329
(S'ADD'
S'DOUBLE'
S'DECREASE'
S'x'
S'y'
tp1330
sg27
g28
sVLength
p1331
L3L
sVIntermediate
p1332
(I1
I2
I7
tp1333
sg21
I0
sg22
F1.8000151184387505
sg23
F0.5168236194876954
sVY
L5L
sVX
L2L
sVOperatorc
p1334
Vdecrease
p1335
sg35
g36
sg37
g38
sg20
S'4'
sg19
S'space'
p1336
sg34
g11
sVResult
p1337
L7L
sVOperatora
p1338
Vdouble
p1339
sVCorrectResponse
p1340
L7L
sS'block.thisIndex'
p1341
I4
sVOperatorb
p1342
VADD
p1343
sVOperatord
p1344
L0L
sVStructure
p1345
VBUUxy
p1346
sa(dp1347
S'block.thisTrialN'
p1348
I1
sS'block.thisRepN'
p1349
I0
sg29
g33
sS'block.thisN'
p1350
I1
sg1329
(S'DOUBLE'
S'SUBTRACT'
S'INCREASE'
S'x'
S'y'
tp1351
sg27
g28
sg1331
L3L
sg1332
(I4
I1
I2
tp1352
sg21
I0
sg22
F0.30033725989051163
sg23
F0.2835015666205436
sVY
L3L
sVX
L3L
sg1334
Vincrease
p1353
sg35
g36
sg37
g38
sg20
S'1'
sg19
S'space'
p1354
sg34
g11
sg1337
L2L
sg1338
VSUBTRACT
p1355
sg1340
L2L
sS'block.thisIndex'
p1356
I6
sg1342
g1339
sg1344
L0L
sg1345
VUBUxy
p1357
sa(dp1358
S'block.thisTrialN'
p1359
I2
sS'block.thisRepN'
p1360
I0
sg29
g33
sS'block.thisN'
p1361
I2
sg1329
(S'DECREASE'
S'ADD'
S'THIRD'
S'HALF'
S'x'
S'y'
tp1362
sg27
g28
sg1331
L4L
sg1332
(I3
I1
I7
I6
tp1363
sg21
I0
sg22
F0.31679009296931326
sg23
F0.066884320578537881
sVY
L6L
sVX
L6L
sg1334
Vthird
p1364
sg35
g36
sg37
g38
sg20
S'4'
sg19
S'space'
p1365
sg34
g11
sg1337
L6L
sg1338
g1343
sg1340
L6L
sS'block.thisIndex'
p1366
I12
sg1342
g1335
sg1344
Vhalf
p1367
sg1345
VUBUUxy
p1368
sa(dp1369
S'block.thisTrialN'
p1370
I3
sS'block.thisRepN'
p1371
I0
sg29
g33
sS'block.thisN'
p1372
I3
sg1329
(S'HALF'
S'ADD'
S'x'
S'y'
tp1373
sg27
g28
sg1331
L2L
sg1332
(I12
I6
tp1374
sg21
I0
sg22
F0.28346552036236972
sg23
F0.25017909379675984
sVY
L8L
sVX
L4L
sg1334
L0L
sg35
g36
sg37
g38
sg20
S'1'
sg19
S'space'
p1375
sg34
g11
sg1337
L6L
sg1338
g1343
sg1340
L6L
sS'block.thisIndex'
p1376
I3
sg1342
g1367
sg1344
L0L
sg1345
VUBxy
p1377
sa(dp1378
S'block.thisTrialN'
p1379
I4
sS'block.thisRepN'
p1380
I0
sg29
g33
sS'block.thisN'
p1381
I4
sg1329
(S'ADD'
S'DECREASE'
S'x'
S'y'
tp1382
sg27
g28
sg1331
L2L
sg1332
(I2
I7
tp1383
sg21
I0
sg22
F0.53345388418529183
sg23
F0.26685380388516933
sVY
L5L
sVX
L3L
sg1334
L0L
sg35
g36
sg37
g38
sg20
S'3'
sg19
S'space'
p1384
sg34
g11
sg1337
L7L
sg1338
g1335
sg1340
L7L
sS'block.thisIndex'
p1385
I0
sg1342
g1343
sg1344
L0L
sg1345
VBUxy
p1386
sa(dp1387
S'block.thisTrialN'
p1388
I5
sS'block.thisRepN'
p1389
I0
sg29
g33
sS'block.thisN'
p1390
I5
sg1329
(S'DECREASE'
S'TRIPLE'
S'SUBTRACT'
S'DOUBLE'
S'x'
S'y'
tp1391
sg27
g28
sg1331
L4L
sg1332
(I6
I3
I9
I8
tp1392
sg21
I1
sg22
F0.71675950614735484
sg23
F0.25017454428598285
sVY
L3L
sVX
L3L
sg1334
g1355
sg35
g36
sg37
g38
sg20
S'8'
sg19
S'space'
p1393
sg34
g11
sg1337
L8L
sg1338
Vtriple
p1394
sg1340
L8L
sS'block.thisIndex'
p1395
I15
sg1342
g1335
sg1344
g1339
sg1345
VUUBUxy
p1396
sa(dp1397
S'block.thisTrialN'
p1398
I6
sS'block.thisRepN'
p1399
I0
sg29
g33
sS'block.thisN'
p1400
I6
sg1329
(S'INCREASE'
S'HALF'
S'THIRD'
S'TIMES'
S'x'
S'y'
tp1401
sg27
g28
sg1331
L4L
sg1332
(I12
I4
I2
I3
tp1402
sg21
I0
sg22
F0.38346583535894752
sg23
F0.26686150301247835
sVY
L4L
sVX
L3L
sg1334
g1364
sg35
g36
sg37
g38
sg20
S'7'
sg19
S'space'
p1403
sg34
g11
sg1337
L3L
sg1338
g1367
sg1340
L3L
sS'block.thisIndex'
p1404
I16
sg1342
g1353
sg1344
VTIMES
p1405
sg1345
VUUUBxy
p1406
sa(dp1407
S'block.thisTrialN'
p1408
I7
sS'block.thisRepN'
p1409
I0
sg29
g33
sS'block.thisN'
p1410
I7
sg1329
(S'DIVIDE'
S'DECREASE'
S'x'
S'y'
tp1411
sg27
g28
sg1331
L2L
sg1332
(I8
I2
tp1412
sg21
I0
sg22
F0.36662454274483025
sg23
F0.23351103311870247
sVY
L4L
sVX
L9L
sg1334
L0L
sg35
g36
sg37
g38
sg20
S'6'
sg19
S'space'
p1413
sg34
g11
sg1337
L2L
sg1338
g1335
sg1340
L2L
sS'block.thisIndex'
p1414
I1
sg1342
VDIVIDE
p1415
sg1344
L0L
sg1345
g1386
sa(dp1416
S'block.thisTrialN'
p1417
I8
sS'block.thisRepN'
p1418
I0
sg29
g33
sS'block.thisN'
p1419
I8
sg1329
(S'HALF'
S'INCREASE'
S'TIMES'
S'x'
S'y'
tp1420
sg27
g28
sg1331
L3L
sg1332
(I9
I10
I5
tp1421
sg21
I0
sg22
F0.60010652896016836
sg23
F0.083528233808465302
sVY
L3L
sVX
L3L
sg1334
g1405
sg35
g36
sg37
g38
sg20
S'4'
sg19
S'space'
p1422
sg34
g11
sg1337
L5L
sg1338
g1353
sg1340
L5L
sS'block.thisIndex'
p1423
I9
sg1342
g1367
sg1344
L0L
sg1345
VUUBxy
p1424
sa(dp1425
S'block.thisTrialN'
p1426
I9
sS'block.thisRepN'
p1427
I0
sg29
g33
sS'block.thisN'
p1428
I9
sg1329
(S'ADD'
S'TRIPLE'
S'DOUBLE'
S'DECREASE'
S'x'
S'y'
tp1429
sg27
g28
sg1331
L4L
sg1332
(I1
I2
I6
I8
tp1430
sg21
I0
sg22
F0.66676197340711951
sg23
F0.23351243301294744
sVY
L2L
sVX
L2L
sg1334
g1339
sg35
g36
sg37
g38
sg20
S'3'
sg19
S'space'
p1431
sg34
g11
sg1337
L8L
sg1338
g1394
sg1340
L8L
sS'block.thisIndex'
p1432
I11
sg1342
g1343
sg1344
g1335
sg1345
VBUUUxy
p1433
sa(dp1434
S'block.thisTrialN'
p1435
I10
sS'block.thisRepN'
p1436
I0
sg29
g33
sS'block.thisN'
p1437
I10
sg1329
(S'THIRD'
S'HALF'
S'INCREASE'
S'SUBTRACT'
S'x'
S'y'
tp1438
sg27
g28
sg1331
L4L
sg1332
(I5
I6
I3
I1
tp1439
sg21
I0
sg22
F0.28346657031215727
sg23
F0.26683630573097616
sVY
L2L
sVX
L7L
sg1334
g1353
sg35
g36
sg37
g38
sg20
S'9'
sg19
S'space'
p1440
sg34
g11
sg1337
L1L
sg1338
g1367
sg1340
L1L
sS'block.thisIndex'
p1441
I17
sg1342
g1364
sg1344
g1355
sg1345
g1406
sa(dp1442
S'block.thisTrialN'
p1443
I11
sS'block.thisRepN'
p1444
I0
sg29
g33
sS'block.thisN'
p1445
I11
sg1329
(S'DECREASE'
S'SUBTRACT'
S'DOUBLE'
S'THIRD'
S'x'
S'y'
tp1446
sg27
g28
sg1331
L4L
sg1332
(I3
I6
I4
I3
tp1447
sg21
I0
sg22
F0.3167998919961974
sg23
F0.25018259347416461
sVY
L2L
sVX
L9L
sg1334
g1339
sg35
g36
sg37
g38
sg20
S'7'
sg19
S'space'
p1448
sg34
g11
sg1337
L3L
sg1338
g1355
sg1340
L3L
sS'block.thisIndex'
p1449
I13
sg1342
g1335
sg1344
g1364
sg1345
g1368
sa(dp1450
S'block.thisTrialN'
p1451
I12
sS'block.thisRepN'
p1452
I0
sg29
g33
sS'block.thisN'
p1453
I12
sg1329
(S'ADD'
S'TRIPLE'
S'HALF'
S'x'
S'y'
tp1454
sg27
g28
sg1331
L3L
sg1332
(I2
I6
I8
tp1455
sg21
I0
sg22
F0.31688178342301399
sg23
F0.083535582991316915
sVY
L2L
sVX
L4L
sg1334
g1367
sg35
g36
sg37
g38
sg20
S'6'
sg19
S'space'
p1456
sg34
g11
sg1337
L8L
sg1338
g1394
sg1340
L8L
sS'block.thisIndex'
p1457
I5
sg1342
g1343
sg1344
L0L
sg1345
g1346
sa(dp1458
S'block.thisTrialN'
p1459
I13
sS'block.thisRepN'
p1460
I0
sg29
g33
sS'block.thisN'
p1461
I13
sg1329
(S'DECREASE'
S'DOUBLE'
S'TIMES'
S'THIRD'
S'x'
S'y'
tp1462
sg27
g28
sg1331
L4L
sg1332
(I1
I3
I6
I5
tp1463
sg21
I0
sg22
F0.28348196868319064
sg23
F0.33350504876580089
sVY
L3L
sVX
L3L
sg1334
g1405
sg35
g36
sg37
g38
sg20
S'2'
sg19
S'space'
p1464
sg34
g11
sg1337
L5L
sg1338
g1339
sg1340
L5L
sS'block.thisIndex'
p1465
I14
sg1342
g1335
sg1344
g1364
sg1345
g1396
sa(dp1466
S'block.thisTrialN'
p1467
I14
sS'block.thisRepN'
p1468
I0
sg29
g33
sS'block.thisN'
p1469
I14
sg1329
(S'DOUBLE'
S'THIRD'
S'ADD'
S'x'
S'y'
tp1470
sg27
g28
sg1331
L3L
sg1332
(I9
I3
I6
tp1471
sg21
I1
sg22
F0.33345815364737064
sg23
F0.30017347680404782
sVY
L4L
sVX
L5L
sg1334
g1343
sg35
g36
sg37
g38
sg20
S'6'
sg19
S'space'
p1472
sg34
g11
sg1337
L6L
sg1338
g1364
sg1340
L6L
sS'block.thisIndex'
p1473
I8
sg1342
g1339
sg1344
L0L
sg1345
g1424
sa(dp1474
S'block.thisTrialN'
p1475
I15
sS'block.thisRepN'
p1476
I0
sg29
g33
sS'block.thisN'
p1477
I15
sg1329
(S'ADD'
S'DECREASE'
S'THIRD'
S'DOUBLE'
S'x'
S'y'
tp1478
sg27
g28
sg1331
L4L
sg1332
(I18
I6
I5
I9
tp1479
sg21
I0
sg22
F1.1335086183389649
sg23
F0.65002042031846941
sVY
L4L
sVX
L9L
sg1334
g1364
sg35
g36
sg37
g38
sg20
S'2'
sg19
S'space'
p1480
sg34
g11
sg1337
L9L
sg1338
g1335
sg1340
L9L
sS'block.thisIndex'
p1481
I10
sg1342
g1343
sg1344
g1339
sg1345
g1433
sa(dp1482
S'block.thisTrialN'
p1483
I16
sS'block.thisRepN'
p1484
I0
sg29
g33
sS'block.thisN'
p1485
I16
sg1329
(S'DECREASE'
S'TIMES'
S'x'
S'y'
tp1486
sg27
g28
sg1331
L2L
sg1332
(I9
I8
tp1487
sg21
I0
sg22
F0.35013076383620501
sg23
F0.050201211590319872
sVY
L3L
sVX
L3L
sg1334
L0L
sg35
g36
sg37
g38
sg20
S'1'
sg19
S'space'
p1488
sg34
g11
sg1337
L8L
sg1338
g1405
sg1340
L8L
sS'block.thisIndex'
p1489
I2
sg1342
g1335
sg1344
L0L
sg1345
g1377
sa(dp1490
S'block.thisTrialN'
p1491
I17
sS'block.thisRepN'
p1492
I0
sg29
g33
sS'block.thisN'
p1493
I17
sg1329
(S'INCREASE'
S'ADD'
S'HALF'
S'x'
S'y'
tp1494
sg27
g28
sg1331
L3L
sg1332
(I1
I4
I5
tp1495
sg21
I1
sg22
F0.31679674226325005
sg23
F0.28351171559188515
sVY
L3L
sVX
L2L
sg1334
g1367
sg35
g36
sg37
g38
sg20
S'5'
sg19
S'space'
p1496
sg34
g11
sg1337
L5L
sg1338
g1343
sg1340
L5L
sS'block.thisIndex'
p1497
I7
sg1342
g1353
sg1344
L0L
sg1345
g1357
sasS'loops'
p1498
(lp1499
g1
(cpsychopy.data
TrialHandler
p1500
g3
NtRp1501
(dp1502
S'origin'
p1503
NsS'thisTrial'
p1504
(lp1505
sS'_exp'
p1506
I342733808
sg10
S'practice_trials'
p1507
sg6
S'C:\\Users\\experimenter\\Desktop\\Experiments\\KRITL\\2. kritl_experimenter.py'
p1508
sS'thisRepN'
p1509
I1
sg24
I01
sg25
g26
sS'data'
p1510
g1
(cpsychopy.data
DataHandler
p1511
c__builtin__
dict
p1512
(dp1513
g15
cnumpy.core.multiarray
_reconstruct
p1514
(cnumpy
ndarray
p1515
(I0
tS'b'
tRp1516
(I1
(I6
I1
tg31
(S'O4'
I0
I1
tRp1517
(I3
S'|'
NNNI-1
I-1
I63
tbI00
(lp1518
(lp1519
F3.1165283902082592
aa(lp1520
F2.1332839418901131
aa(lp1521
F3.0665284077404067
aa(lp1522
F3.7831416290719062
aa(lp1523
F9.8991023786365986
aa(lp1524
F9.2160034100525081
aatbsg16
g1514
(g1515
(I0
tS'b'
tRp1525
(I1
(I6
I1
tg1517
I00
(lp1526
S'7'
aS'8'
aS'7'
aS'8'
aS'9'
aS'9'
atbsS'ran'
p1527
cnumpy.ma.core
_mareconstruct
p1528
(cnumpy.ma.core
MaskedArray
p1529
g1515
(I0
tp1530
S'b'
tRp1531
(I1
(I6
I1
tg31
(S'f4'
I0
I1
tRp1532
(I3
S'<'
NNNI-1
I-1
I0
tbI00
S'\x00\x00\x80?\x00\x00\x80?\x00\x00\x80?\x00\x00\x80?\x00\x00\x80?\x00\x00\x80?'
S'\x00\x00\x00\x00\x00\x00'
Ntbsg18
g1528
(g1529
g1515
g1530
S'b'
tRp1533
(I1
(I6
I1
tg1532
I00
S'\xdb\xb9K@\xe4\xde\xdd?\x0c\xa8j@@\xfc\xef@K\xb8?A\x07\x97\x19A'
S'\x00\x00\x00\x00\x00\x00'
Ntbsg14
g1514
(g1515
(I0
tS'b'
tRp1534
(I1
(I6
I1
tg1517
I00
(lp1535
(lp1536
g73
aa(lp1537
g92
aa(lp1538
g100
aa(lp1539
g83
aa(lp1540
g120
aa(lp1541
g112
aatbsS'order'
p1542
g1528
(g1529
g1515
g1530
S'b'
tRp1543
(I1
(I6
I1
tg1532
I00
S'\x00\x00\x00\x00\x00\x00\x00@\x00\x00@@\x00\x00\x80?\x00\x00\xa0@\x00\x00\x80@'
S'\x00\x00\x00\x00\x00\x00'
Ntbsg17
g1528
(g1529
g1515
g1530
S'b'
tRp1544
(I1
(I6
I1
tg1532
I00
S'\x00\x00\x80?\x00\x00\x80?\x00\x00\x80?\x00\x00\x80?\x00\x00\x00\x00\x00\x00\x80?'
S'\x00\x00\x00\x00\x00\x00'
NtbstRp1545
(dp1546
S'isNumeric'
p1547
(dp1548
g16
I00
sg1527
I01
sg18
I01
sg14
I00
sg17
I01
sg1542
I01
sg15
I00
ssS'trials'
p1549
g1501
sS'dataTypes'
p1550
(lp1551
g1527
ag1542
ag14
ag15
ag16
ag17
ag18
asS'dataShape'
p1552
(lp1553
I6
aI1
asbsS'method'
p1554
S'fullRandom'
p1555
sS'sequenceIndices'
p1556
g1514
(g1515
(I0
tS'b'
tRp1557
(I1
(I6
I1
tg1517
I00
(lp1558
I0
aI3
aI1
aI2
aI5
aI4
atbsS'finished'
p1559
I01
sS'nReps'
p1560
I1
sS'nRemaining'
p1561
I-1
sS'trialList'
p1562
(lp1563
g1
(cpsychopy.data
TrialType
p1564
g1512
(dp1565
g47
L0L
sg48
g68
sg49
g69
sg50
L7L
sg53
L2L
sg52
L0L
sg51
L5L
sg54
L3L
stRp1566
ag1
(g1564
g1512
(dp1567
g47
L0L
sg48
g69
sg49
g88
sg50
L8L
sg53
L2L
sg52
L0L
sg51
L3L
sg54
L3L
stRp1568
ag1
(g1564
g1512
(dp1569
g47
L0L
sg48
g68
sg49
g79
sg50
L7L
sg53
L2L
sg52
L0L
sg51
L5L
sg54
L4L
stRp1570
ag1
(g1564
g1512
(dp1571
g47
g68
sg48
g78
sg49
g79
sg50
L8L
sg53
L3L
sg52
L0L
sg51
L2L
sg54
L4L
stRp1572
ag1
(g1564
g1512
(dp1573
g47
g105
sg48
g106
sg49
g109
sg50
L3L
sg53
L3L
sg52
L0L
sg51
L3L
sg54
L2L
stRp1574
ag1
(g1564
g1512
(dp1575
g47
g105
sg48
g106
sg49
g107
sg50
L9L
sg53
L4L
sg52
g109
sg51
L8L
sg54
L8L
stRp1576
asS'seed'
p1577
NsS'thisIndex'
p1578
I4
sS'thisN'
p1579
I6
sS'thisTrialN'
p1580
I0
sS'nTotal'
p1581
I6
sbag1
(g1500
g3
NtRp1582
(dp1583
g1503
Nsg1504
(lp1584
sg1506
I342733808
sg10
S'block'
p1585
sg6
g1508
sg1509
I1
sg24
I01
sg25
g26
sg1510
g1
(g1511
g1512
(dp1586
g21
g1528
(g1529
g1515
g1530
S'b'
tRp1587
(I1
(I18
I1
tg1532
I00
S'\x00\x00\x80?\x00\x00\x80?\x00\x00\x00\x00\x00\x00\x80?\x00\x00\x00\x00\x00\x00\x80?\x00\x00\x80?\x00\x00\x80?\x00\x00\x80?\x00\x00\x80?\x00\x00\x80?\x00\x00\x00\x00\x00\x00\x00\x00\x00\x00\x00\x00\x00\x00\x00\x00\x00\x00\x80?\x00\x00\x00\x00\x00\x00\x00\x00'
S'\x00\x00\x00\x00\x00\x00\x00\x00\x00\x00\x00\x00\x00\x00\x00\x00\x00\x00'
Ntbsg22
g1528
(g1529
g1515
g1530
S'b'
tRp1588
(I1
(I18
I1
tg1532
I00
S"BA\xa4@\xcd\xdb\x9d@\xbdC\x14@\xb30\xa3@E\xa8\nA8b\xfe@\xd8bBA\xb8\xdb\x01A\xf4\x1e6A\xb9\x84\xe8@\xe8arA\x00\x00\x00\x00\x8b\xb8'A|\x0e\x19A\x13\xfc+AU\x0e\x19A\xd8\x0e\x11A\xd3\x1f\x06A"
S'\x00\x00\x00\x00\x00\x00\x00\x00\x00\x00\x00\x01\x00\x00\x00\x00\x00\x00'
Ntbsg23
g1528
(g1529
g1515
g1530
S'b'
tRp1589
(I1
(I18
I1
tg1532
I00
S'\xd9\xcc,@\xd2\xfd\x13A\x16\x999@2"\x12@\x1ed\xee@=\x96EA\xec\xd9\xfd@C\xfc\xf7@\xa9R\xa5@Y\x1f\xca@\xab\x1eFA\x00\x00\x00\x00\x18\xcb\x9c@\xce.oA\x00\x00\x00\x00=R\xdd@\xbf/;A*t?A'
S'\x00\x00\x00\x00\x00\x00\x00\x00\x00\x00\x00\x01\x00\x00\x01\x00\x00\x00'
Ntbsg1527
g1528
(g1529
g1515
g1530
S'b'
tRp1590
(I1
(I18
I1
tg1532
I00
S'\x00\x00\x80?\x00\x00\x80?\x00\x00\x80?\x00\x00\x80?\x00\x00\x80?\x00\x00\x80?\x00\x00\x80?\x00\x00\x80?\x00\x00\x80?\x00\x00\x80?\x00\x00\x80?\x00\x00\x80?\x00\x00\x80?\x00\x00\x80?\x00\x00\x80?\x00\x00\x80?\x00\x00\x80?\x00\x00\x80?'
S'\x00\x00\x00\x00\x00\x00\x00\x00\x00\x00\x00\x00\x00\x00\x00\x00\x00\x00'
Ntbsg20
g1514
(g1515
(I0
tS'b'
tRp1591
(I1
(I18
I1
tg1517
I00
(lp1592
S'2'
aS'3'
aS'3'
aS'6'
aS'2'
aS'4'
aS'6'
aS'3'
aS'7'
aS'1'
aS'8'
aNaS'5'
aS'3'
aNaS'1'
aS'1'
aS'2'
atbsg1542
g1528
(g1529
g1515
g1530
S'b'
tRp1593
(I1
(I18
I1
tg1532
I00
S'\x00\x00\x00@\x00\x00\x00A\x00\x00\x80A\x00\x00@@\x00\x00\xc0@\x00\x00pA\x00\x00@A\x00\x00PA\x00\x00\x88A\x00\x00`A\x00\x000A\x00\x00\x00\x00\x00\x00\xe0@\x00\x00\x10A\x00\x00\x80?\x00\x00 A\x00\x00\x80@\x00\x00\xa0@'
S'\x00\x00\x00\x00\x00\x00\x00\x00\x00\x00\x00\x00\x00\x00\x00\x00\x00\x00'
Ntbsg19
g1514
(g1515
(I0
tS'b'
tRp1594
(I1
(I18
I1
tg1517
I00
(lp1595
g153
ag210
ag276
ag164
ag192
ag268
ag242
ag251
ag284
ag259
ag234
aNag201
ag218
ag143
ag226
ag173
ag183
atbstRp1596
(dp1597
g1547
(dp1598
g1527
I01
sg20
I00
sg19
I00
sg21
I01
sg22
I01
sg23
I01
sg1542
I01
ssg1549
g1582
sg1550
(lp1599
g1527
ag1542
ag19
ag20
ag21
ag22
ag23
asg1552
(lp1600
I18
aI1
asbsg1554
g1555
sg1556
g1514
(g1515
(I0
tS'b'
tRp1601
(I1
(I18
I1
tg1517
I00
(lp1602
I11
aI14
aI0
aI3
aI16
aI17
aI4
aI12
aI1
aI13
aI15
aI10
aI6
aI7
aI9
aI5
aI2
aI8
atbsg1559
I01
sg1560
I1
sg1561
I-1
sg1562
(lp1603
g1
(g1564
g1512
(dp1604
g55
g151
sVY
L2L
sg57
L2L
sg58
g152
sg59
L2L
sg60
L2L
sg56
g154
sVX
L3L
sg61
L0L
sg62
g156
sg63
L0L
sg64
g157
stRp1605
ag1
(g1564
g1512
(dp1606
g55
g208
sVY
L2L
sg57
L2L
sg58
g209
sg59
L3L
sg60
L3L
sg56
g131
sVX
L6L
sg61
L0L
sg62
g133
sg63
L0L
sg64
g157
stRp1607
ag1
(g1564
g1512
(dp1608
g55
g274
sVY
L4L
sg57
L2L
sg58
g275
sg59
L1L
sg60
L1L
sg56
g156
sVX
L8L
sg61
L0L
sg62
g131
sg63
L0L
sg64
g166
stRp1609
ag1
(g1564
g1512
(dp1610
g55
g162
sVY
L2L
sg57
L2L
sg58
g163
sg59
L6L
sg60
L6L
sg56
g142
sVX
L3L
sg61
L0L
sg62
g154
sg63
L0L
sg64
g166
stRp1611
ag1
(g1564
g1512
(dp1612
g55
g190
sVY
L8L
sg57
L3L
sg58
g191
sg59
L9L
sg60
L9L
sg56
g175
sVX
L6L
sg61
g145
sg62
g142
sg63
L0L
sg64
g194
stRp1613
ag1
(g1564
g1512
(dp1614
g55
g266
sVY
L2L
sg57
L3L
sg58
g267
sg59
L4L
sg60
L4L
sg56
g131
sVX
L3L
sg61
g130
sg62
g156
sg63
L0L
sg64
g194
stRp1615
ag1
(g1564
g1512
(dp1616
g55
g240
sVY
L3L
sg57
L3L
sg58
g241
sg59
L6L
sg60
L6L
sg56
g142
sVX
L3L
sg61
g130
sg62
g175
sg63
L0L
sg64
g244
stRp1617
ag1
(g1564
g1512
(dp1618
g55
g249
sVY
L2L
sg57
L3L
sg58
g250
sg59
L3L
sg60
L3L
sg56
g133
sVX
L8L
sg61
g175
sg62
g154
sg63
L0L
sg64
g244
stRp1619
ag1
(g1564
g1512
(dp1620
g55
g282
sVY
L3L
sg57
L3L
sg58
g283
sg59
L7L
sg60
L7L
sg56
g130
sVX
L6L
sg61
g156
sg62
g154
sg63
L0L
sg64
g261
stRp1621
ag1
(g1564
g1512
(dp1622
g55
g257
sVY
L3L
sg57
L3L
sg58
g258
sg59
L1L
sg60
L1L
sg56
g175
sVX
L3L
sg61
g142
sg62
g145
sg63
L0L
sg64
g261
stRp1623
ag1
(g1564
g1512
(dp1624
g55
g232
sVY
L6L
sg57
L4L
sg58
g233
sg59
L8L
sg60
L8L
sg56
g134
sVX
L6L
sg61
g131
sg62
g142
sg63
g145
sg64
g135
stRp1625
ag1
(g1564
g1512
(dp1626
g55
g128
sVY
L9L
sg57
L4L
sg58
g129
sg59
L8L
sg60
L8L
sg56
g131
sVX
L3L
sg61
g130
sg62
g133
sg63
g134
sg64
g135
stRp1627
ag1
(g1564
g1512
(dp1628
g55
g199
sVY
L2L
sg57
L4L
sg58
g200
sg59
L8L
sg60
L8L
sg56
g142
sVX
L3L
sg61
g154
sg62
g134
sg63
g145
sg64
g203
stRp1629
ag1
(g1564
g1512
(dp1630
g55
g216
sVY
L3L
sg57
L4L
sg58
g217
sg59
L2L
sg60
L2L
sg56
g185
sVX
L2L
sg61
g134
sg62
g145
sg63
g131
sg64
g203
stRp1631
ag1
(g1564
g1512
(dp1632
g55
g140
sVY
L7L
sg57
L4L
sg58
g141
sg59
L8L
sg60
L8L
sg56
g134
sVX
L6L
sg61
g142
sg62
g145
sg63
g131
sg64
g146
stRp1633
ag1
(g1564
g1512
(dp1634
g55
g224
sVY
L9L
sg57
L4L
sg58
g225
sg59
L1L
sg60
L1L
sg56
g154
sVX
L9L
sg61
g156
sg62
g145
sg63
g134
sg64
g146
stRp1635
ag1
(g1564
g1512
(dp1636
g55
g171
sVY
L3L
sg57
L4L
sg58
g172
sg59
L6L
sg60
L6L
sg56
g130
sVX
L9L
sg61
g154
sg62
g175
sg63
g156
sg64
g176
stRp1637
ag1
(g1564
g1512
(dp1638
g55
g181
sVY
L4L
sg57
L4L
sg58
g182
sg59
L6L
sg60
L6L
sg56
g134
sVX
L2L
sg61
g154
sg62
g145
sg63
g185
sg64
g176
stRp1639
asg1577
Nsg1578
I8
sg1579
I18
sg1580
I0
sg1581
I18
sbag1
(g1500
g3
NtRp1640
(dp1641
g1503
Nsg1504
(lp1642
sg1506
I342733808
sg10
g1585
sg6
g1508
sg1509
I1
sg24
I01
sg25
g26
sg1510
g1
(g1511
g1512
(dp1643
g21
g1528
(g1529
g1515
g1530
S'b'
tRp1644
(I1
(I18
I1
tg1532
I00
S'\x00\x00\x80?\x00\x00\x80?\x00\x00\x80?\x00\x00\x80?\x00\x00\x00\x00\x00\x00\x80?\x00\x00\x80?\x00\x00\x80?\x00\x00\x80?\x00\x00\x00\x00\x00\x00\x80?\x00\x00\x00\x00\x00\x00\x00\x00\x00\x00\x00\x00\x00\x00\x80?\x00\x00\x80?\x00\x00\x80?\x00\x00\x00\x00'
S'\x00\x00\x00\x00\x00\x00\x00\x00\x00\x00\x00\x00\x00\x00\x00\x00\x00\x00'
Ntbsg19
g1514
(g1515
(I0
tS'b'
tRp1645
(I1
(I18
I1
tg1517
I00
(lp1646
g457
ag448
ag364
ag338
ag372
ag408
ag399
ag440
ag381
ag416
ag356
ag327
ag347
ag297
ag432
ag316
ag424
ag390
atbsg23
g1528
(g1529
g1515
g1530
S'b'
tRp1647
(I1
(I18
I1
tg1532
I00
S'\xb3\xbaK@\xa1v7@m\x11!@j\xdc\x95@81\x9b@T\xaa\xca?\x1b\x97\x19A\x02c\xe6@bS\x05A\x06\xebZA\x1e\x1f2A\xc5R\x85A&\xca A\x00\x00\x00\x00\x14\x96IA\xdf\xb9\xc3@B\x86\x10AE\xec&A'
S'\x00\x00\x00\x00\x00\x00\x00\x00\x00\x00\x00\x00\x00\x01\x00\x00\x00\x00'
Ntbsg1527
g1528
(g1529
g1515
g1530
S'b'
tRp1648
(I1
(I18
I1
tg1532
I00
S'\x00\x00\x80?\x00\x00\x80?\x00\x00\x80?\x00\x00\x80?\x00\x00\x80?\x00\x00\x80?\x00\x00\x80?\x00\x00\x80?\x00\x00\x80?\x00\x00\x80?\x00\x00\x80?\x00\x00\x80?\x00\x00\x80?\x00\x00\x80?\x00\x00\x80?\x00\x00\x80?\x00\x00\x80?\x00\x00\x80?'
S'\x00\x00\x00\x00\x00\x00\x00\x00\x00\x00\x00\x00\x00\x00\x00\x00\x00\x00'
Ntbsg20
g1514
(g1515
(I0
tS'b'
tRp1649
(I1
(I18
I1
tg1517
I00
(lp1650
S'4'
aS'6'
aS'3'
aS'1'
aS'1'
aS'5'
aS'5'
aS'5'
aS'8'
aS'6'
aS'3'
aS'3'
aS'3'
aNaS'8'
aS'6'
aS'1'
aS'3'
atbsg1542
g1528
(g1529
g1515
g1530
S'b'
tRp1651
(I1
(I18
I1
tg1532
I00
S'\x00\x00\x88A\x00\x00\x80A\x00\x00\xc0@\x00\x00@@\x00\x00\xe0@\x00\x000A\x00\x00 A\x00\x00pA\x00\x00\x00A\x00\x00@A\x00\x00\xa0@\x00\x00\x00@\x00\x00\x80@\x00\x00\x00\x00\x00\x00`A\x00\x00\x80?\x00\x00PA\x00\x00\x10A'
S'\x00\x00\x00\x00\x00\x00\x00\x00\x00\x00\x00\x00\x00\x00\x00\x00\x00\x00'
Ntbsg22
g1528
(g1529
g1515
g1530
S'b'
tRp1652
(I1
(I18
I1
tg1532
I00
S'\xc7\xc8\xf4@e1\x8b@\xb32\x03@\x8b\xdd\r@:Bt@\x1a\xcc\xac@\x12\r\xe9@\xf2\xec.@j\xd8m@K\x0f\x91@\x0b\xec&A>A\x14A\x95c"A\xd7bBAB\rMA\x01\xb8\xeb@\r\xfcWA\xff\x96\x15A'
S'\x00\x00\x00\x00\x00\x00\x00\x00\x00\x00\x00\x00\x00\x00\x00\x00\x00\x00'
NtbstRp1653
(dp1654
g1547
(dp1655
g1527
I01
sg20
I00
sg22
I01
sg21
I01
sg19
I00
sg23
I01
sg1542
I01
ssg1549
g1640
sg1550
(lp1656
g1527
ag1542
ag19
ag22
ag20
ag21
ag23
asg1552
(lp1657
I18
aI1
asbsg1554
g1555
sg1556
g1514
(g1515
(I0
tS'b'
tRp1658
(I1
(I18
I1
tg1517
I00
(lp1659
I13
aI15
aI11
aI3
aI12
aI10
aI2
aI4
aI8
aI17
aI6
aI5
aI9
aI16
aI14
aI7
aI1
aI0
atbsg1559
I01
sg1560
I1
sg1561
I-1
sg1562
(lp1660
g1
(g1564
g1512
(dp1661
g290
g455
sVY
L2L
sg292
L2L
sg293
g456
sg301
L4L
sg298
L4L
sg299
g306
sVX
L3L
sg295
L0L
sg303
g330
sg305
L0L
sg307
g450
stRp1662
ag1
(g1564
g1512
(dp1663
g290
g446
sVY
L2L
sg292
L2L
sg293
g447
sg301
L6L
sg298
L6L
sg299
g328
sVX
L2L
sg295
L0L
sg303
g330
sg305
L0L
sg307
g450
stRp1664
ag1
(g1564
g1512
(dp1665
g290
g362
sVY
L5L
sg292
L2L
sg293
g363
sg301
L3L
sg298
L3L
sg299
g315
sVX
L4L
sg295
L0L
sg303
g326
sg305
L0L
sg307
g340
stRp1666
ag1
(g1564
g1512
(dp1667
g290
g336
sVY
L2L
sg292
L2L
sg293
g337
sg301
L1L
sg298
L1L
sg299
g300
sVX
L5L
sg295
L0L
sg303
g326
sg305
L0L
sg307
g340
stRp1668
ag1
(g1564
g1512
(dp1669
g290
g370
sVY
L3L
sg292
L3L
sg293
g371
sg301
L9L
sg298
L9L
sg299
g306
sVX
L8L
sg295
g317
sg303
g330
sg305
L0L
sg307
g374
stRp1670
ag1
(g1564
g1512
(dp1671
g290
g406
sVY
L5L
sg292
L3L
sg293
g407
sg301
L5L
sg298
L5L
sg299
g326
sVX
L6L
sg295
g317
sg303
g330
sg305
L0L
sg307
g374
stRp1672
ag1
(g1564
g1512
(dp1673
g290
g397
sVY
L7L
sg292
L3L
sg293
g398
sg301
L5L
sg298
L5L
sg299
g315
sVX
L7L
sg295
g328
sg303
g326
sg305
L0L
sg307
g401
stRp1674
ag1
(g1564
g1512
(dp1675
g290
g438
sVY
L5L
sg292
L3L
sg293
g439
sg301
L5L
sg298
L5L
sg299
g330
sVX
L4L
sg295
g306
sg303
g326
sg305
L0L
sg307
g401
stRp1676
ag1
(g1564
g1512
(dp1677
g290
g379
sVY
L5L
sg292
L3L
sg293
g380
sg301
L8L
sg298
L8L
sg299
g306
sVX
L5L
sg295
g330
sg303
g326
sg305
L0L
sg307
g383
stRp1678
ag1
(g1564
g1512
(dp1679
g290
g414
sVY
L2L
sg292
L3L
sg293
g415
sg301
L3L
sg298
L3L
sg299
g317
sVX
L4L
sg295
g348
sg303
g304
sg305
L0L
sg307
g383
stRp1680
ag1
(g1564
g1512
(dp1681
g290
g354
sVY
L5L
sg292
L4L
sg293
g355
sg301
L3L
sg298
L3L
sg299
g317
sVX
L5L
sg295
g328
sg303
g300
sg305
g304
sg307
g331
stRp1682
ag1
(g1564
g1512
(dp1683
g290
g324
sVY
L3L
sg292
L4L
sg293
g325
sg301
L9L
sg298
L9L
sg299
g328
sVX
L3L
sg295
g326
sg303
g330
sg305
g296
sg307
g331
stRp1684
ag1
(g1564
g1512
(dp1685
g290
g345
sVY
L6L
sg292
L4L
sg293
g346
sg301
L4L
sg298
L4L
sg299
g348
sVX
L3L
sg295
g304
sg303
g328
sg305
g296
sg307
g308
stRp1686
ag1
(g1564
g1512
(dp1687
g290
g291
sVY
L3L
sg292
L4L
sg293
g294
sg301
L3L
sg298
L3L
sg299
g300
sVX
L3L
sg295
g296
sg303
g304
sg305
g306
sg307
g308
stRp1688
ag1
(g1564
g1512
(dp1689
g290
g430
sVY
L2L
sg292
L4L
sg293
g431
sg301
L8L
sg298
L8L
sg299
g296
sVX
L9L
sg295
g315
sg303
g326
sg305
g328
sg307
g319
stRp1690
ag1
(g1564
g1512
(dp1691
g290
g313
sVY
L3L
sg292
L4L
sg293
g314
sg301
L6L
sg298
L6L
sg299
g317
sVX
L2L
sg295
g315
sg303
g304
sg305
g306
sg307
g319
stRp1692
ag1
(g1564
g1512
(dp1693
g290
g422
sVY
L2L
sg292
L4L
sg293
g423
sg301
L1L
sg298
L1L
sg299
g328
sVX
L8L
sg295
g317
sg303
g326
sg305
g348
sg307
g392
stRp1694
ag1
(g1564
g1512
(dp1695
g290
g388
sVY
L2L
sg292
L4L
sg293
g389
sg301
L6L
sg298
L6L
sg299
g306
sVX
L3L
sg295
g317
sg303
g304
sg305
g330
sg307
g392
stRp1696
asg1577
Nsg1578
I0
sg1579
I18
sg1580
I0
sg1581
I18
sbag1
(g1500
g3
NtRp1697
(dp1698
g1503
Nsg1504
(lp1699
sg1506
I342733808
sg10
g1585
sg6
g1508
sg1509
I1
sg24
I01
sg25
g26
sg1510
g1
(g1511
g1512
(dp1700
g21
g1528
(g1529
g1515
g1530
S'b'
tRp1701
(I1
(I18
I1
tg1532
I00
S'\x00\x00\x80?\x00\x00\x80?\x00\x00\x80?\x00\x00\x80?\x00\x00\x80?\x00\x00\x80?\x00\x00\x80?\x00\x00\x80?\x00\x00\x00\x00\x00\x00\x80?\x00\x00\x00\x00\x00\x00\x80?\x00\x00\x00\x00\x00\x00\x00\x00\x00\x00\x00\x00\x00\x00\x80?\x00\x00\x00\x00\x00\x00\x00\x00'
S'\x00\x00\x00\x00\x00\x00\x00\x00\x00\x00\x00\x00\x00\x00\x00\x00\x00\x00'
Ntbsg19
g1514
(g1515
(I0
tS'b'
tRp1702
(I1
(I18
I1
tg1517
I00
(lp1703
g590
ag556
ag469
ag573
ag530
ag622
ag511
ag614
ag565
ag499
ag521
ag598
ag606
ag487
ag539
ag548
ag581
ag630
atbsg23
g1528
(g1529
g1515
g1530
S'b'
tRp1704
(I1
(I18
I1
tg1532
I00
S'\x97\x0fa@\x9evG@\t2\x83@\xf3\xc1\xfb?\xf4\xec\x02A\xa4r\xdf@\x13\x85HA+\xda\xf5@i\x9f\xd6@\x8b\xa7\xda@\xb7\xca\x08AxA\x18A\xc8\xfc?A\x8dS\x9d@\x9b\xb8/A\xef\xfd\x03A\xb5\x85\x92AW/OA'
S'\x00\x00\x00\x00\x00\x00\x00\x00\x00\x00\x00\x00\x00\x00\x00\x00\x00\x00'
Ntbsg1527
g1528
(g1529
g1515
g1530
S'b'
tRp1705
(I1
(I18
I1
tg1532
I00
S'\x00\x00\x80?\x00\x00\x80?\x00\x00\x80?\x00\x00\x80?\x00\x00\x80?\x00\x00\x80?\x00\x00\x80?\x00\x00\x80?\x00\x00\x80?\x00\x00\x80?\x00\x00\x80?\x00\x00\x80?\x00\x00\x80?\x00\x00\x80?\x00\x00\x80?\x00\x00\x80?\x00\x00\x80?\x00\x00\x80?'
S'\x00\x00\x00\x00\x00\x00\x00\x00\x00\x00\x00\x00\x00\x00\x00\x00\x00\x00'
Ntbsg20
g1514
(g1515
(I0
tS'b'
tRp1706
(I1
(I18
I1
tg1517
I00
(lp1707
S'1'
aS'8'
aS'4'
aS'1'
aS'3'
aS'9'
aS'1'
aS'6'
aS'1'
aS'8'
aS'3'
aS'1'
aS'4'
aS'2'
aS'6'
aS'5'
aS'4'
aS'2'
atbsg1542
g1528
(g1529
g1515
g1530
S'b'
tRp1708
(I1
(I18
I1
tg1532
I00
S'\x00\x00@A\x00\x00\x00A\x00\x00\x00\x00\x00\x00 A\x00\x00\xa0@\x00\x00\x80A\x00\x00@@\x00\x00pA\x00\x00\x10A\x00\x00\x00@\x00\x00\x80@\x00\x00PA\x00\x00`A\x00\x00\x80?\x00\x00\xc0@\x00\x00\xe0@\x00\x000A\x00\x00\x88A'
S'\x00\x00\x00\x00\x00\x00\x00\x00\x00\x00\x00\x00\x00\x00\x00\x00\x00\x00'
Ntbsg22
g1528
(g1529
g1515
g1530
S'b'
tRp1709
(I1
(I18
I1
tg1532
I00
S'=\xa9\x82@h\xee\x0e@r\xfd\x0fA\x86\xbb\xbb?\x95dF@\xf0\xcal@\xfb\xc9\xbc@\xe6\xcb\x0c@\x10C\x84@%\x98\x81@\x8fR!A\xb8PQA\xd4\xca\x9c@\x88\x0f1@%@`A\xe0\x96\x1dA\x91\xec\x06A\xdb\xeaZA'
S'\x00\x00\x00\x00\x00\x00\x00\x00\x00\x00\x00\x00\x00\x00\x00\x00\x00\x00'
NtbstRp1710
(dp1711
g1547
(dp1712
g1527
I01
sg20
I00
sg22
I01
sg21
I01
sg19
I00
sg23
I01
sg1542
I01
ssg1549
g1697
sg1550
(lp1713
g1527
ag1542
ag19
ag22
ag20
ag21
ag23
asg1552
(lp1714
I18
aI1
asbsg1554
g1555
sg1556
g1514
(g1515
(I0
tS'b'
tRp1715
(I1
(I18
I1
tg1517
I00
(lp1716
I2
aI13
aI9
aI6
aI10
aI4
aI14
aI15
aI1
aI8
aI3
aI16
aI0
aI11
aI12
aI7
aI5
aI17
atbsg1559
I01
sg1560
I1
sg1561
I-1
sg1562
(lp1717
g1
(g1564
g1512
(dp1718
g463
g588
sVY
L3L
sg465
L2L
sg466
g589
sg473
L1L
sg470
L1L
sg471
g500
sVX
L9L
sg468
L0L
sg475
g512
sg477
L0L
sg478
g558
stRp1719
ag1
(g1564
g1512
(dp1720
g463
g554
sVY
L2L
sg465
L2L
sg466
g555
sg473
L8L
sg470
L8L
sg471
g502
sVX
L2L
sg468
L0L
sg475
g498
sg477
L0L
sg478
g558
stRp1721
ag1
(g1564
g1512
(dp1722
g463
g464
sVY
L3L
sg465
L2L
sg466
g467
sg473
L4L
sg470
L4L
sg471
g472
sVX
L6L
sg468
L0L
sg475
g476
sg477
L0L
sg478
g479
stRp1723
ag1
(g1564
g1512
(dp1724
g463
g571
sVY
L2L
sg465
L2L
sg466
g572
sg473
L1L
sg470
L1L
sg471
g512
sVX
L6L
sg468
L0L
sg475
g500
sg477
L0L
sg478
g479
stRp1725
ag1
(g1564
g1512
(dp1726
g463
g528
sVY
L9L
sg465
L3L
sg466
g529
sg473
L3L
sg470
L3L
sg471
g490
sVX
L5L
sg468
g510
sg475
g472
sg477
L0L
sg478
g532
stRp1727
ag1
(g1564
g1512
(dp1728
g463
g620
sVY
L3L
sg465
L3L
sg466
g621
sg473
L9L
sg470
L9L
sg471
g486
sVX
L5L
sg468
g476
sg475
g498
sg477
L0L
sg478
g532
stRp1729
ag1
(g1564
g1512
(dp1730
g463
g508
sVY
L2L
sg465
L3L
sg466
g509
sg473
L1L
sg470
L1L
sg471
g512
sVX
L7L
sg468
g510
sg475
g500
sg477
L0L
sg478
g514
stRp1731
ag1
(g1564
g1512
(dp1732
g463
g612
sVY
L6L
sg465
L3L
sg466
g613
sg473
L6L
sg470
L6L
sg471
g498
sVX
L6L
sg468
g486
sg475
g500
sg477
L0L
sg478
g514
stRp1733
ag1
(g1564
g1512
(dp1734
g463
g563
sVY
L2L
sg465
L3L
sg466
g564
sg473
L6L
sg470
L6L
sg471
g510
sVX
L2L
sg468
g488
sg475
g502
sg477
L0L
sg478
g503
stRp1735
ag1
(g1564
g1512
(dp1736
g463
g496
sVY
L6L
sg465
L3L
sg466
g497
sg473
L8L
sg470
L8L
sg471
g500
sVX
L2L
sg468
g498
sg475
g502
sg477
L0L
sg478
g503
stRp1737
ag1
(g1564
g1512
(dp1738
g463
g519
sVY
L4L
sg465
L4L
sg466
g520
sg473
L8L
sg470
L8L
sg471
g502
sVX
L3L
sg468
g490
sg475
g472
sg477
g510
sg478
g523
stRp1739
ag1
(g1564
g1512
(dp1740
g463
g596
sVY
L8L
sg465
L4L
sg466
g597
sg473
L1L
sg470
L1L
sg471
g490
sVX
L2L
sg468
g510
sg475
g472
sg477
g502
sg478
g523
stRp1741
ag1
(g1564
g1512
(dp1742
g463
g604
sVY
L5L
sg465
L4L
sg466
g605
sg473
L6L
sg470
L6L
sg471
g512
sVX
L4L
sg468
g490
sg475
g502
sg477
g476
sg478
g491
stRp1743
ag1
(g1564
g1512
(dp1744
g463
g484
sVY
L3L
sg465
L4L
sg466
g485
sg473
L7L
sg470
L7L
sg471
g488
sVX
L2L
sg468
g486
sg475
g476
sg477
g490
sg478
g491
stRp1745
ag1
(g1564
g1512
(dp1746
g463
g537
sVY
L3L
sg465
L4L
sg466
g538
sg473
L5L
sg470
L5L
sg471
g490
sVX
L3L
sg468
g512
sg475
g510
sg477
g502
sg478
g541
stRp1747
ag1
(g1564
g1512
(dp1748
g463
g546
sVY
L4L
sg465
L4L
sg466
g547
sg473
L5L
sg470
L5L
sg471
g510
sVX
L8L
sg468
g498
sg475
g500
sg477
g486
sg478
g541
stRp1749
ag1
(g1564
g1512
(dp1750
g463
g579
sVY
L2L
sg465
L4L
sg466
g580
sg473
L5L
sg470
L5L
sg471
g490
sVX
L6L
sg468
g486
sg475
g510
sg477
g472
sg478
g583
stRp1751
ag1
(g1564
g1512
(dp1752
g463
g628
sVY
L2L
sg465
L4L
sg466
g629
sg473
L3L
sg470
L3L
sg471
g490
sVX
L3L
sg468
g476
sg475
g486
sg477
g472
sg478
g583
stRp1753
asg1577
Nsg1578
I17
sg1579
I18
sg1580
I0
sg1581
I18
sbag1
(g1500
g3
NtRp1754
(dp1755
g1503
Nsg1504
(lp1756
sg1506
I342733808
sg10
g1585
sg6
g1508
sg1509
I1
sg24
I01
sg25
g26
sg1510
g1
(g1511
g1512
(dp1757
g21
g1528
(g1529
g1515
g1530
S'b'
tRp1758
(I1
(I18
I1
tg1532
I00
S'\x00\x00\x80?\x00\x00\x80?\x00\x00\x00\x00\x00\x00\x80?\x00\x00\x80?\x00\x00\x80?\x00\x00\x80?\x00\x00\x80?\x00\x00\x00\x00\x00\x00\x80?\x00\x00\x80?\x00\x00\x80?\x00\x00\x00\x00\x00\x00\x00\x00\x00\x00\x80?\x00\x00\x80?\x00\x00\x00\x00\x00\x00\x80?'
S'\x00\x00\x00\x00\x00\x00\x00\x00\x00\x00\x00\x00\x00\x00\x00\x00\x00\x00'
Ntbsg19
g1514
(g1515
(I0
tS'b'
tRp1759
(I1
(I18
I1
tg1517
I00
(lp1760
g709
ag642
ag717
ag762
ag671
ag690
ag681
ag737
ag803
ag745
ag787
ag659
ag727
ag795
ag770
ag779
ag700
ag754
atbsg23
g1528
(g1529
g1515
g1530
S'b'
tRp1761
(I1
(I18
I1
tg1532
I00
S'K\xb9\xbb@=\xfe_@`A\xd4@\xff2#@\n\x98\x99@\xda?lAqB\xa4@\xc9\xc7l@4 \xaa@\x0c\xb9\xcb@\xdbc\x1eAO\xa8\x82A\xec\x1e:AU1\xa3@\xb3\x83dA%0+A5\x86\x82A91\xab@'
S'\x00\x00\x00\x00\x00\x00\x00\x00\x00\x00\x00\x00\x00\x00\x00\x00\x00\x00'
Ntbsg1527
g1528
(g1529
g1515
g1530
S'b'
tRp1762
(I1
(I18
I1
tg1532
I00
S'\x00\x00\x80?\x00\x00\x80?\x00\x00\x80?\x00\x00\x80?\x00\x00\x80?\x00\x00\x80?\x00\x00\x80?\x00\x00\x80?\x00\x00\x80?\x00\x00\x80?\x00\x00\x80?\x00\x00\x80?\x00\x00\x80?\x00\x00\x80?\x00\x00\x80?\x00\x00\x80?\x00\x00\x80?\x00\x00\x80?'
S'\x00\x00\x00\x00\x00\x00\x00\x00\x00\x00\x00\x00\x00\x00\x00\x00\x00\x00'
Ntbsg20
g1514
(g1515
(I0
tS'b'
tRp1763
(I1
(I18
I1
tg1517
I00
(lp1764
S'1'
aS'4'
aS'5'
aS'6'
aS'6'
aS'7'
aS'8'
aS'2'
aS'3'
aS'9'
aS'1'
aS'2'
aS'4'
aS'4'
aS'7'
aS'1'
aS'1'
aS'7'
atbsg1542
g1528
(g1529
g1515
g1530
S'b'
tRp1765
(I1
(I18
I1
tg1532
I00
S'\x00\x00\xc0@\x00\x00\x00\x00\x00\x00\xe0@\x00\x00@A\x00\x00\x00@\x00\x00\x80@\x00\x00@@\x00\x00\x10A\x00\x00\x88A\x00\x00 A\x00\x00pA\x00\x00\x80?\x00\x00\x00A\x00\x00\x80A\x00\x00PA\x00\x00`A\x00\x00\xa0@\x00\x000A'
S'\x00\x00\x00\x00\x00\x00\x00\x00\x00\x00\x00\x00\x00\x00\x00\x00\x00\x00'
Ntbsg22
g1528
(g1529
g1515
g1530
S'b'
tRp1766
(I1
(I18
I1
tg1532
I00
S'%\xfb\xbf?\x90QMA\xf1\xcb\x1c@\xae\xff\xff?\x12\x1e\xaa@\xf3SE@\xc1R\xb5@\xc4T\x15@R\xdc\x85@1\xa9\x82@\xc2\x0e1@\x111S@\x1e\xca\xc4@\xbfc\xae@\xef\xda\xc5@|\xdd]@X\x0f\x91@\xe4\xec\x9e@'
S'\x00\x00\x00\x00\x00\x00\x00\x00\x00\x00\x00\x00\x00\x00\x00\x00\x00\x00'
NtbstRp1767
(dp1768
g1547
(dp1769
g1527
I01
sg20
I00
sg22
I01
sg21
I01
sg19
I00
sg23
I01
sg1542
I01
ssg1549
g1754
sg1550
(lp1770
g1527
ag1542
ag19
ag22
ag20
ag21
ag23
asg1552
(lp1771
I18
aI1
asbsg1554
g1555
sg1556
g1514
(g1515
(I0
tS'b'
tRp1772
(I1
(I18
I1
tg1517
I00
(lp1773
I1
aI11
aI4
aI6
aI5
aI16
aI0
aI2
aI12
aI7
aI9
aI17
aI3
aI14
aI15
aI10
aI13
aI8
atbsg1559
I01
sg1560
I1
sg1561
I-1
sg1562
(lp1774
g1
(g1564
g1512
(dp1775
g636
g707
sVY
L2L
sg638
L2L
sg639
g708
sg646
L1L
sg643
L1L
sg644
g645
sVX
L9L
sg641
L0L
sg648
g692
sg650
L0L
sg651
g652
stRp1776
ag1
(g1564
g1512
(dp1777
g636
g637
sVY
L4L
sg638
L2L
sg639
g640
sg646
L4L
sg643
L4L
sg644
g645
sVX
L3L
sg641
L0L
sg648
g649
sg650
L0L
sg651
g652
stRp1778
ag1
(g1564
g1512
(dp1779
g636
g715
sVY
L4L
sg638
L2L
sg639
g716
sg646
L9L
sg643
L9L
sg644
g649
sVX
L2L
sg641
L0L
sg648
g719
sg650
L0L
sg651
g720
stRp1780
ag1
(g1564
g1512
(dp1781
g636
g760
sVY
L6L
sg638
L2L
sg639
g761
sg646
L6L
sg643
L6L
sg644
g692
sVX
L8L
sg641
L0L
sg648
g699
sg650
L0L
sg651
g720
stRp1782
ag1
(g1564
g1512
(dp1783
g636
g668
sVY
L4L
sg638
L3L
sg639
g669
sg646
L6L
sg643
L6L
sg644
g660
sVX
L6L
sg641
g670
sg648
g673
sg650
L0L
sg651
g674
stRp1784
ag1
(g1564
g1512
(dp1785
g636
g688
sVY
L9L
sg638
L3L
sg639
g689
sg646
L7L
sg643
L7L
sg644
g662
sVX
L9L
sg641
g660
sg648
g692
sg650
L0L
sg651
g674
stRp1786
ag1
(g1564
g1512
(dp1787
g636
g679
sVY
L4L
sg638
L3L
sg639
g680
sg646
L8L
sg643
L8L
sg644
g649
sVX
L3L
sg641
g645
sg648
g662
sg650
L0L
sg651
g683
stRp1788
ag1
(g1564
g1512
(dp1789
g636
g735
sVY
L2L
sg638
L3L
sg639
g736
sg646
L2L
sg643
L2L
sg644
g728
sVX
L4L
sg641
g670
sg648
g719
sg650
L0L
sg651
g683
stRp1790
ag1
(g1564
g1512
(dp1791
g636
g801
sVY
L2L
sg638
L3L
sg639
g802
sg646
L1L
sg643
L1L
sg644
g670
sVX
L8L
sg641
g728
sg648
g660
sg650
L0L
sg651
g747
stRp1792
ag1
(g1564
g1512
(dp1793
g636
g743
sVY
L3L
sg638
L3L
sg639
g744
sg646
L9L
sg643
L9L
sg644
g670
sVX
L2L
sg641
g649
sg648
g699
sg650
L0L
sg651
g747
stRp1794
ag1
(g1564
g1512
(dp1795
g636
g785
sVY
L3L
sg638
L4L
sg639
g786
sg646
L1L
sg643
L1L
sg644
g660
sVX
L6L
sg641
g645
sg648
g728
sg650
g662
sg651
g663
stRp1796
ag1
(g1564
g1512
(dp1797
g636
g657
sVY
L2L
sg638
L4L
sg639
g658
sg646
L2L
sg643
L2L
sg644
g660
sVX
L3L
sg641
g645
sg648
g649
sg650
g662
sg651
g663
stRp1798
ag1
(g1564
g1512
(dp1799
g636
g725
sVY
L9L
sg638
L4L
sg639
g726
sg646
L1L
sg643
L1L
sg644
g728
sVX
L3L
sg641
g699
sg648
g660
sg650
g662
sg651
g730
stRp1800
ag1
(g1564
g1512
(dp1801
g636
g793
sVY
L3L
sg638
L4L
sg639
g794
sg646
L3L
sg643
L3L
sg644
g692
sVX
L6L
sg641
g719
sg648
g699
sg650
g670
sg651
g730
stRp1802
ag1
(g1564
g1512
(dp1803
g636
g768
sVY
L2L
sg638
L4L
sg639
g769
sg646
L7L
sg643
L7L
sg644
g670
sVX
L2L
sg641
g649
sg648
g719
sg650
g699
sg651
g772
stRp1804
ag1
(g1564
g1512
(dp1805
g636
g777
sVY
L2L
sg638
L4L
sg639
g778
sg646
L1L
sg643
L1L
sg644
g719
sVX
L8L
sg641
g692
sg648
g645
sg650
g670
sg651
g772
stRp1806
ag1
(g1564
g1512
(dp1807
g636
g697
sVY
L2L
sg638
L4L
sg639
g698
sg646
L5L
sg643
L5L
sg644
g670
sVX
L2L
sg641
g699
sg648
g660
sg650
g673
sg651
g702
stRp1808
ag1
(g1564
g1512
(dp1809
g636
g752
sVY
L2L
sg638
L4L
sg639
g753
sg646
L7L
sg643
L7L
sg644
g699
sVX
L2L
sg641
g670
sg648
g719
sg650
g673
sg651
g702
stRp1810
asg1577
Nsg1578
I8
sg1579
I18
sg1580
I0
sg1581
I18
sbag1
(g1500
g3
NtRp1811
(dp1812
g1503
Nsg1504
(lp1813
sg1506
I342733808
sg10
g1585
sg6
g1508
sg1509
I1
sg24
I01
sg25
g26
sg1510
g1
(g1511
g1512
(dp1814
g21
g1528
(g1529
g1515
g1530
S'b'
tRp1815
(I1
(I18
I1
tg1532
I00
S'\x00\x00\x80?\x00\x00\x80?\x00\x00\x80?\x00\x00\x80?\x00\x00\x80?\x00\x00\x80?\x00\x00\x80?\x00\x00\x80?\x00\x00\x80?\x00\x00\x80?\x00\x00\x00\x00\x00\x00\x80?\x00\x00\x80?\x00\x00\x00\x00\x00\x00\x80?\x00\x00\x80?\x00\x00\x80?\x00\x00\x00\x00'
S'\x00\x00\x00\x00\x00\x00\x00\x00\x00\x00\x00\x00\x00\x00\x00\x00\x00\x00'
Ntbsg19
g1514
(g1515
(I0
tS'b'
tRp1816
(I1
(I18
I1
tg1517
I00
(lp1817
g977
ag865
ag875
ag909
ag901
ag835
ag918
ag845
ag926
ag943
ag816
ag893
ag968
ag951
ag960
ag884
ag855
ag935
atbsg23
g1528
(g1529
g1515
g1530
S'b'
tRp1818
(I1
(I18
I1
tg1532
I00
S'\x023#@GC4@X\xfc\xbf@_u\xaf@}\r\xf1@D1\xab@l\x1eVA\xfd\x878@;\x0f\xa1@\xaf\x0e\xb9@Quw@g\xfc\xff@hR%AM9s?61\x03A\xdfc\x1eA7c\xde@\xff\x96\x1dA'
S'\x00\x00\x00\x00\x00\x00\x00\x00\x00\x00\x00\x00\x00\x00\x00\x00\x00\x00'
Ntbsg1527
g1528
(g1529
g1515
g1530
S'b'
tRp1819
(I1
(I18
I1
tg1532
I00
S'\x00\x00\x80?\x00\x00\x80?\x00\x00\x80?\x00\x00\x80?\x00\x00\x80?\x00\x00\x80?\x00\x00\x80?\x00\x00\x80?\x00\x00\x80?\x00\x00\x80?\x00\x00\x80?\x00\x00\x80?\x00\x00\x80?\x00\x00\x80?\x00\x00\x80?\x00\x00\x80?\x00\x00\x80?\x00\x00\x80?'
S'\x00\x00\x00\x00\x00\x00\x00\x00\x00\x00\x00\x00\x00\x00\x00\x00\x00\x00'
Ntbsg20
g1514
(g1515
(I0
tS'b'
tRp1820
(I1
(I18
I1
tg1517
I00
(lp1821
S'8'
aS'2'
aS'2'
aS'8'
aS'1'
aS'2'
aS'1'
aS'2'
aS'8'
aS'6'
aS'6'
aS'1'
aS'9'
aS'1'
aS'3'
aS'6'
aS'5'
aS'8'
atbsg1542
g1528
(g1529
g1515
g1530
S'b'
tRp1822
(I1
(I18
I1
tg1532
I00
S'\x00\x00\x88A\x00\x00\x80@\x00\x00\xa0@\x00\x00\x10A\x00\x00\x00A\x00\x00\x80?\x00\x00 A\x00\x00\x00@\x00\x000A\x00\x00PA\x00\x00\x00\x00\x00\x00\xe0@\x00\x00\x80A\x00\x00`A\x00\x00pA\x00\x00\xc0@\x00\x00@@\x00\x00@A'
S'\x00\x00\x00\x00\x00\x00\x00\x00\x00\x00\x00\x00\x00\x00\x00\x00\x00\x00'
Ntbsg22
g1528
(g1529
g1515
g1530
S'b'
tRp1823
(I1
(I18
I1
tg1532
I00
S'u#\xc2?\x81\xbd\xdb?cT\x15@~x\xd7?\xc5\xda\xbd@a\x97\xa1@\xbf\x1f\x0eA\xd4\xdb\x95@\x113\x03@I\xb8\x0b@UR\x1dA\x14\xcb\x84@\x11\xca|@< \x92@hd\x96@E\xa7\xca@"0\xcb@\xe2\xa8\x92@'
S'\x00\x00\x00\x00\x00\x00\x00\x00\x00\x00\x00\x00\x00\x00\x00\x00\x00\x00'
NtbstRp1824
(dp1825
g1547
(dp1826
g1527
I01
sg20
I00
sg22
I01
sg21
I01
sg19
I00
sg23
I01
sg1542
I01
ssg1549
g1811
sg1550
(lp1827
g1527
ag1542
ag19
ag22
ag20
ag21
ag23
asg1552
(lp1828
I18
aI1
asbsg1554
g1555
sg1556
g1514
(g1515
(I0
tS'b'
tRp1829
(I1
(I18
I1
tg1517
I00
(lp1830
I10
aI5
aI7
aI16
aI1
aI2
aI15
aI11
aI4
aI3
aI6
aI8
aI17
aI9
aI13
aI14
aI12
aI0
atbsg1559
I01
sg1560
I1
sg1561
I-1
sg1562
(lp1831
g1
(g1564
g1512
(dp1832
g809
g975
sVY
L4L
sg811
L2L
sg812
g976
sg820
L8L
sg817
L8L
sg818
g866
sVX
L2L
sg814
L0L
sg822
g823
sg824
L0L
sg826
g868
stRp1833
ag1
(g1564
g1512
(dp1834
g809
g863
sVY
L6L
sg811
L2L
sg812
g864
sg820
L2L
sg817
L2L
sg818
g866
sVX
L6L
sg814
L0L
sg822
g846
sg824
L0L
sg826
g868
stRp1835
ag1
(g1564
g1512
(dp1836
g809
g873
sVY
L7L
sg811
L2L
sg812
g874
sg820
L2L
sg817
L2L
sg818
g837
sVX
L8L
sg814
L0L
sg822
g866
sg824
L0L
sg826
g877
stRp1837
ag1
(g1564
g1512
(dp1838
g809
g907
sVY
L4L
sg811
L2L
sg812
g908
sg820
L8L
sg817
L8L
sg818
g910
sVX
L4L
sg814
L0L
sg822
g825
sg824
L0L
sg826
g877
stRp1839
ag1
(g1564
g1512
(dp1840
g809
g899
sVY
L4L
sg811
L3L
sg812
g900
sg820
L1L
sg817
L1L
sg818
g866
sVX
L6L
sg814
g819
sg822
g846
sg824
L0L
sg826
g838
stRp1841
ag1
(g1564
g1512
(dp1842
g809
g832
sVY
L4L
sg811
L3L
sg812
g833
sg820
L2L
sg817
L2L
sg818
g825
sVX
L4L
sg814
g834
sg822
g837
sg824
L0L
sg826
g838
stRp1843
ag1
(g1564
g1512
(dp1844
g809
g916
sVY
L7L
sg811
L3L
sg812
g917
sg820
L1L
sg817
L1L
sg818
g837
sVX
L3L
sg814
g834
sg822
g825
sg824
L0L
sg826
g848
stRp1845
ag1
(g1564
g1512
(dp1846
g809
g843
sVY
L3L
sg811
L3L
sg812
g844
sg820
L2L
sg817
L2L
sg818
g846
sVX
L9L
sg814
g819
sg822
g815
sg824
L0L
sg826
g848
stRp1847
ag1
(g1564
g1512
(dp1848
g809
g924
sVY
L2L
sg811
L3L
sg812
g925
sg820
L8L
sg817
L8L
sg818
g857
sVX
L7L
sg814
g837
sg822
g866
sg824
L0L
sg826
g928
stRp1849
ag1
(g1564
g1512
(dp1850
g809
g941
sVY
L3L
sg811
L3L
sg812
g942
sg820
L6L
sg817
L6L
sg818
g834
sVX
L4L
sg814
g837
sg822
g866
sg824
L0L
sg826
g928
stRp1851
ag1
(g1564
g1512
(dp1852
g809
g810
sVY
L6L
sg811
L4L
sg812
g813
sg820
L7L
sg817
L7L
sg818
g819
sVX
L4L
sg814
g815
sg822
g823
sg824
g825
sg826
g827
stRp1853
ag1
(g1564
g1512
(dp1854
g809
g891
sVY
L5L
sg811
L4L
sg812
g892
sg820
L1L
sg817
L1L
sg818
g815
sVX
L6L
sg814
g866
sg822
g846
sg824
g819
sg826
g827
stRp1855
ag1
(g1564
g1512
(dp1856
g809
g966
sVY
L4L
sg811
L4L
sg812
g967
sg820
L9L
sg817
L9L
sg818
g823
sVX
L9L
sg814
g866
sg822
g970
sg824
g819
sg826
g953
stRp1857
ag1
(g1564
g1512
(dp1858
g809
g949
sVY
L4L
sg811
L4L
sg812
g950
sg820
L7L
sg817
L7L
sg818
g910
sVX
L3L
sg814
g866
sg822
g857
sg824
g819
sg826
g953
stRp1859
ag1
(g1564
g1512
(dp1860
g809
g958
sVY
L6L
sg811
L4L
sg812
g959
sg820
L3L
sg817
L3L
sg818
g819
sVX
L4L
sg814
g910
sg822
g857
sg824
g825
sg826
g886
stRp1861
ag1
(g1564
g1512
(dp1862
g809
g882
sVY
L8L
sg811
L4L
sg812
g883
sg820
L6L
sg817
L6L
sg818
g834
sVX
L9L
sg814
g846
sg822
g866
sg824
g857
sg826
g886
stRp1863
ag1
(g1564
g1512
(dp1864
g809
g853
sVY
L2L
sg811
L4L
sg812
g854
sg820
L5L
sg817
L5L
sg818
g825
sVX
L8L
sg814
g834
sg822
g857
sg824
g846
sg826
g858
stRp1865
ag1
(g1564
g1512
(dp1866
g809
g933
sVY
L4L
sg811
L4L
sg812
g934
sg820
L4L
sg817
L4L
sg818
g857
sVX
L4L
sg814
g834
sg822
g866
sg824
g846
sg826
g858
stRp1867
asg1577
Nsg1578
I0
sg1579
I18
sg1580
I0
sg1581
I18
sbag1
(g1500
g3
NtRp1868
(dp1869
g1503
Nsg1504
(lp1870
sg1506
I342733808
sg10
g1585
sg6
g1508
sg1509
I1
sg24
I01
sg25
g26
sg1510
g1
(g1511
g1512
(dp1871
g21
g1528
(g1529
g1515
g1530
S'b'
tRp1872
(I1
(I18
I1
tg1532
I00
S'\x00\x00\x80?\x00\x00\x80?\x00\x00\x80?\x00\x00\x80?\x00\x00\x00\x00\x00\x00\x00\x00\x00\x00\x80?\x00\x00\x80?\x00\x00\x80?\x00\x00\x80?\x00\x00\x80?\x00\x00\x00\x00\x00\x00\x00\x00\x00\x00\x00\x00\x00\x00\x00\x00\x00\x00\x80?\x00\x00\x00\x00\x00\x00\x80?'
S'\x00\x00\x00\x00\x00\x00\x00\x00\x00\x00\x00\x00\x00\x00\x00\x00\x00\x00'
Ntbsg19
g1514
(g1515
(I0
tS'b'
tRp1873
(I1
(I18
I1
tg1517
I00
(lp1874
g1085
ag1118
ag1150
ag1037
ag1102
ag1057
ag1076
ag1110
ag1029
ag1019
ag1126
ag990
ag1142
ag1009
ag1094
ag1047
ag1134
ag1066
atbsg23
g1528
(g1529
g1515
g1530
S'b'
tRp1875
(I1
(I18
I1
tg1532
I00
S'\x8f#\x12@7\xffO@\xa4\x13\xb1?d\x0fa@\xbf\xfawA4\x84tA\xb9D\xb4@\xe5A A\xe41\x8b@\xc0\xb9\xab@\xc2\xa7.A\xc4\xec\nA\x0f\xebZA10\x13Ay@\xfc@_A,A\x91d\x1eA\x92\x850A'
S'\x00\x00\x00\x00\x00\x00\x00\x00\x00\x00\x00\x00\x00\x00\x00\x00\x00\x00'
Ntbsg1527
g1528
(g1529
g1515
g1530
S'b'
tRp1876
(I1
(I18
I1
tg1532
I00
S'\x00\x00\x80?\x00\x00\x80?\x00\x00\x80?\x00\x00\x80?\x00\x00\x80?\x00\x00\x80?\x00\x00\x80?\x00\x00\x80?\x00\x00\x80?\x00\x00\x80?\x00\x00\x80?\x00\x00\x80?\x00\x00\x80?\x00\x00\x80?\x00\x00\x80?\x00\x00\x80?\x00\x00\x80?\x00\x00\x80?'
S'\x00\x00\x00\x00\x00\x00\x00\x00\x00\x00\x00\x00\x00\x00\x00\x00\x00\x00'
Ntbsg20
g1514
(g1515
(I0
tS'b'
tRp1877
(I1
(I18
I1
tg1517
I00
(lp1878
S'7'
aS'9'
aS'2'
aS'5'
aS'1'
aS'2'
aS'8'
aS'3'
aS'9'
aS'6'
aS'5'
aS'1'
aS'3'
aS'6'
aS'4'
aS'9'
aS'3'
aS'5'
atbsg1542
g1528
(g1529
g1515
g1530
S'b'
tRp1879
(I1
(I18
I1
tg1532
I00
S'\x00\x00\x10A\x00\x00PA\x00\x00\x88A\x00\x00\x80@\x00\x000A\x00\x00\xc0@\x00\x00\x00A\x00\x00@A\x00\x00@@\x00\x00\x00@\x00\x00`A\x00\x00\x00\x00\x00\x00\x80A\x00\x00\x80?\x00\x00 A\x00\x00\xa0@\x00\x00pA\x00\x00\xe0@'
S'\x00\x00\x00\x00\x00\x00\x00\x00\x00\x00\x00\x00\x00\x00\x00\x00\x00\x00'
Ntbsg22
g1528
(g1529
g1515
g1530
S'b'
tRp1880
(I1
(I18
I1
tg1532
I00
S"\x84T\xb5?m.\xb3?c\xf1\x8e?\x11x\xd7?\xea\x0fA@\xec\xba\xdb?\xffT\x05@\xab\xa8\x92@Q\xde\xdd?\xb40\xb3@\xcd\x95\xe9@`\x96\xc9@\x90R\xb5@z\x86\xb0@\x97\xed\x86@rw'@\xbaQ\x9d@9\x97\x05A"
S'\x00\x00\x00\x00\x00\x00\x00\x00\x00\x00\x00\x00\x00\x00\x00\x00\x00\x00'
NtbstRp1881
(dp1882
g1547
(dp1883
g1527
I01
sg20
I00
sg22
I01
sg21
I01
sg19
I00
sg23
I01
sg1542
I01
ssg1549
g1868
sg1550
(lp1884
g1527
ag1542
ag19
ag22
ag20
ag21
ag23
asg1552
(lp1885
I18
aI1
asbsg1554
g1555
sg1556
g1514
(g1515
(I0
tS'b'
tRp1886
(I1
(I18
I1
tg1517
I00
(lp1887
I11
aI13
aI9
aI8
aI3
aI15
aI5
aI17
aI6
aI0
aI14
aI4
aI7
aI1
aI10
aI16
aI12
aI2
atbsg1559
I01
sg1560
I1
sg1561
I-1
sg1562
(lp1888
g1
(g1564
g1512
(dp1889
g983
g1083
sVY
L5L
sg985
L2L
sg986
g1084
sg994
L7L
sg991
L7L
sg992
g993
sVX
L4L
sg988
L0L
sg996
g1028
sg998
L0L
sg1000
g1087
stRp1890
ag1
(g1564
g1512
(dp1891
g983
g1116
sVY
L3L
sg985
L2L
sg986
g1117
sg994
L9L
sg991
L9L
sg992
g1008
sVX
L4L
sg988
L0L
sg996
g1018
sg998
L0L
sg1000
g1087
stRp1892
ag1
(g1564
g1512
(dp1893
g983
g1148
sVY
L8L
sg985
L2L
sg986
g1149
sg994
L2L
sg991
L2L
sg992
g1038
sVX
L8L
sg988
L0L
sg996
g1049
sg998
L0L
sg1000
g1040
stRp1894
ag1
(g1564
g1512
(dp1895
g983
g1035
sVY
L2L
sg985
L2L
sg986
g1036
sg994
L5L
sg991
L5L
sg992
g1038
sVX
L8L
sg988
L0L
sg996
g989
sg998
L0L
sg1000
g1040
stRp1896
ag1
(g1564
g1512
(dp1897
g983
g1100
sVY
L2L
sg985
L3L
sg986
g1101
sg994
L9L
sg991
L9L
sg992
g1008
sVX
L7L
sg988
g1075
sg996
g1038
sg998
L0L
sg1000
g1059
stRp1898
ag1
(g1564
g1512
(dp1899
g983
g1055
sVY
L2L
sg985
L3L
sg986
g1056
sg994
L3L
sg991
L3L
sg992
g989
sVX
L8L
sg988
g993
sg996
g1018
sg998
L0L
sg1000
g1059
stRp1900
ag1
(g1564
g1512
(dp1901
g983
g1073
sVY
L2L
sg985
L3L
sg986
g1074
sg994
L8L
sg991
L8L
sg992
g997
sVX
L9L
sg988
g1075
sg996
g993
sg998
L0L
sg1000
g1078
stRp1902
ag1
(g1564
g1512
(dp1903
g983
g1108
sVY
L3L
sg985
L3L
sg986
g1109
sg994
L3L
sg991
L3L
sg992
g1038
sVX
L2L
sg988
g1008
sg996
g989
sg998
L0L
sg1000
g1078
stRp1904
ag1
(g1564
g1512
(dp1905
g983
g1026
sVY
L3L
sg985
L3L
sg986
g1027
sg994
L9L
sg991
L9L
sg992
g993
sVX
L3L
sg988
g1028
sg996
g1008
sg998
L0L
sg1000
g1021
stRp1906
ag1
(g1564
g1512
(dp1907
g983
g1016
sVY
L2L
sg985
L3L
sg986
g1017
sg994
L6L
sg991
L6L
sg992
g989
sVX
L3L
sg988
g1018
sg996
g1008
sg998
L0L
sg1000
g1021
stRp1908
ag1
(g1564
g1512
(dp1909
g983
g1124
sVY
L4L
sg985
L4L
sg986
g1125
sg994
L5L
sg991
L5L
sg992
g1049
sVX
L3L
sg988
g989
sg996
g1038
sg998
g1008
sg1000
g1001
stRp1910
ag1
(g1564
g1512
(dp1911
g983
g984
sVY
L9L
sg985
L4L
sg986
g987
sg994
L9L
sg991
L9L
sg992
g993
sVX
L3L
sg988
g989
sg996
g997
sg998
g999
sg1000
g1001
stRp1912
ag1
(g1564
g1512
(dp1913
g983
g1140
sVY
L4L
sg985
L4L
sg986
g1141
sg994
L5L
sg991
L5L
sg992
g1018
sVX
L5L
sg988
g1075
sg996
g993
sg998
g1008
sg1000
g1011
stRp1914
ag1
(g1564
g1512
(dp1915
g983
g1006
sVY
L2L
sg985
L4L
sg986
g1007
sg994
L7L
sg991
L7L
sg992
g997
sVX
L2L
sg988
g1008
sg996
g989
sg998
g993
sg1000
g1011
stRp1916
ag1
(g1564
g1512
(dp1917
g983
g1092
sVY
L4L
sg985
L4L
sg986
g1093
sg994
L6L
sg991
L6L
sg992
g1049
sVX
L4L
sg988
g1018
sg996
g1008
sg998
g989
sg1000
g1050
stRp1918
ag1
(g1564
g1512
(dp1919
g983
g1045
sVY
L8L
sg985
L4L
sg986
g1046
sg994
L9L
sg991
L9L
sg992
g989
sVX
L8L
sg988
g1038
sg996
g1008
sg998
g1049
sg1000
g1050
stRp1920
ag1
(g1564
g1512
(dp1921
g983
g1132
sVY
L4L
sg985
L4L
sg986
g1133
sg994
L5L
sg991
L5L
sg992
g999
sVX
L5L
sg988
g1049
sg996
g1075
sg998
g1028
sg1000
g1068
stRp1922
ag1
(g1564
g1512
(dp1923
g983
g1064
sVY
L4L
sg985
L4L
sg986
g1065
sg994
L5L
sg991
L5L
sg992
g989
sVX
L7L
sg988
g993
sg996
g999
sg998
g997
sg1000
g1068
stRp1924
asg1577
Nsg1578
I2
sg1579
I18
sg1580
I0
sg1581
I18
sbag1
(g1500
g3
NtRp1925
(dp1926
g1503
Nsg1504
(lp1927
sg1506
I342733808
sg10
g1585
sg6
g1508
sg1509
I1
sg24
I01
sg25
g26
sg1510
g1
(g1511
g1512
(dp1928
g21
g1528
(g1529
g1515
g1530
S'b'
tRp1929
(I1
(I18
I1
tg1532
I00
S'\x00\x00\x80?\x00\x00\x80?\x00\x00\x00\x00\x00\x00\x80?\x00\x00\x80?\x00\x00\x80?\x00\x00\x80?\x00\x00\x80?\x00\x00\x00\x00\x00\x00\x00\x00\x00\x00\x00\x00\x00\x00\x00\x00\x00\x00\x00\x00\x00\x00\x00\x00\x00\x00\x00\x00\x00\x00\x00\x00\x00\x00\x00\x00\x00\x00\x00\x00'
S'\x00\x00\x00\x00\x00\x00\x00\x00\x00\x00\x00\x00\x00\x00\x00\x00\x00\x00'
Ntbsg19
g1514
(g1515
(I0
tS'b'
tRp1930
(I1
(I18
I1
tg1517
I00
(lp1931
g1212
ag1282
ag1162
ag1192
ag1240
ag1323
ag1249
ag1274
ag1315
ag1222
ag1231
ag1258
ag1180
ag1299
ag1266
ag1202
ag1290
ag1307
atbsg23
g1528
(g1529
g1515
g1530
S'b'
tRp1932
(I1
(I18
I1
tg1532
I00
S'a\xec"AD\xa6rA\x9cu\x9f@\xd1T5@\x80R)A\xfb\x96\xc1@\xf0\xfc7A]B\x04A[\xfe\x97@\x07@lA\xbb\x0e\x11A \xf3\x88=\x98\x0e\x15A\x15A\xe4@;\xa9\x92@\x134\xd3?\xf3\xa6\xfa@T\xcd\xec?'
S'\x00\x00\x00\x00\x00\x00\x00\x00\x00\x00\x00\x00\x00\x00\x00\x00\x00\x00'
Ntbsg1527
g1528
(g1529
g1515
g1530
S'b'
tRp1933
(I1
(I18
I1
tg1532
I00
S'\x00\x00\x80?\x00\x00\x80?\x00\x00\x80?\x00\x00\x80?\x00\x00\x80?\x00\x00\x80?\x00\x00\x80?\x00\x00\x80?\x00\x00\x80?\x00\x00\x80?\x00\x00\x80?\x00\x00\x80?\x00\x00\x80?\x00\x00\x80?\x00\x00\x80?\x00\x00\x80?\x00\x00\x80?\x00\x00\x80?'
S'\x00\x00\x00\x00\x00\x00\x00\x00\x00\x00\x00\x00\x00\x00\x00\x00\x00\x00'
Ntbsg20
g1514
(g1515
(I0
tS'b'
tRp1934
(I1
(I18
I1
tg1517
I00
(lp1935
S'7'
aS'2'
aS'6'
aS'8'
aS'4'
aS'4'
aS'9'
aS'2'
aS'7'
aS'3'
aS'6'
aS'4'
aS'1'
aS'5'
aS'4'
aS'4'
aS'6'
aS'9'
atbsg1542
g1528
(g1529
g1515
g1530
S'b'
tRp1936
(I1
(I18
I1
tg1532
I00
S'\x00\x00\x80@\x00\x00@A\x00\x00\x00\x00\x00\x00\x00@\x00\x00\xe0@\x00\x00\x88A\x00\x00\x00A\x00\x000A\x00\x00\x80A\x00\x00\xa0@\x00\x00\xc0@\x00\x00\x10A\x00\x00\x80?\x00\x00`A\x00\x00 A\x00\x00@@\x00\x00PA\x00\x00pA'
S'\x00\x00\x00\x00\x00\x00\x00\x00\x00\x00\x00\x00\x00\x00\x00\x00\x00\x00'
Ntbsg22
g1528
(g1529
g1515
g1530
S'b'
tRp1937
(I1
(I18
I1
tg1532
I00
S'\xbe\x98\x19@|U\xf5?\xc3\x80\xe8?\xe8\x8dH?aU\xf5?|\x01\xc0?*3\x03@\xeb\xca\x94@\x81m\x16@QC$@(\xfd\xbf@{\xfc\xdf@y\x96\tAZ\x97\x05A\x0c\x0fQ@\xf1\xc8\xec@\xf4B4@5df@'
S'\x00\x00\x00\x00\x00\x00\x00\x00\x00\x00\x00\x00\x00\x00\x00\x00\x00\x00'
NtbstRp1938
(dp1939
g1547
(dp1940
g1527
I01
sg20
I00
sg22
I01
sg21
I01
sg19
I00
sg23
I01
sg1542
I01
ssg1549
g1925
sg1550
(lp1941
g1527
ag1542
ag19
ag22
ag20
ag21
ag23
asg1552
(lp1942
I18
aI1
asbsg1554
g1555
sg1556
g1514
(g1515
(I0
tS'b'
tRp1943
(I1
(I18
I1
tg1517
I00
(lp1944
I2
aI12
aI3
aI15
aI0
aI9
aI10
aI4
aI6
aI11
aI14
aI7
aI1
aI16
aI13
aI17
aI8
aI5
atbsg1559
I01
sg1560
I1
sg1561
I-1
sg1562
(lp1945
g1
(g1564
g1512
(dp1946
g1156
g1210
sVY
L6L
sg1158
L2L
sg1159
g1211
sg1166
L7L
sg1163
L7L
sg1164
g1213
sVX
L3L
sg1161
L0L
sg1168
g1165
sg1170
L0L
sg1171
g1215
stRp1947
ag1
(g1564
g1512
(dp1948
g1156
g1280
sVY
L4L
sg1158
L2L
sg1159
g1281
sg1166
L2L
sg1163
L2L
sg1164
g1183
sVX
L5L
sg1161
L0L
sg1168
g1201
sg1170
L0L
sg1171
g1215
stRp1949
ag1
(g1564
g1512
(dp1950
g1156
g1157
sVY
L2L
sg1158
L2L
sg1159
g1160
sg1166
L8L
sg1163
L8L
sg1164
g1165
sVX
L2L
sg1161
L0L
sg1168
g1169
sg1170
L0L
sg1171
g1172
stRp1951
ag1
(g1564
g1512
(dp1952
g1156
g1190
sVY
L2L
sg1158
L2L
sg1159
g1191
sg1166
L8L
sg1163
L8L
sg1164
g1193
sVX
L2L
sg1161
L0L
sg1168
g1169
sg1170
L0L
sg1171
g1172
stRp1953
ag1
(g1564
g1512
(dp1954
g1156
g1238
sVY
L3L
sg1158
L3L
sg1159
g1239
sg1166
L4L
sg1163
L4L
sg1164
g1179
sVX
L8L
sg1161
g1184
sg1168
g1181
sg1170
L0L
sg1171
g1242
stRp1955
ag1
(g1564
g1512
(dp1956
g1156
g1321
sVY
L2L
sg1158
L3L
sg1159
g1322
sg1166
L4L
sg1163
L4L
sg1164
g1213
sVX
L3L
sg1161
g1169
sg1168
g1193
sg1170
L0L
sg1171
g1242
stRp1957
ag1
(g1564
g1512
(dp1958
g1156
g1247
sVY
L2L
sg1158
L3L
sg1159
g1248
sg1166
L9L
sg1163
L9L
sg1164
g1165
sVX
L2L
sg1161
g1179
sg1168
g1183
sg1170
L0L
sg1171
g1251
stRp1959
ag1
(g1564
g1512
(dp1960
g1156
g1272
sVY
L2L
sg1158
L3L
sg1159
g1273
sg1166
L2L
sg1163
L2L
sg1164
g1201
sVX
L9L
sg1161
g1213
sg1168
g1183
sg1170
L0L
sg1171
g1251
stRp1961
ag1
(g1564
g1512
(dp1962
g1156
g1313
sVY
L4L
sg1158
L3L
sg1159
g1314
sg1166
L5L
sg1163
L5L
sg1164
g1179
sVX
L8L
sg1161
g1181
sg1168
g1204
sg1170
L0L
sg1171
g1224
stRp1963
ag1
(g1564
g1512
(dp1964
g1156
g1220
sVY
L6L
sg1158
L3L
sg1159
g1221
sg1166
L1L
sg1163
L1L
sg1164
g1183
sVX
L8L
sg1161
g1201
sg1168
g1213
sg1170
L0L
sg1171
g1224
stRp1965
ag1
(g1564
g1512
(dp1966
g1156
g1229
sVY
L3L
sg1158
L4L
sg1159
g1230
sg1166
L2L
sg1163
L2L
sg1164
g1169
sVX
L6L
sg1161
g1183
sg1168
g1181
sg1170
g1213
sg1171
g1233
stRp1967
ag1
(g1564
g1512
(dp1968
g1156
g1256
sVY
L2L
sg1158
L4L
sg1159
g1257
sg1166
L8L
sg1163
L8L
sg1164
g1183
sVX
L2L
sg1161
g1184
sg1168
g1193
sg1170
g1179
sg1171
g1233
stRp1969
ag1
(g1564
g1512
(dp1970
g1156
g1177
sVY
L3L
sg1158
L4L
sg1159
g1178
sg1166
L3L
sg1163
L3L
sg1164
g1181
sVX
L4L
sg1161
g1179
sg1168
g1183
sg1170
g1184
sg1171
g1185
stRp1971
ag1
(g1564
g1512
(dp1972
g1156
g1297
sVY
L3L
sg1158
L4L
sg1159
g1298
sg1166
L4L
sg1163
L4L
sg1164
g1193
sVX
L7L
sg1161
g1184
sg1168
g1213
sg1170
g1183
sg1171
g1185
stRp1973
ag1
(g1564
g1512
(dp1974
g1156
g1264
sVY
L4L
sg1158
L4L
sg1159
g1265
sg1166
L7L
sg1163
L7L
sg1164
g1183
sVX
L8L
sg1161
g1165
sg1168
g1213
sg1170
g1169
sg1171
g1205
stRp1975
ag1
(g1564
g1512
(dp1976
g1156
g1199
sVY
L3L
sg1158
L4L
sg1159
g1200
sg1166
L6L
sg1163
L6L
sg1164
g1169
sVX
L5L
sg1161
g1201
sg1168
g1179
sg1170
g1204
sg1171
g1205
stRp1977
ag1
(g1564
g1512
(dp1978
g1156
g1288
sVY
L2L
sg1158
L4L
sg1159
g1289
sg1166
L8L
sg1163
L8L
sg1164
g1179
sVX
L4L
sg1161
g1184
sg1168
g1204
sg1170
g1165
sg1171
g1292
stRp1979
ag1
(g1564
g1512
(dp1980
g1156
g1305
sVY
L5L
sg1158
L4L
sg1159
g1306
sg1166
L3L
sg1163
L3L
sg1164
g1204
sVX
L9L
sg1161
g1184
sg1168
g1179
sg1170
g1201
sg1171
g1292
stRp1981
asg1577
Nsg1578
I5
sg1579
I18
sg1580
I0
sg1581
I18
sbag1
(g1500
g3
NtRp1982
(dp1983
g1503
Nsg1504
(lp1984
sg1506
I342733808
sg10
g1585
sg6
g1508
sg1509
I1
sg24
I01
sg25
g26
sg1510
g1
(g1511
g1512
(dp1985
g21
g1528
(g1529
g1515
g1530
S'b'
tRp1986
(I1
(I18
I1
tg1532
I00
S'\x00\x00\x00\x00\x00\x00\x00\x00\x00\x00\x00\x00\x00\x00\x00\x00\x00\x00\x00\x00\x00\x00\x00\x00\x00\x00\x00\x00\x00\x00\x80?\x00\x00\x80?\x00\x00\x00\x00\x00\x00\x00\x00\x00\x00\x00\x00\x00\x00\x00\x00\x00\x00\x00\x00\x00\x00\x00\x00\x00\x00\x80?\x00\x00\x00\x00\x00\x00\x00\x00'
S'\x00\x00\x00\x00\x00\x00\x00\x00\x00\x00\x00\x00\x00\x00\x00\x00\x00\x00'
Ntbsg19
g1514
(g1515
(I0
tS'b'
tRp1987
(I1
(I18
I1
tg1517
I00
(lp1988
g1384
ag1413
ag1488
ag1375
ag1336
ag1456
ag1354
ag1496
ag1472
ag1422
ag1480
ag1431
ag1365
ag1448
ag1464
ag1393
ag1403
ag1440
atbsg23
g1528
(g1529
g1515
g1530
S'b'
tRp1989
(I1
(I18
I1
tg1532
I00
S"\x10\xa1\x88>\x84\x1do>\xc9\x9fM=y\x17\x80>\x8dN\x04?\xb4\x14\xab=\x1e'\x91>s(\x91>W\xb0\x99>\xda\x10\xab=\xbdg&?\xe2\x1do>\xa6\xfa\x88=\xef\x17\x80>,\xc1\xaa>\xe1\x16\x80>\x12\xa2\x88>\xc5\x9e\x88>"
S'\x00\x00\x00\x00\x00\x00\x00\x00\x00\x00\x00\x00\x00\x00\x00\x00\x00\x00'
Ntbsg1527
g1528
(g1529
g1515
g1530
S'b'
tRp1990
(I1
(I18
I1
tg1532
I00
S'\x00\x00\x80?\x00\x00\x80?\x00\x00\x80?\x00\x00\x80?\x00\x00\x80?\x00\x00\x80?\x00\x00\x80?\x00\x00\x80?\x00\x00\x80?\x00\x00\x80?\x00\x00\x80?\x00\x00\x80?\x00\x00\x80?\x00\x00\x80?\x00\x00\x80?\x00\x00\x80?\x00\x00\x80?\x00\x00\x80?'
S'\x00\x00\x00\x00\x00\x00\x00\x00\x00\x00\x00\x00\x00\x00\x00\x00\x00\x00'
Ntbsg20
g1514
(g1515
(I0
tS'b'
tRp1991
(I1
(I18
I1
tg1517
I00
(lp1992
S'3'
aS'6'
aS'1'
aS'1'
aS'4'
aS'6'
aS'1'
aS'5'
aS'6'
aS'4'
aS'2'
aS'3'
aS'4'
aS'7'
aS'2'
aS'8'
aS'7'
aS'9'
atbsg1542
g1528
(g1529
g1515
g1530
S'b'
tRp1993
(I1
(I18
I1
tg1532
I00
S'\x00\x00\x80@\x00\x00\xe0@\x00\x00\x80A\x00\x00@@\x00\x00\x00\x00\x00\x00@A\x00\x00\x80?\x00\x00\x88A\x00\x00`A\x00\x00\x00A\x00\x00pA\x00\x00\x10A\x00\x00\x00@\x00\x000A\x00\x00PA\x00\x00\xa0@\x00\x00\xc0@\x00\x00 A'
S'\x00\x00\x00\x00\x00\x00\x00\x00\x00\x00\x00\x00\x00\x00\x00\x00\x00\x00'
Ntbsg22
g1528
(g1529
g1515
g1530
S'b'
tRp1994
(I1
(I18
I1
tg1532
I00
S'o\x90\x08?6\xb6\xbb>WD\xb3>e"\x91>\xe5f\xe6?T>\xa2>\xce\xc5\x99>/3\xa2>\x07\xbb\xaa>\x95\xa0\x19?\xcf\x16\x91?\xea\xb0*?P2\xa2>\x983\xa2>\x8c$\x91>\x8d}7?\xa2U\xc4>\x88"\x91>'
S'\x00\x00\x00\x00\x00\x00\x00\x00\x00\x00\x00\x00\x00\x00\x00\x00\x00\x00'
NtbstRp1995
(dp1996
g1547
(dp1997
g1527
I01
sg20
I00
sg22
I01
sg21
I01
sg19
I00
sg23
I01
sg1542
I01
ssg1549
g1982
sg1550
(lp1998
g1527
ag1542
ag19
ag22
ag20
ag21
ag23
asg1552
(lp1999
I18
aI1
asbsg1554
g1555
sg1556
g1514
(g1515
(I0
tS'b'
tRp2000
(I1
(I18
I1
tg1517
I00
(lp2001
I4
aI6
aI12
aI3
aI0
aI15
aI16
aI1
aI9
aI11
aI17
aI13
aI5
aI14
aI8
aI10
aI2
aI7
atbsg1559
I01
sg1560
I1
sg1561
I-1
sg1562
(lp2002
g1
(g1564
g1512
(dp2003
g1329
g1382
sVY
L5L
sg1331
L2L
sg1332
g1383
sg1340
L7L
sg1337
L7L
sg1338
g1335
sVX
L3L
sg1334
L0L
sg1342
g1343
sg1344
L0L
sg1345
g1386
stRp2004
ag1
(g1564
g1512
(dp2005
g1329
g1411
sVY
L4L
sg1331
L2L
sg1332
g1412
sg1340
L2L
sg1337
L2L
sg1338
g1335
sVX
L9L
sg1334
L0L
sg1342
g1415
sg1344
L0L
sg1345
g1386
stRp2006
ag1
(g1564
g1512
(dp2007
g1329
g1486
sVY
L3L
sg1331
L2L
sg1332
g1487
sg1340
L8L
sg1337
L8L
sg1338
g1405
sVX
L3L
sg1334
L0L
sg1342
g1335
sg1344
L0L
sg1345
g1377
stRp2008
ag1
(g1564
g1512
(dp2009
g1329
g1373
sVY
L8L
sg1331
L2L
sg1332
g1374
sg1340
L6L
sg1337
L6L
sg1338
g1343
sVX
L4L
sg1334
L0L
sg1342
g1367
sg1344
L0L
sg1345
g1377
stRp2010
ag1
(g1564
g1512
(dp2011
g1329
g1330
sVY
L5L
sg1331
L3L
sg1332
g1333
sg1340
L7L
sg1337
L7L
sg1338
g1339
sVX
L2L
sg1334
g1335
sg1342
g1343
sg1344
L0L
sg1345
g1346
stRp2012
ag1
(g1564
g1512
(dp2013
g1329
g1454
sVY
L2L
sg1331
L3L
sg1332
g1455
sg1340
L8L
sg1337
L8L
sg1338
g1394
sVX
L4L
sg1334
g1367
sg1342
g1343
sg1344
L0L
sg1345
g1346
stRp2014
ag1
(g1564
g1512
(dp2015
g1329
g1351
sVY
L3L
sg1331
L3L
sg1332
g1352
sg1340
L2L
sg1337
L2L
sg1338
g1355
sVX
L3L
sg1334
g1353
sg1342
g1339
sg1344
L0L
sg1345
g1357
stRp2016
ag1
(g1564
g1512
(dp2017
g1329
g1494
sVY
L3L
sg1331
L3L
sg1332
g1495
sg1340
L5L
sg1337
L5L
sg1338
g1343
sVX
L2L
sg1334
g1367
sg1342
g1353
sg1344
L0L
sg1345
g1357
stRp2018
ag1
(g1564
g1512
(dp2019
g1329
g1470
sVY
L4L
sg1331
L3L
sg1332
g1471
sg1340
L6L
sg1337
L6L
sg1338
g1364
sVX
L5L
sg1334
g1343
sg1342
g1339
sg1344
L0L
sg1345
g1424
stRp2020
ag1
(g1564
g1512
(dp2021
g1329
g1420
sVY
L3L
sg1331
L3L
sg1332
g1421
sg1340
L5L
sg1337
L5L
sg1338
g1353
sVX
L3L
sg1334
g1405
sg1342
g1367
sg1344
L0L
sg1345
g1424
stRp2022
ag1
(g1564
g1512
(dp2023
g1329
g1478
sVY
L4L
sg1331
L4L
sg1332
g1479
sg1340
L9L
sg1337
L9L
sg1338
g1335
sVX
L9L
sg1334
g1364
sg1342
g1343
sg1344
g1339
sg1345
g1433
stRp2024
ag1
(g1564
g1512
(dp2025
g1329
g1429
sVY
L2L
sg1331
L4L
sg1332
g1430
sg1340
L8L
sg1337
L8L
sg1338
g1394
sVX
L2L
sg1334
g1339
sg1342
g1343
sg1344
g1335
sg1345
g1433
stRp2026
ag1
(g1564
g1512
(dp2027
g1329
g1362
sVY
L6L
sg1331
L4L
sg1332
g1363
sg1340
L6L
sg1337
L6L
sg1338
g1343
sVX
L6L
sg1334
g1364
sg1342
g1335
sg1344
g1367
sg1345
g1368
stRp2028
ag1
(g1564
g1512
(dp2029
g1329
g1446
sVY
L2L
sg1331
L4L
sg1332
g1447
sg1340
L3L
sg1337
L3L
sg1338
g1355
sVX
L9L
sg1334
g1339
sg1342
g1335
sg1344
g1364
sg1345
g1368
stRp2030
ag1
(g1564
g1512
(dp2031
g1329
g1462
sVY
L3L
sg1331
L4L
sg1332
g1463
sg1340
L5L
sg1337
L5L
sg1338
g1339
sVX
L3L
sg1334
g1405
sg1342
g1335
sg1344
g1364
sg1345
g1396
stRp2032
ag1
(g1564
g1512
(dp2033
g1329
g1391
sVY
L3L
sg1331
L4L
sg1332
g1392
sg1340
L8L
sg1337
L8L
sg1338
g1394
sVX
L3L
sg1334
g1355
sg1342
g1335
sg1344
g1339
sg1345
g1396
stRp2034
ag1
(g1564
g1512
(dp2035
g1329
g1401
sVY
L4L
sg1331
L4L
sg1332
g1402
sg1340
L3L
sg1337
L3L
sg1338
g1367
sVX
L3L
sg1334
g1364
sg1342
g1353
sg1344
g1405
sg1345
g1406
stRp2036
ag1
(g1564
g1512
(dp2037
g1329
g1438
sVY
L2L
sg1331
L4L
sg1332
g1439
sg1340
L1L
sg1337
L1L
sg1338
g1367
sVX
L7L
sg1334
g1353
sg1342
g1364
sg1344
g1355
sg1345
g1406
stRp2038
asg1577
Nsg1578
I7
sg1579
I18
sg1580
I0
sg1581
I18
sbasS'savePickle'
p2039
I00
sb.