ccopy_reg
_reconstructor
p1
(cpsychopy.data
ExperimentHandler
p2
c__builtin__
object
p3
NtRp4
(dp5
S'originPath'
p6
NsS'dataFileName'
p7
VC:\u005cUsers\u005cexperimenter\u005cDesktop\u005cExperiments\u005cKRITL\u005cdata/31043_KRITL_2017_Apr_21_0938
p8
sS'runtimeInfo'
p9
NsS'name'
p10
S'KRITL'
p11
sS'dataNames'
p12
(lp13
S'practice_encoding.keys'
p14
aS'practice_encoding.rt'
p15
aS'practice_execution.keys'
p16
aS'practice_execution.corr'
p17
aS'practice_execution.rt'
p18
aS'encoding.keys'
p19
aS'encoding.rt'
p20
aS'execution.keys'
p21
aS'execution.corr'
p22
aS'execution.rt'
p23
asS'autoLog'
p24
I01
sS'extraInfo'
p25
(dp26
S'date'
p27
V2017_Apr_21_0938
p28
sS'frameRate'
p29
NsS'expName'
p30
g11
sVsession
p31
V002
p32
sVparticipant
p33
V31043
p34
ssS'loopsUnfinished'
p35
(lp36
sS'saveWideText'
p37
I00
sS'thisEntry'
p38
(dp39
sS'version'
p40
S''
sS'_paramNamesSoFar'
p41
(lp42
Voperationc
p43
aVoperationb
p44
aVoperationa
p45
aVcorrectresponse
p46
aVvaluey
p47
aVoperationd
p48
aVcondition
p49
aVvaluex
p50
aVRule
p51
aVOperatora
p52
aVLength
p53
aVIntermediate
p54
aVCorrectResponse
p55
aVResult
p56
aVY
aVX
aVOperatorc
p57
aVOperatorb
p58
aVOperatord
p59
aVStructure
p60
asS'entries'
p61
(lp62
(dp63
g18
F18.805167962680571
sg29
Nsg17
I1
sg43
VADD
p64
sg44
Vtriple 
p65
sg45
Vhalf
p66
sg31
g32
sg46
I8
sS'practice_trials.thisTrialN'
p67
I0
sg48
I0
sS'practice_trials.thisRepN'
p68
I0
sg33
g34
sg49
I3
sg27
g28
sg16
S'8'
sg14
(lp69
S'space'
p70
asS'practice_trials.thisIndex'
p71
I3
sS'practice_trials.thisN'
p72
I0
sg30
g11
sg15
(lp73
F11.046054683043621
asg47
I2
sg50
I4
sa(dp74
g31
g32
sg43
Vincrease
p75
sg27
g28
sg16
Nsg29
Nsg14
(lp76
S'space'
p77
asg49
I4
sg45
Vdouble
p78
sg17
I0
sS'practice_trials.thisN'
p79
I1
sg44
VDIVIDE
p80
sS'practice_trials.thisIndex'
p81
I5
sg30
g11
sg46
I9
sS'practice_trials.thisTrialN'
p82
I1
sg48
Vtriple
p83
sS'practice_trials.thisRepN'
p84
I0
sg33
g34
sg50
I8
sg47
I8
sg15
(lp85
F12.399490315001458
asa(dp86
g18
F2.4691002574982122
sg29
Nsg17
I1
sg43
I0
sg44
g64
sg45
Vdecrease
p87
sg31
g32
sg46
I7
sS'practice_trials.thisTrialN'
p88
I2
sg48
I0
sS'practice_trials.thisRepN'
p89
I0
sg33
g34
sg49
I2
sg27
g28
sg16
S'7'
sg14
(lp90
S'space'
p91
asS'practice_trials.thisIndex'
p92
I0
sS'practice_trials.thisN'
p93
I2
sg30
g11
sg15
(lp94
F8.0454481984488666
asg47
I5
sg50
I3
sa(dp95
g18
F3.4450323032215238
sg29
Nsg17
I0
sg43
g75
sg44
g80
sg45
g83
sg31
g32
sg46
I3
sS'practice_trials.thisTrialN'
p96
I3
sg48
I0
sS'practice_trials.thisRepN'
p97
I0
sg33
g34
sg49
I3
sg27
g28
sg16
S'4'
sg14
(lp98
S'space'
p99
asS'practice_trials.thisIndex'
p100
I4
sS'practice_trials.thisN'
p101
I3
sg30
g11
sg15
(lp102
F3.9786540522472933
asg47
I3
sg50
I2
sa(dp103
g18
F2.7413127995096147
sg29
Nsg17
I1
sg43
I0
sg44
g87
sg45
VTIMES
p104
sg31
g32
sg46
I8
sS'practice_trials.thisTrialN'
p105
I4
sg48
I0
sS'practice_trials.thisRepN'
p106
I0
sg33
g34
sg49
I2
sg27
g28
sg16
S'8'
sg14
(lp107
S'space'
p108
asS'practice_trials.thisIndex'
p109
I1
sS'practice_trials.thisN'
p110
I4
sg30
g11
sg15
(lp111
F7.6434553032740951
asg47
I3
sg50
I3
sa(dp112
g18
F2.1068595751421526
sg29
Nsg17
I1
sg43
I0
sg44
g64
sg45
g66
sg31
g32
sg46
I7
sS'practice_trials.thisTrialN'
p113
I5
sg48
I0
sS'practice_trials.thisRepN'
p114
I0
sg33
g34
sg49
I2
sg27
g28
sg16
S'7'
sg14
(lp115
S'space'
p116
asS'practice_trials.thisIndex'
p117
I2
sS'practice_trials.thisN'
p118
I5
sg30
g11
sg15
(lp119
F6.793137310189195
asg47
I5
sg50
I4
sa(dp120
S'block.thisTrialN'
p121
I0
sS'block.thisRepN'
p122
I0
sg29
NsS'block.thisN'
p123
I0
sg51
(S'DOUBLE'
S'ADD'
S'INCREASE'
S'THIRD'
S'x'
S'y'
tp124
sg27
g28
sg53
I4
sg54
(I1
I2
I4
I8
tp125
sg22
I0
sg20
F14.645246410276741
sg23
F9.8006300020497292
sVY
I2
sVX
I3
sg57
Vincrease
p126
sg31
g32
sg33
g34
sg21
S'6'
sg19
S'space'
p127
sg30
g11
sg56
I8
sg52
VADD
p128
sg55
I8
sS'block.thisIndex'
p129
I12
sg58
Vdouble
p130
sg59
Vthird
p131
sg60
VUBUUxy
p132
sa(dp133
S'block.thisTrialN'
p134
I1
sS'block.thisRepN'
p135
I0
sg29
NsS'block.thisN'
p136
I1
sg51
(S'INCREASE'
S'TRIPLE'
S'DIVIDE'
S'x'
S'y'
tp137
sg27
g28
sg53
I3
sg54
(I2
I6
I7
tp138
sg22
I1
sg20
F8.545946019818075
sg23
F3.6001940190326422
sVY
I3
sVX
I6
sg57
VDIVIDE
p139
sg31
g32
sg33
g34
sg21
S'7'
sg19
S'space'
p140
sg30
g11
sg56
I7
sg52
Vtriple
p141
sg55
I7
sS'block.thisIndex'
p142
I8
sg58
g126
sg59
I0
sg60
VUUBxy
p143
sa(dp144
S'block.thisTrialN'
p145
I2
sS'block.thisRepN'
p146
I0
sg29
NsS'block.thisN'
p147
I2
sg51
(S'THIRD'
S'HALF'
S'ADD'
S'x'
S'y'
tp148
sg27
g28
sg53
I3
sg54
(I6
I3
I1
tp149
sg22
I0
sg20
F8.0513926573330536
sg23
F10.691999267903157
sVY
I3
sVX
I3
sg57
g128
sg31
g32
sg33
g34
sg21
S'6'
sg19
S'space'
p150
sg30
g11
sg56
I1
sg52
Vhalf
p151
sg55
I1
sS'block.thisIndex'
p152
I9
sg58
g131
sg59
I0
sg60
g143
sa(dp153
S'block.thisTrialN'
p154
I3
sS'block.thisRepN'
p155
I0
sg29
NsS'block.thisN'
p156
I3
sg51
(S'SUBTRACT'
S'DECREASE'
S'TRIPLE'
S'DOUBLE'
S'x'
S'y'
tp157
sg27
g28
sg53
I4
sg54
(I6
I18
I17
I8
tp158
sg22
I1
sg20
F8.3287044992903247
sg23
F15.456309486995451
sVY
I9
sVX
I3
sg57
g141
sg31
g32
sg33
g34
sg21
S'8'
sg19
S'space'
p159
sg30
g11
sg56
I8
sg52
Vdecrease
p160
sg55
I8
sS'block.thisIndex'
p161
I11
sg58
VSUBTRACT
p162
sg59
g130
sg60
VBUUUxy
p163
sa(dp164
S'block.thisTrialN'
p165
I4
sS'block.thisRepN'
p166
I0
sg29
NsS'block.thisN'
p167
I4
sg51
(S'DIVIDE'
S'DECREASE'
S'TRIPLE'
S'x'
S'y'
tp168
sg27
g28
sg53
I3
sg54
(I9
I8
I4
tp169
sg22
I1
sg20
F4.7901878282427788
sg23
F7.8158621093025431
sVY
I2
sVX
I3
sg57
g141
sg31
g32
sg33
g34
sg21
S'4'
sg19
S'space'
p170
sg30
g11
sg56
I4
sg52
g160
sg55
I4
sS'block.thisIndex'
p171
I5
sg58
g139
sg59
I0
sg60
VBUUxy
p172
sa(dp173
S'block.thisTrialN'
p174
I5
sS'block.thisRepN'
p175
I0
sg29
NsS'block.thisN'
p176
I5
sg51
(S'THIRD'
S'DOUBLE'
S'ADD'
S'DECREASE'
S'x'
S'y'
tp177
sg27
g28
sg53
I4
sg54
(I5
I12
I24
I8
tp178
sg22
I0
sg20
F8.6292709831614047
sVY
I7
sVX
I6
sg57
g128
sg31
g32
sg33
g34
sg21
Nsg19
S'space'
p179
sg30
g11
sg56
I8
sg52
g130
sg55
I8
sS'block.thisIndex'
p180
I14
sg58
g131
sg59
g160
sg60
VUUBUxy
p181
sa(dp182
S'block.thisTrialN'
p183
I6
sS'block.thisRepN'
p184
I0
sg29
NsS'block.thisN'
p185
I6
sg51
(S'ADD'
S'DOUBLE'
S'DECREASE'
S'THIRD'
S'x'
S'y'
tp186
sg27
g28
sg53
I4
sg54
(I2
I1
I2
I8
tp187
sg22
I0
sg20
F9.2684346993919462
sg23
F15.827150491764769
sVY
I6
sVX
I6
sg57
g160
sg31
g32
sg33
g34
sg21
S'1'
sg19
S'space'
p188
sg30
g11
sg56
I8
sg52
g130
sg55
I8
sS'block.thisIndex'
p189
I10
sg58
g128
sg59
g131
sg60
g163
sa(dp190
S'block.thisTrialN'
p191
I7
sS'block.thisRepN'
p192
I0
sg29
NsS'block.thisN'
p193
I7
sg51
(S'INCREASE'
S'ADD'
S'x'
S'y'
tp194
sg27
g28
sg53
I2
sg54
(I5
I6
tp195
sg22
I1
sg20
F1.5400393566815183
sg23
F2.3228580297436565
sVY
I2
sVX
I3
sg57
I0
sg31
g32
sg33
g34
sg21
S'6'
sg19
S'space'
p196
sg30
g11
sg56
I6
sg52
g128
sg55
I6
sS'block.thisIndex'
p197
I3
sg58
g126
sg59
I0
sg60
VUBxy
p198
sa(dp199
S'block.thisTrialN'
p200
I8
sS'block.thisRepN'
p201
I0
sg29
NsS'block.thisN'
p202
I8
sg51
(S'INCREASE'
S'SUBTRACT'
S'HALF'
S'x'
S'y'
tp203
sg27
g28
sg53
I3
sg54
(I4
I2
I3
tp204
sg22
I1
sg20
F4.5017741336487234
sg23
F15.120739778270945
sVY
I2
sVX
I8
sg57
g151
sg31
g32
sg33
g34
sg21
S'3'
sg19
S'space'
p205
sg30
g11
sg56
I3
sg52
g162
sg55
I3
sS'block.thisIndex'
p206
I7
sg58
g126
sg59
I0
sg60
VUBUxy
p207
sa(dp208
S'block.thisTrialN'
p209
I9
sS'block.thisRepN'
p210
I0
sg29
NsS'block.thisN'
p211
I9
sg51
(S'SUBTRACT'
S'DECREASE'
S'x'
S'y'
tp212
sg27
g28
sg53
I2
sg54
(I5
I3
tp213
sg22
I1
sg20
F1.302060472778976
sg23
F2.4825437075924128
sVY
I2
sVX
I6
sg57
I0
sg31
g32
sg33
g34
sg21
S'3'
sg19
S'space'
p214
sg30
g11
sg56
I3
sg52
g160
sg55
I3
sS'block.thisIndex'
p215
I1
sg58
g162
sg59
I0
sg60
VBUxy
p216
sa(dp217
S'block.thisTrialN'
p218
I10
sS'block.thisRepN'
p219
I0
sg29
NsS'block.thisN'
p220
I10
sg51
(S'THIRD'
S'DOUBLE'
S'INCREASE'
S'TIMES'
S'x'
S'y'
tp221
sg27
g28
sg53
I4
sg54
(I8
I9
I18
I6
tp222
sg22
I0
sg20
F8.9849477733951062
sg23
F9.5529869103338569
sVY
I4
sVX
I2
sg57
g126
sg31
g32
sg33
g34
sg21
S'2'
sg19
S'space'
p223
sg30
g11
sg56
I6
sg52
g130
sg55
I6
sS'block.thisIndex'
p224
I17
sg58
g131
sg59
VTIMES
p225
sg60
VUUUBxy
p226
sa(dp227
S'block.thisTrialN'
p228
I11
sS'block.thisRepN'
p229
I0
sg29
NsS'block.thisN'
p230
I11
sg51
(S'THIRD'
S'TIMES'
S'DOUBLE'
S'DECREASE'
S'x'
S'y'
tp231
sg27
g28
sg53
I4
sg54
(I1
I2
I6
I2
tp232
sg22
I0
sg20
F10.978245996171609
sg23
F14.216338617843576
sVY
I3
sVX
I2
sg57
g130
sg31
g32
sg33
g34
sg21
S'6'
sg19
S'space'
p233
sg30
g11
sg56
I2
sg52
g225
sg55
I2
sS'block.thisIndex'
p234
I13
sg58
g131
sg59
g160
sg60
g132
sa(dp235
S'block.thisTrialN'
p236
I12
sS'block.thisRepN'
p237
I0
sg29
NsS'block.thisN'
p238
I12
sg51
(S'HALF'
S'ADD'
S'TRIPLE'
S'x'
S'y'
tp239
sg27
g28
sg53
I3
sg54
(I9
I12
I6
tp240
sg22
I1
sg20
F6.8493517474271357
sg23
F6.2789640136761591
sVY
I3
sVX
I3
sg57
g141
sg31
g32
sg33
g34
sg21
S'6'
sg19
S'space'
p241
sg30
g11
sg56
I6
sg52
g128
sg55
I6
sS'block.thisIndex'
p242
I6
sg58
g151
sg59
I0
sg60
g207
sa(dp243
S'block.thisTrialN'
p244
I13
sS'block.thisRepN'
p245
I0
sg29
NsS'block.thisN'
p246
I13
sg51
(S'ADD'
S'HALF'
S'THIRD'
S'x'
S'y'
tp247
sg27
g28
sg53
I3
sg54
(I2
I1
I9
tp248
sg22
I0
sg20
F4.1966784382238984
sg23
F17.135495936847292
sVY
I8
sVX
I6
sg57
g131
sg31
g32
sg33
g34
sg21
S'6'
sg19
S'space'
p249
sg30
g11
sg56
I9
sg52
g151
sg55
I9
sS'block.thisIndex'
p250
I4
sg58
g128
sg59
I0
sg60
g172
sa(dp251
S'block.thisTrialN'
p252
I14
sS'block.thisRepN'
p253
I0
sg29
NsS'block.thisN'
p254
I14
sg51
(S'DIVIDE'
S'INCREASE'
S'x'
S'y'
tp255
sg27
g28
sg53
I2
sg54
(I4
I2
tp256
sg22
I1
sg20
F1.3187431734986603
sg23
F5.5549124026438221
sVY
I2
sVX
I3
sg57
I0
sg31
g32
sg33
g34
sg21
S'2'
sg19
S'space'
p257
sg30
g11
sg56
I2
sg52
g126
sg55
I2
sS'block.thisIndex'
p258
I0
sg58
g139
sg59
I0
sg60
g216
sa(dp259
S'block.thisTrialN'
p260
I15
sS'block.thisRepN'
p261
I0
sg29
NsS'block.thisN'
p262
I15
sg51
(S'DECREASE'
S'DIVIDE'
S'x'
S'y'
tp263
sg27
g28
sg53
I2
sg54
(I2
I1
tp264
sg22
I1
sg20
F2.6460838698549196
sg23
F3.0333122073207051
sVY
I4
sVX
I8
sg57
I0
sg31
g32
sg33
g34
sg21
S'1'
sg19
S'space'
p265
sg30
g11
sg56
I1
sg52
g139
sg55
I1
sS'block.thisIndex'
p266
I2
sg58
g160
sg59
I0
sg60
g198
sa(dp267
S'block.thisTrialN'
p268
I16
sS'block.thisRepN'
p269
I0
sg29
NsS'block.thisN'
p270
I16
sg51
(S'THIRD'
S'INCREASE'
S'DIVIDE'
S'DOUBLE'
S'x'
S'y'
tp271
sg27
g28
sg53
I4
sg54
(I18
I2
I3
I1
tp272
sg22
I0
sg20
F13.782438963884488
sg23
F13.985145502025262
sVY
I9
sVX
I9
sg57
g139
sg31
g32
sg33
g34
sg21
S'6'
sg19
S'space'
p273
sg30
g11
sg56
I1
sg52
g126
sg55
I1
sS'block.thisIndex'
p274
I15
sg58
g131
sg59
g130
sg60
g181
sa(dp275
S'block.thisTrialN'
p276
I17
sS'block.thisRepN'
p277
I0
sg29
NsS'block.thisN'
p278
I17
sg51
(S'HALF'
S'TRIPLE'
S'INCREASE'
S'DIVIDE'
S'x'
S'y'
tp279
sg27
g28
sg53
I4
sg54
(I3
I4
I12
I6
tp280
sg22
I0
sg20
F11.508369522285648
sg23
F14.728030681842938
sVY
I3
sVX
I9
sg57
g126
sg31
g32
sg33
g34
sg21
S'1'
sg19
S'space'
p281
sg30
g11
sg56
I6
sg52
g141
sg55
I6
sS'block.thisIndex'
p282
I16
sg58
g151
sg59
g139
sg60
g226
sa(dp283
S'block.thisTrialN'
p284
I0
sS'block.thisRepN'
p285
I0
sg29
NsS'block.thisN'
p286
I0
sVRule
p287
(S'ADD'
S'TRIPLE'
S'HALF'
S'x'
S'y'
tp288
sg27
g28
sVLength
p289
I3
sVIntermediate
p290
(I2
I6
I8
tp291
sg22
I1
sg20
F13.26090701110661
sg23
F9.3173895195359364
sVY
I2
sVX
I4
sVOperatorc
p292
Vhalf
p293
sg31
g32
sg33
g34
sg21
S'8'
sg19
S'space'
p294
sg30
g11
sVResult
p295
I8
sVOperatora
p296
Vtriple
p297
sVCorrectResponse
p298
I8
sS'block.thisIndex'
p299
I5
sVOperatorb
p300
VADD
p301
sVOperatord
p302
I0
sVStructure
p303
VBUUxy
p304
sa(dp305
S'block.thisTrialN'
p306
I1
sS'block.thisRepN'
p307
I0
sg29
NsS'block.thisN'
p308
I1
sg287
(S'HALF'
S'ADD'
S'x'
S'y'
tp309
sg27
g28
sg289
I2
sg290
(I12
I6
tp310
sg22
I1
sg20
F4.1176958065479994
sg23
F2.7099701797123998
sVY
I8
sVX
I4
sg292
I0
sg31
g32
sg33
g34
sg21
S'6'
sg19
S'space'
p311
sg30
g11
sg295
I6
sg296
g301
sg298
I6
sS'block.thisIndex'
p312
I3
sg300
g293
sg302
I0
sg303
VUBxy
p313
sa(dp314
S'block.thisTrialN'
p315
I2
sS'block.thisRepN'
p316
I0
sg29
NsS'block.thisN'
p317
I2
sg287
(S'DOUBLE'
S'THIRD'
S'ADD'
S'x'
S'y'
tp318
sg27
g28
sg289
I3
sg290
(I9
I3
I6
tp319
sg22
I0
sg20
F3.3942849762970582
sg23
F6.7439767121104524
sVY
I4
sVX
I5
sg292
g301
sg31
g32
sg33
g34
sg21
S'2'
sg19
S'space'
p320
sg30
g11
sg295
I6
sg296
Vthird
p321
sg298
I6
sS'block.thisIndex'
p322
I8
sg300
Vdouble
p323
sg302
I0
sg303
VUUBxy
p324
sa(dp325
S'block.thisTrialN'
p326
I3
sS'block.thisRepN'
p327
I0
sg29
NsS'block.thisN'
p328
I3
sg287
(S'DECREASE'
S'DOUBLE'
S'TIMES'
S'THIRD'
S'x'
S'y'
tp329
sg27
g28
sg289
I4
sg290
(I1
I3
I6
I5
tp330
sg22
I0
sg20
F7.1702716862782836
sg23
F9.8771957943681628
sVY
I3
sVX
I3
sg292
VTIMES
p331
sg31
g32
sg33
g34
sg21
S'6'
sg19
S'space'
p332
sg30
g11
sg295
I5
sg296
g323
sg298
I5
sS'block.thisIndex'
p333
I14
sg300
Vdecrease
p334
sg302
g321
sg303
VUUBUxy
p335
sa(dp336
S'block.thisTrialN'
p337
I4
sS'block.thisRepN'
p338
I0
sg29
NsS'block.thisN'
p339
I4
sg287
(S'THIRD'
S'HALF'
S'INCREASE'
S'SUBTRACT'
S'x'
S'y'
tp340
sg27
g28
sg289
I4
sg290
(I5
I6
I3
I1
tp341
sg22
I0
sg20
F3.7798089975258335
sg23
F16.933065868797712
sVY
I2
sVX
I7
sg292
Vincrease
p342
sg31
g32
sg33
g34
sg21
S'4'
sg19
S'space'
p343
sg30
g11
sg295
I1
sg296
g293
sg298
I1
sS'block.thisIndex'
p344
I17
sg300
g321
sg302
VSUBTRACT
p345
sg303
VUUUBxy
p346
sa(dp347
S'block.thisTrialN'
p348
I5
sS'block.thisRepN'
p349
I0
sg29
NsS'block.thisN'
p350
I5
sg287
(S'DECREASE'
S'TIMES'
S'x'
S'y'
tp351
sg27
g28
sg289
I2
sg290
(I9
I8
tp352
sg22
I1
sg20
F1.2472668822156265
sg23
F3.0789413361344486
sVY
I3
sVX
I3
sg292
I0
sg31
g32
sg33
g34
sg21
S'8'
sg19
S'space'
p353
sg30
g11
sg295
I8
sg296
g331
sg298
I8
sS'block.thisIndex'
p354
I2
sg300
g334
sg302
I0
sg303
g313
sa(dp355
S'block.thisTrialN'
p356
I6
sS'block.thisRepN'
p357
I0
sg29
NsS'block.thisN'
p358
I6
sg287
(S'ADD'
S'DECREASE'
S'THIRD'
S'DOUBLE'
S'x'
S'y'
tp359
sg27
g28
sg289
I4
sg290
(I18
I6
I5
I9
tp360
sg22
I0
sg20
F6.2393902818439528
sg23
F0.1669561438029632
sVY
I4
sVX
I9
sg292
g321
sg31
g32
sg33
g34
sg21
S'6'
sg19
S'space'
p361
sg30
g11
sg295
I9
sg296
g334
sg298
I9
sS'block.thisIndex'
p362
I10
sg300
g301
sg302
g323
sg303
VBUUUxy
p363
sa(dp364
S'block.thisTrialN'
p365
I7
sS'block.thisRepN'
p366
I0
sg29
NsS'block.thisN'
p367
I7
sg287
(S'INCREASE'
S'ADD'
S'HALF'
S'x'
S'y'
tp368
sg27
g28
sg289
I3
sg290
(I1
I4
I5
tp369
sg22
I1
sg20
F4.4011764330789447
sg23
F5.7331887756008655
sVY
I3
sVX
I2
sg292
g293
sg31
g32
sg33
g34
sg21
S'5'
sg19
S'space'
p370
sg30
g11
sg295
I5
sg296
g301
sg298
I5
sS'block.thisIndex'
p371
I7
sg300
g342
sg302
I0
sg303
VUBUxy
p372
sa(dp373
S'block.thisTrialN'
p374
I8
sS'block.thisRepN'
p375
I0
sg29
NsS'block.thisN'
p376
I8
sg287
(S'DECREASE'
S'TRIPLE'
S'SUBTRACT'
S'DOUBLE'
S'x'
S'y'
tp377
sg27
g28
sg289
I4
sg290
(I6
I3
I9
I8
tp378
sg22
I1
sg20
F17.601602617069148
sg23
F6.806708496529609
sVY
I3
sVX
I3
sg292
g345
sg31
g32
sg33
g34
sg21
S'8'
sg19
S'space'
p379
sg30
g11
sg295
I8
sg296
g297
sg298
I8
sS'block.thisIndex'
p380
I15
sg300
g334
sg302
g323
sg303
g335
sa(dp381
S'block.thisTrialN'
p382
I9
sS'block.thisRepN'
p383
I0
sg29
NsS'block.thisN'
p384
I9
sg287
(S'DECREASE'
S'ADD'
S'THIRD'
S'HALF'
S'x'
S'y'
tp385
sg27
g28
sg289
I4
sg290
(I3
I1
I7
I6
tp386
sg22
I0
sg20
F4.3891240829834715
sg23
F2.2133936855243519
sVY
I6
sVX
I6
sg292
g321
sg31
g32
sg33
g34
sg21
S'4'
sg19
S'space'
p387
sg30
g11
sg295
I6
sg296
g301
sg298
I6
sS'block.thisIndex'
p388
I12
sg300
g334
sg302
g293
sg303
VUBUUxy
p389
sa(dp390
S'block.thisTrialN'
p391
I10
sS'block.thisRepN'
p392
I0
sg29
NsS'block.thisN'
p393
I10
sg287
(S'DOUBLE'
S'SUBTRACT'
S'INCREASE'
S'x'
S'y'
tp394
sg27
g28
sg289
I3
sg290
(I4
I1
I2
tp395
sg22
I0
sg20
F4.6933154759462923
sg23
F10.59552727243863
sVY
I3
sVX
I3
sg292
g342
sg31
g32
sg33
g34
sg21
S'1'
sg19
S'space'
p396
sg30
g11
sg295
I2
sg296
g345
sg298
I2
sS'block.thisIndex'
p397
I6
sg300
g323
sg302
I0
sg303
g372
sa(dp398
S'block.thisTrialN'
p399
I11
sS'block.thisRepN'
p400
I0
sg29
NsS'block.thisN'
p401
I11
sg287
(S'HALF'
S'INCREASE'
S'TIMES'
S'x'
S'y'
tp402
sg27
g28
sg289
I3
sg290
(I9
I10
I5
tp403
sg22
I1
sg20
F6.547185936011374
sg23
F4.8216998296556994
sVY
I3
sVX
I3
sg292
g331
sg31
g32
sg33
g34
sg21
S'5'
sg19
S'space'
p404
sg30
g11
sg295
I5
sg296
g342
sg298
I5
sS'block.thisIndex'
p405
I9
sg300
g293
sg302
I0
sg303
g324
sa(dp406
S'block.thisTrialN'
p407
I12
sS'block.thisRepN'
p408
I0
sg29
NsS'block.thisN'
p409
I12
sg287
(S'ADD'
S'TRIPLE'
S'DOUBLE'
S'DECREASE'
S'x'
S'y'
tp410
sg27
g28
sg289
I4
sg290
(I1
I2
I6
I8
tp411
sg22
I0
sg20
F8.6915341679705307
sg23
F11.030495711020194
sVY
I2
sVX
I2
sg292
g323
sg31
g32
sg33
g34
sg21
S'3'
sg19
S'space'
p412
sg30
g11
sg295
I8
sg296
g297
sg298
I8
sS'block.thisIndex'
p413
I11
sg300
g301
sg302
g334
sg303
g363
sa(dp414
S'block.thisTrialN'
p415
I13
sS'block.thisRepN'
p416
I0
sg29
NsS'block.thisN'
p417
I13
sg287
(S'ADD'
S'DECREASE'
S'x'
S'y'
tp418
sg27
g28
sg289
I2
sg290
(I2
I7
tp419
sg22
I1
sg20
F2.8992290681926534
sg23
F4.1501366078155115
sVY
I5
sVX
I3
sg292
I0
sg31
g32
sg33
g34
sg21
S'7'
sg19
S'space'
p420
sg30
g11
sg295
I7
sg296
g334
sg298
I7
sS'block.thisIndex'
p421
I0
sg300
g301
sg302
I0
sg303
VBUxy
p422
sa(dp423
S'block.thisTrialN'
p424
I14
sS'block.thisRepN'
p425
I0
sg29
NsS'block.thisN'
p426
I14
sg287
(S'DECREASE'
S'SUBTRACT'
S'DOUBLE'
S'THIRD'
S'x'
S'y'
tp427
sg27
g28
sg289
I4
sg290
(I3
I6
I4
I3
tp428
sg22
I0
sg20
F3.8584066708572209
sg23
F1.2380184297217056
sVY
I2
sVX
I9
sg292
g323
sg31
g32
sg33
g34
sg21
S'6'
sg19
S'space'
p429
sg30
g11
sg295
I3
sg296
g345
sg298
I3
sS'block.thisIndex'
p430
I13
sg300
g334
sg302
g321
sg303
g389
sa(dp431
S'block.thisTrialN'
p432
I15
sS'block.thisRepN'
p433
I0
sg29
NsS'block.thisN'
p434
I15
sg287
(S'DIVIDE'
S'DECREASE'
S'x'
S'y'
tp435
sg27
g28
sg289
I2
sg290
(I8
I2
tp436
sg22
I1
sg20
F1.2214330184506252
sg23
F2.1456724893068895
sVY
I4
sVX
I9
sg292
I0
sg31
g32
sg33
g34
sg21
S'2'
sg19
S'space'
p437
sg30
g11
sg295
I2
sg296
g334
sg298
I2
sS'block.thisIndex'
p438
I1
sg300
VDIVIDE
p439
sg302
I0
sg303
g422
sa(dp440
S'block.thisTrialN'
p441
I16
sS'block.thisRepN'
p442
I0
sg29
NsS'block.thisN'
p443
I16
sg287
(S'INCREASE'
S'HALF'
S'THIRD'
S'TIMES'
S'x'
S'y'
tp444
sg27
g28
sg289
I4
sg290
(I12
I4
I2
I3
tp445
sg22
I1
sg20
F6.2472745814593509
sg23
F6.8853901607217267
sVY
I4
sVX
I3
sg292
g321
sg31
g32
sg33
g34
sg21
S'3'
sg19
S'space'
p446
sg30
g11
sg295
I3
sg296
g293
sg298
I3
sS'block.thisIndex'
p447
I16
sg300
g342
sg302
g331
sg303
g346
sa(dp448
S'block.thisTrialN'
p449
I17
sS'block.thisRepN'
p450
I0
sg29
NsS'block.thisN'
p451
I17
sg287
(S'ADD'
S'DOUBLE'
S'DECREASE'
S'x'
S'y'
tp452
sg27
g28
sg289
I3
sg290
(I1
I2
I7
tp453
sg22
I0
sg20
F4.4206707306439057
sg23
F5.6853128890506923
sVY
I5
sVX
I2
sg292
g334
sg31
g32
sg33
g34
sg21
S'6'
sg19
S'space'
p454
sg30
g11
sg295
I7
sg296
g323
sg298
I7
sS'block.thisIndex'
p455
I4
sg300
g301
sg302
I0
sg303
g304
sa(dp456
S'block.thisTrialN'
p457
I0
sS'block.thisRepN'
p458
I0
sg29
NsS'block.thisN'
p459
I0
sVRule
p460
(S'DECREASE'
S'HALF'
S'TRIPLE'
S'ADD'
S'x'
S'y'
tp461
sg27
g28
sVLength
p462
I4
sVIntermediate
p463
(I4
I12
I6
I5
tp464
sg22
I0
sg20
F13.268208973575383
sVY
I2
sVX
I2
sVOperatorc
p465
Vtriple
p466
sg31
g32
sg33
g34
sg21
Nsg19
S'space'
p467
sg30
g11
sVResult
p468
I5
sVOperatora
p469
Vhalf
p470
sVCorrectResponse
p471
I5
sS'block.thisIndex'
p472
I16
sVOperatorb
p473
Vdecrease
p474
sVOperatord
p475
VADD
p476
sVStructure
p477
VUUUBxy
p478
sa(dp479
S'block.thisTrialN'
p480
I1
sS'block.thisRepN'
p481
I0
sg29
NsS'block.thisN'
p482
I1
sg460
(S'DIVIDE'
S'DECREASE'
S'THIRD'
S'DOUBLE'
S'x'
S'y'
tp483
sg27
g28
sg462
I4
sg463
(I12
I4
I3
I1
tp484
sg22
I0
sg20
F2.3638456092448905
sg23
F0.69216550001874566
sVY
I3
sVX
I6
sg465
Vthird
p485
sg31
g32
sg33
g34
sg21
S'6'
sg19
S'space'
p486
sg30
g11
sg468
I1
sg469
g474
sg471
I1
sS'block.thisIndex'
p487
I10
sg473
VDIVIDE
p488
sg475
Vdouble
p489
sg477
VBUUUxy
p490
sa(dp491
S'block.thisTrialN'
p492
I2
sS'block.thisRepN'
p493
I0
sg29
NsS'block.thisN'
p494
I2
sg460
(S'THIRD'
S'INCREASE'
S'SUBTRACT'
S'HALF'
S'x'
S'y'
tp495
sg27
g28
sg462
I4
sg463
(I4
I2
I3
I1
tp496
sg22
I0
sg20
F7.8758288419339806
sg23
F1.0429844642058015
sVY
I2
sVX
I8
sg465
VSUBTRACT
p497
sg31
g32
sg33
g34
sg21
S'4'
sg19
S'space'
p498
sg30
g11
sg468
I1
sg469
Vincrease
p499
sg471
I1
sS'block.thisIndex'
p500
I15
sg473
g485
sg475
g470
sg477
VUUBUxy
p501
sa(dp502
S'block.thisTrialN'
p503
I3
sS'block.thisRepN'
p504
I0
sg29
NsS'block.thisN'
p505
I3
sg460
(S'INCREASE'
S'TIMES'
S'x'
S'y'
tp506
sg27
g28
sg462
I2
sg463
(I8
I9
tp507
sg22
I1
sg20
F1.2696224711835384
sg23
F3.2048196102259681
sVY
I4
sVX
I2
sg465
I0
sg31
g32
sg33
g34
sg21
S'9'
sg19
S'space'
p508
sg30
g11
sg468
I9
sg469
VTIMES
p509
sg471
I9
sS'block.thisIndex'
p510
I2
sg473
g499
sg475
I0
sg477
VUBxy
p511
sa(dp512
S'block.thisTrialN'
p513
I4
sS'block.thisRepN'
p514
I0
sg29
NsS'block.thisN'
p515
I4
sg460
(S'TIMES'
S'THIRD'
S'x'
S'y'
tp516
sg27
g28
sg462
I2
sg463
(I1
I4
tp517
sg22
I1
sg20
F2.0829725514631718
sg23
F10.375994898960926
sVY
I4
sVX
I3
sg465
I0
sg31
g32
sg33
g34
sg21
S'4'
sg19
S'space'
p518
sg30
g11
sg468
I4
sg469
g485
sg471
I4
sS'block.thisIndex'
p519
I1
sg473
g509
sg475
I0
sg477
VBUxy
p520
sa(dp521
S'block.thisTrialN'
p522
I5
sS'block.thisRepN'
p523
I0
sg29
NsS'block.thisN'
p524
I5
sg460
(S'TIMES'
S'DECREASE'
S'THIRD'
S'DOUBLE'
S'x'
S'y'
tp525
sg27
g28
sg462
I4
sg463
(I6
I2
I1
I2
tp526
sg22
I0
sg20
F5.9254688881337643
sg23
F2.374610448256135
sVY
I2
sVX
I3
sg465
g485
sg31
g32
sg33
g34
sg21
S'6'
sg19
S'space'
p527
sg30
g11
sg468
I2
sg469
g474
sg471
I2
sS'block.thisIndex'
p528
I11
sg473
g509
sg475
g489
sg477
g490
sa(dp529
S'block.thisTrialN'
p530
I6
sS'block.thisRepN'
p531
I0
sg29
NsS'block.thisN'
p532
I6
sg460
(S'TRIPLE'
S'HALF'
S'TIMES'
S'x'
S'y'
tp533
sg27
g28
sg462
I3
sg463
(I6
I3
I9
tp534
sg22
I1
sg20
F9.0427720370935276
sg23
F4.1624615786131471
sVY
I3
sVX
I2
sg465
g509
sg31
g32
sg33
g34
sg21
S'9'
sg19
S'space'
p535
sg30
g11
sg468
I9
sg469
g470
sg471
I9
sS'block.thisIndex'
p536
I9
sg473
g466
sg475
I0
sg477
VUUBxy
p537
sa(dp538
S'block.thisTrialN'
p539
I7
sS'block.thisRepN'
p540
I0
sg29
NsS'block.thisN'
p541
I7
sg460
(S'INCREASE'
S'HALF'
S'TIMES'
S'TRIPLE'
S'x'
S'y'
tp542
sg27
g28
sg462
I4
sg463
(I6
I12
I6
I7
tp543
sg22
I1
sg20
F11.092486625304446
sg23
F6.0695273515302688
sVY
I2
sVX
I2
sg465
g509
sg31
g32
sg33
g34
sg21
S'7'
sg19
S'space'
p544
sg30
g11
sg468
I7
sg469
g470
sg471
I7
sS'block.thisIndex'
p545
I14
sg473
g499
sg475
g466
sg477
g501
sa(dp546
S'block.thisTrialN'
p547
I8
sS'block.thisRepN'
p548
I0
sg29
NsS'block.thisN'
p549
I8
sg460
(S'DECREASE'
S'DIVIDE'
S'TRIPLE'
S'DOUBLE'
S'x'
S'y'
tp550
sg27
g28
sg462
I4
sg463
(I6
I18
I2
I1
tp551
sg22
I1
sg20
F11.012684382032603
sg23
F12.660713342134841
sVY
I9
sVX
I3
sg465
g466
sg31
g32
sg33
g34
sg21
S'1'
sg19
S'space'
p552
sg30
g11
sg468
I1
sg469
g488
sg471
I1
sS'block.thisIndex'
p553
I12
sg473
g474
sg475
g489
sg477
VUBUUxy
p554
sa(dp555
S'block.thisTrialN'
p556
I9
sS'block.thisRepN'
p557
I0
sg29
NsS'block.thisN'
p558
I9
sg460
(S'ADD'
S'DECREASE'
S'HALF'
S'x'
S'y'
tp559
sg27
g28
sg462
I3
sg463
(I3
I2
I6
tp560
sg22
I1
sg20
F1.6698284590383992
sg23
F11.094226287794299
sVY
I4
sVX
I6
sg465
g470
sg31
g32
sg33
g34
sg21
S'6'
sg19
S'space'
p561
sg30
g11
sg468
I6
sg469
g474
sg471
I6
sS'block.thisIndex'
p562
I4
sg473
g476
sg475
I0
sg477
VBUUxy
p563
sa(dp564
S'block.thisTrialN'
p565
I10
sS'block.thisRepN'
p566
I0
sg29
NsS'block.thisN'
p567
I10
sg460
(S'INCREASE'
S'DIVIDE'
S'HALF'
S'x'
S'y'
tp568
sg27
g28
sg462
I3
sg463
(I2
I1
I2
tp569
sg22
I1
sg20
F8.5759297360200435
sg23
F7.2866337865125388
sVY
I2
sVX
I4
sg465
g470
sg31
g32
sg33
g34
sg21
S'2'
sg19
S'space'
p570
sg30
g11
sg468
I2
sg469
g488
sg471
I2
sS'block.thisIndex'
p571
I7
sg473
g499
sg475
I0
sg477
VUBUxy
p572
sa(dp573
S'block.thisTrialN'
p574
I11
sS'block.thisRepN'
p575
I0
sg29
NsS'block.thisN'
p576
I11
sg460
(S'SUBTRACT'
S'DOUBLE'
S'DECREASE'
S'x'
S'y'
tp577
sg27
g28
sg462
I3
sg463
(I8
I16
I7
tp578
sg22
I1
sg20
F6.5819165403954685
sg23
F18.592826263629831
sVY
I9
sVX
I9
sg465
g474
sg31
g32
sg33
g34
sg21
S'7'
sg19
S'space'
p579
sg30
g11
sg468
I7
sg469
g489
sg471
I7
sS'block.thisIndex'
p580
I5
sg473
g497
sg475
I0
sg477
g563
sa(dp581
S'block.thisTrialN'
p582
I12
sS'block.thisRepN'
p583
I0
sg29
NsS'block.thisN'
p584
I12
sg460
(S'DECREASE'
S'HALF'
S'DIVIDE'
S'x'
S'y'
tp585
sg27
g28
sg462
I3
sg463
(I4
I2
I1
tp586
sg22
I1
sg20
F7.4119146750308573
sg23
F7.2244146968005225
sVY
I2
sVX
I8
sg465
g488
sg31
g32
sg33
g34
sg21
S'1'
sg19
S'space'
p587
sg30
g11
sg468
I1
sg469
g470
sg471
I1
sS'block.thisIndex'
p588
I8
sg473
g474
sg475
I0
sg477
g537
sa(dp589
S'block.thisTrialN'
p590
I13
sS'block.thisRepN'
p591
I0
sg29
NsS'block.thisN'
p592
I13
sg460
(S'TRIPLE'
S'SUBTRACT'
S'INCREASE'
S'HALF'
S'x'
S'y'
tp593
sg27
g28
sg462
I4
sg463
(I3
I4
I1
I3
tp594
sg22
I0
sVY
I3
sVX
I6
sg465
g499
sg31
g32
sg33
g34
sg21
Nsg19
Nsg30
g11
sg468
I3
sg469
g497
sg471
I3
sS'block.thisIndex'
p595
I13
sg473
g466
sg475
g470
sg477
g554
sa(dp596
S'block.thisTrialN'
p597
I14
sS'block.thisRepN'
p598
I0
sg29
NsS'block.thisN'
p599
I14
sg460
(S'SUBTRACT'
S'THIRD'
S'x'
S'y'
tp600
sg27
g28
sg462
I2
sg463
(I3
I1
tp601
sg22
I1
sg20
F3.1041487676557153
sg23
F3.6686357876751572
sVY
I2
sVX
I9
sg465
I0
sg31
g32
sg33
g34
sg21
S'1'
sg19
S'space'
p602
sg30
g11
sg468
I1
sg469
g485
sg471
I1
sS'block.thisIndex'
p603
I0
sg473
g497
sg475
I0
sg477
g520
sa(dp604
S'block.thisTrialN'
p605
I15
sS'block.thisRepN'
p606
I0
sg29
NsS'block.thisN'
p607
I15
sg460
(S'TRIPLE'
S'SUBTRACT'
S'x'
S'y'
tp608
sg27
g28
sg462
I2
sg463
(I2
I6
tp609
sg22
I1
sg20
F1.9884330474305898
sg23
F1.8468649155693129
sVY
I6
sVX
I8
sg465
I0
sg31
g32
sg33
g34
sg21
S'6'
sg19
S'space'
p610
sg30
g11
sg468
I6
sg469
g497
sg471
I6
sS'block.thisIndex'
p611
I3
sg473
g466
sg475
I0
sg477
g511
sa(dp612
S'block.thisTrialN'
p613
I16
sS'block.thisRepN'
p614
I0
sg29
NsS'block.thisN'
p615
I16
sg460
(S'DOUBLE'
S'TIMES'
S'THIRD'
S'x'
S'y'
tp616
sg27
g28
sg462
I3
sg463
(I1
I4
I8
tp617
sg22
I1
sg20
F2.2906447038985789
sg23
F4.5698746890993789
sVY
I4
sVX
I3
sg465
g485
sg31
g32
sg33
g34
sg21
S'8'
sg19
S'space'
p618
sg30
g11
sg468
I8
sg469
g509
sg471
I8
sS'block.thisIndex'
p619
I6
sg473
g489
sg475
I0
sg477
g572
sa(dp620
S'block.thisTrialN'
p621
I17
sS'block.thisRepN'
p622
I0
sg29
NsS'block.thisN'
p623
I17
sg460
(S'INCREASE'
S'TRIPLE'
S'HALF'
S'ADD'
S'x'
S'y'
tp624
sg27
g28
sg462
I4
sg463
(I4
I2
I6
I7
tp625
sg22
I1
sg20
F6.8504719765624031
sg23
F11.559385970234871
sVY
I2
sVX
I2
sg465
g470
sg31
g32
sg33
g34
sg21
S'7'
sg19
S'space'
p626
sg30
g11
sg468
I7
sg469
g466
sg471
I7
sS'block.thisIndex'
p627
I17
sg473
g499
sg475
g476
sg477
g478
sa(dp628
S'block.thisTrialN'
p629
I0
sS'block.thisRepN'
p630
I0
sg29
NsS'block.thisN'
p631
I0
sVRule
p632
(S'SUBTRACT'
S'HALF'
S'INCREASE'
S'TRIPLE'
S'x'
S'y'
tp633
sg27
g28
sVLength
p634
I4
sVIntermediate
p635
(I15
I16
I8
I3
tp636
sg22
I1
sg20
F9.151278184610419
sg23
F7.6686676341341808
sVY
I5
sVX
I5
sVOperatorc
p637
Vincrease
p638
sg31
g32
sg33
g34
sg21
S'3'
sg19
S'space'
p639
sg30
g11
sVResult
p640
I3
sVOperatora
p641
Vhalf
p642
sVCorrectResponse
p643
I3
sS'block.thisIndex'
p644
I10
sVOperatorb
p645
VSUBTRACT
p646
sVOperatord
p647
Vtriple
p648
sVStructure
p649
VBUUUxy
p650
sa(dp651
S'block.thisTrialN'
p652
I1
sS'block.thisRepN'
p653
I0
sg29
NsS'block.thisN'
p654
I1
sg632
(S'TRIPLE'
S'DECREASE'
S'HALF'
S'TIMES'
S'x'
S'y'
tp655
sg27
g28
sg634
I4
sg635
(I6
I3
I2
I6
tp656
sg22
I1
sg20
F7.8637621433008462
sg23
F14.978089213138446
sVY
I2
sVX
I3
sg637
g642
sg31
g32
sg33
g34
sg21
S'6'
sg19
S'space'
p657
sg30
g11
sg640
I6
sg641
Vdecrease
p658
sg643
I6
sS'block.thisIndex'
p659
I17
sg645
g648
sg647
VTIMES
p660
sg649
VUUUBxy
p661
sa(dp662
S'block.thisTrialN'
p663
I2
sS'block.thisRepN'
p664
I0
sg29
NsS'block.thisN'
p665
I2
sg632
(S'INCREASE'
S'DIVIDE'
S'TRIPLE'
S'DOUBLE'
S'x'
S'y'
tp666
sg27
g28
sg634
I4
sg635
(I6
I18
I3
I4
tp667
sg22
I0
sg20
F3.7460925838677213
sVY
I6
sVX
I3
sg637
g648
sg31
g32
sg33
g34
sg21
Nsg19
S'space'
p668
sg30
g11
sg640
I4
sg641
VDIVIDE
p669
sg643
I4
sS'block.thisIndex'
p670
I12
sg645
g638
sg647
Vdouble
p671
sg649
VUBUUxy
p672
sa(dp673
S'block.thisTrialN'
p674
I3
sS'block.thisRepN'
p675
I0
sg29
NsS'block.thisN'
p676
I3
sg632
(S'THIRD'
S'INCREASE'
S'HALF'
S'DIVIDE'
S'x'
S'y'
tp677
sg27
g28
sg634
I4
sg635
(I4
I2
I3
I1
tp678
sg22
I1
sg20
F12.312990494072437
sg23
F11.943404103862122
sVY
I2
sVX
I8
sg637
g642
sg31
g32
sg33
g34
sg21
S'1'
sg19
S'space'
p679
sg30
g11
sg640
I1
sg641
g638
sg643
I1
sS'block.thisIndex'
p680
I16
sg645
Vthird
p681
sg647
g669
sg649
g661
sa(dp682
S'block.thisTrialN'
p683
I4
sS'block.thisRepN'
p684
I0
sg29
NsS'block.thisN'
p685
I4
sg632
(S'TRIPLE'
S'HALF'
S'ADD'
S'DECREASE'
S'x'
S'y'
tp686
sg27
g28
sg634
I4
sg635
(I1
I4
I2
I6
tp687
sg22
I1
sg20
F9.5717284390702844
sg23
F5.094831372378394
sVY
I3
sVX
I2
sg637
VADD
p688
sg31
g32
sg33
g34
sg21
S'6'
sg19
S'space'
p689
sg30
g11
sg640
I6
sg641
g642
sg643
I6
sS'block.thisIndex'
p690
I15
sg645
g648
sg647
g658
sg649
VUUBUxy
p691
sa(dp692
S'block.thisTrialN'
p693
I5
sS'block.thisRepN'
p694
I0
sg29
NsS'block.thisN'
p695
I5
sg632
(S'TRIPLE'
S'SUBTRACT'
S'DOUBLE'
S'DECREASE'
S'x'
S'y'
tp696
sg27
g28
sg634
I4
sg635
(I2
I4
I1
I3
tp697
sg22
I1
sg20
F14.770154588855803
sg23
F11.302874135086313
sVY
I3
sVX
I3
sg637
g671
sg31
g32
sg33
g34
sg21
S'3'
sg19
S'space'
p698
sg30
g11
sg640
I3
sg641
g646
sg643
I3
sS'block.thisIndex'
p699
I13
sg645
g648
sg647
g658
sg649
g672
sa(dp700
S'block.thisTrialN'
p701
I6
sS'block.thisRepN'
p702
I0
sg29
NsS'block.thisN'
p703
I6
sg632
(S'TIMES'
S'INCREASE'
S'THIRD'
S'DOUBLE'
S'x'
S'y'
tp704
sg27
g28
sg634
I4
sg635
(I6
I2
I3
I9
tp705
sg22
I0
sg20
F9.1034852392040193
sg23
F14.596335685113445
sVY
I3
sVX
I3
sg637
g681
sg31
g32
sg33
g34
sg21
S'6'
sg19
S'space'
p706
sg30
g11
sg640
I9
sg641
g638
sg643
I9
sS'block.thisIndex'
p707
I11
sg645
g660
sg647
g671
sg649
g650
sa(dp708
S'block.thisTrialN'
p709
I7
sS'block.thisRepN'
p710
I0
sg29
NsS'block.thisN'
p711
I7
sg632
(S'TIMES'
S'DECREASE'
S'HALF'
S'x'
S'y'
tp712
sg27
g28
sg634
I3
sg635
(I4
I3
I9
tp713
sg22
I1
sg20
F1.8275987934321165
sg23
F7.5217706270050257
sVY
I3
sVX
I8
sg637
g642
sg31
g32
sg33
g34
sg21
S'9'
sg19
S'space'
p714
sg30
g11
sg640
I9
sg641
g658
sg643
I9
sS'block.thisIndex'
p715
I4
sg645
g660
sg647
I0
sg649
VBUUxy
p716
sa(dp717
S'block.thisTrialN'
p718
I8
sS'block.thisRepN'
p719
I0
sg29
NsS'block.thisN'
p720
I8
sg632
(S'THIRD'
S'ADD'
S'x'
S'y'
tp721
sg27
g28
sg634
I2
sg635
(I9
I3
tp722
sg22
I1
sg20
F1.7488422374008223
sg23
F5.4910390414297581
sVY
I5
sVX
I4
sg637
I0
sg31
g32
sg33
g34
sg21
S'3'
sg19
S'space'
p723
sg30
g11
sg640
I3
sg641
g688
sg643
I3
sS'block.thisIndex'
p724
I2
sg645
g681
sg647
I0
sg649
VUBxy
p725
sa(dp726
S'block.thisTrialN'
p727
I9
sS'block.thisRepN'
p728
I0
sg29
NsS'block.thisN'
p729
I9
sg632
(S'THIRD'
S'DECREASE'
S'TIMES'
S'x'
S'y'
tp730
sg27
g28
sg634
I3
sg635
(I25
I24
I8
tp731
sg22
I0
sg20
F2.6756126350956038
sg23
F16.231619019876234
sVY
I5
sVX
I5
sg637
g660
sg31
g32
sg33
g34
sg21
S'2'
sg19
S'space'
p732
sg30
g11
sg640
I8
sg641
g658
sg643
I8
sS'block.thisIndex'
p733
I8
sg645
g681
sg647
I0
sg649
VUUBxy
p734
sa(dp735
S'block.thisTrialN'
p736
I10
sS'block.thisRepN'
p737
I0
sg29
NsS'block.thisN'
p738
I10
sg632
(S'THIRD'
S'TIMES'
S'DECREASE'
S'x'
S'y'
tp739
sg27
g28
sg634
I3
sg635
(I3
I15
I5
tp740
sg22
I1
sg20
F2.2106916269985959
sg23
F9.3017248589312658
sVY
I5
sVX
I4
sg637
g658
sg31
g32
sg33
g34
sg21
S'5'
sg19
S'space'
p741
sg30
g11
sg640
I5
sg641
g660
sg643
I5
sS'block.thisIndex'
p742
I7
sg645
g681
sg647
I0
sg649
VUBUxy
p743
sa(dp744
S'block.thisTrialN'
p745
I11
sS'block.thisRepN'
p746
I0
sg29
NsS'block.thisN'
p747
I11
sg632
(S'THIRD'
S'ADD'
S'INCREASE'
S'x'
S'y'
tp748
sg27
g28
sg634
I3
sg635
(I8
I15
I5
tp749
sg22
I1
sg20
F2.2613486635964364
sg23
F4.4571469466900453
sVY
I7
sVX
I7
sg637
g638
sg31
g32
sg33
g34
sg21
S'5'
sg19
S'space'
p750
sg30
g11
sg640
I5
sg641
g688
sg643
I5
sS'block.thisIndex'
p751
I6
sg645
g681
sg647
I0
sg649
g743
sa(dp752
S'block.thisTrialN'
p753
I12
sS'block.thisRepN'
p754
I0
sg29
NsS'block.thisN'
p755
I12
sg632
(S'TIMES'
S'DECREASE'
S'x'
S'y'
tp756
sg27
g28
sg634
I2
sg635
(I2
I4
tp757
sg22
I1
sg20
F1.8403146720957011
sg23
F3.288577476865612
sVY
I2
sVX
I3
sg637
I0
sg31
g32
sg33
g34
sg21
S'4'
sg19
S'space'
p758
sg30
g11
sg640
I4
sg641
g658
sg643
I4
sS'block.thisIndex'
p759
I0
sg645
g660
sg647
I0
sg649
VBUxy
p760
sa(dp761
S'block.thisTrialN'
p762
I13
sS'block.thisRepN'
p763
I0
sg29
NsS'block.thisN'
p764
I13
sg632
(S'THIRD'
S'SUBTRACT'
S'x'
S'y'
tp765
sg27
g28
sg634
I2
sg635
(I3
I1
tp766
sg22
I1
sg20
F1.2521016108803451
sg23
F2.1192580381175503
sVY
I2
sVX
I5
sg637
I0
sg31
g32
sg33
g34
sg21
S'1'
sg19
S'space'
p767
sg30
g11
sg640
I1
sg641
g646
sg643
I1
sS'block.thisIndex'
p768
I3
sg645
g681
sg647
I0
sg649
g725
sa(dp769
S'block.thisTrialN'
p770
I14
sS'block.thisRepN'
p771
I0
sg29
NsS'block.thisN'
p772
I14
sg632
(S'TIMES'
S'INCREASE'
S'x'
S'y'
tp773
sg27
g28
sg634
I2
sg635
(I3
I6
tp774
sg22
I1
sg20
F1.5420565392123535
sg23
F1.9919263707706705
sVY
I2
sVX
I2
sg637
I0
sg31
g32
sg33
g34
sg21
S'6'
sg19
S'space'
p775
sg30
g11
sg640
I6
sg641
g638
sg643
I6
sS'block.thisIndex'
p776
I1
sg645
g660
sg647
I0
sg649
g760
sa(dp777
S'block.thisTrialN'
p778
I15
sS'block.thisRepN'
p779
I0
sg29
NsS'block.thisN'
p780
I15
sg632
(S'THIRD'
S'DOUBLE'
S'ADD'
S'INCREASE'
S'x'
S'y'
tp781
sg27
g28
sg634
I4
sg635
(I10
I12
I24
I8
tp782
sg22
I1
sg20
F3.0911182729760185
sg23
F16.214088710490614
sVY
I2
sVX
I9
sg637
g688
sg31
g32
sg33
g34
sg21
S'8'
sg19
S'space'
p783
sg30
g11
sg640
I8
sg641
g671
sg643
I8
sS'block.thisIndex'
p784
I14
sg645
g681
sg647
g638
sg649
g691
sa(dp785
S'block.thisTrialN'
p786
I16
sS'block.thisRepN'
p787
I0
sg29
NsS'block.thisN'
p788
I16
sg632
(S'TRIPLE'
S'HALF'
S'DIVIDE'
S'x'
S'y'
tp789
sg27
g28
sg634
I3
sg635
(I2
I1
I3
tp790
sg22
I1
sg20
F5.3013318513985723
sg23
F5.4620338196400553
sVY
I2
sVX
I4
sg637
g669
sg31
g32
sg33
g34
sg21
S'3'
sg19
S'space'
p791
sg30
g11
sg640
I3
sg641
g642
sg643
I3
sS'block.thisIndex'
p792
I9
sg645
g648
sg647
I0
sg649
g734
sa(dp793
S'block.thisTrialN'
p794
I17
sS'block.thisRepN'
p795
I0
sg29
NsS'block.thisN'
p796
I17
sg632
(S'TIMES'
S'THIRD'
S'HALF'
S'x'
S'y'
tp797
sg27
g28
sg634
I3
sg635
(I3
I1
I5
tp798
sg22
I1
sg20
F2.6767325144028291
sg23
F5.1072854793164879
sVY
I5
sVX
I6
sg637
g642
sg31
g32
sg33
g34
sg21
S'5'
sg19
S'space'
p799
sg30
g11
sg640
I5
sg641
g681
sg643
I5
sS'block.thisIndex'
p800
I5
sg645
g660
sg647
I0
sg649
g716
sa(dp801
S'block.thisTrialN'
p802
I0
sS'block.thisRepN'
p803
I0
sg29
NsS'block.thisN'
p804
I0
sVRule
p805
(S'INCREASE'
S'DIVIDE'
S'TRIPLE'
S'HALF'
S'x'
S'y'
tp806
sg27
g28
sVLength
p807
I4
sVIntermediate
p808
(I2
I6
I2
I3
tp809
sg22
I1
sg20
F7.9289272151654586
sg23
F14.423877434805036
sVY
I3
sVX
I4
sVOperatorc
p810
Vtriple
p811
sg31
g32
sg33
g34
sg21
S'3'
sg19
S'space'
p812
sg30
g11
sVResult
p813
I3
sVOperatora
p814
VDIVIDE
p815
sVCorrectResponse
p816
I3
sS'block.thisIndex'
p817
I12
sVOperatorb
p818
Vincrease
p819
sVOperatord
p820
Vhalf
p821
sVStructure
p822
VUBUUxy
p823
sa(dp824
S'block.thisTrialN'
p825
I1
sS'block.thisRepN'
p826
I0
sg29
NsS'block.thisN'
p827
I1
sg805
(S'TRIPLE'
S'DOUBLE'
S'SUBTRACT'
S'DECREASE'
S'x'
S'y'
tp828
sg27
g28
sg807
I4
sg808
(I4
I1
I2
I6
tp829
sg22
I1
sg20
F3.5070890104398131
sg23
F8.7427227973239496
sVY
I3
sVX
I5
sg810
VSUBTRACT
p830
sg31
g32
sg33
g34
sg21
S'6'
sg19
S'space'
p831
sg30
g11
sg813
I6
sg814
Vdouble
p832
sg816
I6
sS'block.thisIndex'
p833
I15
sg818
g811
sg820
Vdecrease
p834
sg822
VUUBUxy
p835
sa(dp836
S'block.thisTrialN'
p837
I2
sS'block.thisRepN'
p838
I0
sg29
NsS'block.thisN'
p839
I2
sg805
(S'THIRD'
S'TIMES'
S'HALF'
S'INCREASE'
S'x'
S'y'
tp840
sg27
g28
sg807
I4
sg808
(I8
I4
I12
I4
tp841
sg22
I1
sg20
F5.6532276493962854
sg23
F5.3497977743390948
sVY
I3
sVX
I7
sg810
g821
sg31
g32
sg33
g34
sg21
S'4'
sg19
S'space'
p842
sg30
g11
sg813
I4
sg814
VTIMES
p843
sg816
I4
sS'block.thisIndex'
p844
I13
sg818
Vthird
p845
sg820
g819
sg822
g823
sa(dp846
S'block.thisTrialN'
p847
I3
sS'block.thisRepN'
p848
I0
sg29
NsS'block.thisN'
p849
I3
sg805
(S'DECREASE'
S'TRIPLE'
S'DIVIDE'
S'x'
S'y'
tp850
sg27
g28
sg807
I3
sg808
(I2
I6
I5
tp851
sg22
I1
sg20
F2.3881504880264401
sg23
F3.4155080874916166
sVY
I4
sVX
I8
sg810
g815
sg31
g32
sg33
g34
sg21
S'5'
sg19
S'space'
p852
sg30
g11
sg813
I5
sg814
g811
sg816
I5
sS'block.thisIndex'
p853
I8
sg818
g834
sg820
I0
sg822
VUUBxy
p854
sa(dp855
S'block.thisTrialN'
p856
I4
sS'block.thisRepN'
p857
I0
sg29
NsS'block.thisN'
p858
I4
sg805
(S'INCREASE'
S'ADD'
S'TRIPLE'
S'x'
S'y'
tp859
sg27
g28
sg807
I3
sg808
(I6
I8
I9
tp860
sg22
I1
sg20
F2.2565699289552867
sg23
F4.5188648904440925
sVY
I2
sVX
I2
sg810
g811
sg31
g32
sg33
g34
sg21
S'9'
sg19
S'space'
p861
sg30
g11
sg813
I9
sg814
VADD
p862
sg816
I9
sS'block.thisIndex'
p863
I6
sg818
g819
sg820
I0
sg822
VUBUxy
p864
sa(dp865
S'block.thisTrialN'
p866
I5
sS'block.thisRepN'
p867
I0
sg29
NsS'block.thisN'
p868
I5
sg805
(S'DECREASE'
S'TRIPLE'
S'HALF'
S'ADD'
S'x'
S'y'
tp869
sg27
g28
sg807
I4
sg808
(I6
I3
I9
I8
tp870
sg22
I1
sg20
F6.6259900869335979
sg23
F11.318481051828712
sVY
I2
sVX
I4
sg810
g821
sg31
g32
sg33
g34
sg21
S'8'
sg19
S'space'
p871
sg30
g11
sg813
I8
sg814
g811
sg816
I8
sS'block.thisIndex'
p872
I16
sg818
g834
sg820
g862
sg822
VUUUBxy
p873
sa(dp874
S'block.thisTrialN'
p875
I6
sS'block.thisRepN'
p876
I0
sg29
NsS'block.thisN'
p877
I6
sg805
(S'DIVIDE'
S'DOUBLE'
S'INCREASE'
S'THIRD'
S'x'
S'y'
tp878
sg27
g28
sg807
I4
sg808
(I2
I3
I6
I2
tp879
sg22
I1
sg20
F8.5174037979450077
sg23
F16.783031100174412
sVY
I3
sVX
I6
sg810
g819
sg31
g32
sg33
g34
sg21
S'2'
sg19
S'space'
p880
sg30
g11
sg813
I2
sg814
g832
sg816
I2
sS'block.thisIndex'
p881
I10
sg818
g815
sg820
g845
sg822
VBUUUxy
p882
sa(dp883
S'block.thisTrialN'
p884
I7
sS'block.thisRepN'
p885
I0
sg29
NsS'block.thisN'
p886
I7
sg805
(S'TIMES'
S'INCREASE'
S'HALF'
S'TRIPLE'
S'x'
S'y'
tp887
sg27
g28
sg807
I4
sg808
(I6
I3
I4
I8
tp888
sg22
I1
sg20
F7.6839837323641405
sg23
F5.8109160927124321
sVY
I2
sVX
I2
sg810
g821
sg31
g32
sg33
g34
sg21
S'8'
sg19
S'space'
p889
sg30
g11
sg813
I8
sg814
g819
sg816
I8
sS'block.thisIndex'
p890
I11
sg818
g843
sg820
g811
sg822
g882
sa(dp891
S'block.thisTrialN'
p892
I8
sS'block.thisRepN'
p893
I0
sg29
NsS'block.thisN'
p894
I8
sg805
(S'INCREASE'
S'SUBTRACT'
S'THIRD'
S'x'
S'y'
tp895
sg27
g28
sg807
I3
sg808
(I3
I1
I2
tp896
sg22
I1
sg20
F2.5679572458611801
sg23
F7.3823845098959282
sVY
I2
sVX
I9
sg810
g845
sg31
g32
sg33
g34
sg21
S'2'
sg19
S'space'
p897
sg30
g11
sg813
I2
sg814
g830
sg816
I2
sS'block.thisIndex'
p898
I7
sg818
g819
sg820
I0
sg822
g864
sa(dp899
S'block.thisTrialN'
p900
I9
sS'block.thisRepN'
p901
I0
sg29
NsS'block.thisN'
p902
I9
sg805
(S'THIRD'
S'INCREASE'
S'ADD'
S'DOUBLE'
S'x'
S'y'
tp903
sg27
g28
sg807
I4
sg808
(I16
I20
I21
I7
tp904
sg22
I0
sg20
F3.8712173892417923
sVY
I4
sVX
I8
sg810
g862
sg31
g32
sg33
g34
sg21
Nsg19
S'space'
p905
sg30
g11
sg813
I7
sg814
g819
sg816
I7
sS'block.thisIndex'
p906
I14
sg818
g845
sg820
g832
sg822
g835
sa(dp907
S'block.thisTrialN'
p908
I10
sS'block.thisRepN'
p909
I0
sg29
NsS'block.thisN'
p910
I10
sg805
(S'DIVIDE'
S'TRIPLE'
S'HALF'
S'x'
S'y'
tp911
sg27
g28
sg807
I3
sg808
(I4
I12
I4
tp912
sg22
I1
sg20
F0.073151910561136901
sg23
F2.518178264494054
sVY
I3
sVX
I8
sg810
g821
sg31
g32
sg33
g34
sg21
S'4'
sg19
S'space'
p913
sg30
g11
sg813
I4
sg814
g811
sg816
I4
sS'block.thisIndex'
p914
I4
sg818
g815
sg820
I0
sg822
VBUUxy
p915
sa(dp916
S'block.thisTrialN'
p917
I11
sS'block.thisRepN'
p918
I0
sg29
NsS'block.thisN'
p919
I11
sg805
(S'THIRD'
S'INCREASE'
S'SUBTRACT'
S'x'
S'y'
tp920
sg27
g28
sg807
I3
sg808
(I2
I3
I1
tp921
sg22
I1
sg20
F1.6209534301888198
sg23
F3.3517064685001969
sVY
I6
sVX
I8
sg810
g830
sg31
g32
sg33
g34
sg21
S'1'
sg19
S'space'
p922
sg30
g11
sg813
I1
sg814
g819
sg816
I1
sS'block.thisIndex'
p923
I9
sg818
g845
sg820
I0
sg822
g854
sa(dp924
S'block.thisTrialN'
p925
I12
sS'block.thisRepN'
p926
I0
sg29
NsS'block.thisN'
p927
I12
sg805
(S'TIMES'
S'THIRD'
S'DOUBLE'
S'x'
S'y'
tp928
sg27
g28
sg807
I3
sg808
(I6
I2
I4
tp929
sg22
I1
sg20
F1.1549167422344908
sg23
F13.45936675730627
sVY
I2
sVX
I3
sg810
g832
sg31
g32
sg33
g34
sg21
S'4'
sg19
S'space'
p930
sg30
g11
sg813
I4
sg814
g845
sg816
I4
sS'block.thisIndex'
p931
I5
sg818
g843
sg820
I0
sg822
g915
sa(dp932
S'block.thisTrialN'
p933
I13
sS'block.thisRepN'
p934
I0
sg29
NsS'block.thisN'
p935
I13
sg805
(S'TRIPLE'
S'DECREASE'
S'HALF'
S'SUBTRACT'
S'x'
S'y'
tp936
sg27
g28
sg807
I4
sg808
(I4
I2
I1
I3
tp937
sg22
I1
sg20
F6.8560857211705297
sg23
F8.2613703612005338
sVY
I5
sVX
I9
sg810
g821
sg31
g32
sg33
g34
sg21
S'3'
sg19
S'space'
p938
sg30
g11
sg813
I3
sg814
g834
sg816
I3
sS'block.thisIndex'
p939
I17
sg818
g811
sg820
g830
sg822
g873
sa(dp940
S'block.thisTrialN'
p941
I14
sS'block.thisRepN'
p942
I0
sg29
NsS'block.thisN'
p943
I14
sg805
(S'DOUBLE'
S'TIMES'
S'x'
S'y'
tp944
sg27
g28
sg807
I2
sg808
(I4
I8
tp945
sg22
I1
sg20
F1.1058642825810239
sg23
F4.728732006275095
sVY
I2
sVX
I2
sg810
I0
sg31
g32
sg33
g34
sg21
S'8'
sg19
S'space'
p946
sg30
g11
sg813
I8
sg814
g843
sg816
I8
sS'block.thisIndex'
p947
I3
sg818
g832
sg820
I0
sg822
VUBxy
p948
sa(dp949
S'block.thisTrialN'
p950
I15
sS'block.thisRepN'
p951
I0
sg29
NsS'block.thisN'
p952
I15
sg805
(S'SUBTRACT'
S'INCREASE'
S'x'
S'y'
tp953
sg27
g28
sg807
I2
sg808
(I6
I2
tp954
sg22
I1
sg20
F1.205721462960355
sg23
F1.8443042418221012
sVY
I4
sVX
I5
sg810
I0
sg31
g32
sg33
g34
sg21
S'2'
sg19
S'space'
p955
sg30
g11
sg813
I2
sg814
g819
sg816
I2
sS'block.thisIndex'
p956
I1
sg818
g830
sg820
I0
sg822
VBUxy
p957
sa(dp958
S'block.thisTrialN'
p959
I16
sS'block.thisRepN'
p960
I0
sg29
NsS'block.thisN'
p961
I16
sg805
(S'DOUBLE'
S'ADD'
S'x'
S'y'
tp962
sg27
g28
sg807
I2
sg808
(I4
I8
tp963
sg22
I1
sg20
F1.0932747402694076
sg23
F5.2336456512566656
sVY
I2
sVX
I2
sg810
I0
sg31
g32
sg33
g34
sg21
S'8'
sg19
S'space'
p964
sg30
g11
sg813
I8
sg814
g862
sg816
I8
sS'block.thisIndex'
p965
I2
sg818
g832
sg820
I0
sg822
g948
sa(dp966
S'block.thisTrialN'
p967
I17
sS'block.thisRepN'
p968
I0
sg29
NsS'block.thisN'
p969
I17
sg805
(S'ADD'
S'THIRD'
S'x'
S'y'
tp970
sg27
g28
sg807
I2
sg808
(I1
I7
tp971
sg22
I1
sg20
F1.4306005598045886
sg23
F1.7641926318174228
sVY
I6
sVX
I3
sg810
I0
sg31
g32
sg33
g34
sg21
S'7'
sg19
S'space'
p972
sg30
g11
sg813
I7
sg814
g845
sg816
I7
sS'block.thisIndex'
p973
I0
sg818
g862
sg820
I0
sg822
g957
sa(dp974
S'block.thisTrialN'
p975
I0
sS'block.thisRepN'
p976
I0
sg29
NsS'block.thisN'
p977
I0
sVRule
p978
(S'DOUBLE'
S'DECREASE'
S'TRIPLE'
S'DIVIDE'
S'x'
S'y'
tp979
sg27
g28
sVLength
p980
I4
sVIntermediate
p981
(I1
I3
I2
I4
tp982
sg22
I1
sg20
F11.580617480445653
sg23
F10.502397766453214
sVY
I4
sVX
I4
sVOperatorc
p983
Vtriple
p984
sg31
g32
sg33
g34
sg21
S'4'
sg19
S'space'
p985
sg30
g11
sVResult
p986
I4
sVOperatora
p987
Vdecrease
p988
sVCorrectResponse
p989
I4
sS'block.thisIndex'
p990
I17
sVOperatorb
p991
Vdouble
p992
sVOperatord
p993
VDIVIDE
p994
sVStructure
p995
VUUUBxy
p996
sa(dp997
S'block.thisTrialN'
p998
I1
sS'block.thisRepN'
p999
I0
sg29
NsS'block.thisN'
p1000
I1
sg978
(S'DIVIDE'
S'DOUBLE'
S'THIRD'
S'x'
S'y'
tp1001
sg27
g28
sg980
I3
sg981
(I2
I4
I1
tp1002
sg22
I1
sg20
F3.909743684111163
sg23
F17.287254969472997
sVY
I4
sVX
I6
sg983
Vthird
p1003
sg31
g32
sg33
g34
sg21
S'1'
sg19
S'space'
p1004
sg30
g11
sg986
I1
sg987
g992
sg989
I1
sS'block.thisIndex'
p1005
I4
sg991
g994
sg993
I0
sg995
VBUUxy
p1006
sa(dp1007
S'block.thisTrialN'
p1008
I2
sS'block.thisRepN'
p1009
I0
sg29
NsS'block.thisN'
p1010
I2
sg978
(S'DIVIDE'
S'INCREASE'
S'DOUBLE'
S'THIRD'
S'x'
S'y'
tp1011
sg27
g28
sg980
I4
sg981
(I2
I4
I5
I1
tp1012
sg22
I1
sg20
F7.3959392479155213
sg23
F5.8439357314491645
sVY
I5
sVX
I6
sg983
g992
sg31
g32
sg33
g34
sg21
S'1'
sg19
S'space'
p1013
sg30
g11
sg986
I1
sg987
Vincrease
p1014
sg989
I1
sS'block.thisIndex'
p1015
I11
sg991
g994
sg993
g1003
sg995
VBUUUxy
p1016
sa(dp1017
S'block.thisTrialN'
p1018
I3
sS'block.thisRepN'
p1019
I0
sg29
NsS'block.thisN'
p1020
I3
sg978
(S'DECREASE'
S'ADD'
S'DOUBLE'
S'THIRD'
S'x'
S'y'
tp1021
sg27
g28
sg980
I4
sg981
(I3
I6
I10
I9
tp1022
sg22
I1
sg20
F4.8526543412590399
sg23
F8.8709293702850118
sVY
I4
sVX
I9
sg983
g992
sg31
g32
sg33
g34
sg21
S'9'
sg19
S'space'
p1023
sg30
g11
sg986
I9
sg987
VADD
p1024
sg989
I9
sS'block.thisIndex'
p1025
I12
sg991
Vdecrease 
p1026
sg993
g1003
sg995
VUBUUxy
p1027
sa(dp1028
S'block.thisTrialN'
p1029
I4
sS'block.thisRepN'
p1030
I0
sg29
NsS'block.thisN'
p1031
I4
sg978
(S'INCREASE'
S'DIVIDE'
S'THIRD'
S'x'
S'y'
tp1032
sg27
g28
sg980
I3
sg981
(I3
I1
I2
tp1033
sg22
I1
sg20
F2.0701348859583959
sg23
F5.9717839431250468
sVY
I3
sVX
I9
sg983
g1003
sg31
g32
sg33
g34
sg21
S'2'
sg19
S'space'
p1034
sg30
g11
sg986
I2
sg987
g994
sg989
I2
sS'block.thisIndex'
p1035
I7
sg991
g1014
sg993
I0
sg995
VUBUxy
p1036
sa(dp1037
S'block.thisTrialN'
p1038
I5
sS'block.thisRepN'
p1039
I0
sg29
NsS'block.thisN'
p1040
I5
sg978
(S'ADD'
S'THIRD'
S'INCREASE'
S'HALF'
S'x'
S'y'
tp1041
sg27
g28
sg980
I4
sg981
(I2
I3
I1
I7
tp1042
sg22
I1
sg20
F6.629652441944927
sg23
F5.4647810234455392
sVY
I6
sVX
I4
sg983
g1014
sg31
g32
sg33
g34
sg21
S'7'
sg19
S'space'
p1043
sg30
g11
sg986
I7
sg987
g1003
sg989
I7
sS'block.thisIndex'
p1044
I10
sg991
g1024
sg993
Vhalf
p1045
sg995
g1016
sa(dp1046
S'block.thisTrialN'
p1047
I6
sS'block.thisRepN'
p1048
I0
sg29
NsS'block.thisN'
p1049
I6
sg978
(S'HALF'
S'SUBTRACT'
S'TRIPLE'
S'x'
S'y'
tp1050
sg27
g28
sg980
I3
sg981
(I9
I2
I1
tp1051
sg22
I1
sg20
F7.8738183086970821
sg23
F5.4265493967104703
sVY
I7
sVX
I3
sg983
g984
sg31
g32
sg33
g34
sg21
S'1'
sg19
S'space'
p1052
sg30
g11
sg986
I1
sg987
VSUBTRACT
p1053
sg989
I1
sS'block.thisIndex'
p1054
I6
sg991
g1045
sg993
I0
sg995
g1036
sa(dp1055
S'block.thisTrialN'
p1056
I7
sS'block.thisRepN'
p1057
I0
sg29
NsS'block.thisN'
p1058
I7
sg978
(S'DECREASE'
S'TIMES'
S'DOUBLE'
S'THIRD'
S'x'
S'y'
tp1059
sg27
g28
sg980
I4
sg981
(I1
I2
I8
I7
tp1060
sg22
I1
sg20
F7.8773256305139512
sg23
F7.2837301497347653
sVY
I4
sVX
I3
sg983
g992
sg31
g32
sg33
g34
sg21
S'7'
sg19
S'space'
p1061
sg30
g11
sg986
I7
sg987
VTIMES
p1062
sg989
I7
sS'block.thisIndex'
p1063
I13
sg991
g988
sg993
g1003
sg995
g1027
sa(dp1064
S'block.thisTrialN'
p1065
I8
sS'block.thisRepN'
p1066
I0
sg29
NsS'block.thisN'
p1067
I8
sg978
(S'DIVIDE'
S'DOUBLE'
S'x'
S'y'
tp1068
sg27
g28
sg980
I2
sg981
(I12
I2
tp1069
sg22
I1
sg20
F1.6365491482429206
sg23
F3.3018550449050963
sVY
I6
sVX
I6
sg983
I0
sg31
g32
sg33
g34
sg21
S'2'
sg19
S'space'
p1070
sg30
g11
sg986
I2
sg987
g992
sg989
I2
sS'block.thisIndex'
p1071
I1
sg991
g994
sg993
I0
sg995
VBUxy
p1072
sa(dp1073
S'block.thisTrialN'
p1074
I9
sS'block.thisRepN'
p1075
I0
sg29
NsS'block.thisN'
p1076
I9
sg978
(S'ADD'
S'DOUBLE'
S'x'
S'y'
tp1077
sg27
g28
sg980
I2
sg981
(I4
I8
tp1078
sg22
I1
sg20
F1.0728943384019658
sg23
F3.1742525068111718
sVY
I4
sVX
I2
sg983
I0
sg31
g32
sg33
g34
sg21
S'8'
sg19
S'space'
p1079
sg30
g11
sg986
I8
sg987
g992
sg989
I8
sS'block.thisIndex'
p1080
I0
sg991
g1024
sg993
I0
sg995
g1072
sa(dp1081
S'block.thisTrialN'
p1082
I10
sS'block.thisRepN'
p1083
I0
sg29
NsS'block.thisN'
p1084
I10
sg978
(S'DOUBLE'
S'DECREASE'
S'SUBTRACT'
S'x'
S'y'
tp1085
sg27
g28
sg980
I3
sg981
(I5
I4
I8
tp1086
sg22
I1
sg20
F2.9830653264652938
sg23
F3.9071634124265984
sVY
I2
sVX
I7
sg983
g1053
sg31
g32
sg33
g34
sg21
S'8'
sg19
S'space'
p1087
sg30
g11
sg986
I8
sg987
g988
sg989
I8
sS'block.thisIndex'
p1088
I8
sg991
g992
sg993
I0
sg995
VUUBxy
p1089
sa(dp1090
S'block.thisTrialN'
p1091
I11
sS'block.thisRepN'
p1092
I0
sg29
NsS'block.thisN'
p1093
I11
sg978
(S'DECREASE'
S'HALF'
S'TRIPLE'
S'DIVIDE'
S'x'
S'y'
tp1094
sg27
g28
sg980
I4
sg981
(I4
I12
I6
I5
tp1095
sg22
I1
sg20
F8.0685460573295131
sg23
F6.1508134348550811
sVY
I2
sVX
I8
sg983
g984
sg31
g32
sg33
g34
sg21
S'5'
sg19
S'space'
p1096
sg30
g11
sg986
I5
sg987
g1045
sg989
I5
sS'block.thisIndex'
p1097
I16
sg991
g988
sg993
g994
sg995
g996
sa(dp1098
S'block.thisTrialN'
p1099
I12
sS'block.thisRepN'
p1100
I0
sg29
NsS'block.thisN'
p1101
I12
sg978
(S'DOUBLE'
S'TRIPLE'
S'DIVIDE'
S'DECREASE'
S'x'
S'y'
tp1102
sg27
g28
sg980
I4
sg981
(I8
I1
I3
I6
tp1103
sg22
I1
sg20
F7.2206298550590873
sg23
F8.4339433992281556
sVY
I8
sVX
I9
sg983
g994
sg31
g32
sg33
g34
sg21
S'6'
sg19
S'space'
p1104
sg30
g11
sg986
I6
sg987
g984
sg989
I6
sS'block.thisIndex'
p1105
I15
sg991
g992
sg993
g988
sg995
VUUBUxy
p1106
sa(dp1107
S'block.thisTrialN'
p1108
I13
sS'block.thisRepN'
p1109
I0
sg29
NsS'block.thisN'
p1110
I13
sg978
(S'DOUBLE'
S'SUBTRACT'
S'x'
S'y'
tp1111
sg27
g28
sg980
I2
sg981
(I1
I2
tp1112
sg22
I1
sg20
F1.3971329692285508
sg23
F1.6669069741619751
sVY
I7
sVX
I8
sg983
I0
sg31
g32
sg33
g34
sg21
S'2'
sg19
S'space'
p1113
sg30
g11
sg986
I2
sg987
g1053
sg989
I2
sS'block.thisIndex'
p1114
I2
sg991
g992
sg993
I0
sg995
VUBxy
p1115
sa(dp1116
S'block.thisTrialN'
p1117
I14
sS'block.thisRepN'
p1118
I0
sg29
NsS'block.thisN'
p1119
I14
sg978
(S'DECREASE'
S'THIRD'
S'TIMES'
S'HALF'
S'x'
S'y'
tp1120
sg27
g28
sg980
I4
sg981
(I2
I12
I4
I3
tp1121
sg22
I1
sg20
F3.9561966242035851
sg23
F6.4225955230649561
sVY
I6
sVX
I4
sg983
g1062
sg31
g32
sg33
g34
sg21
S'3'
sg19
S'space'
p1122
sg30
g11
sg986
I3
sg987
g1003
sg989
I3
sS'block.thisIndex'
p1123
I14
sg991
g988
sg993
g1045
sg995
g1106
sa(dp1124
S'block.thisTrialN'
p1125
I15
sS'block.thisRepN'
p1126
I0
sg29
NsS'block.thisN'
p1127
I15
sg978
(S'SUBTRACT'
S'HALF'
S'TRIPLE'
S'x'
S'y'
tp1128
sg27
g28
sg980
I3
sg981
(I12
I6
I2
tp1129
sg22
I1
sg20
F2.4060087118996307
sg23
F4.7901419831905514
sVY
I4
sVX
I4
sg983
g984
sg31
g32
sg33
g34
sg21
S'2'
sg19
S'space'
p1130
sg30
g11
sg986
I2
sg987
g1045
sg989
I2
sS'block.thisIndex'
p1131
I5
sg991
g1053
sg993
I0
sg995
g1006
sa(dp1132
S'block.thisTrialN'
p1133
I16
sS'block.thisRepN'
p1134
I0
sg29
NsS'block.thisN'
p1135
I16
sg978
(S'DOUBLE'
S'TRIPLE'
S'SUBTRACT'
S'x'
S'y'
tp1136
sg27
g28
sg980
I3
sg981
(I1
I3
I6
tp1137
sg22
I1
sg20
F2.0873309813905507
sg23
F5.3470880165696144
sVY
I3
sVX
I4
sg983
g1053
sg31
g32
sg33
g34
sg21
S'6'
sg19
S'space'
p1138
sg30
g11
sg986
I6
sg987
g984
sg989
I6
sS'block.thisIndex'
p1139
I9
sg991
g992
sg993
I0
sg995
g1089
sa(dp1140
S'block.thisTrialN'
p1141
I17
sS'block.thisRepN'
p1142
I0
sg29
NsS'block.thisN'
p1143
I17
sg978
(S'HALF'
S'TIMES'
S'x'
S'y'
tp1144
sg27
g28
sg980
I2
sg981
(I16
I8
tp1145
sg22
I1
sg20
F1.1859667934477329
sg23
F4.0366865432588384
sVY
I4
sVX
I4
sg983
I0
sg31
g32
sg33
g34
sg21
S'8'
sg19
S'space'
p1146
sg30
g11
sg986
I8
sg987
g1062
sg989
I8
sS'block.thisIndex'
p1147
I3
sg991
g1045
sg993
I0
sg995
g1115
sa(dp1148
S'block.thisTrialN'
p1149
I0
sS'block.thisRepN'
p1150
I0
sg29
NsS'block.thisN'
p1151
I0
sVRule
p1152
(S'THIRD'
S'DECREASE'
S'TIMES'
S'HALF'
S'x'
S'y'
tp1153
sg27
g28
sVLength
p1154
I4
sVIntermediate
p1155
(I4
I16
I15
I5
tp1156
sg22
I1
sg20
F6.7409666867461056
sg23
F7.4015858889324591
sVY
I4
sVX
I8
sVOperatorc
p1157
VTIMES
p1158
sg31
g32
sg33
g34
sg21
S'5'
sg19
S'space'
p1159
sg30
g11
sVResult
p1160
I5
sVOperatora
p1161
Vdecrease
p1162
sVCorrectResponse
p1163
I5
sS'block.thisIndex'
p1164
I15
sVOperatorb
p1165
Vthird
p1166
sVOperatord
p1167
Vhalf
p1168
sVStructure
p1169
VUUBUxy
p1170
sa(dp1171
S'block.thisTrialN'
p1172
I1
sS'block.thisRepN'
p1173
I0
sg29
NsS'block.thisN'
p1174
I1
sg1152
(S'SUBTRACT'
S'TRIPLE'
S'DECREASE'
S'x'
S'y'
tp1175
sg27
g28
sg1154
I3
sg1155
(I4
I12
I3
tp1176
sg22
I1
sg20
F2.6412921865703538
sg23
F5.9130046324571595
sVY
I9
sVX
I5
sg1157
g1162
sg31
g32
sg33
g34
sg21
S'3'
sg19
S'space'
p1177
sg30
g11
sg1160
I3
sg1161
Vtriple
p1178
sg1163
I3
sS'block.thisIndex'
p1179
I4
sg1165
VSUBTRACT
p1180
sg1167
I0
sg1169
VBUUxy
p1181
sa(dp1182
S'block.thisTrialN'
p1183
I2
sS'block.thisRepN'
p1184
I0
sg29
NsS'block.thisN'
p1185
I2
sg1152
(S'THIRD'
S'DIVIDE'
S'DECREASE'
S'x'
S'y'
tp1186
sg27
g28
sg1154
I3
sg1155
(I6
I3
I1
tp1187
sg22
I1
sg20
F5.8419227487174794
sg23
F4.6788410369772464
sVY
I2
sVX
I7
sg1157
g1162
sg31
g32
sg33
g34
sg21
S'1'
sg19
S'space'
p1188
sg30
g11
sg1160
I1
sg1161
VDIVIDE
p1189
sg1163
I1
sS'block.thisIndex'
p1190
I6
sg1165
g1166
sg1167
I0
sg1169
VUBUxy
p1191
sa(dp1192
S'block.thisTrialN'
p1193
I3
sS'block.thisRepN'
p1194
I0
sg29
NsS'block.thisN'
p1195
I3
sg1152
(S'DOUBLE'
S'DIVIDE'
S'TRIPLE'
S'INCREASE'
S'x'
S'y'
tp1196
sg27
g28
sg1154
I4
sg1155
(I5
I15
I3
I6
tp1197
sg22
I1
sg20
F5.5580487644765526
sg23
F8.8546690739458427
sVY
I5
sVX
I4
sg1157
g1178
sg31
g32
sg33
g34
sg21
S'6'
sg19
S'space'
p1198
sg30
g11
sg1160
I6
sg1161
g1189
sg1163
I6
sS'block.thisIndex'
p1199
I12
sg1165
Vdouble
p1200
sg1167
Vincrease
p1201
sg1169
VUBUUxy
p1202
sa(dp1203
S'block.thisTrialN'
p1204
I4
sS'block.thisRepN'
p1205
I0
sg29
NsS'block.thisN'
p1206
I4
sg1152
(S'DECREASE'
S'TRIPLE'
S'DIVIDE'
S'DOUBLE'
S'x'
S'y'
tp1207
sg27
g28
sg1154
I4
sg1155
(I6
I2
I6
I5
tp1208
sg22
I0
sg20
F7.8431931115919724
sg23
F12.088227584608831
sVY
I3
sVX
I3
sg1157
g1189
sg31
g32
sg33
g34
sg21
S'3'
sg19
S'space'
p1209
sg30
g11
sg1160
I5
sg1161
g1178
sg1163
I5
sS'block.thisIndex'
p1210
I14
sg1165
g1162
sg1167
g1200
sg1169
g1170
sa(dp1211
S'block.thisTrialN'
p1212
I5
sS'block.thisRepN'
p1213
I0
sg29
NsS'block.thisN'
p1214
I5
sg1152
(S'THIRD'
S'DIVIDE'
S'x'
S'y'
tp1215
sg27
g28
sg1154
I2
sg1155
(I3
I1
tp1216
sg22
I1
sg20
F3.0073047621408477
sg23
F1.5104741953546181
sVY
I2
sVX
I6
sg1157
I0
sg31
g32
sg33
g34
sg21
S'1'
sg19
S'space'
p1217
sg30
g11
sg1160
I1
sg1161
g1189
sg1163
I1
sS'block.thisIndex'
p1218
I3
sg1165
g1166
sg1167
I0
sg1169
VUBxy
p1219
sa(dp1220
S'block.thisTrialN'
p1221
I6
sS'block.thisRepN'
p1222
I0
sg29
NsS'block.thisN'
p1223
I6
sg1152
(S'THIRD'
S'TIMES'
S'HALF'
S'x'
S'y'
tp1224
sg27
g28
sg1154
I3
sg1155
(I3
I18
I6
tp1225
sg22
I1
sg20
F1.794310383615084
sg23
F3.9440893299179152
sVY
I6
sVX
I6
sg1157
g1168
sg31
g32
sg33
g34
sg21
S'6'
sg19
S'space'
p1226
sg30
g11
sg1160
I6
sg1161
g1158
sg1163
I6
sS'block.thisIndex'
p1227
I7
sg1165
g1166
sg1167
I0
sg1169
g1191
sa(dp1228
S'block.thisTrialN'
p1229
I7
sS'block.thisRepN'
p1230
I0
sg29
NsS'block.thisN'
p1231
I7
sg1152
(S'TIMES'
S'DOUBLE'
S'x'
S'y'
tp1232
sg27
g28
sg1154
I2
sg1155
(I4
I8
tp1233
sg22
I1
sg20
F1.2337884359294549
sg23
F2.6729109265143052
sVY
I2
sVX
I2
sg1157
I0
sg31
g32
sg33
g34
sg21
S'8'
sg19
S'space'
p1234
sg30
g11
sg1160
I8
sg1161
g1200
sg1163
I8
sS'block.thisIndex'
p1235
I1
sg1165
g1158
sg1167
I0
sg1169
VBUxy
p1236
sa(dp1237
S'block.thisTrialN'
p1238
I8
sS'block.thisRepN'
p1239
I0
sg29
NsS'block.thisN'
p1240
I8
sg1152
(S'DIVIDE'
S'THIRD'
S'x'
S'y'
tp1241
sg27
g28
sg1154
I2
sg1155
(I3
I1
tp1242
sg22
I1
sg20
F1.0123354695970193
sg23
F2.6461132667027414
sVY
I3
sVX
I9
sg1157
I0
sg31
g32
sg33
g34
sg21
S'1'
sg19
S'space'
p1243
sg30
g11
sg1160
I1
sg1161
g1166
sg1163
I1
sS'block.thisIndex'
p1244
I0
sg1165
g1189
sg1167
I0
sg1169
g1236
sa(dp1245
S'block.thisTrialN'
p1246
I9
sS'block.thisRepN'
p1247
I0
sg29
NsS'block.thisN'
p1248
I9
sg1152
(S'HALF'
S'TRIPLE'
S'INCREASE'
S'SUBTRACT'
S'x'
S'y'
tp1249
sg27
g28
sg1154
I4
sg1155
(I1
I2
I6
I3
tp1250
sg22
I1
sg20
F3.1877704989165068
sg23
F5.7506137463496998
sVY
I2
sVX
I3
sg1157
g1201
sg31
g32
sg33
g34
sg21
S'3'
sg19
S'space'
p1251
sg30
g11
sg1160
I3
sg1161
g1178
sg1163
I3
sS'block.thisIndex'
p1252
I17
sg1165
g1168
sg1167
g1180
sg1169
VUUUBxy
p1253
sa(dp1254
S'block.thisTrialN'
p1255
I10
sS'block.thisRepN'
p1256
I0
sg29
NsS'block.thisN'
p1257
I10
sg1152
(S'DECREASE'
S'TRIPLE'
S'HALF'
S'SUBTRACT'
S'x'
S'y'
tp1258
sg27
g28
sg1154
I4
sg1155
(I4
I2
I6
I5
tp1259
sg22
I1
sg20
F5.6549361651996151
sg23
F5.5106281787157059
sVY
I2
sVX
I6
sg1157
g1168
sg31
g32
sg33
g34
sg21
S'5'
sg19
S'space'
p1260
sg30
g11
sg1160
I5
sg1161
g1178
sg1163
I5
sS'block.thisIndex'
p1261
I16
sg1165
g1162
sg1167
g1180
sg1169
g1253
sa(dp1262
S'block.thisTrialN'
p1263
I11
sS'block.thisRepN'
p1264
I0
sg29
NsS'block.thisN'
p1265
I11
sg1152
(S'DOUBLE'
S'THIRD'
S'TIMES'
S'x'
S'y'
tp1266
sg27
g28
sg1154
I3
sg1155
(I12
I4
I8
tp1267
sg22
I1
sg20
F2.4061675948323682
sg23
F4.8693261931184679
sVY
I6
sVX
I2
sg1157
g1158
sg31
g32
sg33
g34
sg21
S'8'
sg19
S'space'
p1268
sg30
g11
sg1160
I8
sg1161
g1166
sg1163
I8
sS'block.thisIndex'
p1269
I9
sg1165
g1200
sg1167
I0
sg1169
VUUBxy
p1270
sa(dp1271
S'block.thisTrialN'
p1272
I12
sS'block.thisRepN'
p1273
I0
sg29
NsS'block.thisN'
p1274
I12
sg1152
(S'INCREASE'
S'ADD'
S'HALF'
S'TRIPLE'
S'x'
S'y'
tp1275
sg27
g28
sg1154
I4
sg1155
(I6
I3
I6
I7
tp1276
sg22
I1
sg20
F8.052250764798373
sg23
F8.8078577725682408
sVY
I3
sVX
I2
sg1157
g1168
sg31
g32
sg33
g34
sg21
S'7'
sg19
S'space'
p1277
sg30
g11
sg1160
I7
sg1161
VADD
p1278
sg1163
I7
sS'block.thisIndex'
p1279
I13
sg1165
g1201
sg1167
g1178
sg1169
g1202
sa(dp1280
S'block.thisTrialN'
p1281
I13
sS'block.thisRepN'
p1282
I0
sg29
NsS'block.thisN'
p1283
I13
sg1152
(S'SUBTRACT'
S'DOUBLE'
S'TRIPLE'
S'DECREASE'
S'x'
S'y'
tp1284
sg27
g28
sg1154
I4
sg1155
(I2
I6
I12
I8
tp1285
sg22
I1
sg20
F5.3344057343201712
sg23
F5.6675131086958572
sVY
I4
sVX
I3
sg1157
g1178
sg31
g32
sg33
g34
sg21
S'8'
sg19
S'space'
p1286
sg30
g11
sg1160
I8
sg1161
g1200
sg1163
I8
sS'block.thisIndex'
p1287
I10
sg1165
g1180
sg1167
g1162
sg1169
VBUUUxy
p1288
sa(dp1289
S'block.thisTrialN'
p1290
I14
sS'block.thisRepN'
p1291
I0
sg29
NsS'block.thisN'
p1292
I14
sg1152
(S'DOUBLE'
S'DECREASE'
S'ADD'
S'x'
S'y'
tp1293
sg27
g28
sg1154
I3
sg1155
(I4
I3
I6
tp1294
sg22
I1
sg20
F1.8778239766834304
sg23
F4.4552109555806965
sVY
I2
sVX
I2
sg1157
g1278
sg31
g32
sg33
g34
sg21
S'6'
sg19
S'space'
p1295
sg30
g11
sg1160
I6
sg1161
g1162
sg1163
I6
sS'block.thisIndex'
p1296
I8
sg1165
g1200
sg1167
I0
sg1169
g1270
sa(dp1297
S'block.thisTrialN'
p1298
I15
sS'block.thisRepN'
p1299
I0
sg29
NsS'block.thisN'
p1300
I15
sg1152
(S'TIMES'
S'HALF'
S'INCREASE'
S'x'
S'y'
tp1301
sg27
g28
sg1154
I3
sg1155
(I6
I3
I9
tp1302
sg22
I1
sg20
F1.7296730547677726
sg23
F4.7240610599983484
sVY
I3
sVX
I5
sg1157
g1201
sg31
g32
sg33
g34
sg21
S'9'
sg19
S'space'
p1303
sg30
g11
sg1160
I9
sg1161
g1168
sg1163
I9
sS'block.thisIndex'
p1304
I5
sg1165
g1158
sg1167
I0
sg1169
g1181
sa(dp1305
S'block.thisTrialN'
p1306
I16
sS'block.thisRepN'
p1307
I0
sg29
NsS'block.thisN'
p1308
I16
sg1152
(S'SUBTRACT'
S'TRIPLE'
S'DECREASE'
S'DOUBLE'
S'x'
S'y'
tp1309
sg27
g28
sg1154
I4
sg1155
(I4
I3
I9
I1
tp1310
sg22
I1
sg20
F6.5985617950791493
sg23
F7.9884711933555081
sVY
I8
sVX
I2
sg1157
g1162
sg31
g32
sg33
g34
sg21
S'1'
sg19
S'space'
p1311
sg30
g11
sg1160
I1
sg1161
g1178
sg1163
I1
sS'block.thisIndex'
p1312
I11
sg1165
g1180
sg1167
g1200
sg1169
g1288
sa(dp1313
S'block.thisTrialN'
p1314
I17
sS'block.thisRepN'
p1315
I0
sg29
NsS'block.thisN'
p1316
I17
sg1152
(S'INCREASE'
S'SUBTRACT'
S'x'
S'y'
tp1317
sg27
g28
sg1154
I2
sg1155
(I3
I4
tp1318
sg22
I1
sg20
F1.3808527251239866
sg23
F2.1967928758822381
sVY
I3
sVX
I6
sg1157
I0
sg31
g32
sg33
g34
sg21
S'4'
sg19
S'space'
p1319
sg30
g11
sg1160
I4
sg1161
g1180
sg1163
I4
sS'block.thisIndex'
p1320
I2
sg1165
g1201
sg1167
I0
sg1169
g1219
sa(dp1321
S'block.thisTrialN'
p1322
I0
sS'block.thisRepN'
p1323
I0
sg29
NsS'block.thisN'
p1324
I0
sVRule
p1325
(S'TIMES'
S'HALF'
S'INCREASE'
S'THIRD'
S'x'
S'y'
tp1326
sg27
g28
sVLength
p1327
I4
sVIntermediate
p1328
(I1
I2
I1
I9
tp1329
sg22
I1
sg20
F6.928536307415925
sg23
F7.8453138828044757
sVY
I9
sVX
I3
sVOperatorc
p1330
Vincrease
p1331
sg31
g32
sg33
g34
sg21
S'9'
sg19
S'space'
p1332
sg30
g11
sVResult
p1333
I9
sVOperatora
p1334
Vhalf
p1335
sVCorrectResponse
p1336
I9
sS'block.thisIndex'
p1337
I11
sVOperatorb
p1338
VTIMES
p1339
sVOperatord
p1340
Vthird
p1341
sVStructure
p1342
VBUUUxy
p1343
sa(dp1344
S'block.thisTrialN'
p1345
I1
sS'block.thisRepN'
p1346
I0
sg29
NsS'block.thisN'
p1347
I1
sg1325
(S'DIVIDE'
S'DOUBLE'
S'INCREASE'
S'TRIPLE'
S'x'
S'y'
tp1348
sg27
g28
sg1327
I4
sg1328
(I9
I10
I20
I5
tp1349
sg22
I0
sg20
F5.2047226707218215
sg23
F15.843370192567818
sVY
I4
sVX
I3
sg1330
g1331
sg31
g32
sg33
g34
sg21
S'7'
sg19
S'space'
p1350
sg30
g11
sg1333
I5
sg1334
Vdouble
p1351
sg1336
I5
sS'block.thisIndex'
p1352
I10
sg1338
VDIVIDE
p1353
sg1340
Vtriple
p1354
sg1342
g1343
sa(dp1355
S'block.thisTrialN'
p1356
I2
sS'block.thisRepN'
p1357
I0
sg29
NsS'block.thisN'
p1358
I2
sg1325
(S'TRIPLE'
S'INCREASE'
S'DIVIDE'
S'DOUBLE'
S'x'
S'y'
tp1359
sg27
g28
sg1327
I4
sg1328
(I16
I2
I3
I9
tp1360
sg22
I0
sg20
F9.5040068927919492
sg23
F17.816150478203781
sVY
I8
sVX
I8
sg1330
g1353
sg31
g32
sg33
g34
sg21
S'4'
sg19
S'space'
p1361
sg30
g11
sg1333
I9
sg1334
g1331
sg1336
I9
sS'block.thisIndex'
p1362
I15
sg1338
g1354
sg1340
g1351
sg1342
VUUBUxy
p1363
sa(dp1364
S'block.thisTrialN'
p1365
I3
sS'block.thisRepN'
p1366
I0
sg29
NsS'block.thisN'
p1367
I3
sg1325
(S'SUBTRACT'
S'TRIPLE'
S'x'
S'y'
tp1368
sg27
g28
sg1327
I2
sg1328
(I12
I9
tp1369
sg22
I1
sg20
F0.93367830279748887
sg23
F4.1325058592483401
sVY
I3
sVX
I4
sg1330
I0
sg31
g32
sg33
g34
sg21
S'9'
sg19
S'space'
p1370
sg30
g11
sg1333
I9
sg1334
g1354
sg1336
I9
sS'block.thisIndex'
p1371
I1
sg1338
VSUBTRACT
p1372
sg1340
I0
sg1342
VBUxy
p1373
sa(dp1374
S'block.thisTrialN'
p1375
I4
sS'block.thisRepN'
p1376
I0
sg29
NsS'block.thisN'
p1377
I4
sg1325
(S'DIVIDE'
S'TRIPLE'
S'DECREASE'
S'x'
S'y'
tp1378
sg27
g28
sg1327
I3
sg1328
(I6
I18
I9
tp1379
sg22
I1
sg20
F1.8790838408749551
sg23
F5.6525952675146982
sVY
I2
sVX
I7
sg1330
Vdecrease
p1380
sg31
g32
sg33
g34
sg21
S'9'
sg19
S'space'
p1381
sg30
g11
sg1333
I9
sg1334
g1354
sg1336
I9
sS'block.thisIndex'
p1382
I4
sg1338
g1353
sg1340
I0
sg1342
VBUUxy
p1383
sa(dp1384
S'block.thisTrialN'
p1385
I5
sS'block.thisRepN'
p1386
I0
sg29
NsS'block.thisN'
p1387
I5
sg1325
(S'INCREASE'
S'TIMES'
S'TRIPLE'
S'HALF'
S'x'
S'y'
tp1388
sg27
g28
sg1327
I4
sg1328
(I1
I3
I6
I7
tp1389
sg22
I0
sg20
F8.054891929961741
sg23
F9.9134263370651752
sVY
I2
sVX
I2
sg1330
g1354
sg31
g32
sg33
g34
sg21
S'4'
sg19
S'space'
p1390
sg30
g11
sg1333
I7
sg1334
g1339
sg1336
I7
sS'block.thisIndex'
p1391
I13
sg1338
g1331
sg1340
g1335
sg1342
VUBUUxy
p1392
sa(dp1393
S'block.thisTrialN'
p1394
I6
sS'block.thisRepN'
p1395
I0
sg29
NsS'block.thisN'
p1396
I6
sg1325
(S'TRIPLE'
S'HALF'
S'ADD'
S'x'
S'y'
tp1397
sg27
g28
sg1327
I3
sg1328
(I6
I3
I9
tp1398
sg22
I1
sg20
F1.0099067315459251
sg23
F4.1036021265899763
sVY
I3
sVX
I3
sg1330
VADD
p1399
sg31
g32
sg33
g34
sg21
S'9'
sg19
S'space'
p1400
sg30
g11
sg1333
I9
sg1334
g1335
sg1336
I9
sS'block.thisIndex'
p1401
I8
sg1338
g1354
sg1340
I0
sg1342
VUUBxy
p1402
sa(dp1403
S'block.thisTrialN'
p1404
I7
sS'block.thisRepN'
p1405
I0
sg29
NsS'block.thisN'
p1406
I7
sg1325
(S'SUBTRACT'
S'INCREASE'
S'HALF'
S'x'
S'y'
tp1407
sg27
g28
sg1327
I3
sg1328
(I4
I5
I3
tp1408
sg22
I1
sg20
F1.427711621276103
sg23
F14.598966701421887
sVY
I2
sVX
I8
sg1330
g1335
sg31
g32
sg33
g34
sg21
S'3'
sg19
S'space'
p1409
sg30
g11
sg1333
I3
sg1334
g1331
sg1336
I3
sS'block.thisIndex'
p1410
I5
sg1338
g1372
sg1340
I0
sg1342
g1383
sa(dp1411
S'block.thisTrialN'
p1412
I8
sS'block.thisRepN'
p1413
I0
sg29
NsS'block.thisN'
p1414
I8
sg1325
(S'DECREASE'
S'THIRD'
S'DOUBLE'
S'ADD'
S'x'
S'y'
tp1415
sg27
g28
sg1327
I4
sg1328
(I9
I18
I6
I5
tp1416
sg22
I1
sg20
F4.7401365763507783
sg23
F6.6939979023300111
sVY
I4
sVX
I5
sg1330
g1351
sg31
g32
sg33
g34
sg21
S'5'
sg19
S'space'
p1417
sg30
g11
sg1333
I5
sg1334
g1341
sg1336
I5
sS'block.thisIndex'
p1418
I16
sg1338
g1380
sg1340
g1399
sg1342
VUUUBxy
p1419
sa(dp1420
S'block.thisTrialN'
p1421
I9
sS'block.thisRepN'
p1422
I0
sg29
NsS'block.thisN'
p1423
I9
sg1325
(S'ADD'
S'HALF'
S'x'
S'y'
tp1424
sg27
g28
sg1327
I2
sg1328
(I2
I7
tp1425
sg22
I1
sg20
F1.0447055785916746
sg23
F1.6259802880231291
sVY
I5
sVX
I4
sg1330
I0
sg31
g32
sg33
g34
sg21
S'7'
sg19
S'space'
p1426
sg30
g11
sg1333
I7
sg1334
g1335
sg1336
I7
sS'block.thisIndex'
p1427
I0
sg1338
g1399
sg1340
I0
sg1342
g1373
sa(dp1428
S'block.thisTrialN'
p1429
I10
sS'block.thisRepN'
p1430
I0
sg29
NsS'block.thisN'
p1431
I10
sg1325
(S'DOUBLE'
S'DIVIDE'
S'x'
S'y'
tp1432
sg27
g28
sg1327
I2
sg1328
(I1
I2
tp1433
sg22
I1
sg20
F1.1091675763018429
sg23
F1.4790748818777502
sVY
I8
sVX
I8
sg1330
I0
sg31
g32
sg33
g34
sg21
S'2'
sg19
S'space'
p1434
sg30
g11
sg1333
I2
sg1334
g1353
sg1336
I2
sS'block.thisIndex'
p1435
I2
sg1338
g1351
sg1340
I0
sg1342
VUBxy
p1436
sa(dp1437
S'block.thisTrialN'
p1438
I11
sS'block.thisRepN'
p1439
I0
sg29
NsS'block.thisN'
p1440
I11
sg1325
(S'HALF'
S'TIMES'
S'DECREASE'
S'x'
S'y'
tp1441
sg27
g28
sg1327
I3
sg1328
(I8
I16
I8
tp1442
sg22
I1
sg20
F1.1407733676023781
sg23
F5.6872411810327321
sVY
I2
sVX
I9
sg1330
g1380
sg31
g32
sg33
g34
sg21
S'8'
sg19
S'space'
p1443
sg30
g11
sg1333
I8
sg1334
g1339
sg1336
I8
sS'block.thisIndex'
p1444
I6
sg1338
g1335
sg1340
I0
sg1342
VUBUxy
p1445
sa(dp1446
S'block.thisTrialN'
p1447
I12
sS'block.thisRepN'
p1448
I0
sg29
NsS'block.thisN'
p1449
I12
sg1325
(S'INCREASE'
S'DIVIDE'
S'TRIPLE'
S'x'
S'y'
tp1450
sg27
g28
sg1327
I3
sg1328
(I6
I2
I3
tp1451
sg22
I1
sg20
F4.7206503278575838
sg23
F7.6237240813206881
sVY
I3
sVX
I2
sg1330
g1354
sg31
g32
sg33
g34
sg21
S'3'
sg19
S'space'
p1452
sg30
g11
sg1333
I3
sg1334
g1353
sg1336
I3
sS'block.thisIndex'
p1453
I7
sg1338
g1331
sg1340
I0
sg1342
g1445
sa(dp1454
S'block.thisTrialN'
p1455
I13
sS'block.thisRepN'
p1456
I0
sg29
NsS'block.thisN'
p1457
I13
sg1325
(S'TRIPLE'
S'DOUBLE'
S'SUBTRACT'
S'INCREASE'
S'x'
S'y'
tp1458
sg27
g28
sg1327
I4
sg1328
(I5
I1
I2
I6
tp1459
sg22
I1
sg20
F2.760523627512157
sg23
F3.5221125400858
sVY
I4
sVX
I4
sg1330
g1372
sg31
g32
sg33
g34
sg21
S'6'
sg19
S'space'
p1460
sg30
g11
sg1333
I6
sg1334
g1351
sg1336
I6
sS'block.thisIndex'
p1461
I14
sg1338
g1354
sg1340
g1331
sg1342
g1363
sa(dp1462
S'block.thisTrialN'
p1463
I14
sS'block.thisRepN'
p1464
I0
sg29
NsS'block.thisN'
p1465
I14
sg1325
(S'TRIPLE'
S'INCREASE'
S'SUBTRACT'
S'x'
S'y'
tp1466
sg27
g28
sg1327
I3
sg1328
(I1
I2
I6
tp1467
sg22
I1
sg20
F3.0943078289274126
sg23
F5.4799308894434944
sVY
I2
sVX
I3
sg1330
g1372
sg31
g32
sg33
g34
sg21
S'6'
sg19
S'space'
p1468
sg30
g11
sg1333
I6
sg1334
g1331
sg1336
I6
sS'block.thisIndex'
p1469
I9
sg1338
g1354
sg1340
I0
sg1342
g1402
sa(dp1470
S'block.thisTrialN'
p1471
I15
sS'block.thisRepN'
p1472
I0
sg29
NsS'block.thisN'
p1473
I15
sg1325
(S'INCREASE'
S'DIVIDE'
S'x'
S'y'
tp1474
sg27
g28
sg1327
I2
sg1328
(I4
I5
tp1475
sg22
I1
sg20
F0.93319150526076555
sg23
F1.3538828837918118
sVY
I2
sVX
I8
sg1330
I0
sg31
g32
sg33
g34
sg21
S'5'
sg19
S'space'
p1476
sg30
g11
sg1333
I5
sg1334
g1353
sg1336
I5
sS'block.thisIndex'
p1477
I3
sg1338
g1331
sg1340
I0
sg1342
g1436
sa(dp1478
S'block.thisTrialN'
p1479
I16
sS'block.thisRepN'
p1480
I0
sg29
NsS'block.thisN'
p1481
I16
sg1325
(S'HALF'
S'SUBTRACT'
S'DECREASE'
S'TRIPLE'
S'x'
S'y'
tp1482
sg27
g28
sg1327
I4
sg1328
(I15
I14
I10
I5
tp1483
sg22
I1
sg20
F5.8565305231604725
sg23
F9.6223434802377596
sVY
I4
sVX
I5
sg1330
g1380
sg31
g32
sg33
g34
sg21
S'5'
sg19
S'space'
p1484
sg30
g11
sg1333
I5
sg1334
g1372
sg1336
I5
sS'block.thisIndex'
p1485
I12
sg1338
g1335
sg1340
g1354
sg1342
g1392
sa(dp1486
S'block.thisTrialN'
p1487
I17
sS'block.thisRepN'
p1488
I0
sg29
NsS'block.thisN'
p1489
I17
sg1325
(S'THIRD'
S'INCREASE'
S'HALF'
S'TIMES'
S'x'
S'y'
tp1490
sg27
g28
sg1327
I4
sg1328
(I28
I14
I15
I5
tp1491
sg22
I1
sg20
F3.6062161695444956
sg23
F8.6154341753572226
sVY
I4
sVX
I7
sg1330
g1335
sg31
g32
sg33
g34
sg21
S'5'
sg19
S'space'
p1492
sg30
g11
sg1333
I5
sg1334
g1331
sg1336
I5
sS'block.thisIndex'
p1493
I17
sg1338
g1341
sg1340
g1339
sg1342
g1419
sasS'loops'
p1494
(lp1495
g1
(cpsychopy.data
TrialHandler
p1496
g3
NtRp1497
(dp1498
S'origin'
p1499
NsS'thisTrial'
p1500
(lp1501
sS'_exp'
p1502
I150637584
sg10
S'practice_trials'
p1503
sg6
S'C:\\Users\\experimenter\\Desktop\\Experiments\\KRITL\\2. kritl_experimenter.py'
p1504
sS'thisRepN'
p1505
I1
sg24
I01
sg25
g26
sS'data'
p1506
g1
(cpsychopy.data
DataHandler
p1507
c__builtin__
dict
p1508
(dp1509
g15
cnumpy.core.multiarray
_reconstruct
p1510
(cnumpy
ndarray
p1511
(I0
tS'b'
tRp1512
(I1
(I6
I1
tcnumpy
dtype
p1513
(S'O4'
I0
I1
tRp1514
(I3
S'|'
NNNI-1
I-1
I63
tbI00
(lp1515
(lp1516
F8.0454481984488666
aa(lp1517
F7.6434553032740951
aa(lp1518
F6.793137310189195
aa(lp1519
F11.046054683043621
aa(lp1520
F3.9786540522472933
aa(lp1521
F12.399490315001458
aatbsg16
g1510
(g1511
(I0
tS'b'
tRp1522
(I1
(I6
I1
tg1514
I00
(lp1523
S'7'
aS'8'
aS'7'
aS'8'
aS'4'
aNatbsS'ran'
p1524
cnumpy.ma.core
_mareconstruct
p1525
(cnumpy.ma.core
MaskedArray
p1526
g1511
(I0
tp1527
S'b'
tRp1528
(I1
(I6
I1
tg1513
(S'f4'
I0
I1
tRp1529
(I3
S'<'
NNNI-1
I-1
I0
tbI00
S'\x00\x00\x80?\x00\x00\x80?\x00\x00\x80?\x00\x00\x80?\x00\x00\x80?\x00\x00\x80?'
S'\x00\x00\x00\x00\x00\x00'
Ntbsg18
g1525
(g1526
g1511
g1527
S'b'
tRp1530
(I1
(I6
I1
tg1529
I00
S'\xbd\x05\x1e@\xabq/@\xca\xd6\x06@\xfcp\x96Ai{\\@\x00\x00\x00\x00'
S'\x00\x00\x00\x00\x00\x01'
Ntbsg14
g1510
(g1511
(I0
tS'b'
tRp1531
(I1
(I6
I1
tg1514
I00
(lp1532
(lp1533
g91
aa(lp1534
g108
aa(lp1535
g116
aa(lp1536
g70
aa(lp1537
g99
aa(lp1538
g77
aatbsS'order'
p1539
g1525
(g1526
g1511
g1527
S'b'
tRp1540
(I1
(I6
I1
tg1529
I00
S'\x00\x00\x00@\x00\x00\x80@\x00\x00\xa0@\x00\x00\x00\x00\x00\x00@@\x00\x00\x80?'
S'\x00\x00\x00\x00\x00\x00'
Ntbsg17
g1525
(g1526
g1511
g1527
S'b'
tRp1541
(I1
(I6
I1
tg1529
I00
S'\x00\x00\x80?\x00\x00\x80?\x00\x00\x80?\x00\x00\x80?\x00\x00\x00\x00\x00\x00\x00\x00'
S'\x00\x00\x00\x00\x00\x00'
NtbstRp1542
(dp1543
S'isNumeric'
p1544
(dp1545
g16
I00
sg1524
I01
sg18
I01
sg14
I00
sg17
I01
sg1539
I01
sg15
I00
ssS'trials'
p1546
g1497
sS'dataTypes'
p1547
(lp1548
g1524
ag1539
ag14
ag15
ag16
ag17
ag18
asS'dataShape'
p1549
(lp1550
I6
aI1
asbsS'method'
p1551
S'fullRandom'
p1552
sS'sequenceIndices'
p1553
g1510
(g1511
(I0
tS'b'
tRp1554
(I1
(I6
I1
tg1514
I00
(lp1555
I3
aI5
aI0
aI4
aI1
aI2
atbsS'finished'
p1556
I01
sS'nReps'
p1557
I1
sS'nRemaining'
p1558
I-1
sS'trialList'
p1559
(lp1560
g1
(cpsychopy.data
TrialType
p1561
g1508
(dp1562
g43
I0
sg44
g64
sg45
g87
sg46
I7
sg49
I2
sg48
I0
sg47
I5
sg50
I3
stRp1563
ag1
(g1561
g1508
(dp1564
g43
I0
sg44
g87
sg45
g104
sg46
I8
sg49
I2
sg48
I0
sg47
I3
sg50
I3
stRp1565
ag1
(g1561
g1508
(dp1566
g43
I0
sg44
g64
sg45
g66
sg46
I7
sg49
I2
sg48
I0
sg47
I5
sg50
I4
stRp1567
ag1
(g1561
g1508
(dp1568
g43
g64
sg44
g65
sg45
g66
sg46
I8
sg49
I3
sg48
I0
sg47
I2
sg50
I4
stRp1569
ag1
(g1561
g1508
(dp1570
g43
g75
sg44
g80
sg45
g83
sg46
I3
sg49
I3
sg48
I0
sg47
I3
sg50
I2
stRp1571
ag1
(g1561
g1508
(dp1572
g43
g75
sg44
g80
sg45
g78
sg46
I9
sg49
I4
sg48
g83
sg47
I8
sg50
I8
stRp1573
asS'seed'
p1574
NsS'thisIndex'
p1575
I2
sS'thisN'
p1576
I6
sS'thisTrialN'
p1577
I0
sS'nTotal'
p1578
I6
sS'_warnUseOfNext'
p1579
I01
sbag1
(g1496
g3
NtRp1580
(dp1581
g1499
Nsg1500
(lp1582
sg1502
I150637584
sg10
S'block'
p1583
sg6
g1504
sg1505
I1
sg24
I01
sg25
g26
sg1506
g1
(g1507
g1508
(dp1584
g22
g1525
(g1526
g1511
g1527
S'b'
tRp1585
(I1
(I18
I1
tg1529
I00
S'\x00\x00\x80?\x00\x00\x80?\x00\x00\x80?\x00\x00\x80?\x00\x00\x00\x00\x00\x00\x80?\x00\x00\x80?\x00\x00\x80?\x00\x00\x80?\x00\x00\x00\x00\x00\x00\x00\x00\x00\x00\x80?\x00\x00\x00\x00\x00\x00\x00\x00\x00\x00\x00\x00\x00\x00\x00\x00\x00\x00\x00\x00\x00\x00\x00\x00'
S'\x00\x00\x00\x00\x00\x00\x00\x00\x00\x00\x00\x00\x00\x00\x00\x00\x00\x00'
Ntbsg19
g1510
(g1511
(I0
tS'b'
tRp1586
(I1
(I18
I1
tg1514
I00
(lp1587
g257
ag214
ag265
ag196
ag249
ag170
ag241
ag205
ag140
ag150
ag188
ag159
ag127
ag233
ag179
ag273
ag281
ag223
atbsg23
g1525
(g1526
g1511
g1527
S'b'
tRp1588
(I1
(I18
I1
tg1529
I00
S'\xd8\xc1\xb1@\xff\xe1\x1e@\xca!B@\xb5\xa9\x14@\x7f\x15\x89A\x8b\x1b\xfa@F\xed\xc8@\x8d\xeeqA\x94if@n\x12+A\x02<}A\x0bMwAa\xcf\x1cA\x1fvcA\x00\x00\x00\x00(\xc3_A\x04\xa6kA\t\xd9\x18A'
S'\x00\x00\x00\x00\x00\x00\x00\x00\x00\x00\x00\x00\x00\x00\x01\x00\x00\x00'
Ntbsg1524
g1525
(g1526
g1511
g1527
S'b'
tRp1589
(I1
(I18
I1
tg1529
I00
S'\x00\x00\x80?\x00\x00\x80?\x00\x00\x80?\x00\x00\x80?\x00\x00\x80?\x00\x00\x80?\x00\x00\x80?\x00\x00\x80?\x00\x00\x80?\x00\x00\x80?\x00\x00\x80?\x00\x00\x80?\x00\x00\x80?\x00\x00\x80?\x00\x00\x80?\x00\x00\x80?\x00\x00\x80?\x00\x00\x80?'
S'\x00\x00\x00\x00\x00\x00\x00\x00\x00\x00\x00\x00\x00\x00\x00\x00\x00\x00'
Ntbsg21
g1510
(g1511
(I0
tS'b'
tRp1590
(I1
(I18
I1
tg1514
I00
(lp1591
S'2'
aS'3'
aS'1'
aS'6'
aS'6'
aS'4'
aS'6'
aS'3'
aS'7'
aS'6'
aS'1'
aS'8'
aS'6'
aS'6'
aNaS'6'
aS'1'
aS'2'
atbsg1539
g1525
(g1526
g1511
g1527
S'b'
tRp1592
(I1
(I18
I1
tg1529
I00
S'\x00\x00`A\x00\x00\x10A\x00\x00pA\x00\x00\xe0@\x00\x00PA\x00\x00\x80@\x00\x00@A\x00\x00\x00A\x00\x00\x80?\x00\x00\x00@\x00\x00\xc0@\x00\x00@@\x00\x00\x00\x00\x00\x000A\x00\x00\xa0@\x00\x00\x80A\x00\x00\x88A\x00\x00 A'
S'\x00\x00\x00\x00\x00\x00\x00\x00\x00\x00\x00\x00\x00\x00\x00\x00\x00\x00'
Ntbsg20
g1525
(g1526
g1511
g1527
S'b'
tRp1593
(I1
(I18
I1
tg1529
I00
S'\x94\xcc\xa8?\xeb\xa9\xa6?pY)@\x02 \xc5?1K\x86@8I\x99@\xe4-\xdb@\x89\x0e\x90@2\xbc\x08A\x81\xd2\x00A\x82K\x14A`B\x05A\xeeRjA\xe5\xa6/A~\x11\nA\xdf\x84\\AH"8AY\xc2\x0fA'
S'\x00\x00\x00\x00\x00\x00\x00\x00\x00\x00\x00\x00\x00\x00\x00\x00\x00\x00'
NtbstRp1594
(dp1595
g1544
(dp1596
g1524
I01
sg21
I00
sg20
I01
sg22
I01
sg19
I00
sg23
I01
sg1539
I01
ssg1546
g1580
sg1547
(lp1597
g1524
ag1539
ag19
ag20
ag21
ag22
ag23
asg1549
(lp1598
I18
aI1
asbsg1551
g1552
sg1553
g1510
(g1511
(I0
tS'b'
tRp1599
(I1
(I18
I1
tg1514
I00
(lp1600
I12
aI8
aI9
aI11
aI5
aI14
aI10
aI3
aI7
aI1
aI17
aI13
aI6
aI4
aI0
aI2
aI15
aI16
atbsg1556
I01
sg1557
I1
sg1558
I-1
sg1559
(lp1601
g1
(g1561
g1508
(dp1602
g51
g255
sVY
I2
sg53
I2
sg54
g256
sg55
I2
sg56
I2
sg52
g126
sVX
I3
sg57
I0
sg58
g139
sg59
I0
sg60
g216
stRp1603
ag1
(g1561
g1508
(dp1604
g51
g212
sVY
I2
sg53
I2
sg54
g213
sg55
I3
sg56
I3
sg52
g160
sVX
I6
sg57
I0
sg58
g162
sg59
I0
sg60
g216
stRp1605
ag1
(g1561
g1508
(dp1606
g51
g263
sVY
I4
sg53
I2
sg54
g264
sg55
I1
sg56
I1
sg52
g139
sVX
I8
sg57
I0
sg58
g160
sg59
I0
sg60
g198
stRp1607
ag1
(g1561
g1508
(dp1608
g51
g194
sVY
I2
sg53
I2
sg54
g195
sg55
I6
sg56
I6
sg52
g128
sVX
I3
sg57
I0
sg58
g126
sg59
I0
sg60
g198
stRp1609
ag1
(g1561
g1508
(dp1610
g51
g247
sVY
I8
sg53
I3
sg54
g248
sg55
I9
sg56
I9
sg52
g151
sVX
I6
sg57
g131
sg58
g128
sg59
I0
sg60
g172
stRp1611
ag1
(g1561
g1508
(dp1612
g51
g168
sVY
I2
sg53
I3
sg54
g169
sg55
I4
sg56
I4
sg52
g160
sVX
I3
sg57
g141
sg58
g139
sg59
I0
sg60
g172
stRp1613
ag1
(g1561
g1508
(dp1614
g51
g239
sVY
I3
sg53
I3
sg54
g240
sg55
I6
sg56
I6
sg52
g128
sVX
I3
sg57
g141
sg58
g151
sg59
I0
sg60
g207
stRp1615
ag1
(g1561
g1508
(dp1616
g51
g203
sVY
I2
sg53
I3
sg54
g204
sg55
I3
sg56
I3
sg52
g162
sVX
I8
sg57
g151
sg58
g126
sg59
I0
sg60
g207
stRp1617
ag1
(g1561
g1508
(dp1618
g51
g137
sVY
I3
sg53
I3
sg54
g138
sg55
I7
sg56
I7
sg52
g141
sVX
I6
sg57
g139
sg58
g126
sg59
I0
sg60
g143
stRp1619
ag1
(g1561
g1508
(dp1620
g51
g148
sVY
I3
sg53
I3
sg54
g149
sg55
I1
sg56
I1
sg52
g151
sVX
I3
sg57
g128
sg58
g131
sg59
I0
sg60
g143
stRp1621
ag1
(g1561
g1508
(dp1622
g51
g186
sVY
I6
sg53
I4
sg54
g187
sg55
I8
sg56
I8
sg52
g130
sVX
I6
sg57
g160
sg58
g128
sg59
g131
sg60
g163
stRp1623
ag1
(g1561
g1508
(dp1624
g51
g157
sVY
I9
sg53
I4
sg54
g158
sg55
I8
sg56
I8
sg52
g160
sVX
I3
sg57
g141
sg58
g162
sg59
g130
sg60
g163
stRp1625
ag1
(g1561
g1508
(dp1626
g51
g124
sVY
I2
sg53
I4
sg54
g125
sg55
I8
sg56
I8
sg52
g128
sVX
I3
sg57
g126
sg58
g130
sg59
g131
sg60
g132
stRp1627
ag1
(g1561
g1508
(dp1628
g51
g231
sVY
I3
sg53
I4
sg54
g232
sg55
I2
sg56
I2
sg52
g225
sVX
I2
sg57
g130
sg58
g131
sg59
g160
sg60
g132
stRp1629
ag1
(g1561
g1508
(dp1630
g51
g177
sVY
I7
sg53
I4
sg54
g178
sg55
I8
sg56
I8
sg52
g130
sVX
I6
sg57
g128
sg58
g131
sg59
g160
sg60
g181
stRp1631
ag1
(g1561
g1508
(dp1632
g51
g271
sVY
I9
sg53
I4
sg54
g272
sg55
I1
sg56
I1
sg52
g126
sVX
I9
sg57
g139
sg58
g131
sg59
g130
sg60
g181
stRp1633
ag1
(g1561
g1508
(dp1634
g51
g279
sVY
I3
sg53
I4
sg54
g280
sg55
I6
sg56
I6
sg52
g141
sVX
I9
sg57
g126
sg58
g151
sg59
g139
sg60
g226
stRp1635
ag1
(g1561
g1508
(dp1636
g51
g221
sVY
I4
sg53
I4
sg54
g222
sg55
I6
sg56
I6
sg52
g130
sVX
I2
sg57
g126
sg58
g131
sg59
g225
sg60
g226
stRp1637
asg1574
Nsg1575
I16
sg1576
I18
sg1577
I0
sg1578
I18
sg1579
I01
sbag1
(g1496
g3
NtRp1638
(dp1639
g1499
Nsg1500
(lp1640
sg1502
I150637584
sg10
g1583
sg6
g1504
sg1505
I1
sg24
I01
sg25
g26
sg1506
g1
(g1507
g1508
(dp1641
g22
g1525
(g1526
g1511
g1527
S'b'
tRp1642
(I1
(I18
I1
tg1529
I00
S'\x00\x00\x80?\x00\x00\x80?\x00\x00\x80?\x00\x00\x80?\x00\x00\x00\x00\x00\x00\x80?\x00\x00\x00\x00\x00\x00\x80?\x00\x00\x00\x00\x00\x00\x80?\x00\x00\x00\x00\x00\x00\x00\x00\x00\x00\x00\x00\x00\x00\x00\x00\x00\x00\x00\x00\x00\x00\x80?\x00\x00\x80?\x00\x00\x00\x00'
S'\x00\x00\x00\x00\x00\x00\x00\x00\x00\x00\x00\x00\x00\x00\x00\x00\x00\x00'
Ntbsg19
g1510
(g1511
(I0
tS'b'
tRp1643
(I1
(I18
I1
tg1514
I00
(lp1644
g420
ag437
ag353
ag311
ag454
ag294
ag396
ag370
ag320
ag404
ag361
ag412
ag387
ag429
ag332
ag379
ag446
ag343
atbsg23
g1525
(g1526
g1511
g1527
S'b'
tRp1645
(I1
(I18
I1
tg1529
I00
S"\xeb\xcd\x84@\xb3R\t@`\rE@'p-@\x15\xee\xb5@\x07\x14\x15AH\x87)AHv\xb7@\xa8\xce\xd7@]K\x9a@\x8d\xf6*>\xe9|0A>\xa8\r@cw\x9e?\xfe\x08\x1eA\x8e\xd0\xd9@\x1eU\xdc@\xebv\x87A"
S'\x00\x00\x00\x00\x00\x00\x00\x00\x00\x00\x00\x00\x00\x00\x00\x00\x00\x00'
Ntbsg1524
g1525
(g1526
g1511
g1527
S'b'
tRp1646
(I1
(I18
I1
tg1529
I00
S'\x00\x00\x80?\x00\x00\x80?\x00\x00\x80?\x00\x00\x80?\x00\x00\x80?\x00\x00\x80?\x00\x00\x80?\x00\x00\x80?\x00\x00\x80?\x00\x00\x80?\x00\x00\x80?\x00\x00\x80?\x00\x00\x80?\x00\x00\x80?\x00\x00\x80?\x00\x00\x80?\x00\x00\x80?\x00\x00\x80?'
S'\x00\x00\x00\x00\x00\x00\x00\x00\x00\x00\x00\x00\x00\x00\x00\x00\x00\x00'
Ntbsg21
g1510
(g1511
(I0
tS'b'
tRp1647
(I1
(I18
I1
tg1514
I00
(lp1648
S'7'
aS'2'
aS'8'
aS'6'
aS'6'
aS'8'
aS'1'
aS'5'
aS'2'
aS'5'
aS'6'
aS'3'
aS'4'
aS'6'
aS'6'
aS'8'
aS'3'
aS'4'
atbsg1539
g1525
(g1526
g1511
g1527
S'b'
tRp1649
(I1
(I18
I1
tg1529
I00
S'\x00\x00PA\x00\x00pA\x00\x00\xa0@\x00\x00\x80?\x00\x00\x88A\x00\x00\x00\x00\x00\x00 A\x00\x00\xe0@\x00\x00\x00@\x00\x000A\x00\x00\xc0@\x00\x00@A\x00\x00\x10A\x00\x00`A\x00\x00@@\x00\x00\x00A\x00\x00\x80A\x00\x00\x80@'
S'\x00\x00\x00\x00\x00\x00\x00\x00\x00\x00\x00\x00\x00\x00\x00\x00\x00\x00'
Ntbsg20
g1525
(g1526
g1511
g1527
S'b'
tRp1650
(I1
(I18
I1
tg1529
I00
S'\xf8\x8c9@\xebW\x9c?q\xa6\x9f?*\xc4\x83@"v\x8d@\xad,TA\xa4/\x96@p\xd6\x8c@\xf7;Y@\x8c\x82\xd1@\x16\xa9\xc7@\x86\x10\x0bA\xb4s\x8c@#\xf0v@\xder\xe5@\x15\xd0\x8cA\xac\xe9\xc7@d\xe8q@'
S'\x00\x00\x00\x00\x00\x00\x00\x00\x00\x00\x00\x00\x00\x00\x00\x00\x00\x00'
NtbstRp1651
(dp1652
g1544
(dp1653
g1524
I01
sg21
I00
sg20
I01
sg22
I01
sg19
I00
sg23
I01
sg1539
I01
ssg1546
g1638
sg1547
(lp1654
g1524
ag1539
ag19
ag20
ag21
ag22
ag23
asg1549
(lp1655
I18
aI1
asbsg1551
g1552
sg1553
g1510
(g1511
(I0
tS'b'
tRp1656
(I1
(I18
I1
tg1514
I00
(lp1657
I5
aI3
aI8
aI14
aI17
aI2
aI10
aI7
aI15
aI12
aI6
aI9
aI11
aI0
aI13
aI1
aI16
aI4
atbsg1556
I01
sg1557
I1
sg1558
I-1
sg1559
(lp1658
g1
(g1561
g1508
(dp1659
g287
g418
sVY
I5
sg289
I2
sg290
g419
sg298
I7
sg295
I7
sg296
g334
sVX
I3
sg292
I0
sg300
g301
sg302
I0
sg303
g422
stRp1660
ag1
(g1561
g1508
(dp1661
g287
g435
sVY
I4
sg289
I2
sg290
g436
sg298
I2
sg295
I2
sg296
g334
sVX
I9
sg292
I0
sg300
g439
sg302
I0
sg303
g422
stRp1662
ag1
(g1561
g1508
(dp1663
g287
g351
sVY
I3
sg289
I2
sg290
g352
sg298
I8
sg295
I8
sg296
g331
sVX
I3
sg292
I0
sg300
g334
sg302
I0
sg303
g313
stRp1664
ag1
(g1561
g1508
(dp1665
g287
g309
sVY
I8
sg289
I2
sg290
g310
sg298
I6
sg295
I6
sg296
g301
sVX
I4
sg292
I0
sg300
g293
sg302
I0
sg303
g313
stRp1666
ag1
(g1561
g1508
(dp1667
g287
g452
sVY
I5
sg289
I3
sg290
g453
sg298
I7
sg295
I7
sg296
g323
sVX
I2
sg292
g334
sg300
g301
sg302
I0
sg303
g304
stRp1668
ag1
(g1561
g1508
(dp1669
g287
g288
sVY
I2
sg289
I3
sg290
g291
sg298
I8
sg295
I8
sg296
g297
sVX
I4
sg292
g293
sg300
g301
sg302
I0
sg303
g304
stRp1670
ag1
(g1561
g1508
(dp1671
g287
g394
sVY
I3
sg289
I3
sg290
g395
sg298
I2
sg295
I2
sg296
g345
sVX
I3
sg292
g342
sg300
g323
sg302
I0
sg303
g372
stRp1672
ag1
(g1561
g1508
(dp1673
g287
g368
sVY
I3
sg289
I3
sg290
g369
sg298
I5
sg295
I5
sg296
g301
sVX
I2
sg292
g293
sg300
g342
sg302
I0
sg303
g372
stRp1674
ag1
(g1561
g1508
(dp1675
g287
g318
sVY
I4
sg289
I3
sg290
g319
sg298
I6
sg295
I6
sg296
g321
sVX
I5
sg292
g301
sg300
g323
sg302
I0
sg303
g324
stRp1676
ag1
(g1561
g1508
(dp1677
g287
g402
sVY
I3
sg289
I3
sg290
g403
sg298
I5
sg295
I5
sg296
g342
sVX
I3
sg292
g331
sg300
g293
sg302
I0
sg303
g324
stRp1678
ag1
(g1561
g1508
(dp1679
g287
g359
sVY
I4
sg289
I4
sg290
g360
sg298
I9
sg295
I9
sg296
g334
sVX
I9
sg292
g321
sg300
g301
sg302
g323
sg303
g363
stRp1680
ag1
(g1561
g1508
(dp1681
g287
g410
sVY
I2
sg289
I4
sg290
g411
sg298
I8
sg295
I8
sg296
g297
sVX
I2
sg292
g323
sg300
g301
sg302
g334
sg303
g363
stRp1682
ag1
(g1561
g1508
(dp1683
g287
g385
sVY
I6
sg289
I4
sg290
g386
sg298
I6
sg295
I6
sg296
g301
sVX
I6
sg292
g321
sg300
g334
sg302
g293
sg303
g389
stRp1684
ag1
(g1561
g1508
(dp1685
g287
g427
sVY
I2
sg289
I4
sg290
g428
sg298
I3
sg295
I3
sg296
g345
sVX
I9
sg292
g323
sg300
g334
sg302
g321
sg303
g389
stRp1686
ag1
(g1561
g1508
(dp1687
g287
g329
sVY
I3
sg289
I4
sg290
g330
sg298
I5
sg295
I5
sg296
g323
sVX
I3
sg292
g331
sg300
g334
sg302
g321
sg303
g335
stRp1688
ag1
(g1561
g1508
(dp1689
g287
g377
sVY
I3
sg289
I4
sg290
g378
sg298
I8
sg295
I8
sg296
g297
sVX
I3
sg292
g345
sg300
g334
sg302
g323
sg303
g335
stRp1690
ag1
(g1561
g1508
(dp1691
g287
g444
sVY
I4
sg289
I4
sg290
g445
sg298
I3
sg295
I3
sg296
g293
sVX
I3
sg292
g321
sg300
g342
sg302
g331
sg303
g346
stRp1692
ag1
(g1561
g1508
(dp1693
g287
g340
sVY
I2
sg289
I4
sg290
g341
sg298
I1
sg295
I1
sg296
g293
sVX
I7
sg292
g342
sg300
g321
sg302
g345
sg303
g346
stRp1694
asg1574
Nsg1575
I4
sg1576
I18
sg1577
I0
sg1578
I18
sg1579
I01
sbag1
(g1496
g3
NtRp1695
(dp1696
g1499
Nsg1500
(lp1697
sg1502
I150637584
sg10
g1583
sg6
g1504
sg1505
I1
sg24
I01
sg25
g26
sg1506
g1
(g1507
g1508
(dp1698
g22
g1525
(g1526
g1511
g1527
S'b'
tRp1699
(I1
(I18
I1
tg1529
I00
S'\x00\x00\x80?\x00\x00\x80?\x00\x00\x80?\x00\x00\x80?\x00\x00\x80?\x00\x00\x80?\x00\x00\x80?\x00\x00\x80?\x00\x00\x80?\x00\x00\x80?\x00\x00\x00\x00\x00\x00\x00\x00\x00\x00\x80?\x00\x00\x00\x00\x00\x00\x80?\x00\x00\x00\x00\x00\x00\x00\x00\x00\x00\x80?'
S'\x00\x00\x00\x00\x00\x00\x00\x00\x00\x00\x00\x00\x00\x00\x00\x00\x00\x00'
Ntbsg19
g1510
(g1511
(I0
tS'b'
tRp1700
(I1
(I18
I1
tg1514
I00
(lp1701
g602
ag518
ag508
ag610
ag561
ag579
ag618
ag570
ag587
ag535
ag486
ag527
ag552
aNag544
ag498
ag467
ag626
atbsg23
g1525
(g1526
g1511
g1527
S'b'
tRp1702
(I1
(I18
I1
tg1529
I00
S'\xee\xcaj@\x13\x04&A\xc4\x1bM@\x12f\xec?\xf3\x811A\x1c\xbe\x94Aj<\x92@\x1b,\xe9@h.\xe7@\xe32\x85@\xc211?\x9e\xf9\x17@H\x92JA\x00\x00\x00\x00\x919\xc2@\x84\x80\x85?\x00\x00\x00\x00?\xf38A'
S'\x00\x00\x00\x00\x00\x00\x00\x00\x00\x00\x00\x00\x00\x01\x00\x00\x01\x00'
Ntbsg1524
g1525
(g1526
g1511
g1527
S'b'
tRp1703
(I1
(I18
I1
tg1529
I00
S'\x00\x00\x80?\x00\x00\x80?\x00\x00\x80?\x00\x00\x80?\x00\x00\x80?\x00\x00\x80?\x00\x00\x80?\x00\x00\x80?\x00\x00\x80?\x00\x00\x80?\x00\x00\x80?\x00\x00\x80?\x00\x00\x80?\x00\x00\x80?\x00\x00\x80?\x00\x00\x80?\x00\x00\x80?\x00\x00\x80?'
S'\x00\x00\x00\x00\x00\x00\x00\x00\x00\x00\x00\x00\x00\x00\x00\x00\x00\x00'
Ntbsg21
g1510
(g1511
(I0
tS'b'
tRp1704
(I1
(I18
I1
tg1514
I00
(lp1705
S'1'
aS'4'
aS'9'
aS'6'
aS'6'
aS'7'
aS'8'
aS'2'
aS'1'
aS'9'
aS'6'
aS'6'
aS'1'
aNaS'7'
aS'4'
aNaS'7'
atbsg1539
g1525
(g1526
g1511
g1527
S'b'
tRp1706
(I1
(I18
I1
tg1529
I00
S'\x00\x00`A\x00\x00\x80@\x00\x00@@\x00\x00pA\x00\x00\x10A\x00\x000A\x00\x00\x80A\x00\x00 A\x00\x00@A\x00\x00\xc0@\x00\x00\x80?\x00\x00\xa0@\x00\x00\x00A\x00\x00PA\x00\x00\xe0@\x00\x00\x00@\x00\x00\x00\x00\x00\x00\x88A'
S'\x00\x00\x00\x00\x00\x00\x00\x00\x00\x00\x00\x00\x00\x00\x00\x00\x00\x00'
Ntbsg20
g1525
(g1526
g1511
g1527
S'b'
tRp1707
(I1
(I18
I1
tg1529
I00
S'`\xaaF@lO\x05@\xfd\x82\xa2?\xf9\x84\xfe?\xf0\xbc\xd5?\x0f\x9f\xd2@\xec\x99\x12@\x027\tAh.\xed@2\xaf\x10A?I\x17@q\x9d\xbd@\xf530A\x00\x00\x00\x00\xd3z1A\xca\x06\xfc@\x95JTA\x117\xdb@'
S'\x00\x00\x00\x00\x00\x00\x00\x00\x00\x00\x00\x00\x00\x01\x00\x00\x00\x00'
NtbstRp1708
(dp1709
g1544
(dp1710
g1524
I01
sg21
I00
sg20
I01
sg22
I01
sg19
I00
sg23
I01
sg1539
I01
ssg1546
g1695
sg1547
(lp1711
g1524
ag1539
ag19
ag20
ag21
ag22
ag23
asg1549
(lp1712
I18
aI1
asbsg1551
g1552
sg1553
g1510
(g1511
(I0
tS'b'
tRp1713
(I1
(I18
I1
tg1514
I00
(lp1714
I16
aI10
aI15
aI2
aI1
aI11
aI9
aI14
aI12
aI4
aI7
aI5
aI8
aI13
aI0
aI3
aI6
aI17
atbsg1556
I01
sg1557
I1
sg1558
I-1
sg1559
(lp1715
g1
(g1561
g1508
(dp1716
g460
g600
sVY
I2
sg462
I2
sg463
g601
sg471
I1
sg468
I1
sg469
g485
sVX
I9
sg465
I0
sg473
g497
sg475
I0
sg477
g520
stRp1717
ag1
(g1561
g1508
(dp1718
g460
g516
sVY
I4
sg462
I2
sg463
g517
sg471
I4
sg468
I4
sg469
g485
sVX
I3
sg465
I0
sg473
g509
sg475
I0
sg477
g520
stRp1719
ag1
(g1561
g1508
(dp1720
g460
g506
sVY
I4
sg462
I2
sg463
g507
sg471
I9
sg468
I9
sg469
g509
sVX
I2
sg465
I0
sg473
g499
sg475
I0
sg477
g511
stRp1721
ag1
(g1561
g1508
(dp1722
g460
g608
sVY
I6
sg462
I2
sg463
g609
sg471
I6
sg468
I6
sg469
g497
sVX
I8
sg465
I0
sg473
g466
sg475
I0
sg477
g511
stRp1723
ag1
(g1561
g1508
(dp1724
g460
g559
sVY
I4
sg462
I3
sg463
g560
sg471
I6
sg468
I6
sg469
g474
sVX
I6
sg465
g470
sg473
g476
sg475
I0
sg477
g563
stRp1725
ag1
(g1561
g1508
(dp1726
g460
g577
sVY
I9
sg462
I3
sg463
g578
sg471
I7
sg468
I7
sg469
g489
sVX
I9
sg465
g474
sg473
g497
sg475
I0
sg477
g563
stRp1727
ag1
(g1561
g1508
(dp1728
g460
g616
sVY
I4
sg462
I3
sg463
g617
sg471
I8
sg468
I8
sg469
g509
sVX
I3
sg465
g485
sg473
g489
sg475
I0
sg477
g572
stRp1729
ag1
(g1561
g1508
(dp1730
g460
g568
sVY
I2
sg462
I3
sg463
g569
sg471
I2
sg468
I2
sg469
g488
sVX
I4
sg465
g470
sg473
g499
sg475
I0
sg477
g572
stRp1731
ag1
(g1561
g1508
(dp1732
g460
g585
sVY
I2
sg462
I3
sg463
g586
sg471
I1
sg468
I1
sg469
g470
sVX
I8
sg465
g488
sg473
g474
sg475
I0
sg477
g537
stRp1733
ag1
(g1561
g1508
(dp1734
g460
g533
sVY
I3
sg462
I3
sg463
g534
sg471
I9
sg468
I9
sg469
g470
sVX
I2
sg465
g509
sg473
g466
sg475
I0
sg477
g537
stRp1735
ag1
(g1561
g1508
(dp1736
g460
g483
sVY
I3
sg462
I4
sg463
g484
sg471
I1
sg468
I1
sg469
g474
sVX
I6
sg465
g485
sg473
g488
sg475
g489
sg477
g490
stRp1737
ag1
(g1561
g1508
(dp1738
g460
g525
sVY
I2
sg462
I4
sg463
g526
sg471
I2
sg468
I2
sg469
g474
sVX
I3
sg465
g485
sg473
g509
sg475
g489
sg477
g490
stRp1739
ag1
(g1561
g1508
(dp1740
g460
g550
sVY
I9
sg462
I4
sg463
g551
sg471
I1
sg468
I1
sg469
g488
sVX
I3
sg465
g466
sg473
g474
sg475
g489
sg477
g554
stRp1741
ag1
(g1561
g1508
(dp1742
g460
g593
sVY
I3
sg462
I4
sg463
g594
sg471
I3
sg468
I3
sg469
g497
sVX
I6
sg465
g499
sg473
g466
sg475
g470
sg477
g554
stRp1743
ag1
(g1561
g1508
(dp1744
g460
g542
sVY
I2
sg462
I4
sg463
g543
sg471
I7
sg468
I7
sg469
g470
sVX
I2
sg465
g509
sg473
g499
sg475
g466
sg477
g501
stRp1745
ag1
(g1561
g1508
(dp1746
g460
g495
sVY
I2
sg462
I4
sg463
g496
sg471
I1
sg468
I1
sg469
g499
sVX
I8
sg465
g497
sg473
g485
sg475
g470
sg477
g501
stRp1747
ag1
(g1561
g1508
(dp1748
g460
g461
sVY
I2
sg462
I4
sg463
g464
sg471
I5
sg468
I5
sg469
g470
sVX
I2
sg465
g466
sg473
g474
sg475
g476
sg477
g478
stRp1749
ag1
(g1561
g1508
(dp1750
g460
g624
sVY
I2
sg462
I4
sg463
g625
sg471
I7
sg468
I7
sg469
g466
sVX
I2
sg465
g470
sg473
g499
sg475
g476
sg477
g478
stRp1751
asg1574
Nsg1575
I17
sg1576
I18
sg1577
I0
sg1578
I18
sg1579
I01
sbag1
(g1496
g3
NtRp1752
(dp1753
g1499
Nsg1500
(lp1754
sg1502
I150637584
sg10
g1583
sg6
g1504
sg1505
I1
sg24
I01
sg25
g26
sg1506
g1
(g1507
g1508
(dp1755
g22
g1525
(g1526
g1511
g1527
S'b'
tRp1756
(I1
(I18
I1
tg1529
I00
S'\x00\x00\x80?\x00\x00\x80?\x00\x00\x80?\x00\x00\x80?\x00\x00\x80?\x00\x00\x80?\x00\x00\x80?\x00\x00\x80?\x00\x00\x00\x00\x00\x00\x80?\x00\x00\x80?\x00\x00\x00\x00\x00\x00\x00\x00\x00\x00\x80?\x00\x00\x80?\x00\x00\x80?\x00\x00\x80?\x00\x00\x80?'
S'\x00\x00\x00\x00\x00\x00\x00\x00\x00\x00\x00\x00\x00\x00\x00\x00\x00\x00'
Ntbsg19
g1510
(g1511
(I0
tS'b'
tRp1757
(I1
(I18
I1
tg1514
I00
(lp1758
g758
ag775
ag723
ag767
ag714
ag799
ag750
ag741
ag732
ag791
ag639
ag706
ag668
ag698
ag783
ag689
ag679
ag657
atbsg23
g1525
(g1526
g1511
g1527
S'b'
tRp1759
(I1
(I18
I1
tg1529
I00
S'\x0exR@q\xf7\xfe?\x98\xb6\xaf@\xec\xa1\x07@X\xb2\xf0@\xe2n\xa3@\xf3\xa0\x8e@\xdd\xd3\x14A[\xda\x81A\xfb\xc8\xae@\xbae\xf5@\x97\x8aiA\x00\x00\x00\x00\x93\xd84At\xb6\x81A\xdc\x08\xa3@/\x18?AA\xa6oA'
S'\x00\x00\x00\x00\x00\x00\x00\x00\x00\x00\x00\x00\x01\x00\x00\x00\x00\x00'
Ntbsg1524
g1525
(g1526
g1511
g1527
S'b'
tRp1760
(I1
(I18
I1
tg1529
I00
S'\x00\x00\x80?\x00\x00\x80?\x00\x00\x80?\x00\x00\x80?\x00\x00\x80?\x00\x00\x80?\x00\x00\x80?\x00\x00\x80?\x00\x00\x80?\x00\x00\x80?\x00\x00\x80?\x00\x00\x80?\x00\x00\x80?\x00\x00\x80?\x00\x00\x80?\x00\x00\x80?\x00\x00\x80?\x00\x00\x80?'
S'\x00\x00\x00\x00\x00\x00\x00\x00\x00\x00\x00\x00\x00\x00\x00\x00\x00\x00'
Ntbsg21
g1510
(g1511
(I0
tS'b'
tRp1761
(I1
(I18
I1
tg1514
I00
(lp1762
S'4'
aS'6'
aS'3'
aS'1'
aS'9'
aS'5'
aS'5'
aS'5'
aS'2'
aS'3'
aS'3'
aS'6'
aNaS'3'
aS'8'
aS'6'
aS'1'
aS'6'
atbsg1539
g1525
(g1526
g1511
g1527
S'b'
tRp1763
(I1
(I18
I1
tg1529
I00
S'\x00\x00@A\x00\x00`A\x00\x00\x00A\x00\x00PA\x00\x00\xe0@\x00\x00\x88A\x00\x000A\x00\x00 A\x00\x00\x10A\x00\x00\x80A\x00\x00\x00\x00\x00\x00\xc0@\x00\x00\x00@\x00\x00\xa0@\x00\x00pA\x00\x00\x80@\x00\x00@@\x00\x00\x80?'
S'\x00\x00\x00\x00\x00\x00\x00\x00\x00\x00\x00\x00\x00\x00\x00\x00\x00\x00'
Ntbsg20
g1525
(g1526
g1511
g1527
S'b'
tRp1764
(I1
(I18
I1
tg1529
I00
S'n\x8f\xeb?\x1cb\xc5?\x10\xda\xdf?\xdeD\xa0?\xc2\xee\xe9?\x96O+@\xf0\xb9\x10@\xf9{\r@==+@\x83\xa4\xa9@\xa3k\x12A\xe0\xa7\x11A\xfb\xbfo@\x8eRlA\xe2\xd4E@\xcd%\x19A\x02\x02EA\xf1\xa3\xfb@'
S'\x00\x00\x00\x00\x00\x00\x00\x00\x00\x00\x00\x00\x00\x00\x00\x00\x00\x00'
NtbstRp1765
(dp1766
g1544
(dp1767
g1524
I01
sg21
I00
sg20
I01
sg22
I01
sg19
I00
sg23
I01
sg1539
I01
ssg1546
g1752
sg1547
(lp1768
g1524
ag1539
ag19
ag20
ag21
ag22
ag23
asg1549
(lp1769
I18
aI1
asbsg1551
g1552
sg1553
g1510
(g1511
(I0
tS'b'
tRp1770
(I1
(I18
I1
tg1514
I00
(lp1771
I10
aI17
aI12
aI16
aI15
aI13
aI11
aI4
aI2
aI8
aI7
aI6
aI0
aI3
aI1
aI14
aI9
aI5
atbsg1556
I01
sg1557
I1
sg1558
I-1
sg1559
(lp1772
g1
(g1561
g1508
(dp1773
g632
g756
sVY
I2
sg634
I2
sg635
g757
sg643
I4
sg640
I4
sg641
g658
sVX
I3
sg637
I0
sg645
g660
sg647
I0
sg649
g760
stRp1774
ag1
(g1561
g1508
(dp1775
g632
g773
sVY
I2
sg634
I2
sg635
g774
sg643
I6
sg640
I6
sg641
g638
sVX
I2
sg637
I0
sg645
g660
sg647
I0
sg649
g760
stRp1776
ag1
(g1561
g1508
(dp1777
g632
g721
sVY
I5
sg634
I2
sg635
g722
sg643
I3
sg640
I3
sg641
g688
sVX
I4
sg637
I0
sg645
g681
sg647
I0
sg649
g725
stRp1778
ag1
(g1561
g1508
(dp1779
g632
g765
sVY
I2
sg634
I2
sg635
g766
sg643
I1
sg640
I1
sg641
g646
sVX
I5
sg637
I0
sg645
g681
sg647
I0
sg649
g725
stRp1780
ag1
(g1561
g1508
(dp1781
g632
g712
sVY
I3
sg634
I3
sg635
g713
sg643
I9
sg640
I9
sg641
g658
sVX
I8
sg637
g642
sg645
g660
sg647
I0
sg649
g716
stRp1782
ag1
(g1561
g1508
(dp1783
g632
g797
sVY
I5
sg634
I3
sg635
g798
sg643
I5
sg640
I5
sg641
g681
sVX
I6
sg637
g642
sg645
g660
sg647
I0
sg649
g716
stRp1784
ag1
(g1561
g1508
(dp1785
g632
g748
sVY
I7
sg634
I3
sg635
g749
sg643
I5
sg640
I5
sg641
g688
sVX
I7
sg637
g638
sg645
g681
sg647
I0
sg649
g743
stRp1786
ag1
(g1561
g1508
(dp1787
g632
g739
sVY
I5
sg634
I3
sg635
g740
sg643
I5
sg640
I5
sg641
g660
sVX
I4
sg637
g658
sg645
g681
sg647
I0
sg649
g743
stRp1788
ag1
(g1561
g1508
(dp1789
g632
g730
sVY
I5
sg634
I3
sg635
g731
sg643
I8
sg640
I8
sg641
g658
sVX
I5
sg637
g660
sg645
g681
sg647
I0
sg649
g734
stRp1790
ag1
(g1561
g1508
(dp1791
g632
g789
sVY
I2
sg634
I3
sg635
g790
sg643
I3
sg640
I3
sg641
g642
sVX
I4
sg637
g669
sg645
g648
sg647
I0
sg649
g734
stRp1792
ag1
(g1561
g1508
(dp1793
g632
g633
sVY
I5
sg634
I4
sg635
g636
sg643
I3
sg640
I3
sg641
g642
sVX
I5
sg637
g638
sg645
g646
sg647
g648
sg649
g650
stRp1794
ag1
(g1561
g1508
(dp1795
g632
g704
sVY
I3
sg634
I4
sg635
g705
sg643
I9
sg640
I9
sg641
g638
sVX
I3
sg637
g681
sg645
g660
sg647
g671
sg649
g650
stRp1796
ag1
(g1561
g1508
(dp1797
g632
g666
sVY
I6
sg634
I4
sg635
g667
sg643
I4
sg640
I4
sg641
g669
sVX
I3
sg637
g648
sg645
g638
sg647
g671
sg649
g672
stRp1798
ag1
(g1561
g1508
(dp1799
g632
g696
sVY
I3
sg634
I4
sg635
g697
sg643
I3
sg640
I3
sg641
g646
sVX
I3
sg637
g671
sg645
g648
sg647
g658
sg649
g672
stRp1800
ag1
(g1561
g1508
(dp1801
g632
g781
sVY
I2
sg634
I4
sg635
g782
sg643
I8
sg640
I8
sg641
g671
sVX
I9
sg637
g688
sg645
g681
sg647
g638
sg649
g691
stRp1802
ag1
(g1561
g1508
(dp1803
g632
g686
sVY
I3
sg634
I4
sg635
g687
sg643
I6
sg640
I6
sg641
g642
sVX
I2
sg637
g688
sg645
g648
sg647
g658
sg649
g691
stRp1804
ag1
(g1561
g1508
(dp1805
g632
g677
sVY
I2
sg634
I4
sg635
g678
sg643
I1
sg640
I1
sg641
g638
sVX
I8
sg637
g642
sg645
g681
sg647
g669
sg649
g661
stRp1806
ag1
(g1561
g1508
(dp1807
g632
g655
sVY
I2
sg634
I4
sg635
g656
sg643
I6
sg640
I6
sg641
g658
sVX
I3
sg637
g642
sg645
g648
sg647
g660
sg649
g661
stRp1808
asg1574
Nsg1575
I5
sg1576
I18
sg1577
I0
sg1578
I18
sg1579
I01
sbag1
(g1496
g3
NtRp1809
(dp1810
g1499
Nsg1500
(lp1811
sg1502
I150637584
sg10
g1583
sg6
g1504
sg1505
I1
sg24
I01
sg25
g26
sg1506
g1
(g1507
g1508
(dp1812
g22
g1525
(g1526
g1511
g1527
S'b'
tRp1813
(I1
(I18
I1
tg1529
I00
S'\x00\x00\x80?\x00\x00\x80?\x00\x00\x80?\x00\x00\x80?\x00\x00\x80?\x00\x00\x80?\x00\x00\x80?\x00\x00\x80?\x00\x00\x80?\x00\x00\x80?\x00\x00\x80?\x00\x00\x80?\x00\x00\x80?\x00\x00\x80?\x00\x00\x00\x00\x00\x00\x80?\x00\x00\x80?\x00\x00\x80?'
S'\x00\x00\x00\x00\x00\x00\x00\x00\x00\x00\x00\x00\x00\x00\x00\x00\x00\x00'
Ntbsg19
g1510
(g1511
(I0
tS'b'
tRp1814
(I1
(I18
I1
tg1514
I00
(lp1815
g972
ag955
ag964
ag946
ag913
ag930
ag861
ag897
ag852
ag922
ag880
ag889
ag812
ag842
ag905
ag831
ag871
ag938
atbsg23
g1525
(g1526
g1511
g1527
S'b'
tRp1816
(I1
(I18
I1
tg1529
I00
S'\x10\xd1\xe1?)\x12\xec?\x06z\xa7@\xc6Q\x97@\xd5)!@\x91YWA\x8b\x9a\x90@~<\xec@\xaf\x97Z@\\\x82V@\xa6C\x86A\x06\xf3\xb9@4\xc8fA\x8b1\xab@\x00\x00\x00\x001\xe2\x0bA\x80\x185A\x93.\x04A'
S'\x00\x00\x00\x00\x00\x00\x00\x00\x00\x00\x00\x00\x00\x00\x01\x00\x00\x00'
Ntbsg1524
g1525
(g1526
g1511
g1527
S'b'
tRp1817
(I1
(I18
I1
tg1529
I00
S'\x00\x00\x80?\x00\x00\x80?\x00\x00\x80?\x00\x00\x80?\x00\x00\x80?\x00\x00\x80?\x00\x00\x80?\x00\x00\x80?\x00\x00\x80?\x00\x00\x80?\x00\x00\x80?\x00\x00\x80?\x00\x00\x80?\x00\x00\x80?\x00\x00\x80?\x00\x00\x80?\x00\x00\x80?\x00\x00\x80?'
S'\x00\x00\x00\x00\x00\x00\x00\x00\x00\x00\x00\x00\x00\x00\x00\x00\x00\x00'
Ntbsg21
g1510
(g1511
(I0
tS'b'
tRp1818
(I1
(I18
I1
tg1514
I00
(lp1819
S'7'
aS'2'
aS'8'
aS'8'
aS'4'
aS'4'
aS'9'
aS'2'
aS'5'
aS'1'
aS'2'
aS'8'
aS'3'
aS'4'
aNaS'6'
aS'8'
aS'3'
atbsg1539
g1525
(g1526
g1511
g1527
S'b'
tRp1820
(I1
(I18
I1
tg1529
I00
S'\x00\x00\x88A\x00\x00pA\x00\x00\x80A\x00\x00`A\x00\x00 A\x00\x00@A\x00\x00\x80@\x00\x00\x00A\x00\x00@@\x00\x000A\x00\x00\xc0@\x00\x00\xe0@\x00\x00\x00\x00\x00\x00\x00@\x00\x00\x10A\x00\x00\x80?\x00\x00\xa0@\x00\x00PA'
S'\x00\x00\x00\x00\x00\x00\x00\x00\x00\x00\x00\x00\x00\x00\x00\x00\x00\x00'
Ntbsg20
g1525
(g1526
g1511
g1527
S'b'
tRp1821
(I1
(I18
I1
tg1529
I00
S'\xeb\x1d\xb7?\x15U\x9a?m\xf0\x8b?\xf6\x8c\x8d?\xab\xd0\x95=P\xd4\x93?\xa4k\x10@iY$@u\xd7\x18@g{\xcf?IG\x08A2\xe3\xf5@\xc6\xb9\xfd@>\xe7\xb4@\x07\xc2w@%t`@\x1c\x08\xd4@\x0ee\xdb@'
S'\x00\x00\x00\x00\x00\x00\x00\x00\x00\x00\x00\x00\x00\x00\x00\x00\x00\x00'
NtbstRp1822
(dp1823
g1544
(dp1824
g1524
I01
sg21
I00
sg20
I01
sg22
I01
sg19
I00
sg23
I01
sg1539
I01
ssg1546
g1809
sg1547
(lp1825
g1524
ag1539
ag19
ag20
ag21
ag22
ag23
asg1549
(lp1826
I18
aI1
asbsg1551
g1552
sg1553
g1510
(g1511
(I0
tS'b'
tRp1827
(I1
(I18
I1
tg1514
I00
(lp1828
I12
aI15
aI13
aI8
aI6
aI16
aI10
aI11
aI7
aI14
aI4
aI9
aI5
aI17
aI3
aI1
aI2
aI0
atbsg1556
I01
sg1557
I1
sg1558
I-1
sg1559
(lp1829
g1
(g1561
g1508
(dp1830
g805
g970
sVY
I6
sg807
I2
sg808
g971
sg816
I7
sg813
I7
sg814
g845
sVX
I3
sg810
I0
sg818
g862
sg820
I0
sg822
g957
stRp1831
ag1
(g1561
g1508
(dp1832
g805
g953
sVY
I4
sg807
I2
sg808
g954
sg816
I2
sg813
I2
sg814
g819
sVX
I5
sg810
I0
sg818
g830
sg820
I0
sg822
g957
stRp1833
ag1
(g1561
g1508
(dp1834
g805
g962
sVY
I2
sg807
I2
sg808
g963
sg816
I8
sg813
I8
sg814
g862
sVX
I2
sg810
I0
sg818
g832
sg820
I0
sg822
g948
stRp1835
ag1
(g1561
g1508
(dp1836
g805
g944
sVY
I2
sg807
I2
sg808
g945
sg816
I8
sg813
I8
sg814
g843
sVX
I2
sg810
I0
sg818
g832
sg820
I0
sg822
g948
stRp1837
ag1
(g1561
g1508
(dp1838
g805
g911
sVY
I3
sg807
I3
sg808
g912
sg816
I4
sg813
I4
sg814
g811
sVX
I8
sg810
g821
sg818
g815
sg820
I0
sg822
g915
stRp1839
ag1
(g1561
g1508
(dp1840
g805
g928
sVY
I2
sg807
I3
sg808
g929
sg816
I4
sg813
I4
sg814
g845
sVX
I3
sg810
g832
sg818
g843
sg820
I0
sg822
g915
stRp1841
ag1
(g1561
g1508
(dp1842
g805
g859
sVY
I2
sg807
I3
sg808
g860
sg816
I9
sg813
I9
sg814
g862
sVX
I2
sg810
g811
sg818
g819
sg820
I0
sg822
g864
stRp1843
ag1
(g1561
g1508
(dp1844
g805
g895
sVY
I2
sg807
I3
sg808
g896
sg816
I2
sg813
I2
sg814
g830
sVX
I9
sg810
g845
sg818
g819
sg820
I0
sg822
g864
stRp1845
ag1
(g1561
g1508
(dp1846
g805
g850
sVY
I4
sg807
I3
sg808
g851
sg816
I5
sg813
I5
sg814
g811
sVX
I8
sg810
g815
sg818
g834
sg820
I0
sg822
g854
stRp1847
ag1
(g1561
g1508
(dp1848
g805
g920
sVY
I6
sg807
I3
sg808
g921
sg816
I1
sg813
I1
sg814
g819
sVX
I8
sg810
g830
sg818
g845
sg820
I0
sg822
g854
stRp1849
ag1
(g1561
g1508
(dp1850
g805
g878
sVY
I3
sg807
I4
sg808
g879
sg816
I2
sg813
I2
sg814
g832
sVX
I6
sg810
g819
sg818
g815
sg820
g845
sg822
g882
stRp1851
ag1
(g1561
g1508
(dp1852
g805
g887
sVY
I2
sg807
I4
sg808
g888
sg816
I8
sg813
I8
sg814
g819
sVX
I2
sg810
g821
sg818
g843
sg820
g811
sg822
g882
stRp1853
ag1
(g1561
g1508
(dp1854
g805
g806
sVY
I3
sg807
I4
sg808
g809
sg816
I3
sg813
I3
sg814
g815
sVX
I4
sg810
g811
sg818
g819
sg820
g821
sg822
g823
stRp1855
ag1
(g1561
g1508
(dp1856
g805
g840
sVY
I3
sg807
I4
sg808
g841
sg816
I4
sg813
I4
sg814
g843
sVX
I7
sg810
g821
sg818
g845
sg820
g819
sg822
g823
stRp1857
ag1
(g1561
g1508
(dp1858
g805
g903
sVY
I4
sg807
I4
sg808
g904
sg816
I7
sg813
I7
sg814
g819
sVX
I8
sg810
g862
sg818
g845
sg820
g832
sg822
g835
stRp1859
ag1
(g1561
g1508
(dp1860
g805
g828
sVY
I3
sg807
I4
sg808
g829
sg816
I6
sg813
I6
sg814
g832
sVX
I5
sg810
g830
sg818
g811
sg820
g834
sg822
g835
stRp1861
ag1
(g1561
g1508
(dp1862
g805
g869
sVY
I2
sg807
I4
sg808
g870
sg816
I8
sg813
I8
sg814
g811
sVX
I4
sg810
g821
sg818
g834
sg820
g862
sg822
g873
stRp1863
ag1
(g1561
g1508
(dp1864
g805
g936
sVY
I5
sg807
I4
sg808
g937
sg816
I3
sg813
I3
sg814
g834
sVX
I9
sg810
g821
sg818
g811
sg820
g830
sg822
g873
stRp1865
asg1574
Nsg1575
I0
sg1576
I18
sg1577
I0
sg1578
I18
sg1579
I01
sbag1
(g1496
g3
NtRp1866
(dp1867
g1499
Nsg1500
(lp1868
sg1502
I150637584
sg10
g1583
sg6
g1504
sg1505
I1
sg24
I01
sg25
g26
sg1506
g1
(g1507
g1508
(dp1869
g22
g1525
(g1526
g1511
g1527
S'b'
tRp1870
(I1
(I18
I1
tg1529
I00
S'\x00\x00\x80?\x00\x00\x80?\x00\x00\x80?\x00\x00\x80?\x00\x00\x80?\x00\x00\x80?\x00\x00\x80?\x00\x00\x80?\x00\x00\x80?\x00\x00\x80?\x00\x00\x80?\x00\x00\x80?\x00\x00\x80?\x00\x00\x80?\x00\x00\x80?\x00\x00\x80?\x00\x00\x80?\x00\x00\x80?'
S'\x00\x00\x00\x00\x00\x00\x00\x00\x00\x00\x00\x00\x00\x00\x00\x00\x00\x00'
Ntbsg19
g1510
(g1511
(I0
tS'b'
tRp1871
(I1
(I18
I1
tg1514
I00
(lp1872
g1079
ag1070
ag1113
ag1146
ag1004
ag1130
ag1052
ag1034
ag1087
ag1138
ag1043
ag1013
ag1023
ag1061
ag1122
ag1104
ag1096
ag985
atbsg23
g1525
(g1526
g1511
g1527
S'b'
tRp1873
(I1
(I18
I1
tg1529
I00
S'\xf4&K@\x98QS@5]\xd5?\x89,\x81@LL\x8aA\xd8H\x99@K\xa6\xad@\xdb\x18\xbf@\xf7\x0ez@X\x1b\xab@|\xdf\xae@\x86\x01\xbb@T\xef\rAQ\x14\xe9@\xe7\x85\xcd@o\xf1\x06Aw\xd3\xc4@\xd2\t(A'
S'\x00\x00\x00\x00\x00\x00\x00\x00\x00\x00\x00\x00\x00\x00\x00\x00\x00\x00'
Ntbsg1524
g1525
(g1526
g1511
g1527
S'b'
tRp1874
(I1
(I18
I1
tg1529
I00
S'\x00\x00\x80?\x00\x00\x80?\x00\x00\x80?\x00\x00\x80?\x00\x00\x80?\x00\x00\x80?\x00\x00\x80?\x00\x00\x80?\x00\x00\x80?\x00\x00\x80?\x00\x00\x80?\x00\x00\x80?\x00\x00\x80?\x00\x00\x80?\x00\x00\x80?\x00\x00\x80?\x00\x00\x80?\x00\x00\x80?'
S'\x00\x00\x00\x00\x00\x00\x00\x00\x00\x00\x00\x00\x00\x00\x00\x00\x00\x00'
Ntbsg21
g1510
(g1511
(I0
tS'b'
tRp1875
(I1
(I18
I1
tg1514
I00
(lp1876
S'8'
aS'2'
aS'2'
aS'8'
aS'1'
aS'2'
aS'1'
aS'2'
aS'8'
aS'6'
aS'7'
aS'1'
aS'9'
aS'7'
aS'3'
aS'6'
aS'5'
aS'4'
atbsg1539
g1525
(g1526
g1511
g1527
S'b'
tRp1877
(I1
(I18
I1
tg1529
I00
S'\x00\x00\x10A\x00\x00\x00A\x00\x00PA\x00\x00\x88A\x00\x00\x80?\x00\x00pA\x00\x00\xc0@\x00\x00\x80@\x00\x00 A\x00\x00\x80A\x00\x00\xa0@\x00\x00\x00@\x00\x00@@\x00\x00\xe0@\x00\x00`A\x00\x00@A\x00\x000A\x00\x00\x00\x00'
S'\x00\x00\x00\x00\x00\x00\x00\x00\x00\x00\x00\x00\x00\x00\x00\x00\x00\x00'
Ntbsg20
g1525
(g1526
g1511
g1527
S'b'
tRp1878
(I1
(I18
I1
tg1529
I00
S'\x9aT\x89?qz\xd1?A\xd5\xb2?\xc3\xcd\x97?>9z@\x0c\xfc\x19@R\xf6\xfb@\x17}\x04@\x8b\xea>@\xd5\x96\x05@\x1d&\xd4@\x89\xab\xec@\xf2H\x9b@\r\x13\xfc@S2}@f\x0f\xe7@\xc4\x18\x01A6J9A'
S'\x00\x00\x00\x00\x00\x00\x00\x00\x00\x00\x00\x00\x00\x00\x00\x00\x00\x00'
NtbstRp1879
(dp1880
g1544
(dp1881
g1524
I01
sg21
I00
sg20
I01
sg22
I01
sg19
I00
sg23
I01
sg1539
I01
ssg1546
g1866
sg1547
(lp1882
g1524
ag1539
ag19
ag20
ag21
ag22
ag23
asg1549
(lp1883
I18
aI1
asbsg1551
g1552
sg1553
g1510
(g1511
(I0
tS'b'
tRp1884
(I1
(I18
I1
tg1514
I00
(lp1885
I17
aI4
aI11
aI12
aI7
aI10
aI6
aI13
aI1
aI0
aI8
aI16
aI15
aI2
aI14
aI5
aI9
aI3
atbsg1556
I01
sg1557
I1
sg1558
I-1
sg1559
(lp1886
g1
(g1561
g1508
(dp1887
g978
g1077
sVY
I4
sg980
I2
sg981
g1078
sg989
I8
sg986
I8
sg987
g992
sVX
I2
sg983
I0
sg991
g1024
sg993
I0
sg995
g1072
stRp1888
ag1
(g1561
g1508
(dp1889
g978
g1068
sVY
I6
sg980
I2
sg981
g1069
sg989
I2
sg986
I2
sg987
g992
sVX
I6
sg983
I0
sg991
g994
sg993
I0
sg995
g1072
stRp1890
ag1
(g1561
g1508
(dp1891
g978
g1111
sVY
I7
sg980
I2
sg981
g1112
sg989
I2
sg986
I2
sg987
g1053
sVX
I8
sg983
I0
sg991
g992
sg993
I0
sg995
g1115
stRp1892
ag1
(g1561
g1508
(dp1893
g978
g1144
sVY
I4
sg980
I2
sg981
g1145
sg989
I8
sg986
I8
sg987
g1062
sVX
I4
sg983
I0
sg991
g1045
sg993
I0
sg995
g1115
stRp1894
ag1
(g1561
g1508
(dp1895
g978
g1001
sVY
I4
sg980
I3
sg981
g1002
sg989
I1
sg986
I1
sg987
g992
sVX
I6
sg983
g1003
sg991
g994
sg993
I0
sg995
g1006
stRp1896
ag1
(g1561
g1508
(dp1897
g978
g1128
sVY
I4
sg980
I3
sg981
g1129
sg989
I2
sg986
I2
sg987
g1045
sVX
I4
sg983
g984
sg991
g1053
sg993
I0
sg995
g1006
stRp1898
ag1
(g1561
g1508
(dp1899
g978
g1050
sVY
I7
sg980
I3
sg981
g1051
sg989
I1
sg986
I1
sg987
g1053
sVX
I3
sg983
g984
sg991
g1045
sg993
I0
sg995
g1036
stRp1900
ag1
(g1561
g1508
(dp1901
g978
g1032
sVY
I3
sg980
I3
sg981
g1033
sg989
I2
sg986
I2
sg987
g994
sVX
I9
sg983
g1003
sg991
g1014
sg993
I0
sg995
g1036
stRp1902
ag1
(g1561
g1508
(dp1903
g978
g1085
sVY
I2
sg980
I3
sg981
g1086
sg989
I8
sg986
I8
sg987
g988
sVX
I7
sg983
g1053
sg991
g992
sg993
I0
sg995
g1089
stRp1904
ag1
(g1561
g1508
(dp1905
g978
g1136
sVY
I3
sg980
I3
sg981
g1137
sg989
I6
sg986
I6
sg987
g984
sVX
I4
sg983
g1053
sg991
g992
sg993
I0
sg995
g1089
stRp1906
ag1
(g1561
g1508
(dp1907
g978
g1041
sVY
I6
sg980
I4
sg981
g1042
sg989
I7
sg986
I7
sg987
g1003
sVX
I4
sg983
g1014
sg991
g1024
sg993
g1045
sg995
g1016
stRp1908
ag1
(g1561
g1508
(dp1909
g978
g1011
sVY
I5
sg980
I4
sg981
g1012
sg989
I1
sg986
I1
sg987
g1014
sVX
I6
sg983
g992
sg991
g994
sg993
g1003
sg995
g1016
stRp1910
ag1
(g1561
g1508
(dp1911
g978
g1021
sVY
I4
sg980
I4
sg981
g1022
sg989
I9
sg986
I9
sg987
g1024
sVX
I9
sg983
g992
sg991
g1026
sg993
g1003
sg995
g1027
stRp1912
ag1
(g1561
g1508
(dp1913
g978
g1059
sVY
I4
sg980
I4
sg981
g1060
sg989
I7
sg986
I7
sg987
g1062
sVX
I3
sg983
g992
sg991
g988
sg993
g1003
sg995
g1027
stRp1914
ag1
(g1561
g1508
(dp1915
g978
g1120
sVY
I6
sg980
I4
sg981
g1121
sg989
I3
sg986
I3
sg987
g1003
sVX
I4
sg983
g1062
sg991
g988
sg993
g1045
sg995
g1106
stRp1916
ag1
(g1561
g1508
(dp1917
g978
g1102
sVY
I8
sg980
I4
sg981
g1103
sg989
I6
sg986
I6
sg987
g984
sVX
I9
sg983
g994
sg991
g992
sg993
g988
sg995
g1106
stRp1918
ag1
(g1561
g1508
(dp1919
g978
g1094
sVY
I2
sg980
I4
sg981
g1095
sg989
I5
sg986
I5
sg987
g1045
sVX
I8
sg983
g984
sg991
g988
sg993
g994
sg995
g996
stRp1920
ag1
(g1561
g1508
(dp1921
g978
g979
sVY
I4
sg980
I4
sg981
g982
sg989
I4
sg986
I4
sg987
g988
sVX
I4
sg983
g984
sg991
g992
sg993
g994
sg995
g996
stRp1922
asg1574
Nsg1575
I3
sg1576
I18
sg1577
I0
sg1578
I18
sg1579
I01
sbag1
(g1496
g3
NtRp1923
(dp1924
g1499
Nsg1500
(lp1925
sg1502
I150637584
sg10
g1583
sg6
g1504
sg1505
I1
sg24
I01
sg25
g26
sg1506
g1
(g1507
g1508
(dp1926
g22
g1525
(g1526
g1511
g1527
S'b'
tRp1927
(I1
(I18
I1
tg1529
I00
S'\x00\x00\x80?\x00\x00\x80?\x00\x00\x80?\x00\x00\x80?\x00\x00\x80?\x00\x00\x80?\x00\x00\x80?\x00\x00\x80?\x00\x00\x80?\x00\x00\x80?\x00\x00\x80?\x00\x00\x80?\x00\x00\x80?\x00\x00\x80?\x00\x00\x00\x00\x00\x00\x80?\x00\x00\x80?\x00\x00\x80?'
S'\x00\x00\x00\x00\x00\x00\x00\x00\x00\x00\x00\x00\x00\x00\x00\x00\x00\x00'
Ntbsg19
g1510
(g1511
(I0
tS'b'
tRp1928
(I1
(I18
I1
tg1514
I00
(lp1929
g1243
ag1234
ag1319
ag1217
ag1177
ag1303
ag1188
ag1226
ag1295
ag1268
ag1286
ag1311
ag1198
ag1277
ag1209
ag1159
ag1260
ag1251
atbsg23
g1525
(g1526
g1511
g1527
S'b'
tRp1930
(I1
(I18
I1
tg1529
I00
S'\xebY)@\xf9\x10+@A\x98\x0c@8W\xc1?U7\xbd@\x82+\x97@\x11\xb9\x95@\xf6k|@\x17\x91\x8e@\x85\xd1\x9b@D\\\xb5@\x8e\xa1\xff@\xb9\xac\rA\xfc\xec\x0cAaiAA\xcb\xd9\xec@\x11W\xb0@\x07\x05\xb8@'
S'\x00\x00\x00\x00\x00\x00\x00\x00\x00\x00\x00\x00\x00\x00\x00\x00\x00\x00'
Ntbsg1524
g1525
(g1526
g1511
g1527
S'b'
tRp1931
(I1
(I18
I1
tg1529
I00
S'\x00\x00\x80?\x00\x00\x80?\x00\x00\x80?\x00\x00\x80?\x00\x00\x80?\x00\x00\x80?\x00\x00\x80?\x00\x00\x80?\x00\x00\x80?\x00\x00\x80?\x00\x00\x80?\x00\x00\x80?\x00\x00\x80?\x00\x00\x80?\x00\x00\x80?\x00\x00\x80?\x00\x00\x80?\x00\x00\x80?'
S'\x00\x00\x00\x00\x00\x00\x00\x00\x00\x00\x00\x00\x00\x00\x00\x00\x00\x00'
Ntbsg21
g1510
(g1511
(I0
tS'b'
tRp1932
(I1
(I18
I1
tg1514
I00
(lp1933
S'1'
aS'8'
aS'4'
aS'1'
aS'3'
aS'9'
aS'1'
aS'6'
aS'6'
aS'8'
aS'8'
aS'1'
aS'6'
aS'7'
aS'3'
aS'5'
aS'5'
aS'3'
atbsg1539
g1525
(g1526
g1511
g1527
S'b'
tRp1934
(I1
(I18
I1
tg1529
I00
S'\x00\x00\x00A\x00\x00\xe0@\x00\x00\x88A\x00\x00\xa0@\x00\x00\x80?\x00\x00pA\x00\x00\x00@\x00\x00\xc0@\x00\x00`A\x00\x000A\x00\x00PA\x00\x00\x80A\x00\x00@@\x00\x00@A\x00\x00\x80@\x00\x00\x00\x00\x00\x00 A\x00\x00\x10A'
S'\x00\x00\x00\x00\x00\x00\x00\x00\x00\x00\x00\x00\x00\x00\x00\x00\x00\x00'
Ntbsg20
g1525
(g1526
g1511
g1527
S'b'
tRp1935
(I1
(I18
I1
tg1529
I00
S"5\x94\x81?\xc8\xec\x9d?\xc8\xbf\xb0?\xaew@@\xee\n)@\xede\xdd?\x08\xf1\xba@\xf6\xab\xe5?\x89\\\xf0?\xa6\xfe\x19@t\xb3\xaa@k'\xd3@\x89\xdb\xb1@\x05\xd6\x00Ap\xfb\xfa@\x00\xb6\xd7@=\xf5\xb4@o\x04L@"
S'\x00\x00\x00\x00\x00\x00\x00\x00\x00\x00\x00\x00\x00\x00\x00\x00\x00\x00'
NtbstRp1936
(dp1937
g1544
(dp1938
g1524
I01
sg21
I00
sg20
I01
sg22
I01
sg19
I00
sg23
I01
sg1539
I01
ssg1546
g1923
sg1547
(lp1939
g1524
ag1539
ag19
ag20
ag21
ag22
ag23
asg1549
(lp1940
I18
aI1
asbsg1551
g1552
sg1553
g1510
(g1511
(I0
tS'b'
tRp1941
(I1
(I18
I1
tg1514
I00
(lp1942
I15
aI4
aI6
aI12
aI14
aI3
aI7
aI1
aI0
aI17
aI16
aI9
aI13
aI10
aI8
aI5
aI11
aI2
atbsg1556
I01
sg1557
I1
sg1558
I-1
sg1559
(lp1943
g1
(g1561
g1508
(dp1944
g1152
g1241
sVY
I3
sg1154
I2
sg1155
g1242
sg1163
I1
sg1160
I1
sg1161
g1166
sVX
I9
sg1157
I0
sg1165
g1189
sg1167
I0
sg1169
g1236
stRp1945
ag1
(g1561
g1508
(dp1946
g1152
g1232
sVY
I2
sg1154
I2
sg1155
g1233
sg1163
I8
sg1160
I8
sg1161
g1200
sVX
I2
sg1157
I0
sg1165
g1158
sg1167
I0
sg1169
g1236
stRp1947
ag1
(g1561
g1508
(dp1948
g1152
g1317
sVY
I3
sg1154
I2
sg1155
g1318
sg1163
I4
sg1160
I4
sg1161
g1180
sVX
I6
sg1157
I0
sg1165
g1201
sg1167
I0
sg1169
g1219
stRp1949
ag1
(g1561
g1508
(dp1950
g1152
g1215
sVY
I2
sg1154
I2
sg1155
g1216
sg1163
I1
sg1160
I1
sg1161
g1189
sVX
I6
sg1157
I0
sg1165
g1166
sg1167
I0
sg1169
g1219
stRp1951
ag1
(g1561
g1508
(dp1952
g1152
g1175
sVY
I9
sg1154
I3
sg1155
g1176
sg1163
I3
sg1160
I3
sg1161
g1178
sVX
I5
sg1157
g1162
sg1165
g1180
sg1167
I0
sg1169
g1181
stRp1953
ag1
(g1561
g1508
(dp1954
g1152
g1301
sVY
I3
sg1154
I3
sg1155
g1302
sg1163
I9
sg1160
I9
sg1161
g1168
sVX
I5
sg1157
g1201
sg1165
g1158
sg1167
I0
sg1169
g1181
stRp1955
ag1
(g1561
g1508
(dp1956
g1152
g1186
sVY
I2
sg1154
I3
sg1155
g1187
sg1163
I1
sg1160
I1
sg1161
g1189
sVX
I7
sg1157
g1162
sg1165
g1166
sg1167
I0
sg1169
g1191
stRp1957
ag1
(g1561
g1508
(dp1958
g1152
g1224
sVY
I6
sg1154
I3
sg1155
g1225
sg1163
I6
sg1160
I6
sg1161
g1158
sVX
I6
sg1157
g1168
sg1165
g1166
sg1167
I0
sg1169
g1191
stRp1959
ag1
(g1561
g1508
(dp1960
g1152
g1293
sVY
I2
sg1154
I3
sg1155
g1294
sg1163
I6
sg1160
I6
sg1161
g1162
sVX
I2
sg1157
g1278
sg1165
g1200
sg1167
I0
sg1169
g1270
stRp1961
ag1
(g1561
g1508
(dp1962
g1152
g1266
sVY
I6
sg1154
I3
sg1155
g1267
sg1163
I8
sg1160
I8
sg1161
g1166
sVX
I2
sg1157
g1158
sg1165
g1200
sg1167
I0
sg1169
g1270
stRp1963
ag1
(g1561
g1508
(dp1964
g1152
g1284
sVY
I4
sg1154
I4
sg1155
g1285
sg1163
I8
sg1160
I8
sg1161
g1200
sVX
I3
sg1157
g1178
sg1165
g1180
sg1167
g1162
sg1169
g1288
stRp1965
ag1
(g1561
g1508
(dp1966
g1152
g1309
sVY
I8
sg1154
I4
sg1155
g1310
sg1163
I1
sg1160
I1
sg1161
g1178
sVX
I2
sg1157
g1162
sg1165
g1180
sg1167
g1200
sg1169
g1288
stRp1967
ag1
(g1561
g1508
(dp1968
g1152
g1196
sVY
I5
sg1154
I4
sg1155
g1197
sg1163
I6
sg1160
I6
sg1161
g1189
sVX
I4
sg1157
g1178
sg1165
g1200
sg1167
g1201
sg1169
g1202
stRp1969
ag1
(g1561
g1508
(dp1970
g1152
g1275
sVY
I3
sg1154
I4
sg1155
g1276
sg1163
I7
sg1160
I7
sg1161
g1278
sVX
I2
sg1157
g1168
sg1165
g1201
sg1167
g1178
sg1169
g1202
stRp1971
ag1
(g1561
g1508
(dp1972
g1152
g1207
sVY
I3
sg1154
I4
sg1155
g1208
sg1163
I5
sg1160
I5
sg1161
g1178
sVX
I3
sg1157
g1189
sg1165
g1162
sg1167
g1200
sg1169
g1170
stRp1973
ag1
(g1561
g1508
(dp1974
g1152
g1153
sVY
I4
sg1154
I4
sg1155
g1156
sg1163
I5
sg1160
I5
sg1161
g1162
sVX
I8
sg1157
g1158
sg1165
g1166
sg1167
g1168
sg1169
g1170
stRp1975
ag1
(g1561
g1508
(dp1976
g1152
g1258
sVY
I2
sg1154
I4
sg1155
g1259
sg1163
I5
sg1160
I5
sg1161
g1178
sVX
I6
sg1157
g1168
sg1165
g1162
sg1167
g1180
sg1169
g1253
stRp1977
ag1
(g1561
g1508
(dp1978
g1152
g1249
sVY
I2
sg1154
I4
sg1155
g1250
sg1163
I3
sg1160
I3
sg1161
g1178
sVX
I3
sg1157
g1201
sg1165
g1168
sg1167
g1180
sg1169
g1253
stRp1979
asg1574
Nsg1575
I2
sg1576
I18
sg1577
I0
sg1578
I18
sg1579
I01
sbag1
(g1496
g3
NtRp1980
(dp1981
g1499
Nsg1500
(lp1982
sg1502
I150637584
sg10
g1583
sg6
g1504
sg1505
I1
sg24
I01
sg25
g26
sg1506
g1
(g1507
g1508
(dp1983
g22
g1525
(g1526
g1511
g1527
S'b'
tRp1984
(I1
(I18
I1
tg1529
I00
S'\x00\x00\x80?\x00\x00\x80?\x00\x00\x80?\x00\x00\x80?\x00\x00\x80?\x00\x00\x80?\x00\x00\x80?\x00\x00\x80?\x00\x00\x80?\x00\x00\x80?\x00\x00\x00\x00\x00\x00\x80?\x00\x00\x80?\x00\x00\x00\x00\x00\x00\x80?\x00\x00\x00\x00\x00\x00\x80?\x00\x00\x80?'
S'\x00\x00\x00\x00\x00\x00\x00\x00\x00\x00\x00\x00\x00\x00\x00\x00\x00\x00'
Ntbsg19
g1510
(g1511
(I0
tS'b'
tRp1985
(I1
(I18
I1
tg1514
I00
(lp1986
g1426
ag1370
ag1434
ag1476
ag1381
ag1409
ag1443
ag1452
ag1400
ag1468
ag1350
ag1332
ag1484
ag1390
ag1460
ag1361
ag1417
ag1492
atbsg23
g1525
(g1526
g1511
g1527
S'b'
tRp1987
(I1
(I18
I1
tg1529
I00
S'\x1f \xd0?}=\x84@SR\xbd?\tL\xad?\x0f\xe2\xb4@^\x95iA\xe1\xfd\xb5@\x8c\xf5\xf3@\xb5P\x83@\x98[\xaf@r~}A\xd0\x0c\xfb@\x1e\xf5\x19Ae\x9d\x1eAKja@z\x87\x8eA;5\xd6@\xd2\xd8\tA'
S'\x00\x00\x00\x00\x00\x00\x00\x00\x00\x00\x00\x00\x00\x00\x00\x00\x00\x00'
Ntbsg1524
g1525
(g1526
g1511
g1527
S'b'
tRp1988
(I1
(I18
I1
tg1529
I00
S'\x00\x00\x80?\x00\x00\x80?\x00\x00\x80?\x00\x00\x80?\x00\x00\x80?\x00\x00\x80?\x00\x00\x80?\x00\x00\x80?\x00\x00\x80?\x00\x00\x80?\x00\x00\x80?\x00\x00\x80?\x00\x00\x80?\x00\x00\x80?\x00\x00\x80?\x00\x00\x80?\x00\x00\x80?\x00\x00\x80?'
S'\x00\x00\x00\x00\x00\x00\x00\x00\x00\x00\x00\x00\x00\x00\x00\x00\x00\x00'
Ntbsg21
g1510
(g1511
(I0
tS'b'
tRp1989
(I1
(I18
I1
tg1514
I00
(lp1990
S'7'
aS'9'
aS'2'
aS'5'
aS'9'
aS'3'
aS'8'
aS'3'
aS'9'
aS'6'
aS'7'
aS'9'
aS'5'
aS'4'
aS'6'
aS'4'
aS'5'
aS'5'
atbsg1539
g1525
(g1526
g1511
g1527
S'b'
tRp1991
(I1
(I18
I1
tg1529
I00
S'\x00\x00\x10A\x00\x00@@\x00\x00 A\x00\x00pA\x00\x00\x80@\x00\x00\xe0@\x00\x000A\x00\x00@A\x00\x00\xc0@\x00\x00`A\x00\x00\x80?\x00\x00\x00\x00\x00\x00\x80A\x00\x00\xa0@\x00\x00PA\x00\x00\x00@\x00\x00\x00A\x00\x00\x88A'
S'\x00\x00\x00\x00\x00\x00\x00\x00\x00\x00\x00\x00\x00\x00\x00\x00\x00\x00'
Ntbsg20
g1525
(g1526
g1511
g1527
S'b'
tRp1992
(I1
(I18
I1
tg1529
I00
S'\xea\xb8\x85?\x8b\x05o?4\xf9\x8d?\xa3\xe5n?\xd2\x85\xf0?A\xbf\xb6?\xdd\x04\x92?\x91\x0f\x97@\xa0D\x81?$\tF@\x17\x8d\xa6@\x92\xb6\xdd@\xb3h\xbb@\xd6\xe0\x00Ak\xac0@j\x10\x18A3\xaf\x97@?\xccf@'
S'\x00\x00\x00\x00\x00\x00\x00\x00\x00\x00\x00\x00\x00\x00\x00\x00\x00\x00'
NtbstRp1993
(dp1994
g1544
(dp1995
g1524
I01
sg21
I00
sg20
I01
sg22
I01
sg19
I00
sg23
I01
sg1539
I01
ssg1546
g1980
sg1547
(lp1996
g1524
ag1539
ag19
ag20
ag21
ag22
ag23
asg1549
(lp1997
I18
aI1
asbsg1551
g1552
sg1553
g1510
(g1511
(I0
tS'b'
tRp1998
(I1
(I18
I1
tg1514
I00
(lp1999
I11
aI10
aI15
aI1
aI4
aI13
aI8
aI5
aI16
aI0
aI2
aI6
aI7
aI14
aI9
aI3
aI12
aI17
atbsg1556
I01
sg1557
I1
sg1558
I-1
sg1559
(lp2000
g1
(g1561
g1508
(dp2001
g1325
g1424
sVY
I5
sg1327
I2
sg1328
g1425
sg1336
I7
sg1333
I7
sg1334
g1335
sVX
I4
sg1330
I0
sg1338
g1399
sg1340
I0
sg1342
g1373
stRp2002
ag1
(g1561
g1508
(dp2003
g1325
g1368
sVY
I3
sg1327
I2
sg1328
g1369
sg1336
I9
sg1333
I9
sg1334
g1354
sVX
I4
sg1330
I0
sg1338
g1372
sg1340
I0
sg1342
g1373
stRp2004
ag1
(g1561
g1508
(dp2005
g1325
g1432
sVY
I8
sg1327
I2
sg1328
g1433
sg1336
I2
sg1333
I2
sg1334
g1353
sVX
I8
sg1330
I0
sg1338
g1351
sg1340
I0
sg1342
g1436
stRp2006
ag1
(g1561
g1508
(dp2007
g1325
g1474
sVY
I2
sg1327
I2
sg1328
g1475
sg1336
I5
sg1333
I5
sg1334
g1353
sVX
I8
sg1330
I0
sg1338
g1331
sg1340
I0
sg1342
g1436
stRp2008
ag1
(g1561
g1508
(dp2009
g1325
g1378
sVY
I2
sg1327
I3
sg1328
g1379
sg1336
I9
sg1333
I9
sg1334
g1354
sVX
I7
sg1330
g1380
sg1338
g1353
sg1340
I0
sg1342
g1383
stRp2010
ag1
(g1561
g1508
(dp2011
g1325
g1407
sVY
I2
sg1327
I3
sg1328
g1408
sg1336
I3
sg1333
I3
sg1334
g1331
sVX
I8
sg1330
g1335
sg1338
g1372
sg1340
I0
sg1342
g1383
stRp2012
ag1
(g1561
g1508
(dp2013
g1325
g1441
sVY
I2
sg1327
I3
sg1328
g1442
sg1336
I8
sg1333
I8
sg1334
g1339
sVX
I9
sg1330
g1380
sg1338
g1335
sg1340
I0
sg1342
g1445
stRp2014
ag1
(g1561
g1508
(dp2015
g1325
g1450
sVY
I3
sg1327
I3
sg1328
g1451
sg1336
I3
sg1333
I3
sg1334
g1353
sVX
I2
sg1330
g1354
sg1338
g1331
sg1340
I0
sg1342
g1445
stRp2016
ag1
(g1561
g1508
(dp2017
g1325
g1397
sVY
I3
sg1327
I3
sg1328
g1398
sg1336
I9
sg1333
I9
sg1334
g1335
sVX
I3
sg1330
g1399
sg1338
g1354
sg1340
I0
sg1342
g1402
stRp2018
ag1
(g1561
g1508
(dp2019
g1325
g1466
sVY
I2
sg1327
I3
sg1328
g1467
sg1336
I6
sg1333
I6
sg1334
g1331
sVX
I3
sg1330
g1372
sg1338
g1354
sg1340
I0
sg1342
g1402
stRp2020
ag1
(g1561
g1508
(dp2021
g1325
g1348
sVY
I4
sg1327
I4
sg1328
g1349
sg1336
I5
sg1333
I5
sg1334
g1351
sVX
I3
sg1330
g1331
sg1338
g1353
sg1340
g1354
sg1342
g1343
stRp2022
ag1
(g1561
g1508
(dp2023
g1325
g1326
sVY
I9
sg1327
I4
sg1328
g1329
sg1336
I9
sg1333
I9
sg1334
g1335
sVX
I3
sg1330
g1331
sg1338
g1339
sg1340
g1341
sg1342
g1343
stRp2024
ag1
(g1561
g1508
(dp2025
g1325
g1482
sVY
I4
sg1327
I4
sg1328
g1483
sg1336
I5
sg1333
I5
sg1334
g1372
sVX
I5
sg1330
g1380
sg1338
g1335
sg1340
g1354
sg1342
g1392
stRp2026
ag1
(g1561
g1508
(dp2027
g1325
g1388
sVY
I2
sg1327
I4
sg1328
g1389
sg1336
I7
sg1333
I7
sg1334
g1339
sVX
I2
sg1330
g1354
sg1338
g1331
sg1340
g1335
sg1342
g1392
stRp2028
ag1
(g1561
g1508
(dp2029
g1325
g1458
sVY
I4
sg1327
I4
sg1328
g1459
sg1336
I6
sg1333
I6
sg1334
g1351
sVX
I4
sg1330
g1372
sg1338
g1354
sg1340
g1331
sg1342
g1363
stRp2030
ag1
(g1561
g1508
(dp2031
g1325
g1359
sVY
I8
sg1327
I4
sg1328
g1360
sg1336
I9
sg1333
I9
sg1334
g1331
sVX
I8
sg1330
g1353
sg1338
g1354
sg1340
g1351
sg1342
g1363
stRp2032
ag1
(g1561
g1508
(dp2033
g1325
g1415
sVY
I4
sg1327
I4
sg1328
g1416
sg1336
I5
sg1333
I5
sg1334
g1341
sVX
I5
sg1330
g1351
sg1338
g1380
sg1340
g1399
sg1342
g1419
stRp2034
ag1
(g1561
g1508
(dp2035
g1325
g1490
sVY
I4
sg1327
I4
sg1328
g1491
sg1336
I5
sg1333
I5
sg1334
g1331
sVX
I7
sg1330
g1335
sg1338
g1341
sg1340
g1339
sg1342
g1419
stRp2036
asg1574
Nsg1575
I17
sg1576
I18
sg1577
I0
sg1578
I18
sg1579
I01
sbasS'savePickle'
p2037
I00
sb.