ccopy_reg
_reconstructor
p1
(cpsychopy.data
ExperimentHandler
p2
c__builtin__
object
p3
NtRp4
(dp5
S'originPath'
p6
NsS'dataFileName'
p7
VC:\u005cUsers\u005cexperimenter\u005cDesktop\u005cExperiments\u005cKRITL\u005cdata/31040_KRITL_2017_Apr_14_1719
p8
sS'runtimeInfo'
p9
NsS'name'
p10
S'KRITL'
p11
sS'dataNames'
p12
(lp13
S'practice_encoding.keys'
p14
aS'practice_encoding.rt'
p15
aS'practice_execution.keys'
p16
aS'practice_execution.corr'
p17
aS'practice_execution.rt'
p18
aS'encoding.keys'
p19
aS'encoding.rt'
p20
aS'execution.keys'
p21
aS'execution.corr'
p22
aS'execution.rt'
p23
asS'autoLog'
p24
I01
sS'extraInfo'
p25
(dp26
S'date'
p27
V2017_Apr_14_1719
p28
sS'frameRate'
p29
cnumpy.core.multiarray
scalar
p30
(cnumpy
dtype
p31
(S'f8'
I0
I1
tRp32
(I3
S'<'
NNNI-1
I-1
I0
tbS"F'I\xde\xc6\x00N@"
tRp33
sS'expName'
p34
g11
sVsession
p35
V001
p36
sVparticipant
p37
V31040
p38
ssS'loopsUnfinished'
p39
(lp40
sS'saveWideText'
p41
I00
sS'thisEntry'
p42
(dp43
sS'version'
p44
S''
sS'_paramNamesSoFar'
p45
(lp46
Voperationc
p47
aVoperationb
p48
aVoperationa
p49
aVcorrectresponse
p50
aVvaluey
p51
aVoperationd
p52
aVcondition
p53
aVvaluex
p54
aVRule
p55
aVOperatora
p56
aVLength
p57
aVIntermediate
p58
aVCorrectResponse
p59
aVResult
p60
aVY
aVX
aVOperatorc
p61
aVOperatorb
p62
aVOperatord
p63
aVStructure
p64
asS'entries'
p65
(lp66
(dp67
g35
g36
sg47
Vincrease
p68
sg27
g28
sg16
Nsg29
g33
sg14
(lp69
S'space'
p70
asg53
L4L
sg49
Vdouble
p71
sg17
I0
sS'practice_trials.thisN'
p72
I0
sg48
VDIVIDE
p73
sS'practice_trials.thisIndex'
p74
I5
sg34
g11
sg50
L9L
sS'practice_trials.thisTrialN'
p75
I0
sg52
Vtriple
p76
sS'practice_trials.thisRepN'
p77
I0
sg37
g38
sg54
L8L
sg51
L8L
sg15
(lp78
F13.865629771520616
asa(dp79
g18
F2.0666694430401549
sg29
g33
sg17
I1
sg47
L0L
sg48
VADD
p80
sg49
Vdecrease
p81
sg35
g36
sg50
L7L
sS'practice_trials.thisTrialN'
p82
I1
sg52
L0L
sS'practice_trials.thisRepN'
p83
I0
sg37
g38
sg53
L2L
sg27
g28
sg16
S'7'
sg14
(lp84
S'space'
p85
asS'practice_trials.thisIndex'
p86
I0
sS'practice_trials.thisN'
p87
I1
sg34
g11
sg15
(lp88
F2.8165690910245758
asg51
L5L
sg54
L3L
sa(dp89
g18
F3.0167016571795102
sg29
g33
sg17
I1
sg47
g80
sg48
Vtriple 
p90
sg49
Vhalf
p91
sg35
g36
sg50
L8L
sS'practice_trials.thisTrialN'
p92
I2
sg52
L0L
sS'practice_trials.thisRepN'
p93
I0
sg37
g38
sg53
L3L
sg27
g28
sg16
S'8'
sg14
(lp94
S'space'
p95
asS'practice_trials.thisIndex'
p96
I3
sS'practice_trials.thisN'
p97
I2
sg34
g11
sg15
(lp98
F3.5331508157250937
asg51
L2L
sg54
L4L
sa(dp99
g18
F5.5663784484204371
sg29
g33
sg17
I1
sg47
g68
sg48
g73
sg49
g76
sg35
g36
sg50
L3L
sS'practice_trials.thisTrialN'
p100
I3
sg52
L0L
sS'practice_trials.thisRepN'
p101
I0
sg37
g38
sg53
L3L
sg27
g28
sg16
S'3'
sg14
(lp102
S'space'
p103
asS'practice_trials.thisIndex'
p104
I4
sS'practice_trials.thisN'
p105
I3
sg34
g11
sg15
(lp106
F2.0499387388990726
asg51
L3L
sg54
L2L
sa(dp107
g18
F1.4333786769129802
sg29
g33
sg17
I1
sg47
L0L
sg48
g81
sg49
VTIMES
p108
sg35
g36
sg50
L8L
sS'practice_trials.thisTrialN'
p109
I4
sg52
L0L
sS'practice_trials.thisRepN'
p110
I0
sg37
g38
sg53
L2L
sg27
g28
sg16
S'8'
sg14
(lp111
S'space'
p112
asS'practice_trials.thisIndex'
p113
I1
sS'practice_trials.thisN'
p114
I4
sg34
g11
sg15
(lp115
F2.416610876651248
asg51
L3L
sg54
L3L
sa(dp116
g18
F1.2667323664645664
sg29
g33
sg17
I1
sg47
L0L
sg48
g80
sg49
g91
sg35
g36
sg50
L7L
sS'practice_trials.thisTrialN'
p117
I5
sg52
L0L
sS'practice_trials.thisRepN'
p118
I0
sg37
g38
sg53
L2L
sg27
g28
sg16
S'7'
sg14
(lp119
S'space'
p120
asS'practice_trials.thisIndex'
p121
I2
sS'practice_trials.thisN'
p122
I5
sg34
g11
sg15
(lp123
F1.1167114211712033
asg51
L5L
sg54
L4L
sa(dp124
S'block.thisTrialN'
p125
I0
sS'block.thisRepN'
p126
I0
sg29
g33
sS'block.thisN'
p127
I0
sg55
(S'DECREASE'
S'THIRD'
S'DOUBLE'
S'ADD'
S'x'
S'y'
tp128
sg27
g28
sg57
L4L
sg58
(I9
I18
I6
I5
tp129
sg22
I1
sg20
F5.8996675696980674
sg23
F5.9497322954412084
sVY
L4L
sVX
L5L
sg61
Vdouble
p130
sg35
g36
sg37
g38
sg21
S'5'
sg19
S'space'
p131
sg34
g11
sg60
L5L
sg56
Vthird
p132
sg59
L5L
sS'block.thisIndex'
p133
I16
sg62
Vdecrease
p134
sg63
VADD
p135
sg64
VUUUBxy
p136
sa(dp137
S'block.thisTrialN'
p138
I1
sS'block.thisRepN'
p139
I0
sg29
g33
sS'block.thisN'
p140
I1
sg55
(S'ADD'
S'HALF'
S'x'
S'y'
tp141
sg27
g28
sg57
L2L
sg58
(I2
I7
tp142
sg22
I1
sg20
F2.716566676273942
sg23
F2.283349682460539
sVY
L5L
sVX
L4L
sg61
L0L
sg35
g36
sg37
g38
sg21
S'7'
sg19
S'space'
p143
sg34
g11
sg60
L7L
sg56
Vhalf
p144
sg59
L7L
sS'block.thisIndex'
p145
I0
sg62
g135
sg63
L0L
sg64
VBUxy
p146
sa(dp147
S'block.thisTrialN'
p148
I2
sS'block.thisRepN'
p149
I0
sg29
g33
sS'block.thisN'
p150
I2
sg55
(S'SUBTRACT'
S'TRIPLE'
S'x'
S'y'
tp151
sg27
g28
sg57
L2L
sg58
(I12
I9
tp152
sg22
I1
sg20
F3.8498212211416103
sg23
F2.1000314617122058
sVY
L3L
sVX
L4L
sg61
L0L
sg35
g36
sg37
g38
sg21
S'9'
sg19
S'space'
p153
sg34
g11
sg60
L9L
sg56
Vtriple
p154
sg59
L9L
sS'block.thisIndex'
p155
I1
sg62
VSUBTRACT
p156
sg63
L0L
sg64
g146
sa(dp157
S'block.thisTrialN'
p158
I3
sS'block.thisRepN'
p159
I0
sg29
g33
sS'block.thisN'
p160
I3
sg55
(S'TRIPLE'
S'INCREASE'
S'SUBTRACT'
S'x'
S'y'
tp161
sg27
g28
sg57
L3L
sg58
(I1
I2
I6
tp162
sg22
I1
sg20
F5.2164072679006495
sg23
F2.7832749652443454
sVY
L2L
sVX
L3L
sg61
g156
sg35
g36
sg37
g38
sg21
S'6'
sg19
S'space'
p163
sg34
g11
sg60
L6L
sg56
Vincrease
p164
sg59
L6L
sS'block.thisIndex'
p165
I9
sg62
g154
sg63
L0L
sg64
VUUBxy
p166
sa(dp167
S'block.thisTrialN'
p168
I4
sS'block.thisRepN'
p169
I0
sg29
g33
sS'block.thisN'
p170
I4
sg55
(S'HALF'
S'SUBTRACT'
S'DECREASE'
S'TRIPLE'
S'x'
S'y'
tp171
sg27
g28
sg57
L4L
sg58
(I15
I14
I10
I5
tp172
sg22
I1
sg20
F9.016051425045589
sg23
F6.1163450093881693
sVY
L4L
sVX
L5L
sg61
g134
sg35
g36
sg37
g38
sg21
S'5'
sg19
S'space'
p173
sg34
g11
sg60
L5L
sg56
g156
sg59
L5L
sS'block.thisIndex'
p174
I12
sg62
g144
sg63
g154
sg64
VUBUUxy
p175
sa(dp176
S'block.thisTrialN'
p177
I5
sS'block.thisRepN'
p178
I0
sg29
g33
sS'block.thisN'
p179
I5
sg55
(S'INCREASE'
S'DIVIDE'
S'TRIPLE'
S'x'
S'y'
tp180
sg27
g28
sg57
L3L
sg58
(I6
I2
I3
tp181
sg22
I0
sg20
F5.0830743311962578
sg23
F10.799294193653623
sVY
L3L
sVX
L2L
sg61
g154
sg35
g36
sg37
g38
sg21
S'4'
sg19
S'space'
p182
sg34
g11
sg60
L3L
sg56
VDIVIDE
p183
sg59
L3L
sS'block.thisIndex'
p184
I7
sg62
g164
sg63
L0L
sg64
VUBUxy
p185
sa(dp186
S'block.thisTrialN'
p187
I6
sS'block.thisRepN'
p188
I0
sg29
g33
sS'block.thisN'
p189
I6
sg55
(S'SUBTRACT'
S'INCREASE'
S'HALF'
S'x'
S'y'
tp190
sg27
g28
sg57
L3L
sg58
(I4
I5
I3
tp191
sg22
I1
sg20
F10.982571468659444
sg23
F3.5832281401380897
sVY
L2L
sVX
L8L
sg61
g144
sg35
g36
sg37
g38
sg21
S'3'
sg19
S'space'
p192
sg34
g11
sg60
L3L
sg56
g164
sg59
L3L
sS'block.thisIndex'
p193
I5
sg62
g156
sg63
L0L
sg64
VBUUxy
p194
sa(dp195
S'block.thisTrialN'
p196
I7
sS'block.thisRepN'
p197
I0
sg29
g33
sS'block.thisN'
p198
I7
sg55
(S'DIVIDE'
S'TRIPLE'
S'DECREASE'
S'x'
S'y'
tp199
sg27
g28
sg57
L3L
sg58
(I6
I18
I9
tp200
sg22
I1
sg20
F5.3663687194348313
sg23
F6.2996611303824466
sVY
L2L
sVX
L7L
sg61
g134
sg35
g36
sg37
g38
sg21
S'9'
sg19
S'space'
p201
sg34
g11
sg60
L9L
sg56
g154
sg59
L9L
sS'block.thisIndex'
p202
I4
sg62
g183
sg63
L0L
sg64
g194
sa(dp203
S'block.thisTrialN'
p204
I8
sS'block.thisRepN'
p205
I0
sg29
g33
sS'block.thisN'
p206
I8
sg55
(S'TRIPLE'
S'DOUBLE'
S'SUBTRACT'
S'INCREASE'
S'x'
S'y'
tp207
sg27
g28
sg57
L4L
sg58
(I5
I1
I2
I6
tp208
sg22
I1
sg20
F6.266250466753263
sg23
F4.2665451360226143
sVY
L4L
sVX
L4L
sg61
g156
sg35
g36
sg37
g38
sg21
S'6'
sg19
S'space'
p209
sg34
g11
sg60
L6L
sg56
g130
sg59
L6L
sS'block.thisIndex'
p210
I14
sg62
g154
sg63
g164
sg64
VUUBUxy
p211
sa(dp212
S'block.thisTrialN'
p213
I9
sS'block.thisRepN'
p214
I0
sg29
g33
sS'block.thisN'
p215
I9
sg55
(S'HALF'
S'TIMES'
S'DECREASE'
S'x'
S'y'
tp216
sg27
g28
sg57
L3L
sg58
(I8
I16
I8
tp217
sg22
I1
sg20
F2.6999052648898214
sg23
F4.3165164215315599
sVY
L2L
sVX
L9L
sg61
g134
sg35
g36
sg37
g38
sg21
S'8'
sg19
S'space'
p218
sg34
g11
sg60
L8L
sg56
VTIMES
p219
sg59
L8L
sS'block.thisIndex'
p220
I6
sg62
g144
sg63
L0L
sg64
g185
sa(dp221
S'block.thisTrialN'
p222
I10
sS'block.thisRepN'
p223
I0
sg29
g33
sS'block.thisN'
p224
I10
sg55
(S'TRIPLE'
S'HALF'
S'ADD'
S'x'
S'y'
tp225
sg27
g28
sg57
L3L
sg58
(I6
I3
I9
tp226
sg22
I1
sg20
F2.5666356715664733
sg23
F11.149252775474451
sVY
L3L
sVX
L3L
sg61
g135
sg35
g36
sg37
g38
sg21
S'9'
sg19
S'space'
p227
sg34
g11
sg60
L9L
sg56
g144
sg59
L9L
sS'block.thisIndex'
p228
I8
sg62
g154
sg63
L0L
sg64
g166
sa(dp229
S'block.thisTrialN'
p230
I11
sS'block.thisRepN'
p231
I0
sg29
g33
sS'block.thisN'
p232
I11
sg55
(S'INCREASE'
S'DIVIDE'
S'x'
S'y'
tp233
sg27
g28
sg57
L2L
sg58
(I4
I5
tp234
sg22
I1
sg20
F4.7330863524402957
sg23
F2.1666802569234278
sVY
L2L
sVX
L8L
sg61
L0L
sg35
g36
sg37
g38
sg21
S'5'
sg19
S'space'
p235
sg34
g11
sg60
L5L
sg56
g183
sg59
L5L
sS'block.thisIndex'
p236
I3
sg62
g164
sg63
L0L
sg64
VUBxy
p237
sa(dp238
S'block.thisTrialN'
p239
I12
sS'block.thisRepN'
p240
I0
sg29
g33
sS'block.thisN'
p241
I12
sg55
(S'INCREASE'
S'TIMES'
S'TRIPLE'
S'HALF'
S'x'
S'y'
tp242
sg27
g28
sg57
L4L
sg58
(I1
I3
I6
I7
tp243
sg22
I1
sg20
F4.8998152542917524
sg23
F7.33291186063434
sVY
L2L
sVX
L2L
sg61
g154
sg35
g36
sg37
g38
sg21
S'7'
sg19
S'space'
p244
sg34
g11
sg60
L7L
sg56
g219
sg59
L7L
sS'block.thisIndex'
p245
I13
sg62
g164
sg63
g144
sg64
g175
sa(dp246
S'block.thisTrialN'
p247
I13
sS'block.thisRepN'
p248
I0
sg29
g33
sS'block.thisN'
p249
I13
sg55
(S'THIRD'
S'INCREASE'
S'HALF'
S'TIMES'
S'x'
S'y'
tp250
sg27
g28
sg57
L4L
sg58
(I28
I14
I15
I5
tp251
sg22
I1
sg20
F5.7663528310949914
sg23
F5.966398256336106
sVY
L4L
sVX
L7L
sg61
g144
sg35
g36
sg37
g38
sg21
S'5'
sg19
S'space'
p252
sg34
g11
sg60
L5L
sg56
g164
sg59
L5L
sS'block.thisIndex'
p253
I17
sg62
g132
sg63
g219
sg64
g136
sa(dp254
S'block.thisTrialN'
p255
I14
sS'block.thisRepN'
p256
I0
sg29
g33
sS'block.thisN'
p257
I14
sg55
(S'DIVIDE'
S'DOUBLE'
S'INCREASE'
S'TRIPLE'
S'x'
S'y'
tp258
sg27
g28
sg57
L4L
sg58
(I9
I10
I20
I5
tp259
sg22
I1
sg20
F8.9494078792922664
sg23
F5.6163920794788282
sVY
L4L
sVX
L3L
sg61
g164
sg35
g36
sg37
g38
sg21
S'5'
sg19
S'space'
p260
sg34
g11
sg60
L5L
sg56
g130
sg59
L5L
sS'block.thisIndex'
p261
I10
sg62
g183
sg63
g154
sg64
VBUUUxy
p262
sa(dp263
S'block.thisTrialN'
p264
I15
sS'block.thisRepN'
p265
I0
sg29
g33
sS'block.thisN'
p266
I15
sg55
(S'TIMES'
S'HALF'
S'INCREASE'
S'THIRD'
S'x'
S'y'
tp267
sg27
g28
sg57
L4L
sg58
(I1
I2
I1
I9
tp268
sg22
I1
sg20
F9.366047452960629
sg23
F3.883205287536839
sVY
L9L
sVX
L3L
sg61
g164
sg35
g36
sg37
g38
sg21
S'9'
sg19
S'space'
p269
sg34
g11
sg60
L9L
sg56
g144
sg59
L9L
sS'block.thisIndex'
p270
I11
sg62
g219
sg63
g132
sg64
g262
sa(dp271
S'block.thisTrialN'
p272
I16
sS'block.thisRepN'
p273
I0
sg29
g33
sS'block.thisN'
p274
I16
sg55
(S'TRIPLE'
S'INCREASE'
S'DIVIDE'
S'DOUBLE'
S'x'
S'y'
tp275
sg27
g28
sg57
L4L
sg58
(I16
I2
I3
I9
tp276
sg22
I1
sg20
F9.0327432832273189
sg23
F6.6329796485661063
sVY
L8L
sVX
L8L
sg61
g183
sg35
g36
sg37
g38
sg21
S'9'
sg19
S'space'
p277
sg34
g11
sg60
L9L
sg56
g164
sg59
L9L
sS'block.thisIndex'
p278
I15
sg62
g154
sg63
g130
sg64
g211
sa(dp279
S'block.thisTrialN'
p280
I17
sS'block.thisRepN'
p281
I0
sg29
g33
sS'block.thisN'
p282
I17
sg55
(S'DOUBLE'
S'DIVIDE'
S'x'
S'y'
tp283
sg27
g28
sg57
L2L
sg58
(I1
I2
tp284
sg22
I1
sg20
F1.5167081315012183
sg23
F1.8667006597970612
sVY
L8L
sVX
L8L
sg61
L0L
sg35
g36
sg37
g38
sg21
S'2'
sg19
S'space'
p285
sg34
g11
sg60
L2L
sg56
g183
sg59
L2L
sS'block.thisIndex'
p286
I2
sg62
g130
sg63
L0L
sg64
g237
sa(dp287
S'block.thisTrialN'
p288
I0
sS'block.thisRepN'
p289
I0
sg29
g33
sS'block.thisN'
p290
I0
sVRule
p291
(S'TRIPLE'
S'DOUBLE'
S'SUBTRACT'
S'DECREASE'
S'x'
S'y'
tp292
sg27
g28
sVLength
p293
L4L
sVIntermediate
p294
(I4
I1
I2
I6
tp295
sg22
I1
sg20
F5.116392604453722
sg23
F5.7997799429576844
sVY
L3L
sVX
L5L
sVOperatorc
p296
VSUBTRACT
p297
sg35
g36
sg37
g38
sg21
S'6'
sg19
S'space'
p298
sg34
g11
sVResult
p299
L6L
sVOperatora
p300
Vdouble
p301
sVCorrectResponse
p302
L6L
sS'block.thisIndex'
p303
I15
sVOperatorb
p304
Vtriple
p305
sVOperatord
p306
Vdecrease
p307
sVStructure
p308
VUUBUxy
p309
sa(dp310
S'block.thisTrialN'
p311
I1
sS'block.thisRepN'
p312
I0
sg29
g33
sS'block.thisN'
p313
I1
sg291
(S'THIRD'
S'TIMES'
S'HALF'
S'INCREASE'
S'x'
S'y'
tp314
sg27
g28
sg293
L4L
sg294
(I8
I4
I12
I4
tp315
sg22
I1
sg20
F2.983188104321016
sg23
F11.365918316412717
sVY
L3L
sVX
L7L
sg296
Vhalf
p316
sg35
g36
sg37
g38
sg21
S'4'
sg19
S'space'
p317
sg34
g11
sg299
L4L
sg300
VTIMES
p318
sg302
L4L
sS'block.thisIndex'
p319
I13
sg304
Vthird
p320
sg306
Vincrease
p321
sg308
VUBUUxy
p322
sa(dp323
S'block.thisTrialN'
p324
I2
sS'block.thisRepN'
p325
I0
sg29
g33
sS'block.thisN'
p326
I2
sg291
(S'TIMES'
S'INCREASE'
S'HALF'
S'TRIPLE'
S'x'
S'y'
tp327
sg27
g28
sg293
L4L
sg294
(I6
I3
I4
I8
tp328
sg22
I1
sg20
F10.949243046488846
sg23
F11.132598363357829
sVY
L2L
sVX
L2L
sg296
g316
sg35
g36
sg37
g38
sg21
S'8'
sg19
S'space'
p329
sg34
g11
sg299
L8L
sg300
g321
sg302
L8L
sS'block.thisIndex'
p330
I11
sg304
g318
sg306
g305
sg308
VBUUUxy
p331
sa(dp332
S'block.thisTrialN'
p333
I3
sS'block.thisRepN'
p334
I0
sg29
g33
sS'block.thisN'
p335
I3
sg291
(S'INCREASE'
S'DIVIDE'
S'TRIPLE'
S'HALF'
S'x'
S'y'
tp336
sg27
g28
sg293
L4L
sg294
(I2
I6
I2
I3
tp337
sg22
I1
sg20
F7.7326474982546642
sg23
F6.0830347853188869
sVY
L3L
sVX
L4L
sg296
g305
sg35
g36
sg37
g38
sg21
S'3'
sg19
S'space'
p338
sg34
g11
sg299
L3L
sg300
VDIVIDE
p339
sg302
L3L
sS'block.thisIndex'
p340
I12
sg304
g321
sg306
g316
sg308
g322
sa(dp341
S'block.thisTrialN'
p342
I4
sS'block.thisRepN'
p343
I0
sg29
g33
sS'block.thisN'
p344
I4
sg291
(S'THIRD'
S'INCREASE'
S'ADD'
S'DOUBLE'
S'x'
S'y'
tp345
sg27
g28
sg293
L4L
sg294
(I16
I20
I21
I7
tp346
sg22
I1
sg20
F3.7665054151439108
sg23
F17.115421455790056
sVY
L4L
sVX
L8L
sg296
VADD
p347
sg35
g36
sg37
g38
sg21
S'7'
sg19
S'space'
p348
sg34
g11
sg299
L7L
sg300
g321
sg302
L7L
sS'block.thisIndex'
p349
I14
sg304
g320
sg306
g301
sg308
g309
sa(dp350
S'block.thisTrialN'
p351
I5
sS'block.thisRepN'
p352
I0
sg29
g33
sS'block.thisN'
p353
I5
sg291
(S'TRIPLE'
S'DECREASE'
S'HALF'
S'SUBTRACT'
S'x'
S'y'
tp354
sg27
g28
sg293
L4L
sg294
(I4
I2
I1
I3
tp355
sg22
I0
sg20
F8.949517767818179
sg23
F4.8996990664163604
sVY
L5L
sVX
L9L
sg296
g316
sg35
g36
sg37
g38
sg21
S'9'
sg19
S'space'
p356
sg34
g11
sg299
L3L
sg300
g307
sg302
L3L
sS'block.thisIndex'
p357
I17
sg304
g305
sg306
g297
sg308
VUUUBxy
p358
sa(dp359
S'block.thisTrialN'
p360
I6
sS'block.thisRepN'
p361
I0
sg29
g33
sS'block.thisN'
p362
I6
sg291
(S'DECREASE'
S'TRIPLE'
S'DIVIDE'
S'x'
S'y'
tp363
sg27
g28
sg293
L3L
sg294
(I2
I6
I5
tp364
sg22
I1
sg20
F2.2001325661840383
sg23
F3.9829165326664224
sVY
L4L
sVX
L8L
sg296
g339
sg35
g36
sg37
g38
sg21
S'5'
sg19
S'space'
p365
sg34
g11
sg299
L5L
sg300
g305
sg302
L5L
sS'block.thisIndex'
p366
I8
sg304
g307
sg306
L0L
sg308
VUUBxy
p367
sa(dp368
S'block.thisTrialN'
p369
I7
sS'block.thisRepN'
p370
I0
sg29
g33
sS'block.thisN'
p371
I7
sg291
(S'DECREASE'
S'TRIPLE'
S'HALF'
S'ADD'
S'x'
S'y'
tp372
sg27
g28
sg293
L4L
sg294
(I6
I3
I9
I8
tp373
sg22
I1
sg20
F5.9828143433260266
sg23
F5.7997127499838825
sVY
L2L
sVX
L4L
sg296
g316
sg35
g36
sg37
g38
sg21
S'8'
sg19
S'space'
p374
sg34
g11
sg299
L8L
sg300
g305
sg302
L8L
sS'block.thisIndex'
p375
I16
sg304
g307
sg306
g347
sg308
g358
sa(dp376
S'block.thisTrialN'
p377
I8
sS'block.thisRepN'
p378
I0
sg29
g33
sS'block.thisN'
p379
I8
sg291
(S'THIRD'
S'INCREASE'
S'SUBTRACT'
S'x'
S'y'
tp380
sg27
g28
sg293
L3L
sg294
(I2
I3
I1
tp381
sg22
I1
sg20
F4.1498319650418125
sg23
F2.4999903760035522
sVY
L6L
sVX
L8L
sg296
g297
sg35
g36
sg37
g38
sg21
S'1'
sg19
S'space'
p382
sg34
g11
sg299
L1L
sg300
g321
sg302
L1L
sS'block.thisIndex'
p383
I9
sg304
g320
sg306
L0L
sg308
g367
sa(dp384
S'block.thisTrialN'
p385
I9
sS'block.thisRepN'
p386
I0
sg29
g33
sS'block.thisN'
p387
I9
sg291
(S'INCREASE'
S'SUBTRACT'
S'THIRD'
S'x'
S'y'
tp388
sg27
g28
sg293
L3L
sg294
(I3
I1
I2
tp389
sg22
I1
sg20
F2.1833056220493745
sg23
F3.6498856844264083
sVY
L2L
sVX
L9L
sg296
g320
sg35
g36
sg37
g38
sg21
S'2'
sg19
S'space'
p390
sg34
g11
sg299
L2L
sg300
g297
sg302
L2L
sS'block.thisIndex'
p391
I7
sg304
g321
sg306
L0L
sg308
VUBUxy
p392
sa(dp393
S'block.thisTrialN'
p394
I10
sS'block.thisRepN'
p395
I0
sg29
g33
sS'block.thisN'
p396
I10
sg291
(S'TIMES'
S'THIRD'
S'DOUBLE'
S'x'
S'y'
tp397
sg27
g28
sg293
L3L
sg294
(I6
I2
I4
tp398
sg22
I1
sg20
F6.4996344631363172
sg23
F8.482809618813917
sVY
L2L
sVX
L3L
sg296
g301
sg35
g36
sg37
g38
sg21
S'4'
sg19
S'space'
p399
sg34
g11
sg299
L4L
sg300
g320
sg302
L4L
sS'block.thisIndex'
p400
I5
sg304
g318
sg306
L0L
sg308
VBUUxy
p401
sa(dp402
S'block.thisTrialN'
p403
I11
sS'block.thisRepN'
p404
I0
sg29
g33
sS'block.thisN'
p405
I11
sg291
(S'INCREASE'
S'ADD'
S'TRIPLE'
S'x'
S'y'
tp406
sg27
g28
sg293
L3L
sg294
(I6
I8
I9
tp407
sg22
I1
sg20
F4.7497376148821786
sg23
F3.1832594268780667
sVY
L2L
sVX
L2L
sg296
g305
sg35
g36
sg37
g38
sg21
S'9'
sg19
S'space'
p408
sg34
g11
sg299
L9L
sg300
g347
sg302
L9L
sS'block.thisIndex'
p409
I6
sg304
g321
sg306
L0L
sg308
g392
sa(dp410
S'block.thisTrialN'
p411
I12
sS'block.thisRepN'
p412
I0
sg29
g33
sS'block.thisN'
p413
I12
sg291
(S'DIVIDE'
S'DOUBLE'
S'INCREASE'
S'THIRD'
S'x'
S'y'
tp414
sg27
g28
sg293
L4L
sg294
(I2
I3
I6
I2
tp415
sg22
I1
sg20
F9.4327042973018251
sg23
F9.3494339865574148
sVY
L3L
sVX
L6L
sg296
g321
sg35
g36
sg37
g38
sg21
S'2'
sg19
S'space'
p416
sg34
g11
sg299
L2L
sg300
g301
sg302
L2L
sS'block.thisIndex'
p417
I10
sg304
g339
sg306
g320
sg308
g331
sa(dp418
S'block.thisTrialN'
p419
I13
sS'block.thisRepN'
p420
I0
sg29
g33
sS'block.thisN'
p421
I13
sg291
(S'DOUBLE'
S'TIMES'
S'x'
S'y'
tp422
sg27
g28
sg293
L2L
sg294
(I4
I8
tp423
sg22
I1
sg20
F1.4333650283515453
sg23
F3.4332337920786813
sVY
L2L
sVX
L2L
sg296
L0L
sg35
g36
sg37
g38
sg21
S'8'
sg19
S'space'
p424
sg34
g11
sg299
L8L
sg300
g318
sg302
L8L
sS'block.thisIndex'
p425
I3
sg304
g301
sg306
L0L
sg308
VUBxy
p426
sa(dp427
S'block.thisTrialN'
p428
I14
sS'block.thisRepN'
p429
I0
sg29
g33
sS'block.thisN'
p430
I14
sg291
(S'ADD'
S'THIRD'
S'x'
S'y'
tp431
sg27
g28
sg293
L2L
sg294
(I1
I7
tp432
sg22
I1
sg20
F2.0499849340703804
sg23
F4.7164669366611633
sVY
L6L
sVX
L3L
sg296
L0L
sg35
g36
sg37
g38
sg21
S'7'
sg19
S'space'
p433
sg34
g11
sg299
L7L
sg300
g320
sg302
L7L
sS'block.thisIndex'
p434
I0
sg304
g347
sg306
L0L
sg308
VBUxy
p435
sa(dp436
S'block.thisTrialN'
p437
I15
sS'block.thisRepN'
p438
I0
sg29
g33
sS'block.thisN'
p439
I15
sg291
(S'SUBTRACT'
S'INCREASE'
S'x'
S'y'
tp440
sg27
g28
sg293
L2L
sg294
(I6
I2
tp441
sg22
I1
sg20
F1.5334206375409849
sg23
F2.2999764474807307
sVY
L4L
sVX
L5L
sg296
L0L
sg35
g36
sg37
g38
sg21
S'2'
sg19
S'space'
p442
sg34
g11
sg299
L2L
sg300
g321
sg302
L2L
sS'block.thisIndex'
p443
I1
sg304
g297
sg306
L0L
sg308
g435
sa(dp444
S'block.thisTrialN'
p445
I16
sS'block.thisRepN'
p446
I0
sg29
g33
sS'block.thisN'
p447
I16
sg291
(S'DIVIDE'
S'TRIPLE'
S'HALF'
S'x'
S'y'
tp448
sg27
g28
sg293
L3L
sg294
(I4
I12
I4
tp449
sg22
I0
sg20
F3.1665542700502556
sg23
F5.2664702438341919
sVY
L3L
sVX
L8L
sg296
g316
sg35
g36
sg37
g38
sg21
S'9'
sg19
S'space'
p450
sg34
g11
sg299
L4L
sg300
g305
sg302
L4L
sS'block.thisIndex'
p451
I4
sg304
g339
sg306
L0L
sg308
g401
sa(dp452
S'block.thisTrialN'
p453
I17
sS'block.thisRepN'
p454
I0
sg29
g33
sS'block.thisN'
p455
I17
sg291
(S'DOUBLE'
S'ADD'
S'x'
S'y'
tp456
sg27
g28
sg293
L2L
sg294
(I4
I8
tp457
sg22
I1
sg20
F1.3500278746068943
sg23
F3.0832766100938898
sVY
L2L
sVX
L2L
sg296
L0L
sg35
g36
sg37
g38
sg21
S'8'
sg19
S'space'
p458
sg34
g11
sg299
L8L
sg300
g347
sg302
L8L
sS'block.thisIndex'
p459
I2
sg304
g301
sg306
L0L
sg308
g426
sa(dp460
S'block.thisTrialN'
p461
I0
sS'block.thisRepN'
p462
I0
sg29
g33
sS'block.thisN'
p463
I0
sVRule
p464
(S'ADD'
S'DECREASE'
S'x'
S'y'
tp465
sg27
g28
sVLength
p466
L2L
sVIntermediate
p467
(I2
I7
tp468
sg22
I1
sg20
F1.2833265848457813
sg23
F2.1499985476548318
sVY
L5L
sVX
L3L
sVOperatorc
p469
L0L
sg35
g36
sg37
g38
sg21
S'7'
sg19
S'space'
p470
sg34
g11
sVResult
p471
L7L
sVOperatora
p472
Vdecrease
p473
sVCorrectResponse
p474
L7L
sS'block.thisIndex'
p475
I0
sVOperatorb
p476
VADD
p477
sVOperatord
p478
L0L
sVStructure
p479
VBUxy
p480
sa(dp481
S'block.thisTrialN'
p482
I1
sS'block.thisRepN'
p483
I0
sg29
g33
sS'block.thisN'
p484
I1
sg464
(S'ADD'
S'TRIPLE'
S'DOUBLE'
S'DECREASE'
S'x'
S'y'
tp485
sg27
g28
sg466
L4L
sg467
(I1
I2
I6
I8
tp486
sg22
I1
sg20
F2.9832472481648438
sg23
F4.166521023522364
sVY
L2L
sVX
L2L
sg469
Vdouble
p487
sg35
g36
sg37
g38
sg21
S'8'
sg19
S'space'
p488
sg34
g11
sg471
L8L
sg472
Vtriple
p489
sg474
L8L
sS'block.thisIndex'
p490
I11
sg476
g477
sg478
g473
sg479
VBUUUxy
p491
sa(dp492
S'block.thisTrialN'
p493
I2
sS'block.thisRepN'
p494
I0
sg29
g33
sS'block.thisN'
p495
I2
sg464
(S'HALF'
S'INCREASE'
S'TIMES'
S'x'
S'y'
tp496
sg27
g28
sg466
L3L
sg467
(I9
I10
I5
tp497
sg22
I1
sg20
F1.2000370261375792
sg23
F3.1832720255770255
sVY
L3L
sVX
L3L
sg469
VTIMES
p498
sg35
g36
sg37
g38
sg21
S'5'
sg19
S'space'
p499
sg34
g11
sg471
L5L
sg472
Vincrease
p500
sg474
L5L
sS'block.thisIndex'
p501
I9
sg476
Vhalf
p502
sg478
L0L
sg479
VUUBxy
p503
sa(dp504
S'block.thisTrialN'
p505
I3
sS'block.thisRepN'
p506
I0
sg29
g33
sS'block.thisN'
p507
I3
sg464
(S'INCREASE'
S'HALF'
S'THIRD'
S'TIMES'
S'x'
S'y'
tp508
sg27
g28
sg466
L4L
sg467
(I12
I4
I2
I3
tp509
sg22
I1
sg20
F2.4833079668169376
sg23
F5.4997436517442111
sVY
L4L
sVX
L3L
sg469
Vthird
p510
sg35
g36
sg37
g38
sg21
S'3'
sg19
S'space'
p511
sg34
g11
sg471
L3L
sg472
g502
sg474
L3L
sS'block.thisIndex'
p512
I16
sg476
g500
sg478
g498
sg479
VUUUBxy
p513
sa(dp514
S'block.thisTrialN'
p515
I4
sS'block.thisRepN'
p516
I0
sg29
g33
sS'block.thisN'
p517
I4
sg464
(S'DOUBLE'
S'SUBTRACT'
S'INCREASE'
S'x'
S'y'
tp518
sg27
g28
sg466
L3L
sg467
(I4
I1
I2
tp519
sg22
I1
sg20
F1.9999863514385652
sg23
F2.2668940495932475
sVY
L3L
sVX
L3L
sg469
g500
sg35
g36
sg37
g38
sg21
S'2'
sg19
S'space'
p520
sg34
g11
sg471
L2L
sg472
VSUBTRACT
p521
sg474
L2L
sS'block.thisIndex'
p522
I6
sg476
g487
sg478
L0L
sg479
VUBUxy
p523
sa(dp524
S'block.thisTrialN'
p525
I5
sS'block.thisRepN'
p526
I0
sg29
g33
sS'block.thisN'
p527
I5
sg464
(S'ADD'
S'DOUBLE'
S'DECREASE'
S'x'
S'y'
tp528
sg27
g28
sg466
L3L
sg467
(I1
I2
I7
tp529
sg22
I1
sg20
F1.8331486109527759
sg23
F2.7166380688140634
sVY
L5L
sVX
L2L
sg469
g473
sg35
g36
sg37
g38
sg21
S'7'
sg19
S'space'
p530
sg34
g11
sg471
L7L
sg472
g487
sg474
L7L
sS'block.thisIndex'
p531
I4
sg476
g477
sg478
L0L
sg479
VBUUxy
p532
sa(dp533
S'block.thisTrialN'
p534
I6
sS'block.thisRepN'
p535
I0
sg29
g33
sS'block.thisN'
p536
I6
sg464
(S'ADD'
S'TRIPLE'
S'HALF'
S'x'
S'y'
tp537
sg27
g28
sg466
L3L
sg467
(I2
I6
I8
tp538
sg22
I1
sg20
F1.4667025495728012
sg23
F3.6165719607088249
sVY
L2L
sVX
L4L
sg469
g502
sg35
g36
sg37
g38
sg21
S'8'
sg19
S'space'
p539
sg34
g11
sg471
L8L
sg472
g489
sg474
L8L
sS'block.thisIndex'
p540
I5
sg476
g477
sg478
L0L
sg479
g532
sa(dp541
S'block.thisTrialN'
p542
I7
sS'block.thisRepN'
p543
I0
sg29
g33
sS'block.thisN'
p544
I7
sg464
(S'DECREASE'
S'SUBTRACT'
S'DOUBLE'
S'THIRD'
S'x'
S'y'
tp545
sg27
g28
sg466
L4L
sg467
(I3
I6
I4
I3
tp546
sg22
I1
sg20
F6.7162552087684162
sg23
F6.2329997365013696
sVY
L2L
sVX
L9L
sg469
g487
sg35
g36
sg37
g38
sg21
S'3'
sg19
S'space'
p547
sg34
g11
sg471
L3L
sg472
g521
sg474
L3L
sS'block.thisIndex'
p548
I13
sg476
g473
sg478
g510
sg479
VUBUUxy
p549
sa(dp550
S'block.thisTrialN'
p551
I8
sS'block.thisRepN'
p552
I0
sg29
g33
sS'block.thisN'
p553
I8
sg464
(S'DOUBLE'
S'THIRD'
S'ADD'
S'x'
S'y'
tp554
sg27
g28
sg466
L3L
sg467
(I9
I3
I6
tp555
sg22
I1
sg20
F1.1834011620958336
sg23
F2.2333483000984415
sVY
L4L
sVX
L5L
sg469
g477
sg35
g36
sg37
g38
sg21
S'6'
sg19
S'space'
p556
sg34
g11
sg471
L6L
sg472
g510
sg474
L6L
sS'block.thisIndex'
p557
I8
sg476
g487
sg478
L0L
sg479
g503
sa(dp558
S'block.thisTrialN'
p559
I9
sS'block.thisRepN'
p560
I0
sg29
g33
sS'block.thisN'
p561
I9
sg464
(S'DECREASE'
S'DOUBLE'
S'TIMES'
S'THIRD'
S'x'
S'y'
tp562
sg27
g28
sg466
L4L
sg467
(I1
I3
I6
I5
tp563
sg22
I1
sg20
F5.7830023436981719
sg23
F3.7332130392314866
sVY
L3L
sVX
L3L
sg469
g498
sg35
g36
sg37
g38
sg21
S'5'
sg19
S'space'
p564
sg34
g11
sg471
L5L
sg472
g487
sg474
L5L
sS'block.thisIndex'
p565
I14
sg476
g473
sg478
g510
sg479
VUUBUxy
p566
sa(dp567
S'block.thisTrialN'
p568
I10
sS'block.thisRepN'
p569
I0
sg29
g33
sS'block.thisN'
p570
I10
sg464
(S'DIVIDE'
S'DECREASE'
S'x'
S'y'
tp571
sg27
g28
sg466
L2L
sg467
(I8
I2
tp572
sg22
I1
sg20
F1.0167468024592381
sg23
F1.9000532294448931
sVY
L4L
sVX
L9L
sg469
L0L
sg35
g36
sg37
g38
sg21
S'2'
sg19
S'space'
p573
sg34
g11
sg471
L2L
sg472
g473
sg474
L2L
sS'block.thisIndex'
p574
I1
sg476
VDIVIDE
p575
sg478
L0L
sg479
g480
sa(dp576
S'block.thisTrialN'
p577
I11
sS'block.thisRepN'
p578
I0
sg29
g33
sS'block.thisN'
p579
I11
sg464
(S'HALF'
S'ADD'
S'x'
S'y'
tp580
sg27
g28
sg466
L2L
sg467
(I12
I6
tp581
sg22
I1
sg20
F1.0167296542495023
sg23
F1.8833788694173563
sVY
L8L
sVX
L4L
sg469
L0L
sg35
g36
sg37
g38
sg21
S'6'
sg19
S'space'
p582
sg34
g11
sg471
L6L
sg472
g477
sg474
L6L
sS'block.thisIndex'
p583
I3
sg476
g502
sg478
L0L
sg479
VUBxy
p584
sa(dp585
S'block.thisTrialN'
p586
I12
sS'block.thisRepN'
p587
I0
sg29
g33
sS'block.thisN'
p588
I12
sg464
(S'ADD'
S'DECREASE'
S'THIRD'
S'DOUBLE'
S'x'
S'y'
tp589
sg27
g28
sg466
L4L
sg467
(I18
I6
I5
I9
tp590
sg22
I1
sg20
F4.5164631570514757
sg23
F8.8827611838642042
sVY
L4L
sVX
L9L
sg469
g510
sg35
g36
sg37
g38
sg21
S'9'
sg19
S'space'
p591
sg34
g11
sg471
L9L
sg472
g473
sg474
L9L
sS'block.thisIndex'
p592
I10
sg476
g477
sg478
g487
sg479
g491
sa(dp593
S'block.thisTrialN'
p594
I13
sS'block.thisRepN'
p595
I0
sg29
g33
sS'block.thisN'
p596
I13
sg464
(S'INCREASE'
S'ADD'
S'HALF'
S'x'
S'y'
tp597
sg27
g28
sg466
L3L
sg467
(I1
I4
I5
tp598
sg22
I1
sg20
F1.7833505573798902
sg23
F4.8997953063517343
sVY
L3L
sVX
L2L
sg469
g502
sg35
g36
sg37
g38
sg21
S'5'
sg19
S'space'
p599
sg34
g11
sg471
L5L
sg472
g477
sg474
L5L
sS'block.thisIndex'
p600
I7
sg476
g500
sg478
L0L
sg479
g523
sa(dp601
S'block.thisTrialN'
p602
I14
sS'block.thisRepN'
p603
I0
sg29
g33
sS'block.thisN'
p604
I14
sg464
(S'DECREASE'
S'TRIPLE'
S'SUBTRACT'
S'DOUBLE'
S'x'
S'y'
tp605
sg27
g28
sg466
L4L
sg467
(I6
I3
I9
I8
tp606
sg22
I1
sg20
F8.199513480765745
sg23
F7.432837983360514
sVY
L3L
sVX
L3L
sg469
g521
sg35
g36
sg37
g38
sg21
S'8'
sg19
S'space'
p607
sg34
g11
sg471
L8L
sg472
g489
sg474
L8L
sS'block.thisIndex'
p608
I15
sg476
g473
sg478
g487
sg479
g566
sa(dp609
S'block.thisTrialN'
p610
I15
sS'block.thisRepN'
p611
I0
sg29
g33
sS'block.thisN'
p612
I15
sg464
(S'THIRD'
S'HALF'
S'INCREASE'
S'SUBTRACT'
S'x'
S'y'
tp613
sg27
g28
sg466
L4L
sg467
(I5
I6
I3
I1
tp614
sg22
I1
sg20
F7.5995283892261796
sg23
F6.9996157401183154
sVY
L2L
sVX
L7L
sg469
g500
sg35
g36
sg37
g38
sg21
S'1'
sg19
S'space'
p615
sg34
g11
sg471
L1L
sg472
g502
sg474
L1L
sS'block.thisIndex'
p616
I17
sg476
g510
sg478
g521
sg479
g513
sa(dp617
S'block.thisTrialN'
p618
I16
sS'block.thisRepN'
p619
I0
sg29
g33
sS'block.thisN'
p620
I16
sg464
(S'DECREASE'
S'ADD'
S'THIRD'
S'HALF'
S'x'
S'y'
tp621
sg27
g28
sg466
L4L
sg467
(I3
I1
I7
I6
tp622
sg22
I1
sg20
F3.9665172439126763
sg23
F10.515977407747414
sVY
L6L
sVX
L6L
sg469
g510
sg35
g36
sg37
g38
sg21
S'6'
sg19
S'space'
p623
sg34
g11
sg471
L6L
sg472
g477
sg474
L6L
sS'block.thisIndex'
p624
I12
sg476
g473
sg478
g502
sg479
g549
sa(dp625
S'block.thisTrialN'
p626
I17
sS'block.thisRepN'
p627
I0
sg29
g33
sS'block.thisN'
p628
I17
sg464
(S'DECREASE'
S'TIMES'
S'x'
S'y'
tp629
sg27
g28
sg466
L2L
sg467
(I9
I8
tp630
sg22
I1
sg20
F1.000144184945384
sg23
F1.5667445102299098
sVY
L3L
sVX
L3L
sg469
L0L
sg35
g36
sg37
g38
sg21
S'8'
sg19
S'space'
p631
sg34
g11
sg471
L8L
sg472
g498
sg474
L8L
sS'block.thisIndex'
p632
I2
sg476
g473
sg478
L0L
sg479
g584
sa(dp633
S'block.thisTrialN'
p634
I0
sS'block.thisRepN'
p635
I0
sg29
g33
sS'block.thisN'
p636
I0
sVRule
p637
(S'THIRD'
S'HALF'
S'ADD'
S'x'
S'y'
tp638
sg27
g28
sVLength
p639
L3L
sVIntermediate
p640
(I6
I3
I1
tp641
sg22
I1
sg20
F2.7499286949168891
sg23
F3.7165523277653847
sVY
L3L
sVX
L3L
sVOperatorc
p642
VADD
p643
sg35
g36
sg37
g38
sg21
S'1'
sg19
S'space'
p644
sg34
g11
sVResult
p645
L1L
sVOperatora
p646
Vhalf
p647
sVCorrectResponse
p648
L1L
sS'block.thisIndex'
p649
I9
sVOperatorb
p650
Vthird
p651
sVOperatord
p652
L0L
sVStructure
p653
VUUBxy
p654
sa(dp655
S'block.thisTrialN'
p656
I1
sS'block.thisRepN'
p657
I0
sg29
g33
sS'block.thisN'
p658
I1
sg637
(S'ADD'
S'DOUBLE'
S'DECREASE'
S'THIRD'
S'x'
S'y'
tp659
sg27
g28
sg639
L4L
sg640
(I2
I1
I2
I8
tp660
sg22
I1
sg20
F8.4660614164895378
sg23
F6.3996540961088613
sVY
L6L
sVX
L6L
sg642
Vdecrease
p661
sg35
g36
sg37
g38
sg21
S'8'
sg19
S'space'
p662
sg34
g11
sg645
L8L
sg646
Vdouble
p663
sg648
L8L
sS'block.thisIndex'
p664
I10
sg650
g643
sg652
g651
sg653
VBUUUxy
p665
sa(dp666
S'block.thisTrialN'
p667
I2
sS'block.thisRepN'
p668
I0
sg29
g33
sS'block.thisN'
p669
I2
sg637
(S'DIVIDE'
S'INCREASE'
S'x'
S'y'
tp670
sg27
g28
sg639
L2L
sg640
(I4
I2
tp671
sg22
I1
sg20
F1.3667291818128433
sg23
F1.2667386658431496
sVY
L2L
sVX
L3L
sg642
L0L
sg35
g36
sg37
g38
sg21
S'2'
sg19
S'space'
p672
sg34
g11
sg645
L2L
sg646
Vincrease
p673
sg648
L2L
sS'block.thisIndex'
p674
I0
sg650
VDIVIDE
p675
sg652
L0L
sg653
VBUxy
p676
sa(dp677
S'block.thisTrialN'
p678
I3
sS'block.thisRepN'
p679
I0
sg29
g33
sS'block.thisN'
p680
I3
sg637
(S'THIRD'
S'TIMES'
S'DOUBLE'
S'DECREASE'
S'x'
S'y'
tp681
sg27
g28
sg639
L4L
sg640
(I1
I2
I6
I2
tp682
sg22
I1
sg20
F6.8495919950655662
sg23
F6.183003953541629
sVY
L3L
sVX
L2L
sg642
g663
sg35
g36
sg37
g38
sg21
S'2'
sg19
S'space'
p683
sg34
g11
sg645
L2L
sg646
VTIMES
p684
sg648
L2L
sS'block.thisIndex'
p685
I13
sg650
g651
sg652
g661
sg653
VUBUUxy
p686
sa(dp687
S'block.thisTrialN'
p688
I4
sS'block.thisRepN'
p689
I0
sg29
g33
sS'block.thisN'
p690
I4
sg637
(S'SUBTRACT'
S'DECREASE'
S'TRIPLE'
S'DOUBLE'
S'x'
S'y'
tp691
sg27
g28
sg639
L4L
sg640
(I6
I18
I17
I8
tp692
sg22
I1
sg20
F6.949581811146345
sg23
F14.299009148409823
sVY
L9L
sVX
L3L
sg642
Vtriple
p693
sg35
g36
sg37
g38
sg21
S'8'
sg19
S'space'
p694
sg34
g11
sg645
L8L
sg646
g661
sg648
L8L
sS'block.thisIndex'
p695
I11
sg650
VSUBTRACT
p696
sg652
g663
sg653
g665
sa(dp697
S'block.thisTrialN'
p698
I5
sS'block.thisRepN'
p699
I0
sg29
g33
sS'block.thisN'
p700
I5
sg637
(S'DOUBLE'
S'ADD'
S'INCREASE'
S'THIRD'
S'x'
S'y'
tp701
sg27
g28
sg639
L4L
sg640
(I1
I2
I4
I8
tp702
sg22
I1
sg20
F6.8495835959620308
sg23
F3.6832193560840096
sVY
L2L
sVX
L3L
sg642
g673
sg35
g36
sg37
g38
sg21
S'8'
sg19
S'space'
p703
sg34
g11
sg645
L8L
sg646
g643
sg648
L8L
sS'block.thisIndex'
p704
I12
sg650
g663
sg652
g651
sg653
g686
sa(dp705
S'block.thisTrialN'
p706
I6
sS'block.thisRepN'
p707
I0
sg29
g33
sS'block.thisN'
p708
I6
sg637
(S'HALF'
S'TRIPLE'
S'INCREASE'
S'DIVIDE'
S'x'
S'y'
tp709
sg27
g28
sg639
L4L
sg640
(I3
I4
I12
I6
tp710
sg22
I1
sg20
F6.6329096558620222
sg23
F8.9161064043000806
sVY
L3L
sVX
L9L
sg642
g673
sg35
g36
sg37
g38
sg21
S'6'
sg19
S'space'
p711
sg34
g11
sg645
L6L
sg646
g693
sg648
L6L
sS'block.thisIndex'
p712
I16
sg650
g647
sg652
g675
sg653
VUUUBxy
p713
sa(dp714
S'block.thisTrialN'
p715
I7
sS'block.thisRepN'
p716
I0
sg29
g33
sS'block.thisN'
p717
I7
sg637
(S'THIRD'
S'INCREASE'
S'DIVIDE'
S'DOUBLE'
S'x'
S'y'
tp718
sg27
g28
sg639
L4L
sg640
(I18
I2
I3
I1
tp719
sg22
I1
sg20
F6.1995512768335175
sg23
F8.9659859993553255
sVY
L9L
sVX
L9L
sg642
g675
sg35
g36
sg37
g38
sg21
S'1'
sg19
S'space'
p720
sg34
g11
sg645
L1L
sg646
g673
sg648
L1L
sS'block.thisIndex'
p721
I15
sg650
g651
sg652
g663
sg653
VUUBUxy
p722
sa(dp723
S'block.thisTrialN'
p724
I8
sS'block.thisRepN'
p725
I0
sg29
g33
sS'block.thisN'
p726
I8
sg637
(S'INCREASE'
S'SUBTRACT'
S'HALF'
S'x'
S'y'
tp727
sg27
g28
sg639
L3L
sg640
(I4
I2
I3
tp728
sg22
I1
sg20
F5.4830314956489019
sg23
F4.9997739235986955
sVY
L2L
sVX
L8L
sg642
g647
sg35
g36
sg37
g38
sg21
S'3'
sg19
S'space'
p729
sg34
g11
sg645
L3L
sg646
g696
sg648
L3L
sS'block.thisIndex'
p730
I7
sg650
g673
sg652
L0L
sg653
VUBUxy
p731
sa(dp732
S'block.thisTrialN'
p733
I9
sS'block.thisRepN'
p734
I0
sg29
g33
sS'block.thisN'
p735
I9
sg637
(S'HALF'
S'ADD'
S'TRIPLE'
S'x'
S'y'
tp736
sg27
g28
sg639
L3L
sg640
(I9
I12
I6
tp737
sg22
I1
sg20
F5.3997191892995033
sg23
F2.6499983726826031
sVY
L3L
sVX
L3L
sg642
g693
sg35
g36
sg37
g38
sg21
S'6'
sg19
S'space'
p738
sg34
g11
sg645
L6L
sg646
g643
sg648
L6L
sS'block.thisIndex'
p739
I6
sg650
g647
sg652
L0L
sg653
g731
sa(dp740
S'block.thisTrialN'
p741
I10
sS'block.thisRepN'
p742
I0
sg29
g33
sS'block.thisN'
p743
I10
sg637
(S'DECREASE'
S'DIVIDE'
S'x'
S'y'
tp744
sg27
g28
sg639
L2L
sg640
(I2
I1
tp745
sg22
I1
sg20
F1.6500043220585212
sg23
F1.2668153078120667
sVY
L4L
sVX
L8L
sg642
L0L
sg35
g36
sg37
g38
sg21
S'1'
sg19
S'space'
p746
sg34
g11
sg645
L1L
sg646
g675
sg648
L1L
sS'block.thisIndex'
p747
I2
sg650
g661
sg652
L0L
sg653
VUBxy
p748
sa(dp749
S'block.thisTrialN'
p750
I11
sS'block.thisRepN'
p751
I0
sg29
g33
sS'block.thisN'
p752
I11
sg637
(S'THIRD'
S'DOUBLE'
S'INCREASE'
S'TIMES'
S'x'
S'y'
tp753
sg27
g28
sg639
L4L
sg640
(I8
I9
I18
I6
tp754
sg22
I1
sg20
F8.0161158183182124
sg23
F6.116365657246206
sVY
L4L
sVX
L2L
sg642
g673
sg35
g36
sg37
g38
sg21
S'6'
sg19
S'space'
p755
sg34
g11
sg645
L6L
sg646
g663
sg648
L6L
sS'block.thisIndex'
p756
I17
sg650
g651
sg652
g684
sg653
g713
sa(dp757
S'block.thisTrialN'
p758
I12
sS'block.thisRepN'
p759
I0
sg29
g33
sS'block.thisN'
p760
I12
sg637
(S'DIVIDE'
S'DECREASE'
S'TRIPLE'
S'x'
S'y'
tp761
sg27
g28
sg639
L3L
sg640
(I9
I8
I4
tp762
sg22
I1
sg20
F2.9665847868600395
sg23
F3.5499354142230004
sVY
L2L
sVX
L3L
sg642
g693
sg35
g36
sg37
g38
sg21
S'4'
sg19
S'space'
p763
sg34
g11
sg645
L4L
sg646
g661
sg648
L4L
sS'block.thisIndex'
p764
I5
sg650
g675
sg652
L0L
sg653
VBUUxy
p765
sa(dp766
S'block.thisTrialN'
p767
I13
sS'block.thisRepN'
p768
I0
sg29
g33
sS'block.thisN'
p769
I13
sg637
(S'SUBTRACT'
S'DECREASE'
S'x'
S'y'
tp770
sg27
g28
sg639
L2L
sg640
(I5
I3
tp771
sg22
I1
sg20
F1.8999758874997497
sg23
F2.3333444154995959
sVY
L2L
sVX
L6L
sg642
L0L
sg35
g36
sg37
g38
sg21
S'3'
sg19
S'space'
p772
sg34
g11
sg645
L3L
sg646
g661
sg648
L3L
sS'block.thisIndex'
p773
I1
sg650
g696
sg652
L0L
sg653
g676
sa(dp774
S'block.thisTrialN'
p775
I14
sS'block.thisRepN'
p776
I0
sg29
g33
sS'block.thisN'
p777
I14
sg637
(S'THIRD'
S'DOUBLE'
S'ADD'
S'DECREASE'
S'x'
S'y'
tp778
sg27
g28
sg639
L4L
sg640
(I5
I12
I24
I8
tp779
sg22
I1
sg20
F3.683173160883598
sg23
F9.2993825594312511
sVY
L7L
sVX
L6L
sg642
g643
sg35
g36
sg37
g38
sg21
S'8'
sg19
S'space'
p780
sg34
g11
sg645
L8L
sg646
g663
sg648
L8L
sS'block.thisIndex'
p781
I14
sg650
g651
sg652
g661
sg653
g722
sa(dp782
S'block.thisTrialN'
p783
I15
sS'block.thisRepN'
p784
I0
sg29
g33
sS'block.thisN'
p785
I15
sg637
(S'INCREASE'
S'TRIPLE'
S'DIVIDE'
S'x'
S'y'
tp786
sg27
g28
sg639
L3L
sg640
(I2
I6
I7
tp787
sg22
I1
sg20
F2.2666305270977318
sg23
F5.0664276182942558
sVY
L3L
sVX
L6L
sg642
g675
sg35
g36
sg37
g38
sg21
S'7'
sg19
S'space'
p788
sg34
g11
sg645
L7L
sg646
g693
sg648
L7L
sS'block.thisIndex'
p789
I8
sg650
g673
sg652
L0L
sg653
g654
sa(dp790
S'block.thisTrialN'
p791
I16
sS'block.thisRepN'
p792
I0
sg29
g33
sS'block.thisN'
p793
I16
sg637
(S'INCREASE'
S'ADD'
S'x'
S'y'
tp794
sg27
g28
sg639
L2L
sg640
(I5
I6
tp795
sg22
I1
sg20
F1.3333748623554129
sg23
F3.4499186509638093
sVY
L2L
sVX
L3L
sg642
L0L
sg35
g36
sg37
g38
sg21
S'6'
sg19
S'space'
p796
sg34
g11
sg645
L6L
sg646
g643
sg648
L6L
sS'block.thisIndex'
p797
I3
sg650
g673
sg652
L0L
sg653
g748
sa(dp798
S'block.thisTrialN'
p799
I17
sS'block.thisRepN'
p800
I0
sg29
g33
sS'block.thisN'
p801
I17
sg637
(S'ADD'
S'HALF'
S'THIRD'
S'x'
S'y'
tp802
sg27
g28
sg639
L3L
sg640
(I2
I1
I9
tp803
sg22
I1
sg20
F2.9832398988946807
sg23
F3.9998708634811919
sVY
L8L
sVX
L6L
sg642
g651
sg35
g36
sg37
g38
sg21
S'9'
sg19
S'space'
p804
sg34
g11
sg645
L9L
sg646
g647
sg648
L9L
sS'block.thisIndex'
p805
I4
sg650
g643
sg652
L0L
sg653
g765
sa(dp806
S'block.thisTrialN'
p807
I0
sS'block.thisRepN'
p808
I0
sg29
g33
sS'block.thisN'
p809
I0
sVRule
p810
(S'THIRD'
S'DECREASE'
S'TIMES'
S'x'
S'y'
tp811
sg27
g28
sVLength
p812
L3L
sVIntermediate
p813
(I25
I24
I8
tp814
sg22
I1
sg20
F1.5331700636888854
sg23
F3.5665761777781881
sVY
L5L
sVX
L5L
sVOperatorc
p815
VTIMES
p816
sg35
g36
sg37
g38
sg21
S'8'
sg19
S'space'
p817
sg34
g11
sVResult
p818
L8L
sVOperatora
p819
Vdecrease
p820
sVCorrectResponse
p821
L8L
sS'block.thisIndex'
p822
I8
sVOperatorb
p823
Vthird
p824
sVOperatord
p825
L0L
sVStructure
p826
VUUBxy
p827
sa(dp828
S'block.thisTrialN'
p829
I1
sS'block.thisRepN'
p830
I0
sg29
g33
sS'block.thisN'
p831
I1
sg810
(S'THIRD'
S'ADD'
S'INCREASE'
S'x'
S'y'
tp832
sg27
g28
sg812
L3L
sg813
(I8
I15
I5
tp833
sg22
I1
sg20
F1.5167126810410991
sg23
F2.2500149609404616
sVY
L7L
sVX
L7L
sg815
Vincrease
p834
sg35
g36
sg37
g38
sg21
S'5'
sg19
S'space'
p835
sg34
g11
sg818
L5L
sg819
VADD
p836
sg821
L5L
sS'block.thisIndex'
p837
I6
sg823
g824
sg825
L0L
sg826
VUBUxy
p838
sa(dp839
S'block.thisTrialN'
p840
I2
sS'block.thisRepN'
p841
I0
sg29
g33
sS'block.thisN'
p842
I2
sg810
(S'THIRD'
S'SUBTRACT'
S'x'
S'y'
tp843
sg27
g28
sg812
L2L
sg813
(I3
I1
tp844
sg22
I1
sg20
F1.3833618961798493
sg23
F1.9000364312087186
sVY
L2L
sVX
L5L
sg815
L0L
sg35
g36
sg37
g38
sg21
S'1'
sg19
S'space'
p845
sg34
g11
sg818
L1L
sg819
VSUBTRACT
p846
sg821
L1L
sS'block.thisIndex'
p847
I3
sg823
g824
sg825
L0L
sg826
VUBxy
p848
sa(dp849
S'block.thisTrialN'
p850
I3
sS'block.thisRepN'
p851
I0
sg29
g33
sS'block.thisN'
p852
I3
sg810
(S'THIRD'
S'DOUBLE'
S'ADD'
S'INCREASE'
S'x'
S'y'
tp853
sg27
g28
sg812
L4L
sg813
(I10
I12
I24
I8
tp854
sg22
I1
sg20
F5.5163686669257004
sg23
F4.6497939940018114
sVY
L2L
sVX
L9L
sg815
g836
sg35
g36
sg37
g38
sg21
S'8'
sg19
S'space'
p855
sg34
g11
sg818
L8L
sg819
Vdouble
p856
sg821
L8L
sS'block.thisIndex'
p857
I14
sg823
g824
sg825
g834
sg826
VUUBUxy
p858
sa(dp859
S'block.thisTrialN'
p860
I4
sS'block.thisRepN'
p861
I0
sg29
g33
sS'block.thisN'
p862
I4
sg810
(S'TIMES'
S'THIRD'
S'HALF'
S'x'
S'y'
tp863
sg27
g28
sg812
L3L
sg813
(I3
I1
I5
tp864
sg22
I1
sg20
F2.1999701831082348
sg23
F3.1499432534037624
sVY
L5L
sVX
L6L
sg815
Vhalf
p865
sg35
g36
sg37
g38
sg21
S'5'
sg19
S'space'
p866
sg34
g11
sg818
L5L
sg819
g824
sg821
L5L
sS'block.thisIndex'
p867
I5
sg823
g816
sg825
L0L
sg826
VBUUxy
p868
sa(dp869
S'block.thisTrialN'
p870
I5
sS'block.thisRepN'
p871
I0
sg29
g33
sS'block.thisN'
p872
I5
sg810
(S'THIRD'
S'ADD'
S'x'
S'y'
tp873
sg27
g28
sg812
L2L
sg813
(I9
I3
tp874
sg22
I1
sg20
F1.5667060142150149
sg23
F1.6167490422376432
sVY
L5L
sVX
L4L
sg815
L0L
sg35
g36
sg37
g38
sg21
S'3'
sg19
S'space'
p875
sg34
g11
sg818
L3L
sg819
g836
sg821
L3L
sS'block.thisIndex'
p876
I2
sg823
g824
sg825
L0L
sg826
g848
sa(dp877
S'block.thisTrialN'
p878
I6
sS'block.thisRepN'
p879
I0
sg29
g33
sS'block.thisN'
p880
I6
sg810
(S'THIRD'
S'INCREASE'
S'HALF'
S'DIVIDE'
S'x'
S'y'
tp881
sg27
g28
sg812
L4L
sg813
(I4
I2
I3
I1
tp882
sg22
I1
sg20
F3.3496537636383437
sg23
F3.8998820973210968
sVY
L2L
sVX
L8L
sg815
g865
sg35
g36
sg37
g38
sg21
S'1'
sg19
S'space'
p883
sg34
g11
sg818
L1L
sg819
g834
sg821
L1L
sS'block.thisIndex'
p884
I16
sg823
g824
sg825
VDIVIDE
p885
sg826
VUUUBxy
p886
sa(dp887
S'block.thisTrialN'
p888
I7
sS'block.thisRepN'
p889
I0
sg29
g33
sS'block.thisN'
p890
I7
sg810
(S'SUBTRACT'
S'HALF'
S'INCREASE'
S'TRIPLE'
S'x'
S'y'
tp891
sg27
g28
sg812
L4L
sg813
(I15
I16
I8
I3
tp892
sg22
I1
sg20
F8.949405079591088
sg23
F3.0666064496326726
sVY
L5L
sVX
L5L
sg815
g834
sg35
g36
sg37
g38
sg21
S'3'
sg19
S'space'
p893
sg34
g11
sg818
L3L
sg819
g865
sg821
L3L
sS'block.thisIndex'
p894
I10
sg823
g846
sg825
Vtriple
p895
sg826
VBUUUxy
p896
sa(dp897
S'block.thisTrialN'
p898
I8
sS'block.thisRepN'
p899
I0
sg29
g33
sS'block.thisN'
p900
I8
sg810
(S'TIMES'
S'DECREASE'
S'HALF'
S'x'
S'y'
tp901
sg27
g28
sg812
L3L
sg813
(I4
I3
I9
tp902
sg22
I1
sg20
F1.8333270923176315
sg23
F2.8332794972811826
sVY
L3L
sVX
L8L
sg815
g865
sg35
g36
sg37
g38
sg21
S'9'
sg19
S'space'
p903
sg34
g11
sg818
L9L
sg819
g820
sg821
L9L
sS'block.thisIndex'
p904
I4
sg823
g816
sg825
L0L
sg826
g868
sa(dp905
S'block.thisTrialN'
p906
I9
sS'block.thisRepN'
p907
I0
sg29
g33
sS'block.thisN'
p908
I9
sg810
(S'TRIPLE'
S'SUBTRACT'
S'DOUBLE'
S'DECREASE'
S'x'
S'y'
tp909
sg27
g28
sg812
L4L
sg813
(I2
I4
I1
I3
tp910
sg22
I1
sg20
F5.0330533508677036
sg23
F2.9499604716256727
sVY
L3L
sVX
L3L
sg815
g856
sg35
g36
sg37
g38
sg21
S'3'
sg19
S'space'
p911
sg34
g11
sg818
L3L
sg819
g846
sg821
L3L
sS'block.thisIndex'
p912
I13
sg823
g895
sg825
g820
sg826
VUBUUxy
p913
sa(dp914
S'block.thisTrialN'
p915
I10
sS'block.thisRepN'
p916
I0
sg29
g33
sS'block.thisN'
p917
I10
sg810
(S'TRIPLE'
S'HALF'
S'ADD'
S'DECREASE'
S'x'
S'y'
tp918
sg27
g28
sg812
L4L
sg813
(I1
I4
I2
I6
tp919
sg22
I1
sg20
F3.4665377167693805
sg23
F4.8830768509069458
sVY
L3L
sVX
L2L
sg815
g836
sg35
g36
sg37
g38
sg21
S'6'
sg19
S'space'
p920
sg34
g11
sg818
L6L
sg819
g865
sg821
L6L
sS'block.thisIndex'
p921
I15
sg823
g895
sg825
g820
sg826
g858
sa(dp922
S'block.thisTrialN'
p923
I11
sS'block.thisRepN'
p924
I0
sg29
g33
sS'block.thisN'
p925
I11
sg810
(S'INCREASE'
S'DIVIDE'
S'TRIPLE'
S'DOUBLE'
S'x'
S'y'
tp926
sg27
g28
sg812
L4L
sg813
(I6
I18
I3
I4
tp927
sg22
I1
sg20
F3.2665934309770819
sg23
F9.48270602960838
sVY
L6L
sVX
L3L
sg815
g895
sg35
g36
sg37
g38
sg21
S'4'
sg19
S'space'
p928
sg34
g11
sg818
L4L
sg819
g885
sg821
L4L
sS'block.thisIndex'
p929
I12
sg823
g834
sg825
g856
sg826
g913
sa(dp930
S'block.thisTrialN'
p931
I12
sS'block.thisRepN'
p932
I0
sg29
g33
sS'block.thisN'
p933
I12
sg810
(S'TIMES'
S'INCREASE'
S'x'
S'y'
tp934
sg27
g28
sg812
L2L
sg813
(I3
I6
tp935
sg22
I1
sg20
F0.81676402068114839
sg23
F2.5000015748373698
sVY
L2L
sVX
L2L
sg815
L0L
sg35
g36
sg37
g38
sg21
S'6'
sg19
S'space'
p936
sg34
g11
sg818
L6L
sg819
g834
sg821
L6L
sS'block.thisIndex'
p937
I1
sg823
g816
sg825
L0L
sg826
VBUxy
p938
sa(dp939
S'block.thisTrialN'
p940
I13
sS'block.thisRepN'
p941
I0
sg29
g33
sS'block.thisN'
p942
I13
sg810
(S'THIRD'
S'TIMES'
S'DECREASE'
S'x'
S'y'
tp943
sg27
g28
sg812
L3L
sg813
(I3
I15
I5
tp944
sg22
I1
sg20
F3.4665387666609604
sg23
F5.2664222988241818
sVY
L5L
sVX
L4L
sg815
g820
sg35
g36
sg37
g38
sg21
S'5'
sg19
S'space'
p945
sg34
g11
sg818
L5L
sg819
g816
sg821
L5L
sS'block.thisIndex'
p946
I7
sg823
g824
sg825
L0L
sg826
g838
sa(dp947
S'block.thisTrialN'
p948
I14
sS'block.thisRepN'
p949
I0
sg29
g33
sS'block.thisN'
p950
I14
sg810
(S'TRIPLE'
S'HALF'
S'DIVIDE'
S'x'
S'y'
tp951
sg27
g28
sg812
L3L
sg813
(I2
I1
I3
tp952
sg22
I1
sg20
F2.2332741078280378
sg23
F1.766729041817598
sVY
L2L
sVX
L4L
sg815
g885
sg35
g36
sg37
g38
sg21
S'3'
sg19
S'space'
p953
sg34
g11
sg818
L3L
sg819
g865
sg821
L3L
sS'block.thisIndex'
p954
I9
sg823
g895
sg825
L0L
sg826
g827
sa(dp955
S'block.thisTrialN'
p956
I15
sS'block.thisRepN'
p957
I0
sg29
g33
sS'block.thisN'
p958
I15
sg810
(S'TIMES'
S'INCREASE'
S'THIRD'
S'DOUBLE'
S'x'
S'y'
tp959
sg27
g28
sg812
L4L
sg813
(I6
I2
I3
I9
tp960
sg22
I1
sg20
F4.9829910748812836
sg23
F3.9665742879733443
sVY
L3L
sVX
L3L
sg815
g824
sg35
g36
sg37
g38
sg21
S'9'
sg19
S'space'
p961
sg34
g11
sg818
L9L
sg819
g834
sg821
L9L
sS'block.thisIndex'
p962
I11
sg823
g816
sg825
g856
sg826
g896
sa(dp963
S'block.thisTrialN'
p964
I16
sS'block.thisRepN'
p965
I0
sg29
g33
sS'block.thisN'
p966
I16
sg810
(S'TRIPLE'
S'DECREASE'
S'HALF'
S'TIMES'
S'x'
S'y'
tp967
sg27
g28
sg812
L4L
sg813
(I6
I3
I2
I6
tp968
sg22
I1
sg20
F8.3328215700748842
sg23
F4.4831648317340296
sVY
L2L
sVX
L3L
sg815
g865
sg35
g36
sg37
g38
sg21
S'6'
sg19
S'space'
p969
sg34
g11
sg818
L6L
sg819
g820
sg821
L6L
sS'block.thisIndex'
p970
I17
sg823
g895
sg825
g816
sg826
g886
sa(dp971
S'block.thisTrialN'
p972
I17
sS'block.thisRepN'
p973
I0
sg29
g33
sS'block.thisN'
p974
I17
sg810
(S'TIMES'
S'DECREASE'
S'x'
S'y'
tp975
sg27
g28
sg812
L2L
sg813
(I2
I4
tp976
sg22
I1
sg20
F1.2667327164381277
sg23
F3.0499712854798418
sVY
L2L
sVX
L3L
sg815
L0L
sg35
g36
sg37
g38
sg21
S'4'
sg19
S'space'
p977
sg34
g11
sg818
L4L
sg819
g820
sg821
L4L
sS'block.thisIndex'
p978
I0
sg823
g816
sg825
L0L
sg826
g938
sa(dp979
S'block.thisTrialN'
p980
I0
sS'block.thisRepN'
p981
I0
sg29
g33
sS'block.thisN'
p982
I0
sVRule
p983
(S'DOUBLE'
S'THIRD'
S'TIMES'
S'x'
S'y'
tp984
sg27
g28
sVLength
p985
L3L
sVIntermediate
p986
(I12
I4
I8
tp987
sg22
I1
sg20
F3.1332265477976762
sg23
F2.9500546118069906
sVY
L6L
sVX
L2L
sVOperatorc
p988
VTIMES
p989
sg35
g36
sg37
g38
sg21
S'8'
sg19
S'space'
p990
sg34
g11
sVResult
p991
L8L
sVOperatora
p992
Vthird
p993
sVCorrectResponse
p994
L8L
sS'block.thisIndex'
p995
I9
sVOperatorb
p996
Vdouble
p997
sVOperatord
p998
L0L
sVStructure
p999
VUUBxy
p1000
sa(dp1001
S'block.thisTrialN'
p1002
I1
sS'block.thisRepN'
p1003
I0
sg29
g33
sS'block.thisN'
p1004
I1
sg983
(S'TIMES'
S'DOUBLE'
S'x'
S'y'
tp1005
sg27
g28
sg985
L2L
sg986
(I4
I8
tp1006
sg22
I1
sg20
F1.4833604613377247
sg23
F1.3000947351101786
sVY
L2L
sVX
L2L
sg988
L0L
sg35
g36
sg37
g38
sg21
S'8'
sg19
S'space'
p1007
sg34
g11
sg991
L8L
sg992
g997
sg994
L8L
sS'block.thisIndex'
p1008
I1
sg996
g989
sg998
L0L
sg999
VBUxy
p1009
sa(dp1010
S'block.thisTrialN'
p1011
I2
sS'block.thisRepN'
p1012
I0
sg29
g33
sS'block.thisN'
p1013
I2
sg983
(S'DOUBLE'
S'DIVIDE'
S'TRIPLE'
S'INCREASE'
S'x'
S'y'
tp1014
sg27
g28
sg985
L4L
sg986
(I5
I15
I3
I6
tp1015
sg22
I1
sg20
F5.8163265663315542
sg23
F5.4997541506600101
sVY
L5L
sVX
L4L
sg988
Vtriple
p1016
sg35
g36
sg37
g38
sg21
S'6'
sg19
S'space'
p1017
sg34
g11
sg991
L6L
sg992
VDIVIDE
p1018
sg994
L6L
sS'block.thisIndex'
p1019
I12
sg996
g997
sg998
Vincrease
p1020
sg999
VUBUUxy
p1021
sa(dp1022
S'block.thisTrialN'
p1023
I3
sS'block.thisRepN'
p1024
I0
sg29
g33
sS'block.thisN'
p1025
I3
sg983
(S'SUBTRACT'
S'DOUBLE'
S'TRIPLE'
S'DECREASE'
S'x'
S'y'
tp1026
sg27
g28
sg985
L4L
sg986
(I2
I6
I12
I8
tp1027
sg22
I1
sg20
F9.0160591242311057
sg23
F8.199518030276522
sVY
L4L
sVX
L3L
sg988
g1016
sg35
g36
sg37
g38
sg21
S'8'
sg19
S'space'
p1028
sg34
g11
sg991
L8L
sg992
g997
sg994
L8L
sS'block.thisIndex'
p1029
I10
sg996
VSUBTRACT
p1030
sg998
Vdecrease
p1031
sg999
VBUUUxy
p1032
sa(dp1033
S'block.thisTrialN'
p1034
I4
sS'block.thisRepN'
p1035
I0
sg29
g33
sS'block.thisN'
p1036
I4
sg983
(S'DIVIDE'
S'THIRD'
S'x'
S'y'
tp1037
sg27
g28
sg985
L2L
sg986
(I3
I1
tp1038
sg22
I1
sg20
F0.85010854116990231
sg23
F4.3498486932949163
sVY
L3L
sVX
L9L
sg988
L0L
sg35
g36
sg37
g38
sg21
S'1'
sg19
S'space'
p1039
sg34
g11
sg991
L1L
sg992
g993
sg994
L1L
sS'block.thisIndex'
p1040
I0
sg996
g1018
sg998
L0L
sg999
g1009
sa(dp1041
S'block.thisTrialN'
p1042
I5
sS'block.thisRepN'
p1043
I0
sg29
g33
sS'block.thisN'
p1044
I5
sg983
(S'THIRD'
S'DECREASE'
S'TIMES'
S'HALF'
S'x'
S'y'
tp1045
sg27
g28
sg985
L4L
sg986
(I4
I16
I15
I5
tp1046
sg22
I1
sg20
F3.3832327596610412
sg23
F5.5330573754617944
sVY
L4L
sVX
L8L
sg988
g989
sg35
g36
sg37
g38
sg21
S'5'
sg19
S'space'
p1047
sg34
g11
sg991
L5L
sg992
g1031
sg994
L5L
sS'block.thisIndex'
p1048
I15
sg996
g993
sg998
Vhalf
p1049
sg999
VUUBUxy
p1050
sa(dp1051
S'block.thisTrialN'
p1052
I6
sS'block.thisRepN'
p1053
I0
sg29
g33
sS'block.thisN'
p1054
I6
sg983
(S'TIMES'
S'HALF'
S'INCREASE'
S'x'
S'y'
tp1055
sg27
g28
sg985
L3L
sg986
(I6
I3
I9
tp1056
sg22
I1
sg20
F0.93338270150707103
sg23
F2.8832899786939379
sVY
L3L
sVX
L5L
sg988
g1020
sg35
g36
sg37
g38
sg21
S'9'
sg19
S'space'
p1057
sg34
g11
sg991
L9L
sg992
g1049
sg994
L9L
sS'block.thisIndex'
p1058
I5
sg996
g989
sg998
L0L
sg999
VBUUxy
p1059
sa(dp1060
S'block.thisTrialN'
p1061
I7
sS'block.thisRepN'
p1062
I0
sg29
g33
sS'block.thisN'
p1063
I7
sg983
(S'THIRD'
S'TIMES'
S'HALF'
S'x'
S'y'
tp1064
sg27
g28
sg985
L3L
sg986
(I3
I18
I6
tp1065
sg22
I1
sg20
F0.90002278261817992
sg23
F2.3666780871571973
sVY
L6L
sVX
L6L
sg988
g1049
sg35
g36
sg37
g38
sg21
S'6'
sg19
S'space'
p1066
sg34
g11
sg991
L6L
sg992
g989
sg994
L6L
sS'block.thisIndex'
p1067
I7
sg996
g993
sg998
L0L
sg999
VUBUxy
p1068
sa(dp1069
S'block.thisTrialN'
p1070
I8
sS'block.thisRepN'
p1071
I0
sg29
g33
sS'block.thisN'
p1072
I8
sg983
(S'INCREASE'
S'ADD'
S'HALF'
S'TRIPLE'
S'x'
S'y'
tp1073
sg27
g28
sg985
L4L
sg986
(I6
I3
I6
I7
tp1074
sg22
I1
sg20
F1.5166822341852821
sg23
F4.3331683838623576
sVY
L3L
sVX
L2L
sg988
g1049
sg35
g36
sg37
g38
sg21
S'7'
sg19
S'space'
p1075
sg34
g11
sg991
L7L
sg992
VADD
p1076
sg994
L7L
sS'block.thisIndex'
p1077
I13
sg996
g1020
sg998
g1016
sg999
g1021
sa(dp1078
S'block.thisTrialN'
p1079
I9
sS'block.thisRepN'
p1080
I0
sg29
g33
sS'block.thisN'
p1081
I9
sg983
(S'THIRD'
S'DIVIDE'
S'DECREASE'
S'x'
S'y'
tp1082
sg27
g28
sg985
L3L
sg986
(I6
I3
I1
tp1083
sg22
I1
sg20
F0.81685116156586446
sg23
F3.6332844667776953
sVY
L2L
sVX
L7L
sg988
g1031
sg35
g36
sg37
g38
sg21
S'1'
sg19
S'space'
p1084
sg34
g11
sg991
L1L
sg992
g1018
sg994
L1L
sS'block.thisIndex'
p1085
I6
sg996
g993
sg998
L0L
sg999
g1068
sa(dp1086
S'block.thisTrialN'
p1087
I10
sS'block.thisRepN'
p1088
I0
sg29
g33
sS'block.thisN'
p1089
I10
sg983
(S'DECREASE'
S'TRIPLE'
S'HALF'
S'SUBTRACT'
S'x'
S'y'
tp1090
sg27
g28
sg985
L4L
sg986
(I4
I2
I6
I5
tp1091
sg22
I1
sg20
F3.7497236163471825
sg23
F7.2495929049619008
sVY
L2L
sVX
L6L
sg988
g1049
sg35
g36
sg37
g38
sg21
S'5'
sg19
S'space'
p1092
sg34
g11
sg991
L5L
sg992
g1016
sg994
L5L
sS'block.thisIndex'
p1093
I16
sg996
g1031
sg998
g1030
sg999
VUUUBxy
p1094
sa(dp1095
S'block.thisTrialN'
p1096
I11
sS'block.thisRepN'
p1097
I0
sg29
g33
sS'block.thisN'
p1098
I11
sg983
(S'THIRD'
S'DIVIDE'
S'x'
S'y'
tp1099
sg27
g28
sg985
L2L
sg986
(I3
I1
tp1100
sg22
I1
sg20
F0.79986918365466408
sg23
F2.5166633361950517
sVY
L2L
sVX
L6L
sg988
L0L
sg35
g36
sg37
g38
sg21
S'1'
sg19
S'space'
p1101
sg34
g11
sg991
L1L
sg992
g1018
sg994
L1L
sS'block.thisIndex'
p1102
I3
sg996
g993
sg998
L0L
sg999
VUBxy
p1103
sa(dp1104
S'block.thisTrialN'
p1105
I12
sS'block.thisRepN'
p1106
I0
sg29
g33
sS'block.thisN'
p1107
I12
sg983
(S'SUBTRACT'
S'TRIPLE'
S'DECREASE'
S'x'
S'y'
tp1108
sg27
g28
sg985
L3L
sg986
(I4
I12
I3
tp1109
sg22
I1
sg20
F2.4166136763815302
sg23
F5.5664578901196364
sVY
L9L
sVX
L5L
sg988
g1031
sg35
g36
sg37
g38
sg21
S'3'
sg19
S'space'
p1110
sg34
g11
sg991
L3L
sg992
g1016
sg994
L3L
sS'block.thisIndex'
p1111
I4
sg996
g1030
sg998
L0L
sg999
g1059
sa(dp1112
S'block.thisTrialN'
p1113
I13
sS'block.thisRepN'
p1114
I0
sg29
g33
sS'block.thisN'
p1115
I13
sg983
(S'DECREASE'
S'TRIPLE'
S'DIVIDE'
S'DOUBLE'
S'x'
S'y'
tp1116
sg27
g28
sg985
L4L
sg986
(I6
I2
I6
I5
tp1117
sg22
I1
sg20
F4.86636889440706
sg23
F6.9329424474562984
sVY
L3L
sVX
L3L
sg988
g1018
sg35
g36
sg37
g38
sg21
S'5'
sg19
S'space'
p1118
sg34
g11
sg991
L5L
sg992
g1016
sg994
L5L
sS'block.thisIndex'
p1119
I14
sg996
g1031
sg998
g997
sg999
g1050
sa(dp1120
S'block.thisTrialN'
p1121
I14
sS'block.thisRepN'
p1122
I0
sg29
g33
sS'block.thisN'
p1123
I14
sg983
(S'INCREASE'
S'SUBTRACT'
S'x'
S'y'
tp1124
sg27
g28
sg985
L2L
sg986
(I3
I4
tp1125
sg22
I1
sg20
F0.80009246035479009
sg23
F2.0333630685636308
sVY
L3L
sVX
L6L
sg988
L0L
sg35
g36
sg37
g38
sg21
S'4'
sg19
S'space'
p1126
sg34
g11
sg991
L4L
sg992
g1030
sg994
L4L
sS'block.thisIndex'
p1127
I2
sg996
g1020
sg998
L0L
sg999
g1103
sa(dp1128
S'block.thisTrialN'
p1129
I15
sS'block.thisRepN'
p1130
I0
sg29
g33
sS'block.thisN'
p1131
I15
sg983
(S'HALF'
S'TRIPLE'
S'INCREASE'
S'SUBTRACT'
S'x'
S'y'
tp1132
sg27
g28
sg985
L4L
sg986
(I1
I2
I6
I3
tp1133
sg22
I1
sg20
F4.5664407419099007
sg23
F5.2495834559667856
sVY
L2L
sVX
L3L
sg988
g1020
sg35
g36
sg37
g38
sg21
S'3'
sg19
S'space'
p1134
sg34
g11
sg991
L3L
sg992
g1016
sg994
L3L
sS'block.thisIndex'
p1135
I17
sg996
g1049
sg998
g1030
sg999
g1094
sa(dp1136
S'block.thisTrialN'
p1137
I16
sS'block.thisRepN'
p1138
I0
sg29
g33
sS'block.thisN'
p1139
I16
sg983
(S'DOUBLE'
S'DECREASE'
S'ADD'
S'x'
S'y'
tp1140
sg27
g28
sg985
L3L
sg986
(I4
I3
I6
tp1141
sg22
I1
sg20
F0.98341278088628314
sg23
F2.3666598890558816
sVY
L2L
sVX
L2L
sg988
g1076
sg35
g36
sg37
g38
sg21
S'6'
sg19
S'space'
p1142
sg34
g11
sg991
L6L
sg992
g1031
sg994
L6L
sS'block.thisIndex'
p1143
I8
sg996
g997
sg998
L0L
sg999
g1000
sa(dp1144
S'block.thisTrialN'
p1145
I17
sS'block.thisRepN'
p1146
I0
sg29
g33
sS'block.thisN'
p1147
I17
sg983
(S'SUBTRACT'
S'TRIPLE'
S'DECREASE'
S'DOUBLE'
S'x'
S'y'
tp1148
sg27
g28
sg985
L4L
sg986
(I4
I3
I9
I1
tp1149
sg22
I1
sg20
F3.6165877090825234
sg23
F4.6164501734310761
sVY
L8L
sVX
L2L
sg988
g1031
sg35
g36
sg37
g38
sg21
S'1'
sg19
S'space'
p1150
sg34
g11
sg991
L1L
sg992
g1016
sg994
L1L
sS'block.thisIndex'
p1151
I11
sg996
g1030
sg998
g997
sg999
g1032
sa(dp1152
S'block.thisTrialN'
p1153
I0
sS'block.thisRepN'
p1154
I0
sg29
g33
sS'block.thisN'
p1155
I0
sVRule
p1156
(S'TRIPLE'
S'SUBTRACT'
S'x'
S'y'
tp1157
sg27
g28
sVLength
p1158
L2L
sVIntermediate
p1159
(I2
I6
tp1160
sg22
I1
sg20
F1.2334259920171462
sg23
F2.9166152511897963
sVY
L6L
sVX
L8L
sVOperatorc
p1161
L0L
sg35
g36
sg37
g38
sg21
S'6'
sg19
S'space'
p1162
sg34
g11
sVResult
p1163
L6L
sVOperatora
p1164
VSUBTRACT
p1165
sVCorrectResponse
p1166
L6L
sS'block.thisIndex'
p1167
I3
sVOperatorb
p1168
Vtriple
p1169
sVOperatord
p1170
L0L
sVStructure
p1171
VUBxy
p1172
sa(dp1173
S'block.thisTrialN'
p1174
I1
sS'block.thisRepN'
p1175
I0
sg29
g33
sS'block.thisN'
p1176
I1
sg1156
(S'DIVIDE'
S'DECREASE'
S'THIRD'
S'DOUBLE'
S'x'
S'y'
tp1177
sg27
g28
sg1158
L4L
sg1159
(I12
I4
I3
I1
tp1178
sg22
I1
sg20
F4.21647516079247
sg23
F4.2998270130483434
sVY
L3L
sVX
L6L
sg1161
Vthird
p1179
sg35
g36
sg37
g38
sg21
S'1'
sg19
S'space'
p1180
sg34
g11
sg1163
L1L
sg1164
Vdecrease
p1181
sg1166
L1L
sS'block.thisIndex'
p1182
I10
sg1168
VDIVIDE
p1183
sg1170
Vdouble
p1184
sg1171
VBUUUxy
p1185
sa(dp1186
S'block.thisTrialN'
p1187
I2
sS'block.thisRepN'
p1188
I0
sg29
g33
sS'block.thisN'
p1189
I2
sg1156
(S'TRIPLE'
S'HALF'
S'TIMES'
S'x'
S'y'
tp1190
sg27
g28
sg1158
L3L
sg1159
(I6
I3
I9
tp1191
sg22
I1
sg20
F1.5167070816096384
sg23
F3.5332064598915167
sVY
L3L
sVX
L2L
sg1161
VTIMES
p1192
sg35
g36
sg37
g38
sg21
S'9'
sg19
S'space'
p1193
sg34
g11
sg1163
L9L
sg1164
Vhalf
p1194
sg1166
L9L
sS'block.thisIndex'
p1195
I9
sg1168
g1169
sg1170
L0L
sg1171
VUUBxy
p1196
sa(dp1197
S'block.thisTrialN'
p1198
I3
sS'block.thisRepN'
p1199
I0
sg29
g33
sS'block.thisN'
p1200
I3
sg1156
(S'TIMES'
S'DECREASE'
S'THIRD'
S'DOUBLE'
S'x'
S'y'
tp1201
sg27
g28
sg1158
L4L
sg1159
(I6
I2
I1
I2
tp1202
sg22
I1
sg20
F2.6666034399531782
sg23
F3.3665940959181171
sVY
L2L
sVX
L3L
sg1161
g1179
sg35
g36
sg37
g38
sg21
S'2'
sg19
S'space'
p1203
sg34
g11
sg1163
L2L
sg1164
g1181
sg1166
L2L
sS'block.thisIndex'
p1204
I11
sg1168
g1192
sg1170
g1184
sg1171
g1185
sa(dp1205
S'block.thisTrialN'
p1206
I4
sS'block.thisRepN'
p1207
I0
sg29
g33
sS'block.thisN'
p1208
I4
sg1156
(S'TIMES'
S'THIRD'
S'x'
S'y'
tp1209
sg27
g28
sg1158
L2L
sg1159
(I1
I4
tp1210
sg22
I1
sg20
F0.8334345311159268
sg23
F1.7833953526860569
sVY
L4L
sVX
L3L
sg1161
L0L
sg35
g36
sg37
g38
sg21
S'4'
sg19
S'space'
p1211
sg34
g11
sg1163
L4L
sg1164
g1179
sg1166
L4L
sS'block.thisIndex'
p1212
I1
sg1168
g1192
sg1170
L0L
sg1171
VBUxy
p1213
sa(dp1214
S'block.thisTrialN'
p1215
I5
sS'block.thisRepN'
p1216
I0
sg29
g33
sS'block.thisN'
p1217
I5
sg1156
(S'INCREASE'
S'TIMES'
S'x'
S'y'
tp1218
sg27
g28
sg1158
L2L
sg1159
(I8
I9
tp1219
sg22
I1
sg20
F1.216724334837636
sg23
F1.2834221248922404
sVY
L4L
sVX
L2L
sg1161
L0L
sg35
g36
sg37
g38
sg21
S'9'
sg19
S'space'
p1220
sg34
g11
sg1163
L9L
sg1164
g1192
sg1166
L9L
sS'block.thisIndex'
p1221
I2
sg1168
Vincrease
p1222
sg1170
L0L
sg1171
g1172
sa(dp1223
S'block.thisTrialN'
p1224
I6
sS'block.thisRepN'
p1225
I0
sg29
g33
sS'block.thisN'
p1226
I6
sg1156
(S'THIRD'
S'INCREASE'
S'SUBTRACT'
S'HALF'
S'x'
S'y'
tp1227
sg27
g28
sg1158
L4L
sg1159
(I4
I2
I3
I1
tp1228
sg22
I1
sg20
F8.099459621385904
sg23
F3.3332415262702852
sVY
L2L
sVX
L8L
sg1161
g1165
sg35
g36
sg37
g38
sg21
S'1'
sg19
S'space'
p1229
sg34
g11
sg1163
L1L
sg1164
g1222
sg1166
L1L
sS'block.thisIndex'
p1230
I15
sg1168
g1179
sg1170
g1194
sg1171
VUUBUxy
p1231
sa(dp1232
S'block.thisTrialN'
p1233
I7
sS'block.thisRepN'
p1234
I0
sg29
g33
sS'block.thisN'
p1235
I7
sg1156
(S'SUBTRACT'
S'THIRD'
S'x'
S'y'
tp1236
sg27
g28
sg1158
L2L
sg1159
(I3
I1
tp1237
sg22
I1
sg20
F0.86675280434428714
sg23
F1.4500635358563159
sVY
L2L
sVX
L9L
sg1161
L0L
sg35
g36
sg37
g38
sg21
S'1'
sg19
S'space'
p1238
sg34
g11
sg1163
L1L
sg1164
g1179
sg1166
L1L
sS'block.thisIndex'
p1239
I0
sg1168
g1165
sg1170
L0L
sg1171
g1213
sa(dp1240
S'block.thisTrialN'
p1241
I8
sS'block.thisRepN'
p1242
I0
sg29
g33
sS'block.thisN'
p1243
I8
sg1156
(S'DOUBLE'
S'TIMES'
S'THIRD'
S'x'
S'y'
tp1244
sg27
g28
sg1158
L3L
sg1159
(I1
I4
I8
tp1245
sg22
I1
sg20
F1.8167738196498249
sg23
F2.5496550934913103
sVY
L4L
sVX
L3L
sg1161
g1179
sg35
g36
sg37
g38
sg21
S'8'
sg19
S'space'
p1246
sg34
g11
sg1163
L8L
sg1164
g1192
sg1166
L8L
sS'block.thisIndex'
p1247
I6
sg1168
g1184
sg1170
L0L
sg1171
VUBUxy
p1248
sa(dp1249
S'block.thisTrialN'
p1250
I9
sS'block.thisRepN'
p1251
I0
sg29
g33
sS'block.thisN'
p1252
I9
sg1156
(S'DECREASE'
S'HALF'
S'DIVIDE'
S'x'
S'y'
tp1253
sg27
g28
sg1158
L3L
sg1159
(I4
I2
I1
tp1254
sg22
I1
sg20
F1.0167114561772905
sg23
F4.0665259580127895
sVY
L2L
sVX
L8L
sg1161
g1183
sg35
g36
sg37
g38
sg21
S'1'
sg19
S'space'
p1255
sg34
g11
sg1163
L1L
sg1164
g1194
sg1166
L1L
sS'block.thisIndex'
p1256
I8
sg1168
g1181
sg1170
L0L
sg1171
g1196
sa(dp1257
S'block.thisTrialN'
p1258
I10
sS'block.thisRepN'
p1259
I0
sg29
g33
sS'block.thisN'
p1260
I10
sg1156
(S'INCREASE'
S'TRIPLE'
S'HALF'
S'ADD'
S'x'
S'y'
tp1261
sg27
g28
sg1158
L4L
sg1159
(I4
I2
I6
I7
tp1262
sg22
I1
sg20
F2.4499480479280464
sg23
F6.3163424896483775
sVY
L2L
sVX
L2L
sg1161
g1194
sg35
g36
sg37
g38
sg21
S'7'
sg19
S'space'
p1263
sg34
g11
sg1163
L7L
sg1164
g1169
sg1166
L7L
sS'block.thisIndex'
p1264
I17
sg1168
g1222
sg1170
VADD
p1265
sg1171
VUUUBxy
p1266
sa(dp1267
S'block.thisTrialN'
p1268
I11
sS'block.thisRepN'
p1269
I0
sg29
g33
sS'block.thisN'
p1270
I11
sg1156
(S'SUBTRACT'
S'DOUBLE'
S'DECREASE'
S'x'
S'y'
tp1271
sg27
g28
sg1158
L3L
sg1159
(I8
I16
I7
tp1272
sg22
I0
sg20
F1.2334007946192287
sg23
F3.9665214434789959
sVY
L9L
sVX
L9L
sg1161
g1181
sg35
g36
sg37
g38
sg21
S'9'
sg19
S'space'
p1273
sg34
g11
sg1163
L7L
sg1164
g1184
sg1166
L7L
sS'block.thisIndex'
p1274
I5
sg1168
g1165
sg1170
L0L
sg1171
VBUUxy
p1275
sa(dp1276
S'block.thisTrialN'
p1277
I12
sS'block.thisRepN'
p1278
I0
sg29
g33
sS'block.thisN'
p1279
I12
sg1156
(S'DECREASE'
S'HALF'
S'TRIPLE'
S'ADD'
S'x'
S'y'
tp1280
sg27
g28
sg1158
L4L
sg1159
(I4
I12
I6
I5
tp1281
sg22
I1
sg20
F5.6830408746609464
sg23
F5.4330756085691974
sVY
L2L
sVX
L2L
sg1161
g1169
sg35
g36
sg37
g38
sg21
S'5'
sg19
S'space'
p1282
sg34
g11
sg1163
L5L
sg1164
g1194
sg1166
L5L
sS'block.thisIndex'
p1283
I16
sg1168
g1181
sg1170
g1265
sg1171
g1266
sa(dp1284
S'block.thisTrialN'
p1285
I13
sS'block.thisRepN'
p1286
I0
sg29
g33
sS'block.thisN'
p1287
I13
sg1156
(S'TRIPLE'
S'SUBTRACT'
S'INCREASE'
S'HALF'
S'x'
S'y'
tp1288
sg27
g28
sg1158
L4L
sg1159
(I3
I4
I1
I3
tp1289
sg22
I1
sg20
F7.9494778719963506
sg23
F3.1666281123762019
sVY
L3L
sVX
L6L
sg1161
g1222
sg35
g36
sg37
g38
sg21
S'3'
sg19
S'space'
p1290
sg34
g11
sg1163
L3L
sg1164
g1165
sg1166
L3L
sS'block.thisIndex'
p1291
I13
sg1168
g1169
sg1170
g1194
sg1171
VUBUUxy
p1292
sa(dp1293
S'block.thisTrialN'
p1294
I14
sS'block.thisRepN'
p1295
I0
sg29
g33
sS'block.thisN'
p1296
I14
sg1156
(S'INCREASE'
S'DIVIDE'
S'HALF'
S'x'
S'y'
tp1297
sg27
g28
sg1158
L3L
sg1159
(I2
I1
I2
tp1298
sg22
I1
sg20
F1.2833965775789693
sg23
F1.3834049417055212
sVY
L2L
sVX
L4L
sg1161
g1194
sg35
g36
sg37
g38
sg21
S'2'
sg19
S'space'
p1299
sg34
g11
sg1163
L2L
sg1164
g1183
sg1166
L2L
sS'block.thisIndex'
p1300
I7
sg1168
g1222
sg1170
L0L
sg1171
g1248
sa(dp1301
S'block.thisTrialN'
p1302
I15
sS'block.thisRepN'
p1303
I0
sg29
g33
sS'block.thisN'
p1304
I15
sg1156
(S'ADD'
S'DECREASE'
S'HALF'
S'x'
S'y'
tp1305
sg27
g28
sg1158
L3L
sg1159
(I3
I2
I6
tp1306
sg22
I1
sg20
F1.3667123835766688
sg23
F2.6166678507288452
sVY
L4L
sVX
L6L
sg1161
g1194
sg35
g36
sg37
g38
sg21
S'6'
sg19
S'space'
p1307
sg34
g11
sg1163
L6L
sg1164
g1181
sg1166
L6L
sS'block.thisIndex'
p1308
I4
sg1168
g1265
sg1170
L0L
sg1171
g1275
sa(dp1309
S'block.thisTrialN'
p1310
I16
sS'block.thisRepN'
p1311
I0
sg29
g33
sS'block.thisN'
p1312
I16
sg1156
(S'INCREASE'
S'HALF'
S'TIMES'
S'TRIPLE'
S'x'
S'y'
tp1313
sg27
g28
sg1158
L4L
sg1159
(I6
I12
I6
I7
tp1314
sg22
I0
sg20
F4.5664865871076472
sg23
F10.249353879946284
sVY
L2L
sVX
L2L
sg1161
g1192
sg35
g36
sg37
g38
sg21
S'5'
sg19
S'space'
p1315
sg34
g11
sg1163
L7L
sg1164
g1194
sg1166
L7L
sS'block.thisIndex'
p1316
I14
sg1168
g1222
sg1170
g1169
sg1171
g1231
sa(dp1317
S'block.thisTrialN'
p1318
I17
sS'block.thisRepN'
p1319
I0
sg29
g33
sS'block.thisN'
p1320
I17
sg1156
(S'DECREASE'
S'DIVIDE'
S'TRIPLE'
S'DOUBLE'
S'x'
S'y'
tp1321
sg27
g28
sg1158
L4L
sg1159
(I6
I18
I2
I1
tp1322
sg22
I1
sg20
F7.5160386513744015
sg23
F5.3497496536292601
sVY
L9L
sVX
L3L
sg1161
g1169
sg35
g36
sg37
g38
sg21
S'1'
sg19
S'space'
p1323
sg34
g11
sg1163
L1L
sg1164
g1183
sg1166
L1L
sS'block.thisIndex'
p1324
I12
sg1168
g1181
sg1170
g1184
sg1171
g1292
sa(dp1325
S'block.thisTrialN'
p1326
I0
sS'block.thisRepN'
p1327
I0
sg29
g33
sS'block.thisN'
p1328
I0
sVRule
p1329
(S'DOUBLE'
S'TRIPLE'
S'SUBTRACT'
S'x'
S'y'
tp1330
sg27
g28
sVLength
p1331
L3L
sVIntermediate
p1332
(I1
I3
I6
tp1333
sg22
I1
sg20
F5.9329704445262905
sg23
F2.8332969954644796
sVY
L3L
sVX
L4L
sVOperatorc
p1334
VSUBTRACT
p1335
sg35
g36
sg37
g38
sg21
S'6'
sg19
S'space'
p1336
sg34
g11
sVResult
p1337
L6L
sVOperatora
p1338
Vtriple
p1339
sVCorrectResponse
p1340
L6L
sS'block.thisIndex'
p1341
I9
sVOperatorb
p1342
Vdouble
p1343
sVOperatord
p1344
L0L
sVStructure
p1345
VUUBxy
p1346
sa(dp1347
S'block.thisTrialN'
p1348
I1
sS'block.thisRepN'
p1349
I0
sg29
g33
sS'block.thisN'
p1350
I1
sg1329
(S'DECREASE'
S'THIRD'
S'TIMES'
S'HALF'
S'x'
S'y'
tp1351
sg27
g28
sg1331
L4L
sg1332
(I2
I12
I4
I3
tp1352
sg22
I1
sg20
F9.7826688285276759
sg23
F3.8998673988389783
sVY
L6L
sVX
L4L
sg1334
VTIMES
p1353
sg35
g36
sg37
g38
sg21
S'3'
sg19
S'space'
p1354
sg34
g11
sg1337
L3L
sg1338
Vthird
p1355
sg1340
L3L
sS'block.thisIndex'
p1356
I14
sg1342
Vdecrease
p1357
sg1344
Vhalf
p1358
sg1345
VUUBUxy
p1359
sa(dp1360
S'block.thisTrialN'
p1361
I2
sS'block.thisRepN'
p1362
I0
sg29
g33
sS'block.thisN'
p1363
I2
sg1329
(S'SUBTRACT'
S'HALF'
S'TRIPLE'
S'x'
S'y'
tp1364
sg27
g28
sg1331
L3L
sg1332
(I12
I6
I2
tp1365
sg22
I1
sg20
F3.3665548999852035
sg23
F2.2500139110488817
sVY
L4L
sVX
L4L
sg1334
g1339
sg35
g36
sg37
g38
sg21
S'2'
sg19
S'space'
p1366
sg34
g11
sg1337
L2L
sg1338
g1358
sg1340
L2L
sS'block.thisIndex'
p1367
I5
sg1342
g1335
sg1344
L0L
sg1345
VBUUxy
p1368
sa(dp1369
S'block.thisTrialN'
p1370
I3
sS'block.thisRepN'
p1371
I0
sg29
g33
sS'block.thisN'
p1372
I3
sg1329
(S'DECREASE'
S'TIMES'
S'DOUBLE'
S'THIRD'
S'x'
S'y'
tp1373
sg27
g28
sg1331
L4L
sg1332
(I1
I2
I8
I7
tp1374
sg22
I1
sg20
F5.9330278385314159
sg23
F4.366513604298234
sVY
L4L
sVX
L3L
sg1334
g1343
sg35
g36
sg37
g38
sg21
S'7'
sg19
S'space'
p1375
sg34
g11
sg1337
L7L
sg1338
g1353
sg1340
L7L
sS'block.thisIndex'
p1376
I13
sg1342
g1357
sg1344
g1355
sg1345
VUBUUxy
p1377
sa(dp1378
S'block.thisTrialN'
p1379
I4
sS'block.thisRepN'
p1380
I0
sg29
g33
sS'block.thisN'
p1381
I4
sg1329
(S'HALF'
S'TIMES'
S'x'
S'y'
tp1382
sg27
g28
sg1331
L2L
sg1332
(I16
I8
tp1383
sg22
I1
sg20
F1.1000640083220787
sg23
F1.5833957726717927
sVY
L4L
sVX
L4L
sg1334
L0L
sg35
g36
sg37
g38
sg21
S'8'
sg19
S'space'
p1384
sg34
g11
sg1337
L8L
sg1338
g1353
sg1340
L8L
sS'block.thisIndex'
p1385
I3
sg1342
g1358
sg1344
L0L
sg1345
VUBxy
p1386
sa(dp1387
S'block.thisTrialN'
p1388
I5
sS'block.thisRepN'
p1389
I0
sg29
g33
sS'block.thisN'
p1390
I5
sg1329
(S'ADD'
S'DOUBLE'
S'x'
S'y'
tp1391
sg27
g28
sg1331
L2L
sg1332
(I4
I8
tp1392
sg22
I1
sg20
F0.80008231141255237
sg23
F1.4334255720605142
sVY
L4L
sVX
L2L
sg1334
L0L
sg35
g36
sg37
g38
sg21
S'8'
sg19
S'space'
p1393
sg34
g11
sg1337
L8L
sg1338
g1343
sg1340
L8L
sS'block.thisIndex'
p1394
I0
sg1342
VADD
p1395
sg1344
L0L
sg1345
VBUxy
p1396
sa(dp1397
S'block.thisTrialN'
p1398
I6
sS'block.thisRepN'
p1399
I0
sg29
g33
sS'block.thisN'
p1400
I6
sg1329
(S'DOUBLE'
S'DECREASE'
S'TRIPLE'
S'DIVIDE'
S'x'
S'y'
tp1401
sg27
g28
sg1331
L4L
sg1332
(I1
I3
I2
I4
tp1402
sg22
I1
sg20
F2.8165746904269326
sg23
F4.7996053111855872
sVY
L4L
sVX
L4L
sg1334
g1339
sg35
g36
sg37
g38
sg21
S'4'
sg19
S'space'
p1403
sg34
g11
sg1337
L4L
sg1338
g1357
sg1340
L4L
sS'block.thisIndex'
p1404
I17
sg1342
g1343
sg1344
VDIVIDE
p1405
sg1345
VUUUBxy
p1406
sa(dp1407
S'block.thisTrialN'
p1408
I7
sS'block.thisRepN'
p1409
I0
sg29
g33
sS'block.thisN'
p1410
I7
sg1329
(S'DIVIDE'
S'DOUBLE'
S'THIRD'
S'x'
S'y'
tp1411
sg27
g28
sg1331
L3L
sg1332
(I2
I4
I1
tp1412
sg22
I1
sg20
F1.5000008748902474
sg23
F2.1500072967610322
sVY
L4L
sVX
L6L
sg1334
g1355
sg35
g36
sg37
g38
sg21
S'1'
sg19
S'space'
p1413
sg34
g11
sg1337
L1L
sg1338
g1343
sg1340
L1L
sS'block.thisIndex'
p1414
I4
sg1342
g1405
sg1344
L0L
sg1345
g1368
sa(dp1415
S'block.thisTrialN'
p1416
I8
sS'block.thisRepN'
p1417
I0
sg29
g33
sS'block.thisN'
p1418
I8
sg1329
(S'DOUBLE'
S'SUBTRACT'
S'x'
S'y'
tp1419
sg27
g28
sg1331
L2L
sg1332
(I1
I2
tp1420
sg22
I1
sg20
F1.2000671229907311
sg23
F1.1667565489769913
sVY
L7L
sVX
L8L
sg1334
L0L
sg35
g36
sg37
g38
sg21
S'2'
sg19
S'space'
p1421
sg34
g11
sg1337
L2L
sg1338
g1335
sg1340
L2L
sS'block.thisIndex'
p1422
I2
sg1342
g1343
sg1344
L0L
sg1345
g1386
sa(dp1423
S'block.thisTrialN'
p1424
I9
sS'block.thisRepN'
p1425
I0
sg29
g33
sS'block.thisN'
p1426
I9
sg1329
(S'DECREASE'
S'ADD'
S'DOUBLE'
S'THIRD'
S'x'
S'y'
tp1427
sg27
g28
sg1331
L4L
sg1332
(I3
I6
I10
I9
tp1428
sg22
I1
sg20
F3.066555704921484
sg23
F4.3665832470287569
sVY
L4L
sVX
L9L
sg1334
g1343
sg35
g36
sg37
g38
sg21
S'9'
sg19
S'space'
p1429
sg34
g11
sg1337
L9L
sg1338
g1395
sg1340
L9L
sS'block.thisIndex'
p1430
I12
sg1342
Vdecrease 
p1431
sg1344
g1355
sg1345
g1377
sa(dp1432
S'block.thisTrialN'
p1433
I10
sS'block.thisRepN'
p1434
I0
sg29
g33
sS'block.thisN'
p1435
I10
sg1329
(S'DOUBLE'
S'TRIPLE'
S'DIVIDE'
S'DECREASE'
S'x'
S'y'
tp1436
sg27
g28
sg1331
L4L
sg1332
(I8
I1
I3
I6
tp1437
sg22
I1
sg20
F8.2328009572229348
sg23
F2.5166668358142488
sVY
L8L
sVX
L9L
sg1334
g1405
sg35
g36
sg37
g38
sg21
S'6'
sg19
S'space'
p1438
sg34
g11
sg1337
L6L
sg1338
g1339
sg1340
L6L
sS'block.thisIndex'
p1439
I15
sg1342
g1343
sg1344
g1357
sg1345
g1359
sa(dp1440
S'block.thisTrialN'
p1441
I11
sS'block.thisRepN'
p1442
I0
sg29
g33
sS'block.thisN'
p1443
I11
sg1329
(S'HALF'
S'SUBTRACT'
S'TRIPLE'
S'x'
S'y'
tp1444
sg27
g28
sg1331
L3L
sg1332
(I9
I2
I1
tp1445
sg22
I1
sg20
F4.1497966187307611
sg23
F2.8499762549763545
sVY
L7L
sVX
L3L
sg1334
g1339
sg35
g36
sg37
g38
sg21
S'1'
sg19
S'space'
p1446
sg34
g11
sg1337
L1L
sg1338
g1335
sg1340
L1L
sS'block.thisIndex'
p1447
I6
sg1342
g1358
sg1344
L0L
sg1345
VUBUxy
p1448
sa(dp1449
S'block.thisTrialN'
p1450
I12
sS'block.thisRepN'
p1451
I0
sg29
g33
sS'block.thisN'
p1452
I12
sg1329
(S'DOUBLE'
S'DECREASE'
S'SUBTRACT'
S'x'
S'y'
tp1453
sg27
g28
sg1331
L3L
sg1332
(I5
I4
I8
tp1454
sg22
I1
sg20
F3.0332594793580938
sg23
F3.5999234979972243
sVY
L2L
sVX
L7L
sg1334
g1335
sg35
g36
sg37
g38
sg21
S'8'
sg19
S'space'
p1455
sg34
g11
sg1337
L8L
sg1338
g1357
sg1340
L8L
sS'block.thisIndex'
p1456
I8
sg1342
g1343
sg1344
L0L
sg1345
g1346
sa(dp1457
S'block.thisTrialN'
p1458
I13
sS'block.thisRepN'
p1459
I0
sg29
g33
sS'block.thisN'
p1460
I13
sg1329
(S'INCREASE'
S'DIVIDE'
S'THIRD'
S'x'
S'y'
tp1461
sg27
g28
sg1331
L3L
sg1332
(I3
I1
I2
tp1462
sg22
I1
sg20
F3.533202260354301
sg23
F3.2333448004792444
sVY
L3L
sVX
L9L
sg1334
g1355
sg35
g36
sg37
g38
sg21
S'2'
sg19
S'space'
p1463
sg34
g11
sg1337
L2L
sg1338
g1405
sg1340
L2L
sS'block.thisIndex'
p1464
I7
sg1342
Vincrease
p1465
sg1344
L0L
sg1345
g1448
sa(dp1466
S'block.thisTrialN'
p1467
I14
sS'block.thisRepN'
p1468
I0
sg29
g33
sS'block.thisN'
p1469
I14
sg1329
(S'DIVIDE'
S'INCREASE'
S'DOUBLE'
S'THIRD'
S'x'
S'y'
tp1470
sg27
g28
sg1331
L4L
sg1332
(I2
I4
I5
I1
tp1471
sg22
I1
sg20
F9.1160867363505531
sg23
F5.9829854754789267
sVY
L5L
sVX
L6L
sg1334
g1343
sg35
g36
sg37
g38
sg21
S'1'
sg19
S'space'
p1472
sg34
g11
sg1337
L1L
sg1338
g1465
sg1340
L1L
sS'block.thisIndex'
p1473
I11
sg1342
g1405
sg1344
g1355
sg1345
VBUUUxy
p1474
sa(dp1475
S'block.thisTrialN'
p1476
I15
sS'block.thisRepN'
p1477
I0
sg29
g33
sS'block.thisN'
p1478
I15
sg1329
(S'ADD'
S'THIRD'
S'INCREASE'
S'HALF'
S'x'
S'y'
tp1479
sg27
g28
sg1331
L4L
sg1332
(I2
I3
I1
I7
tp1480
sg22
I1
sg20
F2.9832451483525801
sg23
F2.8499741551931947
sVY
L6L
sVX
L4L
sg1334
g1465
sg35
g36
sg37
g38
sg21
S'7'
sg19
S'space'
p1481
sg34
g11
sg1337
L7L
sg1338
g1355
sg1340
L7L
sS'block.thisIndex'
p1482
I10
sg1342
g1395
sg1344
g1358
sg1345
g1474
sa(dp1483
S'block.thisTrialN'
p1484
I16
sS'block.thisRepN'
p1485
I0
sg29
g33
sS'block.thisN'
p1486
I16
sg1329
(S'DECREASE'
S'HALF'
S'TRIPLE'
S'DIVIDE'
S'x'
S'y'
tp1487
sg27
g28
sg1331
L4L
sg1332
(I4
I12
I6
I5
tp1488
sg22
I1
sg20
F3.7665152141416911
sg23
F5.6330699391546659
sVY
L2L
sVX
L8L
sg1334
g1339
sg35
g36
sg37
g38
sg21
S'5'
sg19
S'space'
p1489
sg34
g11
sg1337
L5L
sg1338
g1358
sg1340
L5L
sS'block.thisIndex'
p1490
I16
sg1342
g1357
sg1344
g1405
sg1345
g1406
sa(dp1491
S'block.thisTrialN'
p1492
I17
sS'block.thisRepN'
p1493
I0
sg29
g33
sS'block.thisN'
p1494
I17
sg1329
(S'DIVIDE'
S'DOUBLE'
S'x'
S'y'
tp1495
sg27
g28
sg1331
L2L
sg1332
(I12
I2
tp1496
sg22
I1
sg20
F1.1333980299241375
sg23
F1.6500900631072
sVY
L6L
sVX
L6L
sg1334
L0L
sg35
g36
sg37
g38
sg21
S'2'
sg19
S'space'
p1497
sg34
g11
sg1337
L2L
sg1338
g1343
sg1340
L2L
sS'block.thisIndex'
p1498
I1
sg1342
g1405
sg1344
L0L
sg1345
g1396
sasS'loops'
p1499
(lp1500
g1
(cpsychopy.data
TrialHandler
p1501
g3
NtRp1502
(dp1503
S'origin'
p1504
NsS'thisTrial'
p1505
(lp1506
sS'_exp'
p1507
I342696944
sg10
S'practice_trials'
p1508
sg6
S'C:\\Users\\experimenter\\Desktop\\Experiments\\KRITL\\2. kritl_experimenter.py'
p1509
sS'thisRepN'
p1510
I1
sg24
I01
sg25
g26
sS'data'
p1511
g1
(cpsychopy.data
DataHandler
p1512
c__builtin__
dict
p1513
(dp1514
g15
cnumpy.core.multiarray
_reconstruct
p1515
(cnumpy
ndarray
p1516
(I0
tS'b'
tRp1517
(I1
(I6
I1
tg31
(S'O4'
I0
I1
tRp1518
(I3
S'|'
NNNI-1
I-1
I63
tbI00
(lp1519
(lp1520
F2.8165690910245758
aa(lp1521
F2.416610876651248
aa(lp1522
F1.1167114211712033
aa(lp1523
F3.5331508157250937
aa(lp1524
F2.0499387388990726
aa(lp1525
F13.865629771520616
aatbsg16
g1515
(g1516
(I0
tS'b'
tRp1526
(I1
(I6
I1
tg1518
I00
(lp1527
S'7'
aS'8'
aS'7'
aS'8'
aS'3'
aNatbsS'ran'
p1528
cnumpy.ma.core
_mareconstruct
p1529
(cnumpy.ma.core
MaskedArray
p1530
g1516
(I0
tp1531
S'b'
tRp1532
(I1
(I6
I1
tg31
(S'f4'
I0
I1
tRp1533
(I3
S'<'
NNNI-1
I-1
I0
tbI00
S'\x00\x00\x80?\x00\x00\x80?\x00\x00\x80?\x00\x00\x80?\x00\x00\x80?\x00\x00\x80?'
S'\x00\x00\x00\x00\x00\x00'
Ntbsg18
g1529
(g1530
g1516
g1531
S'b'
tRp1534
(I1
(I6
I1
tg1533
I00
S'PD\x04@\xf4x\xb7?I$\xa2?\xa4\x11A@\xc6\x1f\xb2@\x00\x00\x00\x00'
S'\x00\x00\x00\x00\x00\x01'
Ntbsg14
g1515
(g1516
(I0
tS'b'
tRp1535
(I1
(I6
I1
tg1518
I00
(lp1536
(lp1537
g85
aa(lp1538
g112
aa(lp1539
g120
aa(lp1540
g95
aa(lp1541
g103
aa(lp1542
g70
aatbsS'order'
p1543
g1529
(g1530
g1516
g1531
S'b'
tRp1544
(I1
(I6
I1
tg1533
I00
S'\x00\x00\x80?\x00\x00\x80@\x00\x00\xa0@\x00\x00\x00@\x00\x00@@\x00\x00\x00\x00'
S'\x00\x00\x00\x00\x00\x00'
Ntbsg17
g1529
(g1530
g1516
g1531
S'b'
tRp1545
(I1
(I6
I1
tg1533
I00
S'\x00\x00\x80?\x00\x00\x80?\x00\x00\x80?\x00\x00\x80?\x00\x00\x80?\x00\x00\x00\x00'
S'\x00\x00\x00\x00\x00\x00'
NtbstRp1546
(dp1547
S'isNumeric'
p1548
(dp1549
g16
I00
sg1528
I01
sg18
I01
sg14
I00
sg17
I01
sg1543
I01
sg15
I00
ssS'trials'
p1550
g1502
sS'dataTypes'
p1551
(lp1552
g1528
ag1543
ag14
ag15
ag16
ag17
ag18
asS'dataShape'
p1553
(lp1554
I6
aI1
asbsS'method'
p1555
S'fullRandom'
p1556
sS'sequenceIndices'
p1557
g1515
(g1516
(I0
tS'b'
tRp1558
(I1
(I6
I1
tg1518
I00
(lp1559
I5
aI0
aI3
aI4
aI1
aI2
atbsS'finished'
p1560
I01
sS'nReps'
p1561
I1
sS'nRemaining'
p1562
I-1
sS'trialList'
p1563
(lp1564
g1
(cpsychopy.data
TrialType
p1565
g1513
(dp1566
g47
L0L
sg48
g80
sg49
g81
sg50
L7L
sg53
L2L
sg52
L0L
sg51
L5L
sg54
L3L
stRp1567
ag1
(g1565
g1513
(dp1568
g47
L0L
sg48
g81
sg49
g108
sg50
L8L
sg53
L2L
sg52
L0L
sg51
L3L
sg54
L3L
stRp1569
ag1
(g1565
g1513
(dp1570
g47
L0L
sg48
g80
sg49
g91
sg50
L7L
sg53
L2L
sg52
L0L
sg51
L5L
sg54
L4L
stRp1571
ag1
(g1565
g1513
(dp1572
g47
g80
sg48
g90
sg49
g91
sg50
L8L
sg53
L3L
sg52
L0L
sg51
L2L
sg54
L4L
stRp1573
ag1
(g1565
g1513
(dp1574
g47
g68
sg48
g73
sg49
g76
sg50
L3L
sg53
L3L
sg52
L0L
sg51
L3L
sg54
L2L
stRp1575
ag1
(g1565
g1513
(dp1576
g47
g68
sg48
g73
sg49
g71
sg50
L9L
sg53
L4L
sg52
g76
sg51
L8L
sg54
L8L
stRp1577
asS'seed'
p1578
NsS'thisIndex'
p1579
I2
sS'thisN'
p1580
I6
sS'thisTrialN'
p1581
I0
sS'nTotal'
p1582
I6
sbag1
(g1501
g3
NtRp1583
(dp1584
g1504
Nsg1505
(lp1585
sg1507
I342696944
sg10
S'block'
p1586
sg6
g1509
sg1510
I1
sg24
I01
sg25
g26
sg1511
g1
(g1512
g1513
(dp1587
g22
g1529
(g1530
g1516
g1531
S'b'
tRp1588
(I1
(I18
I1
tg1533
I00
S'\x00\x00\x80?\x00\x00\x80?\x00\x00\x80?\x00\x00\x80?\x00\x00\x80?\x00\x00\x80?\x00\x00\x80?\x00\x00\x00\x00\x00\x00\x80?\x00\x00\x80?\x00\x00\x80?\x00\x00\x80?\x00\x00\x80?\x00\x00\x80?\x00\x00\x80?\x00\x00\x80?\x00\x00\x80?\x00\x00\x80?'
S'\x00\x00\x00\x00\x00\x00\x00\x00\x00\x00\x00\x00\x00\x00\x00\x00\x00\x00'
Ntbsg19
g1515
(g1516
(I0
tS'b'
tRp1589
(I1
(I18
I1
tg1518
I00
(lp1590
g143
ag153
ag285
ag235
ag201
ag192
ag218
ag182
ag227
ag163
ag260
ag269
ag173
ag244
ag209
ag277
ag131
ag252
atbsg23
g1529
(g1530
g1516
g1531
S'b'
tRp1591
(I1
(I18
I1
tg1533
I00
S'g"\x12@\xeaf\x06@\x0c\xf0\xee?\xe4\xaa\n@\xd3\x96\xc9@\x9cSe@\xe7 \x8a@\xe9\xc9,AWc2A-!2@|\xb9\xb3@o\x86x@\x19\xb9\xc3@7\xa7\xea@\x8a\x87\x88@_A\xd4@5d\xbe@\xbc\xec\xbe@'
S'\x00\x00\x00\x00\x00\x00\x00\x00\x00\x00\x00\x00\x00\x00\x00\x00\x00\x00'
Ntbsg1528
g1529
(g1530
g1516
g1531
S'b'
tRp1592
(I1
(I18
I1
tg1533
I00
S'\x00\x00\x80?\x00\x00\x80?\x00\x00\x80?\x00\x00\x80?\x00\x00\x80?\x00\x00\x80?\x00\x00\x80?\x00\x00\x80?\x00\x00\x80?\x00\x00\x80?\x00\x00\x80?\x00\x00\x80?\x00\x00\x80?\x00\x00\x80?\x00\x00\x80?\x00\x00\x80?\x00\x00\x80?\x00\x00\x80?'
S'\x00\x00\x00\x00\x00\x00\x00\x00\x00\x00\x00\x00\x00\x00\x00\x00\x00\x00'
Ntbsg21
g1515
(g1516
(I0
tS'b'
tRp1593
(I1
(I18
I1
tg1518
I00
(lp1594
S'7'
aS'9'
aS'2'
aS'5'
aS'9'
aS'3'
aS'8'
aS'4'
aS'9'
aS'6'
aS'5'
aS'9'
aS'5'
aS'7'
aS'6'
aS'9'
aS'5'
aS'5'
atbsg1543
g1529
(g1530
g1516
g1531
S'b'
tRp1595
(I1
(I18
I1
tg1533
I00
S'\x00\x00\x80?\x00\x00\x00@\x00\x00\x88A\x00\x000A\x00\x00\xe0@\x00\x00\xc0@\x00\x00\x10A\x00\x00\xa0@\x00\x00 A\x00\x00@@\x00\x00`A\x00\x00pA\x00\x00\x80@\x00\x00@A\x00\x00\x00A\x00\x00\x80A\x00\x00\x00\x00\x00\x00PA'
S'\x00\x00\x00\x00\x00\x00\x00\x00\x00\x00\x00\x00\x00\x00\x00\x00\x00\x00'
Ntbsg20
g1529
(g1530
g1516
g1531
S'b'
tRp1596
(I1
(I18
I1
tg1533
I00
S':\xdc-@ycv@~#\xc2?ru\x97@K\xb9\xab@\x9d\xb8/A?\xcb,@\x8b\xa8\xa2@\xc2C$@\xcf\xec\xa6@\xc60\x0fAU\xdb\x15A\xbfA\x10AI\xcb\x9c@ \x85\xc8@\x1e\x86\x10A\x14\xca\xbc@\xf6\x85\xb8@'
S'\x00\x00\x00\x00\x00\x00\x00\x00\x00\x00\x00\x00\x00\x00\x00\x00\x00\x00'
NtbstRp1597
(dp1598
g1548
(dp1599
g1528
I01
sg21
I00
sg20
I01
sg22
I01
sg19
I00
sg23
I01
sg1543
I01
ssg1550
g1583
sg1551
(lp1600
g1528
ag1543
ag19
ag20
ag21
ag22
ag23
asg1553
(lp1601
I18
aI1
asbsg1555
g1556
sg1557
g1515
(g1516
(I0
tS'b'
tRp1602
(I1
(I18
I1
tg1518
I00
(lp1603
I16
aI0
aI1
aI9
aI12
aI7
aI5
aI4
aI14
aI6
aI8
aI3
aI13
aI17
aI10
aI11
aI15
aI2
atbsg1560
I01
sg1561
I1
sg1562
I-1
sg1563
(lp1604
g1
(g1565
g1513
(dp1605
g55
g141
sVY
L5L
sg57
L2L
sg58
g142
sg59
L7L
sg60
L7L
sg56
g144
sVX
L4L
sg61
L0L
sg62
g135
sg63
L0L
sg64
g146
stRp1606
ag1
(g1565
g1513
(dp1607
g55
g151
sVY
L3L
sg57
L2L
sg58
g152
sg59
L9L
sg60
L9L
sg56
g154
sVX
L4L
sg61
L0L
sg62
g156
sg63
L0L
sg64
g146
stRp1608
ag1
(g1565
g1513
(dp1609
g55
g283
sVY
L8L
sg57
L2L
sg58
g284
sg59
L2L
sg60
L2L
sg56
g183
sVX
L8L
sg61
L0L
sg62
g130
sg63
L0L
sg64
g237
stRp1610
ag1
(g1565
g1513
(dp1611
g55
g233
sVY
L2L
sg57
L2L
sg58
g234
sg59
L5L
sg60
L5L
sg56
g183
sVX
L8L
sg61
L0L
sg62
g164
sg63
L0L
sg64
g237
stRp1612
ag1
(g1565
g1513
(dp1613
g55
g199
sVY
L2L
sg57
L3L
sg58
g200
sg59
L9L
sg60
L9L
sg56
g154
sVX
L7L
sg61
g134
sg62
g183
sg63
L0L
sg64
g194
stRp1614
ag1
(g1565
g1513
(dp1615
g55
g190
sVY
L2L
sg57
L3L
sg58
g191
sg59
L3L
sg60
L3L
sg56
g164
sVX
L8L
sg61
g144
sg62
g156
sg63
L0L
sg64
g194
stRp1616
ag1
(g1565
g1513
(dp1617
g55
g216
sVY
L2L
sg57
L3L
sg58
g217
sg59
L8L
sg60
L8L
sg56
g219
sVX
L9L
sg61
g134
sg62
g144
sg63
L0L
sg64
g185
stRp1618
ag1
(g1565
g1513
(dp1619
g55
g180
sVY
L3L
sg57
L3L
sg58
g181
sg59
L3L
sg60
L3L
sg56
g183
sVX
L2L
sg61
g154
sg62
g164
sg63
L0L
sg64
g185
stRp1620
ag1
(g1565
g1513
(dp1621
g55
g225
sVY
L3L
sg57
L3L
sg58
g226
sg59
L9L
sg60
L9L
sg56
g144
sVX
L3L
sg61
g135
sg62
g154
sg63
L0L
sg64
g166
stRp1622
ag1
(g1565
g1513
(dp1623
g55
g161
sVY
L2L
sg57
L3L
sg58
g162
sg59
L6L
sg60
L6L
sg56
g164
sVX
L3L
sg61
g156
sg62
g154
sg63
L0L
sg64
g166
stRp1624
ag1
(g1565
g1513
(dp1625
g55
g258
sVY
L4L
sg57
L4L
sg58
g259
sg59
L5L
sg60
L5L
sg56
g130
sVX
L3L
sg61
g164
sg62
g183
sg63
g154
sg64
g262
stRp1626
ag1
(g1565
g1513
(dp1627
g55
g267
sVY
L9L
sg57
L4L
sg58
g268
sg59
L9L
sg60
L9L
sg56
g144
sVX
L3L
sg61
g164
sg62
g219
sg63
g132
sg64
g262
stRp1628
ag1
(g1565
g1513
(dp1629
g55
g171
sVY
L4L
sg57
L4L
sg58
g172
sg59
L5L
sg60
L5L
sg56
g156
sVX
L5L
sg61
g134
sg62
g144
sg63
g154
sg64
g175
stRp1630
ag1
(g1565
g1513
(dp1631
g55
g242
sVY
L2L
sg57
L4L
sg58
g243
sg59
L7L
sg60
L7L
sg56
g219
sVX
L2L
sg61
g154
sg62
g164
sg63
g144
sg64
g175
stRp1632
ag1
(g1565
g1513
(dp1633
g55
g207
sVY
L4L
sg57
L4L
sg58
g208
sg59
L6L
sg60
L6L
sg56
g130
sVX
L4L
sg61
g156
sg62
g154
sg63
g164
sg64
g211
stRp1634
ag1
(g1565
g1513
(dp1635
g55
g275
sVY
L8L
sg57
L4L
sg58
g276
sg59
L9L
sg60
L9L
sg56
g164
sVX
L8L
sg61
g183
sg62
g154
sg63
g130
sg64
g211
stRp1636
ag1
(g1565
g1513
(dp1637
g55
g128
sVY
L4L
sg57
L4L
sg58
g129
sg59
L5L
sg60
L5L
sg56
g132
sVX
L5L
sg61
g130
sg62
g134
sg63
g135
sg64
g136
stRp1638
ag1
(g1565
g1513
(dp1639
g55
g250
sVY
L4L
sg57
L4L
sg58
g251
sg59
L5L
sg60
L5L
sg56
g164
sVX
L7L
sg61
g144
sg62
g132
sg63
g219
sg64
g136
stRp1640
asg1578
Nsg1579
I2
sg1580
I18
sg1581
I0
sg1582
I18
sbag1
(g1501
g3
NtRp1641
(dp1642
g1504
Nsg1505
(lp1643
sg1507
I342696944
sg10
g1586
sg6
g1509
sg1510
I1
sg24
I01
sg25
g26
sg1511
g1
(g1512
g1513
(dp1644
g22
g1529
(g1530
g1516
g1531
S'b'
tRp1645
(I1
(I18
I1
tg1533
I00
S'\x00\x00\x80?\x00\x00\x80?\x00\x00\x80?\x00\x00\x80?\x00\x00\x00\x00\x00\x00\x80?\x00\x00\x80?\x00\x00\x80?\x00\x00\x80?\x00\x00\x80?\x00\x00\x80?\x00\x00\x80?\x00\x00\x80?\x00\x00\x80?\x00\x00\x80?\x00\x00\x80?\x00\x00\x80?\x00\x00\x00\x00'
S'\x00\x00\x00\x00\x00\x00\x00\x00\x00\x00\x00\x00\x00\x00\x00\x00\x00\x00'
Ntbsg19
g1515
(g1516
(I0
tS'b'
tRp1646
(I1
(I18
I1
tg1518
I00
(lp1647
g433
ag442
ag458
ag424
ag450
ag399
ag408
ag390
ag365
ag382
ag416
ag329
ag338
ag317
ag348
ag298
ag374
ag356
atbsg23
g1529
(g1530
g1516
g1531
S'b'
tRp1648
(I1
(I18
I1
tg1533
I00
S'L\xed\x96@\xd02\x13@gTE@\x1a\xba[@\xed\x86\xa8@\x97\xb9\x07A\x86\xbaK@\xba\x97i@\x1b\xe8~@\xd8\xff\x1f@H\x97\x15A\x1f\x1f2A9\xa8\xc2@\xcd\xda5Ab\xec\x88A\xcc\x97\xb9@?\x97\xb9@V\xca\x9c@'
S'\x00\x00\x00\x00\x00\x00\x00\x00\x00\x00\x00\x00\x00\x00\x00\x00\x00\x00'
Ntbsg1528
g1529
(g1530
g1516
g1531
S'b'
tRp1649
(I1
(I18
I1
tg1533
I00
S'\x00\x00\x80?\x00\x00\x80?\x00\x00\x80?\x00\x00\x80?\x00\x00\x80?\x00\x00\x80?\x00\x00\x80?\x00\x00\x80?\x00\x00\x80?\x00\x00\x80?\x00\x00\x80?\x00\x00\x80?\x00\x00\x80?\x00\x00\x80?\x00\x00\x80?\x00\x00\x80?\x00\x00\x80?\x00\x00\x80?'
S'\x00\x00\x00\x00\x00\x00\x00\x00\x00\x00\x00\x00\x00\x00\x00\x00\x00\x00'
Ntbsg21
g1515
(g1516
(I0
tS'b'
tRp1650
(I1
(I18
I1
tg1518
I00
(lp1651
S'7'
aS'2'
aS'8'
aS'8'
aS'9'
aS'4'
aS'9'
aS'2'
aS'5'
aS'1'
aS'2'
aS'8'
aS'3'
aS'4'
aS'7'
aS'6'
aS'8'
aS'9'
atbsg1543
g1529
(g1530
g1516
g1531
S'b'
tRp1652
(I1
(I18
I1
tg1533
I00
S'\x00\x00`A\x00\x00pA\x00\x00\x88A\x00\x00PA\x00\x00\x80A\x00\x00 A\x00\x000A\x00\x00\x10A\x00\x00\xc0@\x00\x00\x00A\x00\x00@A\x00\x00\x00@\x00\x00@@\x00\x00\x80?\x00\x00\x80@\x00\x00\x00\x00\x00\x00\xe0@\x00\x00\xa0@'
S'\x00\x00\x00\x00\x00\x00\x00\x00\x00\x00\x00\x00\x00\x00\x00\x00\x00\x00'
Ntbsg20
g1529
(g1530
g1516
g1531
S'b'
tRp1653
(I1
(I18
I1
tg1533
I00
S'\xf42\x03@!G\xc4?\xb7\xcd\xac?\x81x\xb7?\xd3\xa8J@\x01\xfd\xcf@\xda\xfd\x97@H\xbb\x0b@\xf9\xce\x0c@l\xcb\x84@[\xec\x16A\x190/A\xd9q\xf7@\x8e\xec>@m\x0eq@}\xb9\xa3@7s\xbf@:1\x0fA'
S'\x00\x00\x00\x00\x00\x00\x00\x00\x00\x00\x00\x00\x00\x00\x00\x00\x00\x00'
NtbstRp1654
(dp1655
g1548
(dp1656
g1528
I01
sg21
I00
sg20
I01
sg22
I01
sg19
I00
sg23
I01
sg1543
I01
ssg1550
g1641
sg1551
(lp1657
g1528
ag1543
ag19
ag20
ag21
ag22
ag23
asg1553
(lp1658
I18
aI1
asbsg1555
g1556
sg1557
g1515
(g1516
(I0
tS'b'
tRp1659
(I1
(I18
I1
tg1518
I00
(lp1660
I15
aI13
aI11
aI12
aI14
aI17
aI8
aI16
aI9
aI7
aI5
aI6
aI10
aI3
aI0
aI1
aI4
aI2
atbsg1560
I01
sg1561
I1
sg1562
I-1
sg1563
(lp1661
g1
(g1565
g1513
(dp1662
g291
g431
sVY
L6L
sg293
L2L
sg294
g432
sg302
L7L
sg299
L7L
sg300
g320
sVX
L3L
sg296
L0L
sg304
g347
sg306
L0L
sg308
g435
stRp1663
ag1
(g1565
g1513
(dp1664
g291
g440
sVY
L4L
sg293
L2L
sg294
g441
sg302
L2L
sg299
L2L
sg300
g321
sVX
L5L
sg296
L0L
sg304
g297
sg306
L0L
sg308
g435
stRp1665
ag1
(g1565
g1513
(dp1666
g291
g456
sVY
L2L
sg293
L2L
sg294
g457
sg302
L8L
sg299
L8L
sg300
g347
sVX
L2L
sg296
L0L
sg304
g301
sg306
L0L
sg308
g426
stRp1667
ag1
(g1565
g1513
(dp1668
g291
g422
sVY
L2L
sg293
L2L
sg294
g423
sg302
L8L
sg299
L8L
sg300
g318
sVX
L2L
sg296
L0L
sg304
g301
sg306
L0L
sg308
g426
stRp1669
ag1
(g1565
g1513
(dp1670
g291
g448
sVY
L3L
sg293
L3L
sg294
g449
sg302
L4L
sg299
L4L
sg300
g305
sVX
L8L
sg296
g316
sg304
g339
sg306
L0L
sg308
g401
stRp1671
ag1
(g1565
g1513
(dp1672
g291
g397
sVY
L2L
sg293
L3L
sg294
g398
sg302
L4L
sg299
L4L
sg300
g320
sVX
L3L
sg296
g301
sg304
g318
sg306
L0L
sg308
g401
stRp1673
ag1
(g1565
g1513
(dp1674
g291
g406
sVY
L2L
sg293
L3L
sg294
g407
sg302
L9L
sg299
L9L
sg300
g347
sVX
L2L
sg296
g305
sg304
g321
sg306
L0L
sg308
g392
stRp1675
ag1
(g1565
g1513
(dp1676
g291
g388
sVY
L2L
sg293
L3L
sg294
g389
sg302
L2L
sg299
L2L
sg300
g297
sVX
L9L
sg296
g320
sg304
g321
sg306
L0L
sg308
g392
stRp1677
ag1
(g1565
g1513
(dp1678
g291
g363
sVY
L4L
sg293
L3L
sg294
g364
sg302
L5L
sg299
L5L
sg300
g305
sVX
L8L
sg296
g339
sg304
g307
sg306
L0L
sg308
g367
stRp1679
ag1
(g1565
g1513
(dp1680
g291
g380
sVY
L6L
sg293
L3L
sg294
g381
sg302
L1L
sg299
L1L
sg300
g321
sVX
L8L
sg296
g297
sg304
g320
sg306
L0L
sg308
g367
stRp1681
ag1
(g1565
g1513
(dp1682
g291
g414
sVY
L3L
sg293
L4L
sg294
g415
sg302
L2L
sg299
L2L
sg300
g301
sVX
L6L
sg296
g321
sg304
g339
sg306
g320
sg308
g331
stRp1683
ag1
(g1565
g1513
(dp1684
g291
g327
sVY
L2L
sg293
L4L
sg294
g328
sg302
L8L
sg299
L8L
sg300
g321
sVX
L2L
sg296
g316
sg304
g318
sg306
g305
sg308
g331
stRp1685
ag1
(g1565
g1513
(dp1686
g291
g336
sVY
L3L
sg293
L4L
sg294
g337
sg302
L3L
sg299
L3L
sg300
g339
sVX
L4L
sg296
g305
sg304
g321
sg306
g316
sg308
g322
stRp1687
ag1
(g1565
g1513
(dp1688
g291
g314
sVY
L3L
sg293
L4L
sg294
g315
sg302
L4L
sg299
L4L
sg300
g318
sVX
L7L
sg296
g316
sg304
g320
sg306
g321
sg308
g322
stRp1689
ag1
(g1565
g1513
(dp1690
g291
g345
sVY
L4L
sg293
L4L
sg294
g346
sg302
L7L
sg299
L7L
sg300
g321
sVX
L8L
sg296
g347
sg304
g320
sg306
g301
sg308
g309
stRp1691
ag1
(g1565
g1513
(dp1692
g291
g292
sVY
L3L
sg293
L4L
sg294
g295
sg302
L6L
sg299
L6L
sg300
g301
sVX
L5L
sg296
g297
sg304
g305
sg306
g307
sg308
g309
stRp1693
ag1
(g1565
g1513
(dp1694
g291
g372
sVY
L2L
sg293
L4L
sg294
g373
sg302
L8L
sg299
L8L
sg300
g305
sVX
L4L
sg296
g316
sg304
g307
sg306
g347
sg308
g358
stRp1695
ag1
(g1565
g1513
(dp1696
g291
g354
sVY
L5L
sg293
L4L
sg294
g355
sg302
L3L
sg299
L3L
sg300
g307
sVX
L9L
sg296
g316
sg304
g305
sg306
g297
sg308
g358
stRp1697
asg1578
Nsg1579
I2
sg1580
I18
sg1581
I0
sg1582
I18
sbag1
(g1501
g3
NtRp1698
(dp1699
g1504
Nsg1505
(lp1700
sg1507
I342696944
sg10
g1586
sg6
g1509
sg1510
I1
sg24
I01
sg25
g26
sg1511
g1
(g1512
g1513
(dp1701
g22
g1529
(g1530
g1516
g1531
S'b'
tRp1702
(I1
(I18
I1
tg1533
I00
S'\x00\x00\x80?\x00\x00\x80?\x00\x00\x80?\x00\x00\x80?\x00\x00\x80?\x00\x00\x80?\x00\x00\x80?\x00\x00\x80?\x00\x00\x80?\x00\x00\x80?\x00\x00\x80?\x00\x00\x80?\x00\x00\x80?\x00\x00\x80?\x00\x00\x80?\x00\x00\x80?\x00\x00\x80?\x00\x00\x80?'
S'\x00\x00\x00\x00\x00\x00\x00\x00\x00\x00\x00\x00\x00\x00\x00\x00\x00\x00'
Ntbsg19
g1515
(g1516
(I0
tS'b'
tRp1703
(I1
(I18
I1
tg1518
I00
(lp1704
g470
ag573
ag631
ag582
ag530
ag539
ag520
ag599
ag556
ag499
ag591
ag488
ag623
ag547
ag564
ag607
ag511
ag615
atbsg23
g1529
(g1530
g1516
g1531
S'b'
tRp1705
(I1
(I18
I1
tg1533
I00
S'\x94\x99\t@\xf24\xf3?\x16\x8b\xc8?\x8f\x12\xf1?f\xdd-@\xeaug@\xcb\x14\x11@ \xcb\x9c@.\xef\x0e@\xbb\xbaK@\xca\x1f\x0eA$T\x85@rA(A\xbct\xc7@\xf6\xecn@\xcf\xd9\xed@\xe6\xfd\xaf@\xda\xfc\xdf@'
S'\x00\x00\x00\x00\x00\x00\x00\x00\x00\x00\x00\x00\x00\x00\x00\x00\x00\x00'
Ntbsg1528
g1529
(g1530
g1516
g1531
S'b'
tRp1706
(I1
(I18
I1
tg1533
I00
S'\x00\x00\x80?\x00\x00\x80?\x00\x00\x80?\x00\x00\x80?\x00\x00\x80?\x00\x00\x80?\x00\x00\x80?\x00\x00\x80?\x00\x00\x80?\x00\x00\x80?\x00\x00\x80?\x00\x00\x80?\x00\x00\x80?\x00\x00\x80?\x00\x00\x80?\x00\x00\x80?\x00\x00\x80?\x00\x00\x80?'
S'\x00\x00\x00\x00\x00\x00\x00\x00\x00\x00\x00\x00\x00\x00\x00\x00\x00\x00'
Ntbsg21
g1515
(g1516
(I0
tS'b'
tRp1707
(I1
(I18
I1
tg1518
I00
(lp1708
S'7'
aS'2'
aS'8'
aS'6'
aS'7'
aS'8'
aS'2'
aS'5'
aS'6'
aS'5'
aS'9'
aS'8'
aS'6'
aS'3'
aS'5'
aS'8'
aS'3'
aS'1'
atbsg1543
g1529
(g1530
g1516
g1531
S'b'
tRp1709
(I1
(I18
I1
tg1533
I00
S'\x00\x00\x00\x00\x00\x00 A\x00\x00\x88A\x00\x000A\x00\x00\xa0@\x00\x00\xc0@\x00\x00\x80@\x00\x00PA\x00\x00\x00A\x00\x00\x00@\x00\x00@A\x00\x00\x80?\x00\x00\x80A\x00\x00\xe0@\x00\x00\x10A\x00\x00`A\x00\x00@@\x00\x00pA'
S'\x00\x00\x00\x00\x00\x00\x00\x00\x00\x00\x00\x00\x00\x00\x00\x00\x00\x00'
Ntbsg20
g1529
(g1530
g1516
g1531
S'b'
tRp1710
(I1
(I18
I1
tg1533
I00
S'\x0cD\xa4?\xc2$\x82?\xba\x04\x80?3$\x82?\x9d\xa4\xea?\xe9\xbc\xbb?\x8e\xff\xff?\xd5D\xe4?\xb0y\x97?\xd0\x9a\x99?\xde\x86\x90@\x86\xed>@k\xdb}@\x90\xeb\xd6@[\x0e\xb9@51\x03A\x85\xee\x1e@V/\xf3@'
S'\x00\x00\x00\x00\x00\x00\x00\x00\x00\x00\x00\x00\x00\x00\x00\x00\x00\x00'
NtbstRp1711
(dp1712
g1548
(dp1713
g1528
I01
sg21
I00
sg20
I01
sg22
I01
sg19
I00
sg23
I01
sg1543
I01
ssg1550
g1698
sg1551
(lp1714
g1528
ag1543
ag19
ag20
ag21
ag22
ag23
asg1553
(lp1715
I18
aI1
asbsg1555
g1556
sg1557
g1515
(g1516
(I0
tS'b'
tRp1716
(I1
(I18
I1
tg1518
I00
(lp1717
I0
aI11
aI9
aI16
aI6
aI4
aI5
aI13
aI8
aI14
aI1
aI3
aI10
aI7
aI15
aI17
aI12
aI2
atbsg1560
I01
sg1561
I1
sg1562
I-1
sg1563
(lp1718
g1
(g1565
g1513
(dp1719
g464
g465
sVY
L5L
sg466
L2L
sg467
g468
sg474
L7L
sg471
L7L
sg472
g473
sVX
L3L
sg469
L0L
sg476
g477
sg478
L0L
sg479
g480
stRp1720
ag1
(g1565
g1513
(dp1721
g464
g571
sVY
L4L
sg466
L2L
sg467
g572
sg474
L2L
sg471
L2L
sg472
g473
sVX
L9L
sg469
L0L
sg476
g575
sg478
L0L
sg479
g480
stRp1722
ag1
(g1565
g1513
(dp1723
g464
g629
sVY
L3L
sg466
L2L
sg467
g630
sg474
L8L
sg471
L8L
sg472
g498
sVX
L3L
sg469
L0L
sg476
g473
sg478
L0L
sg479
g584
stRp1724
ag1
(g1565
g1513
(dp1725
g464
g580
sVY
L8L
sg466
L2L
sg467
g581
sg474
L6L
sg471
L6L
sg472
g477
sVX
L4L
sg469
L0L
sg476
g502
sg478
L0L
sg479
g584
stRp1726
ag1
(g1565
g1513
(dp1727
g464
g528
sVY
L5L
sg466
L3L
sg467
g529
sg474
L7L
sg471
L7L
sg472
g487
sVX
L2L
sg469
g473
sg476
g477
sg478
L0L
sg479
g532
stRp1728
ag1
(g1565
g1513
(dp1729
g464
g537
sVY
L2L
sg466
L3L
sg467
g538
sg474
L8L
sg471
L8L
sg472
g489
sVX
L4L
sg469
g502
sg476
g477
sg478
L0L
sg479
g532
stRp1730
ag1
(g1565
g1513
(dp1731
g464
g518
sVY
L3L
sg466
L3L
sg467
g519
sg474
L2L
sg471
L2L
sg472
g521
sVX
L3L
sg469
g500
sg476
g487
sg478
L0L
sg479
g523
stRp1732
ag1
(g1565
g1513
(dp1733
g464
g597
sVY
L3L
sg466
L3L
sg467
g598
sg474
L5L
sg471
L5L
sg472
g477
sVX
L2L
sg469
g502
sg476
g500
sg478
L0L
sg479
g523
stRp1734
ag1
(g1565
g1513
(dp1735
g464
g554
sVY
L4L
sg466
L3L
sg467
g555
sg474
L6L
sg471
L6L
sg472
g510
sVX
L5L
sg469
g477
sg476
g487
sg478
L0L
sg479
g503
stRp1736
ag1
(g1565
g1513
(dp1737
g464
g496
sVY
L3L
sg466
L3L
sg467
g497
sg474
L5L
sg471
L5L
sg472
g500
sVX
L3L
sg469
g498
sg476
g502
sg478
L0L
sg479
g503
stRp1738
ag1
(g1565
g1513
(dp1739
g464
g589
sVY
L4L
sg466
L4L
sg467
g590
sg474
L9L
sg471
L9L
sg472
g473
sVX
L9L
sg469
g510
sg476
g477
sg478
g487
sg479
g491
stRp1740
ag1
(g1565
g1513
(dp1741
g464
g485
sVY
L2L
sg466
L4L
sg467
g486
sg474
L8L
sg471
L8L
sg472
g489
sVX
L2L
sg469
g487
sg476
g477
sg478
g473
sg479
g491
stRp1742
ag1
(g1565
g1513
(dp1743
g464
g621
sVY
L6L
sg466
L4L
sg467
g622
sg474
L6L
sg471
L6L
sg472
g477
sVX
L6L
sg469
g510
sg476
g473
sg478
g502
sg479
g549
stRp1744
ag1
(g1565
g1513
(dp1745
g464
g545
sVY
L2L
sg466
L4L
sg467
g546
sg474
L3L
sg471
L3L
sg472
g521
sVX
L9L
sg469
g487
sg476
g473
sg478
g510
sg479
g549
stRp1746
ag1
(g1565
g1513
(dp1747
g464
g562
sVY
L3L
sg466
L4L
sg467
g563
sg474
L5L
sg471
L5L
sg472
g487
sVX
L3L
sg469
g498
sg476
g473
sg478
g510
sg479
g566
stRp1748
ag1
(g1565
g1513
(dp1749
g464
g605
sVY
L3L
sg466
L4L
sg467
g606
sg474
L8L
sg471
L8L
sg472
g489
sVX
L3L
sg469
g521
sg476
g473
sg478
g487
sg479
g566
stRp1750
ag1
(g1565
g1513
(dp1751
g464
g508
sVY
L4L
sg466
L4L
sg467
g509
sg474
L3L
sg471
L3L
sg472
g502
sVX
L3L
sg469
g510
sg476
g500
sg478
g498
sg479
g513
stRp1752
ag1
(g1565
g1513
(dp1753
g464
g613
sVY
L2L
sg466
L4L
sg467
g614
sg474
L1L
sg471
L1L
sg472
g502
sVX
L7L
sg469
g500
sg476
g510
sg478
g521
sg479
g513
stRp1754
asg1578
Nsg1579
I2
sg1580
I18
sg1581
I0
sg1582
I18
sbag1
(g1501
g3
NtRp1755
(dp1756
g1504
Nsg1505
(lp1757
sg1507
I342696944
sg10
g1586
sg6
g1509
sg1510
I1
sg24
I01
sg25
g26
sg1511
g1
(g1512
g1513
(dp1758
g22
g1529
(g1530
g1516
g1531
S'b'
tRp1759
(I1
(I18
I1
tg1533
I00
S'\x00\x00\x80?\x00\x00\x80?\x00\x00\x80?\x00\x00\x80?\x00\x00\x80?\x00\x00\x80?\x00\x00\x80?\x00\x00\x80?\x00\x00\x80?\x00\x00\x80?\x00\x00\x80?\x00\x00\x80?\x00\x00\x80?\x00\x00\x80?\x00\x00\x80?\x00\x00\x80?\x00\x00\x80?\x00\x00\x80?'
S'\x00\x00\x00\x00\x00\x00\x00\x00\x00\x00\x00\x00\x00\x00\x00\x00\x00\x00'
Ntbsg19
g1515
(g1516
(I0
tS'b'
tRp1760
(I1
(I18
I1
tg1518
I00
(lp1761
g672
ag772
ag746
ag796
ag804
ag763
ag738
ag729
ag788
ag644
ag662
ag694
ag703
ag683
ag780
ag720
ag711
ag755
atbsg23
g1529
(g1530
g1516
g1531
S'b'
tRp1762
(I1
(I18
I1
tg1533
I00
S"~$\xa2?\x84U\x15@\x01'\xa2?x\xcb\\@\xe2\xfd\x7f@$2c@\x93\x99)@&\xfe\x9f@- \xa2@\xfe\xdbm@\xf7\xc9\xcc@\xbe\xc8dA\xde\xb9k@+\xdb\xc5@E\xca\x14A\xaet\x0fA_\xa8\x0eAD\xb9\xc3@"
S'\x00\x00\x00\x00\x00\x00\x00\x00\x00\x00\x00\x00\x00\x00\x00\x00\x00\x00'
Ntbsg1528
g1529
(g1530
g1516
g1531
S'b'
tRp1763
(I1
(I18
I1
tg1533
I00
S'\x00\x00\x80?\x00\x00\x80?\x00\x00\x80?\x00\x00\x80?\x00\x00\x80?\x00\x00\x80?\x00\x00\x80?\x00\x00\x80?\x00\x00\x80?\x00\x00\x80?\x00\x00\x80?\x00\x00\x80?\x00\x00\x80?\x00\x00\x80?\x00\x00\x80?\x00\x00\x80?\x00\x00\x80?\x00\x00\x80?'
S'\x00\x00\x00\x00\x00\x00\x00\x00\x00\x00\x00\x00\x00\x00\x00\x00\x00\x00'
Ntbsg21
g1515
(g1516
(I0
tS'b'
tRp1764
(I1
(I18
I1
tg1518
I00
(lp1765
S'2'
aS'3'
aS'1'
aS'6'
aS'9'
aS'4'
aS'6'
aS'3'
aS'7'
aS'1'
aS'8'
aS'8'
aS'8'
aS'2'
aS'8'
aS'1'
aS'6'
aS'6'
atbsg1543
g1529
(g1530
g1516
g1531
S'b'
tRp1766
(I1
(I18
I1
tg1533
I00
S'\x00\x00\x00@\x00\x00PA\x00\x00 A\x00\x00\x80A\x00\x00\x88A\x00\x00@A\x00\x00\x10A\x00\x00\x00A\x00\x00pA\x00\x00\x00\x00\x00\x00\x80?\x00\x00\x80@\x00\x00\xa0@\x00\x00@@\x00\x00`A\x00\x00\xe0@\x00\x00\xc0@\x00\x000A'
S'\x00\x00\x00\x00\x00\x00\x00\x00\x00\x00\x00\x00\x00\x00\x00\x00\x00\x00'
Ntbsg20
g1529
(g1530
g1516
g1531
S'b'
tRp1767
(I1
(I18
I1
tg1533
I00
S'\xfb\xf0\xae?i2\xf3?W3\xd3?\x07\xac\xaa?g\xed>@\x86\xdc=@\x80\xca\xac@\xfet\xaf@y\x10\x11@\xd5\xfe/@\xfdt\x07A\xf9b\xde@\xca/\xdb@\xdc/\xdb@\x1c\xb9k@\xb9b\xc6@\xcc@\xd4@\x03B\x00A'
S'\x00\x00\x00\x00\x00\x00\x00\x00\x00\x00\x00\x00\x00\x00\x00\x00\x00\x00'
NtbstRp1768
(dp1769
g1548
(dp1770
g1528
I01
sg21
I00
sg20
I01
sg22
I01
sg19
I00
sg23
I01
sg1543
I01
ssg1550
g1755
sg1551
(lp1771
g1528
ag1543
ag19
ag20
ag21
ag22
ag23
asg1553
(lp1772
I18
aI1
asbsg1555
g1556
sg1557
g1515
(g1516
(I0
tS'b'
tRp1773
(I1
(I18
I1
tg1518
I00
(lp1774
I9
aI10
aI0
aI13
aI11
aI12
aI16
aI15
aI7
aI6
aI2
aI17
aI5
aI1
aI14
aI8
aI3
aI4
atbsg1560
I01
sg1561
I1
sg1562
I-1
sg1563
(lp1775
g1
(g1565
g1513
(dp1776
g637
g670
sVY
L2L
sg639
L2L
sg640
g671
sg648
L2L
sg645
L2L
sg646
g673
sVX
L3L
sg642
L0L
sg650
g675
sg652
L0L
sg653
g676
stRp1777
ag1
(g1565
g1513
(dp1778
g637
g770
sVY
L2L
sg639
L2L
sg640
g771
sg648
L3L
sg645
L3L
sg646
g661
sVX
L6L
sg642
L0L
sg650
g696
sg652
L0L
sg653
g676
stRp1779
ag1
(g1565
g1513
(dp1780
g637
g744
sVY
L4L
sg639
L2L
sg640
g745
sg648
L1L
sg645
L1L
sg646
g675
sVX
L8L
sg642
L0L
sg650
g661
sg652
L0L
sg653
g748
stRp1781
ag1
(g1565
g1513
(dp1782
g637
g794
sVY
L2L
sg639
L2L
sg640
g795
sg648
L6L
sg645
L6L
sg646
g643
sVX
L3L
sg642
L0L
sg650
g673
sg652
L0L
sg653
g748
stRp1783
ag1
(g1565
g1513
(dp1784
g637
g802
sVY
L8L
sg639
L3L
sg640
g803
sg648
L9L
sg645
L9L
sg646
g647
sVX
L6L
sg642
g651
sg650
g643
sg652
L0L
sg653
g765
stRp1785
ag1
(g1565
g1513
(dp1786
g637
g761
sVY
L2L
sg639
L3L
sg640
g762
sg648
L4L
sg645
L4L
sg646
g661
sVX
L3L
sg642
g693
sg650
g675
sg652
L0L
sg653
g765
stRp1787
ag1
(g1565
g1513
(dp1788
g637
g736
sVY
L3L
sg639
L3L
sg640
g737
sg648
L6L
sg645
L6L
sg646
g643
sVX
L3L
sg642
g693
sg650
g647
sg652
L0L
sg653
g731
stRp1789
ag1
(g1565
g1513
(dp1790
g637
g727
sVY
L2L
sg639
L3L
sg640
g728
sg648
L3L
sg645
L3L
sg646
g696
sVX
L8L
sg642
g647
sg650
g673
sg652
L0L
sg653
g731
stRp1791
ag1
(g1565
g1513
(dp1792
g637
g786
sVY
L3L
sg639
L3L
sg640
g787
sg648
L7L
sg645
L7L
sg646
g693
sVX
L6L
sg642
g675
sg650
g673
sg652
L0L
sg653
g654
stRp1793
ag1
(g1565
g1513
(dp1794
g637
g638
sVY
L3L
sg639
L3L
sg640
g641
sg648
L1L
sg645
L1L
sg646
g647
sVX
L3L
sg642
g643
sg650
g651
sg652
L0L
sg653
g654
stRp1795
ag1
(g1565
g1513
(dp1796
g637
g659
sVY
L6L
sg639
L4L
sg640
g660
sg648
L8L
sg645
L8L
sg646
g663
sVX
L6L
sg642
g661
sg650
g643
sg652
g651
sg653
g665
stRp1797
ag1
(g1565
g1513
(dp1798
g637
g691
sVY
L9L
sg639
L4L
sg640
g692
sg648
L8L
sg645
L8L
sg646
g661
sVX
L3L
sg642
g693
sg650
g696
sg652
g663
sg653
g665
stRp1799
ag1
(g1565
g1513
(dp1800
g637
g701
sVY
L2L
sg639
L4L
sg640
g702
sg648
L8L
sg645
L8L
sg646
g643
sVX
L3L
sg642
g673
sg650
g663
sg652
g651
sg653
g686
stRp1801
ag1
(g1565
g1513
(dp1802
g637
g681
sVY
L3L
sg639
L4L
sg640
g682
sg648
L2L
sg645
L2L
sg646
g684
sVX
L2L
sg642
g663
sg650
g651
sg652
g661
sg653
g686
stRp1803
ag1
(g1565
g1513
(dp1804
g637
g778
sVY
L7L
sg639
L4L
sg640
g779
sg648
L8L
sg645
L8L
sg646
g663
sVX
L6L
sg642
g643
sg650
g651
sg652
g661
sg653
g722
stRp1805
ag1
(g1565
g1513
(dp1806
g637
g718
sVY
L9L
sg639
L4L
sg640
g719
sg648
L1L
sg645
L1L
sg646
g673
sVX
L9L
sg642
g675
sg650
g651
sg652
g663
sg653
g722
stRp1807
ag1
(g1565
g1513
(dp1808
g637
g709
sVY
L3L
sg639
L4L
sg640
g710
sg648
L6L
sg645
L6L
sg646
g693
sVX
L9L
sg642
g673
sg650
g647
sg652
g675
sg653
g713
stRp1809
ag1
(g1565
g1513
(dp1810
g637
g753
sVY
L4L
sg639
L4L
sg640
g754
sg648
L6L
sg645
L6L
sg646
g663
sVX
L2L
sg642
g673
sg650
g651
sg652
g684
sg653
g713
stRp1811
asg1578
Nsg1579
I4
sg1580
I18
sg1581
I0
sg1582
I18
sbag1
(g1501
g3
NtRp1812
(dp1813
g1504
Nsg1505
(lp1814
sg1507
I342696944
sg10
g1586
sg6
g1509
sg1510
I1
sg24
I01
sg25
g26
sg1511
g1
(g1512
g1513
(dp1815
g22
g1529
(g1530
g1516
g1531
S'b'
tRp1816
(I1
(I18
I1
tg1533
I00
S'\x00\x00\x80?\x00\x00\x80?\x00\x00\x80?\x00\x00\x80?\x00\x00\x80?\x00\x00\x80?\x00\x00\x80?\x00\x00\x80?\x00\x00\x80?\x00\x00\x80?\x00\x00\x80?\x00\x00\x80?\x00\x00\x80?\x00\x00\x80?\x00\x00\x80?\x00\x00\x80?\x00\x00\x80?\x00\x00\x80?'
S'\x00\x00\x00\x00\x00\x00\x00\x00\x00\x00\x00\x00\x00\x00\x00\x00\x00\x00'
Ntbsg19
g1515
(g1516
(I0
tS'b'
tRp1817
(I1
(I18
I1
tg1518
I00
(lp1818
g977
ag936
ag875
ag845
ag903
ag866
ag835
ag945
ag817
ag953
ag893
ag961
ag928
ag911
ag855
ag920
ag883
ag969
atbsg23
g1529
(g1530
g1516
g1531
S'b'
tRp1819
(I1
(I18
I1
tg1533
I00
S"\xbb2C@\x07\x00 @\xa2\xf1\xce?e4\xf3?tT5@\xac\x98I@?\x00\x10@\x88\x86\xa8@\xc9Bd@-$\xe2?HCD@Z\xdc}@*\xb9\x17A'\xcc<@\x1d\xcb\x94@*B\x9c@\xab\x97y@\x16v\x8f@"
S'\x00\x00\x00\x00\x00\x00\x00\x00\x00\x00\x00\x00\x00\x00\x00\x00\x00\x00'
Ntbsg1528
g1529
(g1530
g1516
g1531
S'b'
tRp1820
(I1
(I18
I1
tg1533
I00
S'\x00\x00\x80?\x00\x00\x80?\x00\x00\x80?\x00\x00\x80?\x00\x00\x80?\x00\x00\x80?\x00\x00\x80?\x00\x00\x80?\x00\x00\x80?\x00\x00\x80?\x00\x00\x80?\x00\x00\x80?\x00\x00\x80?\x00\x00\x80?\x00\x00\x80?\x00\x00\x80?\x00\x00\x80?\x00\x00\x80?'
S'\x00\x00\x00\x00\x00\x00\x00\x00\x00\x00\x00\x00\x00\x00\x00\x00\x00\x00'
Ntbsg21
g1515
(g1516
(I0
tS'b'
tRp1821
(I1
(I18
I1
tg1518
I00
(lp1822
S'4'
aS'6'
aS'3'
aS'1'
aS'9'
aS'5'
aS'5'
aS'5'
aS'8'
aS'3'
aS'3'
aS'9'
aS'4'
aS'3'
aS'8'
aS'6'
aS'1'
aS'6'
atbsg1543
g1529
(g1530
g1516
g1531
S'b'
tRp1823
(I1
(I18
I1
tg1533
I00
S'\x00\x00\x88A\x00\x00@A\x00\x00\xa0@\x00\x00\x00@\x00\x00\x00A\x00\x00\x80@\x00\x00\x80?\x00\x00PA\x00\x00\x00\x00\x00\x00`A\x00\x00\xe0@\x00\x00pA\x00\x000A\x00\x00\x10A\x00\x00@@\x00\x00 A\x00\x00\xc0@\x00\x00\x80A'
S'\x00\x00\x00\x00\x00\x00\x00\x00\x00\x00\x00\x00\x00\x00\x00\x00\x00\x00'
Ntbsg20
g1529
(g1530
g1516
g1531
S'b'
tRp1824
(I1
(I18
I1
tg1533
I00
S'L$\xa2?r\x17Q?\xd3\x89\xc8?\x01\x12\xb1?v\xaa\xea?P\xcc\x0c@\xa4#\xc2?\xc5\xdb]@\xeb>\xc4?\xf7\xed\x0e@\xc30\x0fA\xaat\x9f@\xde\x0fQ@\xc6\x0e\xa1@\x18\x86\xb0@\xc1\xdb]@\xba`V@=S\x05A'
S'\x00\x00\x00\x00\x00\x00\x00\x00\x00\x00\x00\x00\x00\x00\x00\x00\x00\x00'
NtbstRp1825
(dp1826
g1548
(dp1827
g1528
I01
sg21
I00
sg20
I01
sg22
I01
sg19
I00
sg23
I01
sg1543
I01
ssg1550
g1812
sg1551
(lp1828
g1528
ag1543
ag19
ag20
ag21
ag22
ag23
asg1553
(lp1829
I18
aI1
asbsg1555
g1556
sg1557
g1515
(g1516
(I0
tS'b'
tRp1830
(I1
(I18
I1
tg1518
I00
(lp1831
I8
aI6
aI3
aI14
aI5
aI2
aI16
aI10
aI4
aI13
aI15
aI12
aI1
aI7
aI9
aI11
aI17
aI0
atbsg1560
I01
sg1561
I1
sg1562
I-1
sg1563
(lp1832
g1
(g1565
g1513
(dp1833
g810
g975
sVY
L2L
sg812
L2L
sg813
g976
sg821
L4L
sg818
L4L
sg819
g820
sVX
L3L
sg815
L0L
sg823
g816
sg825
L0L
sg826
g938
stRp1834
ag1
(g1565
g1513
(dp1835
g810
g934
sVY
L2L
sg812
L2L
sg813
g935
sg821
L6L
sg818
L6L
sg819
g834
sVX
L2L
sg815
L0L
sg823
g816
sg825
L0L
sg826
g938
stRp1836
ag1
(g1565
g1513
(dp1837
g810
g873
sVY
L5L
sg812
L2L
sg813
g874
sg821
L3L
sg818
L3L
sg819
g836
sVX
L4L
sg815
L0L
sg823
g824
sg825
L0L
sg826
g848
stRp1838
ag1
(g1565
g1513
(dp1839
g810
g843
sVY
L2L
sg812
L2L
sg813
g844
sg821
L1L
sg818
L1L
sg819
g846
sVX
L5L
sg815
L0L
sg823
g824
sg825
L0L
sg826
g848
stRp1840
ag1
(g1565
g1513
(dp1841
g810
g901
sVY
L3L
sg812
L3L
sg813
g902
sg821
L9L
sg818
L9L
sg819
g820
sVX
L8L
sg815
g865
sg823
g816
sg825
L0L
sg826
g868
stRp1842
ag1
(g1565
g1513
(dp1843
g810
g863
sVY
L5L
sg812
L3L
sg813
g864
sg821
L5L
sg818
L5L
sg819
g824
sVX
L6L
sg815
g865
sg823
g816
sg825
L0L
sg826
g868
stRp1844
ag1
(g1565
g1513
(dp1845
g810
g832
sVY
L7L
sg812
L3L
sg813
g833
sg821
L5L
sg818
L5L
sg819
g836
sVX
L7L
sg815
g834
sg823
g824
sg825
L0L
sg826
g838
stRp1846
ag1
(g1565
g1513
(dp1847
g810
g943
sVY
L5L
sg812
L3L
sg813
g944
sg821
L5L
sg818
L5L
sg819
g816
sVX
L4L
sg815
g820
sg823
g824
sg825
L0L
sg826
g838
stRp1848
ag1
(g1565
g1513
(dp1849
g810
g811
sVY
L5L
sg812
L3L
sg813
g814
sg821
L8L
sg818
L8L
sg819
g820
sVX
L5L
sg815
g816
sg823
g824
sg825
L0L
sg826
g827
stRp1850
ag1
(g1565
g1513
(dp1851
g810
g951
sVY
L2L
sg812
L3L
sg813
g952
sg821
L3L
sg818
L3L
sg819
g865
sVX
L4L
sg815
g885
sg823
g895
sg825
L0L
sg826
g827
stRp1852
ag1
(g1565
g1513
(dp1853
g810
g891
sVY
L5L
sg812
L4L
sg813
g892
sg821
L3L
sg818
L3L
sg819
g865
sVX
L5L
sg815
g834
sg823
g846
sg825
g895
sg826
g896
stRp1854
ag1
(g1565
g1513
(dp1855
g810
g959
sVY
L3L
sg812
L4L
sg813
g960
sg821
L9L
sg818
L9L
sg819
g834
sVX
L3L
sg815
g824
sg823
g816
sg825
g856
sg826
g896
stRp1856
ag1
(g1565
g1513
(dp1857
g810
g926
sVY
L6L
sg812
L4L
sg813
g927
sg821
L4L
sg818
L4L
sg819
g885
sVX
L3L
sg815
g895
sg823
g834
sg825
g856
sg826
g913
stRp1858
ag1
(g1565
g1513
(dp1859
g810
g909
sVY
L3L
sg812
L4L
sg813
g910
sg821
L3L
sg818
L3L
sg819
g846
sVX
L3L
sg815
g856
sg823
g895
sg825
g820
sg826
g913
stRp1860
ag1
(g1565
g1513
(dp1861
g810
g853
sVY
L2L
sg812
L4L
sg813
g854
sg821
L8L
sg818
L8L
sg819
g856
sVX
L9L
sg815
g836
sg823
g824
sg825
g834
sg826
g858
stRp1862
ag1
(g1565
g1513
(dp1863
g810
g918
sVY
L3L
sg812
L4L
sg813
g919
sg821
L6L
sg818
L6L
sg819
g865
sVX
L2L
sg815
g836
sg823
g895
sg825
g820
sg826
g858
stRp1864
ag1
(g1565
g1513
(dp1865
g810
g881
sVY
L2L
sg812
L4L
sg813
g882
sg821
L1L
sg818
L1L
sg819
g834
sVX
L8L
sg815
g865
sg823
g824
sg825
g885
sg826
g886
stRp1866
ag1
(g1565
g1513
(dp1867
g810
g967
sVY
L2L
sg812
L4L
sg813
g968
sg821
L6L
sg818
L6L
sg819
g820
sVX
L3L
sg815
g865
sg823
g895
sg825
g816
sg826
g886
stRp1868
asg1578
Nsg1579
I0
sg1580
I18
sg1581
I0
sg1582
I18
sbag1
(g1501
g3
NtRp1869
(dp1870
g1504
Nsg1505
(lp1871
sg1507
I342696944
sg10
g1586
sg6
g1509
sg1510
I1
sg24
I01
sg25
g26
sg1511
g1
(g1512
g1513
(dp1872
g22
g1529
(g1530
g1516
g1531
S'b'
tRp1873
(I1
(I18
I1
tg1533
I00
S'\x00\x00\x80?\x00\x00\x80?\x00\x00\x80?\x00\x00\x80?\x00\x00\x80?\x00\x00\x80?\x00\x00\x80?\x00\x00\x80?\x00\x00\x80?\x00\x00\x80?\x00\x00\x80?\x00\x00\x80?\x00\x00\x80?\x00\x00\x80?\x00\x00\x80?\x00\x00\x80?\x00\x00\x80?\x00\x00\x80?'
S'\x00\x00\x00\x00\x00\x00\x00\x00\x00\x00\x00\x00\x00\x00\x00\x00\x00\x00'
Ntbsg19
g1515
(g1516
(I0
tS'b'
tRp1874
(I1
(I18
I1
tg1518
I00
(lp1875
g1039
ag1007
ag1126
ag1101
ag1110
ag1057
ag1084
ag1066
ag1142
ag990
ag1028
ag1150
ag1017
ag1075
ag1118
ag1047
ag1092
ag1134
atbsg23
g1529
(g1530
g1516
g1531
S'b'
tRp1876
(I1
(I18
I1
tg1533
I00
S'\xf61\x8b@\x81i\xa6?\x9f"\x02@\x03\x11!@l \xb2@\xd3\x878@\xbc\x87h@\xa7w\x17@[w\x17@\xb2\xcd<@:1\x03A\xf6\xb9\x93@\xfc\xfd\xaf@Q\xa9\x8a@\xaa\xda\xdd@\xce\x0e\xb1@\xaa\xfc\xe7@\x96\xfc\xa7@'
S'\x00\x00\x00\x00\x00\x00\x00\x00\x00\x00\x00\x00\x00\x00\x00\x00\x00\x00'
Ntbsg1528
g1529
(g1530
g1516
g1531
S'b'
tRp1877
(I1
(I18
I1
tg1533
I00
S'\x00\x00\x80?\x00\x00\x80?\x00\x00\x80?\x00\x00\x80?\x00\x00\x80?\x00\x00\x80?\x00\x00\x80?\x00\x00\x80?\x00\x00\x80?\x00\x00\x80?\x00\x00\x80?\x00\x00\x80?\x00\x00\x80?\x00\x00\x80?\x00\x00\x80?\x00\x00\x80?\x00\x00\x80?\x00\x00\x80?'
S'\x00\x00\x00\x00\x00\x00\x00\x00\x00\x00\x00\x00\x00\x00\x00\x00\x00\x00'
Ntbsg21
g1515
(g1516
(I0
tS'b'
tRp1878
(I1
(I18
I1
tg1518
I00
(lp1879
S'1'
aS'8'
aS'4'
aS'1'
aS'3'
aS'9'
aS'1'
aS'6'
aS'6'
aS'8'
aS'8'
aS'1'
aS'6'
aS'7'
aS'5'
aS'5'
aS'5'
aS'3'
atbsg1543
g1529
(g1530
g1516
g1531
S'b'
tRp1880
(I1
(I18
I1
tg1533
I00
S'\x00\x00\x80@\x00\x00\x80?\x00\x00`A\x00\x000A\x00\x00@A\x00\x00\xc0@\x00\x00\x10A\x00\x00\xe0@\x00\x00\x80A\x00\x00\x00\x00\x00\x00@@\x00\x00\x88A\x00\x00\x00@\x00\x00\x00A\x00\x00PA\x00\x00\xa0@\x00\x00 A\x00\x00pA'
S'\x00\x00\x00\x00\x00\x00\x00\x00\x00\x00\x00\x00\x00\x00\x00\x00\x00\x00'
Ntbsg20
g1529
(g1530
g1516
g1531
S'b'
tRp1881
(I1
(I18
I1
tg1533
I00
S'\xb7\xa0Y?\xc1\xde\xbd?\xdc\xd2L?:\xc4L?\xcc\xa9\x1a@+\xf2n?(\x1dQ?\xe5gf?\xf1\xc0{?\xc9\x86H@\xc7A\x10A,vg@Y\x1f\xba@\xa5"\xc2?K\xb9\x9b@\xe3\x86X@y\xfbo@H \x92@'
S'\x00\x00\x00\x00\x00\x00\x00\x00\x00\x00\x00\x00\x00\x00\x00\x00\x00\x00'
NtbstRp1882
(dp1883
g1548
(dp1884
g1528
I01
sg21
I00
sg20
I01
sg22
I01
sg19
I00
sg23
I01
sg1543
I01
ssg1550
g1869
sg1551
(lp1885
g1528
ag1543
ag19
ag20
ag21
ag22
ag23
asg1553
(lp1886
I18
aI1
asbsg1555
g1556
sg1557
g1515
(g1516
(I0
tS'b'
tRp1887
(I1
(I18
I1
tg1518
I00
(lp1888
I9
aI1
aI12
aI10
aI0
aI15
aI5
aI7
aI13
aI6
aI16
aI3
aI4
aI14
aI2
aI17
aI8
aI11
atbsg1560
I01
sg1561
I1
sg1562
I-1
sg1563
(lp1889
g1
(g1565
g1513
(dp1890
g983
g1037
sVY
L3L
sg985
L2L
sg986
g1038
sg994
L1L
sg991
L1L
sg992
g993
sVX
L9L
sg988
L0L
sg996
g1018
sg998
L0L
sg999
g1009
stRp1891
ag1
(g1565
g1513
(dp1892
g983
g1005
sVY
L2L
sg985
L2L
sg986
g1006
sg994
L8L
sg991
L8L
sg992
g997
sVX
L2L
sg988
L0L
sg996
g989
sg998
L0L
sg999
g1009
stRp1893
ag1
(g1565
g1513
(dp1894
g983
g1124
sVY
L3L
sg985
L2L
sg986
g1125
sg994
L4L
sg991
L4L
sg992
g1030
sVX
L6L
sg988
L0L
sg996
g1020
sg998
L0L
sg999
g1103
stRp1895
ag1
(g1565
g1513
(dp1896
g983
g1099
sVY
L2L
sg985
L2L
sg986
g1100
sg994
L1L
sg991
L1L
sg992
g1018
sVX
L6L
sg988
L0L
sg996
g993
sg998
L0L
sg999
g1103
stRp1897
ag1
(g1565
g1513
(dp1898
g983
g1108
sVY
L9L
sg985
L3L
sg986
g1109
sg994
L3L
sg991
L3L
sg992
g1016
sVX
L5L
sg988
g1031
sg996
g1030
sg998
L0L
sg999
g1059
stRp1899
ag1
(g1565
g1513
(dp1900
g983
g1055
sVY
L3L
sg985
L3L
sg986
g1056
sg994
L9L
sg991
L9L
sg992
g1049
sVX
L5L
sg988
g1020
sg996
g989
sg998
L0L
sg999
g1059
stRp1901
ag1
(g1565
g1513
(dp1902
g983
g1082
sVY
L2L
sg985
L3L
sg986
g1083
sg994
L1L
sg991
L1L
sg992
g1018
sVX
L7L
sg988
g1031
sg996
g993
sg998
L0L
sg999
g1068
stRp1903
ag1
(g1565
g1513
(dp1904
g983
g1064
sVY
L6L
sg985
L3L
sg986
g1065
sg994
L6L
sg991
L6L
sg992
g989
sVX
L6L
sg988
g1049
sg996
g993
sg998
L0L
sg999
g1068
stRp1905
ag1
(g1565
g1513
(dp1906
g983
g1140
sVY
L2L
sg985
L3L
sg986
g1141
sg994
L6L
sg991
L6L
sg992
g1031
sVX
L2L
sg988
g1076
sg996
g997
sg998
L0L
sg999
g1000
stRp1907
ag1
(g1565
g1513
(dp1908
g983
g984
sVY
L6L
sg985
L3L
sg986
g987
sg994
L8L
sg991
L8L
sg992
g993
sVX
L2L
sg988
g989
sg996
g997
sg998
L0L
sg999
g1000
stRp1909
ag1
(g1565
g1513
(dp1910
g983
g1026
sVY
L4L
sg985
L4L
sg986
g1027
sg994
L8L
sg991
L8L
sg992
g997
sVX
L3L
sg988
g1016
sg996
g1030
sg998
g1031
sg999
g1032
stRp1911
ag1
(g1565
g1513
(dp1912
g983
g1148
sVY
L8L
sg985
L4L
sg986
g1149
sg994
L1L
sg991
L1L
sg992
g1016
sVX
L2L
sg988
g1031
sg996
g1030
sg998
g997
sg999
g1032
stRp1913
ag1
(g1565
g1513
(dp1914
g983
g1014
sVY
L5L
sg985
L4L
sg986
g1015
sg994
L6L
sg991
L6L
sg992
g1018
sVX
L4L
sg988
g1016
sg996
g997
sg998
g1020
sg999
g1021
stRp1915
ag1
(g1565
g1513
(dp1916
g983
g1073
sVY
L3L
sg985
L4L
sg986
g1074
sg994
L7L
sg991
L7L
sg992
g1076
sVX
L2L
sg988
g1049
sg996
g1020
sg998
g1016
sg999
g1021
stRp1917
ag1
(g1565
g1513
(dp1918
g983
g1116
sVY
L3L
sg985
L4L
sg986
g1117
sg994
L5L
sg991
L5L
sg992
g1016
sVX
L3L
sg988
g1018
sg996
g1031
sg998
g997
sg999
g1050
stRp1919
ag1
(g1565
g1513
(dp1920
g983
g1045
sVY
L4L
sg985
L4L
sg986
g1046
sg994
L5L
sg991
L5L
sg992
g1031
sVX
L8L
sg988
g989
sg996
g993
sg998
g1049
sg999
g1050
stRp1921
ag1
(g1565
g1513
(dp1922
g983
g1090
sVY
L2L
sg985
L4L
sg986
g1091
sg994
L5L
sg991
L5L
sg992
g1016
sVX
L6L
sg988
g1049
sg996
g1031
sg998
g1030
sg999
g1094
stRp1923
ag1
(g1565
g1513
(dp1924
g983
g1132
sVY
L2L
sg985
L4L
sg986
g1133
sg994
L3L
sg991
L3L
sg992
g1016
sVX
L3L
sg988
g1020
sg996
g1049
sg998
g1030
sg999
g1094
stRp1925
asg1578
Nsg1579
I11
sg1580
I18
sg1581
I0
sg1582
I18
sbag1
(g1501
g3
NtRp1926
(dp1927
g1504
Nsg1505
(lp1928
sg1507
I342696944
sg10
g1586
sg6
g1509
sg1510
I1
sg24
I01
sg25
g26
sg1511
g1
(g1512
g1513
(dp1929
g22
g1529
(g1530
g1516
g1531
S'b'
tRp1930
(I1
(I18
I1
tg1533
I00
S'\x00\x00\x80?\x00\x00\x80?\x00\x00\x80?\x00\x00\x80?\x00\x00\x80?\x00\x00\x00\x00\x00\x00\x80?\x00\x00\x80?\x00\x00\x80?\x00\x00\x80?\x00\x00\x80?\x00\x00\x80?\x00\x00\x80?\x00\x00\x80?\x00\x00\x00\x00\x00\x00\x80?\x00\x00\x80?\x00\x00\x80?'
S'\x00\x00\x00\x00\x00\x00\x00\x00\x00\x00\x00\x00\x00\x00\x00\x00\x00\x00'
Ntbsg19
g1515
(g1516
(I0
tS'b'
tRp1931
(I1
(I18
I1
tg1518
I00
(lp1932
g1238
ag1211
ag1220
ag1162
ag1307
ag1273
ag1246
ag1299
ag1255
ag1193
ag1180
ag1203
ag1323
ag1290
ag1315
ag1229
ag1282
ag1263
atbsg23
g1529
(g1530
g1516
g1531
S'b'
tRp1933
(I1
(I18
I1
tg1533
I00
S"\xaf\x9b\xb9?MF\xe4?-G\xa4?\xd3\xa9:@|w'@}\xdb}@\x8d-#@j\x13\xb1?\xfb \x82@\x0e b@/\x98\x89@GvW@&1\xab@\t\xaaJ@Z\xfd#A\xd4SU@\xc1\xdb\xad@z\x1f\xca@"
S'\x00\x00\x00\x00\x00\x00\x00\x00\x00\x00\x00\x00\x00\x00\x00\x00\x00\x00'
Ntbsg1528
g1529
(g1530
g1516
g1531
S'b'
tRp1934
(I1
(I18
I1
tg1533
I00
S'\x00\x00\x80?\x00\x00\x80?\x00\x00\x80?\x00\x00\x80?\x00\x00\x80?\x00\x00\x80?\x00\x00\x80?\x00\x00\x80?\x00\x00\x80?\x00\x00\x80?\x00\x00\x80?\x00\x00\x80?\x00\x00\x80?\x00\x00\x80?\x00\x00\x80?\x00\x00\x80?\x00\x00\x80?\x00\x00\x80?'
S'\x00\x00\x00\x00\x00\x00\x00\x00\x00\x00\x00\x00\x00\x00\x00\x00\x00\x00'
Ntbsg21
g1515
(g1516
(I0
tS'b'
tRp1935
(I1
(I18
I1
tg1518
I00
(lp1936
S'1'
aS'4'
aS'9'
aS'6'
aS'6'
aS'9'
aS'8'
aS'2'
aS'1'
aS'9'
aS'1'
aS'2'
aS'1'
aS'3'
aS'5'
aS'1'
aS'5'
aS'7'
atbsg1543
g1529
(g1530
g1516
g1531
S'b'
tRp1937
(I1
(I18
I1
tg1533
I00
S'\x00\x00\xe0@\x00\x00\x80@\x00\x00\xa0@\x00\x00\x00\x00\x00\x00pA\x00\x000A\x00\x00\x00A\x00\x00`A\x00\x00\x10A\x00\x00\x00@\x00\x00\x80?\x00\x00@@\x00\x00\x88A\x00\x00PA\x00\x00\x80A\x00\x00\xc0@\x00\x00@A\x00\x00 A'
S'\x00\x00\x00\x00\x00\x00\x00\x00\x00\x00\x00\x00\x00\x00\x00\x00\x00\x00'
Ntbsg20
g1529
(g1530
g1516
g1531
S'b'
tRp1938
(I1
(I18
I1
tg1533
I00
S'\x83\xe3]?\xf7[U?\x9f\xbd\x9b?\xe7\xe0\x9d?n\xf0\xae?\x14\xe0\x9d?\x0b\x8c\xe8?WF\xa4?\x9a#\x82?u#\xc2?]\xed\x86@\xa1\xa9*@c\x83\xf0@\x1fb\xfe@\xa8 \x92@c\x97\x01Ay\xdb\xb5@\xf3\xcb\x1c@'
S'\x00\x00\x00\x00\x00\x00\x00\x00\x00\x00\x00\x00\x00\x00\x00\x00\x00\x00'
NtbstRp1939
(dp1940
g1548
(dp1941
g1528
I01
sg21
I00
sg20
I01
sg22
I01
sg19
I00
sg23
I01
sg1543
I01
ssg1550
g1926
sg1551
(lp1942
g1528
ag1543
ag19
ag20
ag21
ag22
ag23
asg1553
(lp1943
I18
aI1
asbsg1555
g1556
sg1557
g1515
(g1516
(I0
tS'b'
tRp1944
(I1
(I18
I1
tg1518
I00
(lp1945
I3
aI10
aI9
aI11
aI1
aI2
aI15
aI0
aI6
aI8
aI17
aI5
aI16
aI13
aI7
aI4
aI14
aI12
atbsg1560
I01
sg1561
I1
sg1562
I-1
sg1563
(lp1946
g1
(g1565
g1513
(dp1947
g1156
g1236
sVY
L2L
sg1158
L2L
sg1159
g1237
sg1166
L1L
sg1163
L1L
sg1164
g1179
sVX
L9L
sg1161
L0L
sg1168
g1165
sg1170
L0L
sg1171
g1213
stRp1948
ag1
(g1565
g1513
(dp1949
g1156
g1209
sVY
L4L
sg1158
L2L
sg1159
g1210
sg1166
L4L
sg1163
L4L
sg1164
g1179
sVX
L3L
sg1161
L0L
sg1168
g1192
sg1170
L0L
sg1171
g1213
stRp1950
ag1
(g1565
g1513
(dp1951
g1156
g1218
sVY
L4L
sg1158
L2L
sg1159
g1219
sg1166
L9L
sg1163
L9L
sg1164
g1192
sVX
L2L
sg1161
L0L
sg1168
g1222
sg1170
L0L
sg1171
g1172
stRp1952
ag1
(g1565
g1513
(dp1953
g1156
g1157
sVY
L6L
sg1158
L2L
sg1159
g1160
sg1166
L6L
sg1163
L6L
sg1164
g1165
sVX
L8L
sg1161
L0L
sg1168
g1169
sg1170
L0L
sg1171
g1172
stRp1954
ag1
(g1565
g1513
(dp1955
g1156
g1305
sVY
L4L
sg1158
L3L
sg1159
g1306
sg1166
L6L
sg1163
L6L
sg1164
g1181
sVX
L6L
sg1161
g1194
sg1168
g1265
sg1170
L0L
sg1171
g1275
stRp1956
ag1
(g1565
g1513
(dp1957
g1156
g1271
sVY
L9L
sg1158
L3L
sg1159
g1272
sg1166
L7L
sg1163
L7L
sg1164
g1184
sVX
L9L
sg1161
g1181
sg1168
g1165
sg1170
L0L
sg1171
g1275
stRp1958
ag1
(g1565
g1513
(dp1959
g1156
g1244
sVY
L4L
sg1158
L3L
sg1159
g1245
sg1166
L8L
sg1163
L8L
sg1164
g1192
sVX
L3L
sg1161
g1179
sg1168
g1184
sg1170
L0L
sg1171
g1248
stRp1960
ag1
(g1565
g1513
(dp1961
g1156
g1297
sVY
L2L
sg1158
L3L
sg1159
g1298
sg1166
L2L
sg1163
L2L
sg1164
g1183
sVX
L4L
sg1161
g1194
sg1168
g1222
sg1170
L0L
sg1171
g1248
stRp1962
ag1
(g1565
g1513
(dp1963
g1156
g1253
sVY
L2L
sg1158
L3L
sg1159
g1254
sg1166
L1L
sg1163
L1L
sg1164
g1194
sVX
L8L
sg1161
g1183
sg1168
g1181
sg1170
L0L
sg1171
g1196
stRp1964
ag1
(g1565
g1513
(dp1965
g1156
g1190
sVY
L3L
sg1158
L3L
sg1159
g1191
sg1166
L9L
sg1163
L9L
sg1164
g1194
sVX
L2L
sg1161
g1192
sg1168
g1169
sg1170
L0L
sg1171
g1196
stRp1966
ag1
(g1565
g1513
(dp1967
g1156
g1177
sVY
L3L
sg1158
L4L
sg1159
g1178
sg1166
L1L
sg1163
L1L
sg1164
g1181
sVX
L6L
sg1161
g1179
sg1168
g1183
sg1170
g1184
sg1171
g1185
stRp1968
ag1
(g1565
g1513
(dp1969
g1156
g1201
sVY
L2L
sg1158
L4L
sg1159
g1202
sg1166
L2L
sg1163
L2L
sg1164
g1181
sVX
L3L
sg1161
g1179
sg1168
g1192
sg1170
g1184
sg1171
g1185
stRp1970
ag1
(g1565
g1513
(dp1971
g1156
g1321
sVY
L9L
sg1158
L4L
sg1159
g1322
sg1166
L1L
sg1163
L1L
sg1164
g1183
sVX
L3L
sg1161
g1169
sg1168
g1181
sg1170
g1184
sg1171
g1292
stRp1972
ag1
(g1565
g1513
(dp1973
g1156
g1288
sVY
L3L
sg1158
L4L
sg1159
g1289
sg1166
L3L
sg1163
L3L
sg1164
g1165
sVX
L6L
sg1161
g1222
sg1168
g1169
sg1170
g1194
sg1171
g1292
stRp1974
ag1
(g1565
g1513
(dp1975
g1156
g1313
sVY
L2L
sg1158
L4L
sg1159
g1314
sg1166
L7L
sg1163
L7L
sg1164
g1194
sVX
L2L
sg1161
g1192
sg1168
g1222
sg1170
g1169
sg1171
g1231
stRp1976
ag1
(g1565
g1513
(dp1977
g1156
g1227
sVY
L2L
sg1158
L4L
sg1159
g1228
sg1166
L1L
sg1163
L1L
sg1164
g1222
sVX
L8L
sg1161
g1165
sg1168
g1179
sg1170
g1194
sg1171
g1231
stRp1978
ag1
(g1565
g1513
(dp1979
g1156
g1280
sVY
L2L
sg1158
L4L
sg1159
g1281
sg1166
L5L
sg1163
L5L
sg1164
g1194
sVX
L2L
sg1161
g1169
sg1168
g1181
sg1170
g1265
sg1171
g1266
stRp1980
ag1
(g1565
g1513
(dp1981
g1156
g1261
sVY
L2L
sg1158
L4L
sg1159
g1262
sg1166
L7L
sg1163
L7L
sg1164
g1169
sVX
L2L
sg1161
g1194
sg1168
g1222
sg1170
g1265
sg1171
g1266
stRp1982
asg1578
Nsg1579
I12
sg1580
I18
sg1581
I0
sg1582
I18
sbag1
(g1501
g3
NtRp1983
(dp1984
g1504
Nsg1505
(lp1985
sg1507
I342696944
sg10
g1586
sg6
g1509
sg1510
I1
sg24
I01
sg25
g26
sg1511
g1
(g1512
g1513
(dp1986
g22
g1529
(g1530
g1516
g1531
S'b'
tRp1987
(I1
(I18
I1
tg1533
I00
S'\x00\x00\x80?\x00\x00\x80?\x00\x00\x80?\x00\x00\x80?\x00\x00\x80?\x00\x00\x80?\x00\x00\x80?\x00\x00\x80?\x00\x00\x80?\x00\x00\x80?\x00\x00\x80?\x00\x00\x80?\x00\x00\x80?\x00\x00\x80?\x00\x00\x80?\x00\x00\x80?\x00\x00\x80?\x00\x00\x80?'
S'\x00\x00\x00\x00\x00\x00\x00\x00\x00\x00\x00\x00\x00\x00\x00\x00\x00\x00'
Ntbsg19
g1515
(g1516
(I0
tS'b'
tRp1988
(I1
(I18
I1
tg1518
I00
(lp1989
g1393
ag1497
ag1421
ag1384
ag1413
ag1366
ag1446
ag1463
ag1455
ag1336
ag1481
ag1472
ag1429
ag1375
ag1354
ag1438
ag1489
ag1403
atbsg23
g1529
(g1530
g1516
g1531
S'b'
tRp1990
(I1
(I18
I1
tg1533
I00
S"}z\xb7?'6\xd3?GX\x95?\xb6\xac\xca?\xb8\x99\t@:\x00\x10@\x03f6@\x1f\xefN@&ef@\xbdT5@\xfae6@\x9et\xbf@\r\xbb\x8b@{\xba\x8b@m\x97y@\x12\x11!@\x1cB\xb4@^\x96\x99@"
S'\x00\x00\x00\x00\x00\x00\x00\x00\x00\x00\x00\x00\x00\x00\x00\x00\x00\x00'
Ntbsg1528
g1529
(g1530
g1516
g1531
S'b'
tRp1991
(I1
(I18
I1
tg1533
I00
S'\x00\x00\x80?\x00\x00\x80?\x00\x00\x80?\x00\x00\x80?\x00\x00\x80?\x00\x00\x80?\x00\x00\x80?\x00\x00\x80?\x00\x00\x80?\x00\x00\x80?\x00\x00\x80?\x00\x00\x80?\x00\x00\x80?\x00\x00\x80?\x00\x00\x80?\x00\x00\x80?\x00\x00\x80?\x00\x00\x80?'
S'\x00\x00\x00\x00\x00\x00\x00\x00\x00\x00\x00\x00\x00\x00\x00\x00\x00\x00'
Ntbsg21
g1515
(g1516
(I0
tS'b'
tRp1992
(I1
(I18
I1
tg1518
I00
(lp1993
S'8'
aS'2'
aS'2'
aS'8'
aS'1'
aS'2'
aS'1'
aS'2'
aS'8'
aS'6'
aS'7'
aS'1'
aS'9'
aS'7'
aS'3'
aS'6'
aS'5'
aS'4'
atbsg1543
g1529
(g1530
g1516
g1531
S'b'
tRp1994
(I1
(I18
I1
tg1533
I00
S'\x00\x00\xa0@\x00\x00\x88A\x00\x00\x00A\x00\x00\x80@\x00\x00\xe0@\x00\x00\x00@\x00\x000A\x00\x00PA\x00\x00@A\x00\x00\x00\x00\x00\x00pA\x00\x00`A\x00\x00\x10A\x00\x00@@\x00\x00\x80?\x00\x00 A\x00\x00\x80A\x00\x00\xc0@'
S'\x00\x00\x00\x00\x00\x00\x00\x00\x00\x00\x00\x00\x00\x00\x00\x00\x00\x00'
Ntbsg20
g1529
(g1530
g1516
g1531
S'b'
tRp1995
(I1
(I18
I1
tg1533
I00
S'2\xd2L?0\x13\x91?\xcd\x9b\x99?\xe6\xce\x8c?\x07\x00\xc0?\xa3uW@"\xcb\x84@\xfc\x1fb@\xec B@\xe5\xda\xbd@}\xed>@~\xdb\x11AsBD@]\xdb\xbd@\xd0\x85\x1cA\x8d\xb9\x03A\x96\x0eq@\xc2B4@'
S'\x00\x00\x00\x00\x00\x00\x00\x00\x00\x00\x00\x00\x00\x00\x00\x00\x00\x00'
NtbstRp1996
(dp1997
g1548
(dp1998
g1528
I01
sg21
I00
sg20
I01
sg22
I01
sg19
I00
sg23
I01
sg1543
I01
ssg1550
g1983
sg1551
(lp1999
g1528
ag1543
ag19
ag20
ag21
ag22
ag23
asg1553
(lp2000
I18
aI1
asbsg1555
g1556
sg1557
g1515
(g1516
(I0
tS'b'
tRp2001
(I1
(I18
I1
tg1518
I00
(lp2002
I9
aI14
aI5
aI13
aI3
aI0
aI17
aI4
aI2
aI12
aI15
aI6
aI8
aI7
aI11
aI10
aI16
aI1
atbsg1560
I01
sg1561
I1
sg1562
I-1
sg1563
(lp2003
g1
(g1565
g1513
(dp2004
g1329
g1391
sVY
L4L
sg1331
L2L
sg1332
g1392
sg1340
L8L
sg1337
L8L
sg1338
g1343
sVX
L2L
sg1334
L0L
sg1342
g1395
sg1344
L0L
sg1345
g1396
stRp2005
ag1
(g1565
g1513
(dp2006
g1329
g1495
sVY
L6L
sg1331
L2L
sg1332
g1496
sg1340
L2L
sg1337
L2L
sg1338
g1343
sVX
L6L
sg1334
L0L
sg1342
g1405
sg1344
L0L
sg1345
g1396
stRp2007
ag1
(g1565
g1513
(dp2008
g1329
g1419
sVY
L7L
sg1331
L2L
sg1332
g1420
sg1340
L2L
sg1337
L2L
sg1338
g1335
sVX
L8L
sg1334
L0L
sg1342
g1343
sg1344
L0L
sg1345
g1386
stRp2009
ag1
(g1565
g1513
(dp2010
g1329
g1382
sVY
L4L
sg1331
L2L
sg1332
g1383
sg1340
L8L
sg1337
L8L
sg1338
g1353
sVX
L4L
sg1334
L0L
sg1342
g1358
sg1344
L0L
sg1345
g1386
stRp2011
ag1
(g1565
g1513
(dp2012
g1329
g1411
sVY
L4L
sg1331
L3L
sg1332
g1412
sg1340
L1L
sg1337
L1L
sg1338
g1343
sVX
L6L
sg1334
g1355
sg1342
g1405
sg1344
L0L
sg1345
g1368
stRp2013
ag1
(g1565
g1513
(dp2014
g1329
g1364
sVY
L4L
sg1331
L3L
sg1332
g1365
sg1340
L2L
sg1337
L2L
sg1338
g1358
sVX
L4L
sg1334
g1339
sg1342
g1335
sg1344
L0L
sg1345
g1368
stRp2015
ag1
(g1565
g1513
(dp2016
g1329
g1444
sVY
L7L
sg1331
L3L
sg1332
g1445
sg1340
L1L
sg1337
L1L
sg1338
g1335
sVX
L3L
sg1334
g1339
sg1342
g1358
sg1344
L0L
sg1345
g1448
stRp2017
ag1
(g1565
g1513
(dp2018
g1329
g1461
sVY
L3L
sg1331
L3L
sg1332
g1462
sg1340
L2L
sg1337
L2L
sg1338
g1405
sVX
L9L
sg1334
g1355
sg1342
g1465
sg1344
L0L
sg1345
g1448
stRp2019
ag1
(g1565
g1513
(dp2020
g1329
g1453
sVY
L2L
sg1331
L3L
sg1332
g1454
sg1340
L8L
sg1337
L8L
sg1338
g1357
sVX
L7L
sg1334
g1335
sg1342
g1343
sg1344
L0L
sg1345
g1346
stRp2021
ag1
(g1565
g1513
(dp2022
g1329
g1330
sVY
L3L
sg1331
L3L
sg1332
g1333
sg1340
L6L
sg1337
L6L
sg1338
g1339
sVX
L4L
sg1334
g1335
sg1342
g1343
sg1344
L0L
sg1345
g1346
stRp2023
ag1
(g1565
g1513
(dp2024
g1329
g1479
sVY
L6L
sg1331
L4L
sg1332
g1480
sg1340
L7L
sg1337
L7L
sg1338
g1355
sVX
L4L
sg1334
g1465
sg1342
g1395
sg1344
g1358
sg1345
g1474
stRp2025
ag1
(g1565
g1513
(dp2026
g1329
g1470
sVY
L5L
sg1331
L4L
sg1332
g1471
sg1340
L1L
sg1337
L1L
sg1338
g1465
sVX
L6L
sg1334
g1343
sg1342
g1405
sg1344
g1355
sg1345
g1474
stRp2027
ag1
(g1565
g1513
(dp2028
g1329
g1427
sVY
L4L
sg1331
L4L
sg1332
g1428
sg1340
L9L
sg1337
L9L
sg1338
g1395
sVX
L9L
sg1334
g1343
sg1342
g1431
sg1344
g1355
sg1345
g1377
stRp2029
ag1
(g1565
g1513
(dp2030
g1329
g1373
sVY
L4L
sg1331
L4L
sg1332
g1374
sg1340
L7L
sg1337
L7L
sg1338
g1353
sVX
L3L
sg1334
g1343
sg1342
g1357
sg1344
g1355
sg1345
g1377
stRp2031
ag1
(g1565
g1513
(dp2032
g1329
g1351
sVY
L6L
sg1331
L4L
sg1332
g1352
sg1340
L3L
sg1337
L3L
sg1338
g1355
sVX
L4L
sg1334
g1353
sg1342
g1357
sg1344
g1358
sg1345
g1359
stRp2033
ag1
(g1565
g1513
(dp2034
g1329
g1436
sVY
L8L
sg1331
L4L
sg1332
g1437
sg1340
L6L
sg1337
L6L
sg1338
g1339
sVX
L9L
sg1334
g1405
sg1342
g1343
sg1344
g1357
sg1345
g1359
stRp2035
ag1
(g1565
g1513
(dp2036
g1329
g1487
sVY
L2L
sg1331
L4L
sg1332
g1488
sg1340
L5L
sg1337
L5L
sg1338
g1358
sVX
L8L
sg1334
g1339
sg1342
g1357
sg1344
g1405
sg1345
g1406
stRp2037
ag1
(g1565
g1513
(dp2038
g1329
g1401
sVY
L4L
sg1331
L4L
sg1332
g1402
sg1340
L4L
sg1337
L4L
sg1338
g1357
sVX
L4L
sg1334
g1339
sg1342
g1343
sg1344
g1405
sg1345
g1406
stRp2039
asg1578
Nsg1579
I1
sg1580
I18
sg1581
I0
sg1582
I18
sbasS'savePickle'
p2040
I00
sb.