ccopy_reg
_reconstructor
p1
(cpsychopy.data
ExperimentHandler
p2
c__builtin__
object
p3
NtRp4
(dp5
S'originPath'
p6
NsS'dataFileName'
p7
VC:\u005cUsers\u005cexperimenter\u005cDesktop\u005cExperiments\u005cKRITL\u005cdata/31042_KRITL_2017_Apr_21_0921
p8
sS'runtimeInfo'
p9
NsS'name'
p10
S'KRITL'
p11
sS'dataNames'
p12
(lp13
S'practice_encoding.keys'
p14
aS'practice_execution.keys'
p15
aS'practice_execution.corr'
p16
aS'practice_execution.rt'
p17
aS'practice_encoding.rt'
p18
aS'encoding.keys'
p19
aS'encoding.rt'
p20
aS'execution.keys'
p21
aS'execution.corr'
p22
aS'execution.rt'
p23
asS'autoLog'
p24
I01
sS'extraInfo'
p25
(dp26
S'date'
p27
V2017_Apr_21_0921
p28
sS'frameRate'
p29
NsS'expName'
p30
g11
sVsession
p31
V001
p32
sVparticipant
p33
V31042
p34
ssS'loopsUnfinished'
p35
(lp36
sS'saveWideText'
p37
I00
sS'thisEntry'
p38
(dp39
sS'version'
p40
S''
sS'_paramNamesSoFar'
p41
(lp42
Voperationc
p43
aVoperationb
p44
aVoperationa
p45
aVcorrectresponse
p46
aVvaluey
p47
aVoperationd
p48
aVcondition
p49
aVvaluex
p50
aVRule
p51
aVOperatora
p52
aVLength
p53
aVIntermediate
p54
aVCorrectResponse
p55
aVResult
p56
aVY
aVX
aVOperatorc
p57
aVOperatorb
p58
aVOperatord
p59
aVStructure
p60
asS'entries'
p61
(lp62
(dp63
g31
g32
sg43
Vincrease
p64
sg27
g28
sg15
S'6'
sg17
F17.683379989350215
sg14
Nsg49
L3L
sg45
Vtriple
p65
sg29
Nsg16
I0
sS'practice_trials.thisN'
p66
I0
sg44
VDIVIDE
p67
sS'practice_trials.thisIndex'
p68
I4
sg30
g11
sg46
L3L
sS'practice_trials.thisTrialN'
p69
I0
sg48
L0L
sS'practice_trials.thisRepN'
p70
I0
sg33
g34
sg47
L3L
sg50
L2L
sa(dp71
g31
g32
sg43
VADD
p72
sg27
g28
sg15
S'8'
sg17
F5.2444109957432374
sg14
Nsg49
L3L
sg45
Vhalf
p73
sg29
Nsg16
I1
sS'practice_trials.thisN'
p74
I1
sg44
Vtriple 
p75
sS'practice_trials.thisIndex'
p76
I3
sg30
g11
sg46
L8L
sS'practice_trials.thisTrialN'
p77
I1
sg48
L0L
sS'practice_trials.thisRepN'
p78
I0
sg33
g34
sg47
L2L
sg50
L4L
sa(dp79
g17
F2.0529190278612077
sg29
Nsg16
I1
sg43
L0L
sg44
g72
sg45
g73
sg31
g32
sg46
L7L
sS'practice_trials.thisTrialN'
p80
I2
sg48
L0L
sS'practice_trials.thisRepN'
p81
I0
sg33
g34
sg49
L2L
sg27
g28
sg15
S'7'
sg14
(lp82
S'space'
p83
asS'practice_trials.thisIndex'
p84
I2
sS'practice_trials.thisN'
p85
I2
sg30
g11
sg18
(lp86
F9.8993246055906639
asg47
L5L
sg50
L4L
sa(dp87
g17
F1.8621140384348109
sg29
Nsg16
I1
sg43
L0L
sg44
Vdecrease
p88
sg45
VTIMES
p89
sg31
g32
sg46
L8L
sS'practice_trials.thisTrialN'
p90
I3
sg48
L0L
sS'practice_trials.thisRepN'
p91
I0
sg33
g34
sg49
L2L
sg27
g28
sg15
S'8'
sg14
(lp92
S'space'
p93
asS'practice_trials.thisIndex'
p94
I1
sS'practice_trials.thisN'
p95
I3
sg30
g11
sg18
(lp96
F17.547880428726785
asg47
L3L
sg50
L3L
sa(dp97
g17
F2.8074224455049261
sg29
Nsg16
I1
sg43
L0L
sg44
g72
sg45
g88
sg31
g32
sg46
L7L
sS'practice_trials.thisTrialN'
p98
I4
sg48
L0L
sS'practice_trials.thisRepN'
p99
I0
sg33
g34
sg49
L2L
sg27
g28
sg15
S'7'
sg14
(lp100
S'space'
p101
asS'practice_trials.thisIndex'
p102
I0
sS'practice_trials.thisN'
p103
I4
sg30
g11
sg18
(lp104
F5.2148254329804331
asg47
L5L
sg50
L3L
sa(dp105
g31
g32
sg43
g64
sg27
g28
sg15
Nsg29
Nsg14
Nsg49
L4L
sg45
Vdouble
p106
sg16
I0
sS'practice_trials.thisN'
p107
I5
sg44
g67
sS'practice_trials.thisIndex'
p108
I5
sg30
g11
sg46
L9L
sS'practice_trials.thisTrialN'
p109
I5
sg48
g65
sS'practice_trials.thisRepN'
p110
I0
sg33
g34
sg47
L8L
sg50
L8L
sa(dp111
S'block.thisTrialN'
p112
I0
sS'block.thisRepN'
p113
I0
sg29
NsS'block.thisN'
p114
I0
sg51
(S'ADD'
S'TRIPLE'
S'HALF'
S'x'
S'y'
tp115
sg27
g28
sg53
L3L
sg54
(I2
I6
I8
tp116
sg22
I0
sg20
F7.8372127368347719
sg23
F3.2076669300440699
sVY
L2L
sVX
L4L
sg57
Vhalf
p117
sg31
g32
sg33
g34
sg21
S'9'
sg19
S'space'
p118
sg30
g11
sg56
L8L
sg52
Vtriple
p119
sg55
L8L
sS'block.thisIndex'
p120
I5
sg58
VADD
p121
sg59
L0L
sg60
VBUUxy
p122
sa(dp123
S'block.thisTrialN'
p124
I1
sS'block.thisRepN'
p125
I0
sg29
NsS'block.thisN'
p126
I1
sg51
(S'THIRD'
S'HALF'
S'INCREASE'
S'SUBTRACT'
S'x'
S'y'
tp127
sg27
g28
sg53
L4L
sg54
(I5
I6
I3
I1
tp128
sg22
I0
sg20
F11.509119173395447
sg23
F5.9114487402839586
sVY
L2L
sVX
L7L
sg57
Vincrease
p129
sg31
g32
sg33
g34
sg21
S'4'
sg19
S'space'
p130
sg30
g11
sg56
L1L
sg52
g117
sg55
L1L
sS'block.thisIndex'
p131
I17
sg58
Vthird
p132
sg59
VSUBTRACT
p133
sg60
VUUUBxy
p134
sa(dp135
S'block.thisTrialN'
p136
I2
sS'block.thisRepN'
p137
I0
sg29
NsS'block.thisN'
p138
I2
sg51
(S'ADD'
S'DECREASE'
S'x'
S'y'
tp139
sg27
g28
sg53
L2L
sg54
(I2
I7
tp140
sg22
I1
sg20
F4.4008747687330469
sg23
F2.8386360383592546
sVY
L5L
sVX
L3L
sg57
L0L
sg31
g32
sg33
g34
sg21
S'7'
sg19
S'space'
p141
sg30
g11
sg56
L7L
sg52
Vdecrease
p142
sg55
L7L
sS'block.thisIndex'
p143
I0
sg58
g121
sg59
L0L
sg60
VBUxy
p144
sa(dp145
S'block.thisTrialN'
p146
I3
sS'block.thisRepN'
p147
I0
sg29
NsS'block.thisN'
p148
I3
sg51
(S'DECREASE'
S'TIMES'
S'x'
S'y'
tp149
sg27
g28
sg53
L2L
sg54
(I9
I8
tp150
sg22
I1
sg20
F2.8339563267072663
sg23
F1.5759373509790748
sVY
L3L
sVX
L3L
sg57
L0L
sg31
g32
sg33
g34
sg21
S'8'
sg19
S'space'
p151
sg30
g11
sg56
L8L
sg52
VTIMES
p152
sg55
L8L
sS'block.thisIndex'
p153
I2
sg58
g142
sg59
L0L
sg60
VUBxy
p154
sa(dp155
S'block.thisTrialN'
p156
I4
sS'block.thisRepN'
p157
I0
sg29
NsS'block.thisN'
p158
I4
sg51
(S'DECREASE'
S'SUBTRACT'
S'DOUBLE'
S'THIRD'
S'x'
S'y'
tp159
sg27
g28
sg53
L4L
sg54
(I3
I6
I4
I3
tp160
sg22
I0
sg20
F8.6766400425694883
sg23
F14.391825763043016
sVY
L2L
sVX
L9L
sg57
Vdouble
p161
sg31
g32
sg33
g34
sg21
S'7'
sg19
S'space'
p162
sg30
g11
sg56
L3L
sg52
g133
sg55
L3L
sS'block.thisIndex'
p163
I13
sg58
g142
sg59
g132
sg60
VUBUUxy
p164
sa(dp165
S'block.thisTrialN'
p166
I5
sS'block.thisRepN'
p167
I0
sg29
NsS'block.thisN'
p168
I5
sg51
(S'ADD'
S'DECREASE'
S'THIRD'
S'DOUBLE'
S'x'
S'y'
tp169
sg27
g28
sg53
L4L
sg54
(I18
I6
I5
I9
tp170
sg22
I1
sg20
F11.108994026435539
sg23
F4.8388946612831205
sVY
L4L
sVX
L9L
sg57
g132
sg31
g32
sg33
g34
sg21
S'9'
sg19
S'space'
p171
sg30
g11
sg56
L9L
sg52
g142
sg55
L9L
sS'block.thisIndex'
p172
I10
sg58
g121
sg59
g161
sg60
VBUUUxy
p173
sa(dp174
S'block.thisTrialN'
p175
I6
sS'block.thisRepN'
p176
I0
sg29
NsS'block.thisN'
p177
I6
sg51
(S'ADD'
S'DOUBLE'
S'DECREASE'
S'x'
S'y'
tp178
sg27
g28
sg53
L3L
sg54
(I1
I2
I7
tp179
sg22
I1
sg20
F6.4505100892856717
sg23
F4.1661693102214485
sVY
L5L
sVX
L2L
sg57
g142
sg31
g32
sg33
g34
sg21
S'7'
sg19
S'space'
p180
sg30
g11
sg56
L7L
sg52
g161
sg55
L7L
sS'block.thisIndex'
p181
I4
sg58
g121
sg59
L0L
sg60
g122
sa(dp182
S'block.thisTrialN'
p183
I7
sS'block.thisRepN'
p184
I0
sg29
NsS'block.thisN'
p185
I7
sg51
(S'ADD'
S'TRIPLE'
S'DOUBLE'
S'DECREASE'
S'x'
S'y'
tp186
sg27
g28
sg53
L4L
sg54
(I1
I2
I6
I8
tp187
sg22
I0
sg20
F5.0445765984477475
sg23
F14.741797643364407
sVY
L2L
sVX
L2L
sg57
g161
sg31
g32
sg33
g34
sg21
S'5'
sg19
S'space'
p188
sg30
g11
sg56
L8L
sg52
g119
sg55
L8L
sS'block.thisIndex'
p189
I11
sg58
g121
sg59
g142
sg60
g173
sa(dp190
S'block.thisTrialN'
p191
I8
sS'block.thisRepN'
p192
I0
sg29
NsS'block.thisN'
p193
I8
sg51
(S'DOUBLE'
S'SUBTRACT'
S'INCREASE'
S'x'
S'y'
tp194
sg27
g28
sg53
L3L
sg54
(I4
I1
I2
tp195
sg22
I1
sg20
F11.206909609027207
sg23
F3.2997958663618192
sVY
L3L
sVX
L3L
sg57
g129
sg31
g32
sg33
g34
sg21
S'2'
sg19
S'space'
p196
sg30
g11
sg56
L2L
sg52
g133
sg55
L2L
sS'block.thisIndex'
p197
I6
sg58
g161
sg59
L0L
sg60
VUBUxy
p198
sa(dp199
S'block.thisTrialN'
p200
I9
sS'block.thisRepN'
p201
I0
sg29
NsS'block.thisN'
p202
I9
sg51
(S'DECREASE'
S'DOUBLE'
S'TIMES'
S'THIRD'
S'x'
S'y'
tp203
sg27
g28
sg53
L4L
sg54
(I1
I3
I6
I5
tp204
sg22
I0
sVY
L3L
sVX
L3L
sg57
g152
sg31
g32
sg33
g34
sg21
Nsg19
Nsg30
g11
sg56
L5L
sg52
g161
sg55
L5L
sS'block.thisIndex'
p205
I14
sg58
g142
sg59
g132
sg60
VUUBUxy
p206
sa(dp207
S'block.thisTrialN'
p208
I10
sS'block.thisRepN'
p209
I0
sg29
NsS'block.thisN'
p210
I10
sg51
(S'DOUBLE'
S'THIRD'
S'ADD'
S'x'
S'y'
tp211
sg27
g28
sg53
L3L
sg54
(I9
I3
I6
tp212
sg22
I1
sg20
F6.4122044864343479
sg23
F2.7261108803795651
sVY
L4L
sVX
L5L
sg57
g121
sg31
g32
sg33
g34
sg21
S'6'
sg19
S'space'
p213
sg30
g11
sg56
L6L
sg52
g132
sg55
L6L
sS'block.thisIndex'
p214
I8
sg58
g161
sg59
L0L
sg60
VUUBxy
p215
sa(dp216
S'block.thisTrialN'
p217
I11
sS'block.thisRepN'
p218
I0
sg29
NsS'block.thisN'
p219
I11
sg51
(S'INCREASE'
S'ADD'
S'HALF'
S'x'
S'y'
tp220
sg27
g28
sg53
L3L
sg54
(I1
I4
I5
tp221
sg22
I1
sg20
F5.3674291088245809
sg23
F5.6528988699428737
sVY
L3L
sVX
L2L
sg57
g117
sg31
g32
sg33
g34
sg21
S'5'
sg19
S'space'
p222
sg30
g11
sg56
L5L
sg52
g121
sg55
L5L
sS'block.thisIndex'
p223
I7
sg58
g129
sg59
L0L
sg60
g198
sa(dp224
S'block.thisTrialN'
p225
I12
sS'block.thisRepN'
p226
I0
sg29
NsS'block.thisN'
p227
I12
sg51
(S'DECREASE'
S'TRIPLE'
S'SUBTRACT'
S'DOUBLE'
S'x'
S'y'
tp228
sg27
g28
sg53
L4L
sg54
(I6
I3
I9
I8
tp229
sg22
I1
sg20
F7.7982072071172297
sg23
F4.3574841965455562
sVY
L3L
sVX
L3L
sg57
g133
sg31
g32
sg33
g34
sg21
S'8'
sg19
S'space'
p230
sg30
g11
sg56
L8L
sg52
g119
sg55
L8L
sS'block.thisIndex'
p231
I15
sg58
g142
sg59
g161
sg60
g206
sa(dp232
S'block.thisTrialN'
p233
I13
sS'block.thisRepN'
p234
I0
sg29
NsS'block.thisN'
p235
I13
sg51
(S'HALF'
S'ADD'
S'x'
S'y'
tp236
sg27
g28
sg53
L2L
sg54
(I12
I6
tp237
sg22
I1
sg20
F3.4606537807267159
sg23
F1.6547865730244666
sVY
L8L
sVX
L4L
sg57
L0L
sg31
g32
sg33
g34
sg21
S'6'
sg19
S'space'
p238
sg30
g11
sg56
L6L
sg52
g121
sg55
L6L
sS'block.thisIndex'
p239
I3
sg58
g117
sg59
L0L
sg60
g154
sa(dp240
S'block.thisTrialN'
p241
I14
sS'block.thisRepN'
p242
I0
sg29
NsS'block.thisN'
p243
I14
sg51
(S'DECREASE'
S'ADD'
S'THIRD'
S'HALF'
S'x'
S'y'
tp244
sg27
g28
sg53
L4L
sg54
(I3
I1
I7
I6
tp245
sg22
I1
sg20
F14.995096311671659
sg23
F5.5718949227593839
sVY
L6L
sVX
L6L
sg57
g132
sg31
g32
sg33
g34
sg21
S'6'
sg19
S'space'
p246
sg30
g11
sg56
L6L
sg52
g121
sg55
L6L
sS'block.thisIndex'
p247
I12
sg58
g142
sg59
g117
sg60
g164
sa(dp248
S'block.thisTrialN'
p249
I15
sS'block.thisRepN'
p250
I0
sg29
NsS'block.thisN'
p251
I15
sg51
(S'HALF'
S'INCREASE'
S'TIMES'
S'x'
S'y'
tp252
sg27
g28
sg53
L3L
sg54
(I9
I10
I5
tp253
sg22
I1
sg20
F5.875975391943939
sg23
F1.9877019333653152
sVY
L3L
sVX
L3L
sg57
g152
sg31
g32
sg33
g34
sg21
S'5'
sg19
S'space'
p254
sg30
g11
sg56
L5L
sg52
g129
sg55
L5L
sS'block.thisIndex'
p255
I9
sg58
g117
sg59
L0L
sg60
g215
sa(dp256
S'block.thisTrialN'
p257
I16
sS'block.thisRepN'
p258
I0
sg29
NsS'block.thisN'
p259
I16
sg51
(S'INCREASE'
S'HALF'
S'THIRD'
S'TIMES'
S'x'
S'y'
tp260
sg27
g28
sg53
L4L
sg54
(I12
I4
I2
I3
tp261
sg22
I1
sg20
F5.8559021865949035
sg23
F5.0827219178900123
sVY
L4L
sVX
L3L
sg57
g132
sg31
g32
sg33
g34
sg21
S'3'
sg19
S'space'
p262
sg30
g11
sg56
L3L
sg52
g117
sg55
L3L
sS'block.thisIndex'
p263
I16
sg58
g129
sg59
g152
sg60
g134
sa(dp264
S'block.thisTrialN'
p265
I17
sS'block.thisRepN'
p266
I0
sg29
NsS'block.thisN'
p267
I17
sg51
(S'DIVIDE'
S'DECREASE'
S'x'
S'y'
tp268
sg27
g28
sg53
L2L
sg54
(I8
I2
tp269
sg22
I1
sg20
F9.7434701188467443
sg23
F1.6424080147407949
sVY
L4L
sVX
L9L
sg57
L0L
sg31
g32
sg33
g34
sg21
S'2'
sg19
S'space'
p270
sg30
g11
sg56
L2L
sg52
g142
sg55
L2L
sS'block.thisIndex'
p271
I1
sg58
VDIVIDE
p272
sg59
L0L
sg60
g144
sa(dp273
S'block.thisTrialN'
p274
I0
sS'block.thisRepN'
p275
I0
sg29
NsS'block.thisN'
p276
I0
sVRule
p277
(S'TRIPLE'
S'HALF'
S'DIVIDE'
S'x'
S'y'
tp278
sg27
g28
sVLength
p279
L3L
sVIntermediate
p280
(I2
I1
I3
tp281
sg22
I0
sg20
F7.0536931471433491
sg23
F5.732609702157788
sVY
L2L
sVX
L4L
sVOperatorc
p282
VDIVIDE
p283
sg31
g32
sg33
g34
sg21
S'1'
sg19
S'space'
p284
sg30
g11
sVResult
p285
L3L
sVOperatora
p286
Vhalf
p287
sVCorrectResponse
p288
L3L
sS'block.thisIndex'
p289
I9
sVOperatorb
p290
Vtriple
p291
sVOperatord
p292
L0L
sVStructure
p293
VUUBxy
p294
sa(dp295
S'block.thisTrialN'
p296
I1
sS'block.thisRepN'
p297
I0
sg29
NsS'block.thisN'
p298
I1
sg277
(S'TRIPLE'
S'HALF'
S'ADD'
S'DECREASE'
S'x'
S'y'
tp299
sg27
g28
sg279
L4L
sg280
(I1
I4
I2
I6
tp300
sg22
I0
sg20
F19.65347420994658
sVY
L3L
sVX
L2L
sg282
VADD
p301
sg31
g32
sg33
g34
sg21
Nsg19
S'space'
p302
sg30
g11
sg285
L6L
sg286
g287
sg288
L6L
sS'block.thisIndex'
p303
I15
sg290
g291
sg292
Vdecrease
p304
sg293
VUUBUxy
p305
sa(dp306
S'block.thisTrialN'
p307
I2
sS'block.thisRepN'
p308
I0
sg29
NsS'block.thisN'
p309
I2
sg277
(S'TRIPLE'
S'DECREASE'
S'HALF'
S'TIMES'
S'x'
S'y'
tp310
sg27
g28
sg279
L4L
sg280
(I6
I3
I2
I6
tp311
sg22
I0
sg20
F14.115571939968504
sg23
F12.995622306829318
sVY
L2L
sVX
L3L
sg282
g287
sg31
g32
sg33
g34
sg21
S'2'
sg19
S'space'
p312
sg30
g11
sg285
L6L
sg286
g304
sg288
L6L
sS'block.thisIndex'
p313
I17
sg290
g291
sg292
VTIMES
p314
sg293
VUUUBxy
p315
sa(dp316
S'block.thisTrialN'
p317
I3
sS'block.thisRepN'
p318
I0
sg29
NsS'block.thisN'
p319
I3
sg277
(S'TIMES'
S'THIRD'
S'HALF'
S'x'
S'y'
tp320
sg27
g28
sg279
L3L
sg280
(I3
I1
I5
tp321
sg22
I1
sg20
F9.2029697201214731
sg23
F3.7686989861540496
sVY
L5L
sVX
L6L
sg282
g287
sg31
g32
sg33
g34
sg21
S'5'
sg19
S'space'
p322
sg30
g11
sg285
L5L
sg286
Vthird
p323
sg288
L5L
sS'block.thisIndex'
p324
I5
sg290
g314
sg292
L0L
sg293
VBUUxy
p325
sa(dp326
S'block.thisTrialN'
p327
I4
sS'block.thisRepN'
p328
I0
sg29
NsS'block.thisN'
p329
I4
sg277
(S'TIMES'
S'DECREASE'
S'HALF'
S'x'
S'y'
tp330
sg27
g28
sg279
L3L
sg280
(I4
I3
I9
tp331
sg22
I1
sg20
F4.9770672430749983
sg23
F2.8520487386267632
sVY
L3L
sVX
L8L
sg282
g287
sg31
g32
sg33
g34
sg21
S'9'
sg19
S'space'
p332
sg30
g11
sg285
L9L
sg286
g304
sg288
L9L
sS'block.thisIndex'
p333
I4
sg290
g314
sg292
L0L
sg293
g325
sa(dp334
S'block.thisTrialN'
p335
I5
sS'block.thisRepN'
p336
I0
sg29
NsS'block.thisN'
p337
I5
sg277
(S'TRIPLE'
S'SUBTRACT'
S'DOUBLE'
S'DECREASE'
S'x'
S'y'
tp338
sg27
g28
sg279
L4L
sg280
(I2
I4
I1
I3
tp339
sg22
I1
sg20
F13.095813701744191
sg23
F5.0941632740432397
sVY
L3L
sVX
L3L
sg282
Vdouble
p340
sg31
g32
sg33
g34
sg21
S'3'
sg19
S'space'
p341
sg30
g11
sg285
L3L
sg286
VSUBTRACT
p342
sg288
L3L
sS'block.thisIndex'
p343
I13
sg290
g291
sg292
g304
sg293
VUBUUxy
p344
sa(dp345
S'block.thisTrialN'
p346
I6
sS'block.thisRepN'
p347
I0
sg29
NsS'block.thisN'
p348
I6
sg277
(S'TIMES'
S'INCREASE'
S'x'
S'y'
tp349
sg27
g28
sg279
L2L
sg280
(I3
I6
tp350
sg22
I1
sg20
F2.9174250666983426
sg23
F3.3173426853027195
sVY
L2L
sVX
L2L
sg282
L0L
sg31
g32
sg33
g34
sg21
S'6'
sg19
S'space'
p351
sg30
g11
sg285
L6L
sg286
Vincrease
p352
sg288
L6L
sS'block.thisIndex'
p353
I1
sg290
g314
sg292
L0L
sg293
VBUxy
p354
sa(dp355
S'block.thisTrialN'
p356
I7
sS'block.thisRepN'
p357
I0
sg29
NsS'block.thisN'
p358
I7
sg277
(S'THIRD'
S'ADD'
S'INCREASE'
S'x'
S'y'
tp359
sg27
g28
sg279
L3L
sg280
(I8
I15
I5
tp360
sg22
I1
sg20
F7.9551665284670889
sg23
F5.7690629481803626
sVY
L7L
sVX
L7L
sg282
g352
sg31
g32
sg33
g34
sg21
S'5'
sg19
S'space'
p361
sg30
g11
sg285
L5L
sg286
g301
sg288
L5L
sS'block.thisIndex'
p362
I6
sg290
g323
sg292
L0L
sg293
VUBUxy
p363
sa(dp364
S'block.thisTrialN'
p365
I8
sS'block.thisRepN'
p366
I0
sg29
NsS'block.thisN'
p367
I8
sg277
(S'SUBTRACT'
S'HALF'
S'INCREASE'
S'TRIPLE'
S'x'
S'y'
tp368
sg27
g28
sg279
L4L
sg280
(I15
I16
I8
I3
tp369
sg22
I1
sg20
F8.466938424971886
sg23
F7.3656365957576782
sVY
L5L
sVX
L5L
sg282
g352
sg31
g32
sg33
g34
sg21
S'3'
sg19
S'space'
p370
sg30
g11
sg285
L3L
sg286
g287
sg288
L3L
sS'block.thisIndex'
p371
I10
sg290
g342
sg292
g291
sg293
VBUUUxy
p372
sa(dp373
S'block.thisTrialN'
p374
I9
sS'block.thisRepN'
p375
I0
sg29
NsS'block.thisN'
p376
I9
sg277
(S'INCREASE'
S'DIVIDE'
S'TRIPLE'
S'DOUBLE'
S'x'
S'y'
tp377
sg27
g28
sg279
L4L
sg280
(I6
I18
I3
I4
tp378
sg22
I1
sg20
F5.8775589767610654
sg23
F8.2273751234170049
sVY
L6L
sVX
L3L
sg282
g291
sg31
g32
sg33
g34
sg21
S'4'
sg19
S'space'
p379
sg30
g11
sg285
L4L
sg286
g283
sg288
L4L
sS'block.thisIndex'
p380
I12
sg290
g352
sg292
g340
sg293
g344
sa(dp381
S'block.thisTrialN'
p382
I10
sS'block.thisRepN'
p383
I0
sg29
NsS'block.thisN'
p384
I10
sg277
(S'THIRD'
S'SUBTRACT'
S'x'
S'y'
tp385
sg27
g28
sg279
L2L
sg280
(I3
I1
tp386
sg22
I1
sg20
F2.8355738578829914
sg23
F1.655022798338905
sVY
L2L
sVX
L5L
sg282
L0L
sg31
g32
sg33
g34
sg21
S'1'
sg19
S'space'
p387
sg30
g11
sg285
L1L
sg286
g342
sg288
L1L
sS'block.thisIndex'
p388
I3
sg290
g323
sg292
L0L
sg293
VUBxy
p389
sa(dp390
S'block.thisTrialN'
p391
I11
sS'block.thisRepN'
p392
I0
sg29
NsS'block.thisN'
p393
I11
sg277
(S'THIRD'
S'DOUBLE'
S'ADD'
S'INCREASE'
S'x'
S'y'
tp394
sg27
g28
sg279
L4L
sg280
(I10
I12
I24
I8
tp395
sg22
I1
sg20
F10.357584986020811
sg23
F6.6976483503822237
sVY
L2L
sVX
L9L
sg282
g301
sg31
g32
sg33
g34
sg21
S'8'
sg19
S'space'
p396
sg30
g11
sg285
L8L
sg286
g340
sg288
L8L
sS'block.thisIndex'
p397
I14
sg290
g323
sg292
g352
sg293
g305
sa(dp398
S'block.thisTrialN'
p399
I12
sS'block.thisRepN'
p400
I0
sg29
NsS'block.thisN'
p401
I12
sg277
(S'THIRD'
S'TIMES'
S'DECREASE'
S'x'
S'y'
tp402
sg27
g28
sg279
L3L
sg280
(I3
I15
I5
tp403
sg22
I1
sg20
F8.9777664701687172
sg23
F7.2707705950597301
sVY
L5L
sVX
L4L
sg282
g304
sg31
g32
sg33
g34
sg21
S'5'
sg19
S'space'
p404
sg30
g11
sg285
L5L
sg286
g314
sg288
L5L
sS'block.thisIndex'
p405
I7
sg290
g323
sg292
L0L
sg293
g363
sa(dp406
S'block.thisTrialN'
p407
I13
sS'block.thisRepN'
p408
I0
sg29
NsS'block.thisN'
p409
I13
sg277
(S'TIMES'
S'INCREASE'
S'THIRD'
S'DOUBLE'
S'x'
S'y'
tp410
sg27
g28
sg279
L4L
sg280
(I6
I2
I3
I9
tp411
sg22
I1
sg20
F18.271637804573402
sg23
F5.5285249984590337
sVY
L3L
sVX
L3L
sg282
g323
sg31
g32
sg33
g34
sg21
S'9'
sg19
S'space'
p412
sg30
g11
sg285
L9L
sg286
g352
sg288
L9L
sS'block.thisIndex'
p413
I11
sg290
g314
sg292
g340
sg293
g372
sa(dp414
S'block.thisTrialN'
p415
I14
sS'block.thisRepN'
p416
I0
sg29
NsS'block.thisN'
p417
I14
sg277
(S'THIRD'
S'DECREASE'
S'TIMES'
S'x'
S'y'
tp418
sg27
g28
sg279
L3L
sg280
(I25
I24
I8
tp419
sg22
I1
sg20
F6.0032896567136049
sg23
F4.3733868871349841
sVY
L5L
sVX
L5L
sg282
g314
sg31
g32
sg33
g34
sg21
S'8'
sg19
S'space'
p420
sg30
g11
sg285
L8L
sg286
g304
sg288
L8L
sS'block.thisIndex'
p421
I8
sg290
g323
sg292
L0L
sg293
g294
sa(dp422
S'block.thisTrialN'
p423
I15
sS'block.thisRepN'
p424
I0
sg29
NsS'block.thisN'
p425
I15
sg277
(S'TIMES'
S'DECREASE'
S'x'
S'y'
tp426
sg27
g28
sg279
L2L
sg280
(I2
I4
tp427
sg22
I1
sg20
F6.8898185474099591
sg23
F1.5700488655129448
sVY
L2L
sVX
L3L
sg282
L0L
sg31
g32
sg33
g34
sg21
S'4'
sg19
S'space'
p428
sg30
g11
sg285
L4L
sg286
g304
sg288
L4L
sS'block.thisIndex'
p429
I0
sg290
g314
sg292
L0L
sg293
g354
sa(dp430
S'block.thisTrialN'
p431
I16
sS'block.thisRepN'
p432
I0
sg29
NsS'block.thisN'
p433
I16
sg277
(S'THIRD'
S'INCREASE'
S'HALF'
S'DIVIDE'
S'x'
S'y'
tp434
sg27
g28
sg279
L4L
sg280
(I4
I2
I3
I1
tp435
sg22
I0
sg20
F9.9115624784026295
sg23
F3.4120480527635664
sVY
L2L
sVX
L8L
sg282
g287
sg31
g32
sg33
g34
sg21
S'4'
sg19
S'space'
p436
sg30
g11
sg285
L1L
sg286
g352
sg288
L1L
sS'block.thisIndex'
p437
I16
sg290
g323
sg292
g283
sg293
g315
sa(dp438
S'block.thisTrialN'
p439
I17
sS'block.thisRepN'
p440
I0
sg29
NsS'block.thisN'
p441
I17
sg277
(S'THIRD'
S'ADD'
S'x'
S'y'
tp442
sg27
g28
sg279
L2L
sg280
(I9
I3
tp443
sg22
I1
sg20
F2.4538063952932134
sg23
F1.4150356909958646
sVY
L5L
sVX
L4L
sg282
L0L
sg31
g32
sg33
g34
sg21
S'3'
sg19
S'space'
p444
sg30
g11
sg285
L3L
sg286
g301
sg288
L3L
sS'block.thisIndex'
p445
I2
sg290
g323
sg292
L0L
sg293
g389
sa(dp446
S'block.thisTrialN'
p447
I0
sS'block.thisRepN'
p448
I0
sg29
NsS'block.thisN'
p449
I0
sVRule
p450
(S'TRIPLE'
S'SUBTRACT'
S'x'
S'y'
tp451
sg27
g28
sVLength
p452
L2L
sVIntermediate
p453
(I2
I6
tp454
sg22
I1
sg20
F6.4357762767467648
sg23
F1.6869055214338005
sVY
L6L
sVX
L8L
sVOperatorc
p455
L0L
sg31
g32
sg33
g34
sg21
S'6'
sg19
S'space'
p456
sg30
g11
sVResult
p457
L6L
sVOperatora
p458
VSUBTRACT
p459
sVCorrectResponse
p460
L6L
sS'block.thisIndex'
p461
I3
sVOperatorb
p462
Vtriple
p463
sVOperatord
p464
L0L
sVStructure
p465
VUBxy
p466
sa(dp467
S'block.thisTrialN'
p468
I1
sS'block.thisRepN'
p469
I0
sg29
NsS'block.thisN'
p470
I1
sg450
(S'DECREASE'
S'HALF'
S'TRIPLE'
S'ADD'
S'x'
S'y'
tp471
sg27
g28
sg452
L4L
sg453
(I4
I12
I6
I5
tp472
sg22
I0
sg20
F6.5046004449250177
sg23
F10.900283505441621
sVY
L2L
sVX
L2L
sg455
g463
sg31
g32
sg33
g34
sg21
S'6'
sg19
S'space'
p473
sg30
g11
sg457
L5L
sg458
Vhalf
p474
sg460
L5L
sS'block.thisIndex'
p475
I16
sg462
Vdecrease
p476
sg464
VADD
p477
sg465
VUUUBxy
p478
sa(dp479
S'block.thisTrialN'
p480
I2
sS'block.thisRepN'
p481
I0
sg29
NsS'block.thisN'
p482
I2
sg450
(S'SUBTRACT'
S'DOUBLE'
S'DECREASE'
S'x'
S'y'
tp483
sg27
g28
sg452
L3L
sg453
(I8
I16
I7
tp484
sg22
I0
sg20
F6.4959423484979197
sg23
F6.9309882513480261
sVY
L9L
sVX
L9L
sg455
g476
sg31
g32
sg33
g34
sg21
S'9'
sg19
S'space'
p485
sg30
g11
sg457
L7L
sg458
Vdouble
p486
sg460
L7L
sS'block.thisIndex'
p487
I5
sg462
g459
sg464
L0L
sg465
VBUUxy
p488
sa(dp489
S'block.thisTrialN'
p490
I3
sS'block.thisRepN'
p491
I0
sg29
NsS'block.thisN'
p492
I3
sg450
(S'INCREASE'
S'DIVIDE'
S'HALF'
S'x'
S'y'
tp493
sg27
g28
sg452
L3L
sg453
(I2
I1
I2
tp494
sg22
I1
sg20
F4.1018456724705175
sg23
F4.5307052709395066
sVY
L2L
sVX
L4L
sg455
g474
sg31
g32
sg33
g34
sg21
S'2'
sg19
S'space'
p495
sg30
g11
sg457
L2L
sg458
VDIVIDE
p496
sg460
L2L
sS'block.thisIndex'
p497
I7
sg462
Vincrease
p498
sg464
L0L
sg465
VUBUxy
p499
sa(dp500
S'block.thisTrialN'
p501
I4
sS'block.thisRepN'
p502
I0
sg29
NsS'block.thisN'
p503
I4
sg450
(S'DECREASE'
S'HALF'
S'DIVIDE'
S'x'
S'y'
tp504
sg27
g28
sg452
L3L
sg453
(I4
I2
I1
tp505
sg22
I1
sg20
F3.6328974071657285
sg23
F5.9959761198842898
sVY
L2L
sVX
L8L
sg455
g496
sg31
g32
sg33
g34
sg21
S'1'
sg19
S'space'
p506
sg30
g11
sg457
L1L
sg458
g474
sg460
L1L
sS'block.thisIndex'
p507
I8
sg462
g476
sg464
L0L
sg465
VUUBxy
p508
sa(dp509
S'block.thisTrialN'
p510
I5
sS'block.thisRepN'
p511
I0
sg29
NsS'block.thisN'
p512
I5
sg450
(S'ADD'
S'DECREASE'
S'HALF'
S'x'
S'y'
tp513
sg27
g28
sg452
L3L
sg453
(I3
I2
I6
tp514
sg22
I1
sg20
F6.4805541042005643
sg23
F3.7987940958701074
sVY
L4L
sVX
L6L
sg455
g474
sg31
g32
sg33
g34
sg21
S'6'
sg19
S'space'
p515
sg30
g11
sg457
L6L
sg458
g476
sg460
L6L
sS'block.thisIndex'
p516
I4
sg462
g477
sg464
L0L
sg465
g488
sa(dp517
S'block.thisTrialN'
p518
I6
sS'block.thisRepN'
p519
I0
sg29
NsS'block.thisN'
p520
I6
sg450
(S'DECREASE'
S'DIVIDE'
S'TRIPLE'
S'DOUBLE'
S'x'
S'y'
tp521
sg27
g28
sg452
L4L
sg453
(I6
I18
I2
I1
tp522
sg22
I1
sg20
F8.5810671156505123
sg23
F4.5138097339076921
sVY
L9L
sVX
L3L
sg455
g463
sg31
g32
sg33
g34
sg21
S'1'
sg19
S'space'
p523
sg30
g11
sg457
L1L
sg458
g496
sg460
L1L
sS'block.thisIndex'
p524
I12
sg462
g476
sg464
g486
sg465
VUBUUxy
p525
sa(dp526
S'block.thisTrialN'
p527
I7
sS'block.thisRepN'
p528
I0
sg29
NsS'block.thisN'
p529
I7
sg450
(S'INCREASE'
S'HALF'
S'TIMES'
S'TRIPLE'
S'x'
S'y'
tp530
sg27
g28
sg452
L4L
sg453
(I6
I12
I6
I7
tp531
sg22
I0
sg20
F7.4935968931531534
sg23
F8.8203238490968943
sVY
L2L
sVX
L2L
sg455
VTIMES
p532
sg31
g32
sg33
g34
sg21
S'3'
sg19
S'space'
p533
sg30
g11
sg457
L7L
sg458
g474
sg460
L7L
sS'block.thisIndex'
p534
I14
sg462
g498
sg464
g463
sg465
VUUBUxy
p535
sa(dp536
S'block.thisTrialN'
p537
I8
sS'block.thisRepN'
p538
I0
sg29
NsS'block.thisN'
p539
I8
sg450
(S'TIMES'
S'DECREASE'
S'THIRD'
S'DOUBLE'
S'x'
S'y'
tp540
sg27
g28
sg452
L4L
sg453
(I6
I2
I1
I2
tp541
sg22
I1
sg20
F12.501554362825118
sg23
F4.5047138330992311
sVY
L2L
sVX
L3L
sg455
Vthird
p542
sg31
g32
sg33
g34
sg21
S'2'
sg19
S'space'
p543
sg30
g11
sg457
L2L
sg458
g476
sg460
L2L
sS'block.thisIndex'
p544
I11
sg462
g532
sg464
g486
sg465
VBUUUxy
p545
sa(dp546
S'block.thisTrialN'
p547
I9
sS'block.thisRepN'
p548
I0
sg29
NsS'block.thisN'
p549
I9
sg450
(S'DIVIDE'
S'DECREASE'
S'THIRD'
S'DOUBLE'
S'x'
S'y'
tp550
sg27
g28
sg452
L4L
sg453
(I12
I4
I3
I1
tp551
sg22
I1
sg20
F4.5952273380244151
sg23
F5.1557641960680485
sVY
L3L
sVX
L6L
sg455
g542
sg31
g32
sg33
g34
sg21
S'1'
sg19
S'space'
p552
sg30
g11
sg457
L1L
sg458
g476
sg460
L1L
sS'block.thisIndex'
p553
I10
sg462
g496
sg464
g486
sg465
g545
sa(dp554
S'block.thisTrialN'
p555
I10
sS'block.thisRepN'
p556
I0
sg29
NsS'block.thisN'
p557
I10
sg450
(S'TRIPLE'
S'HALF'
S'TIMES'
S'x'
S'y'
tp558
sg27
g28
sg452
L3L
sg453
(I6
I3
I9
tp559
sg22
I1
sg20
F14.404679571744055
sg23
F5.2203496065922081
sVY
L3L
sVX
L2L
sg455
g532
sg31
g32
sg33
g34
sg21
S'9'
sg19
S'space'
p560
sg30
g11
sg457
L9L
sg458
g474
sg460
L9L
sS'block.thisIndex'
p561
I9
sg462
g463
sg464
L0L
sg465
g508
sa(dp562
S'block.thisTrialN'
p563
I11
sS'block.thisRepN'
p564
I0
sg29
NsS'block.thisN'
p565
I11
sg450
(S'SUBTRACT'
S'THIRD'
S'x'
S'y'
tp566
sg27
g28
sg452
L2L
sg453
(I3
I1
tp567
sg22
I0
sg20
F4.2657577181234956
sg23
F2.3100543458713219
sVY
L2L
sVX
L9L
sg455
L0L
sg31
g32
sg33
g34
sg21
S'5'
sg19
S'space'
p568
sg30
g11
sg457
L1L
sg458
g542
sg460
L1L
sS'block.thisIndex'
p569
I0
sg462
g459
sg464
L0L
sg465
VBUxy
p570
sa(dp571
S'block.thisTrialN'
p572
I12
sS'block.thisRepN'
p573
I0
sg29
NsS'block.thisN'
p574
I12
sg450
(S'INCREASE'
S'TRIPLE'
S'HALF'
S'ADD'
S'x'
S'y'
tp575
sg27
g28
sg452
L4L
sg453
(I4
I2
I6
I7
tp576
sg22
I0
sg20
F5.6034927755827084
sg23
F6.3260910724056885
sVY
L2L
sVX
L2L
sg455
g474
sg31
g32
sg33
g34
sg21
S'1'
sg19
S'space'
p577
sg30
g11
sg457
L7L
sg458
g463
sg460
L7L
sS'block.thisIndex'
p578
I17
sg462
g498
sg464
g477
sg465
g478
sa(dp579
S'block.thisTrialN'
p580
I13
sS'block.thisRepN'
p581
I0
sg29
NsS'block.thisN'
p582
I13
sg450
(S'THIRD'
S'INCREASE'
S'SUBTRACT'
S'HALF'
S'x'
S'y'
tp583
sg27
g28
sg452
L4L
sg453
(I4
I2
I3
I1
tp584
sg22
I0
sg20
F10.596028754371218
sg23
F6.1984033966436982
sVY
L2L
sVX
L8L
sg455
g459
sg31
g32
sg33
g34
sg21
S'2'
sg19
S'space'
p585
sg30
g11
sg457
L1L
sg458
g498
sg460
L1L
sS'block.thisIndex'
p586
I15
sg462
g542
sg464
g474
sg465
g535
sa(dp587
S'block.thisTrialN'
p588
I14
sS'block.thisRepN'
p589
I0
sg29
NsS'block.thisN'
p590
I14
sg450
(S'DOUBLE'
S'TIMES'
S'THIRD'
S'x'
S'y'
tp591
sg27
g28
sg452
L3L
sg453
(I1
I4
I8
tp592
sg22
I0
sg20
F17.987930809380487
sg23
F4.8226924020564184
sVY
L4L
sVX
L3L
sg455
g542
sg31
g32
sg33
g34
sg21
S'3'
sg19
S'space'
p593
sg30
g11
sg457
L8L
sg458
g532
sg460
L8L
sS'block.thisIndex'
p594
I6
sg462
g486
sg464
L0L
sg465
g499
sa(dp595
S'block.thisTrialN'
p596
I15
sS'block.thisRepN'
p597
I0
sg29
NsS'block.thisN'
p598
I15
sg450
(S'TIMES'
S'THIRD'
S'x'
S'y'
tp599
sg27
g28
sg452
L2L
sg453
(I1
I4
tp600
sg22
I1
sg20
F3.0744316331110895
sg23
F1.6407096419716254
sVY
L4L
sVX
L3L
sg455
L0L
sg31
g32
sg33
g34
sg21
S'4'
sg19
S'space'
p601
sg30
g11
sg457
L4L
sg458
g542
sg460
L4L
sS'block.thisIndex'
p602
I1
sg462
g532
sg464
L0L
sg465
g570
sa(dp603
S'block.thisTrialN'
p604
I16
sS'block.thisRepN'
p605
I0
sg29
NsS'block.thisN'
p606
I16
sg450
(S'INCREASE'
S'TIMES'
S'x'
S'y'
tp607
sg27
g28
sg452
L2L
sg453
(I8
I9
tp608
sg22
I1
sg20
F3.0457878219895065
sg23
F2.1989265920128673
sVY
L4L
sVX
L2L
sg455
L0L
sg31
g32
sg33
g34
sg21
S'9'
sg19
S'space'
p609
sg30
g11
sg457
L9L
sg458
g532
sg460
L9L
sS'block.thisIndex'
p610
I2
sg462
g498
sg464
L0L
sg465
g466
sa(dp611
S'block.thisTrialN'
p612
I17
sS'block.thisRepN'
p613
I0
sg29
NsS'block.thisN'
p614
I17
sg450
(S'TRIPLE'
S'SUBTRACT'
S'INCREASE'
S'HALF'
S'x'
S'y'
tp615
sg27
g28
sg452
L4L
sg453
(I3
I4
I1
I3
tp616
sg22
I1
sg20
F15.41458913765382
sg23
F6.6441578321391717
sVY
L3L
sVX
L6L
sg455
g498
sg31
g32
sg33
g34
sg21
S'3'
sg19
S'space'
p617
sg30
g11
sg457
L3L
sg458
g459
sg460
L3L
sS'block.thisIndex'
p618
I13
sg462
g463
sg464
g474
sg465
g525
sa(dp619
S'block.thisTrialN'
p620
I0
sS'block.thisRepN'
p621
I0
sg29
NsS'block.thisN'
p622
I0
sVRule
p623
(S'DECREASE'
S'DIVIDE'
S'x'
S'y'
tp624
sg27
g28
sVLength
p625
L2L
sVIntermediate
p626
(I2
I1
tp627
sg22
I1
sg20
F5.5407702206866816
sg23
F5.0284733787411824
sVY
L4L
sVX
L8L
sVOperatorc
p628
L0L
sg31
g32
sg33
g34
sg21
S'1'
sg19
S'space'
p629
sg30
g11
sVResult
p630
L1L
sVOperatora
p631
VDIVIDE
p632
sVCorrectResponse
p633
L1L
sS'block.thisIndex'
p634
I2
sVOperatorb
p635
Vdecrease
p636
sVOperatord
p637
L0L
sVStructure
p638
VUBxy
p639
sa(dp640
S'block.thisTrialN'
p641
I1
sS'block.thisRepN'
p642
I0
sg29
NsS'block.thisN'
p643
I1
sg623
(S'THIRD'
S'DOUBLE'
S'INCREASE'
S'TIMES'
S'x'
S'y'
tp644
sg27
g28
sg625
L4L
sg626
(I8
I9
I18
I6
tp645
sg22
I0
sg20
F19.555301754269749
sVY
L4L
sVX
L2L
sg628
Vincrease
p646
sg31
g32
sg33
g34
sg21
Nsg19
S'space'
p647
sg30
g11
sg630
L6L
sg631
Vdouble
p648
sg633
L6L
sS'block.thisIndex'
p649
I17
sg635
Vthird
p650
sg637
VTIMES
p651
sg638
VUUUBxy
p652
sa(dp653
S'block.thisTrialN'
p654
I2
sS'block.thisRepN'
p655
I0
sg29
NsS'block.thisN'
p656
I2
sg623
(S'INCREASE'
S'ADD'
S'x'
S'y'
tp657
sg27
g28
sg625
L2L
sg626
(I5
I6
tp658
sg22
I1
sg20
F2.9763666162034497
sg23
F2.024507942609489
sVY
L2L
sVX
L3L
sg628
L0L
sg31
g32
sg33
g34
sg21
S'6'
sg19
S'space'
p659
sg30
g11
sg630
L6L
sg631
VADD
p660
sg633
L6L
sS'block.thisIndex'
p661
I3
sg635
g646
sg637
L0L
sg638
g639
sa(dp662
S'block.thisTrialN'
p663
I3
sS'block.thisRepN'
p664
I0
sg29
NsS'block.thisN'
p665
I3
sg623
(S'SUBTRACT'
S'DECREASE'
S'x'
S'y'
tp666
sg27
g28
sg625
L2L
sg626
(I5
I3
tp667
sg22
I1
sg20
F5.797125120065175
sg23
F3.3149800818646327
sVY
L2L
sVX
L6L
sg628
L0L
sg31
g32
sg33
g34
sg21
S'3'
sg19
S'space'
p668
sg30
g11
sg630
L3L
sg631
g636
sg633
L3L
sS'block.thisIndex'
p669
I1
sg635
VSUBTRACT
p670
sg637
L0L
sg638
VBUxy
p671
sa(dp672
S'block.thisTrialN'
p673
I4
sS'block.thisRepN'
p674
I0
sg29
NsS'block.thisN'
p675
I4
sg623
(S'ADD'
S'HALF'
S'THIRD'
S'x'
S'y'
tp676
sg27
g28
sg625
L3L
sg626
(I2
I1
I9
tp677
sg22
I1
sg20
F6.3889910588040948
sg23
F5.2387730840127915
sVY
L8L
sVX
L6L
sg628
g650
sg31
g32
sg33
g34
sg21
S'9'
sg19
S'space'
p678
sg30
g11
sg630
L9L
sg631
Vhalf
p679
sg633
L9L
sS'block.thisIndex'
p680
I4
sg635
g660
sg637
L0L
sg638
VBUUxy
p681
sa(dp682
S'block.thisTrialN'
p683
I5
sS'block.thisRepN'
p684
I0
sg29
NsS'block.thisN'
p685
I5
sg623
(S'THIRD'
S'INCREASE'
S'DIVIDE'
S'DOUBLE'
S'x'
S'y'
tp686
sg27
g28
sg625
L4L
sg626
(I18
I2
I3
I1
tp687
sg22
I0
sg20
F4.3549567603040487
sg23
F0.62962559855077416
sVY
L9L
sVX
L9L
sg628
g632
sg31
g32
sg33
g34
sg21
S'3'
sg19
S'space'
p688
sg30
g11
sg630
L1L
sg631
g646
sg633
L1L
sS'block.thisIndex'
p689
I15
sg635
g650
sg637
g648
sg638
VUUBUxy
p690
sa(dp691
S'block.thisTrialN'
p692
I6
sS'block.thisRepN'
p693
I0
sg29
NsS'block.thisN'
p694
I6
sg623
(S'SUBTRACT'
S'DECREASE'
S'TRIPLE'
S'DOUBLE'
S'x'
S'y'
tp695
sg27
g28
sg625
L4L
sg626
(I6
I18
I17
I8
tp696
sg22
I0
sg20
F1.0572547254851088
sg23
F0.98051473323721439
sVY
L9L
sVX
L3L
sg628
Vtriple
p697
sg31
g32
sg33
g34
sg21
S'4'
sg19
S'space'
p698
sg30
g11
sg630
L8L
sg631
g636
sg633
L8L
sS'block.thisIndex'
p699
I11
sg635
g670
sg637
g648
sg638
VBUUUxy
p700
sa(dp701
S'block.thisTrialN'
p702
I7
sS'block.thisRepN'
p703
I0
sg29
NsS'block.thisN'
p704
I7
sg623
(S'THIRD'
S'HALF'
S'ADD'
S'x'
S'y'
tp705
sg27
g28
sg625
L3L
sg626
(I6
I3
I1
tp706
sg22
I1
sg20
F6.2747850262094289
sg23
F2.0735546245705336
sVY
L3L
sVX
L3L
sg628
g660
sg31
g32
sg33
g34
sg21
S'1'
sg19
S'space'
p707
sg30
g11
sg630
L1L
sg631
g679
sg633
L1L
sS'block.thisIndex'
p708
I9
sg635
g650
sg637
L0L
sg638
VUUBxy
p709
sa(dp710
S'block.thisTrialN'
p711
I8
sS'block.thisRepN'
p712
I0
sg29
NsS'block.thisN'
p713
I8
sg623
(S'THIRD'
S'DOUBLE'
S'ADD'
S'DECREASE'
S'x'
S'y'
tp714
sg27
g28
sg625
L4L
sg626
(I5
I12
I24
I8
tp715
sg22
I0
sg20
F1.2536636801669374
sg23
F1.544668463873677
sVY
L7L
sVX
L6L
sg628
g660
sg31
g32
sg33
g34
sg21
S'2'
sg19
S'space'
p716
sg30
g11
sg630
L8L
sg631
g648
sg633
L8L
sS'block.thisIndex'
p717
I14
sg635
g650
sg637
g636
sg638
g690
sa(dp718
S'block.thisTrialN'
p719
I9
sS'block.thisRepN'
p720
I0
sg29
NsS'block.thisN'
p721
I9
sg623
(S'DIVIDE'
S'DECREASE'
S'TRIPLE'
S'x'
S'y'
tp722
sg27
g28
sg625
L3L
sg626
(I9
I8
I4
tp723
sg22
I1
sg20
F7.3137937056599185
sg23
F4.420364934951067
sVY
L2L
sVX
L3L
sg628
g697
sg31
g32
sg33
g34
sg21
S'4'
sg19
S'space'
p724
sg30
g11
sg630
L4L
sg631
g636
sg633
L4L
sS'block.thisIndex'
p725
I5
sg635
g632
sg637
L0L
sg638
g681
sa(dp726
S'block.thisTrialN'
p727
I10
sS'block.thisRepN'
p728
I0
sg29
NsS'block.thisN'
p729
I10
sg623
(S'THIRD'
S'TIMES'
S'DOUBLE'
S'DECREASE'
S'x'
S'y'
tp730
sg27
g28
sg625
L4L
sg626
(I1
I2
I6
I2
tp731
sg22
I0
sg20
F0.91943105740938336
sg23
F0.41798518330324441
sVY
L3L
sVX
L2L
sg628
g648
sg31
g32
sg33
g34
sg21
S'7'
sg19
S'space'
p732
sg30
g11
sg630
L2L
sg631
g651
sg633
L2L
sS'block.thisIndex'
p733
I13
sg635
g650
sg637
g636
sg638
VUBUUxy
p734
sa(dp735
S'block.thisTrialN'
p736
I11
sS'block.thisRepN'
p737
I0
sg29
NsS'block.thisN'
p738
I11
sg623
(S'DIVIDE'
S'INCREASE'
S'x'
S'y'
tp739
sg27
g28
sg625
L2L
sg626
(I4
I2
tp740
sg22
I1
sg20
F3.4939430069644004
sg23
F1.6961655551567674
sVY
L2L
sVX
L3L
sg628
L0L
sg31
g32
sg33
g34
sg21
S'2'
sg19
S'space'
p741
sg30
g11
sg630
L2L
sg631
g646
sg633
L2L
sS'block.thisIndex'
p742
I0
sg635
g632
sg637
L0L
sg638
g671
sa(dp743
S'block.thisTrialN'
p744
I12
sS'block.thisRepN'
p745
I0
sg29
NsS'block.thisN'
p746
I12
sg623
(S'ADD'
S'DOUBLE'
S'DECREASE'
S'THIRD'
S'x'
S'y'
tp747
sg27
g28
sg625
L4L
sg626
(I2
I1
I2
I8
tp748
sg22
I0
sg20
F0.94867995521053672
sg23
F0.2626608912833035
sVY
L6L
sVX
L6L
sg628
g636
sg31
g32
sg33
g34
sg21
S'1'
sg19
S'space'
p749
sg30
g11
sg630
L8L
sg631
g648
sg633
L8L
sS'block.thisIndex'
p750
I10
sg635
g660
sg637
g650
sg638
g700
sa(dp751
S'block.thisTrialN'
p752
I13
sS'block.thisRepN'
p753
I0
sg29
NsS'block.thisN'
p754
I13
sg623
(S'INCREASE'
S'SUBTRACT'
S'HALF'
S'x'
S'y'
tp755
sg27
g28
sg625
L3L
sg626
(I4
I2
I3
tp756
sg22
I1
sg20
F4.6093126682098955
sg23
F3.7653645342215896
sVY
L2L
sVX
L8L
sg628
g679
sg31
g32
sg33
g34
sg21
S'3'
sg19
S'space'
p757
sg30
g11
sg630
L3L
sg631
g670
sg633
L3L
sS'block.thisIndex'
p758
I7
sg635
g646
sg637
L0L
sg638
VUBUxy
p759
sa(dp760
S'block.thisTrialN'
p761
I14
sS'block.thisRepN'
p762
I0
sg29
NsS'block.thisN'
p763
I14
sg623
(S'DOUBLE'
S'ADD'
S'INCREASE'
S'THIRD'
S'x'
S'y'
tp764
sg27
g28
sg625
L4L
sg626
(I1
I2
I4
I8
tp765
sg22
I0
sg20
F0.59942969959229231
sg23
F0.26320053497329354
sVY
L2L
sVX
L3L
sg628
g646
sg31
g32
sg33
g34
sg21
S'5'
sg19
S'space'
p766
sg30
g11
sg630
L8L
sg631
g660
sg633
L8L
sS'block.thisIndex'
p767
I12
sg635
g648
sg637
g650
sg638
g734
sa(dp768
S'block.thisTrialN'
p769
I15
sS'block.thisRepN'
p770
I0
sg29
NsS'block.thisN'
p771
I15
sg623
(S'HALF'
S'TRIPLE'
S'INCREASE'
S'DIVIDE'
S'x'
S'y'
tp772
sg27
g28
sg625
L4L
sg626
(I3
I4
I12
I6
tp773
sg22
I0
sg20
F1.3313898694468662
sg23
F0.31141500384546816
sVY
L3L
sVX
L9L
sg628
g646
sg31
g32
sg33
g34
sg21
S'3'
sg19
S'space'
p774
sg30
g11
sg630
L6L
sg631
g697
sg633
L6L
sS'block.thisIndex'
p775
I16
sg635
g679
sg637
g632
sg638
g652
sa(dp776
S'block.thisTrialN'
p777
I16
sS'block.thisRepN'
p778
I0
sg29
NsS'block.thisN'
p779
I16
sg623
(S'INCREASE'
S'TRIPLE'
S'DIVIDE'
S'x'
S'y'
tp780
sg27
g28
sg625
L3L
sg626
(I2
I6
I7
tp781
sg22
I1
sg20
F7.8103589890524745
sg23
F2.1650193302193657
sVY
L3L
sVX
L6L
sg628
g632
sg31
g32
sg33
g34
sg21
S'7'
sg19
S'space'
p782
sg30
g11
sg630
L7L
sg631
g697
sg633
L7L
sS'block.thisIndex'
p783
I8
sg635
g646
sg637
L0L
sg638
g709
sa(dp784
S'block.thisTrialN'
p785
I17
sS'block.thisRepN'
p786
I0
sg29
NsS'block.thisN'
p787
I17
sg623
(S'HALF'
S'ADD'
S'TRIPLE'
S'x'
S'y'
tp788
sg27
g28
sg625
L3L
sg626
(I9
I12
I6
tp789
sg22
I1
sg20
F3.8482638836139813
sg23
F2.5037468840600923
sVY
L3L
sVX
L3L
sg628
g697
sg31
g32
sg33
g34
sg21
S'6'
sg19
S'space'
p790
sg30
g11
sg630
L6L
sg631
g660
sg633
L6L
sS'block.thisIndex'
p791
I6
sg635
g679
sg637
L0L
sg638
g759
sa(dp792
S'block.thisTrialN'
p793
I0
sS'block.thisRepN'
p794
I0
sg29
NsS'block.thisN'
p795
I0
sVRule
p796
(S'SUBTRACT'
S'INCREASE'
S'HALF'
S'x'
S'y'
tp797
sg27
g28
sVLength
p798
L3L
sVIntermediate
p799
(I4
I5
I3
tp800
sg22
I1
sg20
F3.7053129005944356
sg23
F3.4137719728751108
sVY
L2L
sVX
L8L
sVOperatorc
p801
Vhalf
p802
sg31
g32
sg33
g34
sg21
S'3'
sg19
S'space'
p803
sg30
g11
sVResult
p804
L3L
sVOperatora
p805
Vincrease
p806
sVCorrectResponse
p807
L3L
sS'block.thisIndex'
p808
I5
sVOperatorb
p809
VSUBTRACT
p810
sVOperatord
p811
L0L
sVStructure
p812
VBUUxy
p813
sa(dp814
S'block.thisTrialN'
p815
I1
sS'block.thisRepN'
p816
I0
sg29
NsS'block.thisN'
p817
I1
sg796
(S'DECREASE'
S'THIRD'
S'DOUBLE'
S'ADD'
S'x'
S'y'
tp818
sg27
g28
sg798
L4L
sg799
(I9
I18
I6
I5
tp819
sg22
I1
sg20
F0.59434962959494442
sg23
F0.33765946526546031
sVY
L4L
sVX
L5L
sg801
Vdouble
p820
sg31
g32
sg33
g34
sg21
S'5'
sg19
S'space'
p821
sg30
g11
sg804
L5L
sg805
Vthird
p822
sg807
L5L
sS'block.thisIndex'
p823
I16
sg809
Vdecrease
p824
sg811
VADD
p825
sg812
VUUUBxy
p826
sa(dp827
S'block.thisTrialN'
p828
I2
sS'block.thisRepN'
p829
I0
sg29
NsS'block.thisN'
p830
I2
sg796
(S'THIRD'
S'INCREASE'
S'HALF'
S'TIMES'
S'x'
S'y'
tp831
sg27
g28
sg798
L4L
sg799
(I28
I14
I15
I5
tp832
sg22
I0
sg20
F1.4297639041906223
sg23
F0.6920944299781695
sVY
L4L
sVX
L7L
sg801
g802
sg31
g32
sg33
g34
sg21
S'3'
sg19
S'space'
p833
sg30
g11
sg804
L5L
sg805
g806
sg807
L5L
sS'block.thisIndex'
p834
I17
sg809
g822
sg811
VTIMES
p835
sg812
g826
sa(dp836
S'block.thisTrialN'
p837
I3
sS'block.thisRepN'
p838
I0
sg29
NsS'block.thisN'
p839
I3
sg796
(S'TRIPLE'
S'HALF'
S'ADD'
S'x'
S'y'
tp840
sg27
g28
sg798
L3L
sg799
(I6
I3
I9
tp841
sg22
I1
sg20
F6.7887109479634091
sg23
F5.5086575716268271
sVY
L3L
sVX
L3L
sg801
g825
sg31
g32
sg33
g34
sg21
S'9'
sg19
S'space'
p842
sg30
g11
sg804
L9L
sg805
g802
sg807
L9L
sS'block.thisIndex'
p843
I8
sg809
Vtriple
p844
sg811
L0L
sg812
VUUBxy
p845
sa(dp846
S'block.thisTrialN'
p847
I4
sS'block.thisRepN'
p848
I0
sg29
NsS'block.thisN'
p849
I4
sg796
(S'TRIPLE'
S'INCREASE'
S'SUBTRACT'
S'x'
S'y'
tp850
sg27
g28
sg798
L3L
sg799
(I1
I2
I6
tp851
sg22
I0
sg20
F3.2187537730205804
sg23
F11.08257878292352
sVY
L2L
sVX
L3L
sg801
g810
sg31
g32
sg33
g34
sg21
S'1'
sg19
S'space'
p852
sg30
g11
sg804
L6L
sg805
g806
sg807
L6L
sS'block.thisIndex'
p853
I9
sg809
g844
sg811
L0L
sg812
g845
sa(dp854
S'block.thisTrialN'
p855
I5
sS'block.thisRepN'
p856
I0
sg29
NsS'block.thisN'
p857
I5
sg796
(S'DIVIDE'
S'TRIPLE'
S'DECREASE'
S'x'
S'y'
tp858
sg27
g28
sg798
L3L
sg799
(I6
I18
I9
tp859
sg22
I1
sg20
F11.02383776253555
sg23
F4.7120958927553147
sVY
L2L
sVX
L7L
sg801
g824
sg31
g32
sg33
g34
sg21
S'9'
sg19
S'space'
p860
sg30
g11
sg804
L9L
sg805
g844
sg807
L9L
sS'block.thisIndex'
p861
I4
sg809
VDIVIDE
p862
sg811
L0L
sg812
g813
sa(dp863
S'block.thisTrialN'
p864
I6
sS'block.thisRepN'
p865
I0
sg29
NsS'block.thisN'
p866
I6
sg796
(S'HALF'
S'SUBTRACT'
S'DECREASE'
S'TRIPLE'
S'x'
S'y'
tp867
sg27
g28
sg798
L4L
sg799
(I15
I14
I10
I5
tp868
sg22
I0
sg20
F0.80226153403054923
sg23
F0.025776210241019726
sVY
L4L
sVX
L5L
sg801
g824
sg31
g32
sg33
g34
sg21
S'6'
sg19
S'space'
p869
sg30
g11
sg804
L5L
sg805
g810
sg807
L5L
sS'block.thisIndex'
p870
I12
sg809
g802
sg811
g844
sg812
VUBUUxy
p871
sa(dp872
S'block.thisTrialN'
p873
I7
sS'block.thisRepN'
p874
I0
sg29
NsS'block.thisN'
p875
I7
sg796
(S'HALF'
S'TIMES'
S'DECREASE'
S'x'
S'y'
tp876
sg27
g28
sg798
L3L
sg799
(I8
I16
I8
tp877
sg22
I1
sg20
F4.8659944334067404
sg23
F7.1240680034970865
sVY
L2L
sVX
L9L
sg801
g824
sg31
g32
sg33
g34
sg21
S'8'
sg19
S'space'
p878
sg30
g11
sg804
L8L
sg805
g835
sg807
L8L
sS'block.thisIndex'
p879
I6
sg809
g802
sg811
L0L
sg812
VUBUxy
p880
sa(dp881
S'block.thisTrialN'
p882
I8
sS'block.thisRepN'
p883
I0
sg29
NsS'block.thisN'
p884
I8
sg796
(S'TIMES'
S'HALF'
S'INCREASE'
S'THIRD'
S'x'
S'y'
tp885
sg27
g28
sg798
L4L
sg799
(I1
I2
I1
I9
tp886
sg22
I0
sg20
F1.0440089576877654
sg23
F0.56410578556824476
sVY
L9L
sVX
L3L
sg801
g806
sg31
g32
sg33
g34
sg21
S'7'
sg19
S'space'
p887
sg30
g11
sg804
L9L
sg805
g802
sg807
L9L
sS'block.thisIndex'
p888
I11
sg809
g835
sg811
g822
sg812
VBUUUxy
p889
sa(dp890
S'block.thisTrialN'
p891
I9
sS'block.thisRepN'
p892
I0
sg29
NsS'block.thisN'
p893
I9
sg796
(S'ADD'
S'HALF'
S'x'
S'y'
tp894
sg27
g28
sg798
L2L
sg799
(I2
I7
tp895
sg22
I1
sg20
F4.3700188385555521
sg23
F1.8328472923021764
sVY
L5L
sVX
L4L
sg801
L0L
sg31
g32
sg33
g34
sg21
S'7'
sg19
S'space'
p896
sg30
g11
sg804
L7L
sg805
g802
sg807
L7L
sS'block.thisIndex'
p897
I0
sg809
g825
sg811
L0L
sg812
VBUxy
p898
sa(dp899
S'block.thisTrialN'
p900
I10
sS'block.thisRepN'
p901
I0
sg29
NsS'block.thisN'
p902
I10
sg796
(S'INCREASE'
S'TIMES'
S'TRIPLE'
S'HALF'
S'x'
S'y'
tp903
sg27
g28
sg798
L4L
sg799
(I1
I3
I6
I7
tp904
sg22
I0
sg20
F0.82091423764359206
sg23
F0.31179681408684701
sVY
L2L
sVX
L2L
sg801
g844
sg31
g32
sg33
g34
sg21
S'3'
sg19
S'space'
p905
sg30
g11
sg804
L7L
sg805
g835
sg807
L7L
sS'block.thisIndex'
p906
I13
sg809
g806
sg811
g802
sg812
g871
sa(dp907
S'block.thisTrialN'
p908
I11
sS'block.thisRepN'
p909
I0
sg29
NsS'block.thisN'
p910
I11
sg796
(S'TRIPLE'
S'INCREASE'
S'DIVIDE'
S'DOUBLE'
S'x'
S'y'
tp911
sg27
g28
sg798
L4L
sg799
(I16
I2
I3
I9
tp912
sg22
I0
sg20
F0.88444800791330636
sg23
F0.24072308046743274
sVY
L8L
sVX
L8L
sg801
g862
sg31
g32
sg33
g34
sg21
S'5'
sg19
S'space'
p913
sg30
g11
sg804
L9L
sg805
g806
sg807
L9L
sS'block.thisIndex'
p914
I15
sg809
g844
sg811
g820
sg812
VUUBUxy
p915
sa(dp916
S'block.thisTrialN'
p917
I12
sS'block.thisRepN'
p918
I0
sg29
NsS'block.thisN'
p919
I12
sg796
(S'DIVIDE'
S'DOUBLE'
S'INCREASE'
S'TRIPLE'
S'x'
S'y'
tp920
sg27
g28
sg798
L4L
sg799
(I9
I10
I20
I5
tp921
sg22
I0
sg20
F0.53913414140697569
sg23
F1.0776943425880745
sVY
L4L
sVX
L3L
sg801
g806
sg31
g32
sg33
g34
sg21
S'7'
sg19
S'space'
p922
sg30
g11
sg804
L5L
sg805
g820
sg807
L5L
sS'block.thisIndex'
p923
I10
sg809
g862
sg811
g844
sg812
g889
sa(dp924
S'block.thisTrialN'
p925
I13
sS'block.thisRepN'
p926
I0
sg29
NsS'block.thisN'
p927
I13
sg796
(S'SUBTRACT'
S'TRIPLE'
S'x'
S'y'
tp928
sg27
g28
sg798
L2L
sg799
(I12
I9
tp929
sg22
I1
sg20
F7.2508317757165059
sg23
F3.4794825160643086
sVY
L3L
sVX
L4L
sg801
L0L
sg31
g32
sg33
g34
sg21
S'9'
sg19
S'space'
p930
sg30
g11
sg804
L9L
sg805
g844
sg807
L9L
sS'block.thisIndex'
p931
I1
sg809
g810
sg811
L0L
sg812
g898
sa(dp932
S'block.thisTrialN'
p933
I14
sS'block.thisRepN'
p934
I0
sg29
NsS'block.thisN'
p935
I14
sg796
(S'INCREASE'
S'DIVIDE'
S'x'
S'y'
tp936
sg27
g28
sg798
L2L
sg799
(I4
I5
tp937
sg22
I1
sg20
F3.0126781270373613
sg23
F3.540307218907401
sVY
L2L
sVX
L8L
sg801
L0L
sg31
g32
sg33
g34
sg21
S'5'
sg19
S'space'
p938
sg30
g11
sg804
L5L
sg805
g862
sg807
L5L
sS'block.thisIndex'
p939
I3
sg809
g806
sg811
L0L
sg812
VUBxy
p940
sa(dp941
S'block.thisTrialN'
p942
I15
sS'block.thisRepN'
p943
I0
sg29
NsS'block.thisN'
p944
I15
sg796
(S'INCREASE'
S'DIVIDE'
S'TRIPLE'
S'x'
S'y'
tp945
sg27
g28
sg798
L3L
sg799
(I6
I2
I3
tp946
sg22
I0
sg20
F6.1174624428385869
sg23
F4.1808709261240438
sVY
L3L
sVX
L2L
sg801
g844
sg31
g32
sg33
g34
sg21
S'4'
sg19
S'space'
p947
sg30
g11
sg804
L3L
sg805
g862
sg807
L3L
sS'block.thisIndex'
p948
I7
sg809
g806
sg811
L0L
sg812
g880
sa(dp949
S'block.thisTrialN'
p950
I16
sS'block.thisRepN'
p951
I0
sg29
NsS'block.thisN'
p952
I16
sg796
(S'TRIPLE'
S'DOUBLE'
S'SUBTRACT'
S'INCREASE'
S'x'
S'y'
tp953
sg27
g28
sg798
L4L
sg799
(I5
I1
I2
I6
tp954
sg22
I0
sg20
F1.2514130650088191
sg23
F0.003594124922528863
sVY
L4L
sVX
L4L
sg801
g810
sg31
g32
sg33
g34
sg21
S'2'
sg19
S'space'
p955
sg30
g11
sg804
L6L
sg805
g820
sg807
L6L
sS'block.thisIndex'
p956
I14
sg809
g844
sg811
g806
sg812
g915
sa(dp957
S'block.thisTrialN'
p958
I17
sS'block.thisRepN'
p959
I0
sg29
NsS'block.thisN'
p960
I17
sg796
(S'DOUBLE'
S'DIVIDE'
S'x'
S'y'
tp961
sg27
g28
sg798
L2L
sg799
(I1
I2
tp962
sg22
I1
sg20
F6.7306187598733231
sg23
F1.6515427614795044
sVY
L8L
sVX
L8L
sg801
L0L
sg31
g32
sg33
g34
sg21
S'2'
sg19
S'space'
p963
sg30
g11
sg804
L2L
sg805
g862
sg807
L2L
sS'block.thisIndex'
p964
I2
sg809
g820
sg811
L0L
sg812
g940
sa(dp965
S'block.thisTrialN'
p966
I0
sS'block.thisRepN'
p967
I0
sg29
NsS'block.thisN'
p968
I0
sVRule
p969
(S'INCREASE'
S'ADD'
S'TRIPLE'
S'x'
S'y'
tp970
sg27
g28
sVLength
p971
L3L
sVIntermediate
p972
(I6
I8
I9
tp973
sg22
I1
sg20
F9.4935293501475826
sg23
F4.5311203276505694
sVY
L2L
sVX
L2L
sVOperatorc
p974
Vtriple
p975
sg31
g32
sg33
g34
sg21
S'9'
sg19
S'space'
p976
sg30
g11
sVResult
p977
L9L
sVOperatora
p978
VADD
p979
sVCorrectResponse
p980
L9L
sS'block.thisIndex'
p981
I6
sVOperatorb
p982
Vincrease
p983
sVOperatord
p984
L0L
sVStructure
p985
VUBUxy
p986
sa(dp987
S'block.thisTrialN'
p988
I1
sS'block.thisRepN'
p989
I0
sg29
NsS'block.thisN'
p990
I1
sg969
(S'DIVIDE'
S'TRIPLE'
S'HALF'
S'x'
S'y'
tp991
sg27
g28
sg971
L3L
sg972
(I4
I12
I4
tp992
sg22
I0
sg20
F4.6426620882702991
sg23
F9.1250674992334098
sVY
L3L
sVX
L8L
sg974
Vhalf
p993
sg31
g32
sg33
g34
sg21
S'3'
sg19
S'space'
p994
sg30
g11
sg977
L4L
sg978
g975
sg980
L4L
sS'block.thisIndex'
p995
I4
sg982
VDIVIDE
p996
sg984
L0L
sg985
VBUUxy
p997
sa(dp998
S'block.thisTrialN'
p999
I2
sS'block.thisRepN'
p1000
I0
sg29
NsS'block.thisN'
p1001
I2
sg969
(S'DIVIDE'
S'DOUBLE'
S'INCREASE'
S'THIRD'
S'x'
S'y'
tp1002
sg27
g28
sg971
L4L
sg972
(I2
I3
I6
I2
tp1003
sg22
I0
sg20
F1.0773422793718055
sg23
F0.26242956542409956
sVY
L3L
sVX
L6L
sg974
g983
sg31
g32
sg33
g34
sg21
S'4'
sg19
S'space'
p1004
sg30
g11
sg977
L2L
sg978
Vdouble
p1005
sg980
L2L
sS'block.thisIndex'
p1006
I10
sg982
g996
sg984
Vthird
p1007
sg985
VBUUUxy
p1008
sa(dp1009
S'block.thisTrialN'
p1010
I3
sS'block.thisRepN'
p1011
I0
sg29
NsS'block.thisN'
p1012
I3
sg969
(S'TRIPLE'
S'DOUBLE'
S'SUBTRACT'
S'DECREASE'
S'x'
S'y'
tp1013
sg27
g28
sg971
L4L
sg972
(I4
I1
I2
I6
tp1014
sg22
I1
sg20
F0.78797182510606945
sg23
F0.42185367958154529
sVY
L3L
sVX
L5L
sg974
VSUBTRACT
p1015
sg31
g32
sg33
g34
sg21
S'6'
sg19
S'space'
p1016
sg30
g11
sg977
L6L
sg978
g1005
sg980
L6L
sS'block.thisIndex'
p1017
I15
sg982
g975
sg984
Vdecrease
p1018
sg985
VUUBUxy
p1019
sa(dp1020
S'block.thisTrialN'
p1021
I4
sS'block.thisRepN'
p1022
I0
sg29
NsS'block.thisN'
p1023
I4
sg969
(S'DECREASE'
S'TRIPLE'
S'HALF'
S'ADD'
S'x'
S'y'
tp1024
sg27
g28
sg971
L4L
sg972
(I6
I3
I9
I8
tp1025
sg22
I0
sg20
F1.2671673711156473
sg23
F1.0474371999735013
sVY
L2L
sVX
L4L
sg974
g993
sg31
g32
sg33
g34
sg21
S'7'
sg19
S'space'
p1026
sg30
g11
sg977
L8L
sg978
g975
sg980
L8L
sS'block.thisIndex'
p1027
I16
sg982
g1018
sg984
g979
sg985
VUUUBxy
p1028
sa(dp1029
S'block.thisTrialN'
p1030
I5
sS'block.thisRepN'
p1031
I0
sg29
NsS'block.thisN'
p1032
I5
sg969
(S'DOUBLE'
S'ADD'
S'x'
S'y'
tp1033
sg27
g28
sg971
L2L
sg972
(I4
I8
tp1034
sg22
I1
sg20
F2.8335167724872008
sg23
F3.6874059691326693
sVY
L2L
sVX
L2L
sg974
L0L
sg31
g32
sg33
g34
sg21
S'8'
sg19
S'space'
p1035
sg30
g11
sg977
L8L
sg978
g979
sg980
L8L
sS'block.thisIndex'
p1036
I2
sg982
g1005
sg984
L0L
sg985
VUBxy
p1037
sa(dp1038
S'block.thisTrialN'
p1039
I6
sS'block.thisRepN'
p1040
I0
sg29
NsS'block.thisN'
p1041
I6
sg969
(S'ADD'
S'THIRD'
S'x'
S'y'
tp1042
sg27
g28
sg971
L2L
sg972
(I1
I7
tp1043
sg22
I1
sg20
F3.4793659781571478
sg23
F1.8464888689341024
sVY
L6L
sVX
L3L
sg974
L0L
sg31
g32
sg33
g34
sg21
S'7'
sg19
S'space'
p1044
sg30
g11
sg977
L7L
sg978
g1007
sg980
L7L
sS'block.thisIndex'
p1045
I0
sg982
g979
sg984
L0L
sg985
VBUxy
p1046
sa(dp1047
S'block.thisTrialN'
p1048
I7
sS'block.thisRepN'
p1049
I0
sg29
NsS'block.thisN'
p1050
I7
sg969
(S'THIRD'
S'TIMES'
S'HALF'
S'INCREASE'
S'x'
S'y'
tp1051
sg27
g28
sg971
L4L
sg972
(I8
I4
I12
I4
tp1052
sg22
I1
sg20
F0.93270167254377156
sg23
F0.052085064933635294
sVY
L3L
sVX
L7L
sg974
g993
sg31
g32
sg33
g34
sg21
S'4'
sg19
S'space'
p1053
sg30
g11
sg977
L4L
sg978
VTIMES
p1054
sg980
L4L
sS'block.thisIndex'
p1055
I13
sg982
g1007
sg984
g983
sg985
VUBUUxy
p1056
sa(dp1057
S'block.thisTrialN'
p1058
I8
sS'block.thisRepN'
p1059
I0
sg29
NsS'block.thisN'
p1060
I8
sg969
(S'INCREASE'
S'SUBTRACT'
S'THIRD'
S'x'
S'y'
tp1061
sg27
g28
sg971
L3L
sg972
(I3
I1
I2
tp1062
sg22
I1
sg20
F13.207201828481629
sg23
F3.2994697003159672
sVY
L2L
sVX
L9L
sg974
g1007
sg31
g32
sg33
g34
sg21
S'2'
sg19
S'space'
p1063
sg30
g11
sg977
L2L
sg978
g1015
sg980
L2L
sS'block.thisIndex'
p1064
I7
sg982
g983
sg984
L0L
sg985
g986
sa(dp1065
S'block.thisTrialN'
p1066
I9
sS'block.thisRepN'
p1067
I0
sg29
NsS'block.thisN'
p1068
I9
sg969
(S'THIRD'
S'INCREASE'
S'ADD'
S'DOUBLE'
S'x'
S'y'
tp1069
sg27
g28
sg971
L4L
sg972
(I16
I20
I21
I7
tp1070
sg22
I0
sg20
F0.75187309202738106
sg23
F1.2095665318192914
sVY
L4L
sVX
L8L
sg974
g979
sg31
g32
sg33
g34
sg21
S'6'
sg19
S'space'
p1071
sg30
g11
sg977
L7L
sg978
g983
sg980
L7L
sS'block.thisIndex'
p1072
I14
sg982
g1007
sg984
g1005
sg985
g1019
sa(dp1073
S'block.thisTrialN'
p1074
I10
sS'block.thisRepN'
p1075
I0
sg29
NsS'block.thisN'
p1076
I10
sg969
(S'DOUBLE'
S'TIMES'
S'x'
S'y'
tp1077
sg27
g28
sg971
L2L
sg972
(I4
I8
tp1078
sg22
I1
sg20
F2.6883018757216632
sg23
F3.3217805721797049
sVY
L2L
sVX
L2L
sg974
L0L
sg31
g32
sg33
g34
sg21
S'8'
sg19
S'space'
p1079
sg30
g11
sg977
L8L
sg978
g1054
sg980
L8L
sS'block.thisIndex'
p1080
I3
sg982
g1005
sg984
L0L
sg985
g1037
sa(dp1081
S'block.thisTrialN'
p1082
I11
sS'block.thisRepN'
p1083
I0
sg29
NsS'block.thisN'
p1084
I11
sg969
(S'INCREASE'
S'DIVIDE'
S'TRIPLE'
S'HALF'
S'x'
S'y'
tp1085
sg27
g28
sg971
L4L
sg972
(I2
I6
I2
I3
tp1086
sg22
I1
sg20
F0.70931753271725029
sg23
F0.59759344113990664
sVY
L3L
sVX
L4L
sg974
g975
sg31
g32
sg33
g34
sg21
S'3'
sg19
S'space'
p1087
sg30
g11
sg977
L3L
sg978
g996
sg980
L3L
sS'block.thisIndex'
p1088
I12
sg982
g983
sg984
g993
sg985
g1056
sa(dp1089
S'block.thisTrialN'
p1090
I12
sS'block.thisRepN'
p1091
I0
sg29
NsS'block.thisN'
p1092
I12
sg969
(S'TIMES'
S'INCREASE'
S'HALF'
S'TRIPLE'
S'x'
S'y'
tp1093
sg27
g28
sg971
L4L
sg972
(I6
I3
I4
I8
tp1094
sg22
I0
sg20
F0.60991460538934916
sg23
F0.24642678536474705
sVY
L2L
sVX
L2L
sg974
g993
sg31
g32
sg33
g34
sg21
S'4'
sg19
S'space'
p1095
sg30
g11
sg977
L8L
sg978
g983
sg980
L8L
sS'block.thisIndex'
p1096
I11
sg982
g1054
sg984
g975
sg985
g1008
sa(dp1097
S'block.thisTrialN'
p1098
I13
sS'block.thisRepN'
p1099
I0
sg29
NsS'block.thisN'
p1100
I13
sg969
(S'THIRD'
S'INCREASE'
S'SUBTRACT'
S'x'
S'y'
tp1101
sg27
g28
sg971
L3L
sg972
(I2
I3
I1
tp1102
sg22
I1
sg20
F4.3746005605207756
sg23
F2.0481829721247777
sVY
L6L
sVX
L8L
sg974
g1015
sg31
g32
sg33
g34
sg21
S'1'
sg19
S'space'
p1103
sg30
g11
sg977
L1L
sg978
g983
sg980
L1L
sS'block.thisIndex'
p1104
I9
sg982
g1007
sg984
L0L
sg985
VUUBxy
p1105
sa(dp1106
S'block.thisTrialN'
p1107
I14
sS'block.thisRepN'
p1108
I0
sg29
NsS'block.thisN'
p1109
I14
sg969
(S'SUBTRACT'
S'INCREASE'
S'x'
S'y'
tp1110
sg27
g28
sg971
L2L
sg972
(I6
I2
tp1111
sg22
I0
sg20
F2.3553364706458524
sg23
F10.728404541034251
sVY
L4L
sVX
L5L
sg974
L0L
sg31
g32
sg33
g34
sg21
S'6'
sg19
S'space'
p1112
sg30
g11
sg977
L2L
sg978
g983
sg980
L2L
sS'block.thisIndex'
p1113
I1
sg982
g1015
sg984
L0L
sg985
g1046
sa(dp1114
S'block.thisTrialN'
p1115
I15
sS'block.thisRepN'
p1116
I0
sg29
NsS'block.thisN'
p1117
I15
sg969
(S'TRIPLE'
S'DECREASE'
S'HALF'
S'SUBTRACT'
S'x'
S'y'
tp1118
sg27
g28
sg971
L4L
sg972
(I4
I2
I1
I3
tp1119
sg22
I1
sg20
F0.83857549470849335
sg23
F0.94764301355462521
sVY
L5L
sVX
L9L
sg974
g993
sg31
g32
sg33
g34
sg21
S'3'
sg19
S'space'
p1120
sg30
g11
sg977
L3L
sg978
g1018
sg980
L3L
sS'block.thisIndex'
p1121
I17
sg982
g975
sg984
g1015
sg985
g1028
sa(dp1122
S'block.thisTrialN'
p1123
I16
sS'block.thisRepN'
p1124
I0
sg29
NsS'block.thisN'
p1125
I16
sg969
(S'TIMES'
S'THIRD'
S'DOUBLE'
S'x'
S'y'
tp1126
sg27
g28
sg971
L3L
sg972
(I6
I2
I4
tp1127
sg22
I1
sg20
F8.6764962075976655
sg23
F7.0808667616220191
sVY
L2L
sVX
L3L
sg974
g1005
sg31
g32
sg33
g34
sg21
S'4'
sg19
S'space'
p1128
sg30
g11
sg977
L4L
sg978
g1007
sg980
L4L
sS'block.thisIndex'
p1129
I5
sg982
g1054
sg984
L0L
sg985
g997
sa(dp1130
S'block.thisTrialN'
p1131
I17
sS'block.thisRepN'
p1132
I0
sg29
NsS'block.thisN'
p1133
I17
sg969
(S'DECREASE'
S'TRIPLE'
S'DIVIDE'
S'x'
S'y'
tp1134
sg27
g28
sg971
L3L
sg972
(I2
I6
I5
tp1135
sg22
I1
sg20
F7.8922063482459635
sg23
F3.733420567587018
sVY
L4L
sVX
L8L
sg974
g996
sg31
g32
sg33
g34
sg21
S'5'
sg19
S'space'
p1136
sg30
g11
sg977
L5L
sg978
g975
sg980
L5L
sS'block.thisIndex'
p1137
I8
sg982
g1018
sg984
L0L
sg985
g1105
sa(dp1138
S'block.thisTrialN'
p1139
I0
sS'block.thisRepN'
p1140
I0
sg29
NsS'block.thisN'
p1141
I0
sVRule
p1142
(S'DIVIDE'
S'INCREASE'
S'DOUBLE'
S'THIRD'
S'x'
S'y'
tp1143
sg27
g28
sVLength
p1144
L4L
sVIntermediate
p1145
(I2
I4
I5
I1
tp1146
sg22
I0
sg20
F4.0294137306045741
sg23
F0.10113629640545696
sVY
L5L
sVX
L6L
sVOperatorc
p1147
Vdouble
p1148
sg31
g32
sg33
g34
sg21
S'2'
sg19
S'space'
p1149
sg30
g11
sVResult
p1150
L1L
sVOperatora
p1151
Vincrease
p1152
sVCorrectResponse
p1153
L1L
sS'block.thisIndex'
p1154
I11
sVOperatorb
p1155
VDIVIDE
p1156
sVOperatord
p1157
Vthird
p1158
sVStructure
p1159
VBUUUxy
p1160
sa(dp1161
S'block.thisTrialN'
p1162
I1
sS'block.thisRepN'
p1163
I0
sg29
NsS'block.thisN'
p1164
I1
sg1142
(S'DOUBLE'
S'SUBTRACT'
S'x'
S'y'
tp1165
sg27
g28
sg1144
L2L
sg1145
(I1
I2
tp1166
sg22
I1
sg20
F2.2611228018067777
sg23
F1.3148166489554569
sVY
L7L
sVX
L8L
sg1147
L0L
sg31
g32
sg33
g34
sg21
S'2'
sg19
S'space'
p1167
sg30
g11
sg1150
L2L
sg1151
VSUBTRACT
p1168
sg1153
L2L
sS'block.thisIndex'
p1169
I2
sg1155
g1148
sg1157
L0L
sg1159
VUBxy
p1170
sa(dp1171
S'block.thisTrialN'
p1172
I2
sS'block.thisRepN'
p1173
I0
sg29
NsS'block.thisN'
p1174
I2
sg1142
(S'ADD'
S'THIRD'
S'INCREASE'
S'HALF'
S'x'
S'y'
tp1175
sg27
g28
sg1144
L4L
sg1145
(I2
I3
I1
I7
tp1176
sg22
I0
sg20
F0.90149962855502963
sg23
F0.63237141200806946
sVY
L6L
sVX
L4L
sg1147
g1152
sg31
g32
sg33
g34
sg21
S'6'
sg19
S'space'
p1177
sg30
g11
sg1150
L7L
sg1151
g1158
sg1153
L7L
sS'block.thisIndex'
p1178
I10
sg1155
VADD
p1179
sg1157
Vhalf
p1180
sg1159
g1160
sa(dp1181
S'block.thisTrialN'
p1182
I3
sS'block.thisRepN'
p1183
I0
sg29
NsS'block.thisN'
p1184
I3
sg1142
(S'DOUBLE'
S'TRIPLE'
S'DIVIDE'
S'DECREASE'
S'x'
S'y'
tp1185
sg27
g28
sg1144
L4L
sg1145
(I8
I1
I3
I6
tp1186
sg22
I0
sg20
F0.7063347939401865
sg23
F0.19789559964556247
sVY
L8L
sVX
L9L
sg1147
g1156
sg31
g32
sg33
g34
sg21
S'4'
sg19
S'space'
p1187
sg30
g11
sg1150
L6L
sg1151
Vtriple
p1188
sg1153
L6L
sS'block.thisIndex'
p1189
I15
sg1155
g1148
sg1157
Vdecrease
p1190
sg1159
VUUBUxy
p1191
sa(dp1192
S'block.thisTrialN'
p1193
I4
sS'block.thisRepN'
p1194
I0
sg29
NsS'block.thisN'
p1195
I4
sg1142
(S'DOUBLE'
S'DECREASE'
S'TRIPLE'
S'DIVIDE'
S'x'
S'y'
tp1196
sg27
g28
sg1144
L4L
sg1145
(I1
I3
I2
I4
tp1197
sg22
I0
sg20
F0.69335499848239124
sg23
F0.61161192820873111
sVY
L4L
sVX
L4L
sg1147
g1188
sg31
g32
sg33
g34
sg21
S'2'
sg19
S'space'
p1198
sg30
g11
sg1150
L4L
sg1151
g1190
sg1153
L4L
sS'block.thisIndex'
p1199
I17
sg1155
g1148
sg1157
g1156
sg1159
VUUUBxy
p1200
sa(dp1201
S'block.thisTrialN'
p1202
I5
sS'block.thisRepN'
p1203
I0
sg29
NsS'block.thisN'
p1204
I5
sg1142
(S'DIVIDE'
S'DOUBLE'
S'x'
S'y'
tp1205
sg27
g28
sg1144
L2L
sg1145
(I12
I2
tp1206
sg22
I1
sg20
F2.1785065728472546
sg23
F5.544578873203136
sVY
L6L
sVX
L6L
sg1147
L0L
sg31
g32
sg33
g34
sg21
S'2'
sg19
S'space'
p1207
sg30
g11
sg1150
L2L
sg1151
g1148
sg1153
L2L
sS'block.thisIndex'
p1208
I1
sg1155
g1156
sg1157
L0L
sg1159
VBUxy
p1209
sa(dp1210
S'block.thisTrialN'
p1211
I6
sS'block.thisRepN'
p1212
I0
sg29
NsS'block.thisN'
p1213
I6
sg1142
(S'DOUBLE'
S'TRIPLE'
S'SUBTRACT'
S'x'
S'y'
tp1214
sg27
g28
sg1144
L3L
sg1145
(I1
I3
I6
tp1215
sg22
I0
sg20
F6.3731965069891885
sg23
F4.501787438406609
sVY
L3L
sVX
L4L
sg1147
g1168
sg31
g32
sg33
g34
sg21
S'1'
sg19
S'space'
p1216
sg30
g11
sg1150
L6L
sg1151
g1188
sg1153
L6L
sS'block.thisIndex'
p1217
I9
sg1155
g1148
sg1157
L0L
sg1159
VUUBxy
p1218
sa(dp1219
S'block.thisTrialN'
p1220
I7
sS'block.thisRepN'
p1221
I0
sg29
NsS'block.thisN'
p1222
I7
sg1142
(S'DIVIDE'
S'DOUBLE'
S'THIRD'
S'x'
S'y'
tp1223
sg27
g28
sg1144
L3L
sg1145
(I2
I4
I1
tp1224
sg22
I1
sg20
F8.0828528042184189
sg23
F5.0981028128881007
sVY
L4L
sVX
L6L
sg1147
g1158
sg31
g32
sg33
g34
sg21
S'1'
sg19
S'space'
p1225
sg30
g11
sg1150
L1L
sg1151
g1148
sg1153
L1L
sS'block.thisIndex'
p1226
I4
sg1155
g1156
sg1157
L0L
sg1159
VBUUxy
p1227
sa(dp1228
S'block.thisTrialN'
p1229
I8
sS'block.thisRepN'
p1230
I0
sg29
NsS'block.thisN'
p1231
I8
sg1142
(S'SUBTRACT'
S'HALF'
S'TRIPLE'
S'x'
S'y'
tp1232
sg27
g28
sg1144
L3L
sg1145
(I12
I6
I2
tp1233
sg22
I1
sg20
F3.6036282113054767
sg23
F4.646469690836966
sVY
L4L
sVX
L4L
sg1147
g1188
sg31
g32
sg33
g34
sg21
S'2'
sg19
S'space'
p1234
sg30
g11
sg1150
L2L
sg1151
g1180
sg1153
L2L
sS'block.thisIndex'
p1235
I5
sg1155
g1168
sg1157
L0L
sg1159
g1227
sa(dp1236
S'block.thisTrialN'
p1237
I9
sS'block.thisRepN'
p1238
I0
sg29
NsS'block.thisN'
p1239
I9
sg1142
(S'DECREASE'
S'THIRD'
S'TIMES'
S'HALF'
S'x'
S'y'
tp1240
sg27
g28
sg1144
L4L
sg1145
(I2
I12
I4
I3
tp1241
sg22
I0
sg20
F1.2651844780193642
sg23
F0.18487135856412351
sVY
L6L
sVX
L4L
sg1147
VTIMES
p1242
sg31
g32
sg33
g34
sg21
S'5'
sg19
S'space'
p1243
sg30
g11
sg1150
L3L
sg1151
g1158
sg1153
L3L
sS'block.thisIndex'
p1244
I14
sg1155
g1190
sg1157
g1180
sg1159
g1191
sa(dp1245
S'block.thisTrialN'
p1246
I10
sS'block.thisRepN'
p1247
I0
sg29
NsS'block.thisN'
p1248
I10
sg1142
(S'DECREASE'
S'HALF'
S'TRIPLE'
S'DIVIDE'
S'x'
S'y'
tp1249
sg27
g28
sg1144
L4L
sg1145
(I4
I12
I6
I5
tp1250
sg22
I0
sg20
F0.56198850658256561
sg23
F0.038710510591045022
sVY
L2L
sVX
L8L
sg1147
g1188
sg31
g32
sg33
g34
sg21
S'4'
sg19
S'space'
p1251
sg30
g11
sg1150
L5L
sg1151
g1180
sg1153
L5L
sS'block.thisIndex'
p1252
I16
sg1155
g1190
sg1157
g1156
sg1159
g1200
sa(dp1253
S'block.thisTrialN'
p1254
I11
sS'block.thisRepN'
p1255
I0
sg29
NsS'block.thisN'
p1256
I11
sg1142
(S'HALF'
S'SUBTRACT'
S'TRIPLE'
S'x'
S'y'
tp1257
sg27
g28
sg1144
L3L
sg1145
(I9
I2
I1
tp1258
sg22
I1
sg20
F9.8781304671429098
sg23
F3.5097788545535877
sVY
L7L
sVX
L3L
sg1147
g1188
sg31
g32
sg33
g34
sg21
S'1'
sg19
S'space'
p1259
sg30
g11
sg1150
L1L
sg1151
g1168
sg1153
L1L
sS'block.thisIndex'
p1260
I6
sg1155
g1180
sg1157
L0L
sg1159
VUBUxy
p1261
sa(dp1262
S'block.thisTrialN'
p1263
I12
sS'block.thisRepN'
p1264
I0
sg29
NsS'block.thisN'
p1265
I12
sg1142
(S'INCREASE'
S'DIVIDE'
S'THIRD'
S'x'
S'y'
tp1266
sg27
g28
sg1144
L3L
sg1145
(I3
I1
I2
tp1267
sg22
I1
sg20
F4.7784517685649917
sg23
F2.4820410989923403
sVY
L3L
sVX
L9L
sg1147
g1158
sg31
g32
sg33
g34
sg21
S'2'
sg19
S'space'
p1268
sg30
g11
sg1150
L2L
sg1151
g1156
sg1153
L2L
sS'block.thisIndex'
p1269
I7
sg1155
g1152
sg1157
L0L
sg1159
g1261
sa(dp1270
S'block.thisTrialN'
p1271
I13
sS'block.thisRepN'
p1272
I0
sg29
NsS'block.thisN'
p1273
I13
sg1142
(S'HALF'
S'TIMES'
S'x'
S'y'
tp1274
sg27
g28
sg1144
L2L
sg1145
(I16
I8
tp1275
sg22
I1
sg20
F3.4503368573496118
sg23
F2.8689512750133872
sVY
L4L
sVX
L4L
sg1147
L0L
sg31
g32
sg33
g34
sg21
S'8'
sg19
S'space'
p1276
sg30
g11
sg1150
L8L
sg1151
g1242
sg1153
L8L
sS'block.thisIndex'
p1277
I3
sg1155
g1180
sg1157
L0L
sg1159
g1170
sa(dp1278
S'block.thisTrialN'
p1279
I14
sS'block.thisRepN'
p1280
I0
sg29
NsS'block.thisN'
p1281
I14
sg1142
(S'DECREASE'
S'TIMES'
S'DOUBLE'
S'THIRD'
S'x'
S'y'
tp1282
sg27
g28
sg1144
L4L
sg1145
(I1
I2
I8
I7
tp1283
sg22
I1
sg20
F0.83592032175511122
sg23
F0.70776089525315911
sVY
L4L
sVX
L3L
sg1147
g1148
sg31
g32
sg33
g34
sg21
S'7'
sg19
S'space'
p1284
sg30
g11
sg1150
L7L
sg1151
g1242
sg1153
L7L
sS'block.thisIndex'
p1285
I13
sg1155
g1190
sg1157
g1158
sg1159
VUBUUxy
p1286
sa(dp1287
S'block.thisTrialN'
p1288
I15
sS'block.thisRepN'
p1289
I0
sg29
NsS'block.thisN'
p1290
I15
sg1142
(S'DOUBLE'
S'DECREASE'
S'SUBTRACT'
S'x'
S'y'
tp1291
sg27
g28
sg1144
L3L
sg1145
(I5
I4
I8
tp1292
sg22
I0
sg20
F0.50177518976852298
sg23
F0.53245788800995797
sVY
L2L
sVX
L7L
sg1147
g1168
sg31
g32
sg33
g34
sg21
S'5'
sg19
S'space'
p1293
sg30
g11
sg1150
L8L
sg1151
g1190
sg1153
L8L
sS'block.thisIndex'
p1294
I8
sg1155
g1148
sg1157
L0L
sg1159
g1218
sa(dp1295
S'block.thisTrialN'
p1296
I16
sS'block.thisRepN'
p1297
I0
sg29
NsS'block.thisN'
p1298
I16
sg1142
(S'DECREASE'
S'ADD'
S'DOUBLE'
S'THIRD'
S'x'
S'y'
tp1299
sg27
g28
sg1144
L4L
sg1145
(I3
I6
I10
I9
tp1300
sg22
I0
sg20
F0.54788707802072167
sg23
F0.34414218866731972
sVY
L4L
sVX
L9L
sg1147
g1148
sg31
g32
sg33
g34
sg21
S'4'
sg19
S'space'
p1301
sg30
g11
sg1150
L9L
sg1151
g1179
sg1153
L9L
sS'block.thisIndex'
p1302
I12
sg1155
Vdecrease 
p1303
sg1157
g1158
sg1159
g1286
sa(dp1304
S'block.thisTrialN'
p1305
I17
sS'block.thisRepN'
p1306
I0
sg29
NsS'block.thisN'
p1307
I17
sg1142
(S'ADD'
S'DOUBLE'
S'x'
S'y'
tp1308
sg27
g28
sg1144
L2L
sg1145
(I4
I8
tp1309
sg22
I1
sg20
F3.9874559089075774
sg23
F1.5600752561585978
sVY
L4L
sVX
L2L
sg1147
L0L
sg31
g32
sg33
g34
sg21
S'8'
sg19
S'space'
p1310
sg30
g11
sg1150
L8L
sg1151
g1148
sg1153
L8L
sS'block.thisIndex'
p1311
I0
sg1155
g1179
sg1157
L0L
sg1159
g1209
sa(dp1312
S'block.thisTrialN'
p1313
I0
sS'block.thisRepN'
p1314
I0
sg29
NsS'block.thisN'
p1315
I0
sVRule
p1316
(S'HALF'
S'TRIPLE'
S'INCREASE'
S'SUBTRACT'
S'x'
S'y'
tp1317
sg27
g28
sVLength
p1318
L4L
sVIntermediate
p1319
(I1
I2
I6
I3
tp1320
sg22
I1
sg20
F1.036709769279696
sg23
F2.0217166338115931
sVY
L2L
sVX
L3L
sVOperatorc
p1321
Vincrease
p1322
sg31
g32
sg33
g34
sg21
S'3'
sg19
S'space'
p1323
sg30
g11
sVResult
p1324
L3L
sVOperatora
p1325
Vtriple
p1326
sVCorrectResponse
p1327
L3L
sS'block.thisIndex'
p1328
I17
sVOperatorb
p1329
Vhalf
p1330
sVOperatord
p1331
VSUBTRACT
p1332
sVStructure
p1333
VUUUBxy
p1334
sa(dp1335
S'block.thisTrialN'
p1336
I1
sS'block.thisRepN'
p1337
I0
sg29
NsS'block.thisN'
p1338
I1
sg1316
(S'SUBTRACT'
S'TRIPLE'
S'DECREASE'
S'x'
S'y'
tp1339
sg27
g28
sg1318
L3L
sg1319
(I4
I12
I3
tp1340
sg22
I1
sg20
F4.1447728929342702
sg23
F3.4616280790651217
sVY
L9L
sVX
L5L
sg1321
Vdecrease
p1341
sg31
g32
sg33
g34
sg21
S'3'
sg19
S'space'
p1342
sg30
g11
sg1324
L3L
sg1325
g1326
sg1327
L3L
sS'block.thisIndex'
p1343
I4
sg1329
g1332
sg1331
L0L
sg1333
VBUUxy
p1344
sa(dp1345
S'block.thisTrialN'
p1346
I2
sS'block.thisRepN'
p1347
I0
sg29
NsS'block.thisN'
p1348
I2
sg1316
(S'THIRD'
S'DIVIDE'
S'x'
S'y'
tp1349
sg27
g28
sg1318
L2L
sg1319
(I3
I1
tp1350
sg22
I1
sg20
F2.9002149126026779
sg23
F2.0729915333213285
sVY
L2L
sVX
L6L
sg1321
L0L
sg31
g32
sg33
g34
sg21
S'1'
sg19
S'space'
p1351
sg30
g11
sg1324
L1L
sg1325
VDIVIDE
p1352
sg1327
L1L
sS'block.thisIndex'
p1353
I3
sg1329
Vthird
p1354
sg1331
L0L
sg1333
VUBxy
p1355
sa(dp1356
S'block.thisTrialN'
p1357
I3
sS'block.thisRepN'
p1358
I0
sg29
NsS'block.thisN'
p1359
I3
sg1316
(S'TIMES'
S'DOUBLE'
S'x'
S'y'
tp1360
sg27
g28
sg1318
L2L
sg1319
(I4
I8
tp1361
sg22
I1
sg20
F3.3313611724879593
sg23
F1.7477645208127797
sVY
L2L
sVX
L2L
sg1321
L0L
sg31
g32
sg33
g34
sg21
S'8'
sg19
S'space'
p1362
sg30
g11
sg1324
L8L
sg1325
Vdouble
p1363
sg1327
L8L
sS'block.thisIndex'
p1364
I1
sg1329
VTIMES
p1365
sg1331
L0L
sg1333
VBUxy
p1366
sa(dp1367
S'block.thisTrialN'
p1368
I4
sS'block.thisRepN'
p1369
I0
sg29
NsS'block.thisN'
p1370
I4
sg1316
(S'DOUBLE'
S'DIVIDE'
S'TRIPLE'
S'INCREASE'
S'x'
S'y'
tp1371
sg27
g28
sg1318
L4L
sg1319
(I5
I15
I3
I6
tp1372
sg22
I0
sg20
F0.99623124324716628
sg23
F0.7430750101339072
sVY
L5L
sVX
L4L
sg1321
g1326
sg31
g32
sg33
g34
sg21
S'5'
sg19
S'space'
p1373
sg30
g11
sg1324
L6L
sg1325
g1352
sg1327
L6L
sS'block.thisIndex'
p1374
I12
sg1329
g1363
sg1331
g1322
sg1333
VUBUUxy
p1375
sa(dp1376
S'block.thisTrialN'
p1377
I5
sS'block.thisRepN'
p1378
I0
sg29
NsS'block.thisN'
p1379
I5
sg1316
(S'DECREASE'
S'TRIPLE'
S'HALF'
S'SUBTRACT'
S'x'
S'y'
tp1380
sg27
g28
sg1318
L4L
sg1319
(I4
I2
I6
I5
tp1381
sg22
I0
sg20
F0.67879371787421405
sg23
F0.34070274769328535
sVY
L2L
sVX
L6L
sg1321
g1330
sg31
g32
sg33
g34
sg21
S'7'
sg19
S'space'
p1382
sg30
g11
sg1324
L5L
sg1325
g1326
sg1327
L5L
sS'block.thisIndex'
p1383
I16
sg1329
g1341
sg1331
g1332
sg1333
g1334
sa(dp1384
S'block.thisTrialN'
p1385
I6
sS'block.thisRepN'
p1386
I0
sg29
NsS'block.thisN'
p1387
I6
sg1316
(S'DECREASE'
S'TRIPLE'
S'DIVIDE'
S'DOUBLE'
S'x'
S'y'
tp1388
sg27
g28
sg1318
L4L
sg1319
(I6
I2
I6
I5
tp1389
sg22
I0
sg20
F0.64607668190728873
sg23
F0.48425531794782728
sVY
L3L
sVX
L3L
sg1321
g1352
sg31
g32
sg33
g34
sg21
S'3'
sg19
S'space'
p1390
sg30
g11
sg1324
L5L
sg1325
g1326
sg1327
L5L
sS'block.thisIndex'
p1391
I14
sg1329
g1341
sg1331
g1363
sg1333
VUUBUxy
p1392
sa(dp1393
S'block.thisTrialN'
p1394
I7
sS'block.thisRepN'
p1395
I0
sg29
NsS'block.thisN'
p1396
I7
sg1316
(S'TIMES'
S'HALF'
S'INCREASE'
S'x'
S'y'
tp1397
sg27
g28
sg1318
L3L
sg1319
(I6
I3
I9
tp1398
sg22
I1
sg20
F4.9997329778270796
sg23
F3.8323520941194147
sVY
L3L
sVX
L5L
sg1321
g1322
sg31
g32
sg33
g34
sg21
S'9'
sg19
S'space'
p1399
sg30
g11
sg1324
L9L
sg1325
g1330
sg1327
L9L
sS'block.thisIndex'
p1400
I5
sg1329
g1365
sg1331
L0L
sg1333
g1344
sa(dp1401
S'block.thisTrialN'
p1402
I8
sS'block.thisRepN'
p1403
I0
sg29
NsS'block.thisN'
p1404
I8
sg1316
(S'DOUBLE'
S'THIRD'
S'TIMES'
S'x'
S'y'
tp1405
sg27
g28
sg1318
L3L
sg1319
(I12
I4
I8
tp1406
sg22
I1
sg20
F6.8493410712108016
sg23
F4.3596294727176428
sVY
L6L
sVX
L2L
sg1321
g1365
sg31
g32
sg33
g34
sg21
S'8'
sg19
S'space'
p1407
sg30
g11
sg1324
L8L
sg1325
g1354
sg1327
L8L
sS'block.thisIndex'
p1408
I9
sg1329
g1363
sg1331
L0L
sg1333
VUUBxy
p1409
sa(dp1410
S'block.thisTrialN'
p1411
I9
sS'block.thisRepN'
p1412
I0
sg29
NsS'block.thisN'
p1413
I9
sg1316
(S'THIRD'
S'DECREASE'
S'TIMES'
S'HALF'
S'x'
S'y'
tp1414
sg27
g28
sg1318
L4L
sg1319
(I4
I16
I15
I5
tp1415
sg22
I0
sg20
F0.70819275011308491
sg23
F0.055567901465110481
sVY
L4L
sVX
L8L
sg1321
g1365
sg31
g32
sg33
g34
sg21
S'3'
sg19
S'space'
p1416
sg30
g11
sg1324
L5L
sg1325
g1341
sg1327
L5L
sS'block.thisIndex'
p1417
I15
sg1329
g1354
sg1331
g1330
sg1333
g1392
sa(dp1418
S'block.thisTrialN'
p1419
I10
sS'block.thisRepN'
p1420
I0
sg29
NsS'block.thisN'
p1421
I10
sg1316
(S'THIRD'
S'TIMES'
S'HALF'
S'x'
S'y'
tp1422
sg27
g28
sg1318
L3L
sg1319
(I3
I18
I6
tp1423
sg22
I1
sg20
F4.2922587028006092
sg23
F4.5526542804436758
sVY
L6L
sVX
L6L
sg1321
g1330
sg31
g32
sg33
g34
sg21
S'6'
sg19
S'space'
p1424
sg30
g11
sg1324
L6L
sg1325
g1365
sg1327
L6L
sS'block.thisIndex'
p1425
I7
sg1329
g1354
sg1331
L0L
sg1333
VUBUxy
p1426
sa(dp1427
S'block.thisTrialN'
p1428
I11
sS'block.thisRepN'
p1429
I0
sg29
NsS'block.thisN'
p1430
I11
sg1316
(S'DIVIDE'
S'THIRD'
S'x'
S'y'
tp1431
sg27
g28
sg1318
L2L
sg1319
(I3
I1
tp1432
sg22
I1
sg20
F3.0109178107231855
sg23
F1.8783988890936598
sVY
L3L
sVX
L9L
sg1321
L0L
sg31
g32
sg33
g34
sg21
S'1'
sg19
S'space'
p1433
sg30
g11
sg1324
L1L
sg1325
g1354
sg1327
L1L
sS'block.thisIndex'
p1434
I0
sg1329
g1352
sg1331
L0L
sg1333
g1366
sa(dp1435
S'block.thisTrialN'
p1436
I12
sS'block.thisRepN'
p1437
I0
sg29
NsS'block.thisN'
p1438
I12
sg1316
(S'SUBTRACT'
S'DOUBLE'
S'TRIPLE'
S'DECREASE'
S'x'
S'y'
tp1439
sg27
g28
sg1318
L4L
sg1319
(I2
I6
I12
I8
tp1440
sg22
I0
sg20
F0.97034724417608231
sg23
F0.11362474330235273
sVY
L4L
sVX
L3L
sg1321
g1326
sg31
g32
sg33
g34
sg21
S'3'
sg19
S'space'
p1441
sg30
g11
sg1324
L8L
sg1325
g1363
sg1327
L8L
sS'block.thisIndex'
p1442
I10
sg1329
g1332
sg1331
g1341
sg1333
VBUUUxy
p1443
sa(dp1444
S'block.thisTrialN'
p1445
I13
sS'block.thisRepN'
p1446
I0
sg29
NsS'block.thisN'
p1447
I13
sg1316
(S'INCREASE'
S'ADD'
S'HALF'
S'TRIPLE'
S'x'
S'y'
tp1448
sg27
g28
sg1318
L4L
sg1319
(I6
I3
I6
I7
tp1449
sg22
I0
sg20
F0.64599514042492956
sg23
F0.32473531388677657
sVY
L3L
sVX
L2L
sg1321
g1330
sg31
g32
sg33
g34
sg21
S'8'
sg19
S'space'
p1450
sg30
g11
sg1324
L7L
sg1325
VADD
p1451
sg1327
L7L
sS'block.thisIndex'
p1452
I13
sg1329
g1322
sg1331
g1326
sg1333
g1375
sa(dp1453
S'block.thisTrialN'
p1454
I14
sS'block.thisRepN'
p1455
I0
sg29
NsS'block.thisN'
p1456
I14
sg1316
(S'INCREASE'
S'SUBTRACT'
S'x'
S'y'
tp1457
sg27
g28
sg1318
L2L
sg1319
(I3
I4
tp1458
sg22
I1
sg20
F9.5746652337256819
sg23
F3.1895902663236484
sVY
L3L
sVX
L6L
sg1321
L0L
sg31
g32
sg33
g34
sg21
S'4'
sg19
S'space'
p1459
sg30
g11
sg1324
L4L
sg1325
g1332
sg1327
L4L
sS'block.thisIndex'
p1460
I2
sg1329
g1322
sg1331
L0L
sg1333
g1355
sa(dp1461
S'block.thisTrialN'
p1462
I15
sS'block.thisRepN'
p1463
I0
sg29
NsS'block.thisN'
p1464
I15
sg1316
(S'THIRD'
S'DIVIDE'
S'DECREASE'
S'x'
S'y'
tp1465
sg27
g28
sg1318
L3L
sg1319
(I6
I3
I1
tp1466
sg22
I1
sg20
F8.3570775389671326
sg23
F4.6119587420253083
sVY
L2L
sVX
L7L
sg1321
g1341
sg31
g32
sg33
g34
sg21
S'1'
sg19
S'space'
p1467
sg30
g11
sg1324
L1L
sg1325
g1352
sg1327
L1L
sS'block.thisIndex'
p1468
I6
sg1329
g1354
sg1331
L0L
sg1333
g1426
sa(dp1469
S'block.thisTrialN'
p1470
I16
sS'block.thisRepN'
p1471
I0
sg29
NsS'block.thisN'
p1472
I16
sg1316
(S'DOUBLE'
S'DECREASE'
S'ADD'
S'x'
S'y'
tp1473
sg27
g28
sg1318
L3L
sg1319
(I4
I3
I6
tp1474
sg22
I1
sg20
F3.6839889257680625
sg23
F2.9980594525113702
sVY
L2L
sVX
L2L
sg1321
g1451
sg31
g32
sg33
g34
sg21
S'6'
sg19
S'space'
p1475
sg30
g11
sg1324
L6L
sg1325
g1341
sg1327
L6L
sS'block.thisIndex'
p1476
I8
sg1329
g1363
sg1331
L0L
sg1333
g1409
sa(dp1477
S'block.thisTrialN'
p1478
I17
sS'block.thisRepN'
p1479
I0
sg29
NsS'block.thisN'
p1480
I17
sg1316
(S'SUBTRACT'
S'TRIPLE'
S'DECREASE'
S'DOUBLE'
S'x'
S'y'
tp1481
sg27
g28
sg1318
L4L
sg1319
(I4
I3
I9
I1
tp1482
sg22
I0
sg20
F0.59859223698731512
sg23
F0.26246736152097583
sVY
L8L
sVX
L2L
sg1321
g1341
sg31
g32
sg33
g34
sg21
S'6'
sg19
S'space'
p1483
sg30
g11
sg1324
L1L
sg1325
g1326
sg1327
L1L
sS'block.thisIndex'
p1484
I11
sg1329
g1332
sg1331
g1363
sg1333
g1443
sasS'loops'
p1485
(lp1486
g1
(cpsychopy.data
TrialHandler
p1487
g3
NtRp1488
(dp1489
S'origin'
p1490
NsS'thisTrial'
p1491
(lp1492
sS'_exp'
p1493
I330539984
sg10
S'practice_trials'
p1494
sg6
S'C:\\Users\\experimenter\\Desktop\\Experiments\\KRITL\\2. kritl_experimenter.py'
p1495
sS'thisRepN'
p1496
I1
sg24
I01
sg25
g26
sS'data'
p1497
g1
(cpsychopy.data
DataHandler
p1498
c__builtin__
dict
p1499
(dp1500
g18
cnumpy.core.multiarray
_reconstruct
p1501
(cnumpy
ndarray
p1502
(I0
tS'b'
tRp1503
(I1
(I6
I1
tcnumpy
dtype
p1504
(S'O4'
I0
I1
tRp1505
(I3
S'|'
NNNI-1
I-1
I63
tbI00
(lp1506
(lp1507
F5.2148254329804331
aa(lp1508
F17.547880428726785
aa(lp1509
F9.8993246055906639
aaS'--'
p1510
aS'--'
p1511
aS'--'
p1512
atbsg15
g1501
(g1502
(I0
tS'b'
tRp1513
(I1
(I6
I1
tg1505
I00
(lp1514
S'7'
aS'8'
aS'7'
aS'8'
aS'6'
aNatbsS'ran'
p1515
cnumpy.ma.core
_mareconstruct
p1516
(cnumpy.ma.core
MaskedArray
p1517
g1502
(I0
tp1518
S'b'
tRp1519
(I1
(I6
I1
tg1504
(S'f4'
I0
I1
tRp1520
(I3
S'<'
NNNI-1
I-1
I0
tbI00
S'\x00\x00\x80?\x00\x00\x80?\x00\x00\x80?\x00\x00\x80?\x00\x00\x80?\x00\x00\x80?'
S'\x00\x00\x00\x00\x00\x00'
Ntbsg17
g1516
(g1517
g1502
g1518
S'b'
tRp1521
(I1
(I6
I1
tg1520
I00
S'\xcf\xac3@\xc1Y\xee?\x06c\x03@7\xd2\xa7@\x90w\x8dA\x00\x00\x00\x00'
S'\x00\x00\x00\x00\x00\x01'
Ntbsg14
g1501
(g1502
(I0
tS'b'
tRp1522
(I1
(I6
I1
tg1505
I00
(lp1523
(lp1524
g101
aa(lp1525
g93
aa(lp1526
g83
aaNaNaNatbsS'order'
p1527
g1516
(g1517
g1502
g1518
S'b'
tRp1528
(I1
(I6
I1
tg1520
I00
S'\x00\x00\x80@\x00\x00@@\x00\x00\x00@\x00\x00\x80?\x00\x00\x00\x00\x00\x00\xa0@'
S'\x00\x00\x00\x00\x00\x00'
Ntbsg16
g1516
(g1517
g1502
g1518
S'b'
tRp1529
(I1
(I6
I1
tg1520
I00
S'\x00\x00\x80?\x00\x00\x80?\x00\x00\x80?\x00\x00\x80?\x00\x00\x00\x00\x00\x00\x00\x00'
S'\x00\x00\x00\x00\x00\x00'
NtbstRp1530
(dp1531
S'isNumeric'
p1532
(dp1533
g15
I00
sg1515
I01
sg17
I01
sg14
I00
sg16
I01
sg1527
I01
sg18
I00
ssS'trials'
p1534
g1488
sS'dataTypes'
p1535
(lp1536
g1515
ag1527
ag14
ag15
ag16
ag17
ag18
asS'dataShape'
p1537
(lp1538
I6
aI1
asbsS'method'
p1539
S'fullRandom'
p1540
sS'sequenceIndices'
p1541
g1501
(g1502
(I0
tS'b'
tRp1542
(I1
(I6
I1
tg1505
I00
(lp1543
I4
aI3
aI2
aI1
aI0
aI5
atbsS'finished'
p1544
I01
sS'nReps'
p1545
I1
sS'nRemaining'
p1546
I-1
sS'trialList'
p1547
(lp1548
g1
(cpsychopy.data
TrialType
p1549
g1499
(dp1550
g43
L0L
sg44
g72
sg45
g88
sg46
L7L
sg49
L2L
sg48
L0L
sg47
L5L
sg50
L3L
stRp1551
ag1
(g1549
g1499
(dp1552
g43
L0L
sg44
g88
sg45
g89
sg46
L8L
sg49
L2L
sg48
L0L
sg47
L3L
sg50
L3L
stRp1553
ag1
(g1549
g1499
(dp1554
g43
L0L
sg44
g72
sg45
g73
sg46
L7L
sg49
L2L
sg48
L0L
sg47
L5L
sg50
L4L
stRp1555
ag1
(g1549
g1499
(dp1556
g43
g72
sg44
g75
sg45
g73
sg46
L8L
sg49
L3L
sg48
L0L
sg47
L2L
sg50
L4L
stRp1557
ag1
(g1549
g1499
(dp1558
g43
g64
sg44
g67
sg45
g65
sg46
L3L
sg49
L3L
sg48
L0L
sg47
L3L
sg50
L2L
stRp1559
ag1
(g1549
g1499
(dp1560
g43
g64
sg44
g67
sg45
g106
sg46
L9L
sg49
L4L
sg48
g65
sg47
L8L
sg50
L8L
stRp1561
asS'seed'
p1562
NsS'thisIndex'
p1563
I5
sS'thisN'
p1564
I6
sS'thisTrialN'
p1565
I0
sS'nTotal'
p1566
I6
sbag1
(g1487
g3
NtRp1567
(dp1568
g1490
Nsg1491
(lp1569
sg1493
I330539984
sg10
S'block'
p1570
sg6
g1495
sg1496
I1
sg24
I01
sg25
g26
sg1497
g1
(g1498
g1499
(dp1571
g22
g1516
(g1517
g1502
g1518
S'b'
tRp1572
(I1
(I18
I1
tg1520
I00
S'\x00\x00\x80?\x00\x00\x80?\x00\x00\x80?\x00\x00\x80?\x00\x00\x80?\x00\x00\x00\x00\x00\x00\x80?\x00\x00\x80?\x00\x00\x80?\x00\x00\x80?\x00\x00\x80?\x00\x00\x00\x00\x00\x00\x80?\x00\x00\x00\x00\x00\x00\x00\x00\x00\x00\x80?\x00\x00\x80?\x00\x00\x00\x00'
S'\x00\x00\x00\x00\x00\x00\x00\x00\x00\x00\x00\x00\x00\x00\x00\x00\x00\x00'
Ntbsg19
g1501
(g1502
(I0
tS'b'
tRp1573
(I1
(I18
I1
tg1505
I00
(lp1574
g141
ag270
ag151
ag238
ag180
ag118
ag196
ag222
ag213
ag254
ag171
ag188
ag246
ag162
aNag230
ag262
ag130
atbsg23
g1516
(g1517
g1502
g1518
S'b'
tRp1575
(I1
(I18
I1
tg1520
I00
S'6\xac5@m:\xd2?Q\xb8\xc9?\x0c\xd0\xd3?BQ\x85@jJM@\xdb/S@\x8c\xe4\xb4@\x9ax.@\x04m\xfe?:\xd8\x9a@g\xdekA\xf7L\xb2@\xebDfA\x00\x00\x00\x00\x83p\x8b@\xa8\xa5\xa2@\x97*\xbd@'
S'\x00\x00\x00\x00\x00\x00\x00\x00\x00\x00\x00\x00\x00\x00\x01\x00\x00\x00'
Ntbsg1515
g1516
(g1517
g1502
g1518
S'b'
tRp1576
(I1
(I18
I1
tg1520
I00
S'\x00\x00\x80?\x00\x00\x80?\x00\x00\x80?\x00\x00\x80?\x00\x00\x80?\x00\x00\x80?\x00\x00\x80?\x00\x00\x80?\x00\x00\x80?\x00\x00\x80?\x00\x00\x80?\x00\x00\x80?\x00\x00\x80?\x00\x00\x80?\x00\x00\x80?\x00\x00\x80?\x00\x00\x80?\x00\x00\x80?'
S'\x00\x00\x00\x00\x00\x00\x00\x00\x00\x00\x00\x00\x00\x00\x00\x00\x00\x00'
Ntbsg21
g1501
(g1502
(I0
tS'b'
tRp1577
(I1
(I18
I1
tg1505
I00
(lp1578
S'7'
aS'2'
aS'8'
aS'6'
aS'7'
aS'9'
aS'2'
aS'5'
aS'6'
aS'5'
aS'9'
aS'5'
aS'6'
aS'7'
aNaS'8'
aS'3'
aS'4'
atbsg1527
g1516
(g1517
g1502
g1518
S'b'
tRp1579
(I1
(I18
I1
tg1520
I00
S'\x00\x00\x00@\x00\x00\x88A\x00\x00@@\x00\x00PA\x00\x00\xc0@\x00\x00\x00\x00\x00\x00\x00A\x00\x000A\x00\x00 A\x00\x00pA\x00\x00\xa0@\x00\x00\xe0@\x00\x00`A\x00\x00\x80@\x00\x00\x10A\x00\x00@A\x00\x00\x80A\x00\x00\x80?'
S'\x00\x00\x00\x00\x00\x00\x00\x00\x00\x00\x00\x00\x00\x00\x00\x00\x00\x00'
Ntbsg20
g1516
(g1517
g1502
g1518
S'b'
tRp1580
(I1
(I18
I1
tg1520
I00
S'\xf7\xd3\x8c@A\xe5\x1bA\x8a_5@Z{]@\x94j\xce@r\xca\xfa@\x80O3A\xfb\xc1\xab@\xc70\xcd@\xfe\x07\xbc@q\xbe1A,m\xa1@\xea\xeboA\x85\xd3\nA\x00\x00\x00\x00\xea\x8a\xf9@\x8dc\xbb@Z%8A'
S'\x00\x00\x00\x00\x00\x00\x00\x00\x00\x00\x00\x00\x00\x00\x01\x00\x00\x00'
NtbstRp1581
(dp1582
g1532
(dp1583
g1515
I01
sg21
I00
sg20
I01
sg22
I01
sg19
I00
sg23
I01
sg1527
I01
ssg1534
g1567
sg1535
(lp1584
g1515
ag1527
ag19
ag20
ag21
ag22
ag23
asg1537
(lp1585
I18
aI1
asbsg1539
g1540
sg1541
g1501
(g1502
(I0
tS'b'
tRp1586
(I1
(I18
I1
tg1505
I00
(lp1587
I5
aI17
aI0
aI2
aI13
aI10
aI4
aI11
aI6
aI14
aI8
aI7
aI15
aI3
aI12
aI9
aI16
aI1
atbsg1544
I01
sg1545
I1
sg1546
I-1
sg1547
(lp1588
g1
(g1549
g1499
(dp1589
g51
g139
sVY
L5L
sg53
L2L
sg54
g140
sg55
L7L
sg56
L7L
sg52
g142
sVX
L3L
sg57
L0L
sg58
g121
sg59
L0L
sg60
g144
stRp1590
ag1
(g1549
g1499
(dp1591
g51
g268
sVY
L4L
sg53
L2L
sg54
g269
sg55
L2L
sg56
L2L
sg52
g142
sVX
L9L
sg57
L0L
sg58
g272
sg59
L0L
sg60
g144
stRp1592
ag1
(g1549
g1499
(dp1593
g51
g149
sVY
L3L
sg53
L2L
sg54
g150
sg55
L8L
sg56
L8L
sg52
g152
sVX
L3L
sg57
L0L
sg58
g142
sg59
L0L
sg60
g154
stRp1594
ag1
(g1549
g1499
(dp1595
g51
g236
sVY
L8L
sg53
L2L
sg54
g237
sg55
L6L
sg56
L6L
sg52
g121
sVX
L4L
sg57
L0L
sg58
g117
sg59
L0L
sg60
g154
stRp1596
ag1
(g1549
g1499
(dp1597
g51
g178
sVY
L5L
sg53
L3L
sg54
g179
sg55
L7L
sg56
L7L
sg52
g161
sVX
L2L
sg57
g142
sg58
g121
sg59
L0L
sg60
g122
stRp1598
ag1
(g1549
g1499
(dp1599
g51
g115
sVY
L2L
sg53
L3L
sg54
g116
sg55
L8L
sg56
L8L
sg52
g119
sVX
L4L
sg57
g117
sg58
g121
sg59
L0L
sg60
g122
stRp1600
ag1
(g1549
g1499
(dp1601
g51
g194
sVY
L3L
sg53
L3L
sg54
g195
sg55
L2L
sg56
L2L
sg52
g133
sVX
L3L
sg57
g129
sg58
g161
sg59
L0L
sg60
g198
stRp1602
ag1
(g1549
g1499
(dp1603
g51
g220
sVY
L3L
sg53
L3L
sg54
g221
sg55
L5L
sg56
L5L
sg52
g121
sVX
L2L
sg57
g117
sg58
g129
sg59
L0L
sg60
g198
stRp1604
ag1
(g1549
g1499
(dp1605
g51
g211
sVY
L4L
sg53
L3L
sg54
g212
sg55
L6L
sg56
L6L
sg52
g132
sVX
L5L
sg57
g121
sg58
g161
sg59
L0L
sg60
g215
stRp1606
ag1
(g1549
g1499
(dp1607
g51
g252
sVY
L3L
sg53
L3L
sg54
g253
sg55
L5L
sg56
L5L
sg52
g129
sVX
L3L
sg57
g152
sg58
g117
sg59
L0L
sg60
g215
stRp1608
ag1
(g1549
g1499
(dp1609
g51
g169
sVY
L4L
sg53
L4L
sg54
g170
sg55
L9L
sg56
L9L
sg52
g142
sVX
L9L
sg57
g132
sg58
g121
sg59
g161
sg60
g173
stRp1610
ag1
(g1549
g1499
(dp1611
g51
g186
sVY
L2L
sg53
L4L
sg54
g187
sg55
L8L
sg56
L8L
sg52
g119
sVX
L2L
sg57
g161
sg58
g121
sg59
g142
sg60
g173
stRp1612
ag1
(g1549
g1499
(dp1613
g51
g244
sVY
L6L
sg53
L4L
sg54
g245
sg55
L6L
sg56
L6L
sg52
g121
sVX
L6L
sg57
g132
sg58
g142
sg59
g117
sg60
g164
stRp1614
ag1
(g1549
g1499
(dp1615
g51
g159
sVY
L2L
sg53
L4L
sg54
g160
sg55
L3L
sg56
L3L
sg52
g133
sVX
L9L
sg57
g161
sg58
g142
sg59
g132
sg60
g164
stRp1616
ag1
(g1549
g1499
(dp1617
g51
g203
sVY
L3L
sg53
L4L
sg54
g204
sg55
L5L
sg56
L5L
sg52
g161
sVX
L3L
sg57
g152
sg58
g142
sg59
g132
sg60
g206
stRp1618
ag1
(g1549
g1499
(dp1619
g51
g228
sVY
L3L
sg53
L4L
sg54
g229
sg55
L8L
sg56
L8L
sg52
g119
sVX
L3L
sg57
g133
sg58
g142
sg59
g161
sg60
g206
stRp1620
ag1
(g1549
g1499
(dp1621
g51
g260
sVY
L4L
sg53
L4L
sg54
g261
sg55
L3L
sg56
L3L
sg52
g117
sVX
L3L
sg57
g132
sg58
g129
sg59
g152
sg60
g134
stRp1622
ag1
(g1549
g1499
(dp1623
g51
g127
sVY
L2L
sg53
L4L
sg54
g128
sg55
L1L
sg56
L1L
sg52
g117
sVX
L7L
sg57
g129
sg58
g132
sg59
g133
sg60
g134
stRp1624
asg1562
Nsg1563
I1
sg1564
I18
sg1565
I0
sg1566
I18
sbag1
(g1487
g3
NtRp1625
(dp1626
g1490
Nsg1491
(lp1627
sg1493
I330539984
sg10
g1570
sg6
g1495
sg1496
I1
sg24
I01
sg25
g26
sg1497
g1
(g1498
g1499
(dp1628
g22
g1516
(g1517
g1502
g1518
S'b'
tRp1629
(I1
(I18
I1
tg1520
I00
S'\x00\x00\x80?\x00\x00\x80?\x00\x00\x80?\x00\x00\x80?\x00\x00\x80?\x00\x00\x80?\x00\x00\x80?\x00\x00\x80?\x00\x00\x80?\x00\x00\x00\x00\x00\x00\x80?\x00\x00\x80?\x00\x00\x80?\x00\x00\x80?\x00\x00\x80?\x00\x00\x00\x00\x00\x00\x00\x00\x00\x00\x00\x00'
S'\x00\x00\x00\x00\x00\x00\x00\x00\x00\x00\x00\x00\x00\x00\x00\x00\x00\x00'
Ntbsg19
g1501
(g1502
(I0
tS'b'
tRp1630
(I1
(I18
I1
tg1505
I00
(lp1631
g428
ag351
ag444
ag387
ag332
ag322
ag361
ag404
ag420
ag284
ag370
ag412
ag379
ag341
ag396
ag302
ag436
ag312
atbsg23
g1516
(g1517
g1502
g1518
S'b'
tRp1632
(I1
(I18
I1
tg1520
I00
S"\\\xf7\xc8?XOT@\xe4\x1f\xb5?\xc9\xd7\xd3?\xf7\x876@]2q@*\x9c\xb8@'\xaa\xe8@\xc9\xf2\x8b@\x8aq\xb7@L\xb3\xeb@\xad\xe9\xb0@T\xa3\x03Ac\x03\xa3@#S\xd6@\x00\x00\x00\x00\xff^Z@\x12\xeeOA"
S'\x00\x00\x00\x00\x00\x00\x00\x00\x00\x00\x00\x00\x00\x00\x00\x01\x00\x00'
Ntbsg1515
g1516
(g1517
g1502
g1518
S'b'
tRp1633
(I1
(I18
I1
tg1520
I00
S'\x00\x00\x80?\x00\x00\x80?\x00\x00\x80?\x00\x00\x80?\x00\x00\x80?\x00\x00\x80?\x00\x00\x80?\x00\x00\x80?\x00\x00\x80?\x00\x00\x80?\x00\x00\x80?\x00\x00\x80?\x00\x00\x80?\x00\x00\x80?\x00\x00\x80?\x00\x00\x80?\x00\x00\x80?\x00\x00\x80?'
S'\x00\x00\x00\x00\x00\x00\x00\x00\x00\x00\x00\x00\x00\x00\x00\x00\x00\x00'
Ntbsg21
g1501
(g1502
(I0
tS'b'
tRp1634
(I1
(I18
I1
tg1505
I00
(lp1635
S'4'
aS'6'
aS'3'
aS'1'
aS'9'
aS'5'
aS'5'
aS'5'
aS'8'
aS'1'
aS'3'
aS'9'
aS'4'
aS'3'
aS'8'
aNaS'4'
aS'2'
atbsg1527
g1516
(g1517
g1502
g1518
S'b'
tRp1636
(I1
(I18
I1
tg1520
I00
S'\x00\x00pA\x00\x00\xc0@\x00\x00\x88A\x00\x00 A\x00\x00\x80@\x00\x00@@\x00\x00\xe0@\x00\x00@A\x00\x00`A\x00\x00\x00\x00\x00\x00\x00A\x00\x00PA\x00\x00\x10A\x00\x00\xa0@\x00\x000A\x00\x00\x80?\x00\x00\x80A\x00\x00\x00@'
S'\x00\x00\x00\x00\x00\x00\x00\x00\x00\x00\x00\x00\x00\x00\x00\x00\x00\x00'
Ntbsg20
g1516
(g1517
g1502
g1518
S'b'
tRp1637
(I1
(I18
I1
tg1520
I00
S'ey\xdc@\x18\xb7:@*\x0b\x1d@\x0bz5@#D\x9f@]?\x13A\xb9\x90\xfe@\xee\xa4\x0fA\xf3\x1a\xc0@\xdb\xb7\xe1@\x94x\x07AP,\x92A\xf7\x14\xbc@t\x88QA\xab\xb8%AQ:\x9dA\xc3\x95\x1eAb\xd9aA'
S'\x00\x00\x00\x00\x00\x00\x00\x00\x00\x00\x00\x00\x00\x00\x00\x00\x00\x00'
NtbstRp1638
(dp1639
g1532
(dp1640
g1515
I01
sg21
I00
sg20
I01
sg22
I01
sg19
I00
sg23
I01
sg1527
I01
ssg1534
g1625
sg1535
(lp1641
g1515
ag1527
ag19
ag20
ag21
ag22
ag23
asg1537
(lp1642
I18
aI1
asbsg1539
g1540
sg1541
g1501
(g1502
(I0
tS'b'
tRp1643
(I1
(I18
I1
tg1505
I00
(lp1644
I9
aI15
aI17
aI5
aI4
aI13
aI1
aI6
aI10
aI12
aI3
aI14
aI7
aI11
aI8
aI0
aI16
aI2
atbsg1544
I01
sg1545
I1
sg1546
I-1
sg1547
(lp1645
g1
(g1549
g1499
(dp1646
g277
g426
sVY
L2L
sg279
L2L
sg280
g427
sg288
L4L
sg285
L4L
sg286
g304
sVX
L3L
sg282
L0L
sg290
g314
sg292
L0L
sg293
g354
stRp1647
ag1
(g1549
g1499
(dp1648
g277
g349
sVY
L2L
sg279
L2L
sg280
g350
sg288
L6L
sg285
L6L
sg286
g352
sVX
L2L
sg282
L0L
sg290
g314
sg292
L0L
sg293
g354
stRp1649
ag1
(g1549
g1499
(dp1650
g277
g442
sVY
L5L
sg279
L2L
sg280
g443
sg288
L3L
sg285
L3L
sg286
g301
sVX
L4L
sg282
L0L
sg290
g323
sg292
L0L
sg293
g389
stRp1651
ag1
(g1549
g1499
(dp1652
g277
g385
sVY
L2L
sg279
L2L
sg280
g386
sg288
L1L
sg285
L1L
sg286
g342
sVX
L5L
sg282
L0L
sg290
g323
sg292
L0L
sg293
g389
stRp1653
ag1
(g1549
g1499
(dp1654
g277
g330
sVY
L3L
sg279
L3L
sg280
g331
sg288
L9L
sg285
L9L
sg286
g304
sVX
L8L
sg282
g287
sg290
g314
sg292
L0L
sg293
g325
stRp1655
ag1
(g1549
g1499
(dp1656
g277
g320
sVY
L5L
sg279
L3L
sg280
g321
sg288
L5L
sg285
L5L
sg286
g323
sVX
L6L
sg282
g287
sg290
g314
sg292
L0L
sg293
g325
stRp1657
ag1
(g1549
g1499
(dp1658
g277
g359
sVY
L7L
sg279
L3L
sg280
g360
sg288
L5L
sg285
L5L
sg286
g301
sVX
L7L
sg282
g352
sg290
g323
sg292
L0L
sg293
g363
stRp1659
ag1
(g1549
g1499
(dp1660
g277
g402
sVY
L5L
sg279
L3L
sg280
g403
sg288
L5L
sg285
L5L
sg286
g314
sVX
L4L
sg282
g304
sg290
g323
sg292
L0L
sg293
g363
stRp1661
ag1
(g1549
g1499
(dp1662
g277
g418
sVY
L5L
sg279
L3L
sg280
g419
sg288
L8L
sg285
L8L
sg286
g304
sVX
L5L
sg282
g314
sg290
g323
sg292
L0L
sg293
g294
stRp1663
ag1
(g1549
g1499
(dp1664
g277
g278
sVY
L2L
sg279
L3L
sg280
g281
sg288
L3L
sg285
L3L
sg286
g287
sVX
L4L
sg282
g283
sg290
g291
sg292
L0L
sg293
g294
stRp1665
ag1
(g1549
g1499
(dp1666
g277
g368
sVY
L5L
sg279
L4L
sg280
g369
sg288
L3L
sg285
L3L
sg286
g287
sVX
L5L
sg282
g352
sg290
g342
sg292
g291
sg293
g372
stRp1667
ag1
(g1549
g1499
(dp1668
g277
g410
sVY
L3L
sg279
L4L
sg280
g411
sg288
L9L
sg285
L9L
sg286
g352
sVX
L3L
sg282
g323
sg290
g314
sg292
g340
sg293
g372
stRp1669
ag1
(g1549
g1499
(dp1670
g277
g377
sVY
L6L
sg279
L4L
sg280
g378
sg288
L4L
sg285
L4L
sg286
g283
sVX
L3L
sg282
g291
sg290
g352
sg292
g340
sg293
g344
stRp1671
ag1
(g1549
g1499
(dp1672
g277
g338
sVY
L3L
sg279
L4L
sg280
g339
sg288
L3L
sg285
L3L
sg286
g342
sVX
L3L
sg282
g340
sg290
g291
sg292
g304
sg293
g344
stRp1673
ag1
(g1549
g1499
(dp1674
g277
g394
sVY
L2L
sg279
L4L
sg280
g395
sg288
L8L
sg285
L8L
sg286
g340
sVX
L9L
sg282
g301
sg290
g323
sg292
g352
sg293
g305
stRp1675
ag1
(g1549
g1499
(dp1676
g277
g299
sVY
L3L
sg279
L4L
sg280
g300
sg288
L6L
sg285
L6L
sg286
g287
sVX
L2L
sg282
g301
sg290
g291
sg292
g304
sg293
g305
stRp1677
ag1
(g1549
g1499
(dp1678
g277
g434
sVY
L2L
sg279
L4L
sg280
g435
sg288
L1L
sg285
L1L
sg286
g352
sVX
L8L
sg282
g287
sg290
g323
sg292
g283
sg293
g315
stRp1679
ag1
(g1549
g1499
(dp1680
g277
g310
sVY
L2L
sg279
L4L
sg280
g311
sg288
L6L
sg285
L6L
sg286
g304
sVX
L3L
sg282
g287
sg290
g291
sg292
g314
sg293
g315
stRp1681
asg1562
Nsg1563
I2
sg1564
I18
sg1565
I0
sg1566
I18
sbag1
(g1487
g3
NtRp1682
(dp1683
g1490
Nsg1491
(lp1684
sg1493
I330539984
sg10
g1570
sg6
g1495
sg1496
I1
sg24
I01
sg25
g26
sg1497
g1
(g1498
g1499
(dp1685
g22
g1516
(g1517
g1502
g1518
S'b'
tRp1686
(I1
(I18
I1
tg1520
I00
S'\x00\x00\x00\x00\x00\x00\x80?\x00\x00\x80?\x00\x00\x80?\x00\x00\x80?\x00\x00\x00\x00\x00\x00\x00\x00\x00\x00\x80?\x00\x00\x80?\x00\x00\x80?\x00\x00\x80?\x00\x00\x80?\x00\x00\x80?\x00\x00\x80?\x00\x00\x00\x00\x00\x00\x00\x00\x00\x00\x00\x00\x00\x00\x00\x00'
S'\x00\x00\x00\x00\x00\x00\x00\x00\x00\x00\x00\x00\x00\x00\x00\x00\x00\x00'
Ntbsg19
g1501
(g1502
(I0
tS'b'
tRp1687
(I1
(I18
I1
tg1505
I00
(lp1688
g568
ag601
ag609
ag456
ag515
ag485
ag593
ag495
ag506
ag560
ag552
ag543
ag523
ag617
ag533
ag585
ag473
ag577
atbsg23
g1516
(g1517
g1502
g1518
S'b'
tRp1689
(I1
(I18
I1
tg1520
I00
S'\xee\xd7\x13@\xc6\x02\xd2?7\xbb\x0c@\x85\xec\xd7?q\x1fs@\xa8\xca\xdd@\x7fS\x9a@\x8a\xfb\x90@\t\xdf\xbf@\x1b\r\xa7@\x05\xfc\xa4@\x9e&\x90@!q\x90@\xf1\x9c\xd4@\x0c \rARY\xc6@\x90g.AWo\xca@'
S'\x00\x00\x00\x00\x00\x00\x00\x00\x00\x00\x00\x00\x00\x00\x00\x00\x00\x00'
Ntbsg1515
g1516
(g1517
g1502
g1518
S'b'
tRp1690
(I1
(I18
I1
tg1520
I00
S'\x00\x00\x80?\x00\x00\x80?\x00\x00\x80?\x00\x00\x80?\x00\x00\x80?\x00\x00\x80?\x00\x00\x80?\x00\x00\x80?\x00\x00\x80?\x00\x00\x80?\x00\x00\x80?\x00\x00\x80?\x00\x00\x80?\x00\x00\x80?\x00\x00\x80?\x00\x00\x80?\x00\x00\x80?\x00\x00\x80?'
S'\x00\x00\x00\x00\x00\x00\x00\x00\x00\x00\x00\x00\x00\x00\x00\x00\x00\x00'
Ntbsg21
g1501
(g1502
(I0
tS'b'
tRp1691
(I1
(I18
I1
tg1505
I00
(lp1692
S'5'
aS'4'
aS'9'
aS'6'
aS'6'
aS'9'
aS'3'
aS'2'
aS'1'
aS'9'
aS'1'
aS'2'
aS'1'
aS'3'
aS'3'
aS'2'
aS'6'
aS'1'
atbsg1527
g1516
(g1517
g1502
g1518
S'b'
tRp1693
(I1
(I18
I1
tg1520
I00
S'\x00\x000A\x00\x00pA\x00\x00\x80A\x00\x00\x00\x00\x00\x00\xa0@\x00\x00\x00@\x00\x00`A\x00\x00@@\x00\x00\x80@\x00\x00 A\x00\x00\x10A\x00\x00\x00A\x00\x00\xc0@\x00\x00\x88A\x00\x00\xe0@\x00\x00PA\x00\x00\x80?\x00\x00@A'
S'\x00\x00\x00\x00\x00\x00\x00\x00\x00\x00\x00\x00\x00\x00\x00\x00\x00\x00'
Ntbsg20
g1516
(g1517
g1502
g1518
S'b'
tRp1694
(I1
(I18
I1
tg1520
I00
S'\x16\x81\x88@}\xc3D@0\xeeB@\xe1\xf1\xcd@\xb3`\xcf@\xc2\xde\xcf@H\xe7\x8fARB\x83@d\x81h@\x91yfA\x1a\x0c\x93@^\x06HA\rL\tA(\xa2vA\x8c\xcb\xef@U\x89)A\xb0%\xd0@\xd0O\xb3@'
S'\x00\x00\x00\x00\x00\x00\x00\x00\x00\x00\x00\x00\x00\x00\x00\x00\x00\x00'
NtbstRp1695
(dp1696
g1532
(dp1697
g1515
I01
sg21
I00
sg20
I01
sg22
I01
sg19
I00
sg23
I01
sg1527
I01
ssg1534
g1682
sg1535
(lp1698
g1515
ag1527
ag19
ag20
ag21
ag22
ag23
asg1537
(lp1699
I18
aI1
asbsg1539
g1540
sg1541
g1501
(g1502
(I0
tS'b'
tRp1700
(I1
(I18
I1
tg1505
I00
(lp1701
I3
aI16
aI5
aI7
aI8
aI4
aI12
aI14
aI11
aI10
aI9
aI0
aI17
aI15
aI6
aI1
aI2
aI13
atbsg1544
I01
sg1545
I1
sg1546
I-1
sg1547
(lp1702
g1
(g1549
g1499
(dp1703
g450
g566
sVY
L2L
sg452
L2L
sg453
g567
sg460
L1L
sg457
L1L
sg458
g542
sVX
L9L
sg455
L0L
sg462
g459
sg464
L0L
sg465
g570
stRp1704
ag1
(g1549
g1499
(dp1705
g450
g599
sVY
L4L
sg452
L2L
sg453
g600
sg460
L4L
sg457
L4L
sg458
g542
sVX
L3L
sg455
L0L
sg462
g532
sg464
L0L
sg465
g570
stRp1706
ag1
(g1549
g1499
(dp1707
g450
g607
sVY
L4L
sg452
L2L
sg453
g608
sg460
L9L
sg457
L9L
sg458
g532
sVX
L2L
sg455
L0L
sg462
g498
sg464
L0L
sg465
g466
stRp1708
ag1
(g1549
g1499
(dp1709
g450
g451
sVY
L6L
sg452
L2L
sg453
g454
sg460
L6L
sg457
L6L
sg458
g459
sVX
L8L
sg455
L0L
sg462
g463
sg464
L0L
sg465
g466
stRp1710
ag1
(g1549
g1499
(dp1711
g450
g513
sVY
L4L
sg452
L3L
sg453
g514
sg460
L6L
sg457
L6L
sg458
g476
sVX
L6L
sg455
g474
sg462
g477
sg464
L0L
sg465
g488
stRp1712
ag1
(g1549
g1499
(dp1713
g450
g483
sVY
L9L
sg452
L3L
sg453
g484
sg460
L7L
sg457
L7L
sg458
g486
sVX
L9L
sg455
g476
sg462
g459
sg464
L0L
sg465
g488
stRp1714
ag1
(g1549
g1499
(dp1715
g450
g591
sVY
L4L
sg452
L3L
sg453
g592
sg460
L8L
sg457
L8L
sg458
g532
sVX
L3L
sg455
g542
sg462
g486
sg464
L0L
sg465
g499
stRp1716
ag1
(g1549
g1499
(dp1717
g450
g493
sVY
L2L
sg452
L3L
sg453
g494
sg460
L2L
sg457
L2L
sg458
g496
sVX
L4L
sg455
g474
sg462
g498
sg464
L0L
sg465
g499
stRp1718
ag1
(g1549
g1499
(dp1719
g450
g504
sVY
L2L
sg452
L3L
sg453
g505
sg460
L1L
sg457
L1L
sg458
g474
sVX
L8L
sg455
g496
sg462
g476
sg464
L0L
sg465
g508
stRp1720
ag1
(g1549
g1499
(dp1721
g450
g558
sVY
L3L
sg452
L3L
sg453
g559
sg460
L9L
sg457
L9L
sg458
g474
sVX
L2L
sg455
g532
sg462
g463
sg464
L0L
sg465
g508
stRp1722
ag1
(g1549
g1499
(dp1723
g450
g550
sVY
L3L
sg452
L4L
sg453
g551
sg460
L1L
sg457
L1L
sg458
g476
sVX
L6L
sg455
g542
sg462
g496
sg464
g486
sg465
g545
stRp1724
ag1
(g1549
g1499
(dp1725
g450
g540
sVY
L2L
sg452
L4L
sg453
g541
sg460
L2L
sg457
L2L
sg458
g476
sVX
L3L
sg455
g542
sg462
g532
sg464
g486
sg465
g545
stRp1726
ag1
(g1549
g1499
(dp1727
g450
g521
sVY
L9L
sg452
L4L
sg453
g522
sg460
L1L
sg457
L1L
sg458
g496
sVX
L3L
sg455
g463
sg462
g476
sg464
g486
sg465
g525
stRp1728
ag1
(g1549
g1499
(dp1729
g450
g615
sVY
L3L
sg452
L4L
sg453
g616
sg460
L3L
sg457
L3L
sg458
g459
sVX
L6L
sg455
g498
sg462
g463
sg464
g474
sg465
g525
stRp1730
ag1
(g1549
g1499
(dp1731
g450
g530
sVY
L2L
sg452
L4L
sg453
g531
sg460
L7L
sg457
L7L
sg458
g474
sVX
L2L
sg455
g532
sg462
g498
sg464
g463
sg465
g535
stRp1732
ag1
(g1549
g1499
(dp1733
g450
g583
sVY
L2L
sg452
L4L
sg453
g584
sg460
L1L
sg457
L1L
sg458
g498
sVX
L8L
sg455
g459
sg462
g542
sg464
g474
sg465
g535
stRp1734
ag1
(g1549
g1499
(dp1735
g450
g471
sVY
L2L
sg452
L4L
sg453
g472
sg460
L5L
sg457
L5L
sg458
g474
sVX
L2L
sg455
g463
sg462
g476
sg464
g477
sg465
g478
stRp1736
ag1
(g1549
g1499
(dp1737
g450
g575
sVY
L2L
sg452
L4L
sg453
g576
sg460
L7L
sg457
L7L
sg458
g463
sVX
L2L
sg455
g474
sg462
g498
sg464
g477
sg465
g478
stRp1738
asg1562
Nsg1563
I13
sg1564
I18
sg1565
I0
sg1566
I18
sbag1
(g1487
g3
NtRp1739
(dp1740
g1490
Nsg1491
(lp1741
sg1493
I330539984
sg10
g1570
sg6
g1495
sg1496
I1
sg24
I01
sg25
g26
sg1497
g1
(g1498
g1499
(dp1742
g22
g1516
(g1517
g1502
g1518
S'b'
tRp1743
(I1
(I18
I1
tg1520
I00
S'\x00\x00\x80?\x00\x00\x80?\x00\x00\x80?\x00\x00\x80?\x00\x00\x80?\x00\x00\x80?\x00\x00\x80?\x00\x00\x80?\x00\x00\x80?\x00\x00\x80?\x00\x00\x00\x00\x00\x00\x00\x00\x00\x00\x00\x00\x00\x00\x00\x00\x00\x00\x00\x00\x00\x00\x00\x00\x00\x00\x00\x00\x00\x00\x00\x00'
S'\x00\x00\x00\x00\x00\x00\x00\x00\x00\x00\x00\x00\x00\x00\x00\x00\x00\x00'
Ntbsg19
g1501
(g1502
(I0
tS'b'
tRp1744
(I1
(I18
I1
tg1505
I00
(lp1745
g741
ag668
ag629
ag659
ag678
ag724
ag790
ag757
ag782
ag707
ag749
ag698
ag766
ag732
ag716
ag688
ag774
ag647
atbsg23
g1516
(g1517
g1502
g1518
S'b'
tRp1746
(I1
(I18
I1
tg1520
I00
S"\xf4\x1b\xd9?\xa2(T@A\xe9\xa0@\x8a\x91\x01@\x07\xa4\xa7@\xa1s\x8d@d= @\xbc\xfbp@\xad\x8f\n@\x1e\xb5\x04@}{\x86>\x03\x03{?8\xc2\x86>'\x02\xd6>\xb2\xb7\xc5?%/!?\xcaq\x9f>\x00\x00\x00\x00"
S'\x00\x00\x00\x00\x00\x00\x00\x00\x00\x00\x00\x00\x00\x00\x00\x00\x00\x01'
Ntbsg1515
g1516
(g1517
g1502
g1518
S'b'
tRp1747
(I1
(I18
I1
tg1520
I00
S'\x00\x00\x80?\x00\x00\x80?\x00\x00\x80?\x00\x00\x80?\x00\x00\x80?\x00\x00\x80?\x00\x00\x80?\x00\x00\x80?\x00\x00\x80?\x00\x00\x80?\x00\x00\x80?\x00\x00\x80?\x00\x00\x80?\x00\x00\x80?\x00\x00\x80?\x00\x00\x80?\x00\x00\x80?\x00\x00\x80?'
S'\x00\x00\x00\x00\x00\x00\x00\x00\x00\x00\x00\x00\x00\x00\x00\x00\x00\x00'
Ntbsg21
g1501
(g1502
(I0
tS'b'
tRp1748
(I1
(I18
I1
tg1505
I00
(lp1749
S'2'
aS'3'
aS'1'
aS'6'
aS'9'
aS'4'
aS'6'
aS'3'
aS'7'
aS'1'
aS'1'
aS'4'
aS'5'
aS'7'
aS'2'
aS'3'
aS'3'
aNatbsg1527
g1516
(g1517
g1502
g1518
S'b'
tRp1750
(I1
(I18
I1
tg1520
I00
S'\x00\x000A\x00\x00@@\x00\x00\x00\x00\x00\x00\x00@\x00\x00\x80@\x00\x00\x10A\x00\x00\x88A\x00\x00PA\x00\x00\x80A\x00\x00\xe0@\x00\x00@A\x00\x00\xc0@\x00\x00`A\x00\x00 A\x00\x00\x00A\x00\x00\xa0@\x00\x00pA\x00\x00\x80?'
S'\x00\x00\x00\x00\x00\x00\x00\x00\x00\x00\x00\x00\x00\x00\x00\x00\x00\x00'
Ntbsg20
g1516
(g1517
g1502
g1518
S'b'
tRp1751
(I1
(I18
I1
tg1520
I00
S'\xc3\x9c_@\r\x82\xb9@\xfdM\xb1@\xca|>@\x9dr\xcc@\x99\n\xea@\xf5Iv@}\x7f\x93@v\xee\xf9@\n\xcb\xc8@\xb1\xdcr?\x1fT\x87?:t\x19?\xd5_k?\rx\xa0?\xce[\x8b@\xfcj\xaa?Bq\x9cA'
S'\x00\x00\x00\x00\x00\x00\x00\x00\x00\x00\x00\x00\x00\x00\x00\x00\x00\x00'
NtbstRp1752
(dp1753
g1532
(dp1754
g1515
I01
sg21
I00
sg20
I01
sg22
I01
sg19
I00
sg23
I01
sg1527
I01
ssg1534
g1739
sg1535
(lp1755
g1515
ag1527
ag19
ag20
ag21
ag22
ag23
asg1537
(lp1756
I18
aI1
asbsg1539
g1540
sg1541
g1501
(g1502
(I0
tS'b'
tRp1757
(I1
(I18
I1
tg1505
I00
(lp1758
I2
aI17
aI3
aI1
aI4
aI15
aI11
aI9
aI14
aI5
aI13
aI0
aI10
aI7
aI12
aI16
aI8
aI6
atbsg1544
I01
sg1545
I1
sg1546
I-1
sg1547
(lp1759
g1
(g1549
g1499
(dp1760
g623
g739
sVY
L2L
sg625
L2L
sg626
g740
sg633
L2L
sg630
L2L
sg631
g646
sVX
L3L
sg628
L0L
sg635
g632
sg637
L0L
sg638
g671
stRp1761
ag1
(g1549
g1499
(dp1762
g623
g666
sVY
L2L
sg625
L2L
sg626
g667
sg633
L3L
sg630
L3L
sg631
g636
sVX
L6L
sg628
L0L
sg635
g670
sg637
L0L
sg638
g671
stRp1763
ag1
(g1549
g1499
(dp1764
g623
g624
sVY
L4L
sg625
L2L
sg626
g627
sg633
L1L
sg630
L1L
sg631
g632
sVX
L8L
sg628
L0L
sg635
g636
sg637
L0L
sg638
g639
stRp1765
ag1
(g1549
g1499
(dp1766
g623
g657
sVY
L2L
sg625
L2L
sg626
g658
sg633
L6L
sg630
L6L
sg631
g660
sVX
L3L
sg628
L0L
sg635
g646
sg637
L0L
sg638
g639
stRp1767
ag1
(g1549
g1499
(dp1768
g623
g676
sVY
L8L
sg625
L3L
sg626
g677
sg633
L9L
sg630
L9L
sg631
g679
sVX
L6L
sg628
g650
sg635
g660
sg637
L0L
sg638
g681
stRp1769
ag1
(g1549
g1499
(dp1770
g623
g722
sVY
L2L
sg625
L3L
sg626
g723
sg633
L4L
sg630
L4L
sg631
g636
sVX
L3L
sg628
g697
sg635
g632
sg637
L0L
sg638
g681
stRp1771
ag1
(g1549
g1499
(dp1772
g623
g788
sVY
L3L
sg625
L3L
sg626
g789
sg633
L6L
sg630
L6L
sg631
g660
sVX
L3L
sg628
g697
sg635
g679
sg637
L0L
sg638
g759
stRp1773
ag1
(g1549
g1499
(dp1774
g623
g755
sVY
L2L
sg625
L3L
sg626
g756
sg633
L3L
sg630
L3L
sg631
g670
sVX
L8L
sg628
g679
sg635
g646
sg637
L0L
sg638
g759
stRp1775
ag1
(g1549
g1499
(dp1776
g623
g780
sVY
L3L
sg625
L3L
sg626
g781
sg633
L7L
sg630
L7L
sg631
g697
sVX
L6L
sg628
g632
sg635
g646
sg637
L0L
sg638
g709
stRp1777
ag1
(g1549
g1499
(dp1778
g623
g705
sVY
L3L
sg625
L3L
sg626
g706
sg633
L1L
sg630
L1L
sg631
g679
sVX
L3L
sg628
g660
sg635
g650
sg637
L0L
sg638
g709
stRp1779
ag1
(g1549
g1499
(dp1780
g623
g747
sVY
L6L
sg625
L4L
sg626
g748
sg633
L8L
sg630
L8L
sg631
g648
sVX
L6L
sg628
g636
sg635
g660
sg637
g650
sg638
g700
stRp1781
ag1
(g1549
g1499
(dp1782
g623
g695
sVY
L9L
sg625
L4L
sg626
g696
sg633
L8L
sg630
L8L
sg631
g636
sVX
L3L
sg628
g697
sg635
g670
sg637
g648
sg638
g700
stRp1783
ag1
(g1549
g1499
(dp1784
g623
g764
sVY
L2L
sg625
L4L
sg626
g765
sg633
L8L
sg630
L8L
sg631
g660
sVX
L3L
sg628
g646
sg635
g648
sg637
g650
sg638
g734
stRp1785
ag1
(g1549
g1499
(dp1786
g623
g730
sVY
L3L
sg625
L4L
sg626
g731
sg633
L2L
sg630
L2L
sg631
g651
sVX
L2L
sg628
g648
sg635
g650
sg637
g636
sg638
g734
stRp1787
ag1
(g1549
g1499
(dp1788
g623
g714
sVY
L7L
sg625
L4L
sg626
g715
sg633
L8L
sg630
L8L
sg631
g648
sVX
L6L
sg628
g660
sg635
g650
sg637
g636
sg638
g690
stRp1789
ag1
(g1549
g1499
(dp1790
g623
g686
sVY
L9L
sg625
L4L
sg626
g687
sg633
L1L
sg630
L1L
sg631
g646
sVX
L9L
sg628
g632
sg635
g650
sg637
g648
sg638
g690
stRp1791
ag1
(g1549
g1499
(dp1792
g623
g772
sVY
L3L
sg625
L4L
sg626
g773
sg633
L6L
sg630
L6L
sg631
g697
sVX
L9L
sg628
g646
sg635
g679
sg637
g632
sg638
g652
stRp1793
ag1
(g1549
g1499
(dp1794
g623
g644
sVY
L4L
sg625
L4L
sg626
g645
sg633
L6L
sg630
L6L
sg631
g648
sVX
L2L
sg628
g646
sg635
g650
sg637
g651
sg638
g652
stRp1795
asg1562
Nsg1563
I6
sg1564
I18
sg1565
I0
sg1566
I18
sbag1
(g1487
g3
NtRp1796
(dp1797
g1490
Nsg1491
(lp1798
sg1493
I330539984
sg10
g1570
sg6
g1495
sg1496
I1
sg24
I01
sg25
g26
sg1497
g1
(g1498
g1499
(dp1799
g22
g1516
(g1517
g1502
g1518
S'b'
tRp1800
(I1
(I18
I1
tg1520
I00
S'\x00\x00\x80?\x00\x00\x80?\x00\x00\x80?\x00\x00\x80?\x00\x00\x80?\x00\x00\x80?\x00\x00\x80?\x00\x00\x00\x00\x00\x00\x80?\x00\x00\x00\x00\x00\x00\x00\x00\x00\x00\x00\x00\x00\x00\x00\x00\x00\x00\x00\x00\x00\x00\x00\x00\x00\x00\x00\x00\x00\x00\x80?\x00\x00\x00\x00'
S'\x00\x00\x00\x00\x00\x00\x00\x00\x00\x00\x00\x00\x00\x00\x00\x00\x00\x00'
Ntbsg19
g1501
(g1502
(I0
tS'b'
tRp1801
(I1
(I18
I1
tg1505
I00
(lp1802
g896
ag930
ag963
ag938
ag860
ag803
ag878
ag947
ag842
ag852
ag922
ag887
ag869
ag905
ag955
ag913
ag821
ag833
atbsg23
g1516
(g1517
g1502
g1518
S'b'
tRp1803
(I1
(I18
I1
tg1520
I00
S'\xbd\x9a\xea?\xd7\xaf^@\xc1e\xd3?e\x94b@}\xc9\x96@={Z@]\xf8\xe3@\xb2\xc9\x85@\xecF\xb0@>R1A\xe3\xf1\x89?=i\x10?\xa2(\xd3<\xd5\xa3\x9f>i\x8bk;\x1c\x80v>\xb4\xe1\xac>\x1a-1?'
S'\x00\x00\x00\x00\x00\x00\x00\x00\x00\x00\x00\x00\x00\x00\x00\x00\x00\x00'
Ntbsg1515
g1516
(g1517
g1502
g1518
S'b'
tRp1804
(I1
(I18
I1
tg1520
I00
S'\x00\x00\x80?\x00\x00\x80?\x00\x00\x80?\x00\x00\x80?\x00\x00\x80?\x00\x00\x80?\x00\x00\x80?\x00\x00\x80?\x00\x00\x80?\x00\x00\x80?\x00\x00\x80?\x00\x00\x80?\x00\x00\x80?\x00\x00\x80?\x00\x00\x80?\x00\x00\x80?\x00\x00\x80?\x00\x00\x80?'
S'\x00\x00\x00\x00\x00\x00\x00\x00\x00\x00\x00\x00\x00\x00\x00\x00\x00\x00'
Ntbsg21
g1501
(g1502
(I0
tS'b'
tRp1805
(I1
(I18
I1
tg1505
I00
(lp1806
S'7'
aS'9'
aS'2'
aS'5'
aS'9'
aS'3'
aS'8'
aS'4'
aS'9'
aS'1'
aS'7'
aS'7'
aS'6'
aS'3'
aS'2'
aS'5'
aS'5'
aS'3'
atbsg1527
g1516
(g1517
g1502
g1518
S'b'
tRp1807
(I1
(I18
I1
tg1520
I00
S'\x00\x00\x10A\x00\x00PA\x00\x00\x88A\x00\x00`A\x00\x00\xa0@\x00\x00\x00\x00\x00\x00\xe0@\x00\x00pA\x00\x00@@\x00\x00\x80@\x00\x00@A\x00\x00\x00A\x00\x00\xc0@\x00\x00 A\x00\x00\x80A\x00\x000A\x00\x00\x80?\x00\x00\x00@'
S'\x00\x00\x00\x00\x00\x00\x00\x00\x00\x00\x00\x00\x00\x00\x00\x00\x00\x00'
Ntbsg20
g1516
(g1517
g1502
g1518
S'b'
tRp1808
(I1
(I18
I1
tg1520
I00
S"2\xd7\x8b@\xd0\x06\xe8@;a\xd7@\xb8\xcf@@\xa4a0A\xd9#m@:\xb6\x9b@A\xc2\xc3@\x1f=\xd9@\x10\x00N@\xb2\x04\n?\x16\xa2\x85?\x03aM?o'R?N.\xa0?/kb?L'\x18?\x81\x02\xb7?"
S'\x00\x00\x00\x00\x00\x00\x00\x00\x00\x00\x00\x00\x00\x00\x00\x00\x00\x00'
NtbstRp1809
(dp1810
g1532
(dp1811
g1515
I01
sg21
I00
sg20
I01
sg22
I01
sg19
I00
sg23
I01
sg1527
I01
ssg1534
g1796
sg1535
(lp1812
g1515
ag1527
ag19
ag20
ag21
ag22
ag23
asg1537
(lp1813
I18
aI1
asbsg1539
g1540
sg1541
g1501
(g1502
(I0
tS'b'
tRp1814
(I1
(I18
I1
tg1505
I00
(lp1815
I5
aI16
aI17
aI8
aI9
aI4
aI12
aI6
aI11
aI0
aI13
aI15
aI10
aI1
aI3
aI7
aI14
aI2
atbsg1544
I01
sg1545
I1
sg1546
I-1
sg1547
(lp1816
g1
(g1549
g1499
(dp1817
g796
g894
sVY
L5L
sg798
L2L
sg799
g895
sg807
L7L
sg804
L7L
sg805
g802
sVX
L4L
sg801
L0L
sg809
g825
sg811
L0L
sg812
g898
stRp1818
ag1
(g1549
g1499
(dp1819
g796
g928
sVY
L3L
sg798
L2L
sg799
g929
sg807
L9L
sg804
L9L
sg805
g844
sVX
L4L
sg801
L0L
sg809
g810
sg811
L0L
sg812
g898
stRp1820
ag1
(g1549
g1499
(dp1821
g796
g961
sVY
L8L
sg798
L2L
sg799
g962
sg807
L2L
sg804
L2L
sg805
g862
sVX
L8L
sg801
L0L
sg809
g820
sg811
L0L
sg812
g940
stRp1822
ag1
(g1549
g1499
(dp1823
g796
g936
sVY
L2L
sg798
L2L
sg799
g937
sg807
L5L
sg804
L5L
sg805
g862
sVX
L8L
sg801
L0L
sg809
g806
sg811
L0L
sg812
g940
stRp1824
ag1
(g1549
g1499
(dp1825
g796
g858
sVY
L2L
sg798
L3L
sg799
g859
sg807
L9L
sg804
L9L
sg805
g844
sVX
L7L
sg801
g824
sg809
g862
sg811
L0L
sg812
g813
stRp1826
ag1
(g1549
g1499
(dp1827
g796
g797
sVY
L2L
sg798
L3L
sg799
g800
sg807
L3L
sg804
L3L
sg805
g806
sVX
L8L
sg801
g802
sg809
g810
sg811
L0L
sg812
g813
stRp1828
ag1
(g1549
g1499
(dp1829
g796
g876
sVY
L2L
sg798
L3L
sg799
g877
sg807
L8L
sg804
L8L
sg805
g835
sVX
L9L
sg801
g824
sg809
g802
sg811
L0L
sg812
g880
stRp1830
ag1
(g1549
g1499
(dp1831
g796
g945
sVY
L3L
sg798
L3L
sg799
g946
sg807
L3L
sg804
L3L
sg805
g862
sVX
L2L
sg801
g844
sg809
g806
sg811
L0L
sg812
g880
stRp1832
ag1
(g1549
g1499
(dp1833
g796
g840
sVY
L3L
sg798
L3L
sg799
g841
sg807
L9L
sg804
L9L
sg805
g802
sVX
L3L
sg801
g825
sg809
g844
sg811
L0L
sg812
g845
stRp1834
ag1
(g1549
g1499
(dp1835
g796
g850
sVY
L2L
sg798
L3L
sg799
g851
sg807
L6L
sg804
L6L
sg805
g806
sVX
L3L
sg801
g810
sg809
g844
sg811
L0L
sg812
g845
stRp1836
ag1
(g1549
g1499
(dp1837
g796
g920
sVY
L4L
sg798
L4L
sg799
g921
sg807
L5L
sg804
L5L
sg805
g820
sVX
L3L
sg801
g806
sg809
g862
sg811
g844
sg812
g889
stRp1838
ag1
(g1549
g1499
(dp1839
g796
g885
sVY
L9L
sg798
L4L
sg799
g886
sg807
L9L
sg804
L9L
sg805
g802
sVX
L3L
sg801
g806
sg809
g835
sg811
g822
sg812
g889
stRp1840
ag1
(g1549
g1499
(dp1841
g796
g867
sVY
L4L
sg798
L4L
sg799
g868
sg807
L5L
sg804
L5L
sg805
g810
sVX
L5L
sg801
g824
sg809
g802
sg811
g844
sg812
g871
stRp1842
ag1
(g1549
g1499
(dp1843
g796
g903
sVY
L2L
sg798
L4L
sg799
g904
sg807
L7L
sg804
L7L
sg805
g835
sVX
L2L
sg801
g844
sg809
g806
sg811
g802
sg812
g871
stRp1844
ag1
(g1549
g1499
(dp1845
g796
g953
sVY
L4L
sg798
L4L
sg799
g954
sg807
L6L
sg804
L6L
sg805
g820
sVX
L4L
sg801
g810
sg809
g844
sg811
g806
sg812
g915
stRp1846
ag1
(g1549
g1499
(dp1847
g796
g911
sVY
L8L
sg798
L4L
sg799
g912
sg807
L9L
sg804
L9L
sg805
g806
sVX
L8L
sg801
g862
sg809
g844
sg811
g820
sg812
g915
stRp1848
ag1
(g1549
g1499
(dp1849
g796
g818
sVY
L4L
sg798
L4L
sg799
g819
sg807
L5L
sg804
L5L
sg805
g822
sVX
L5L
sg801
g820
sg809
g824
sg811
g825
sg812
g826
stRp1850
ag1
(g1549
g1499
(dp1851
g796
g831
sVY
L4L
sg798
L4L
sg799
g832
sg807
L5L
sg804
L5L
sg805
g806
sVX
L7L
sg801
g802
sg809
g822
sg811
g835
sg812
g826
stRp1852
asg1562
Nsg1563
I2
sg1564
I18
sg1565
I0
sg1566
I18
sbag1
(g1487
g3
NtRp1853
(dp1854
g1490
Nsg1491
(lp1855
sg1493
I330539984
sg10
g1570
sg6
g1495
sg1496
I1
sg24
I01
sg25
g26
sg1497
g1
(g1498
g1499
(dp1856
g22
g1516
(g1517
g1502
g1518
S'b'
tRp1857
(I1
(I18
I1
tg1520
I00
S'\x00\x00\x80?\x00\x00\x00\x00\x00\x00\x80?\x00\x00\x80?\x00\x00\x00\x00\x00\x00\x80?\x00\x00\x80?\x00\x00\x80?\x00\x00\x80?\x00\x00\x80?\x00\x00\x00\x00\x00\x00\x00\x00\x00\x00\x80?\x00\x00\x80?\x00\x00\x00\x00\x00\x00\x80?\x00\x00\x00\x00\x00\x00\x80?'
S'\x00\x00\x00\x00\x00\x00\x00\x00\x00\x00\x00\x00\x00\x00\x00\x00\x00\x00'
Ntbsg19
g1501
(g1502
(I0
tS'b'
tRp1858
(I1
(I18
I1
tg1505
I00
(lp1859
g1044
ag1112
ag1035
ag1079
ag994
ag1128
ag976
ag1063
ag1136
ag1103
ag1004
ag1095
ag1087
ag1053
ag1071
ag1016
ag1026
ag1120
atbsg23
g1516
(g1517
g1502
g1518
S'b'
tRp1860
(I1
(I18
I1
tg1520
I00
S'\xbfY\xec?\x8c\xa7+Av\xfek@\x0e\x98T@G\x00\x12Av\x96\xe2@\xf0\xfe\x90@\x83*S@]\xf0n@n\x15\x03@+]\x86>NW|>\xe2\xfb\x18?&WU=\x13\xd3\x9a?5\xfd\xd7>l\x12\x86?\xbc\x98r?'
S'\x00\x00\x00\x00\x00\x00\x00\x00\x00\x00\x00\x00\x00\x00\x00\x00\x00\x00'
Ntbsg1515
g1516
(g1517
g1502
g1518
S'b'
tRp1861
(I1
(I18
I1
tg1520
I00
S'\x00\x00\x80?\x00\x00\x80?\x00\x00\x80?\x00\x00\x80?\x00\x00\x80?\x00\x00\x80?\x00\x00\x80?\x00\x00\x80?\x00\x00\x80?\x00\x00\x80?\x00\x00\x80?\x00\x00\x80?\x00\x00\x80?\x00\x00\x80?\x00\x00\x80?\x00\x00\x80?\x00\x00\x80?\x00\x00\x80?'
S'\x00\x00\x00\x00\x00\x00\x00\x00\x00\x00\x00\x00\x00\x00\x00\x00\x00\x00'
Ntbsg21
g1501
(g1502
(I0
tS'b'
tRp1862
(I1
(I18
I1
tg1505
I00
(lp1863
S'7'
aS'6'
aS'8'
aS'8'
aS'3'
aS'4'
aS'9'
aS'2'
aS'5'
aS'1'
aS'4'
aS'4'
aS'3'
aS'4'
aS'6'
aS'6'
aS'7'
aS'3'
atbsg1527
g1516
(g1517
g1502
g1518
S'b'
tRp1864
(I1
(I18
I1
tg1520
I00
S'\x00\x00\xc0@\x00\x00`A\x00\x00\xa0@\x00\x00 A\x00\x00\x80?\x00\x00\x80A\x00\x00\x00\x00\x00\x00\x00A\x00\x00\x88A\x00\x00PA\x00\x00\x00@\x00\x00@A\x00\x000A\x00\x00\xe0@\x00\x00\x10A\x00\x00@@\x00\x00\x80@\x00\x00pA'
S'\x00\x00\x00\x00\x00\x00\x00\x00\x00\x00\x00\x00\x00\x00\x00\x00\x00\x00'
Ntbsg20
g1516
(g1517
g1502
g1518
S'b'
tRp1865
(I1
(I18
I1
tg1520
I00
S'\xef\xad^@\xd5\xbd\x16@WX5@#\r,@\xb0\x90\x94@\xee\xd2\nA\x7f\xe5\x17A\xb3PSA\xf4\x8c\xfc@\xba\xfc\x8b@Z\xe6\x89?]#\x1c?\xd5\x955?\x89\xc5n?\xc1z@?\x86\xb8I?\x8a2\xa2?\xe2\xacV?'
S'\x00\x00\x00\x00\x00\x00\x00\x00\x00\x00\x00\x00\x00\x00\x00\x00\x00\x00'
NtbstRp1866
(dp1867
g1532
(dp1868
g1515
I01
sg21
I00
sg20
I01
sg22
I01
sg19
I00
sg23
I01
sg1527
I01
ssg1534
g1853
sg1535
(lp1869
g1515
ag1527
ag19
ag20
ag21
ag22
ag23
asg1537
(lp1870
I18
aI1
asbsg1539
g1540
sg1541
g1501
(g1502
(I0
tS'b'
tRp1871
(I1
(I18
I1
tg1505
I00
(lp1872
I6
aI4
aI10
aI15
aI16
aI2
aI0
aI13
aI7
aI14
aI3
aI12
aI11
aI9
aI1
aI17
aI5
aI8
atbsg1544
I01
sg1545
I1
sg1546
I-1
sg1547
(lp1873
g1
(g1549
g1499
(dp1874
g969
g1042
sVY
L6L
sg971
L2L
sg972
g1043
sg980
L7L
sg977
L7L
sg978
g1007
sVX
L3L
sg974
L0L
sg982
g979
sg984
L0L
sg985
g1046
stRp1875
ag1
(g1549
g1499
(dp1876
g969
g1110
sVY
L4L
sg971
L2L
sg972
g1111
sg980
L2L
sg977
L2L
sg978
g983
sVX
L5L
sg974
L0L
sg982
g1015
sg984
L0L
sg985
g1046
stRp1877
ag1
(g1549
g1499
(dp1878
g969
g1033
sVY
L2L
sg971
L2L
sg972
g1034
sg980
L8L
sg977
L8L
sg978
g979
sVX
L2L
sg974
L0L
sg982
g1005
sg984
L0L
sg985
g1037
stRp1879
ag1
(g1549
g1499
(dp1880
g969
g1077
sVY
L2L
sg971
L2L
sg972
g1078
sg980
L8L
sg977
L8L
sg978
g1054
sVX
L2L
sg974
L0L
sg982
g1005
sg984
L0L
sg985
g1037
stRp1881
ag1
(g1549
g1499
(dp1882
g969
g991
sVY
L3L
sg971
L3L
sg972
g992
sg980
L4L
sg977
L4L
sg978
g975
sVX
L8L
sg974
g993
sg982
g996
sg984
L0L
sg985
g997
stRp1883
ag1
(g1549
g1499
(dp1884
g969
g1126
sVY
L2L
sg971
L3L
sg972
g1127
sg980
L4L
sg977
L4L
sg978
g1007
sVX
L3L
sg974
g1005
sg982
g1054
sg984
L0L
sg985
g997
stRp1885
ag1
(g1549
g1499
(dp1886
g969
g970
sVY
L2L
sg971
L3L
sg972
g973
sg980
L9L
sg977
L9L
sg978
g979
sVX
L2L
sg974
g975
sg982
g983
sg984
L0L
sg985
g986
stRp1887
ag1
(g1549
g1499
(dp1888
g969
g1061
sVY
L2L
sg971
L3L
sg972
g1062
sg980
L2L
sg977
L2L
sg978
g1015
sVX
L9L
sg974
g1007
sg982
g983
sg984
L0L
sg985
g986
stRp1889
ag1
(g1549
g1499
(dp1890
g969
g1134
sVY
L4L
sg971
L3L
sg972
g1135
sg980
L5L
sg977
L5L
sg978
g975
sVX
L8L
sg974
g996
sg982
g1018
sg984
L0L
sg985
g1105
stRp1891
ag1
(g1549
g1499
(dp1892
g969
g1101
sVY
L6L
sg971
L3L
sg972
g1102
sg980
L1L
sg977
L1L
sg978
g983
sVX
L8L
sg974
g1015
sg982
g1007
sg984
L0L
sg985
g1105
stRp1893
ag1
(g1549
g1499
(dp1894
g969
g1002
sVY
L3L
sg971
L4L
sg972
g1003
sg980
L2L
sg977
L2L
sg978
g1005
sVX
L6L
sg974
g983
sg982
g996
sg984
g1007
sg985
g1008
stRp1895
ag1
(g1549
g1499
(dp1896
g969
g1093
sVY
L2L
sg971
L4L
sg972
g1094
sg980
L8L
sg977
L8L
sg978
g983
sVX
L2L
sg974
g993
sg982
g1054
sg984
g975
sg985
g1008
stRp1897
ag1
(g1549
g1499
(dp1898
g969
g1085
sVY
L3L
sg971
L4L
sg972
g1086
sg980
L3L
sg977
L3L
sg978
g996
sVX
L4L
sg974
g975
sg982
g983
sg984
g993
sg985
g1056
stRp1899
ag1
(g1549
g1499
(dp1900
g969
g1051
sVY
L3L
sg971
L4L
sg972
g1052
sg980
L4L
sg977
L4L
sg978
g1054
sVX
L7L
sg974
g993
sg982
g1007
sg984
g983
sg985
g1056
stRp1901
ag1
(g1549
g1499
(dp1902
g969
g1069
sVY
L4L
sg971
L4L
sg972
g1070
sg980
L7L
sg977
L7L
sg978
g983
sVX
L8L
sg974
g979
sg982
g1007
sg984
g1005
sg985
g1019
stRp1903
ag1
(g1549
g1499
(dp1904
g969
g1013
sVY
L3L
sg971
L4L
sg972
g1014
sg980
L6L
sg977
L6L
sg978
g1005
sVX
L5L
sg974
g1015
sg982
g975
sg984
g1018
sg985
g1019
stRp1905
ag1
(g1549
g1499
(dp1906
g969
g1024
sVY
L2L
sg971
L4L
sg972
g1025
sg980
L8L
sg977
L8L
sg978
g975
sVX
L4L
sg974
g993
sg982
g1018
sg984
g979
sg985
g1028
stRp1907
ag1
(g1549
g1499
(dp1908
g969
g1118
sVY
L5L
sg971
L4L
sg972
g1119
sg980
L3L
sg977
L3L
sg978
g1018
sVX
L9L
sg974
g993
sg982
g975
sg984
g1015
sg985
g1028
stRp1909
asg1562
Nsg1563
I8
sg1564
I18
sg1565
I0
sg1566
I18
sbag1
(g1487
g3
NtRp1910
(dp1911
g1490
Nsg1491
(lp1912
sg1493
I330539984
sg10
g1570
sg6
g1495
sg1496
I1
sg24
I01
sg25
g26
sg1497
g1
(g1498
g1499
(dp1913
g22
g1516
(g1517
g1502
g1518
S'b'
tRp1914
(I1
(I18
I1
tg1520
I00
S'\x00\x00\x80?\x00\x00\x80?\x00\x00\x80?\x00\x00\x80?\x00\x00\x80?\x00\x00\x80?\x00\x00\x80?\x00\x00\x80?\x00\x00\x00\x00\x00\x00\x00\x00\x00\x00\x00\x00\x00\x00\x00\x00\x00\x00\x00\x00\x00\x00\x80?\x00\x00\x00\x00\x00\x00\x00\x00\x00\x00\x00\x00\x00\x00\x00\x00'
S'\x00\x00\x00\x00\x00\x00\x00\x00\x00\x00\x00\x00\x00\x00\x00\x00\x00\x00'
Ntbsg19
g1501
(g1502
(I0
tS'b'
tRp1915
(I1
(I18
I1
tg1505
I00
(lp1916
g1310
ag1207
ag1167
ag1276
ag1225
ag1234
ag1259
ag1268
ag1293
ag1216
ag1177
ag1149
ag1301
ag1284
ag1243
ag1187
ag1251
ag1198
atbsg23
g1516
(g1517
g1502
g1518
S'b'
tRp1917
(I1
(I18
I1
tg1520
I00
S'\x8c\xb0\xc7?1m\xb1@\xe9K\xa8?\xe6\x9c7@\xa9#\xa3@\xe1\xaf\x94@7\xa0`@\xc3\xd9\x1e@)O\x08?\xa5\x0e\x90@\x18\xe3!?\x8c \xcf=h3\xb0>\xd1/5?\xebN=>%\xa5J>\xea\x8e\x1e=\x99\x92\x1c?'
S'\x00\x00\x00\x00\x00\x00\x00\x00\x00\x00\x00\x00\x00\x00\x00\x00\x00\x00'
Ntbsg1515
g1516
(g1517
g1502
g1518
S'b'
tRp1918
(I1
(I18
I1
tg1520
I00
S'\x00\x00\x80?\x00\x00\x80?\x00\x00\x80?\x00\x00\x80?\x00\x00\x80?\x00\x00\x80?\x00\x00\x80?\x00\x00\x80?\x00\x00\x80?\x00\x00\x80?\x00\x00\x80?\x00\x00\x80?\x00\x00\x80?\x00\x00\x80?\x00\x00\x80?\x00\x00\x80?\x00\x00\x80?\x00\x00\x80?'
S'\x00\x00\x00\x00\x00\x00\x00\x00\x00\x00\x00\x00\x00\x00\x00\x00\x00\x00'
Ntbsg21
g1501
(g1502
(I0
tS'b'
tRp1919
(I1
(I18
I1
tg1505
I00
(lp1920
S'8'
aS'2'
aS'2'
aS'8'
aS'1'
aS'2'
aS'1'
aS'2'
aS'5'
aS'1'
aS'6'
aS'2'
aS'4'
aS'7'
aS'5'
aS'4'
aS'4'
aS'2'
atbsg1527
g1516
(g1517
g1502
g1518
S'b'
tRp1921
(I1
(I18
I1
tg1520
I00
S'\x00\x00\x88A\x00\x00\xa0@\x00\x00\x80?\x00\x00PA\x00\x00\xe0@\x00\x00\x00A\x00\x000A\x00\x00@A\x00\x00pA\x00\x00\xc0@\x00\x00\x00@\x00\x00\x00\x00\x00\x00\x80A\x00\x00`A\x00\x00\x10A\x00\x00@@\x00\x00 A\x00\x00\x80@'
S'\x00\x00\x00\x00\x00\x00\x00\x00\x00\x00\x00\x00\x00\x00\x00\x00\x00\x00'
Ntbsg20
g1516
(g1517
g1502
g1518
S'b'
tRp1922
(I1
(I18
I1
tg1520
I00
S'z2\x7f@\xa7l\x0b@<\xb6\x10@R\xd2\\@]S\x01A\xd8\xa1f@\xd3\x0c\x1eA\x14\xe9\x98@Wt\x00?:\xf1\xcb@\xae\xc8f?\xf5\xf0\x80@TB\x0c?\xe0\xfeU?\x91\xf1\xa1?[\xd24?{\xde\x0f?\xb7\x7f1?'
S'\x00\x00\x00\x00\x00\x00\x00\x00\x00\x00\x00\x00\x00\x00\x00\x00\x00\x00'
NtbstRp1923
(dp1924
g1532
(dp1925
g1515
I01
sg21
I00
sg20
I01
sg22
I01
sg19
I00
sg23
I01
sg1527
I01
ssg1534
g1910
sg1535
(lp1926
g1515
ag1527
ag19
ag20
ag21
ag22
ag23
asg1537
(lp1927
I18
aI1
asbsg1539
g1540
sg1541
g1501
(g1502
(I0
tS'b'
tRp1928
(I1
(I18
I1
tg1505
I00
(lp1929
I11
aI2
aI10
aI15
aI17
aI1
aI9
aI4
aI5
aI14
aI16
aI6
aI7
aI3
aI13
aI8
aI12
aI0
atbsg1544
I01
sg1545
I1
sg1546
I-1
sg1547
(lp1930
g1
(g1549
g1499
(dp1931
g1142
g1308
sVY
L4L
sg1144
L2L
sg1145
g1309
sg1153
L8L
sg1150
L8L
sg1151
g1148
sVX
L2L
sg1147
L0L
sg1155
g1179
sg1157
L0L
sg1159
g1209
stRp1932
ag1
(g1549
g1499
(dp1933
g1142
g1205
sVY
L6L
sg1144
L2L
sg1145
g1206
sg1153
L2L
sg1150
L2L
sg1151
g1148
sVX
L6L
sg1147
L0L
sg1155
g1156
sg1157
L0L
sg1159
g1209
stRp1934
ag1
(g1549
g1499
(dp1935
g1142
g1165
sVY
L7L
sg1144
L2L
sg1145
g1166
sg1153
L2L
sg1150
L2L
sg1151
g1168
sVX
L8L
sg1147
L0L
sg1155
g1148
sg1157
L0L
sg1159
g1170
stRp1936
ag1
(g1549
g1499
(dp1937
g1142
g1274
sVY
L4L
sg1144
L2L
sg1145
g1275
sg1153
L8L
sg1150
L8L
sg1151
g1242
sVX
L4L
sg1147
L0L
sg1155
g1180
sg1157
L0L
sg1159
g1170
stRp1938
ag1
(g1549
g1499
(dp1939
g1142
g1223
sVY
L4L
sg1144
L3L
sg1145
g1224
sg1153
L1L
sg1150
L1L
sg1151
g1148
sVX
L6L
sg1147
g1158
sg1155
g1156
sg1157
L0L
sg1159
g1227
stRp1940
ag1
(g1549
g1499
(dp1941
g1142
g1232
sVY
L4L
sg1144
L3L
sg1145
g1233
sg1153
L2L
sg1150
L2L
sg1151
g1180
sVX
L4L
sg1147
g1188
sg1155
g1168
sg1157
L0L
sg1159
g1227
stRp1942
ag1
(g1549
g1499
(dp1943
g1142
g1257
sVY
L7L
sg1144
L3L
sg1145
g1258
sg1153
L1L
sg1150
L1L
sg1151
g1168
sVX
L3L
sg1147
g1188
sg1155
g1180
sg1157
L0L
sg1159
g1261
stRp1944
ag1
(g1549
g1499
(dp1945
g1142
g1266
sVY
L3L
sg1144
L3L
sg1145
g1267
sg1153
L2L
sg1150
L2L
sg1151
g1156
sVX
L9L
sg1147
g1158
sg1155
g1152
sg1157
L0L
sg1159
g1261
stRp1946
ag1
(g1549
g1499
(dp1947
g1142
g1291
sVY
L2L
sg1144
L3L
sg1145
g1292
sg1153
L8L
sg1150
L8L
sg1151
g1190
sVX
L7L
sg1147
g1168
sg1155
g1148
sg1157
L0L
sg1159
g1218
stRp1948
ag1
(g1549
g1499
(dp1949
g1142
g1214
sVY
L3L
sg1144
L3L
sg1145
g1215
sg1153
L6L
sg1150
L6L
sg1151
g1188
sVX
L4L
sg1147
g1168
sg1155
g1148
sg1157
L0L
sg1159
g1218
stRp1950
ag1
(g1549
g1499
(dp1951
g1142
g1175
sVY
L6L
sg1144
L4L
sg1145
g1176
sg1153
L7L
sg1150
L7L
sg1151
g1158
sVX
L4L
sg1147
g1152
sg1155
g1179
sg1157
g1180
sg1159
g1160
stRp1952
ag1
(g1549
g1499
(dp1953
g1142
g1143
sVY
L5L
sg1144
L4L
sg1145
g1146
sg1153
L1L
sg1150
L1L
sg1151
g1152
sVX
L6L
sg1147
g1148
sg1155
g1156
sg1157
g1158
sg1159
g1160
stRp1954
ag1
(g1549
g1499
(dp1955
g1142
g1299
sVY
L4L
sg1144
L4L
sg1145
g1300
sg1153
L9L
sg1150
L9L
sg1151
g1179
sVX
L9L
sg1147
g1148
sg1155
g1303
sg1157
g1158
sg1159
g1286
stRp1956
ag1
(g1549
g1499
(dp1957
g1142
g1282
sVY
L4L
sg1144
L4L
sg1145
g1283
sg1153
L7L
sg1150
L7L
sg1151
g1242
sVX
L3L
sg1147
g1148
sg1155
g1190
sg1157
g1158
sg1159
g1286
stRp1958
ag1
(g1549
g1499
(dp1959
g1142
g1240
sVY
L6L
sg1144
L4L
sg1145
g1241
sg1153
L3L
sg1150
L3L
sg1151
g1158
sVX
L4L
sg1147
g1242
sg1155
g1190
sg1157
g1180
sg1159
g1191
stRp1960
ag1
(g1549
g1499
(dp1961
g1142
g1185
sVY
L8L
sg1144
L4L
sg1145
g1186
sg1153
L6L
sg1150
L6L
sg1151
g1188
sVX
L9L
sg1147
g1156
sg1155
g1148
sg1157
g1190
sg1159
g1191
stRp1962
ag1
(g1549
g1499
(dp1963
g1142
g1249
sVY
L2L
sg1144
L4L
sg1145
g1250
sg1153
L5L
sg1150
L5L
sg1151
g1180
sVX
L8L
sg1147
g1188
sg1155
g1190
sg1157
g1156
sg1159
g1200
stRp1964
ag1
(g1549
g1499
(dp1965
g1142
g1196
sVY
L4L
sg1144
L4L
sg1145
g1197
sg1153
L4L
sg1150
L4L
sg1151
g1190
sVX
L4L
sg1147
g1188
sg1155
g1148
sg1157
g1156
sg1159
g1200
stRp1966
asg1562
Nsg1563
I0
sg1564
I18
sg1565
I0
sg1566
I18
sbag1
(g1487
g3
NtRp1967
(dp1968
g1490
Nsg1491
(lp1969
sg1493
I330539984
sg10
g1570
sg6
g1495
sg1496
I1
sg24
I01
sg25
g26
sg1497
g1
(g1498
g1499
(dp1970
g22
g1516
(g1517
g1502
g1518
S'b'
tRp1971
(I1
(I18
I1
tg1520
I00
S'\x00\x00\x80?\x00\x00\x80?\x00\x00\x80?\x00\x00\x80?\x00\x00\x80?\x00\x00\x80?\x00\x00\x80?\x00\x00\x80?\x00\x00\x80?\x00\x00\x80?\x00\x00\x00\x00\x00\x00\x00\x00\x00\x00\x00\x00\x00\x00\x00\x00\x00\x00\x00\x00\x00\x00\x00\x00\x00\x00\x00\x00\x00\x00\x80?'
S'\x00\x00\x00\x00\x00\x00\x00\x00\x00\x00\x00\x00\x00\x00\x00\x00\x00\x00'
Ntbsg19
g1501
(g1502
(I0
tS'b'
tRp1972
(I1
(I18
I1
tg1505
I00
(lp1973
g1433
ag1362
ag1459
ag1351
ag1342
ag1399
ag1467
ag1424
ag1475
ag1407
ag1441
ag1483
ag1373
ag1450
ag1390
ag1416
ag1382
ag1323
atbsg23
g1516
(g1517
g1502
g1518
S'b'
tRp1974
(I1
(I18
I1
tg1520
I00
S'`o\xf0?\xbf\xb6\xdf??"L@\xe5\xab\x04@P\x8b]@BEu@*\x95\x93@X\xaf\x91@5\xe0?@\x16\x82\x8b@\x17\xb4\xe8=\x1fb\x86>*:>?\xb5C\xa6>P\xf0\xf7>+\x9bc=\x97p\xae>\xcec\x01@'
S'\x00\x00\x00\x00\x00\x00\x00\x00\x00\x00\x00\x00\x00\x00\x00\x00\x00\x00'
Ntbsg1515
g1516
(g1517
g1502
g1518
S'b'
tRp1975
(I1
(I18
I1
tg1520
I00
S'\x00\x00\x80?\x00\x00\x80?\x00\x00\x80?\x00\x00\x80?\x00\x00\x80?\x00\x00\x80?\x00\x00\x80?\x00\x00\x80?\x00\x00\x80?\x00\x00\x80?\x00\x00\x80?\x00\x00\x80?\x00\x00\x80?\x00\x00\x80?\x00\x00\x80?\x00\x00\x80?\x00\x00\x80?\x00\x00\x80?'
S'\x00\x00\x00\x00\x00\x00\x00\x00\x00\x00\x00\x00\x00\x00\x00\x00\x00\x00'
Ntbsg21
g1501
(g1502
(I0
tS'b'
tRp1976
(I1
(I18
I1
tg1505
I00
(lp1977
S'1'
aS'8'
aS'4'
aS'1'
aS'3'
aS'9'
aS'1'
aS'6'
aS'6'
aS'8'
aS'3'
aS'6'
aS'5'
aS'8'
aS'3'
aS'3'
aS'7'
aS'3'
atbsg1527
g1516
(g1517
g1502
g1518
S'b'
tRp1978
(I1
(I18
I1
tg1520
I00
S'\x00\x000A\x00\x00@@\x00\x00`A\x00\x00\x00@\x00\x00\x80?\x00\x00\xe0@\x00\x00pA\x00\x00 A\x00\x00\x80A\x00\x00\x00A\x00\x00@A\x00\x00\x88A\x00\x00\x80@\x00\x00PA\x00\x00\xc0@\x00\x00\x10A\x00\x00\xa0@\x00\x00\x00\x00'
S'\x00\x00\x00\x00\x00\x00\x00\x00\x00\x00\x00\x00\x00\x00\x00\x00\x00\x00'
Ntbsg20
g1516
(g1517
g1502
g1518
S'b'
tRp1979
(I1
(I18
I1
tg1520
I00
S'\xe1\xb2@@\x055U@\xd41\x19A\x1f\x9d9@\xfb\xa1\x84@\xd0\xfd\x9f@\x97\xb6\x05A/Z\x89@y\xc6k@\xcd-\xdb@\xadhx?W=\x19?\x03\t\x7f?\xf0_%?He%?\x1fL5?m\xc5-?\xe8\xb2\x84?'
S'\x00\x00\x00\x00\x00\x00\x00\x00\x00\x00\x00\x00\x00\x00\x00\x00\x00\x00'
NtbstRp1980
(dp1981
g1532
(dp1982
g1515
I01
sg21
I00
sg20
I01
sg22
I01
sg19
I00
sg23
I01
sg1527
I01
ssg1534
g1967
sg1535
(lp1983
g1515
ag1527
ag19
ag20
ag21
ag22
ag23
asg1537
(lp1984
I18
aI1
asbsg1539
g1540
sg1541
g1501
(g1502
(I0
tS'b'
tRp1985
(I1
(I18
I1
tg1505
I00
(lp1986
I17
aI4
aI3
aI1
aI12
aI16
aI14
aI5
aI9
aI15
aI7
aI0
aI10
aI13
aI2
aI6
aI8
aI11
atbsg1544
I01
sg1545
I1
sg1546
I-1
sg1547
(lp1987
g1
(g1549
g1499
(dp1988
g1316
g1431
sVY
L3L
sg1318
L2L
sg1319
g1432
sg1327
L1L
sg1324
L1L
sg1325
g1354
sVX
L9L
sg1321
L0L
sg1329
g1352
sg1331
L0L
sg1333
g1366
stRp1989
ag1
(g1549
g1499
(dp1990
g1316
g1360
sVY
L2L
sg1318
L2L
sg1319
g1361
sg1327
L8L
sg1324
L8L
sg1325
g1363
sVX
L2L
sg1321
L0L
sg1329
g1365
sg1331
L0L
sg1333
g1366
stRp1991
ag1
(g1549
g1499
(dp1992
g1316
g1457
sVY
L3L
sg1318
L2L
sg1319
g1458
sg1327
L4L
sg1324
L4L
sg1325
g1332
sVX
L6L
sg1321
L0L
sg1329
g1322
sg1331
L0L
sg1333
g1355
stRp1993
ag1
(g1549
g1499
(dp1994
g1316
g1349
sVY
L2L
sg1318
L2L
sg1319
g1350
sg1327
L1L
sg1324
L1L
sg1325
g1352
sVX
L6L
sg1321
L0L
sg1329
g1354
sg1331
L0L
sg1333
g1355
stRp1995
ag1
(g1549
g1499
(dp1996
g1316
g1339
sVY
L9L
sg1318
L3L
sg1319
g1340
sg1327
L3L
sg1324
L3L
sg1325
g1326
sVX
L5L
sg1321
g1341
sg1329
g1332
sg1331
L0L
sg1333
g1344
stRp1997
ag1
(g1549
g1499
(dp1998
g1316
g1397
sVY
L3L
sg1318
L3L
sg1319
g1398
sg1327
L9L
sg1324
L9L
sg1325
g1330
sVX
L5L
sg1321
g1322
sg1329
g1365
sg1331
L0L
sg1333
g1344
stRp1999
ag1
(g1549
g1499
(dp2000
g1316
g1465
sVY
L2L
sg1318
L3L
sg1319
g1466
sg1327
L1L
sg1324
L1L
sg1325
g1352
sVX
L7L
sg1321
g1341
sg1329
g1354
sg1331
L0L
sg1333
g1426
stRp2001
ag1
(g1549
g1499
(dp2002
g1316
g1422
sVY
L6L
sg1318
L3L
sg1319
g1423
sg1327
L6L
sg1324
L6L
sg1325
g1365
sVX
L6L
sg1321
g1330
sg1329
g1354
sg1331
L0L
sg1333
g1426
stRp2003
ag1
(g1549
g1499
(dp2004
g1316
g1473
sVY
L2L
sg1318
L3L
sg1319
g1474
sg1327
L6L
sg1324
L6L
sg1325
g1341
sVX
L2L
sg1321
g1451
sg1329
g1363
sg1331
L0L
sg1333
g1409
stRp2005
ag1
(g1549
g1499
(dp2006
g1316
g1405
sVY
L6L
sg1318
L3L
sg1319
g1406
sg1327
L8L
sg1324
L8L
sg1325
g1354
sVX
L2L
sg1321
g1365
sg1329
g1363
sg1331
L0L
sg1333
g1409
stRp2007
ag1
(g1549
g1499
(dp2008
g1316
g1439
sVY
L4L
sg1318
L4L
sg1319
g1440
sg1327
L8L
sg1324
L8L
sg1325
g1363
sVX
L3L
sg1321
g1326
sg1329
g1332
sg1331
g1341
sg1333
g1443
stRp2009
ag1
(g1549
g1499
(dp2010
g1316
g1481
sVY
L8L
sg1318
L4L
sg1319
g1482
sg1327
L1L
sg1324
L1L
sg1325
g1326
sVX
L2L
sg1321
g1341
sg1329
g1332
sg1331
g1363
sg1333
g1443
stRp2011
ag1
(g1549
g1499
(dp2012
g1316
g1371
sVY
L5L
sg1318
L4L
sg1319
g1372
sg1327
L6L
sg1324
L6L
sg1325
g1352
sVX
L4L
sg1321
g1326
sg1329
g1363
sg1331
g1322
sg1333
g1375
stRp2013
ag1
(g1549
g1499
(dp2014
g1316
g1448
sVY
L3L
sg1318
L4L
sg1319
g1449
sg1327
L7L
sg1324
L7L
sg1325
g1451
sVX
L2L
sg1321
g1330
sg1329
g1322
sg1331
g1326
sg1333
g1375
stRp2015
ag1
(g1549
g1499
(dp2016
g1316
g1388
sVY
L3L
sg1318
L4L
sg1319
g1389
sg1327
L5L
sg1324
L5L
sg1325
g1326
sVX
L3L
sg1321
g1352
sg1329
g1341
sg1331
g1363
sg1333
g1392
stRp2017
ag1
(g1549
g1499
(dp2018
g1316
g1414
sVY
L4L
sg1318
L4L
sg1319
g1415
sg1327
L5L
sg1324
L5L
sg1325
g1341
sVX
L8L
sg1321
g1365
sg1329
g1354
sg1331
g1330
sg1333
g1392
stRp2019
ag1
(g1549
g1499
(dp2020
g1316
g1380
sVY
L2L
sg1318
L4L
sg1319
g1381
sg1327
L5L
sg1324
L5L
sg1325
g1326
sVX
L6L
sg1321
g1330
sg1329
g1341
sg1331
g1332
sg1333
g1334
stRp2021
ag1
(g1549
g1499
(dp2022
g1316
g1317
sVY
L2L
sg1318
L4L
sg1319
g1320
sg1327
L3L
sg1324
L3L
sg1325
g1326
sVX
L3L
sg1321
g1322
sg1329
g1330
sg1331
g1332
sg1333
g1334
stRp2023
asg1562
Nsg1563
I11
sg1564
I18
sg1565
I0
sg1566
I18
sbasS'savePickle'
p2024
I00
sb.