ccopy_reg
_reconstructor
p1
(cpsychopy.data
ExperimentHandler
p2
c__builtin__
object
p3
NtRp4
(dp5
S'originPath'
p6
NsS'dataFileName'
p7
VC:\u005cUsers\u005cCCDL\u005cDesktop\u005cExperiments\u005cKRITL\u005cdata/31048_KRITL_2017_Apr_28_0922
p8
sS'runtimeInfo'
p9
NsS'name'
p10
S'KRITL'
p11
sS'dataNames'
p12
(lp13
S'practice_encoding.keys'
p14
aS'practice_encoding.rt'
p15
aS'practice_execution.keys'
p16
aS'practice_execution.corr'
p17
aS'practice_execution.rt'
p18
aS'encoding.keys'
p19
aS'encoding.rt'
p20
aS'execution.keys'
p21
aS'execution.corr'
p22
aS'execution.rt'
p23
asS'autoLog'
p24
I01
sS'extraInfo'
p25
(dp26
S'date'
p27
V2017_Apr_28_0922
p28
sS'frameRate'
p29
cnumpy.core.multiarray
scalar
p30
(cnumpy
dtype
p31
(S'f8'
I0
I1
tRp32
(I3
S'<'
NNNI-1
I-1
I0
tbS'E0T\xca\xf4\xffM@'
tRp33
sS'expName'
p34
g11
sVsession
p35
V002
p36
sVparticipant
p37
V31048
p38
ssS'loopsUnfinished'
p39
(lp40
sS'saveWideText'
p41
I00
sS'thisEntry'
p42
(dp43
sS'version'
p44
S''
sS'_paramNamesSoFar'
p45
(lp46
Voperationc
p47
aVoperationb
p48
aVoperationa
p49
aVcorrectresponse
p50
aVvaluey
p51
aVoperationd
p52
aVcondition
p53
aVvaluex
p54
aVRule
p55
aVOperatora
p56
aVLength
p57
aVIntermediate
p58
aVCorrectResponse
p59
aVResult
p60
aVY
aVX
aVOperatorc
p61
aVOperatorb
p62
aVOperatord
p63
aVStructure
p64
asS'entries'
p65
(lp66
(dp67
g18
F2.9500787735451013
sg29
g33
sg17
I1
sg47
VADD
p68
sg48
Vtriple 
p69
sg49
Vhalf
p70
sg35
g36
sg50
L8L
sS'practice_trials.thisTrialN'
p71
I0
sg52
L0L
sS'practice_trials.thisRepN'
p72
I0
sg37
g38
sg53
L3L
sg27
g28
sg16
S'8'
sg14
(lp73
S'space'
p74
asS'practice_trials.thisIndex'
p75
I3
sS'practice_trials.thisN'
p76
I0
sg34
g11
sg15
(lp77
F5.9332635023165494
asg51
L2L
sg54
L4L
sa(dp78
g18
F2.0169179074000567
sg29
g33
sg17
I1
sg47
L0L
sg48
g68
sg49
g70
sg35
g36
sg50
L7L
sS'practice_trials.thisTrialN'
p79
I1
sg52
L0L
sS'practice_trials.thisRepN'
p80
I0
sg37
g38
sg53
L2L
sg27
g28
sg16
S'7'
sg14
(lp81
S'space'
p82
asS'practice_trials.thisIndex'
p83
I2
sS'practice_trials.thisN'
p84
I1
sg34
g11
sg15
(lp85
F1.8500370346009731
asg51
L5L
sg54
L4L
sa(dp86
g18
F2.9500485528260469
sg29
g33
sg17
I1
sg47
L0L
sg48
g68
sg49
Vdecrease
p87
sg35
g36
sg50
L7L
sS'practice_trials.thisTrialN'
p88
I2
sg52
L0L
sS'practice_trials.thisRepN'
p89
I0
sg37
g38
sg53
L2L
sg27
g28
sg16
S'7'
sg14
(lp90
S'space'
p91
asS'practice_trials.thisIndex'
p92
I0
sS'practice_trials.thisN'
p93
I2
sg34
g11
sg15
(lp94
F3.6500111473724246
asg51
L5L
sg54
L3L
sa(dp95
g18
F2.0500694792717695
sg29
g33
sg17
I1
sg47
L0L
sg48
g87
sg49
VTIMES
p96
sg35
g36
sg50
L8L
sS'practice_trials.thisTrialN'
p97
I3
sg52
L0L
sS'practice_trials.thisRepN'
p98
I0
sg37
g38
sg53
L2L
sg27
g28
sg16
S'8'
sg14
(lp99
S'space'
p100
asS'practice_trials.thisIndex'
p101
I1
sS'practice_trials.thisN'
p102
I3
sg34
g11
sg15
(lp103
F2.8000319884158671
asg51
L3L
sg54
L3L
sa(dp104
g18
F5.9166569258086383
sg29
g33
sg17
I0
sg47
Vincrease
p105
sg48
VDIVIDE
p106
sg49
Vtriple
p107
sg35
g36
sg50
L3L
sS'practice_trials.thisTrialN'
p108
I4
sg52
L0L
sS'practice_trials.thisRepN'
p109
I0
sg37
g38
sg53
L3L
sg27
g28
sg16
S'4'
sg14
(lp110
S'space'
p111
asS'practice_trials.thisIndex'
p112
I4
sS'practice_trials.thisN'
p113
I4
sg34
g11
sg15
(lp114
F4.5166707246098667
asg51
L3L
sg54
L2L
sa(dp115
g18
F10.899902381468564
sg29
g33
sg17
I0
sg47
g105
sg48
g106
sg49
Vdouble
p116
sg35
g36
sg50
L9L
sS'practice_trials.thisTrialN'
p117
I5
sg52
g107
sS'practice_trials.thisRepN'
p118
I0
sg37
g38
sg53
L4L
sg27
g28
sg16
S'7'
sg14
(lp119
S'space'
p120
asS'practice_trials.thisIndex'
p121
I5
sS'practice_trials.thisN'
p122
I5
sg34
g11
sg15
(lp123
F5.6999788454268128
asg51
L8L
sg54
L8L
sa(dp124
S'block.thisTrialN'
p125
I0
sS'block.thisRepN'
p126
I0
sg29
g33
sS'block.thisN'
p127
I0
sg55
(S'TRIPLE'
S'INCREASE'
S'SUBTRACT'
S'x'
S'y'
tp128
sg27
g28
sg57
L3L
sg58
(I1
I2
I6
tp129
sg22
I1
sg20
F7.8832573159597814
sg23
F6.350001682061702
sVY
L2L
sVX
L3L
sg61
VSUBTRACT
p130
sg35
g36
sg37
g38
sg21
S'6'
sg19
S'space'
p131
sg34
g11
sg60
L6L
sg56
Vincrease
p132
sg59
L6L
sS'block.thisIndex'
p133
I9
sg62
Vtriple
p134
sg63
L0L
sg64
VUUBxy
p135
sa(dp136
S'block.thisTrialN'
p137
I1
sS'block.thisRepN'
p138
I0
sg29
g33
sS'block.thisN'
p139
I1
sg55
(S'THIRD'
S'INCREASE'
S'HALF'
S'TIMES'
S'x'
S'y'
tp140
sg27
g28
sg57
L4L
sg58
(I28
I14
I15
I5
tp141
sg22
I0
sg20
F8.1665900694206357
sg23
F18.733070260845125
sVY
L4L
sVX
L7L
sg61
Vhalf
p142
sg35
g36
sg37
g38
sg21
S'7'
sg19
S'space'
p143
sg34
g11
sg60
L5L
sg56
g132
sg59
L5L
sS'block.thisIndex'
p144
I17
sg62
Vthird
p145
sg63
VTIMES
p146
sg64
VUUUBxy
p147
sa(dp148
S'block.thisTrialN'
p149
I2
sS'block.thisRepN'
p150
I0
sg29
g33
sS'block.thisN'
p151
I2
sg55
(S'INCREASE'
S'TIMES'
S'TRIPLE'
S'HALF'
S'x'
S'y'
tp152
sg27
g28
sg57
L4L
sg58
(I1
I3
I6
I7
tp153
sg22
I1
sg20
F6.6832935805432498
sg23
F14.19983401405625
sVY
L2L
sVX
L2L
sg61
g134
sg35
g36
sg37
g38
sg21
S'7'
sg19
S'space'
p154
sg34
g11
sg60
L7L
sg56
g146
sg59
L7L
sS'block.thisIndex'
p155
I13
sg62
g132
sg63
g142
sg64
VUBUUxy
p156
sa(dp157
S'block.thisTrialN'
p158
I3
sS'block.thisRepN'
p159
I0
sg29
g33
sS'block.thisN'
p160
I3
sg55
(S'ADD'
S'HALF'
S'x'
S'y'
tp161
sg27
g28
sg57
L2L
sg58
(I2
I7
tp162
sg22
I1
sg20
F2.916714231017977
sg23
F1.900094824610278
sVY
L5L
sVX
L4L
sg61
L0L
sg35
g36
sg37
g38
sg21
S'7'
sg19
S'space'
p163
sg34
g11
sg60
L7L
sg56
g142
sg59
L7L
sS'block.thisIndex'
p164
I0
sg62
VADD
p165
sg63
L0L
sg64
VBUxy
p166
sa(dp167
S'block.thisTrialN'
p168
I4
sS'block.thisRepN'
p169
I0
sg29
g33
sS'block.thisN'
p170
I4
sg55
(S'SUBTRACT'
S'TRIPLE'
S'x'
S'y'
tp171
sg27
g28
sg57
L2L
sg58
(I12
I9
tp172
sg22
I1
sg20
F1.7167336749844253
sg23
F2.5834129240829498
sVY
L3L
sVX
L4L
sg61
L0L
sg35
g36
sg37
g38
sg21
S'9'
sg19
S'space'
p173
sg34
g11
sg60
L9L
sg56
g134
sg59
L9L
sS'block.thisIndex'
p174
I1
sg62
g130
sg63
L0L
sg64
g166
sa(dp175
S'block.thisTrialN'
p176
I5
sS'block.thisRepN'
p177
I0
sg29
g33
sS'block.thisN'
p178
I5
sg55
(S'HALF'
S'SUBTRACT'
S'DECREASE'
S'TRIPLE'
S'x'
S'y'
tp179
sg27
g28
sg57
L4L
sg58
(I15
I14
I10
I5
tp180
sg22
I1
sg20
F9.9832235027570277
sg23
F5.05010796780698
sVY
L4L
sVX
L5L
sg61
Vdecrease
p181
sg35
g36
sg37
g38
sg21
S'5'
sg19
S'space'
p182
sg34
g11
sg60
L5L
sg56
g130
sg59
L5L
sS'block.thisIndex'
p183
I12
sg62
g142
sg63
g134
sg64
g156
sa(dp184
S'block.thisTrialN'
p185
I6
sS'block.thisRepN'
p186
I0
sg29
g33
sS'block.thisN'
p187
I6
sg55
(S'DECREASE'
S'THIRD'
S'DOUBLE'
S'ADD'
S'x'
S'y'
tp188
sg27
g28
sg57
L4L
sg58
(I9
I18
I6
I5
tp189
sg22
I1
sg20
F16.133102078223601
sg23
F7.6499538421630859
sVY
L4L
sVX
L5L
sg61
Vdouble
p190
sg35
g36
sg37
g38
sg21
S'5'
sg19
S'space'
p191
sg34
g11
sg60
L5L
sg56
g145
sg59
L5L
sS'block.thisIndex'
p192
I16
sg62
g181
sg63
g165
sg64
g147
sa(dp193
S'block.thisTrialN'
p194
I7
sS'block.thisRepN'
p195
I0
sg29
g33
sS'block.thisN'
p196
I7
sg55
(S'INCREASE'
S'DIVIDE'
S'x'
S'y'
tp197
sg27
g28
sg57
L2L
sg58
(I4
I5
tp198
sg22
I1
sg20
F1.5000584458466619
sg23
F4.5333668233361095
sVY
L2L
sVX
L8L
sg61
L0L
sg35
g36
sg37
g38
sg21
S'5'
sg19
S'space'
p199
sg34
g11
sg60
L5L
sg56
VDIVIDE
p200
sg59
L5L
sS'block.thisIndex'
p201
I3
sg62
g132
sg63
L0L
sg64
VUBxy
p202
sa(dp203
S'block.thisTrialN'
p204
I8
sS'block.thisRepN'
p205
I0
sg29
g33
sS'block.thisN'
p206
I8
sg55
(S'TRIPLE'
S'DOUBLE'
S'SUBTRACT'
S'INCREASE'
S'x'
S'y'
tp207
sg27
g28
sg57
L4L
sg58
(I5
I1
I2
I6
tp208
sg22
I1
sg20
F6.5833365169819444
sg23
F8.1166343458462507
sVY
L4L
sVX
L4L
sg61
g130
sg35
g36
sg37
g38
sg21
S'6'
sg19
S'space'
p209
sg34
g11
sg60
L6L
sg56
g190
sg59
L6L
sS'block.thisIndex'
p210
I14
sg62
g134
sg63
g132
sg64
VUUBUxy
p211
sa(dp212
S'block.thisTrialN'
p213
I9
sS'block.thisRepN'
p214
I0
sg29
g33
sS'block.thisN'
p215
I9
sg55
(S'HALF'
S'TIMES'
S'DECREASE'
S'x'
S'y'
tp216
sg27
g28
sg57
L3L
sg58
(I8
I16
I8
tp217
sg22
I0
sg20
F3.1500943969003856
sg23
F6.7999863722361624
sVY
L2L
sVX
L9L
sg61
g181
sg35
g36
sg37
g38
sg21
S'7'
sg19
S'space'
p218
sg34
g11
sg60
L8L
sg56
g146
sg59
L8L
sS'block.thisIndex'
p219
I6
sg62
g142
sg63
L0L
sg64
VUBUxy
p220
sa(dp221
S'block.thisTrialN'
p222
I10
sS'block.thisRepN'
p223
I0
sg29
g33
sS'block.thisN'
p224
I10
sg55
(S'DIVIDE'
S'TRIPLE'
S'DECREASE'
S'x'
S'y'
tp225
sg27
g28
sg57
L3L
sg58
(I6
I18
I9
tp226
sg22
I0
sg20
F9.2166068048682064
sg23
F8.8166131912730634
sVY
L2L
sVX
L7L
sg61
g181
sg35
g36
sg37
g38
sg21
S'6'
sg19
S'space'
p227
sg34
g11
sg60
L9L
sg56
g134
sg59
L9L
sS'block.thisIndex'
p228
I4
sg62
g200
sg63
L0L
sg64
VBUUxy
p229
sa(dp230
S'block.thisTrialN'
p231
I11
sS'block.thisRepN'
p232
I0
sg29
g33
sS'block.thisN'
p233
I11
sg55
(S'INCREASE'
S'DIVIDE'
S'TRIPLE'
S'x'
S'y'
tp234
sg27
g28
sg57
L3L
sg58
(I6
I2
I3
tp235
sg22
I1
sg20
F3.7000167639926076
sg23
F6.3833337230607867
sVY
L3L
sVX
L2L
sg61
g134
sg35
g36
sg37
g38
sg21
S'3'
sg19
S'space'
p236
sg34
g11
sg60
L3L
sg56
g200
sg59
L3L
sS'block.thisIndex'
p237
I7
sg62
g132
sg63
L0L
sg64
g220
sa(dp238
S'block.thisTrialN'
p239
I12
sS'block.thisRepN'
p240
I0
sg29
g33
sS'block.thisN'
p241
I12
sg55
(S'TRIPLE'
S'INCREASE'
S'DIVIDE'
S'DOUBLE'
S'x'
S'y'
tp242
sg27
g28
sg57
L4L
sg58
(I16
I2
I3
I9
tp243
sg22
I0
sVY
L8L
sVX
L8L
sg61
g200
sg35
g36
sg37
g38
sg21
Nsg19
Nsg34
g11
sg60
L9L
sg56
g132
sg59
L9L
sS'block.thisIndex'
p244
I15
sg62
g134
sg63
g190
sg64
g211
sa(dp245
S'block.thisTrialN'
p246
I13
sS'block.thisRepN'
p247
I0
sg29
g33
sS'block.thisN'
p248
I13
sg55
(S'SUBTRACT'
S'INCREASE'
S'HALF'
S'x'
S'y'
tp249
sg27
g28
sg57
L3L
sg58
(I4
I5
I3
tp250
sg22
I0
sg20
F5.9999871705658734
sg23
F11.649911076994613
sVY
L2L
sVX
L8L
sg61
g142
sg35
g36
sg37
g38
sg21
S'6'
sg19
S'space'
p251
sg34
g11
sg60
L3L
sg56
g132
sg59
L3L
sS'block.thisIndex'
p252
I5
sg62
g130
sg63
L0L
sg64
g229
sa(dp253
S'block.thisTrialN'
p254
I14
sS'block.thisRepN'
p255
I0
sg29
g33
sS'block.thisN'
p256
I14
sg55
(S'TIMES'
S'HALF'
S'INCREASE'
S'THIRD'
S'x'
S'y'
tp257
sg27
g28
sg57
L4L
sg58
(I1
I2
I1
I9
tp258
sg22
I0
sg20
F1.4167464475613087
sg23
F0.30010896571911871
sVY
L9L
sVX
L3L
sg61
g132
sg35
g36
sg37
g38
sg21
S'4'
sg19
S'space'
p259
sg34
g11
sg60
L9L
sg56
g142
sg59
L9L
sS'block.thisIndex'
p260
I11
sg62
g146
sg63
g145
sg64
VBUUUxy
p261
sa(dp262
S'block.thisTrialN'
p263
I15
sS'block.thisRepN'
p264
I0
sg29
g33
sS'block.thisN'
p265
I15
sg55
(S'DIVIDE'
S'DOUBLE'
S'INCREASE'
S'TRIPLE'
S'x'
S'y'
tp266
sg27
g28
sg57
L4L
sg58
(I9
I10
I20
I5
tp267
sg22
I0
sg20
F7.2332909293472767
sg23
F12.366539264563471
sVY
L4L
sVX
L3L
sg61
g132
sg35
g36
sg37
g38
sg21
S'4'
sg19
S'space'
p268
sg34
g11
sg60
L5L
sg56
g190
sg59
L5L
sS'block.thisIndex'
p269
I10
sg62
g200
sg63
g134
sg64
g261
sa(dp270
S'block.thisTrialN'
p271
I16
sS'block.thisRepN'
p272
I0
sg29
g33
sS'block.thisN'
p273
I16
sg55
(S'DOUBLE'
S'DIVIDE'
S'x'
S'y'
tp274
sg27
g28
sg57
L2L
sg58
(I1
I2
tp275
sg22
I1
sg20
F1.5500868703238666
sg23
F2.7667521210387349
sVY
L8L
sVX
L8L
sg61
L0L
sg35
g36
sg37
g38
sg21
S'2'
sg19
S'space'
p276
sg34
g11
sg60
L2L
sg56
g200
sg59
L2L
sS'block.thisIndex'
p277
I2
sg62
g190
sg63
L0L
sg64
g202
sa(dp278
S'block.thisTrialN'
p279
I17
sS'block.thisRepN'
p280
I0
sg29
g33
sS'block.thisN'
p281
I17
sg55
(S'TRIPLE'
S'HALF'
S'ADD'
S'x'
S'y'
tp282
sg27
g28
sg57
L3L
sg58
(I6
I3
I9
tp283
sg22
I0
sg20
F3.5666834686417133
sg23
F5.850025630556047
sVY
L3L
sVX
L3L
sg61
g165
sg35
g36
sg37
g38
sg21
S'5'
sg19
S'space'
p284
sg34
g11
sg60
L9L
sg56
g142
sg59
L9L
sS'block.thisIndex'
p285
I8
sg62
g134
sg63
L0L
sg64
g135
sa(dp286
S'block.thisTrialN'
p287
I0
sS'block.thisRepN'
p288
I0
sg29
g33
sS'block.thisN'
p289
I0
sVRule
p290
(S'DECREASE'
S'TRIPLE'
S'HALF'
S'ADD'
S'x'
S'y'
tp291
sg27
g28
sVLength
p292
L4L
sVIntermediate
p293
(I6
I3
I9
I8
tp294
sg22
I0
sg20
F10.999873700086027
sg23
F13.516505080740899
sVY
L2L
sVX
L4L
sVOperatorc
p295
Vhalf
p296
sg35
g36
sg37
g38
sg21
S'5'
sg19
S'space'
p297
sg34
g11
sVResult
p298
L8L
sVOperatora
p299
Vtriple
p300
sVCorrectResponse
p301
L8L
sS'block.thisIndex'
p302
I16
sVOperatorb
p303
Vdecrease
p304
sVOperatord
p305
VADD
p306
sVStructure
p307
VUUUBxy
p308
sa(dp309
S'block.thisTrialN'
p310
I1
sS'block.thisRepN'
p311
I0
sg29
g33
sS'block.thisN'
p312
I1
sg290
(S'ADD'
S'THIRD'
S'x'
S'y'
tp313
sg27
g28
sg292
L2L
sg293
(I1
I7
tp314
sg22
I1
sg20
F2.5501025510020554
sg23
F3.9834016910754144
sVY
L6L
sVX
L3L
sg295
L0L
sg35
g36
sg37
g38
sg21
S'7'
sg19
S'space'
p315
sg34
g11
sg298
L7L
sg299
Vthird
p316
sg301
L7L
sS'block.thisIndex'
p317
I0
sg303
g306
sg305
L0L
sg307
VBUxy
p318
sa(dp319
S'block.thisTrialN'
p320
I2
sS'block.thisRepN'
p321
I0
sg29
g33
sS'block.thisN'
p322
I2
sg290
(S'SUBTRACT'
S'INCREASE'
S'x'
S'y'
tp323
sg27
g28
sg292
L2L
sg293
(I6
I2
tp324
sg22
I1
sg20
F2.8668092552106827
sg23
F3.3665791787207127
sVY
L4L
sVX
L5L
sg295
L0L
sg35
g36
sg37
g38
sg21
S'2'
sg19
S'space'
p325
sg34
g11
sg298
L2L
sg299
Vincrease
p326
sg301
L2L
sS'block.thisIndex'
p327
I1
sg303
VSUBTRACT
p328
sg305
L0L
sg307
g318
sa(dp329
S'block.thisTrialN'
p330
I3
sS'block.thisRepN'
p331
I0
sg29
g33
sS'block.thisN'
p332
I3
sg290
(S'DECREASE'
S'TRIPLE'
S'DIVIDE'
S'x'
S'y'
tp333
sg27
g28
sg292
L3L
sg293
(I2
I6
I5
tp334
sg22
I0
sg20
F5.4166626278311014
sg23
F6.9333276504185051
sVY
L4L
sVX
L8L
sg295
VDIVIDE
p335
sg35
g36
sg37
g38
sg21
S'7'
sg19
S'space'
p336
sg34
g11
sg298
L5L
sg299
g300
sg301
L5L
sS'block.thisIndex'
p337
I8
sg303
g304
sg305
L0L
sg307
VUUBxy
p338
sa(dp339
S'block.thisTrialN'
p340
I4
sS'block.thisRepN'
p341
I0
sg29
g33
sS'block.thisN'
p342
I4
sg290
(S'INCREASE'
S'SUBTRACT'
S'THIRD'
S'x'
S'y'
tp343
sg27
g28
sg292
L3L
sg293
(I3
I1
I2
tp344
sg22
I1
sg20
F11.166549014858902
sg23
F5.2333393965382129
sVY
L2L
sVX
L9L
sg295
g316
sg35
g36
sg37
g38
sg21
S'2'
sg19
S'space'
p345
sg34
g11
sg298
L2L
sg299
g328
sg301
L2L
sS'block.thisIndex'
p346
I7
sg303
g326
sg305
L0L
sg307
VUBUxy
p347
sa(dp348
S'block.thisTrialN'
p349
I5
sS'block.thisRepN'
p350
I0
sg29
g33
sS'block.thisN'
p351
I5
sg290
(S'DOUBLE'
S'ADD'
S'x'
S'y'
tp352
sg27
g28
sg292
L2L
sg293
(I4
I8
tp353
sg22
I0
sg20
F1.783292269334197
sg23
F3.2667632398661226
sVY
L2L
sVX
L2L
sg295
L0L
sg35
g36
sg37
g38
sg21
S'6'
sg19
S'space'
p354
sg34
g11
sg298
L8L
sg299
g306
sg301
L8L
sS'block.thisIndex'
p355
I2
sg303
Vdouble
p356
sg305
L0L
sg307
VUBxy
p357
sa(dp358
S'block.thisTrialN'
p359
I6
sS'block.thisRepN'
p360
I0
sg29
g33
sS'block.thisN'
p361
I6
sg290
(S'TIMES'
S'THIRD'
S'DOUBLE'
S'x'
S'y'
tp362
sg27
g28
sg292
L3L
sg293
(I6
I2
I4
tp363
sg22
I1
sg20
F7.3666230842936784
sg23
F7.5166558993514627
sVY
L2L
sVX
L3L
sg295
g356
sg35
g36
sg37
g38
sg21
S'4'
sg19
S'space'
p364
sg34
g11
sg298
L4L
sg299
g316
sg301
L4L
sS'block.thisIndex'
p365
I5
sg303
VTIMES
p366
sg305
L0L
sg307
VBUUxy
p367
sa(dp368
S'block.thisTrialN'
p369
I7
sS'block.thisRepN'
p370
I0
sg29
g33
sS'block.thisN'
p371
I7
sg290
(S'TRIPLE'
S'DOUBLE'
S'SUBTRACT'
S'DECREASE'
S'x'
S'y'
tp372
sg27
g28
sg292
L4L
sg293
(I4
I1
I2
I6
tp373
sg22
I0
sg20
F9.999904491007328
sg23
F12.099895481951535
sVY
L3L
sVX
L5L
sg295
g328
sg35
g36
sg37
g38
sg21
S'9'
sg19
S'space'
p374
sg34
g11
sg298
L6L
sg299
g356
sg301
L6L
sS'block.thisIndex'
p375
I15
sg303
g300
sg305
g304
sg307
VUUBUxy
p376
sa(dp377
S'block.thisTrialN'
p378
I8
sS'block.thisRepN'
p379
I0
sg29
g33
sS'block.thisN'
p380
I8
sg290
(S'INCREASE'
S'DIVIDE'
S'TRIPLE'
S'HALF'
S'x'
S'y'
tp381
sg27
g28
sg292
L4L
sg293
(I2
I6
I2
I3
tp382
sg22
I1
sg20
F7.8666148162446916
sg23
F14.016498523298651
sVY
L3L
sVX
L4L
sg295
g300
sg35
g36
sg37
g38
sg21
S'3'
sg19
S'space'
p383
sg34
g11
sg298
L3L
sg299
g335
sg301
L3L
sS'block.thisIndex'
p384
I12
sg303
g326
sg305
g296
sg307
VUBUUxy
p385
sa(dp386
S'block.thisTrialN'
p387
I9
sS'block.thisRepN'
p388
I0
sg29
g33
sS'block.thisN'
p389
I9
sg290
(S'INCREASE'
S'ADD'
S'TRIPLE'
S'x'
S'y'
tp390
sg27
g28
sg292
L3L
sg293
(I6
I8
I9
tp391
sg22
I1
sg20
F7.2332969163544476
sg23
F6.783296545734629
sVY
L2L
sVX
L2L
sg295
g300
sg35
g36
sg37
g38
sg21
S'9'
sg19
S'space'
p392
sg34
g11
sg298
L9L
sg299
g306
sg301
L9L
sS'block.thisIndex'
p393
I6
sg303
g326
sg305
L0L
sg307
g347
sa(dp394
S'block.thisTrialN'
p395
I10
sS'block.thisRepN'
p396
I0
sg29
g33
sS'block.thisN'
p397
I10
sg290
(S'THIRD'
S'INCREASE'
S'SUBTRACT'
S'x'
S'y'
tp398
sg27
g28
sg292
L3L
sg293
(I2
I3
I1
tp399
sg22
I0
sg20
F4.5500198716763407
sg23
F10.249906344106421
sVY
L6L
sVX
L8L
sg295
g328
sg35
g36
sg37
g38
sg21
S'4'
sg19
S'space'
p400
sg34
g11
sg298
L1L
sg299
g326
sg301
L1L
sS'block.thisIndex'
p401
I9
sg303
g316
sg305
L0L
sg307
g338
sa(dp402
S'block.thisTrialN'
p403
I11
sS'block.thisRepN'
p404
I0
sg29
g33
sS'block.thisN'
p405
I11
sg290
(S'DIVIDE'
S'TRIPLE'
S'HALF'
S'x'
S'y'
tp406
sg27
g28
sg292
L3L
sg293
(I4
I12
I4
tp407
sg22
I1
sg20
F3.4166979803703725
sg23
F4.7999909336213022
sVY
L3L
sVX
L8L
sg295
g296
sg35
g36
sg37
g38
sg21
S'4'
sg19
S'space'
p408
sg34
g11
sg298
L4L
sg299
g300
sg301
L4L
sS'block.thisIndex'
p409
I4
sg303
g335
sg305
L0L
sg307
g367
sa(dp410
S'block.thisTrialN'
p411
I12
sS'block.thisRepN'
p412
I0
sg29
g33
sS'block.thisN'
p413
I12
sg290
(S'THIRD'
S'TIMES'
S'HALF'
S'INCREASE'
S'x'
S'y'
tp414
sg27
g28
sg292
L4L
sg293
(I8
I4
I12
I4
tp415
sg22
I0
sg20
F6.3333087195642292
sg23
F6.1333341505378485
sVY
L3L
sVX
L7L
sg295
g296
sg35
g36
sg37
g38
sg21
S'5'
sg19
S'space'
p416
sg34
g11
sg298
L4L
sg299
g366
sg301
L4L
sS'block.thisIndex'
p417
I13
sg303
g316
sg305
g326
sg307
g385
sa(dp418
S'block.thisTrialN'
p419
I13
sS'block.thisRepN'
p420
I0
sg29
g33
sS'block.thisN'
p421
I13
sg290
(S'TIMES'
S'INCREASE'
S'HALF'
S'TRIPLE'
S'x'
S'y'
tp422
sg27
g28
sg292
L4L
sg293
(I6
I3
I4
I8
tp423
sg22
I0
sg20
F2.1500467851292342
sg23
F1.116771194152534
sVY
L2L
sVX
L2L
sg295
g296
sg35
g36
sg37
g38
sg21
S'6'
sg19
S'space'
p424
sg34
g11
sg298
L8L
sg299
g326
sg301
L8L
sS'block.thisIndex'
p425
I11
sg303
g366
sg305
g300
sg307
VBUUUxy
p426
sa(dp427
S'block.thisTrialN'
p428
I14
sS'block.thisRepN'
p429
I0
sg29
g33
sS'block.thisN'
p430
I14
sg290
(S'DOUBLE'
S'TIMES'
S'x'
S'y'
tp431
sg27
g28
sg292
L2L
sg293
(I4
I8
tp432
sg22
I1
sg20
F1.6167515222914517
sg23
F2.3834403508808464
sVY
L2L
sVX
L2L
sg295
L0L
sg35
g36
sg37
g38
sg21
S'8'
sg19
S'space'
p433
sg34
g11
sg298
L8L
sg299
g366
sg301
L8L
sS'block.thisIndex'
p434
I3
sg303
g356
sg305
L0L
sg307
g357
sa(dp435
S'block.thisTrialN'
p436
I15
sS'block.thisRepN'
p437
I0
sg29
g33
sS'block.thisN'
p438
I15
sg290
(S'DIVIDE'
S'DOUBLE'
S'INCREASE'
S'THIRD'
S'x'
S'y'
tp439
sg27
g28
sg292
L4L
sg293
(I2
I3
I6
I2
tp440
sg22
I0
sg20
F8.3999383039772511
sg23
F9.6999272422399372
sVY
L3L
sVX
L6L
sg295
g326
sg35
g36
sg37
g38
sg21
S'6'
sg19
S'space'
p441
sg34
g11
sg298
L2L
sg299
g356
sg301
L2L
sS'block.thisIndex'
p442
I10
sg303
g335
sg305
g316
sg307
g426
sa(dp443
S'block.thisTrialN'
p444
I16
sS'block.thisRepN'
p445
I0
sg29
g33
sS'block.thisN'
p446
I16
sg290
(S'THIRD'
S'INCREASE'
S'ADD'
S'DOUBLE'
S'x'
S'y'
tp447
sg27
g28
sg292
L4L
sg293
(I16
I20
I21
I7
tp448
sg22
I0
sg20
F6.0666472606826574
sg23
F3.6834198804572225
sVY
L4L
sVX
L8L
sg295
g306
sg35
g36
sg37
g38
sg21
S'4'
sg19
S'space'
p449
sg34
g11
sg298
L7L
sg299
g326
sg301
L7L
sS'block.thisIndex'
p450
I14
sg303
g316
sg305
g356
sg307
g376
sa(dp451
S'block.thisTrialN'
p452
I17
sS'block.thisRepN'
p453
I0
sg29
g33
sS'block.thisN'
p454
I17
sg290
(S'TRIPLE'
S'DECREASE'
S'HALF'
S'SUBTRACT'
S'x'
S'y'
tp455
sg27
g28
sg292
L4L
sg293
(I4
I2
I1
I3
tp456
sg22
I1
sg20
F2.2500916600693017
sg23
F0.85008635721169412
sVY
L5L
sVX
L9L
sg295
g296
sg35
g36
sg37
g38
sg21
S'3'
sg19
S'space'
p457
sg34
g11
sg298
L3L
sg299
g304
sg301
L3L
sS'block.thisIndex'
p458
I17
sg303
g300
sg305
g328
sg307
g308
sa(dp459
S'block.thisTrialN'
p460
I0
sS'block.thisRepN'
p461
I0
sg29
g33
sS'block.thisN'
p462
I0
sVRule
p463
(S'THIRD'
S'TIMES'
S'DECREASE'
S'x'
S'y'
tp464
sg27
g28
sVLength
p465
L3L
sVIntermediate
p466
(I3
I15
I5
tp467
sg22
I0
sg20
F5.5166219722013921
sg23
F12.449847556417808
sVY
L5L
sVX
L4L
sVOperatorc
p468
Vdecrease
p469
sg35
g36
sg37
g38
sg21
S'9'
sg19
S'space'
p470
sg34
g11
sVResult
p471
L5L
sVOperatora
p472
VTIMES
p473
sVCorrectResponse
p474
L5L
sS'block.thisIndex'
p475
I7
sVOperatorb
p476
Vthird
p477
sVOperatord
p478
L0L
sVStructure
p479
VUBUxy
p480
sa(dp481
S'block.thisTrialN'
p482
I1
sS'block.thisRepN'
p483
I0
sg29
g33
sS'block.thisN'
p484
I1
sg463
(S'INCREASE'
S'DIVIDE'
S'TRIPLE'
S'DOUBLE'
S'x'
S'y'
tp485
sg27
g28
sg465
L4L
sg466
(I6
I18
I3
I4
tp486
sg22
I1
sg20
F6.4832979142665863
sg23
F6.5666652221698314
sVY
L6L
sVX
L3L
sg468
Vtriple
p487
sg35
g36
sg37
g38
sg21
S'4'
sg19
S'space'
p488
sg34
g11
sg471
L4L
sg472
VDIVIDE
p489
sg474
L4L
sS'block.thisIndex'
p490
I12
sg476
Vincrease
p491
sg478
Vdouble
p492
sg479
VUBUUxy
p493
sa(dp494
S'block.thisTrialN'
p495
I2
sS'block.thisRepN'
p496
I0
sg29
g33
sS'block.thisN'
p497
I2
sg463
(S'TRIPLE'
S'SUBTRACT'
S'DOUBLE'
S'DECREASE'
S'x'
S'y'
tp498
sg27
g28
sg465
L4L
sg466
(I2
I4
I1
I3
tp499
sg22
I0
sg20
F10.1665709677618
sg23
F11.2332347643096
sVY
L3L
sVX
L3L
sg468
g492
sg35
g36
sg37
g38
sg21
S'9'
sg19
S'space'
p500
sg34
g11
sg471
L3L
sg472
VSUBTRACT
p501
sg474
L3L
sS'block.thisIndex'
p502
I13
sg476
g487
sg478
g469
sg479
g493
sa(dp503
S'block.thisTrialN'
p504
I3
sS'block.thisRepN'
p505
I0
sg29
g33
sS'block.thisN'
p506
I3
sg463
(S'TIMES'
S'DECREASE'
S'HALF'
S'x'
S'y'
tp507
sg27
g28
sg465
L3L
sg466
(I4
I3
I9
tp508
sg22
I1
sg20
F6.1999691519886255
sg23
F10.816590668167919
sVY
L3L
sVX
L8L
sg468
Vhalf
p509
sg35
g36
sg37
g38
sg21
S'9'
sg19
S'space'
p510
sg34
g11
sg471
L9L
sg472
g469
sg474
L9L
sS'block.thisIndex'
p511
I4
sg476
g473
sg478
L0L
sg479
VBUUxy
p512
sa(dp513
S'block.thisTrialN'
p514
I4
sS'block.thisRepN'
p515
I0
sg29
g33
sS'block.thisN'
p516
I4
sg463
(S'TIMES'
S'INCREASE'
S'x'
S'y'
tp517
sg27
g28
sg465
L2L
sg466
(I3
I6
tp518
sg22
I0
sg20
F1.9334014914929867
sg23
F4.4333786834031343
sVY
L2L
sVX
L2L
sg468
L0L
sg35
g36
sg37
g38
sg21
S'5'
sg19
S'space'
p519
sg34
g11
sg471
L6L
sg472
g491
sg474
L6L
sS'block.thisIndex'
p520
I1
sg476
g473
sg478
L0L
sg479
VBUxy
p521
sa(dp522
S'block.thisTrialN'
p523
I5
sS'block.thisRepN'
p524
I0
sg29
g33
sS'block.thisN'
p525
I5
sg463
(S'THIRD'
S'ADD'
S'INCREASE'
S'x'
S'y'
tp526
sg27
g28
sg465
L3L
sg466
(I8
I15
I5
tp527
sg22
I1
sg20
F7.8166074892506003
sg23
F6.3500128011219203
sVY
L7L
sVX
L7L
sg468
g491
sg35
g36
sg37
g38
sg21
S'5'
sg19
S'space'
p528
sg34
g11
sg471
L5L
sg472
VADD
p529
sg474
L5L
sS'block.thisIndex'
p530
I6
sg476
g477
sg478
L0L
sg479
g480
sa(dp531
S'block.thisTrialN'
p532
I6
sS'block.thisRepN'
p533
I0
sg29
g33
sS'block.thisN'
p534
I6
sg463
(S'TRIPLE'
S'DECREASE'
S'HALF'
S'TIMES'
S'x'
S'y'
tp535
sg27
g28
sg465
L4L
sg466
(I6
I3
I2
I6
tp536
sg22
I0
sg20
F6.2833011073525995
sg23
F8.049944034544751
sVY
L2L
sVX
L3L
sg468
g509
sg35
g36
sg37
g38
sg21
S'3'
sg19
S'space'
p537
sg34
g11
sg471
L6L
sg472
g469
sg474
L6L
sS'block.thisIndex'
p538
I17
sg476
g487
sg478
g473
sg479
VUUUBxy
p539
sa(dp540
S'block.thisTrialN'
p541
I7
sS'block.thisRepN'
p542
I0
sg29
g33
sS'block.thisN'
p543
I7
sg463
(S'THIRD'
S'SUBTRACT'
S'x'
S'y'
tp544
sg27
g28
sg465
L2L
sg466
(I3
I1
tp545
sg22
I0
sg20
F6.0999975481536239
sg23
F12.599826202262193
sVY
L2L
sVX
L5L
sg468
L0L
sg35
g36
sg37
g38
sg21
S'5'
sg19
S'space'
p546
sg34
g11
sg471
L1L
sg472
g501
sg474
L1L
sS'block.thisIndex'
p547
I3
sg476
g477
sg478
L0L
sg479
VUBxy
p548
sa(dp549
S'block.thisTrialN'
p550
I8
sS'block.thisRepN'
p551
I0
sg29
g33
sS'block.thisN'
p552
I8
sg463
(S'TRIPLE'
S'HALF'
S'ADD'
S'DECREASE'
S'x'
S'y'
tp553
sg27
g28
sg465
L4L
sg466
(I1
I4
I2
I6
tp554
sg22
I1
sg20
F1.7667515508364886
sg23
F1.06677356059663
sVY
L3L
sVX
L2L
sg468
g529
sg35
g36
sg37
g38
sg21
S'6'
sg19
S'space'
p555
sg34
g11
sg471
L6L
sg472
g509
sg474
L6L
sS'block.thisIndex'
p556
I15
sg476
g487
sg478
g469
sg479
VUUBUxy
p557
sa(dp558
S'block.thisTrialN'
p559
I9
sS'block.thisRepN'
p560
I0
sg29
g33
sS'block.thisN'
p561
I9
sg463
(S'THIRD'
S'ADD'
S'x'
S'y'
tp562
sg27
g28
sg465
L2L
sg466
(I9
I3
tp563
sg22
I0
sg20
F2.6667183651588857
sg23
F10.899869594722986
sVY
L5L
sVX
L4L
sg468
L0L
sg35
g36
sg37
g38
sg21
S'6'
sg19
S'space'
p564
sg34
g11
sg471
L3L
sg472
g529
sg474
L3L
sS'block.thisIndex'
p565
I2
sg476
g477
sg478
L0L
sg479
g548
sa(dp566
S'block.thisTrialN'
p567
I10
sS'block.thisRepN'
p568
I0
sg29
g33
sS'block.thisN'
p569
I10
sg463
(S'THIRD'
S'DOUBLE'
S'ADD'
S'INCREASE'
S'x'
S'y'
tp570
sg27
g28
sg465
L4L
sg466
(I10
I12
I24
I8
tp571
sg22
I0
sg20
F0.80008473224006593
sg23
F0.85010146745480597
sVY
L2L
sVX
L9L
sg468
g529
sg35
g36
sg37
g38
sg21
S'5'
sg19
S'space'
p572
sg34
g11
sg471
L8L
sg472
g492
sg474
L8L
sS'block.thisIndex'
p573
I14
sg476
g477
sg478
g491
sg479
g557
sa(dp574
S'block.thisTrialN'
p575
I11
sS'block.thisRepN'
p576
I0
sg29
g33
sS'block.thisN'
p577
I11
sg463
(S'TRIPLE'
S'HALF'
S'DIVIDE'
S'x'
S'y'
tp578
sg27
g28
sg465
L3L
sg466
(I2
I1
I3
tp579
sg22
I1
sg20
F6.6499800714664161
sg23
F7.5499845189042389
sVY
L2L
sVX
L4L
sg468
g489
sg35
g36
sg37
g38
sg21
S'3'
sg19
S'space'
p580
sg34
g11
sg471
L3L
sg472
g509
sg474
L3L
sS'block.thisIndex'
p581
I9
sg476
g487
sg478
L0L
sg479
VUUBxy
p582
sa(dp583
S'block.thisTrialN'
p584
I12
sS'block.thisRepN'
p585
I0
sg29
g33
sS'block.thisN'
p586
I12
sg463
(S'THIRD'
S'INCREASE'
S'HALF'
S'DIVIDE'
S'x'
S'y'
tp587
sg27
g28
sg465
L4L
sg466
(I4
I2
I3
I1
tp588
sg22
I0
sg20
F7.016658180160448
sg23
F11.38331005978398
sVY
L2L
sVX
L8L
sg468
g509
sg35
g36
sg37
g38
sg21
S'4'
sg19
S'space'
p589
sg34
g11
sg471
L1L
sg472
g491
sg474
L1L
sS'block.thisIndex'
p590
I16
sg476
g477
sg478
g489
sg479
g539
sa(dp591
S'block.thisTrialN'
p592
I13
sS'block.thisRepN'
p593
I0
sg29
g33
sS'block.thisN'
p594
I13
sg463
(S'SUBTRACT'
S'HALF'
S'INCREASE'
S'TRIPLE'
S'x'
S'y'
tp595
sg27
g28
sg465
L4L
sg466
(I15
I16
I8
I3
tp596
sg22
I1
sg20
F9.2831089491955936
sg23
F11.399888981599361
sVY
L5L
sVX
L5L
sg468
g491
sg35
g36
sg37
g38
sg21
S'3'
sg19
S'space'
p597
sg34
g11
sg471
L3L
sg472
g509
sg474
L3L
sS'block.thisIndex'
p598
I10
sg476
g501
sg478
g487
sg479
VBUUUxy
p599
sa(dp600
S'block.thisTrialN'
p601
I14
sS'block.thisRepN'
p602
I0
sg29
g33
sS'block.thisN'
p603
I14
sg463
(S'TIMES'
S'DECREASE'
S'x'
S'y'
tp604
sg27
g28
sg465
L2L
sg466
(I2
I4
tp605
sg22
I0
sg20
F1.1167458202689886
sg23
F2.9833891466259956
sVY
L2L
sVX
L3L
sg468
L0L
sg35
g36
sg37
g38
sg21
S'5'
sg19
S'space'
p606
sg34
g11
sg471
L4L
sg472
g469
sg474
L4L
sS'block.thisIndex'
p607
I0
sg476
g473
sg478
L0L
sg479
g521
sa(dp608
S'block.thisTrialN'
p609
I15
sS'block.thisRepN'
p610
I0
sg29
g33
sS'block.thisN'
p611
I15
sg463
(S'THIRD'
S'DECREASE'
S'TIMES'
S'x'
S'y'
tp612
sg27
g28
sg465
L3L
sg466
(I25
I24
I8
tp613
sg22
I0
sg20
F3.2667629548814148
sg23
F7.6166058355011046
sVY
L5L
sVX
L5L
sg468
g473
sg35
g36
sg37
g38
sg21
S'4'
sg19
S'space'
p614
sg34
g11
sg471
L8L
sg472
g469
sg474
L8L
sS'block.thisIndex'
p615
I8
sg476
g477
sg478
L0L
sg479
g582
sa(dp616
S'block.thisTrialN'
p617
I16
sS'block.thisRepN'
p618
I0
sg29
g33
sS'block.thisN'
p619
I16
sg463
(S'TIMES'
S'INCREASE'
S'THIRD'
S'DOUBLE'
S'x'
S'y'
tp620
sg27
g28
sg465
L4L
sg466
(I6
I2
I3
I9
tp621
sg22
I0
sg20
F9.3165630132425576
sg23
F11.66658778861165
sVY
L3L
sVX
L3L
sg468
g477
sg35
g36
sg37
g38
sg21
S'3'
sg19
S'space'
p622
sg34
g11
sg471
L9L
sg472
g491
sg474
L9L
sS'block.thisIndex'
p623
I11
sg476
g473
sg478
g492
sg479
g599
sa(dp624
S'block.thisTrialN'
p625
I17
sS'block.thisRepN'
p626
I0
sg29
g33
sS'block.thisN'
p627
I17
sg463
(S'TIMES'
S'THIRD'
S'HALF'
S'x'
S'y'
tp628
sg27
g28
sg465
L3L
sg466
(I3
I1
I5
tp629
sg22
I1
sg20
F1.6834033448249102
sg23
F11.166571537731215
sVY
L5L
sVX
L6L
sg468
g509
sg35
g36
sg37
g38
sg21
S'5'
sg19
S'space'
p630
sg34
g11
sg471
L5L
sg472
g477
sg474
L5L
sS'block.thisIndex'
p631
I5
sg476
g473
sg478
L0L
sg479
g512
sa(dp632
S'block.thisTrialN'
p633
I0
sS'block.thisRepN'
p634
I0
sg29
g33
sS'block.thisN'
p635
I0
sVRule
p636
(S'ADD'
S'DOUBLE'
S'x'
S'y'
tp637
sg27
g28
sVLength
p638
L2L
sVIntermediate
p639
(I4
I8
tp640
sg22
I1
sg20
F1.9333949342835695
sg23
F5.116676255594939
sVY
L4L
sVX
L2L
sVOperatorc
p641
L0L
sg35
g36
sg37
g38
sg21
S'8'
sg19
S'space'
p642
sg34
g11
sVResult
p643
L8L
sVOperatora
p644
Vdouble
p645
sVCorrectResponse
p646
L8L
sS'block.thisIndex'
p647
I0
sVOperatorb
p648
VADD
p649
sVOperatord
p650
L0L
sVStructure
p651
VBUxy
p652
sa(dp653
S'block.thisTrialN'
p654
I1
sS'block.thisRepN'
p655
I0
sg29
g33
sS'block.thisN'
p656
I1
sg636
(S'ADD'
S'THIRD'
S'INCREASE'
S'HALF'
S'x'
S'y'
tp657
sg27
g28
sg638
L4L
sg639
(I2
I3
I1
I7
tp658
sg22
I0
sg20
F9.7498995019122958
sg23
F6.0333805079571903
sVY
L6L
sVX
L4L
sg641
Vincrease
p659
sg35
g36
sg37
g38
sg21
S'5'
sg19
S'space'
p660
sg34
g11
sg643
L7L
sg644
Vthird
p661
sg646
L7L
sS'block.thisIndex'
p662
I10
sg648
g649
sg650
Vhalf
p663
sg651
VBUUUxy
p664
sa(dp665
S'block.thisTrialN'
p666
I2
sS'block.thisRepN'
p667
I0
sg29
g33
sS'block.thisN'
p668
I2
sg636
(S'DIVIDE'
S'DOUBLE'
S'x'
S'y'
tp669
sg27
g28
sg638
L2L
sg639
(I12
I2
tp670
sg22
I1
sg20
F1.3500758083537221
sg23
F3.5000861005391926
sVY
L6L
sVX
L6L
sg641
L0L
sg35
g36
sg37
g38
sg21
S'2'
sg19
S'space'
p671
sg34
g11
sg643
L2L
sg644
g645
sg646
L2L
sS'block.thisIndex'
p672
I1
sg648
VDIVIDE
p673
sg650
L0L
sg651
g652
sa(dp674
S'block.thisTrialN'
p675
I3
sS'block.thisRepN'
p676
I0
sg29
g33
sS'block.thisN'
p677
I3
sg636
(S'DOUBLE'
S'TRIPLE'
S'SUBTRACT'
S'x'
S'y'
tp678
sg27
g28
sg638
L3L
sg639
(I1
I3
I6
tp679
sg22
I1
sg20
F8.7499254459980875
sg23
F11.499886529520154
sVY
L3L
sVX
L4L
sg641
VSUBTRACT
p680
sg35
g36
sg37
g38
sg21
S'6'
sg19
S'space'
p681
sg34
g11
sg643
L6L
sg644
Vtriple
p682
sg646
L6L
sS'block.thisIndex'
p683
I9
sg648
g645
sg650
L0L
sg651
VUUBxy
p684
sa(dp685
S'block.thisTrialN'
p686
I4
sS'block.thisRepN'
p687
I0
sg29
g33
sS'block.thisN'
p688
I4
sg636
(S'INCREASE'
S'DIVIDE'
S'THIRD'
S'x'
S'y'
tp689
sg27
g28
sg638
L3L
sg639
(I3
I1
I2
tp690
sg22
I0
sg20
F7.2832674654200673
sg23
F7.3833006510976702
sVY
L3L
sVX
L9L
sg641
g661
sg35
g36
sg37
g38
sg21
S'3'
sg19
S'space'
p691
sg34
g11
sg643
L2L
sg644
g673
sg646
L2L
sS'block.thisIndex'
p692
I7
sg648
g659
sg650
L0L
sg651
VUBUxy
p693
sa(dp694
S'block.thisTrialN'
p695
I5
sS'block.thisRepN'
p696
I0
sg29
g33
sS'block.thisN'
p697
I5
sg636
(S'DIVIDE'
S'INCREASE'
S'DOUBLE'
S'THIRD'
S'x'
S'y'
tp698
sg27
g28
sg638
L4L
sg639
(I2
I4
I5
I1
tp699
sg22
I0
sg20
F10.79979677987285
sg23
F4.8500242051668465
sVY
L5L
sVX
L6L
sg641
g645
sg35
g36
sg37
g38
sg21
S'6'
sg19
S'space'
p700
sg34
g11
sg643
L1L
sg644
g659
sg646
L1L
sS'block.thisIndex'
p701
I11
sg648
g673
sg650
g661
sg651
g664
sa(dp702
S'block.thisTrialN'
p703
I6
sS'block.thisRepN'
p704
I0
sg29
g33
sS'block.thisN'
p705
I6
sg636
(S'DOUBLE'
S'TRIPLE'
S'DIVIDE'
S'DECREASE'
S'x'
S'y'
tp706
sg27
g28
sg638
L4L
sg639
(I8
I1
I3
I6
tp707
sg22
I0
sg20
F9.9832562895026058
sg23
F5.5666683581657708
sVY
L8L
sVX
L9L
sg641
g673
sg35
g36
sg37
g38
sg21
S'9'
sg19
S'space'
p708
sg34
g11
sg643
L6L
sg644
g682
sg646
L6L
sS'block.thisIndex'
p709
I15
sg648
g645
sg650
Vdecrease
p710
sg651
VUUBUxy
p711
sa(dp712
S'block.thisTrialN'
p713
I7
sS'block.thisRepN'
p714
I0
sg29
g33
sS'block.thisN'
p715
I7
sg636
(S'HALF'
S'TIMES'
S'x'
S'y'
tp716
sg27
g28
sg638
L2L
sg639
(I16
I8
tp717
sg22
I1
sg20
F4.9666696696076542
sg23
F2.3167531758081168
sVY
L4L
sVX
L4L
sg641
L0L
sg35
g36
sg37
g38
sg21
S'8'
sg19
S'space'
p718
sg34
g11
sg643
L8L
sg644
VTIMES
p719
sg646
L8L
sS'block.thisIndex'
p720
I3
sg648
g663
sg650
L0L
sg651
VUBxy
p721
sa(dp722
S'block.thisTrialN'
p723
I8
sS'block.thisRepN'
p724
I0
sg29
g33
sS'block.thisN'
p725
I8
sg636
(S'DOUBLE'
S'DECREASE'
S'SUBTRACT'
S'x'
S'y'
tp726
sg27
g28
sg638
L3L
sg639
(I5
I4
I8
tp727
sg22
I0
sg20
F12.999857164220884
sg23
F11.499891946557909
sVY
L2L
sVX
L7L
sg641
g680
sg35
g36
sg37
g38
sg21
S'1'
sg19
S'space'
p728
sg34
g11
sg643
L8L
sg644
g710
sg646
L8L
sS'block.thisIndex'
p729
I8
sg648
g645
sg650
L0L
sg651
g684
sa(dp730
S'block.thisTrialN'
p731
I9
sS'block.thisRepN'
p732
I0
sg29
g33
sS'block.thisN'
p733
I9
sg636
(S'DECREASE'
S'ADD'
S'DOUBLE'
S'THIRD'
S'x'
S'y'
tp734
sg27
g28
sg638
L4L
sg639
(I3
I6
I10
I9
tp735
sg22
I0
sg20
F2.3167255211155862
sg23
F0.25011304253712296
sVY
L4L
sVX
L9L
sg641
g645
sg35
g36
sg37
g38
sg21
S'2'
sg19
S'space'
p736
sg34
g11
sg643
L9L
sg644
g649
sg646
L9L
sS'block.thisIndex'
p737
I12
sg648
Vdecrease 
p738
sg650
g661
sg651
VUBUUxy
p739
sa(dp740
S'block.thisTrialN'
p741
I10
sS'block.thisRepN'
p742
I0
sg29
g33
sS'block.thisN'
p743
I10
sg636
(S'DIVIDE'
S'DOUBLE'
S'THIRD'
S'x'
S'y'
tp744
sg27
g28
sg638
L3L
sg639
(I2
I4
I1
tp745
sg22
I0
sg20
F12.550021297065541
sg23
F6.5833008794579655
sVY
L4L
sVX
L6L
sg641
g661
sg35
g36
sg37
g38
sg21
S'3'
sg19
S'space'
p746
sg34
g11
sg643
L1L
sg644
g645
sg646
L1L
sS'block.thisIndex'
p747
I4
sg648
g673
sg650
L0L
sg651
VBUUxy
p748
sa(dp749
S'block.thisTrialN'
p750
I11
sS'block.thisRepN'
p751
I0
sg29
g33
sS'block.thisN'
p752
I11
sg636
(S'DECREASE'
S'THIRD'
S'TIMES'
S'HALF'
S'x'
S'y'
tp753
sg27
g28
sg638
L4L
sg639
(I2
I12
I4
I3
tp754
sg22
I0
sg20
F1.0000635776668787
sg23
F0.3001078253146261
sVY
L6L
sVX
L4L
sg641
g719
sg35
g36
sg37
g38
sg21
S'2'
sg19
S'space'
p755
sg34
g11
sg643
L3L
sg644
g661
sg646
L3L
sS'block.thisIndex'
p756
I14
sg648
g710
sg650
g663
sg651
g711
sa(dp757
S'block.thisTrialN'
p758
I12
sS'block.thisRepN'
p759
I0
sg29
g33
sS'block.thisN'
p760
I12
sg636
(S'DECREASE'
S'HALF'
S'TRIPLE'
S'DIVIDE'
S'x'
S'y'
tp761
sg27
g28
sg638
L4L
sg639
(I4
I12
I6
I5
tp762
sg22
I0
sg20
F1.4334240145981312
sg23
F1.0499243626836687
sVY
L2L
sVX
L8L
sg641
g682
sg35
g36
sg37
g38
sg21
S'4'
sg19
S'space'
p763
sg34
g11
sg643
L5L
sg644
g663
sg646
L5L
sS'block.thisIndex'
p764
I16
sg648
g710
sg650
g673
sg651
VUUUBxy
p765
sa(dp766
S'block.thisTrialN'
p767
I13
sS'block.thisRepN'
p768
I0
sg29
g33
sS'block.thisN'
p769
I13
sg636
(S'DOUBLE'
S'SUBTRACT'
S'x'
S'y'
tp770
sg27
g28
sg638
L2L
sg639
(I1
I2
tp771
sg22
I0
sg20
F2.2834026033524424
sg23
F4.1167073317337781
sVY
L7L
sVX
L8L
sg641
L0L
sg35
g36
sg37
g38
sg21
S'9'
sg19
S'space'
p772
sg34
g11
sg643
L2L
sg644
g680
sg646
L2L
sS'block.thisIndex'
p773
I2
sg648
g645
sg650
L0L
sg651
g721
sa(dp774
S'block.thisTrialN'
p775
I14
sS'block.thisRepN'
p776
I0
sg29
g33
sS'block.thisN'
p777
I14
sg636
(S'SUBTRACT'
S'HALF'
S'TRIPLE'
S'x'
S'y'
tp778
sg27
g28
sg638
L3L
sg639
(I12
I6
I2
tp779
sg22
I0
sg20
F1.1834084766451269
sg23
F10.583232454955578
sVY
L4L
sVX
L4L
sg641
g682
sg35
g36
sg37
g38
sg21
S'1'
sg19
S'space'
p780
sg34
g11
sg643
L2L
sg644
g663
sg646
L2L
sS'block.thisIndex'
p781
I5
sg648
g680
sg650
L0L
sg651
g748
sa(dp782
S'block.thisTrialN'
p783
I15
sS'block.thisRepN'
p784
I0
sg29
g33
sS'block.thisN'
p785
I15
sg636
(S'HALF'
S'SUBTRACT'
S'TRIPLE'
S'x'
S'y'
tp786
sg27
g28
sg638
L3L
sg639
(I9
I2
I1
tp787
sg22
I0
sg20
F2.9333587263245136
sg23
F0.88343864027410746
sVY
L7L
sVX
L3L
sg641
g682
sg35
g36
sg37
g38
sg21
S'4'
sg19
S'space'
p788
sg34
g11
sg643
L1L
sg644
g680
sg646
L1L
sS'block.thisIndex'
p789
I6
sg648
g663
sg650
L0L
sg651
g693
sa(dp790
S'block.thisTrialN'
p791
I16
sS'block.thisRepN'
p792
I0
sg29
g33
sS'block.thisN'
p793
I16
sg636
(S'DOUBLE'
S'DECREASE'
S'TRIPLE'
S'DIVIDE'
S'x'
S'y'
tp794
sg27
g28
sg638
L4L
sg639
(I1
I3
I2
I4
tp795
sg22
I0
sg20
F1.0167573953513056
sg23
F0.60016575781628489
sVY
L4L
sVX
L4L
sg641
g682
sg35
g36
sg37
g38
sg21
S'2'
sg19
S'space'
p796
sg34
g11
sg643
L4L
sg644
g710
sg646
L4L
sS'block.thisIndex'
p797
I17
sg648
g645
sg650
g673
sg651
g765
sa(dp798
S'block.thisTrialN'
p799
I17
sS'block.thisRepN'
p800
I0
sg29
g33
sS'block.thisN'
p801
I17
sg636
(S'DECREASE'
S'TIMES'
S'DOUBLE'
S'THIRD'
S'x'
S'y'
tp802
sg27
g28
sg638
L4L
sg639
(I1
I2
I8
I7
tp803
sg22
I0
sg20
F0.76675326144322753
sg23
F0.31676771584898233
sVY
L4L
sVX
L3L
sg641
g645
sg35
g36
sg37
g38
sg21
S'3'
sg19
S'space'
p804
sg34
g11
sg643
L7L
sg644
g719
sg646
L7L
sS'block.thisIndex'
p805
I13
sg648
g710
sg650
g661
sg651
g739
sa(dp806
S'block.thisTrialN'
p807
I0
sS'block.thisRepN'
p808
I0
sg29
g33
sS'block.thisN'
p809
I0
sVRule
p810
(S'DOUBLE'
S'TIMES'
S'THIRD'
S'x'
S'y'
tp811
sg27
g28
sVLength
p812
L3L
sVIntermediate
p813
(I1
I4
I8
tp814
sg22
I1
sg20
F9.966572450241074
sg23
F3.7667258915025741
sVY
L4L
sVX
L3L
sVOperatorc
p815
Vthird
p816
sg35
g36
sg37
g38
sg21
S'8'
sg19
S'space'
p817
sg34
g11
sVResult
p818
L8L
sVOperatora
p819
VTIMES
p820
sVCorrectResponse
p821
L8L
sS'block.thisIndex'
p822
I6
sVOperatorb
p823
Vdouble
p824
sVOperatord
p825
L0L
sVStructure
p826
VUBUxy
p827
sa(dp828
S'block.thisTrialN'
p829
I1
sS'block.thisRepN'
p830
I0
sg29
g33
sS'block.thisN'
p831
I1
sg810
(S'ADD'
S'DECREASE'
S'HALF'
S'x'
S'y'
tp832
sg27
g28
sg812
L3L
sg813
(I3
I2
I6
tp833
sg22
I1
sg20
F5.4333302162121981
sg23
F12.366536698304117
sVY
L4L
sVX
L6L
sg815
Vhalf
p834
sg35
g36
sg37
g38
sg21
S'6'
sg19
S'space'
p835
sg34
g11
sg818
L6L
sg819
Vdecrease
p836
sg821
L6L
sS'block.thisIndex'
p837
I4
sg823
VADD
p838
sg825
L0L
sg826
VBUUxy
p839
sa(dp840
S'block.thisTrialN'
p841
I2
sS'block.thisRepN'
p842
I0
sg29
g33
sS'block.thisN'
p843
I2
sg810
(S'SUBTRACT'
S'THIRD'
S'x'
S'y'
tp844
sg27
g28
sg812
L2L
sg813
(I3
I1
tp845
sg22
I1
sg20
F1.5500805980991572
sg23
F2.0167491275351495
sVY
L2L
sVX
L9L
sg815
L0L
sg35
g36
sg37
g38
sg21
S'1'
sg19
S'space'
p846
sg34
g11
sg818
L1L
sg819
g816
sg821
L1L
sS'block.thisIndex'
p847
I0
sg823
VSUBTRACT
p848
sg825
L0L
sg826
VBUxy
p849
sa(dp850
S'block.thisTrialN'
p851
I3
sS'block.thisRepN'
p852
I0
sg29
g33
sS'block.thisN'
p853
I3
sg810
(S'INCREASE'
S'TRIPLE'
S'HALF'
S'ADD'
S'x'
S'y'
tp854
sg27
g28
sg812
L4L
sg813
(I4
I2
I6
I7
tp855
sg22
I0
sg20
F9.466570739634335
sg23
F8.5332735951524228
sVY
L2L
sVX
L2L
sg815
g834
sg35
g36
sg37
g38
sg21
S'6'
sg19
S'space'
p856
sg34
g11
sg818
L7L
sg819
Vtriple
p857
sg821
L7L
sS'block.thisIndex'
p858
I17
sg823
Vincrease
p859
sg825
g838
sg826
VUUUBxy
p860
sa(dp861
S'block.thisTrialN'
p862
I4
sS'block.thisRepN'
p863
I0
sg29
g33
sS'block.thisN'
p864
I4
sg810
(S'SUBTRACT'
S'DOUBLE'
S'DECREASE'
S'x'
S'y'
tp865
sg27
g28
sg812
L3L
sg813
(I8
I16
I7
tp866
sg22
I0
sg20
F9.9832309153862298
sg23
F14.549819445237517
sVY
L9L
sVX
L9L
sg815
g836
sg35
g36
sg37
g38
sg21
S'8'
sg19
S'space'
p867
sg34
g11
sg818
L7L
sg819
g824
sg821
L7L
sS'block.thisIndex'
p868
I5
sg823
g848
sg825
L0L
sg826
g839
sa(dp869
S'block.thisTrialN'
p870
I5
sS'block.thisRepN'
p871
I0
sg29
g33
sS'block.thisN'
p872
I5
sg810
(S'DECREASE'
S'HALF'
S'TRIPLE'
S'ADD'
S'x'
S'y'
tp873
sg27
g28
sg812
L4L
sg813
(I4
I12
I6
I5
tp874
sg22
I0
sg20
F13.866485950304195
sg23
F10.799894854659215
sVY
L2L
sVX
L2L
sg815
g857
sg35
g36
sg37
g38
sg21
S'4'
sg19
S'space'
p875
sg34
g11
sg818
L5L
sg819
g834
sg821
L5L
sS'block.thisIndex'
p876
I16
sg823
g836
sg825
g838
sg826
g860
sa(dp877
S'block.thisTrialN'
p878
I6
sS'block.thisRepN'
p879
I0
sg29
g33
sS'block.thisN'
p880
I6
sg810
(S'TIMES'
S'DECREASE'
S'THIRD'
S'DOUBLE'
S'x'
S'y'
tp881
sg27
g28
sg812
L4L
sg813
(I6
I2
I1
I2
tp882
sg22
I0
sg20
F5.7999632791616023
sg23
F11.183232283918187
sVY
L2L
sVX
L3L
sg815
g816
sg35
g36
sg37
g38
sg21
S'3'
sg19
S'space'
p883
sg34
g11
sg818
L2L
sg819
g836
sg821
L2L
sS'block.thisIndex'
p884
I11
sg823
g820
sg825
g824
sg826
VBUUUxy
p885
sa(dp886
S'block.thisTrialN'
p887
I7
sS'block.thisRepN'
p888
I0
sg29
g33
sS'block.thisN'
p889
I7
sg810
(S'THIRD'
S'INCREASE'
S'SUBTRACT'
S'HALF'
S'x'
S'y'
tp890
sg27
g28
sg812
L4L
sg813
(I4
I2
I3
I1
tp891
sg22
I0
sg20
F10.966555343940854
sg23
F1.1334330807439983
sVY
L2L
sVX
L8L
sg815
g848
sg35
g36
sg37
g38
sg21
S'4'
sg19
S'space'
p892
sg34
g11
sg818
L1L
sg819
g859
sg821
L1L
sS'block.thisIndex'
p893
I15
sg823
g816
sg825
g834
sg826
VUUBUxy
p894
sa(dp895
S'block.thisTrialN'
p896
I8
sS'block.thisRepN'
p897
I0
sg29
g33
sS'block.thisN'
p898
I8
sg810
(S'TRIPLE'
S'HALF'
S'TIMES'
S'x'
S'y'
tp899
sg27
g28
sg812
L3L
sg813
(I6
I3
I9
tp900
sg22
I1
sg20
F4.0333531382493675
sg23
F5.7333855829201639
sVY
L3L
sVX
L2L
sg815
g820
sg35
g36
sg37
g38
sg21
S'9'
sg19
S'space'
p901
sg34
g11
sg818
L9L
sg819
g834
sg821
L9L
sS'block.thisIndex'
p902
I9
sg823
g857
sg825
L0L
sg826
VUUBxy
p903
sa(dp904
S'block.thisTrialN'
p905
I9
sS'block.thisRepN'
p906
I0
sg29
g33
sS'block.thisN'
p907
I9
sg810
(S'TRIPLE'
S'SUBTRACT'
S'INCREASE'
S'HALF'
S'x'
S'y'
tp908
sg27
g28
sg812
L4L
sg813
(I3
I4
I1
I3
tp909
sg22
I0
sg20
F10.133213267661631
sg23
F12.899862752296031
sVY
L3L
sVX
L6L
sg815
g859
sg35
g36
sg37
g38
sg21
S'4'
sg19
S'space'
p910
sg34
g11
sg818
L3L
sg819
g848
sg821
L3L
sS'block.thisIndex'
p911
I13
sg823
g857
sg825
g834
sg826
VUBUUxy
p912
sa(dp913
S'block.thisTrialN'
p914
I10
sS'block.thisRepN'
p915
I0
sg29
g33
sS'block.thisN'
p916
I10
sg810
(S'INCREASE'
S'DIVIDE'
S'HALF'
S'x'
S'y'
tp917
sg27
g28
sg812
L3L
sg813
(I2
I1
I2
tp918
sg22
I1
sg20
F5.1333335805684328
sg23
F15.51641384838149
sVY
L2L
sVX
L4L
sg815
g834
sg35
g36
sg37
g38
sg21
S'2'
sg19
S'space'
p919
sg34
g11
sg818
L2L
sg819
VDIVIDE
p920
sg821
L2L
sS'block.thisIndex'
p921
I7
sg823
g859
sg825
L0L
sg826
g827
sa(dp922
S'block.thisTrialN'
p923
I11
sS'block.thisRepN'
p924
I0
sg29
g33
sS'block.thisN'
p925
I11
sg810
(S'TRIPLE'
S'SUBTRACT'
S'x'
S'y'
tp926
sg27
g28
sg812
L2L
sg813
(I2
I6
tp927
sg22
I1
sg20
F4.133349261013791
sg23
F8.3332750776316971
sVY
L6L
sVX
L8L
sg815
L0L
sg35
g36
sg37
g38
sg21
S'6'
sg19
S'space'
p928
sg34
g11
sg818
L6L
sg819
g848
sg821
L6L
sS'block.thisIndex'
p929
I3
sg823
g857
sg825
L0L
sg826
VUBxy
p930
sa(dp931
S'block.thisTrialN'
p932
I12
sS'block.thisRepN'
p933
I0
sg29
g33
sS'block.thisN'
p934
I12
sg810
(S'INCREASE'
S'TIMES'
S'x'
S'y'
tp935
sg27
g28
sg812
L2L
sg813
(I8
I9
tp936
sg22
I1
sg20
F1.3000804556068033
sg23
F2.4000794291496277
sVY
L4L
sVX
L2L
sg815
L0L
sg35
g36
sg37
g38
sg21
S'9'
sg19
S'space'
p937
sg34
g11
sg818
L9L
sg819
g820
sg821
L9L
sS'block.thisIndex'
p938
I2
sg823
g859
sg825
L0L
sg826
g930
sa(dp939
S'block.thisTrialN'
p940
I13
sS'block.thisRepN'
p941
I0
sg29
g33
sS'block.thisN'
p942
I13
sg810
(S'DIVIDE'
S'DECREASE'
S'THIRD'
S'DOUBLE'
S'x'
S'y'
tp943
sg27
g28
sg812
L4L
sg813
(I12
I4
I3
I1
tp944
sg22
I0
sg20
F5.43334846268408
sg23
F8.2166264769621193
sVY
L3L
sVX
L6L
sg815
g816
sg35
g36
sg37
g38
sg21
S'2'
sg19
S'space'
p945
sg34
g11
sg818
L1L
sg819
g836
sg821
L1L
sS'block.thisIndex'
p946
I10
sg823
g920
sg825
g824
sg826
g885
sa(dp947
S'block.thisTrialN'
p948
I14
sS'block.thisRepN'
p949
I0
sg29
g33
sS'block.thisN'
p950
I14
sg810
(S'DECREASE'
S'DIVIDE'
S'TRIPLE'
S'DOUBLE'
S'x'
S'y'
tp951
sg27
g28
sg812
L4L
sg813
(I6
I18
I2
I1
tp952
sg22
I0
sg20
F7.0166165553964674
sg23
F8.5333086627069861
sVY
L9L
sVX
L3L
sg815
g857
sg35
g36
sg37
g38
sg21
S'3'
sg19
S'space'
p953
sg34
g11
sg818
L1L
sg819
g920
sg821
L1L
sS'block.thisIndex'
p954
I12
sg823
g836
sg825
g824
sg826
g912
sa(dp955
S'block.thisTrialN'
p956
I15
sS'block.thisRepN'
p957
I0
sg29
g33
sS'block.thisN'
p958
I15
sg810
(S'TIMES'
S'THIRD'
S'x'
S'y'
tp959
sg27
g28
sg812
L2L
sg813
(I1
I4
tp960
sg22
I1
sg20
F1.0167571101337671
sg23
F2.1166215161792934
sVY
L4L
sVX
L3L
sg815
L0L
sg35
g36
sg37
g38
sg21
S'4'
sg19
S'space'
p961
sg34
g11
sg818
L4L
sg819
g816
sg821
L4L
sS'block.thisIndex'
p962
I1
sg823
g820
sg825
L0L
sg826
g849
sa(dp963
S'block.thisTrialN'
p964
I16
sS'block.thisRepN'
p965
I0
sg29
g33
sS'block.thisN'
p966
I16
sg810
(S'INCREASE'
S'HALF'
S'TIMES'
S'TRIPLE'
S'x'
S'y'
tp967
sg27
g28
sg812
L4L
sg813
(I6
I12
I6
I7
tp968
sg22
I0
sg20
F12.333149062935263
sg23
F17.733077958691865
sVY
L2L
sVX
L2L
sg815
g820
sg35
g36
sg37
g38
sg21
S'9'
sg19
S'space'
p969
sg34
g11
sg818
L7L
sg819
g834
sg821
L7L
sS'block.thisIndex'
p970
I14
sg823
g859
sg825
g857
sg826
g894
sa(dp971
S'block.thisTrialN'
p972
I17
sS'block.thisRepN'
p973
I0
sg29
g33
sS'block.thisN'
p974
I17
sg810
(S'DECREASE'
S'HALF'
S'DIVIDE'
S'x'
S'y'
tp975
sg27
g28
sg812
L3L
sg813
(I4
I2
I1
tp976
sg22
I0
sg20
F6.6832830319181085
sg23
F15.36646513803862
sVY
L2L
sVX
L8L
sg815
g920
sg35
g36
sg37
g38
sg21
S'3'
sg19
S'space'
p977
sg34
g11
sg818
L1L
sg819
g834
sg821
L1L
sS'block.thisIndex'
p978
I8
sg823
g836
sg825
L0L
sg826
g903
sa(dp979
S'block.thisTrialN'
p980
I0
sS'block.thisRepN'
p981
I0
sg29
g33
sS'block.thisN'
p982
I0
sVRule
p983
(S'DECREASE'
S'TRIPLE'
S'SUBTRACT'
S'DOUBLE'
S'x'
S'y'
tp984
sg27
g28
sVLength
p985
L4L
sVIntermediate
p986
(I6
I3
I9
I8
tp987
sg22
I0
sg20
F13.649840371916071
sVY
L3L
sVX
L3L
sVOperatorc
p988
VSUBTRACT
p989
sg35
g36
sg37
g38
sg21
Nsg19
S'space'
p990
sg34
g11
sVResult
p991
L8L
sVOperatora
p992
Vtriple
p993
sVCorrectResponse
p994
L8L
sS'block.thisIndex'
p995
I15
sVOperatorb
p996
Vdecrease
p997
sVOperatord
p998
Vdouble
p999
sVStructure
p1000
VUUBUxy
p1001
sa(dp1002
S'block.thisTrialN'
p1003
I1
sS'block.thisRepN'
p1004
I0
sg29
g33
sS'block.thisN'
p1005
I1
sg983
(S'INCREASE'
S'ADD'
S'HALF'
S'x'
S'y'
tp1006
sg27
g28
sg985
L3L
sg986
(I1
I4
I5
tp1007
sg22
I1
sg20
F4.9000494936481118
sg23
F6.5166482017375529
sVY
L3L
sVX
L2L
sg988
Vhalf
p1008
sg35
g36
sg37
g38
sg21
S'5'
sg19
S'space'
p1009
sg34
g11
sg991
L5L
sg992
VADD
p1010
sg994
L5L
sS'block.thisIndex'
p1011
I7
sg996
Vincrease
p1012
sg998
L0L
sg1000
VUBUxy
p1013
sa(dp1014
S'block.thisTrialN'
p1015
I2
sS'block.thisRepN'
p1016
I0
sg29
g33
sS'block.thisN'
p1017
I2
sg983
(S'ADD'
S'TRIPLE'
S'DOUBLE'
S'DECREASE'
S'x'
S'y'
tp1018
sg27
g28
sg985
L4L
sg986
(I1
I2
I6
I8
tp1019
sg22
I0
sg20
F8.0499178054742515
sg23
F12.299842110835016
sVY
L2L
sVX
L2L
sg988
g999
sg35
g36
sg37
g38
sg21
S'6'
sg19
S'space'
p1020
sg34
g11
sg991
L8L
sg992
g993
sg994
L8L
sS'block.thisIndex'
p1021
I11
sg996
g1010
sg998
g997
sg1000
VBUUUxy
p1022
sa(dp1023
S'block.thisTrialN'
p1024
I3
sS'block.thisRepN'
p1025
I0
sg29
g33
sS'block.thisN'
p1026
I3
sg983
(S'DECREASE'
S'SUBTRACT'
S'DOUBLE'
S'THIRD'
S'x'
S'y'
tp1027
sg27
g28
sg985
L4L
sg986
(I3
I6
I4
I3
tp1028
sg22
I0
sg20
F2.8000776045955718
sg23
F0.28341799904592335
sVY
L2L
sVX
L9L
sg988
g999
sg35
g36
sg37
g38
sg21
S'4'
sg19
S'space'
p1029
sg34
g11
sg991
L3L
sg992
g989
sg994
L3L
sS'block.thisIndex'
p1030
I13
sg996
g997
sg998
Vthird
p1031
sg1000
VUBUUxy
p1032
sa(dp1033
S'block.thisTrialN'
p1034
I4
sS'block.thisRepN'
p1035
I0
sg29
g33
sS'block.thisN'
p1036
I4
sg983
(S'ADD'
S'DOUBLE'
S'DECREASE'
S'x'
S'y'
tp1037
sg27
g28
sg985
L3L
sg986
(I1
I2
I7
tp1038
sg22
I0
sg20
F4.3000251459889114
sg23
F4.6666835825890303
sVY
L5L
sVX
L2L
sg988
g997
sg35
g36
sg37
g38
sg21
S'8'
sg19
S'space'
p1039
sg34
g11
sg991
L7L
sg992
g999
sg994
L7L
sS'block.thisIndex'
p1040
I4
sg996
g1010
sg998
L0L
sg1000
VBUUxy
p1041
sa(dp1042
S'block.thisTrialN'
p1043
I5
sS'block.thisRepN'
p1044
I0
sg29
g33
sS'block.thisN'
p1045
I5
sg983
(S'HALF'
S'ADD'
S'x'
S'y'
tp1046
sg27
g28
sg985
L2L
sg986
(I12
I6
tp1047
sg22
I1
sg20
F1.4667455067392439
sg23
F11.133254892658442
sVY
L8L
sVX
L4L
sg988
L0L
sg35
g36
sg37
g38
sg21
S'6'
sg19
S'space'
p1048
sg34
g11
sg991
L6L
sg992
g1010
sg994
L6L
sS'block.thisIndex'
p1049
I3
sg996
g1008
sg998
L0L
sg1000
VUBxy
p1050
sa(dp1051
S'block.thisTrialN'
p1052
I6
sS'block.thisRepN'
p1053
I0
sg29
g33
sS'block.thisN'
p1054
I6
sg983
(S'DIVIDE'
S'DECREASE'
S'x'
S'y'
tp1055
sg27
g28
sg985
L2L
sg986
(I8
I2
tp1056
sg22
I1
sg20
F1.933420023182407
sg23
F11.849870820529759
sVY
L4L
sVX
L9L
sg988
L0L
sg35
g36
sg37
g38
sg21
S'2'
sg19
S'space'
p1057
sg34
g11
sg991
L2L
sg992
g997
sg994
L2L
sS'block.thisIndex'
p1058
I1
sg996
VDIVIDE
p1059
sg998
L0L
sg1000
VBUxy
p1060
sa(dp1061
S'block.thisTrialN'
p1062
I7
sS'block.thisRepN'
p1063
I0
sg29
g33
sS'block.thisN'
p1064
I7
sg983
(S'DOUBLE'
S'SUBTRACT'
S'INCREASE'
S'x'
S'y'
tp1065
sg27
g28
sg985
L3L
sg986
(I4
I1
I2
tp1066
sg22
I1
sg20
F5.8499959802720696
sg23
F10.366587161552161
sVY
L3L
sVX
L3L
sg988
g1012
sg35
g36
sg37
g38
sg21
S'2'
sg19
S'space'
p1067
sg34
g11
sg991
L2L
sg992
g989
sg994
L2L
sS'block.thisIndex'
p1068
I6
sg996
g999
sg998
L0L
sg1000
g1013
sa(dp1069
S'block.thisTrialN'
p1070
I8
sS'block.thisRepN'
p1071
I0
sg29
g33
sS'block.thisN'
p1072
I8
sg983
(S'HALF'
S'INCREASE'
S'TIMES'
S'x'
S'y'
tp1073
sg27
g28
sg985
L3L
sg986
(I9
I10
I5
tp1074
sg22
I0
sg20
F3.2333479495719075
sg23
F13.999827228719369
sVY
L3L
sVX
L3L
sg988
VTIMES
p1075
sg35
g36
sg37
g38
sg21
S'6'
sg19
S'space'
p1076
sg34
g11
sg991
L5L
sg992
g1012
sg994
L5L
sS'block.thisIndex'
p1077
I9
sg996
g1008
sg998
L0L
sg1000
VUUBxy
p1078
sa(dp1079
S'block.thisTrialN'
p1080
I9
sS'block.thisRepN'
p1081
I0
sg29
g33
sS'block.thisN'
p1082
I9
sg983
(S'INCREASE'
S'HALF'
S'THIRD'
S'TIMES'
S'x'
S'y'
tp1083
sg27
g28
sg985
L4L
sg986
(I12
I4
I2
I3
tp1084
sg22
I0
sg20
F12.949831590754911
sg23
F7.6166340606287122
sVY
L4L
sVX
L3L
sg988
g1031
sg35
g36
sg37
g38
sg21
S'4'
sg19
S'space'
p1085
sg34
g11
sg991
L3L
sg992
g1008
sg994
L3L
sS'block.thisIndex'
p1086
I16
sg996
g1012
sg998
g1075
sg1000
VUUUBxy
p1087
sa(dp1088
S'block.thisTrialN'
p1089
I10
sS'block.thisRepN'
p1090
I0
sg29
g33
sS'block.thisN'
p1091
I10
sg983
(S'DECREASE'
S'ADD'
S'THIRD'
S'HALF'
S'x'
S'y'
tp1092
sg27
g28
sg985
L4L
sg986
(I3
I1
I7
I6
tp1093
sg22
I0
sg20
F8.2165922645945102
sg23
F0.26678091636858881
sVY
L6L
sVX
L6L
sg988
g1031
sg35
g36
sg37
g38
sg21
S'5'
sg19
S'space'
p1094
sg34
g11
sg991
L6L
sg992
g1010
sg994
L6L
sS'block.thisIndex'
p1095
I12
sg996
g997
sg998
g1008
sg1000
g1032
sa(dp1096
S'block.thisTrialN'
p1097
I11
sS'block.thisRepN'
p1098
I0
sg29
g33
sS'block.thisN'
p1099
I11
sg983
(S'ADD'
S'DECREASE'
S'x'
S'y'
tp1100
sg27
g28
sg985
L2L
sg986
(I2
I7
tp1101
sg22
I1
sg20
F0.83341335156001151
sg23
F7.3333007367327809
sVY
L5L
sVX
L3L
sg988
L0L
sg35
g36
sg37
g38
sg21
S'7'
sg19
S'space'
p1102
sg34
g11
sg991
L7L
sg992
g997
sg994
L7L
sS'block.thisIndex'
p1103
I0
sg996
g1010
sg998
L0L
sg1000
g1060
sa(dp1104
S'block.thisTrialN'
p1105
I12
sS'block.thisRepN'
p1106
I0
sg29
g33
sS'block.thisN'
p1107
I12
sg983
(S'ADD'
S'TRIPLE'
S'HALF'
S'x'
S'y'
tp1108
sg27
g28
sg985
L3L
sg986
(I2
I6
I8
tp1109
sg22
I1
sg20
F3.8333700161892921
sg23
F13.216528401942924
sVY
L2L
sVX
L4L
sg988
g1008
sg35
g36
sg37
g38
sg21
S'8'
sg19
S'space'
p1110
sg34
g11
sg991
L8L
sg992
g993
sg994
L8L
sS'block.thisIndex'
p1111
I5
sg996
g1010
sg998
L0L
sg1000
g1041
sa(dp1112
S'block.thisTrialN'
p1113
I13
sS'block.thisRepN'
p1114
I0
sg29
g33
sS'block.thisN'
p1115
I13
sg983
(S'DECREASE'
S'DOUBLE'
S'TIMES'
S'THIRD'
S'x'
S'y'
tp1116
sg27
g28
sg985
L4L
sg986
(I1
I3
I6
I5
tp1117
sg22
I0
sg20
F9.5832324549555779
sg23
F11.599895766936243
sVY
L3L
sVX
L3L
sg988
g1075
sg35
g36
sg37
g38
sg21
S'3'
sg19
S'space'
p1118
sg34
g11
sg991
L5L
sg992
g999
sg994
L5L
sS'block.thisIndex'
p1119
I14
sg996
g997
sg998
g1031
sg1000
g1001
sa(dp1120
S'block.thisTrialN'
p1121
I14
sS'block.thisRepN'
p1122
I0
sg29
g33
sS'block.thisN'
p1123
I14
sg983
(S'DOUBLE'
S'THIRD'
S'ADD'
S'x'
S'y'
tp1124
sg27
g28
sg985
L3L
sg986
(I9
I3
I6
tp1125
sg22
I0
sg20
F3.9334254399873316
sg23
F12.883178912801668
sVY
L4L
sVX
L5L
sg988
g1010
sg35
g36
sg37
g38
sg21
S'3'
sg19
S'space'
p1126
sg34
g11
sg991
L6L
sg992
g1031
sg994
L6L
sS'block.thisIndex'
p1127
I8
sg996
g999
sg998
L0L
sg1000
g1078
sa(dp1128
S'block.thisTrialN'
p1129
I15
sS'block.thisRepN'
p1130
I0
sg29
g33
sS'block.thisN'
p1131
I15
sg983
(S'DECREASE'
S'TIMES'
S'x'
S'y'
tp1132
sg27
g28
sg985
L2L
sg986
(I9
I8
tp1133
sg22
I0
sg20
F1.2500714180059731
sg23
F2.3834246704354882
sVY
L3L
sVX
L3L
sg988
L0L
sg35
g36
sg37
g38
sg21
S'6'
sg19
S'space'
p1134
sg34
g11
sg991
L8L
sg992
g1075
sg994
L8L
sS'block.thisIndex'
p1135
I2
sg996
g997
sg998
L0L
sg1000
g1050
sa(dp1136
S'block.thisTrialN'
p1137
I16
sS'block.thisRepN'
p1138
I0
sg29
g33
sS'block.thisN'
p1139
I16
sg983
(S'ADD'
S'DECREASE'
S'THIRD'
S'DOUBLE'
S'x'
S'y'
tp1140
sg27
g28
sg985
L4L
sg986
(I18
I6
I5
I9
tp1141
sg22
I1
sg20
F2.4500562504399568
sg23
F12.683372268686071
sVY
L4L
sVX
L9L
sg988
g1031
sg35
g36
sg37
g38
sg21
S'9'
sg19
S'space'
p1142
sg34
g11
sg991
L9L
sg992
g997
sg994
L9L
sS'block.thisIndex'
p1143
I10
sg996
g1010
sg998
g999
sg1000
g1022
sa(dp1144
S'block.thisTrialN'
p1145
I17
sS'block.thisRepN'
p1146
I0
sg29
g33
sS'block.thisN'
p1147
I17
sg983
(S'THIRD'
S'HALF'
S'INCREASE'
S'SUBTRACT'
S'x'
S'y'
tp1148
sg27
g28
sg985
L4L
sg986
(I5
I6
I3
I1
tp1149
sg22
I0
sg20
F6.2999798147939146
sg23
F4.1000542833935469
sVY
L2L
sVX
L7L
sg988
g1012
sg35
g36
sg37
g38
sg21
S'4'
sg19
S'space'
p1150
sg34
g11
sg991
L1L
sg992
g1008
sg994
L1L
sS'block.thisIndex'
p1151
I17
sg996
g1031
sg998
g989
sg1000
g1087
sa(dp1152
S'block.thisTrialN'
p1153
I0
sS'block.thisRepN'
p1154
I0
sg29
g33
sS'block.thisN'
p1155
I0
sVRule
p1156
(S'DECREASE'
S'DIVIDE'
S'x'
S'y'
tp1157
sg27
g28
sVLength
p1158
L2L
sVIntermediate
p1159
(I2
I1
tp1160
sg22
I1
sg20
F5.6666448088362813
sg23
F6.6499852032866329
sVY
L4L
sVX
L8L
sVOperatorc
p1161
L0L
sg35
g36
sg37
g38
sg21
S'1'
sg19
S'space'
p1162
sg34
g11
sVResult
p1163
L1L
sVOperatora
p1164
VDIVIDE
p1165
sVCorrectResponse
p1166
L1L
sS'block.thisIndex'
p1167
I2
sVOperatorb
p1168
Vdecrease
p1169
sVOperatord
p1170
L0L
sVStructure
p1171
VUBxy
p1172
sa(dp1173
S'block.thisTrialN'
p1174
I1
sS'block.thisRepN'
p1175
I0
sg29
g33
sS'block.thisN'
p1176
I1
sg1156
(S'HALF'
S'TRIPLE'
S'INCREASE'
S'DIVIDE'
S'x'
S'y'
tp1177
sg27
g28
sg1158
L4L
sg1159
(I3
I4
I12
I6
tp1178
sg22
I0
sg20
F12.266608144855127
sg23
F7.1499971775338054
sVY
L3L
sVX
L9L
sg1161
Vincrease
p1179
sg35
g36
sg37
g38
sg21
S'3'
sg19
S'space'
p1180
sg34
g11
sg1163
L6L
sg1164
Vtriple
p1181
sg1166
L6L
sS'block.thisIndex'
p1182
I16
sg1168
Vhalf
p1183
sg1170
g1165
sg1171
VUUUBxy
p1184
sa(dp1185
S'block.thisTrialN'
p1186
I2
sS'block.thisRepN'
p1187
I0
sg29
g33
sS'block.thisN'
p1188
I2
sg1156
(S'DIVIDE'
S'INCREASE'
S'x'
S'y'
tp1189
sg27
g28
sg1158
L2L
sg1159
(I4
I2
tp1190
sg22
I0
sg20
F2.1500718740280718
sg23
F1.8000924298539758
sVY
L2L
sVX
L3L
sg1161
L0L
sg35
g36
sg37
g38
sg21
S'1'
sg19
S'space'
p1191
sg34
g11
sg1163
L2L
sg1164
g1179
sg1166
L2L
sS'block.thisIndex'
p1192
I0
sg1168
g1165
sg1170
L0L
sg1171
VBUxy
p1193
sa(dp1194
S'block.thisTrialN'
p1195
I3
sS'block.thisRepN'
p1196
I0
sg29
g33
sS'block.thisN'
p1197
I3
sg1156
(S'THIRD'
S'TIMES'
S'DOUBLE'
S'DECREASE'
S'x'
S'y'
tp1198
sg27
g28
sg1158
L4L
sg1159
(I1
I2
I6
I2
tp1199
sg22
I0
sg20
F8.3499452320393175
sg23
F12.299872046569362
sVY
L3L
sVX
L2L
sg1161
Vdouble
p1200
sg35
g36
sg37
g38
sg21
S'6'
sg19
S'space'
p1201
sg34
g11
sg1163
L2L
sg1164
VTIMES
p1202
sg1166
L2L
sS'block.thisIndex'
p1203
I13
sg1168
Vthird
p1204
sg1170
g1169
sg1171
VUBUUxy
p1205
sa(dp1206
S'block.thisTrialN'
p1207
I4
sS'block.thisRepN'
p1208
I0
sg29
g33
sS'block.thisN'
p1209
I4
sg1156
(S'SUBTRACT'
S'DECREASE'
S'x'
S'y'
tp1210
sg27
g28
sg1158
L2L
sg1159
(I5
I3
tp1211
sg22
I1
sg20
F1.6667631259188056
sg23
F5.0333588402718306
sVY
L2L
sVX
L6L
sg1161
L0L
sg35
g36
sg37
g38
sg21
S'3'
sg19
S'space'
p1212
sg34
g11
sg1163
L3L
sg1164
g1169
sg1166
L3L
sS'block.thisIndex'
p1213
I1
sg1168
VSUBTRACT
p1214
sg1170
L0L
sg1171
g1193
sa(dp1215
S'block.thisTrialN'
p1216
I5
sS'block.thisRepN'
p1217
I0
sg29
g33
sS'block.thisN'
p1218
I5
sg1156
(S'HALF'
S'ADD'
S'TRIPLE'
S'x'
S'y'
tp1219
sg27
g28
sg1158
L3L
sg1159
(I9
I12
I6
tp1220
sg22
I0
sg20
F4.6666582087054849
sg23
F18.216423199744895
sVY
L3L
sVX
L3L
sg1161
g1181
sg35
g36
sg37
g38
sg21
S'3'
sg19
S'space'
p1221
sg34
g11
sg1163
L6L
sg1164
VADD
p1222
sg1166
L6L
sS'block.thisIndex'
p1223
I6
sg1168
g1183
sg1170
L0L
sg1171
VUBUxy
p1224
sa(dp1225
S'block.thisTrialN'
p1226
I6
sS'block.thisRepN'
p1227
I0
sg29
g33
sS'block.thisN'
p1228
I6
sg1156
(S'THIRD'
S'DOUBLE'
S'INCREASE'
S'TIMES'
S'x'
S'y'
tp1229
sg27
g28
sg1158
L4L
sg1159
(I8
I9
I18
I6
tp1230
sg22
I0
sg20
F12.033226838568226
sg23
F12.249862438533455
sVY
L4L
sVX
L2L
sg1161
g1179
sg35
g36
sg37
g38
sg21
S'4'
sg19
S'space'
p1231
sg34
g11
sg1163
L6L
sg1164
g1200
sg1166
L6L
sS'block.thisIndex'
p1232
I17
sg1168
g1204
sg1170
g1202
sg1171
g1184
sa(dp1233
S'block.thisTrialN'
p1234
I7
sS'block.thisRepN'
p1235
I0
sg29
g33
sS'block.thisN'
p1236
I7
sg1156
(S'THIRD'
S'HALF'
S'ADD'
S'x'
S'y'
tp1237
sg27
g28
sg1158
L3L
sg1159
(I6
I3
I1
tp1238
sg22
I1
sg20
F3.1333866093773395
sg23
F9.5165891856886446
sVY
L3L
sVX
L3L
sg1161
g1222
sg35
g36
sg37
g38
sg21
S'1'
sg19
S'space'
p1239
sg34
g11
sg1163
L1L
sg1164
g1183
sg1166
L1L
sS'block.thisIndex'
p1240
I9
sg1168
g1204
sg1170
L0L
sg1171
VUUBxy
p1241
sa(dp1242
S'block.thisTrialN'
p1243
I8
sS'block.thisRepN'
p1244
I0
sg29
g33
sS'block.thisN'
p1245
I8
sg1156
(S'ADD'
S'DOUBLE'
S'DECREASE'
S'THIRD'
S'x'
S'y'
tp1246
sg27
g28
sg1158
L4L
sg1159
(I2
I1
I2
I8
tp1247
sg22
I0
sg20
F8.9665915521327406
sg23
F9.2999293520115316
sVY
L6L
sVX
L6L
sg1161
g1169
sg35
g36
sg37
g38
sg21
S'9'
sg19
S'space'
p1248
sg34
g11
sg1163
L8L
sg1164
g1200
sg1166
L8L
sS'block.thisIndex'
p1249
I10
sg1168
g1222
sg1170
g1204
sg1171
VBUUUxy
p1250
sa(dp1251
S'block.thisTrialN'
p1252
I9
sS'block.thisRepN'
p1253
I0
sg29
g33
sS'block.thisN'
p1254
I9
sg1156
(S'INCREASE'
S'ADD'
S'x'
S'y'
tp1255
sg27
g28
sg1158
L2L
sg1159
(I5
I6
tp1256
sg22
I1
sg20
F1.2834037439897656
sg23
F7.2333202948793769
sVY
L2L
sVX
L3L
sg1161
L0L
sg35
g36
sg37
g38
sg21
S'6'
sg19
S'space'
p1257
sg34
g11
sg1163
L6L
sg1164
g1222
sg1166
L6L
sS'block.thisIndex'
p1258
I3
sg1168
g1179
sg1170
L0L
sg1171
g1172
sa(dp1259
S'block.thisTrialN'
p1260
I10
sS'block.thisRepN'
p1261
I0
sg29
g33
sS'block.thisN'
p1262
I10
sg1156
(S'DOUBLE'
S'ADD'
S'INCREASE'
S'THIRD'
S'x'
S'y'
tp1263
sg27
g28
sg1158
L4L
sg1159
(I1
I2
I4
I8
tp1264
sg22
I0
sg20
F10.433221592800692
sg23
F8.7832911289297044
sVY
L2L
sVX
L3L
sg1161
g1179
sg35
g36
sg37
g38
sg21
S'3'
sg19
S'space'
p1265
sg34
g11
sg1163
L8L
sg1164
g1222
sg1166
L8L
sS'block.thisIndex'
p1266
I12
sg1168
g1200
sg1170
g1204
sg1171
g1205
sa(dp1267
S'block.thisTrialN'
p1268
I11
sS'block.thisRepN'
p1269
I0
sg29
g33
sS'block.thisN'
p1270
I11
sg1156
(S'SUBTRACT'
S'DECREASE'
S'TRIPLE'
S'DOUBLE'
S'x'
S'y'
tp1271
sg27
g28
sg1158
L4L
sg1159
(I6
I18
I17
I8
tp1272
sg22
I0
sg20
F5.4499878261703998
sg23
F14.59979883255437
sVY
L9L
sVX
L3L
sg1161
g1181
sg35
g36
sg37
g38
sg21
S'3'
sg19
S'space'
p1273
sg34
g11
sg1163
L8L
sg1164
g1169
sg1166
L8L
sS'block.thisIndex'
p1274
I11
sg1168
g1214
sg1170
g1200
sg1171
g1250
sa(dp1275
S'block.thisTrialN'
p1276
I12
sS'block.thisRepN'
p1277
I0
sg29
g33
sS'block.thisN'
p1278
I12
sg1156
(S'DIVIDE'
S'DECREASE'
S'TRIPLE'
S'x'
S'y'
tp1279
sg27
g28
sg1158
L3L
sg1159
(I9
I8
I4
tp1280
sg22
I1
sg20
F2.1667272031772882
sg23
F8.0832686629146338
sVY
L2L
sVX
L3L
sg1161
g1181
sg35
g36
sg37
g38
sg21
S'4'
sg19
S'space'
p1281
sg34
g11
sg1163
L4L
sg1164
g1169
sg1166
L4L
sS'block.thisIndex'
p1282
I5
sg1168
g1165
sg1170
L0L
sg1171
VBUUxy
p1283
sa(dp1284
S'block.thisTrialN'
p1285
I13
sS'block.thisRepN'
p1286
I0
sg29
g33
sS'block.thisN'
p1287
I13
sg1156
(S'INCREASE'
S'TRIPLE'
S'DIVIDE'
S'x'
S'y'
tp1288
sg27
g28
sg1158
L3L
sg1159
(I2
I6
I7
tp1289
sg22
I0
sg20
F9.0499229370616376
sg23
F6.866635913727805
sVY
L3L
sVX
L6L
sg1161
g1165
sg35
g36
sg37
g38
sg21
S'6'
sg19
S'space'
p1290
sg34
g11
sg1163
L7L
sg1164
g1181
sg1166
L7L
sS'block.thisIndex'
p1291
I8
sg1168
g1179
sg1170
L0L
sg1171
g1241
sa(dp1292
S'block.thisTrialN'
p1293
I14
sS'block.thisRepN'
p1294
I0
sg29
g33
sS'block.thisN'
p1295
I14
sg1156
(S'THIRD'
S'DOUBLE'
S'ADD'
S'DECREASE'
S'x'
S'y'
tp1296
sg27
g28
sg1158
L4L
sg1159
(I5
I12
I24
I8
tp1297
sg22
I0
sg20
F10.466553348349407
sg23
F0.35010916530154645
sVY
L7L
sVX
L6L
sg1161
g1222
sg35
g36
sg37
g38
sg21
S'3'
sg19
S'space'
p1298
sg34
g11
sg1163
L8L
sg1164
g1200
sg1166
L8L
sS'block.thisIndex'
p1299
I14
sg1168
g1204
sg1170
g1169
sg1171
VUUBUxy
p1300
sa(dp1301
S'block.thisTrialN'
p1302
I15
sS'block.thisRepN'
p1303
I0
sg29
g33
sS'block.thisN'
p1304
I15
sg1156
(S'ADD'
S'HALF'
S'THIRD'
S'x'
S'y'
tp1305
sg27
g28
sg1158
L3L
sg1159
(I2
I1
I9
tp1306
sg22
I1
sg20
F2.7667313085403293
sg23
F5.8333571869879961
sVY
L8L
sVX
L6L
sg1161
g1204
sg35
g36
sg37
g38
sg21
S'9'
sg19
S'space'
p1307
sg34
g11
sg1163
L9L
sg1164
g1183
sg1166
L9L
sS'block.thisIndex'
p1308
I4
sg1168
g1222
sg1170
L0L
sg1171
g1283
sa(dp1309
S'block.thisTrialN'
p1310
I16
sS'block.thisRepN'
p1311
I0
sg29
g33
sS'block.thisN'
p1312
I16
sg1156
(S'THIRD'
S'INCREASE'
S'DIVIDE'
S'DOUBLE'
S'x'
S'y'
tp1313
sg27
g28
sg1158
L4L
sg1159
(I18
I2
I3
I1
tp1314
sg22
I0
sg20
F8.1999483397230506
sg23
F8.5666133337654173
sVY
L9L
sVX
L9L
sg1161
g1165
sg35
g36
sg37
g38
sg21
S'3'
sg19
S'space'
p1315
sg34
g11
sg1163
L1L
sg1164
g1179
sg1166
L1L
sS'block.thisIndex'
p1316
I15
sg1168
g1204
sg1170
g1200
sg1171
g1300
sa(dp1317
S'block.thisTrialN'
p1318
I17
sS'block.thisRepN'
p1319
I0
sg29
g33
sS'block.thisN'
p1320
I17
sg1156
(S'INCREASE'
S'SUBTRACT'
S'HALF'
S'x'
S'y'
tp1321
sg27
g28
sg1158
L3L
sg1159
(I4
I2
I3
tp1322
sg22
I0
sg20
F4.6833554478362203
sg23
F8.783259482588619
sVY
L2L
sVX
L8L
sg1161
g1183
sg35
g36
sg37
g38
sg21
S'4'
sg19
S'space'
p1323
sg34
g11
sg1163
L3L
sg1164
g1214
sg1166
L3L
sS'block.thisIndex'
p1324
I7
sg1168
g1179
sg1170
L0L
sg1171
g1224
sa(dp1325
S'block.thisTrialN'
p1326
I0
sS'block.thisRepN'
p1327
I0
sg29
g33
sS'block.thisN'
p1328
I0
sVRule
p1329
(S'DOUBLE'
S'DIVIDE'
S'TRIPLE'
S'INCREASE'
S'x'
S'y'
tp1330
sg27
g28
sVLength
p1331
L4L
sVIntermediate
p1332
(I5
I15
I3
I6
tp1333
sg22
I0
sg20
F11.216553491074592
sg23
F10.866584310540929
sVY
L5L
sVX
L4L
sVOperatorc
p1334
Vtriple
p1335
sg35
g36
sg37
g38
sg21
S'4'
sg19
S'space'
p1336
sg34
g11
sVResult
p1337
L6L
sVOperatora
p1338
VDIVIDE
p1339
sVCorrectResponse
p1340
L6L
sS'block.thisIndex'
p1341
I12
sVOperatorb
p1342
Vdouble
p1343
sVOperatord
p1344
Vincrease
p1345
sVStructure
p1346
VUBUUxy
p1347
sa(dp1348
S'block.thisTrialN'
p1349
I1
sS'block.thisRepN'
p1350
I0
sg29
g33
sS'block.thisN'
p1351
I1
sg1329
(S'SUBTRACT'
S'TRIPLE'
S'DECREASE'
S'x'
S'y'
tp1352
sg27
g28
sg1331
L3L
sg1332
(I4
I12
I3
tp1353
sg22
I0
sg20
F4.1666981228627264
sg23
F6.433321377960965
sVY
L9L
sVX
L5L
sg1334
Vdecrease
p1354
sg35
g36
sg37
g38
sg21
S'5'
sg19
S'space'
p1355
sg34
g11
sg1337
L3L
sg1338
g1335
sg1340
L3L
sS'block.thisIndex'
p1356
I4
sg1342
VSUBTRACT
p1357
sg1344
L0L
sg1346
VBUUxy
p1358
sa(dp1359
S'block.thisTrialN'
p1360
I2
sS'block.thisRepN'
p1361
I0
sg29
g33
sS'block.thisN'
p1362
I2
sg1329
(S'DECREASE'
S'TRIPLE'
S'HALF'
S'SUBTRACT'
S'x'
S'y'
tp1363
sg27
g28
sg1331
L4L
sg1332
(I4
I2
I6
I5
tp1364
sg22
I0
sg20
F7.9165850803256035
sg23
F0.26676381030119956
sVY
L2L
sVX
L6L
sg1334
Vhalf
p1365
sg35
g36
sg37
g38
sg21
S'2'
sg19
S'space'
p1366
sg34
g11
sg1337
L5L
sg1338
g1335
sg1340
L5L
sS'block.thisIndex'
p1367
I16
sg1342
g1354
sg1344
g1357
sg1346
VUUUBxy
p1368
sa(dp1369
S'block.thisTrialN'
p1370
I3
sS'block.thisRepN'
p1371
I0
sg29
g33
sS'block.thisN'
p1372
I3
sg1329
(S'THIRD'
S'DIVIDE'
S'x'
S'y'
tp1373
sg27
g28
sg1331
L2L
sg1332
(I3
I1
tp1374
sg22
I1
sg20
F1.3500829359982163
sg23
F2.9334054829087108
sVY
L2L
sVX
L6L
sg1334
L0L
sg35
g36
sg37
g38
sg21
S'1'
sg19
S'space'
p1375
sg34
g11
sg1337
L1L
sg1338
g1339
sg1340
L1L
sS'block.thisIndex'
p1376
I3
sg1342
Vthird
p1377
sg1344
L0L
sg1346
VUBxy
p1378
sa(dp1379
S'block.thisTrialN'
p1380
I4
sS'block.thisRepN'
p1381
I0
sg29
g33
sS'block.thisN'
p1382
I4
sg1329
(S'THIRD'
S'TIMES'
S'HALF'
S'x'
S'y'
tp1383
sg27
g28
sg1331
L3L
sg1332
(I3
I18
I6
tp1384
sg22
I0
sg20
F8.7999213689472526
sg23
F8.1166052652988583
sVY
L6L
sVX
L6L
sg1334
g1365
sg35
g36
sg37
g38
sg21
S'9'
sg19
S'space'
p1385
sg34
g11
sg1337
L6L
sg1338
VTIMES
p1386
sg1340
L6L
sS'block.thisIndex'
p1387
I7
sg1342
g1377
sg1344
L0L
sg1346
VUBUxy
p1388
sa(dp1389
S'block.thisTrialN'
p1390
I5
sS'block.thisRepN'
p1391
I0
sg29
g33
sS'block.thisN'
p1392
I5
sg1329
(S'INCREASE'
S'ADD'
S'HALF'
S'TRIPLE'
S'x'
S'y'
tp1393
sg27
g28
sg1331
L4L
sg1332
(I6
I3
I6
I7
tp1394
sg22
I0
sg20
F9.7332361899316311
sg23
F9.2999142415355891
sVY
L3L
sVX
L2L
sg1334
g1365
sg35
g36
sg37
g38
sg21
S'5'
sg19
S'space'
p1395
sg34
g11
sg1337
L7L
sg1338
VADD
p1396
sg1340
L7L
sS'block.thisIndex'
p1397
I13
sg1342
g1345
sg1344
g1335
sg1346
g1347
sa(dp1398
S'block.thisTrialN'
p1399
I6
sS'block.thisRepN'
p1400
I0
sg29
g33
sS'block.thisN'
p1401
I6
sg1329
(S'HALF'
S'TRIPLE'
S'INCREASE'
S'SUBTRACT'
S'x'
S'y'
tp1402
sg27
g28
sg1331
L4L
sg1332
(I1
I2
I6
I3
tp1403
sg22
I0
sg20
F1.6667531472630799
sg23
F0.51677022478543222
sVY
L2L
sVX
L3L
sg1334
g1345
sg35
g36
sg37
g38
sg21
S'4'
sg19
S'space'
p1404
sg34
g11
sg1337
L3L
sg1338
g1335
sg1340
L3L
sS'block.thisIndex'
p1405
I17
sg1342
g1365
sg1344
g1357
sg1346
g1368
sa(dp1406
S'block.thisTrialN'
p1407
I7
sS'block.thisRepN'
p1408
I0
sg29
g33
sS'block.thisN'
p1409
I7
sg1329
(S'DOUBLE'
S'THIRD'
S'TIMES'
S'x'
S'y'
tp1410
sg27
g28
sg1331
L3L
sg1332
(I12
I4
I8
tp1411
sg22
I1
sg20
F2.9667329620569944
sg23
F14.966465822421014
sVY
L6L
sVX
L2L
sg1334
g1386
sg35
g36
sg37
g38
sg21
S'8'
sg19
S'space'
p1412
sg34
g11
sg1337
L8L
sg1338
g1377
sg1340
L8L
sS'block.thisIndex'
p1413
I9
sg1342
g1343
sg1344
L0L
sg1346
VUUBxy
p1414
sa(dp1415
S'block.thisTrialN'
p1416
I8
sS'block.thisRepN'
p1417
I0
sg29
g33
sS'block.thisN'
p1418
I8
sg1329
(S'SUBTRACT'
S'TRIPLE'
S'DECREASE'
S'DOUBLE'
S'x'
S'y'
tp1419
sg27
g28
sg1331
L4L
sg1332
(I4
I3
I9
I1
tp1420
sg22
I0
sg20
F3.5500372627284378
sg23
F0.2168152139056474
sVY
L8L
sVX
L2L
sg1334
g1354
sg35
g36
sg37
g38
sg21
S'6'
sg19
S'space'
p1421
sg34
g11
sg1337
L1L
sg1338
g1335
sg1340
L1L
sS'block.thisIndex'
p1422
I11
sg1342
g1357
sg1344
g1343
sg1346
VBUUUxy
p1423
sa(dp1424
S'block.thisTrialN'
p1425
I9
sS'block.thisRepN'
p1426
I0
sg29
g33
sS'block.thisN'
p1427
I9
sg1329
(S'THIRD'
S'DIVIDE'
S'DECREASE'
S'x'
S'y'
tp1428
sg27
g28
sg1331
L3L
sg1332
(I6
I3
I1
tp1429
sg22
I0
sg20
F4.6666750297881663
sg23
F9.33325455035083
sVY
L2L
sVX
L7L
sg1334
g1354
sg35
g36
sg37
g38
sg21
S'5'
sg19
S'space'
p1430
sg34
g11
sg1337
L1L
sg1338
g1339
sg1340
L1L
sS'block.thisIndex'
p1431
I6
sg1342
g1377
sg1344
L0L
sg1346
g1388
sa(dp1432
S'block.thisTrialN'
p1433
I10
sS'block.thisRepN'
p1434
I0
sg29
g33
sS'block.thisN'
p1435
I10
sg1329
(S'DIVIDE'
S'THIRD'
S'x'
S'y'
tp1436
sg27
g28
sg1331
L2L
sg1332
(I3
I1
tp1437
sg22
I1
sg20
F1.0834434297867119
sg23
F2.300067625939846
sVY
L3L
sVX
L9L
sg1334
L0L
sg35
g36
sg37
g38
sg21
S'1'
sg19
S'space'
p1438
sg34
g11
sg1337
L1L
sg1338
g1377
sg1340
L1L
sS'block.thisIndex'
p1439
I0
sg1342
g1339
sg1344
L0L
sg1346
VBUxy
p1440
sa(dp1441
S'block.thisTrialN'
p1442
I11
sS'block.thisRepN'
p1443
I0
sg29
g33
sS'block.thisN'
p1444
I11
sg1329
(S'SUBTRACT'
S'DOUBLE'
S'TRIPLE'
S'DECREASE'
S'x'
S'y'
tp1445
sg27
g28
sg1331
L4L
sg1332
(I2
I6
I12
I8
tp1446
sg22
I0
sg20
F9.9165639826096594
sg23
F6.6165433984715492
sVY
L4L
sVX
L3L
sg1334
g1335
sg35
g36
sg37
g38
sg21
S'4'
sg19
S'space'
p1447
sg34
g11
sg1337
L8L
sg1338
g1343
sg1340
L8L
sS'block.thisIndex'
p1448
I10
sg1342
g1357
sg1344
g1354
sg1346
g1423
sa(dp1449
S'block.thisTrialN'
p1450
I12
sS'block.thisRepN'
p1451
I0
sg29
g33
sS'block.thisN'
p1452
I12
sg1329
(S'INCREASE'
S'SUBTRACT'
S'x'
S'y'
tp1453
sg27
g28
sg1331
L2L
sg1332
(I3
I4
tp1454
sg22
I1
sg20
F2.0333776571787894
sg23
F9.6499199150130153
sVY
L3L
sVX
L6L
sg1334
L0L
sg35
g36
sg37
g38
sg21
S'4'
sg19
S'space'
p1455
sg34
g11
sg1337
L4L
sg1338
g1357
sg1340
L4L
sS'block.thisIndex'
p1456
I2
sg1342
g1345
sg1344
L0L
sg1346
g1378
sa(dp1457
S'block.thisTrialN'
p1458
I13
sS'block.thisRepN'
p1459
I0
sg29
g33
sS'block.thisN'
p1460
I13
sg1329
(S'TIMES'
S'DOUBLE'
S'x'
S'y'
tp1461
sg27
g28
sg1331
L2L
sg1332
(I4
I8
tp1462
sg22
I1
sg20
F1.5167345872614533
sg23
F4.0500466711819172
sVY
L2L
sVX
L2L
sg1334
L0L
sg35
g36
sg37
g38
sg21
S'8'
sg19
S'space'
p1463
sg34
g11
sg1337
L8L
sg1338
g1343
sg1340
L8L
sS'block.thisIndex'
p1464
I1
sg1342
g1386
sg1344
L0L
sg1346
g1440
sa(dp1465
S'block.thisTrialN'
p1466
I14
sS'block.thisRepN'
p1467
I0
sg29
g33
sS'block.thisN'
p1468
I14
sg1329
(S'DOUBLE'
S'DECREASE'
S'ADD'
S'x'
S'y'
tp1469
sg27
g28
sg1331
L3L
sg1332
(I4
I3
I6
tp1470
sg22
I0
sg20
F7.1832935807760805
sg23
F7.0499791020993143
sVY
L2L
sVX
L2L
sg1334
g1396
sg35
g36
sg37
g38
sg21
S'7'
sg19
S'space'
p1471
sg34
g11
sg1337
L6L
sg1338
g1354
sg1340
L6L
sS'block.thisIndex'
p1472
I8
sg1342
g1343
sg1344
L0L
sg1346
g1414
sa(dp1473
S'block.thisTrialN'
p1474
I15
sS'block.thisRepN'
p1475
I0
sg29
g33
sS'block.thisN'
p1476
I15
sg1329
(S'TIMES'
S'HALF'
S'INCREASE'
S'x'
S'y'
tp1477
sg27
g28
sg1331
L3L
sg1332
(I6
I3
I9
tp1478
sg22
I1
sg20
F5.2166578380856663
sg23
F3.666738037019968
sVY
L3L
sVX
L5L
sg1334
g1345
sg35
g36
sg37
g38
sg21
S'9'
sg19
S'space'
p1479
sg34
g11
sg1337
L9L
sg1338
g1365
sg1340
L9L
sS'block.thisIndex'
p1480
I5
sg1342
g1386
sg1344
L0L
sg1346
g1358
sa(dp1481
S'block.thisTrialN'
p1482
I16
sS'block.thisRepN'
p1483
I0
sg29
g33
sS'block.thisN'
p1484
I16
sg1329
(S'THIRD'
S'DECREASE'
S'TIMES'
S'HALF'
S'x'
S'y'
tp1485
sg27
g28
sg1331
L4L
sg1332
(I4
I16
I15
I5
tp1486
sg22
I1
sg20
F11.366550668608397
sg23
F6.9999663580674678
sVY
L4L
sVX
L8L
sg1334
g1386
sg35
g36
sg37
g38
sg21
S'5'
sg19
S'space'
p1487
sg34
g11
sg1337
L5L
sg1338
g1354
sg1340
L5L
sS'block.thisIndex'
p1488
I15
sg1342
g1377
sg1344
g1365
sg1346
VUUBUxy
p1489
sa(dp1490
S'block.thisTrialN'
p1491
I17
sS'block.thisRepN'
p1492
I0
sg29
g33
sS'block.thisN'
p1493
I17
sg1329
(S'DECREASE'
S'TRIPLE'
S'DIVIDE'
S'DOUBLE'
S'x'
S'y'
tp1494
sg27
g28
sg1331
L4L
sg1332
(I6
I2
I6
I5
tp1495
sg22
I1
sg20
F8.5164654518011957
sg23
F8.8999787885695696
sVY
L3L
sVX
L3L
sg1334
g1339
sg35
g36
sg37
g38
sg21
S'5'
sg19
S'space'
p1496
sg34
g11
sg1337
L5L
sg1338
g1335
sg1340
L5L
sS'block.thisIndex'
p1497
I14
sg1342
g1354
sg1344
g1343
sg1346
g1489
sasS'loops'
p1498
(lp1499
g1
(cpsychopy.data
TrialHandler
p1500
g3
NtRp1501
(dp1502
S'origin'
p1503
NsS'thisTrial'
p1504
(lp1505
sS'_exp'
p1506
I358822096
sg10
S'practice_trials'
p1507
sg6
S'C:\\Users\\CCDL\\Desktop\\Experiments\\KRITL\\2. kritl_experimenter.py'
p1508
sS'thisRepN'
p1509
I1
sg24
I01
sg25
g26
sS'data'
p1510
g1
(cpsychopy.data
DataHandler
p1511
c__builtin__
dict
p1512
(dp1513
g15
cnumpy.core.multiarray
_reconstruct
p1514
(cnumpy
ndarray
p1515
(I0
tS'b'
tRp1516
(I1
(I6
I1
tg31
(S'O4'
I0
I1
tRp1517
(I3
S'|'
NNNI-1
I-1
I63
tbI00
(lp1518
(lp1519
F3.6500111473724246
aa(lp1520
F2.8000319884158671
aa(lp1521
F1.8500370346009731
aa(lp1522
F5.9332635023165494
aa(lp1523
F4.5166707246098667
aa(lp1524
F5.6999788454268128
aatbsg16
g1514
(g1515
(I0
tS'b'
tRp1525
(I1
(I6
I1
tg1517
I00
(lp1526
S'7'
aS'8'
aS'7'
aS'8'
aS'4'
aS'7'
atbsS'ran'
p1527
cnumpy.ma.core
_mareconstruct
p1528
(cnumpy.ma.core
MaskedArray
p1529
g1515
(I0
tp1530
S'b'
tRp1531
(I1
(I6
I1
tg31
(S'f4'
I0
I1
tRp1532
(I3
S'<'
NNNI-1
I-1
I0
tbI00
S'\x00\x00\x80?\x00\x00\x80?\x00\x00\x80?\x00\x00\x80?\x00\x00\x80?\x00\x00\x80?'
S'\x00\x00\x00\x00\x00\x00'
Ntbsg18
g1528
(g1529
g1515
g1530
S'b'
tRp1533
(I1
(I6
I1
tg1532
I00
S'\x98\xcd<@W4\x03@/\x15\x01@\x17\xce<@AU\xbd@\x00f.A'
S'\x00\x00\x00\x00\x00\x00'
Ntbsg14
g1514
(g1515
(I0
tS'b'
tRp1534
(I1
(I6
I1
tg1517
I00
(lp1535
(lp1536
g91
aa(lp1537
g100
aa(lp1538
g82
aa(lp1539
g74
aa(lp1540
g111
aa(lp1541
g120
aatbsS'order'
p1542
g1528
(g1529
g1515
g1530
S'b'
tRp1543
(I1
(I6
I1
tg1532
I00
S'\x00\x00\x00@\x00\x00@@\x00\x00\x80?\x00\x00\x00\x00\x00\x00\x80@\x00\x00\xa0@'
S'\x00\x00\x00\x00\x00\x00'
Ntbsg17
g1528
(g1529
g1515
g1530
S'b'
tRp1544
(I1
(I6
I1
tg1532
I00
S'\x00\x00\x80?\x00\x00\x80?\x00\x00\x80?\x00\x00\x80?\x00\x00\x00\x00\x00\x00\x00\x00'
S'\x00\x00\x00\x00\x00\x00'
NtbstRp1545
(dp1546
S'isNumeric'
p1547
(dp1548
g16
I00
sg1527
I01
sg18
I01
sg14
I00
sg17
I01
sg1542
I01
sg15
I00
ssS'trials'
p1549
g1501
sS'dataTypes'
p1550
(lp1551
g1527
ag1542
ag14
ag15
ag16
ag17
ag18
asS'dataShape'
p1552
(lp1553
I6
aI1
asbsS'method'
p1554
S'fullRandom'
p1555
sS'sequenceIndices'
p1556
g1514
(g1515
(I0
tS'b'
tRp1557
(I1
(I6
I1
tg1517
I00
(lp1558
I3
aI2
aI0
aI1
aI4
aI5
atbsS'finished'
p1559
I01
sS'nReps'
p1560
I1
sS'nRemaining'
p1561
I-1
sS'trialList'
p1562
(lp1563
g1
(cpsychopy.data
TrialType
p1564
g1512
(dp1565
g47
L0L
sg48
g68
sg49
g87
sg50
L7L
sg53
L2L
sg52
L0L
sg51
L5L
sg54
L3L
stRp1566
ag1
(g1564
g1512
(dp1567
g47
L0L
sg48
g87
sg49
g96
sg50
L8L
sg53
L2L
sg52
L0L
sg51
L3L
sg54
L3L
stRp1568
ag1
(g1564
g1512
(dp1569
g47
L0L
sg48
g68
sg49
g70
sg50
L7L
sg53
L2L
sg52
L0L
sg51
L5L
sg54
L4L
stRp1570
ag1
(g1564
g1512
(dp1571
g47
g68
sg48
g69
sg49
g70
sg50
L8L
sg53
L3L
sg52
L0L
sg51
L2L
sg54
L4L
stRp1572
ag1
(g1564
g1512
(dp1573
g47
g105
sg48
g106
sg49
g107
sg50
L3L
sg53
L3L
sg52
L0L
sg51
L3L
sg54
L2L
stRp1574
ag1
(g1564
g1512
(dp1575
g47
g105
sg48
g106
sg49
g116
sg50
L9L
sg53
L4L
sg52
g107
sg51
L8L
sg54
L8L
stRp1576
asS'seed'
p1577
NsS'thisIndex'
p1578
I5
sS'thisN'
p1579
I6
sS'thisTrialN'
p1580
I0
sS'nTotal'
p1581
I6
sbag1
(g1500
g3
NtRp1582
(dp1583
g1503
Nsg1504
(lp1584
sg1506
I358822096
sg10
S'block'
p1585
sg6
g1508
sg1509
I1
sg24
I01
sg25
g26
sg1510
g1
(g1511
g1512
(dp1586
g22
g1528
(g1529
g1515
g1530
S'b'
tRp1587
(I1
(I18
I1
tg1532
I00
S'\x00\x00\x80?\x00\x00\x80?\x00\x00\x80?\x00\x00\x80?\x00\x00\x00\x00\x00\x00\x00\x00\x00\x00\x00\x00\x00\x00\x80?\x00\x00\x00\x00\x00\x00\x80?\x00\x00\x00\x00\x00\x00\x00\x00\x00\x00\x80?\x00\x00\x80?\x00\x00\x80?\x00\x00\x00\x00\x00\x00\x80?\x00\x00\x00\x00'
S'\x00\x00\x00\x00\x00\x00\x00\x00\x00\x00\x00\x00\x00\x00\x00\x00\x00\x00'
Ntbsg19
g1514
(g1515
(I0
tS'b'
tRp1588
(I1
(I18
I1
tg1517
I00
(lp1589
g163
ag173
ag276
ag199
ag227
ag251
ag218
ag236
ag284
ag131
ag268
ag259
ag182
ag154
ag209
aNag191
ag143
atbsg23
g1528
(g1529
g1515
g1530
S'b'
tRp1590
(I1
(I18
I1
tg1532
I00
S'O6\xf3?\xa3V%@w\x121@W\x11\x91@\xd9\x10\rA\tf:A}\x99\xd9@ED\xcc@i3\xbb@73\xcb@X\xddEA\xe2\xa7\x99>|\x9a\xa1@\x852cA\xbc\xdd\x01A\x00\x00\x00\x00l\xcc\xf4@T\xdd\x95A'
S'\x00\x00\x00\x00\x00\x00\x00\x00\x00\x00\x00\x00\x00\x00\x00\x01\x00\x00'
Ntbsg1527
g1528
(g1529
g1515
g1530
S'b'
tRp1591
(I1
(I18
I1
tg1532
I00
S'\x00\x00\x80?\x00\x00\x80?\x00\x00\x80?\x00\x00\x80?\x00\x00\x80?\x00\x00\x80?\x00\x00\x80?\x00\x00\x80?\x00\x00\x80?\x00\x00\x80?\x00\x00\x80?\x00\x00\x80?\x00\x00\x80?\x00\x00\x80?\x00\x00\x80?\x00\x00\x80?\x00\x00\x80?\x00\x00\x80?'
S'\x00\x00\x00\x00\x00\x00\x00\x00\x00\x00\x00\x00\x00\x00\x00\x00\x00\x00'
Ntbsg21
g1514
(g1515
(I0
tS'b'
tRp1592
(I1
(I18
I1
tg1517
I00
(lp1593
S'7'
aS'9'
aS'2'
aS'5'
aS'6'
aS'6'
aS'7'
aS'3'
aS'5'
aS'6'
aS'4'
aS'4'
aS'5'
aS'7'
aS'6'
aNaS'5'
aS'7'
atbsg1542
g1528
(g1529
g1515
g1530
S'b'
tRp1594
(I1
(I18
I1
tg1532
I00
S'\x00\x00@@\x00\x00\x80@\x00\x00\x80A\x00\x00\xe0@\x00\x00 A\x00\x00PA\x00\x00\x10A\x00\x000A\x00\x00\x88A\x00\x00\x00\x00\x00\x00pA\x00\x00`A\x00\x00\xa0@\x00\x00\x00@\x00\x00\x00A\x00\x00@A\x00\x00\xc0@\x00\x00\x80?'
S'\x00\x00\x00\x00\x00\x00\x00\x00\x00\x00\x00\x00\x00\x00\x00\x00\x00\x00'
Ntbsg20
g1528
(g1529
g1515
g1530
S'b'
tRp1595
(I1
(I18
I1
tg1532
I00
S'r\xab:@\xee\xbd\xdb??i\xc6?\xea\x01\xc0?9w\x13A\xe5\xff\xbf@&\x9bI@\x13\xcdl@\x8bDd@\xa5C\xfc@\x1fw\xe7@\xf3W\xb5?I\xbb\x1fA\x8a\xdd\xd5@\xb1\xaa\xd2@\x00\x00\x00\x00\x98\x10\x81AZ\xaa\x02A'
S'\x00\x00\x00\x00\x00\x00\x00\x00\x00\x00\x00\x00\x00\x00\x00\x01\x00\x00'
NtbstRp1596
(dp1597
g1547
(dp1598
g1527
I01
sg21
I00
sg20
I01
sg22
I01
sg19
I00
sg23
I01
sg1542
I01
ssg1549
g1582
sg1550
(lp1599
g1527
ag1542
ag19
ag20
ag21
ag22
ag23
asg1552
(lp1600
I18
aI1
asbsg1554
g1555
sg1556
g1514
(g1515
(I0
tS'b'
tRp1601
(I1
(I18
I1
tg1517
I00
(lp1602
I9
aI17
aI13
aI0
aI1
aI12
aI16
aI3
aI14
aI6
aI4
aI7
aI15
aI5
aI11
aI10
aI2
aI8
atbsg1559
I01
sg1560
I1
sg1561
I-1
sg1562
(lp1603
g1
(g1564
g1512
(dp1604
g55
g161
sVY
L5L
sg57
L2L
sg58
g162
sg59
L7L
sg60
L7L
sg56
g142
sVX
L4L
sg61
L0L
sg62
g165
sg63
L0L
sg64
g166
stRp1605
ag1
(g1564
g1512
(dp1606
g55
g171
sVY
L3L
sg57
L2L
sg58
g172
sg59
L9L
sg60
L9L
sg56
g134
sVX
L4L
sg61
L0L
sg62
g130
sg63
L0L
sg64
g166
stRp1607
ag1
(g1564
g1512
(dp1608
g55
g274
sVY
L8L
sg57
L2L
sg58
g275
sg59
L2L
sg60
L2L
sg56
g200
sVX
L8L
sg61
L0L
sg62
g190
sg63
L0L
sg64
g202
stRp1609
ag1
(g1564
g1512
(dp1610
g55
g197
sVY
L2L
sg57
L2L
sg58
g198
sg59
L5L
sg60
L5L
sg56
g200
sVX
L8L
sg61
L0L
sg62
g132
sg63
L0L
sg64
g202
stRp1611
ag1
(g1564
g1512
(dp1612
g55
g225
sVY
L2L
sg57
L3L
sg58
g226
sg59
L9L
sg60
L9L
sg56
g134
sVX
L7L
sg61
g181
sg62
g200
sg63
L0L
sg64
g229
stRp1613
ag1
(g1564
g1512
(dp1614
g55
g249
sVY
L2L
sg57
L3L
sg58
g250
sg59
L3L
sg60
L3L
sg56
g132
sVX
L8L
sg61
g142
sg62
g130
sg63
L0L
sg64
g229
stRp1615
ag1
(g1564
g1512
(dp1616
g55
g216
sVY
L2L
sg57
L3L
sg58
g217
sg59
L8L
sg60
L8L
sg56
g146
sVX
L9L
sg61
g181
sg62
g142
sg63
L0L
sg64
g220
stRp1617
ag1
(g1564
g1512
(dp1618
g55
g234
sVY
L3L
sg57
L3L
sg58
g235
sg59
L3L
sg60
L3L
sg56
g200
sVX
L2L
sg61
g134
sg62
g132
sg63
L0L
sg64
g220
stRp1619
ag1
(g1564
g1512
(dp1620
g55
g282
sVY
L3L
sg57
L3L
sg58
g283
sg59
L9L
sg60
L9L
sg56
g142
sVX
L3L
sg61
g165
sg62
g134
sg63
L0L
sg64
g135
stRp1621
ag1
(g1564
g1512
(dp1622
g55
g128
sVY
L2L
sg57
L3L
sg58
g129
sg59
L6L
sg60
L6L
sg56
g132
sVX
L3L
sg61
g130
sg62
g134
sg63
L0L
sg64
g135
stRp1623
ag1
(g1564
g1512
(dp1624
g55
g266
sVY
L4L
sg57
L4L
sg58
g267
sg59
L5L
sg60
L5L
sg56
g190
sVX
L3L
sg61
g132
sg62
g200
sg63
g134
sg64
g261
stRp1625
ag1
(g1564
g1512
(dp1626
g55
g257
sVY
L9L
sg57
L4L
sg58
g258
sg59
L9L
sg60
L9L
sg56
g142
sVX
L3L
sg61
g132
sg62
g146
sg63
g145
sg64
g261
stRp1627
ag1
(g1564
g1512
(dp1628
g55
g179
sVY
L4L
sg57
L4L
sg58
g180
sg59
L5L
sg60
L5L
sg56
g130
sVX
L5L
sg61
g181
sg62
g142
sg63
g134
sg64
g156
stRp1629
ag1
(g1564
g1512
(dp1630
g55
g152
sVY
L2L
sg57
L4L
sg58
g153
sg59
L7L
sg60
L7L
sg56
g146
sVX
L2L
sg61
g134
sg62
g132
sg63
g142
sg64
g156
stRp1631
ag1
(g1564
g1512
(dp1632
g55
g207
sVY
L4L
sg57
L4L
sg58
g208
sg59
L6L
sg60
L6L
sg56
g190
sVX
L4L
sg61
g130
sg62
g134
sg63
g132
sg64
g211
stRp1633
ag1
(g1564
g1512
(dp1634
g55
g242
sVY
L8L
sg57
L4L
sg58
g243
sg59
L9L
sg60
L9L
sg56
g132
sVX
L8L
sg61
g200
sg62
g134
sg63
g190
sg64
g211
stRp1635
ag1
(g1564
g1512
(dp1636
g55
g188
sVY
L4L
sg57
L4L
sg58
g189
sg59
L5L
sg60
L5L
sg56
g145
sVX
L5L
sg61
g190
sg62
g181
sg63
g165
sg64
g147
stRp1637
ag1
(g1564
g1512
(dp1638
g55
g140
sVY
L4L
sg57
L4L
sg58
g141
sg59
L5L
sg60
L5L
sg56
g132
sVX
L7L
sg61
g142
sg62
g145
sg63
g146
sg64
g147
stRp1639
asg1577
Nsg1578
I8
sg1579
I18
sg1580
I0
sg1581
I18
sbag1
(g1500
g3
NtRp1640
(dp1641
g1503
Nsg1504
(lp1642
sg1506
I358822096
sg10
g1585
sg6
g1508
sg1509
I1
sg24
I01
sg25
g26
sg1510
g1
(g1511
g1512
(dp1643
g22
g1528
(g1529
g1515
g1530
S'b'
tRp1644
(I1
(I18
I1
tg1532
I00
S'\x00\x00\x80?\x00\x00\x80?\x00\x00\x00\x00\x00\x00\x80?\x00\x00\x80?\x00\x00\x80?\x00\x00\x80?\x00\x00\x80?\x00\x00\x00\x00\x00\x00\x00\x00\x00\x00\x00\x00\x00\x00\x00\x00\x00\x00\x80?\x00\x00\x00\x00\x00\x00\x00\x00\x00\x00\x00\x00\x00\x00\x00\x00\x00\x00\x80?'
S'\x00\x00\x00\x00\x00\x00\x00\x00\x00\x00\x00\x00\x00\x00\x00\x00\x00\x00'
Ntbsg19
g1514
(g1515
(I0
tS'b'
tRp1645
(I1
(I18
I1
tg1517
I00
(lp1646
g315
ag325
ag354
ag433
ag408
ag364
ag392
ag345
ag336
ag400
ag441
ag424
ag383
ag416
ag449
ag374
ag297
ag457
atbsg23
g1528
(g1529
g1515
g1530
S'b'
tRp1647
(I1
(I18
I1
tg1532
I00
S"\x0e\xf0~@\tvW@\xa6\x12Q@I\x8a\x18@\x87\x99\x99@r\x88\xf0@\xc4\x10\xd9@\x84w\xa7@\xd2\xdd\xdd@\x9e\xff#A\xe72\x1bA\\\xf2\x8e?\x94C`AFD\xc4@'\xbdk@,\x99AA\x9bCXAB\x9fY?"
S'\x00\x00\x00\x00\x00\x00\x00\x00\x00\x00\x00\x00\x00\x00\x00\x00\x00\x00'
Ntbsg1527
g1528
(g1529
g1515
g1530
S'b'
tRp1648
(I1
(I18
I1
tg1532
I00
S'\x00\x00\x80?\x00\x00\x80?\x00\x00\x80?\x00\x00\x80?\x00\x00\x80?\x00\x00\x80?\x00\x00\x80?\x00\x00\x80?\x00\x00\x80?\x00\x00\x80?\x00\x00\x80?\x00\x00\x80?\x00\x00\x80?\x00\x00\x80?\x00\x00\x80?\x00\x00\x80?\x00\x00\x80?\x00\x00\x80?'
S'\x00\x00\x00\x00\x00\x00\x00\x00\x00\x00\x00\x00\x00\x00\x00\x00\x00\x00'
Ntbsg21
g1514
(g1515
(I0
tS'b'
tRp1649
(I1
(I18
I1
tg1517
I00
(lp1650
S'7'
aS'2'
aS'6'
aS'8'
aS'4'
aS'4'
aS'9'
aS'2'
aS'7'
aS'4'
aS'6'
aS'6'
aS'3'
aS'5'
aS'4'
aS'9'
aS'5'
aS'3'
atbsg1542
g1528
(g1529
g1515
g1530
S'b'
tRp1651
(I1
(I18
I1
tg1532
I00
S'\x00\x00\x80?\x00\x00\x00@\x00\x00\xa0@\x00\x00`A\x00\x000A\x00\x00\xc0@\x00\x00\x10A\x00\x00\x80@\x00\x00@@\x00\x00 A\x00\x00pA\x00\x00PA\x00\x00\x00A\x00\x00@A\x00\x00\x80A\x00\x00\xe0@\x00\x00\x00\x00\x00\x00\x88A'
S'\x00\x00\x00\x00\x00\x00\x00\x00\x00\x00\x00\x00\x00\x00\x00\x00\x00\x00'
Ntbsg20
g1528
(g1529
g1515
g1530
S'b'
tRp1652
(I1
(I18
I1
tg1532
I00
S'\xe14#@\xcey7@\xecB\xe4?\xb7\xf1\xce?.\xabZ@`\xbb\xeb@+w\xe7@/\xaa2AMU\xad@\xc3\x99\x91@&f\x06A^\x9a\t@O\xbb\xfb@w\xaa\xca@\xf9!\xc2@\x9c\xff\x1fA|\xff/A\x80\x01\x10@'
S'\x00\x00\x00\x00\x00\x00\x00\x00\x00\x00\x00\x00\x00\x00\x00\x00\x00\x00'
NtbstRp1653
(dp1654
g1547
(dp1655
g1527
I01
sg21
I00
sg20
I01
sg22
I01
sg19
I00
sg23
I01
sg1542
I01
ssg1549
g1640
sg1550
(lp1656
g1527
ag1542
ag19
ag20
ag21
ag22
ag23
asg1552
(lp1657
I18
aI1
asbsg1554
g1555
sg1556
g1514
(g1515
(I0
tS'b'
tRp1658
(I1
(I18
I1
tg1517
I00
(lp1659
I16
aI0
aI1
aI8
aI7
aI2
aI5
aI15
aI12
aI6
aI9
aI4
aI13
aI11
aI3
aI10
aI14
aI17
atbsg1559
I01
sg1560
I1
sg1561
I-1
sg1562
(lp1660
g1
(g1564
g1512
(dp1661
g290
g313
sVY
L6L
sg292
L2L
sg293
g314
sg301
L7L
sg298
L7L
sg299
g316
sVX
L3L
sg295
L0L
sg303
g306
sg305
L0L
sg307
g318
stRp1662
ag1
(g1564
g1512
(dp1663
g290
g323
sVY
L4L
sg292
L2L
sg293
g324
sg301
L2L
sg298
L2L
sg299
g326
sVX
L5L
sg295
L0L
sg303
g328
sg305
L0L
sg307
g318
stRp1664
ag1
(g1564
g1512
(dp1665
g290
g352
sVY
L2L
sg292
L2L
sg293
g353
sg301
L8L
sg298
L8L
sg299
g306
sVX
L2L
sg295
L0L
sg303
g356
sg305
L0L
sg307
g357
stRp1666
ag1
(g1564
g1512
(dp1667
g290
g431
sVY
L2L
sg292
L2L
sg293
g432
sg301
L8L
sg298
L8L
sg299
g366
sVX
L2L
sg295
L0L
sg303
g356
sg305
L0L
sg307
g357
stRp1668
ag1
(g1564
g1512
(dp1669
g290
g406
sVY
L3L
sg292
L3L
sg293
g407
sg301
L4L
sg298
L4L
sg299
g300
sVX
L8L
sg295
g296
sg303
g335
sg305
L0L
sg307
g367
stRp1670
ag1
(g1564
g1512
(dp1671
g290
g362
sVY
L2L
sg292
L3L
sg293
g363
sg301
L4L
sg298
L4L
sg299
g316
sVX
L3L
sg295
g356
sg303
g366
sg305
L0L
sg307
g367
stRp1672
ag1
(g1564
g1512
(dp1673
g290
g390
sVY
L2L
sg292
L3L
sg293
g391
sg301
L9L
sg298
L9L
sg299
g306
sVX
L2L
sg295
g300
sg303
g326
sg305
L0L
sg307
g347
stRp1674
ag1
(g1564
g1512
(dp1675
g290
g343
sVY
L2L
sg292
L3L
sg293
g344
sg301
L2L
sg298
L2L
sg299
g328
sVX
L9L
sg295
g316
sg303
g326
sg305
L0L
sg307
g347
stRp1676
ag1
(g1564
g1512
(dp1677
g290
g333
sVY
L4L
sg292
L3L
sg293
g334
sg301
L5L
sg298
L5L
sg299
g300
sVX
L8L
sg295
g335
sg303
g304
sg305
L0L
sg307
g338
stRp1678
ag1
(g1564
g1512
(dp1679
g290
g398
sVY
L6L
sg292
L3L
sg293
g399
sg301
L1L
sg298
L1L
sg299
g326
sVX
L8L
sg295
g328
sg303
g316
sg305
L0L
sg307
g338
stRp1680
ag1
(g1564
g1512
(dp1681
g290
g439
sVY
L3L
sg292
L4L
sg293
g440
sg301
L2L
sg298
L2L
sg299
g356
sVX
L6L
sg295
g326
sg303
g335
sg305
g316
sg307
g426
stRp1682
ag1
(g1564
g1512
(dp1683
g290
g422
sVY
L2L
sg292
L4L
sg293
g423
sg301
L8L
sg298
L8L
sg299
g326
sVX
L2L
sg295
g296
sg303
g366
sg305
g300
sg307
g426
stRp1684
ag1
(g1564
g1512
(dp1685
g290
g381
sVY
L3L
sg292
L4L
sg293
g382
sg301
L3L
sg298
L3L
sg299
g335
sVX
L4L
sg295
g300
sg303
g326
sg305
g296
sg307
g385
stRp1686
ag1
(g1564
g1512
(dp1687
g290
g414
sVY
L3L
sg292
L4L
sg293
g415
sg301
L4L
sg298
L4L
sg299
g366
sVX
L7L
sg295
g296
sg303
g316
sg305
g326
sg307
g385
stRp1688
ag1
(g1564
g1512
(dp1689
g290
g447
sVY
L4L
sg292
L4L
sg293
g448
sg301
L7L
sg298
L7L
sg299
g326
sVX
L8L
sg295
g306
sg303
g316
sg305
g356
sg307
g376
stRp1690
ag1
(g1564
g1512
(dp1691
g290
g372
sVY
L3L
sg292
L4L
sg293
g373
sg301
L6L
sg298
L6L
sg299
g356
sVX
L5L
sg295
g328
sg303
g300
sg305
g304
sg307
g376
stRp1692
ag1
(g1564
g1512
(dp1693
g290
g291
sVY
L2L
sg292
L4L
sg293
g294
sg301
L8L
sg298
L8L
sg299
g300
sVX
L4L
sg295
g296
sg303
g304
sg305
g306
sg307
g308
stRp1694
ag1
(g1564
g1512
(dp1695
g290
g455
sVY
L5L
sg292
L4L
sg293
g456
sg301
L3L
sg298
L3L
sg299
g304
sVX
L9L
sg295
g296
sg303
g300
sg305
g328
sg307
g308
stRp1696
asg1577
Nsg1578
I17
sg1579
I18
sg1580
I0
sg1581
I18
sbag1
(g1500
g3
NtRp1697
(dp1698
g1503
Nsg1504
(lp1699
sg1506
I358822096
sg10
g1585
sg6
g1508
sg1509
I1
sg24
I01
sg25
g26
sg1510
g1
(g1511
g1512
(dp1700
g22
g1528
(g1529
g1515
g1530
S'b'
tRp1701
(I1
(I18
I1
tg1532
I00
S'\x00\x00\x00\x00\x00\x00\x00\x00\x00\x00\x00\x00\x00\x00\x00\x00\x00\x00\x80?\x00\x00\x80?\x00\x00\x80?\x00\x00\x00\x00\x00\x00\x00\x00\x00\x00\x80?\x00\x00\x80?\x00\x00\x00\x00\x00\x00\x80?\x00\x00\x00\x00\x00\x00\x00\x00\x00\x00\x80?\x00\x00\x00\x00\x00\x00\x00\x00'
S'\x00\x00\x00\x00\x00\x00\x00\x00\x00\x00\x00\x00\x00\x00\x00\x00\x00\x00'
Ntbsg19
g1514
(g1515
(I0
tS'b'
tRp1702
(I1
(I18
I1
tg1517
I00
(lp1703
g606
ag519
ag564
ag546
ag510
ag630
ag528
ag470
ag614
ag580
ag597
ag622
ag488
ag500
ag572
ag555
ag589
ag537
atbsg23
g1528
(g1529
g1515
g1530
S'b'
tRp1704
(I1
(I18
I1
tg1532
I00
S'\xd9\xef>@=\xde\x8d@\xdee.A\xe3\x98IA\xc1\x10-AG\xaa2AN3\xcb@\x932GA<\xbb\xf3@y\x99\xf1@\xf2e6AX\xaa:A\x1f"\xd2@T\xbb3A@\xa0Y?\t\x8c\x88?\n"6A\x92\xcc\x00A'
S'\x00\x00\x00\x00\x00\x00\x00\x00\x00\x00\x00\x00\x00\x00\x00\x00\x00\x00'
Ntbsg1527
g1528
(g1529
g1515
g1530
S'b'
tRp1705
(I1
(I18
I1
tg1532
I00
S'\x00\x00\x80?\x00\x00\x80?\x00\x00\x80?\x00\x00\x80?\x00\x00\x80?\x00\x00\x80?\x00\x00\x80?\x00\x00\x80?\x00\x00\x80?\x00\x00\x80?\x00\x00\x80?\x00\x00\x80?\x00\x00\x80?\x00\x00\x80?\x00\x00\x80?\x00\x00\x80?\x00\x00\x80?\x00\x00\x80?'
S'\x00\x00\x00\x00\x00\x00\x00\x00\x00\x00\x00\x00\x00\x00\x00\x00\x00\x00'
Ntbsg21
g1514
(g1515
(I0
tS'b'
tRp1706
(I1
(I18
I1
tg1517
I00
(lp1707
S'5'
aS'5'
aS'6'
aS'5'
aS'9'
aS'5'
aS'5'
aS'9'
aS'4'
aS'3'
aS'3'
aS'3'
aS'4'
aS'9'
aS'5'
aS'6'
aS'4'
aS'3'
atbsg1542
g1528
(g1529
g1515
g1530
S'b'
tRp1708
(I1
(I18
I1
tg1532
I00
S'\x00\x00`A\x00\x00\x80@\x00\x00\x10A\x00\x00\xe0@\x00\x00@@\x00\x00\x88A\x00\x00\xa0@\x00\x00\x00\x00\x00\x00pA\x00\x000A\x00\x00PA\x00\x00\x80A\x00\x00\x80?\x00\x00\x00@\x00\x00 A\x00\x00\x00A\x00\x00@A\x00\x00\xc0@'
S'\x00\x00\x00\x00\x00\x00\x00\x00\x00\x00\x00\x00\x00\x00\x00\x00\x00\x00'
Ntbsg20
g1528
(g1529
g1515
g1530
S'b'
tRp1709
(I1
(I18
I1
tg1532
I00
S'\x87\xf1\x8e?\xb3y\xf7?\x84\xab*@.3\xc3@&f\xc6@\xc3y\xd7?\xa6!\xfa@+\x88\xb0@\xa5\x12Q@\xa3\xcc\xd4@\x9d\x87\x14A\xa4\x10\x15A-w\xcf@F\xaa"AZ\xd2L?\xea$\xe2?w\x88\xe0@\xcd\x10\xc9@'
S'\x00\x00\x00\x00\x00\x00\x00\x00\x00\x00\x00\x00\x00\x00\x00\x00\x00\x00'
NtbstRp1710
(dp1711
g1547
(dp1712
g1527
I01
sg21
I00
sg20
I01
sg22
I01
sg19
I00
sg23
I01
sg1542
I01
ssg1549
g1697
sg1550
(lp1713
g1527
ag1542
ag19
ag20
ag21
ag22
ag23
asg1552
(lp1714
I18
aI1
asbsg1554
g1555
sg1556
g1514
(g1515
(I0
tS'b'
tRp1715
(I1
(I18
I1
tg1517
I00
(lp1716
I7
aI12
aI13
aI4
aI1
aI6
aI17
aI3
aI15
aI2
aI14
aI9
aI16
aI10
aI0
aI8
aI11
aI5
atbsg1559
I01
sg1560
I1
sg1561
I-1
sg1562
(lp1717
g1
(g1564
g1512
(dp1718
g463
g604
sVY
L2L
sg465
L2L
sg466
g605
sg474
L4L
sg471
L4L
sg472
g469
sVX
L3L
sg468
L0L
sg476
g473
sg478
L0L
sg479
g521
stRp1719
ag1
(g1564
g1512
(dp1720
g463
g517
sVY
L2L
sg465
L2L
sg466
g518
sg474
L6L
sg471
L6L
sg472
g491
sVX
L2L
sg468
L0L
sg476
g473
sg478
L0L
sg479
g521
stRp1721
ag1
(g1564
g1512
(dp1722
g463
g562
sVY
L5L
sg465
L2L
sg466
g563
sg474
L3L
sg471
L3L
sg472
g529
sVX
L4L
sg468
L0L
sg476
g477
sg478
L0L
sg479
g548
stRp1723
ag1
(g1564
g1512
(dp1724
g463
g544
sVY
L2L
sg465
L2L
sg466
g545
sg474
L1L
sg471
L1L
sg472
g501
sVX
L5L
sg468
L0L
sg476
g477
sg478
L0L
sg479
g548
stRp1725
ag1
(g1564
g1512
(dp1726
g463
g507
sVY
L3L
sg465
L3L
sg466
g508
sg474
L9L
sg471
L9L
sg472
g469
sVX
L8L
sg468
g509
sg476
g473
sg478
L0L
sg479
g512
stRp1727
ag1
(g1564
g1512
(dp1728
g463
g628
sVY
L5L
sg465
L3L
sg466
g629
sg474
L5L
sg471
L5L
sg472
g477
sVX
L6L
sg468
g509
sg476
g473
sg478
L0L
sg479
g512
stRp1729
ag1
(g1564
g1512
(dp1730
g463
g526
sVY
L7L
sg465
L3L
sg466
g527
sg474
L5L
sg471
L5L
sg472
g529
sVX
L7L
sg468
g491
sg476
g477
sg478
L0L
sg479
g480
stRp1731
ag1
(g1564
g1512
(dp1732
g463
g464
sVY
L5L
sg465
L3L
sg466
g467
sg474
L5L
sg471
L5L
sg472
g473
sVX
L4L
sg468
g469
sg476
g477
sg478
L0L
sg479
g480
stRp1733
ag1
(g1564
g1512
(dp1734
g463
g612
sVY
L5L
sg465
L3L
sg466
g613
sg474
L8L
sg471
L8L
sg472
g469
sVX
L5L
sg468
g473
sg476
g477
sg478
L0L
sg479
g582
stRp1735
ag1
(g1564
g1512
(dp1736
g463
g578
sVY
L2L
sg465
L3L
sg466
g579
sg474
L3L
sg471
L3L
sg472
g509
sVX
L4L
sg468
g489
sg476
g487
sg478
L0L
sg479
g582
stRp1737
ag1
(g1564
g1512
(dp1738
g463
g595
sVY
L5L
sg465
L4L
sg466
g596
sg474
L3L
sg471
L3L
sg472
g509
sVX
L5L
sg468
g491
sg476
g501
sg478
g487
sg479
g599
stRp1739
ag1
(g1564
g1512
(dp1740
g463
g620
sVY
L3L
sg465
L4L
sg466
g621
sg474
L9L
sg471
L9L
sg472
g491
sVX
L3L
sg468
g477
sg476
g473
sg478
g492
sg479
g599
stRp1741
ag1
(g1564
g1512
(dp1742
g463
g485
sVY
L6L
sg465
L4L
sg466
g486
sg474
L4L
sg471
L4L
sg472
g489
sVX
L3L
sg468
g487
sg476
g491
sg478
g492
sg479
g493
stRp1743
ag1
(g1564
g1512
(dp1744
g463
g498
sVY
L3L
sg465
L4L
sg466
g499
sg474
L3L
sg471
L3L
sg472
g501
sVX
L3L
sg468
g492
sg476
g487
sg478
g469
sg479
g493
stRp1745
ag1
(g1564
g1512
(dp1746
g463
g570
sVY
L2L
sg465
L4L
sg466
g571
sg474
L8L
sg471
L8L
sg472
g492
sVX
L9L
sg468
g529
sg476
g477
sg478
g491
sg479
g557
stRp1747
ag1
(g1564
g1512
(dp1748
g463
g553
sVY
L3L
sg465
L4L
sg466
g554
sg474
L6L
sg471
L6L
sg472
g509
sVX
L2L
sg468
g529
sg476
g487
sg478
g469
sg479
g557
stRp1749
ag1
(g1564
g1512
(dp1750
g463
g587
sVY
L2L
sg465
L4L
sg466
g588
sg474
L1L
sg471
L1L
sg472
g491
sVX
L8L
sg468
g509
sg476
g477
sg478
g489
sg479
g539
stRp1751
ag1
(g1564
g1512
(dp1752
g463
g535
sVY
L2L
sg465
L4L
sg466
g536
sg474
L6L
sg471
L6L
sg472
g469
sVX
L3L
sg468
g509
sg476
g487
sg478
g473
sg479
g539
stRp1753
asg1577
Nsg1578
I5
sg1579
I18
sg1580
I0
sg1581
I18
sbag1
(g1500
g3
NtRp1754
(dp1755
g1503
Nsg1504
(lp1756
sg1506
I358822096
sg10
g1585
sg6
g1508
sg1509
I1
sg24
I01
sg25
g26
sg1510
g1
(g1511
g1512
(dp1757
g22
g1528
(g1529
g1515
g1530
S'b'
tRp1758
(I1
(I18
I1
tg1532
I00
S'\x00\x00\x80?\x00\x00\x80?\x00\x00\x00\x00\x00\x00\x80?\x00\x00\x00\x00\x00\x00\x00\x00\x00\x00\x00\x00\x00\x00\x00\x00\x00\x00\x00\x00\x00\x00\x80?\x00\x00\x00\x00\x00\x00\x00\x00\x00\x00\x00\x00\x00\x00\x00\x00\x00\x00\x00\x00\x00\x00\x00\x00\x00\x00\x00\x00\x00\x00\x00\x00'
S'\x00\x00\x00\x00\x00\x00\x00\x00\x00\x00\x00\x00\x00\x00\x00\x00\x00\x00'
Ntbsg19
g1514
(g1515
(I0
tS'b'
tRp1759
(I1
(I18
I1
tg1517
I00
(lp1760
g642
ag671
ag772
ag718
ag746
ag780
ag788
ag691
ag728
ag681
ag660
ag700
ag736
ag804
ag755
ag708
ag763
ag796
atbsg23
g1528
(g1529
g1515
g1530
S'b'
tRp1761
(I1
(I18
I1
tg1532
I00
S'\xd0\xbb\xa3@i\x01`@\x11\xbc\x83@\xafE\x14@g\xaa\xd2@\xecT)A\t)b?\x00D\xec@\x8f\xff7A\x89\xff7At\x11\xc1@f3\x9b@\xd1\x0e\x80>a/\xa2>\xbc\xa7\x99>&"\xb2@\xecc\x86?w\xa4\x19?'
S'\x00\x00\x00\x00\x00\x00\x00\x00\x00\x00\x00\x00\x00\x00\x00\x00\x00\x00'
Ntbsg1527
g1528
(g1529
g1515
g1530
S'b'
tRp1762
(I1
(I18
I1
tg1532
I00
S'\x00\x00\x80?\x00\x00\x80?\x00\x00\x80?\x00\x00\x80?\x00\x00\x80?\x00\x00\x80?\x00\x00\x80?\x00\x00\x80?\x00\x00\x80?\x00\x00\x80?\x00\x00\x80?\x00\x00\x80?\x00\x00\x80?\x00\x00\x80?\x00\x00\x80?\x00\x00\x80?\x00\x00\x80?\x00\x00\x80?'
S'\x00\x00\x00\x00\x00\x00\x00\x00\x00\x00\x00\x00\x00\x00\x00\x00\x00\x00'
Ntbsg21
g1514
(g1515
(I0
tS'b'
tRp1763
(I1
(I18
I1
tg1517
I00
(lp1764
S'8'
aS'2'
aS'9'
aS'8'
aS'3'
aS'1'
aS'4'
aS'3'
aS'1'
aS'6'
aS'5'
aS'6'
aS'2'
aS'3'
aS'2'
aS'9'
aS'4'
aS'2'
atbsg1542
g1528
(g1529
g1515
g1530
S'b'
tRp1765
(I1
(I18
I1
tg1532
I00
S'\x00\x00\x00\x00\x00\x00\x00@\x00\x00PA\x00\x00\xe0@\x00\x00 A\x00\x00`A\x00\x00pA\x00\x00\x80@\x00\x00\x00A\x00\x00@@\x00\x00\x80?\x00\x00\xa0@\x00\x00\x10A\x00\x00\x88A\x00\x000A\x00\x00\xc0@\x00\x00@A\x00\x00\x80A'
S'\x00\x00\x00\x00\x00\x00\x00\x00\x00\x00\x00\x00\x00\x00\x00\x00\x00\x00'
Ntbsg20
g1528
(g1529
g1515
g1530
S'b'
tRp1766
(I1
(I18
I1
tg1532
I00
S'|y\xf7?I\xcf\xac?E#\x12@\xf5\xee\x9e@\xe3\xccHA\xeey\x97?&\xbc;@\x87\x10\xe9@j\xffOA\xb2\xff\x0bA\x97\xff\x1bA\xf8\xcb,A;E\x14@\xf1ID?\x15\x02\x80?k\xbb\x1fApz\xb7?\x1b%\x82?'
S'\x00\x00\x00\x00\x00\x00\x00\x00\x00\x00\x00\x00\x00\x00\x00\x00\x00\x00'
NtbstRp1767
(dp1768
g1547
(dp1769
g1527
I01
sg21
I00
sg20
I01
sg22
I01
sg19
I00
sg23
I01
sg1542
I01
ssg1549
g1754
sg1550
(lp1770
g1527
ag1542
ag19
ag20
ag21
ag22
ag23
asg1552
(lp1771
I18
aI1
asbsg1554
g1555
sg1556
g1514
(g1515
(I0
tS'b'
tRp1772
(I1
(I18
I1
tg1517
I00
(lp1773
I0
aI10
aI1
aI9
aI7
aI11
aI15
aI3
aI8
aI12
aI4
aI14
aI16
aI2
aI5
aI6
aI17
aI13
atbsg1559
I01
sg1560
I1
sg1561
I-1
sg1562
(lp1774
g1
(g1564
g1512
(dp1775
g636
g637
sVY
L4L
sg638
L2L
sg639
g640
sg646
L8L
sg643
L8L
sg644
g645
sVX
L2L
sg641
L0L
sg648
g649
sg650
L0L
sg651
g652
stRp1776
ag1
(g1564
g1512
(dp1777
g636
g669
sVY
L6L
sg638
L2L
sg639
g670
sg646
L2L
sg643
L2L
sg644
g645
sVX
L6L
sg641
L0L
sg648
g673
sg650
L0L
sg651
g652
stRp1778
ag1
(g1564
g1512
(dp1779
g636
g770
sVY
L7L
sg638
L2L
sg639
g771
sg646
L2L
sg643
L2L
sg644
g680
sVX
L8L
sg641
L0L
sg648
g645
sg650
L0L
sg651
g721
stRp1780
ag1
(g1564
g1512
(dp1781
g636
g716
sVY
L4L
sg638
L2L
sg639
g717
sg646
L8L
sg643
L8L
sg644
g719
sVX
L4L
sg641
L0L
sg648
g663
sg650
L0L
sg651
g721
stRp1782
ag1
(g1564
g1512
(dp1783
g636
g744
sVY
L4L
sg638
L3L
sg639
g745
sg646
L1L
sg643
L1L
sg644
g645
sVX
L6L
sg641
g661
sg648
g673
sg650
L0L
sg651
g748
stRp1784
ag1
(g1564
g1512
(dp1785
g636
g778
sVY
L4L
sg638
L3L
sg639
g779
sg646
L2L
sg643
L2L
sg644
g663
sVX
L4L
sg641
g682
sg648
g680
sg650
L0L
sg651
g748
stRp1786
ag1
(g1564
g1512
(dp1787
g636
g786
sVY
L7L
sg638
L3L
sg639
g787
sg646
L1L
sg643
L1L
sg644
g680
sVX
L3L
sg641
g682
sg648
g663
sg650
L0L
sg651
g693
stRp1788
ag1
(g1564
g1512
(dp1789
g636
g689
sVY
L3L
sg638
L3L
sg639
g690
sg646
L2L
sg643
L2L
sg644
g673
sVX
L9L
sg641
g661
sg648
g659
sg650
L0L
sg651
g693
stRp1790
ag1
(g1564
g1512
(dp1791
g636
g726
sVY
L2L
sg638
L3L
sg639
g727
sg646
L8L
sg643
L8L
sg644
g710
sVX
L7L
sg641
g680
sg648
g645
sg650
L0L
sg651
g684
stRp1792
ag1
(g1564
g1512
(dp1793
g636
g678
sVY
L3L
sg638
L3L
sg639
g679
sg646
L6L
sg643
L6L
sg644
g682
sVX
L4L
sg641
g680
sg648
g645
sg650
L0L
sg651
g684
stRp1794
ag1
(g1564
g1512
(dp1795
g636
g657
sVY
L6L
sg638
L4L
sg639
g658
sg646
L7L
sg643
L7L
sg644
g661
sVX
L4L
sg641
g659
sg648
g649
sg650
g663
sg651
g664
stRp1796
ag1
(g1564
g1512
(dp1797
g636
g698
sVY
L5L
sg638
L4L
sg639
g699
sg646
L1L
sg643
L1L
sg644
g659
sVX
L6L
sg641
g645
sg648
g673
sg650
g661
sg651
g664
stRp1798
ag1
(g1564
g1512
(dp1799
g636
g734
sVY
L4L
sg638
L4L
sg639
g735
sg646
L9L
sg643
L9L
sg644
g649
sVX
L9L
sg641
g645
sg648
g738
sg650
g661
sg651
g739
stRp1800
ag1
(g1564
g1512
(dp1801
g636
g802
sVY
L4L
sg638
L4L
sg639
g803
sg646
L7L
sg643
L7L
sg644
g719
sVX
L3L
sg641
g645
sg648
g710
sg650
g661
sg651
g739
stRp1802
ag1
(g1564
g1512
(dp1803
g636
g753
sVY
L6L
sg638
L4L
sg639
g754
sg646
L3L
sg643
L3L
sg644
g661
sVX
L4L
sg641
g719
sg648
g710
sg650
g663
sg651
g711
stRp1804
ag1
(g1564
g1512
(dp1805
g636
g706
sVY
L8L
sg638
L4L
sg639
g707
sg646
L6L
sg643
L6L
sg644
g682
sVX
L9L
sg641
g673
sg648
g645
sg650
g710
sg651
g711
stRp1806
ag1
(g1564
g1512
(dp1807
g636
g761
sVY
L2L
sg638
L4L
sg639
g762
sg646
L5L
sg643
L5L
sg644
g663
sVX
L8L
sg641
g682
sg648
g710
sg650
g673
sg651
g765
stRp1808
ag1
(g1564
g1512
(dp1809
g636
g794
sVY
L4L
sg638
L4L
sg639
g795
sg646
L4L
sg643
L4L
sg644
g710
sVX
L4L
sg641
g682
sg648
g645
sg650
g673
sg651
g765
stRp1810
asg1577
Nsg1578
I13
sg1579
I18
sg1580
I0
sg1581
I18
sbag1
(g1500
g3
NtRp1811
(dp1812
g1503
Nsg1504
(lp1813
sg1506
I358822096
sg10
g1585
sg6
g1508
sg1509
I1
sg24
I01
sg25
g26
sg1510
g1
(g1511
g1512
(dp1814
g22
g1528
(g1529
g1515
g1530
S'b'
tRp1815
(I1
(I18
I1
tg1532
I00
S'\x00\x00\x80?\x00\x00\x80?\x00\x00\x80?\x00\x00\x80?\x00\x00\x80?\x00\x00\x00\x00\x00\x00\x80?\x00\x00\x80?\x00\x00\x00\x00\x00\x00\x80?\x00\x00\x00\x00\x00\x00\x00\x00\x00\x00\x00\x00\x00\x00\x00\x00\x00\x00\x00\x00\x00\x00\x00\x00\x00\x00\x00\x00\x00\x00\x00\x00'
S'\x00\x00\x00\x00\x00\x00\x00\x00\x00\x00\x00\x00\x00\x00\x00\x00\x00\x00'
Ntbsg19
g1514
(g1515
(I0
tS'b'
tRp1816
(I1
(I18
I1
tg1517
I00
(lp1817
g846
ag961
ag937
ag928
ag835
ag867
ag817
ag919
ag977
ag901
ag945
ag883
ag953
ag910
ag969
ag892
ag875
ag856
atbsg23
g1528
(g1529
g1515
g1530
S'b'
tRp1818
(I1
(I18
I1
tg1532
I00
S'k\x12\x01@\xbav\x07@\xe7\x9a\x19@\x18U\x05AV\xddEA\x0f\xcchA\t\x12q@;CxA\x0b\xdduA\xe5w\xb7@Mw\x03A\x85\xee2Ao\x88\x08A\xd6eNAX\xdd\x8dAV\x14\x91?_\xcc,AJ\x88\x08A'
S'\x00\x00\x00\x00\x00\x00\x00\x00\x00\x00\x00\x00\x00\x00\x00\x00\x00\x00'
Ntbsg1527
g1528
(g1529
g1515
g1530
S'b'
tRp1819
(I1
(I18
I1
tg1532
I00
S'\x00\x00\x80?\x00\x00\x80?\x00\x00\x80?\x00\x00\x80?\x00\x00\x80?\x00\x00\x80?\x00\x00\x80?\x00\x00\x80?\x00\x00\x80?\x00\x00\x80?\x00\x00\x80?\x00\x00\x80?\x00\x00\x80?\x00\x00\x80?\x00\x00\x80?\x00\x00\x80?\x00\x00\x80?\x00\x00\x80?'
S'\x00\x00\x00\x00\x00\x00\x00\x00\x00\x00\x00\x00\x00\x00\x00\x00\x00\x00'
Ntbsg21
g1514
(g1515
(I0
tS'b'
tRp1820
(I1
(I18
I1
tg1517
I00
(lp1821
S'1'
aS'4'
aS'9'
aS'6'
aS'6'
aS'8'
aS'8'
aS'2'
aS'3'
aS'9'
aS'2'
aS'3'
aS'3'
aS'4'
aS'9'
aS'4'
aS'4'
aS'6'
atbsg1542
g1528
(g1529
g1515
g1530
S'b'
tRp1822
(I1
(I18
I1
tg1532
I00
S'\x00\x00\x00@\x00\x00pA\x00\x00@A\x00\x000A\x00\x00\x80?\x00\x00\x80@\x00\x00\x00\x00\x00\x00 A\x00\x00\x88A\x00\x00\x00A\x00\x00PA\x00\x00\xc0@\x00\x00`A\x00\x00\x10A\x00\x00\x80A\x00\x00\xe0@\x00\x00\xa0@\x00\x00@@'
S'\x00\x00\x00\x00\x00\x00\x00\x00\x00\x00\x00\x00\x00\x00\x00\x00\x00\x00'
Ntbsg20
g1528
(g1529
g1515
g1530
S'b'
tRp1823
(I1
(I18
I1
tg1532
I00
S'\x0bi\xc6?\x19%\x82?\ti\xa6?fD\x84@\xd7\xdd\xad@P\xbb\x1fA\x15w\x1fAED\xa4@t\xdd\xd5@;\x11\x81@\xfe\xdd\xad@M\x99\xb9@\x1f\x88\xe0@\xa4!"A\x94TEA\x03w/A \xdd]A\x13w\x17A'
S'\x00\x00\x00\x00\x00\x00\x00\x00\x00\x00\x00\x00\x00\x00\x00\x00\x00\x00'
NtbstRp1824
(dp1825
g1547
(dp1826
g1527
I01
sg21
I00
sg20
I01
sg22
I01
sg19
I00
sg23
I01
sg1542
I01
ssg1549
g1811
sg1550
(lp1827
g1527
ag1542
ag19
ag20
ag21
ag22
ag23
asg1552
(lp1828
I18
aI1
asbsg1554
g1555
sg1556
g1514
(g1515
(I0
tS'b'
tRp1829
(I1
(I18
I1
tg1517
I00
(lp1830
I6
aI4
aI0
aI17
aI5
aI16
aI11
aI15
aI9
aI13
aI7
aI3
aI2
aI10
aI12
aI1
aI14
aI8
atbsg1559
I01
sg1560
I1
sg1561
I-1
sg1562
(lp1831
g1
(g1564
g1512
(dp1832
g810
g844
sVY
L2L
sg812
L2L
sg813
g845
sg821
L1L
sg818
L1L
sg819
g816
sVX
L9L
sg815
L0L
sg823
g848
sg825
L0L
sg826
g849
stRp1833
ag1
(g1564
g1512
(dp1834
g810
g959
sVY
L4L
sg812
L2L
sg813
g960
sg821
L4L
sg818
L4L
sg819
g816
sVX
L3L
sg815
L0L
sg823
g820
sg825
L0L
sg826
g849
stRp1835
ag1
(g1564
g1512
(dp1836
g810
g935
sVY
L4L
sg812
L2L
sg813
g936
sg821
L9L
sg818
L9L
sg819
g820
sVX
L2L
sg815
L0L
sg823
g859
sg825
L0L
sg826
g930
stRp1837
ag1
(g1564
g1512
(dp1838
g810
g926
sVY
L6L
sg812
L2L
sg813
g927
sg821
L6L
sg818
L6L
sg819
g848
sVX
L8L
sg815
L0L
sg823
g857
sg825
L0L
sg826
g930
stRp1839
ag1
(g1564
g1512
(dp1840
g810
g832
sVY
L4L
sg812
L3L
sg813
g833
sg821
L6L
sg818
L6L
sg819
g836
sVX
L6L
sg815
g834
sg823
g838
sg825
L0L
sg826
g839
stRp1841
ag1
(g1564
g1512
(dp1842
g810
g865
sVY
L9L
sg812
L3L
sg813
g866
sg821
L7L
sg818
L7L
sg819
g824
sVX
L9L
sg815
g836
sg823
g848
sg825
L0L
sg826
g839
stRp1843
ag1
(g1564
g1512
(dp1844
g810
g811
sVY
L4L
sg812
L3L
sg813
g814
sg821
L8L
sg818
L8L
sg819
g820
sVX
L3L
sg815
g816
sg823
g824
sg825
L0L
sg826
g827
stRp1845
ag1
(g1564
g1512
(dp1846
g810
g917
sVY
L2L
sg812
L3L
sg813
g918
sg821
L2L
sg818
L2L
sg819
g920
sVX
L4L
sg815
g834
sg823
g859
sg825
L0L
sg826
g827
stRp1847
ag1
(g1564
g1512
(dp1848
g810
g975
sVY
L2L
sg812
L3L
sg813
g976
sg821
L1L
sg818
L1L
sg819
g834
sVX
L8L
sg815
g920
sg823
g836
sg825
L0L
sg826
g903
stRp1849
ag1
(g1564
g1512
(dp1850
g810
g899
sVY
L3L
sg812
L3L
sg813
g900
sg821
L9L
sg818
L9L
sg819
g834
sVX
L2L
sg815
g820
sg823
g857
sg825
L0L
sg826
g903
stRp1851
ag1
(g1564
g1512
(dp1852
g810
g943
sVY
L3L
sg812
L4L
sg813
g944
sg821
L1L
sg818
L1L
sg819
g836
sVX
L6L
sg815
g816
sg823
g920
sg825
g824
sg826
g885
stRp1853
ag1
(g1564
g1512
(dp1854
g810
g881
sVY
L2L
sg812
L4L
sg813
g882
sg821
L2L
sg818
L2L
sg819
g836
sVX
L3L
sg815
g816
sg823
g820
sg825
g824
sg826
g885
stRp1855
ag1
(g1564
g1512
(dp1856
g810
g951
sVY
L9L
sg812
L4L
sg813
g952
sg821
L1L
sg818
L1L
sg819
g920
sVX
L3L
sg815
g857
sg823
g836
sg825
g824
sg826
g912
stRp1857
ag1
(g1564
g1512
(dp1858
g810
g908
sVY
L3L
sg812
L4L
sg813
g909
sg821
L3L
sg818
L3L
sg819
g848
sVX
L6L
sg815
g859
sg823
g857
sg825
g834
sg826
g912
stRp1859
ag1
(g1564
g1512
(dp1860
g810
g967
sVY
L2L
sg812
L4L
sg813
g968
sg821
L7L
sg818
L7L
sg819
g834
sVX
L2L
sg815
g820
sg823
g859
sg825
g857
sg826
g894
stRp1861
ag1
(g1564
g1512
(dp1862
g810
g890
sVY
L2L
sg812
L4L
sg813
g891
sg821
L1L
sg818
L1L
sg819
g859
sVX
L8L
sg815
g848
sg823
g816
sg825
g834
sg826
g894
stRp1863
ag1
(g1564
g1512
(dp1864
g810
g873
sVY
L2L
sg812
L4L
sg813
g874
sg821
L5L
sg818
L5L
sg819
g834
sVX
L2L
sg815
g857
sg823
g836
sg825
g838
sg826
g860
stRp1865
ag1
(g1564
g1512
(dp1866
g810
g854
sVY
L2L
sg812
L4L
sg813
g855
sg821
L7L
sg818
L7L
sg819
g857
sVX
L2L
sg815
g834
sg823
g859
sg825
g838
sg826
g860
stRp1867
asg1577
Nsg1578
I8
sg1579
I18
sg1580
I0
sg1581
I18
sbag1
(g1500
g3
NtRp1868
(dp1869
g1503
Nsg1504
(lp1870
sg1506
I358822096
sg10
g1585
sg6
g1508
sg1509
I1
sg24
I01
sg25
g26
sg1510
g1
(g1511
g1512
(dp1871
g22
g1528
(g1529
g1515
g1530
S'b'
tRp1872
(I1
(I18
I1
tg1532
I00
S'\x00\x00\x80?\x00\x00\x80?\x00\x00\x00\x00\x00\x00\x80?\x00\x00\x00\x00\x00\x00\x80?\x00\x00\x80?\x00\x00\x80?\x00\x00\x00\x00\x00\x00\x00\x00\x00\x00\x80?\x00\x00\x00\x00\x00\x00\x00\x00\x00\x00\x00\x00\x00\x00\x00\x00\x00\x00\x00\x00\x00\x00\x00\x00\x00\x00\x00\x00'
S'\x00\x00\x00\x00\x00\x00\x00\x00\x00\x00\x00\x00\x00\x00\x00\x00\x00\x00'
Ntbsg19
g1514
(g1515
(I0
tS'b'
tRp1873
(I1
(I18
I1
tg1517
I00
(lp1874
g1102
ag1057
ag1134
ag1048
ag1039
ag1110
ag1067
ag1009
ag1126
ag1076
ag1142
ag1020
ag1094
ag1029
ag1118
ag990
ag1085
ag1150
atbsg23
g1528
(g1529
g1515
g1530
S'b'
tRp1875
(I1
(I18
I1
tg1532
I00
S"f\xaa\xea@\x12\x99=A\x08\x8a\x18@\xd0!2AyU\x95@\xe6vSA\x8a\xdd%Ab\x88\xd0@\x80!NAK\xff_A\x18\xefJA'\xccDA\x82\x97\x88>*\x1c\x91>,\x999A\x00\x00\x00\x00w\xbb\xf3@\xa53\x83@"
S'\x00\x00\x00\x00\x00\x00\x00\x00\x00\x00\x00\x00\x00\x00\x00\x01\x00\x00'
Ntbsg1527
g1528
(g1529
g1515
g1530
S'b'
tRp1876
(I1
(I18
I1
tg1532
I00
S'\x00\x00\x80?\x00\x00\x80?\x00\x00\x80?\x00\x00\x80?\x00\x00\x80?\x00\x00\x80?\x00\x00\x80?\x00\x00\x80?\x00\x00\x80?\x00\x00\x80?\x00\x00\x80?\x00\x00\x80?\x00\x00\x80?\x00\x00\x80?\x00\x00\x80?\x00\x00\x80?\x00\x00\x80?\x00\x00\x80?'
S'\x00\x00\x00\x00\x00\x00\x00\x00\x00\x00\x00\x00\x00\x00\x00\x00\x00\x00'
Ntbsg21
g1514
(g1515
(I0
tS'b'
tRp1877
(I1
(I18
I1
tg1517
I00
(lp1878
S'7'
aS'2'
aS'6'
aS'6'
aS'8'
aS'8'
aS'2'
aS'5'
aS'3'
aS'6'
aS'9'
aS'6'
aS'5'
aS'4'
aS'3'
aNaS'4'
aS'4'
atbsg1542
g1528
(g1529
g1515
g1530
S'b'
tRp1879
(I1
(I18
I1
tg1532
I00
S'\x00\x000A\x00\x00\xc0@\x00\x00pA\x00\x00\xa0@\x00\x00\x80@\x00\x00@A\x00\x00\xe0@\x00\x00\x80?\x00\x00`A\x00\x00\x00A\x00\x00\x80A\x00\x00\x00@\x00\x00 A\x00\x00@@\x00\x00PA\x00\x00\x00\x00\x00\x00\x10A\x00\x00\x88A'
S'\x00\x00\x00\x00\x00\x00\x00\x00\x00\x00\x00\x00\x00\x00\x00\x00\x00\x00'
Ntbsg20
g1528
(g1529
g1515
g1530
S'b'
tRp1880
(I1
(I18
I1
tg1532
I00
S'\x94ZU?Oz\xf7?W\x02\xa0?Q\xbe\xbb?\xce\x99\x89@\xefUu@+3\xbb@5\xcd\x9c@>\xbd{@,\xefN@\xb9\xcd\x1c@w\xcc\x00A)w\x03Ay43@\xecT\x19A\xbfeZA\x832OAo\x99\xc9@'
S'\x00\x00\x00\x00\x00\x00\x00\x00\x00\x00\x00\x00\x00\x00\x00\x00\x00\x00'
NtbstRp1881
(dp1882
g1547
(dp1883
g1527
I01
sg21
I00
sg20
I01
sg22
I01
sg19
I00
sg23
I01
sg1542
I01
ssg1549
g1868
sg1550
(lp1884
g1527
ag1542
ag19
ag20
ag21
ag22
ag23
asg1552
(lp1885
I18
aI1
asbsg1554
g1555
sg1556
g1514
(g1515
(I0
tS'b'
tRp1886
(I1
(I18
I1
tg1517
I00
(lp1887
I15
aI7
aI11
aI13
aI4
aI3
aI1
aI6
aI9
aI16
aI12
aI0
aI5
aI14
aI8
aI2
aI10
aI17
atbsg1559
I01
sg1560
I1
sg1561
I-1
sg1562
(lp1888
g1
(g1564
g1512
(dp1889
g983
g1100
sVY
L5L
sg985
L2L
sg986
g1101
sg994
L7L
sg991
L7L
sg992
g997
sVX
L3L
sg988
L0L
sg996
g1010
sg998
L0L
sg1000
g1060
stRp1890
ag1
(g1564
g1512
(dp1891
g983
g1055
sVY
L4L
sg985
L2L
sg986
g1056
sg994
L2L
sg991
L2L
sg992
g997
sVX
L9L
sg988
L0L
sg996
g1059
sg998
L0L
sg1000
g1060
stRp1892
ag1
(g1564
g1512
(dp1893
g983
g1132
sVY
L3L
sg985
L2L
sg986
g1133
sg994
L8L
sg991
L8L
sg992
g1075
sVX
L3L
sg988
L0L
sg996
g997
sg998
L0L
sg1000
g1050
stRp1894
ag1
(g1564
g1512
(dp1895
g983
g1046
sVY
L8L
sg985
L2L
sg986
g1047
sg994
L6L
sg991
L6L
sg992
g1010
sVX
L4L
sg988
L0L
sg996
g1008
sg998
L0L
sg1000
g1050
stRp1896
ag1
(g1564
g1512
(dp1897
g983
g1037
sVY
L5L
sg985
L3L
sg986
g1038
sg994
L7L
sg991
L7L
sg992
g999
sVX
L2L
sg988
g997
sg996
g1010
sg998
L0L
sg1000
g1041
stRp1898
ag1
(g1564
g1512
(dp1899
g983
g1108
sVY
L2L
sg985
L3L
sg986
g1109
sg994
L8L
sg991
L8L
sg992
g993
sVX
L4L
sg988
g1008
sg996
g1010
sg998
L0L
sg1000
g1041
stRp1900
ag1
(g1564
g1512
(dp1901
g983
g1065
sVY
L3L
sg985
L3L
sg986
g1066
sg994
L2L
sg991
L2L
sg992
g989
sVX
L3L
sg988
g1012
sg996
g999
sg998
L0L
sg1000
g1013
stRp1902
ag1
(g1564
g1512
(dp1903
g983
g1006
sVY
L3L
sg985
L3L
sg986
g1007
sg994
L5L
sg991
L5L
sg992
g1010
sVX
L2L
sg988
g1008
sg996
g1012
sg998
L0L
sg1000
g1013
stRp1904
ag1
(g1564
g1512
(dp1905
g983
g1124
sVY
L4L
sg985
L3L
sg986
g1125
sg994
L6L
sg991
L6L
sg992
g1031
sVX
L5L
sg988
g1010
sg996
g999
sg998
L0L
sg1000
g1078
stRp1906
ag1
(g1564
g1512
(dp1907
g983
g1073
sVY
L3L
sg985
L3L
sg986
g1074
sg994
L5L
sg991
L5L
sg992
g1012
sVX
L3L
sg988
g1075
sg996
g1008
sg998
L0L
sg1000
g1078
stRp1908
ag1
(g1564
g1512
(dp1909
g983
g1140
sVY
L4L
sg985
L4L
sg986
g1141
sg994
L9L
sg991
L9L
sg992
g997
sVX
L9L
sg988
g1031
sg996
g1010
sg998
g999
sg1000
g1022
stRp1910
ag1
(g1564
g1512
(dp1911
g983
g1018
sVY
L2L
sg985
L4L
sg986
g1019
sg994
L8L
sg991
L8L
sg992
g993
sVX
L2L
sg988
g999
sg996
g1010
sg998
g997
sg1000
g1022
stRp1912
ag1
(g1564
g1512
(dp1913
g983
g1092
sVY
L6L
sg985
L4L
sg986
g1093
sg994
L6L
sg991
L6L
sg992
g1010
sVX
L6L
sg988
g1031
sg996
g997
sg998
g1008
sg1000
g1032
stRp1914
ag1
(g1564
g1512
(dp1915
g983
g1027
sVY
L2L
sg985
L4L
sg986
g1028
sg994
L3L
sg991
L3L
sg992
g989
sVX
L9L
sg988
g999
sg996
g997
sg998
g1031
sg1000
g1032
stRp1916
ag1
(g1564
g1512
(dp1917
g983
g1116
sVY
L3L
sg985
L4L
sg986
g1117
sg994
L5L
sg991
L5L
sg992
g999
sVX
L3L
sg988
g1075
sg996
g997
sg998
g1031
sg1000
g1001
stRp1918
ag1
(g1564
g1512
(dp1919
g983
g984
sVY
L3L
sg985
L4L
sg986
g987
sg994
L8L
sg991
L8L
sg992
g993
sVX
L3L
sg988
g989
sg996
g997
sg998
g999
sg1000
g1001
stRp1920
ag1
(g1564
g1512
(dp1921
g983
g1083
sVY
L4L
sg985
L4L
sg986
g1084
sg994
L3L
sg991
L3L
sg992
g1008
sVX
L3L
sg988
g1031
sg996
g1012
sg998
g1075
sg1000
g1087
stRp1922
ag1
(g1564
g1512
(dp1923
g983
g1148
sVY
L2L
sg985
L4L
sg986
g1149
sg994
L1L
sg991
L1L
sg992
g1008
sVX
L7L
sg988
g1012
sg996
g1031
sg998
g989
sg1000
g1087
stRp1924
asg1577
Nsg1578
I17
sg1579
I18
sg1580
I0
sg1581
I18
sbag1
(g1500
g3
NtRp1925
(dp1926
g1503
Nsg1504
(lp1927
sg1506
I358822096
sg10
g1585
sg6
g1508
sg1509
I1
sg24
I01
sg25
g26
sg1510
g1
(g1511
g1512
(dp1928
g22
g1528
(g1529
g1515
g1530
S'b'
tRp1929
(I1
(I18
I1
tg1532
I00
S'\x00\x00\x00\x00\x00\x00\x80?\x00\x00\x80?\x00\x00\x80?\x00\x00\x80?\x00\x00\x80?\x00\x00\x00\x00\x00\x00\x00\x00\x00\x00\x00\x00\x00\x00\x80?\x00\x00\x00\x00\x00\x00\x00\x00\x00\x00\x00\x00\x00\x00\x00\x00\x00\x00\x00\x00\x00\x00\x00\x00\x00\x00\x00\x00\x00\x00\x00\x00'
S'\x00\x00\x00\x00\x00\x00\x00\x00\x00\x00\x00\x00\x00\x00\x00\x00\x00\x00'
Ntbsg19
g1514
(g1515
(I0
tS'b'
tRp1930
(I1
(I18
I1
tg1517
I00
(lp1931
g1191
ag1212
ag1162
ag1257
ag1307
ag1281
ag1221
ag1323
ag1290
ag1239
ag1248
ag1273
ag1265
ag1201
ag1298
ag1315
ag1180
ag1231
atbsg23
g1528
(g1529
g1515
g1530
S'b'
tRp1932
(I1
(I18
I1
tg1532
I00
S'ni\xe6?G\x11\xa1@\xae\xcc\xd4@\\w\xe7@\xdd\xaa\xba@\x12U\x01A<\xbb\x91A;\x88\x0cA{\xbb\xdb@\xf3C\x18A\x83\xcc\x14A\xc7\x98iA\\\x88\x0cAG\xccDA\x82A\xb3>\xd9\x10\tA\xc7\xcc\xe4@p\xffCA'
S'\x00\x00\x00\x00\x00\x00\x00\x00\x00\x00\x00\x00\x00\x00\x00\x00\x00\x00'
Ntbsg1527
g1528
(g1529
g1515
g1530
S'b'
tRp1933
(I1
(I18
I1
tg1532
I00
S'\x00\x00\x80?\x00\x00\x80?\x00\x00\x80?\x00\x00\x80?\x00\x00\x80?\x00\x00\x80?\x00\x00\x80?\x00\x00\x80?\x00\x00\x80?\x00\x00\x80?\x00\x00\x80?\x00\x00\x80?\x00\x00\x80?\x00\x00\x80?\x00\x00\x80?\x00\x00\x80?\x00\x00\x80?\x00\x00\x80?'
S'\x00\x00\x00\x00\x00\x00\x00\x00\x00\x00\x00\x00\x00\x00\x00\x00\x00\x00'
Ntbsg21
g1514
(g1515
(I0
tS'b'
tRp1934
(I1
(I18
I1
tg1517
I00
(lp1935
S'1'
aS'3'
aS'1'
aS'6'
aS'9'
aS'4'
aS'3'
aS'4'
aS'6'
aS'1'
aS'9'
aS'3'
aS'3'
aS'6'
aS'3'
aS'3'
aS'3'
aS'4'
atbsg1542
g1528
(g1529
g1515
g1530
S'b'
tRp1936
(I1
(I18
I1
tg1532
I00
S'\x00\x00\x00@\x00\x00\x80@\x00\x00\x00\x00\x00\x00\x10A\x00\x00pA\x00\x00@A\x00\x00\xa0@\x00\x00\x88A\x00\x00PA\x00\x00\xe0@\x00\x00\x00A\x00\x000A\x00\x00 A\x00\x00@@\x00\x00`A\x00\x00\x80A\x00\x00\x80?\x00\x00\xc0@'
S'\x00\x00\x00\x00\x00\x00\x00\x00\x00\x00\x00\x00\x00\x00\x00\x00\x00\x00'
Ntbsg20
g1528
(g1529
g1515
g1530
S'b'
tRp1937
(I1
(I18
I1
tg1532
I00
S"\xc7\x9a\t@~X\xd5?'U\xb5@\x93F\xa4? \x121@\xa9\xab\n@DU\x95@\x0c\xde\x95@|\xcc\x10Ah\x89H@)w\x0fAMf\xae@z\xee&A`\x99\x05A\x01w'A\xfd2\x03A\x07DDA\x19\x88@A"
S'\x00\x00\x00\x00\x00\x00\x00\x00\x00\x00\x00\x00\x00\x00\x00\x00\x00\x00'
NtbstRp1938
(dp1939
g1547
(dp1940
g1527
I01
sg21
I00
sg20
I01
sg22
I01
sg19
I00
sg23
I01
sg1542
I01
ssg1549
g1925
sg1550
(lp1941
g1527
ag1542
ag19
ag20
ag21
ag22
ag23
asg1552
(lp1942
I18
aI1
asbsg1554
g1555
sg1556
g1514
(g1515
(I0
tS'b'
tRp1943
(I1
(I18
I1
tg1517
I00
(lp1944
I2
aI16
aI0
aI13
aI1
aI6
aI17
aI9
aI10
aI3
aI12
aI11
aI5
aI8
aI14
aI4
aI15
aI7
atbsg1559
I01
sg1560
I1
sg1561
I-1
sg1562
(lp1945
g1
(g1564
g1512
(dp1946
g1156
g1189
sVY
L2L
sg1158
L2L
sg1159
g1190
sg1166
L2L
sg1163
L2L
sg1164
g1179
sVX
L3L
sg1161
L0L
sg1168
g1165
sg1170
L0L
sg1171
g1193
stRp1947
ag1
(g1564
g1512
(dp1948
g1156
g1210
sVY
L2L
sg1158
L2L
sg1159
g1211
sg1166
L3L
sg1163
L3L
sg1164
g1169
sVX
L6L
sg1161
L0L
sg1168
g1214
sg1170
L0L
sg1171
g1193
stRp1949
ag1
(g1564
g1512
(dp1950
g1156
g1157
sVY
L4L
sg1158
L2L
sg1159
g1160
sg1166
L1L
sg1163
L1L
sg1164
g1165
sVX
L8L
sg1161
L0L
sg1168
g1169
sg1170
L0L
sg1171
g1172
stRp1951
ag1
(g1564
g1512
(dp1952
g1156
g1255
sVY
L2L
sg1158
L2L
sg1159
g1256
sg1166
L6L
sg1163
L6L
sg1164
g1222
sVX
L3L
sg1161
L0L
sg1168
g1179
sg1170
L0L
sg1171
g1172
stRp1953
ag1
(g1564
g1512
(dp1954
g1156
g1305
sVY
L8L
sg1158
L3L
sg1159
g1306
sg1166
L9L
sg1163
L9L
sg1164
g1183
sVX
L6L
sg1161
g1204
sg1168
g1222
sg1170
L0L
sg1171
g1283
stRp1955
ag1
(g1564
g1512
(dp1956
g1156
g1279
sVY
L2L
sg1158
L3L
sg1159
g1280
sg1166
L4L
sg1163
L4L
sg1164
g1169
sVX
L3L
sg1161
g1181
sg1168
g1165
sg1170
L0L
sg1171
g1283
stRp1957
ag1
(g1564
g1512
(dp1958
g1156
g1219
sVY
L3L
sg1158
L3L
sg1159
g1220
sg1166
L6L
sg1163
L6L
sg1164
g1222
sVX
L3L
sg1161
g1181
sg1168
g1183
sg1170
L0L
sg1171
g1224
stRp1959
ag1
(g1564
g1512
(dp1960
g1156
g1321
sVY
L2L
sg1158
L3L
sg1159
g1322
sg1166
L3L
sg1163
L3L
sg1164
g1214
sVX
L8L
sg1161
g1183
sg1168
g1179
sg1170
L0L
sg1171
g1224
stRp1961
ag1
(g1564
g1512
(dp1962
g1156
g1288
sVY
L3L
sg1158
L3L
sg1159
g1289
sg1166
L7L
sg1163
L7L
sg1164
g1181
sVX
L6L
sg1161
g1165
sg1168
g1179
sg1170
L0L
sg1171
g1241
stRp1963
ag1
(g1564
g1512
(dp1964
g1156
g1237
sVY
L3L
sg1158
L3L
sg1159
g1238
sg1166
L1L
sg1163
L1L
sg1164
g1183
sVX
L3L
sg1161
g1222
sg1168
g1204
sg1170
L0L
sg1171
g1241
stRp1965
ag1
(g1564
g1512
(dp1966
g1156
g1246
sVY
L6L
sg1158
L4L
sg1159
g1247
sg1166
L8L
sg1163
L8L
sg1164
g1200
sVX
L6L
sg1161
g1169
sg1168
g1222
sg1170
g1204
sg1171
g1250
stRp1967
ag1
(g1564
g1512
(dp1968
g1156
g1271
sVY
L9L
sg1158
L4L
sg1159
g1272
sg1166
L8L
sg1163
L8L
sg1164
g1169
sVX
L3L
sg1161
g1181
sg1168
g1214
sg1170
g1200
sg1171
g1250
stRp1969
ag1
(g1564
g1512
(dp1970
g1156
g1263
sVY
L2L
sg1158
L4L
sg1159
g1264
sg1166
L8L
sg1163
L8L
sg1164
g1222
sVX
L3L
sg1161
g1179
sg1168
g1200
sg1170
g1204
sg1171
g1205
stRp1971
ag1
(g1564
g1512
(dp1972
g1156
g1198
sVY
L3L
sg1158
L4L
sg1159
g1199
sg1166
L2L
sg1163
L2L
sg1164
g1202
sVX
L2L
sg1161
g1200
sg1168
g1204
sg1170
g1169
sg1171
g1205
stRp1973
ag1
(g1564
g1512
(dp1974
g1156
g1296
sVY
L7L
sg1158
L4L
sg1159
g1297
sg1166
L8L
sg1163
L8L
sg1164
g1200
sVX
L6L
sg1161
g1222
sg1168
g1204
sg1170
g1169
sg1171
g1300
stRp1975
ag1
(g1564
g1512
(dp1976
g1156
g1313
sVY
L9L
sg1158
L4L
sg1159
g1314
sg1166
L1L
sg1163
L1L
sg1164
g1179
sVX
L9L
sg1161
g1165
sg1168
g1204
sg1170
g1200
sg1171
g1300
stRp1977
ag1
(g1564
g1512
(dp1978
g1156
g1177
sVY
L3L
sg1158
L4L
sg1159
g1178
sg1166
L6L
sg1163
L6L
sg1164
g1181
sVX
L9L
sg1161
g1179
sg1168
g1183
sg1170
g1165
sg1171
g1184
stRp1979
ag1
(g1564
g1512
(dp1980
g1156
g1229
sVY
L4L
sg1158
L4L
sg1159
g1230
sg1166
L6L
sg1163
L6L
sg1164
g1200
sVX
L2L
sg1161
g1179
sg1168
g1204
sg1170
g1202
sg1171
g1184
stRp1981
asg1577
Nsg1578
I7
sg1579
I18
sg1580
I0
sg1581
I18
sbag1
(g1500
g3
NtRp1982
(dp1983
g1503
Nsg1504
(lp1984
sg1506
I358822096
sg10
g1585
sg6
g1508
sg1509
I1
sg24
I01
sg25
g26
sg1510
g1
(g1511
g1512
(dp1985
g22
g1528
(g1529
g1515
g1530
S'b'
tRp1986
(I1
(I18
I1
tg1532
I00
S'\x00\x00\x80?\x00\x00\x80?\x00\x00\x80?\x00\x00\x80?\x00\x00\x00\x00\x00\x00\x80?\x00\x00\x00\x00\x00\x00\x00\x00\x00\x00\x00\x00\x00\x00\x80?\x00\x00\x00\x00\x00\x00\x00\x00\x00\x00\x00\x00\x00\x00\x00\x00\x00\x00\x80?\x00\x00\x80?\x00\x00\x00\x00\x00\x00\x00\x00'
S'\x00\x00\x00\x00\x00\x00\x00\x00\x00\x00\x00\x00\x00\x00\x00\x00\x00\x00'
Ntbsg19
g1514
(g1515
(I0
tS'b'
tRp1987
(I1
(I18
I1
tg1517
I00
(lp1988
g1438
ag1463
ag1455
ag1375
ag1355
ag1479
ag1430
ag1385
ag1471
ag1412
ag1447
ag1421
ag1336
ag1395
ag1496
ag1487
ag1366
ag1404
atbsg23
g1528
(g1529
g1515
g1530
S'b'
tRp1989
(I1
(I18
I1
tg1532
I00
S'O4\x13@\xfb\x99\x81@\x12f\x1aA\xea\xbc;@\xc5\xdd\xcd@\xd6\xabj@\x03U\x15A\x9d\xdd\x01An\x99\xe1@\xa5voA\xb9\xba\xd3@\xcf\x04^>\x88\xdd-As\xcc\x14APf\x0eA\xb9\xff\xdf@D\x95\x88>\x0eK\x04?'
S'\x00\x00\x00\x00\x00\x00\x00\x00\x00\x00\x00\x00\x00\x00\x00\x00\x00\x00'
Ntbsg1527
g1528
(g1529
g1515
g1530
S'b'
tRp1990
(I1
(I18
I1
tg1532
I00
S'\x00\x00\x80?\x00\x00\x80?\x00\x00\x80?\x00\x00\x80?\x00\x00\x80?\x00\x00\x80?\x00\x00\x80?\x00\x00\x80?\x00\x00\x80?\x00\x00\x80?\x00\x00\x80?\x00\x00\x80?\x00\x00\x80?\x00\x00\x80?\x00\x00\x80?\x00\x00\x80?\x00\x00\x80?\x00\x00\x80?'
S'\x00\x00\x00\x00\x00\x00\x00\x00\x00\x00\x00\x00\x00\x00\x00\x00\x00\x00'
Ntbsg21
g1514
(g1515
(I0
tS'b'
tRp1991
(I1
(I18
I1
tg1517
I00
(lp1992
S'1'
aS'8'
aS'4'
aS'1'
aS'5'
aS'9'
aS'5'
aS'9'
aS'7'
aS'8'
aS'4'
aS'6'
aS'4'
aS'5'
aS'5'
aS'5'
aS'2'
aS'4'
atbsg1542
g1528
(g1529
g1515
g1530
S'b'
tRp1993
(I1
(I18
I1
tg1532
I00
S'\x00\x00 A\x00\x00PA\x00\x00@A\x00\x00@@\x00\x00\x80?\x00\x00pA\x00\x00\x10A\x00\x00\x80@\x00\x00`A\x00\x00\xe0@\x00\x000A\x00\x00\x00A\x00\x00\x00\x00\x00\x00\xa0@\x00\x00\x88A\x00\x00\x80A\x00\x00\x00@\x00\x00\xc0@'
S'\x00\x00\x00\x00\x00\x00\x00\x00\x00\x00\x00\x00\x00\x00\x00\x00\x00\x00'
Ntbsg20
g1528
(g1529
g1515
g1530
S'b'
tRp1994
(I1
(I18
I1
tg1532
I00
S'F\xae\x8a?\\$\xc2?\xdc"\x02@\x85\xcf\xac?\x97U\x85@\xdc\xee\xa6@gU\x95@z\xcc\x0cA\x8a\xdd\xe5@\xf4\xde=@?\xaa\x1eA\xcf3c@\x01w3AV\xbb\x1bAqC\x08Ad\xdd5A\xaaT\xfd@+X\xd5?'
S'\x00\x00\x00\x00\x00\x00\x00\x00\x00\x00\x00\x00\x00\x00\x00\x00\x00\x00'
NtbstRp1995
(dp1996
g1547
(dp1997
g1527
I01
sg21
I00
sg20
I01
sg22
I01
sg19
I00
sg23
I01
sg1542
I01
ssg1549
g1982
sg1550
(lp1998
g1527
ag1542
ag19
ag20
ag21
ag22
ag23
asg1552
(lp1999
I18
aI1
asbsg1554
g1555
sg1556
g1514
(g1515
(I0
tS'b'
tRp2000
(I1
(I18
I1
tg1517
I00
(lp2001
I12
aI4
aI16
aI3
aI7
aI13
aI17
aI9
aI11
aI6
aI0
aI10
aI2
aI1
aI8
aI5
aI15
aI14
atbsg1559
I01
sg1560
I1
sg1561
I-1
sg1562
(lp2002
g1
(g1564
g1512
(dp2003
g1329
g1436
sVY
L3L
sg1331
L2L
sg1332
g1437
sg1340
L1L
sg1337
L1L
sg1338
g1377
sVX
L9L
sg1334
L0L
sg1342
g1339
sg1344
L0L
sg1346
g1440
stRp2004
ag1
(g1564
g1512
(dp2005
g1329
g1461
sVY
L2L
sg1331
L2L
sg1332
g1462
sg1340
L8L
sg1337
L8L
sg1338
g1343
sVX
L2L
sg1334
L0L
sg1342
g1386
sg1344
L0L
sg1346
g1440
stRp2006
ag1
(g1564
g1512
(dp2007
g1329
g1453
sVY
L3L
sg1331
L2L
sg1332
g1454
sg1340
L4L
sg1337
L4L
sg1338
g1357
sVX
L6L
sg1334
L0L
sg1342
g1345
sg1344
L0L
sg1346
g1378
stRp2008
ag1
(g1564
g1512
(dp2009
g1329
g1373
sVY
L2L
sg1331
L2L
sg1332
g1374
sg1340
L1L
sg1337
L1L
sg1338
g1339
sVX
L6L
sg1334
L0L
sg1342
g1377
sg1344
L0L
sg1346
g1378
stRp2010
ag1
(g1564
g1512
(dp2011
g1329
g1352
sVY
L9L
sg1331
L3L
sg1332
g1353
sg1340
L3L
sg1337
L3L
sg1338
g1335
sVX
L5L
sg1334
g1354
sg1342
g1357
sg1344
L0L
sg1346
g1358
stRp2012
ag1
(g1564
g1512
(dp2013
g1329
g1477
sVY
L3L
sg1331
L3L
sg1332
g1478
sg1340
L9L
sg1337
L9L
sg1338
g1365
sVX
L5L
sg1334
g1345
sg1342
g1386
sg1344
L0L
sg1346
g1358
stRp2014
ag1
(g1564
g1512
(dp2015
g1329
g1428
sVY
L2L
sg1331
L3L
sg1332
g1429
sg1340
L1L
sg1337
L1L
sg1338
g1339
sVX
L7L
sg1334
g1354
sg1342
g1377
sg1344
L0L
sg1346
g1388
stRp2016
ag1
(g1564
g1512
(dp2017
g1329
g1383
sVY
L6L
sg1331
L3L
sg1332
g1384
sg1340
L6L
sg1337
L6L
sg1338
g1386
sVX
L6L
sg1334
g1365
sg1342
g1377
sg1344
L0L
sg1346
g1388
stRp2018
ag1
(g1564
g1512
(dp2019
g1329
g1469
sVY
L2L
sg1331
L3L
sg1332
g1470
sg1340
L6L
sg1337
L6L
sg1338
g1354
sVX
L2L
sg1334
g1396
sg1342
g1343
sg1344
L0L
sg1346
g1414
stRp2020
ag1
(g1564
g1512
(dp2021
g1329
g1410
sVY
L6L
sg1331
L3L
sg1332
g1411
sg1340
L8L
sg1337
L8L
sg1338
g1377
sVX
L2L
sg1334
g1386
sg1342
g1343
sg1344
L0L
sg1346
g1414
stRp2022
ag1
(g1564
g1512
(dp2023
g1329
g1445
sVY
L4L
sg1331
L4L
sg1332
g1446
sg1340
L8L
sg1337
L8L
sg1338
g1343
sVX
L3L
sg1334
g1335
sg1342
g1357
sg1344
g1354
sg1346
g1423
stRp2024
ag1
(g1564
g1512
(dp2025
g1329
g1419
sVY
L8L
sg1331
L4L
sg1332
g1420
sg1340
L1L
sg1337
L1L
sg1338
g1335
sVX
L2L
sg1334
g1354
sg1342
g1357
sg1344
g1343
sg1346
g1423
stRp2026
ag1
(g1564
g1512
(dp2027
g1329
g1330
sVY
L5L
sg1331
L4L
sg1332
g1333
sg1340
L6L
sg1337
L6L
sg1338
g1339
sVX
L4L
sg1334
g1335
sg1342
g1343
sg1344
g1345
sg1346
g1347
stRp2028
ag1
(g1564
g1512
(dp2029
g1329
g1393
sVY
L3L
sg1331
L4L
sg1332
g1394
sg1340
L7L
sg1337
L7L
sg1338
g1396
sVX
L2L
sg1334
g1365
sg1342
g1345
sg1344
g1335
sg1346
g1347
stRp2030
ag1
(g1564
g1512
(dp2031
g1329
g1494
sVY
L3L
sg1331
L4L
sg1332
g1495
sg1340
L5L
sg1337
L5L
sg1338
g1335
sVX
L3L
sg1334
g1339
sg1342
g1354
sg1344
g1343
sg1346
g1489
stRp2032
ag1
(g1564
g1512
(dp2033
g1329
g1485
sVY
L4L
sg1331
L4L
sg1332
g1486
sg1340
L5L
sg1337
L5L
sg1338
g1354
sVX
L8L
sg1334
g1386
sg1342
g1377
sg1344
g1365
sg1346
g1489
stRp2034
ag1
(g1564
g1512
(dp2035
g1329
g1363
sVY
L2L
sg1331
L4L
sg1332
g1364
sg1340
L5L
sg1337
L5L
sg1338
g1335
sVX
L6L
sg1334
g1365
sg1342
g1354
sg1344
g1357
sg1346
g1368
stRp2036
ag1
(g1564
g1512
(dp2037
g1329
g1402
sVY
L2L
sg1331
L4L
sg1332
g1403
sg1340
L3L
sg1337
L3L
sg1338
g1335
sVX
L3L
sg1334
g1345
sg1342
g1365
sg1344
g1357
sg1346
g1368
stRp2038
asg1577
Nsg1578
I14
sg1579
I18
sg1580
I0
sg1581
I18
sbasS'savePickle'
p2039
I00
sb.