ccopy_reg
_reconstructor
p1
(cpsychopy.data
ExperimentHandler
p2
c__builtin__
object
p3
NtRp4
(dp5
S'originPath'
p6
NsS'dataFileName'
p7
VC:\u005cUsers\u005cCCDL\u005cDesktop\u005cExperiments\u005cKRITL\u005cdata/31044_KRITL_2017_Apr_21_0933
p8
sS'runtimeInfo'
p9
NsS'name'
p10
S'KRITL'
p11
sS'dataNames'
p12
(lp13
S'practice_encoding.keys'
p14
aS'practice_encoding.rt'
p15
aS'practice_execution.keys'
p16
aS'practice_execution.corr'
p17
aS'practice_execution.rt'
p18
aS'encoding.keys'
p19
aS'execution.keys'
p20
aS'execution.corr'
p21
aS'encoding.rt'
p22
aS'execution.rt'
p23
asS'autoLog'
p24
I01
sS'extraInfo'
p25
(dp26
S'date'
p27
V2017_Apr_21_0933
p28
sS'frameRate'
p29
cnumpy.core.multiarray
scalar
p30
(cnumpy
dtype
p31
(S'f8'
I0
I1
tRp32
(I3
S'<'
NNNI-1
I-1
I0
tbS'\x86FOV\xe7\xffM@'
tRp33
sS'expName'
p34
g11
sVsession
p35
V001
p36
sVparticipant
p37
V31044
p38
ssS'loopsUnfinished'
p39
(lp40
sS'saveWideText'
p41
I00
sS'thisEntry'
p42
(dp43
sS'version'
p44
S''
sS'_paramNamesSoFar'
p45
(lp46
Voperationc
p47
aVoperationb
p48
aVoperationa
p49
aVcorrectresponse
p50
aVvaluey
p51
aVoperationd
p52
aVcondition
p53
aVvaluex
p54
aVRule
p55
aVOperatora
p56
aVLength
p57
aVIntermediate
p58
aVCorrectResponse
p59
aVResult
p60
aVY
aVX
aVOperatorc
p61
aVOperatorb
p62
aVOperatord
p63
aVStructure
p64
asS'entries'
p65
(lp66
(dp67
g18
F13.76646901544882
sg29
g33
sg17
I1
sg47
L0L
sg48
Vdecrease
p68
sg49
VTIMES
p69
sg35
g36
sg50
L8L
sS'practice_trials.thisTrialN'
p70
I0
sg52
L0L
sS'practice_trials.thisRepN'
p71
I0
sg37
g38
sg53
L2L
sg27
g28
sg16
S'8'
sg14
(lp72
S'space'
p73
asS'practice_trials.thisIndex'
p74
I1
sS'practice_trials.thisN'
p75
I0
sg34
g11
sg15
(lp76
F4.6000209264457226
asg51
L3L
sg54
L3L
sa(dp77
g18
F6.5333172156242654
sg29
g33
sg17
I0
sg47
L0L
sg48
VADD
p78
sg49
g68
sg35
g36
sg50
L7L
sS'practice_trials.thisTrialN'
p79
I1
sg52
L0L
sS'practice_trials.thisRepN'
p80
I0
sg37
g38
sg53
L2L
sg27
g28
sg16
S'9'
sg14
(lp81
S'space'
p82
asS'practice_trials.thisIndex'
p83
I0
sS'practice_trials.thisN'
p84
I1
sg34
g11
sg15
(lp85
F0.20010400493629277
asg51
L5L
sg54
L3L
sa(dp86
g18
F7.6332976576522924
sg29
g33
sg17
I1
sg47
g78
sg48
Vtriple 
p87
sg49
Vhalf
p88
sg35
g36
sg50
L8L
sS'practice_trials.thisTrialN'
p89
I2
sg52
L0L
sS'practice_trials.thisRepN'
p90
I0
sg37
g38
sg53
L3L
sg27
g28
sg16
S'8'
sg14
(lp91
S'space'
p92
asS'practice_trials.thisIndex'
p93
I3
sS'practice_trials.thisN'
p94
I2
sg34
g11
sg15
(lp95
F16.549740757443942
asg51
L2L
sg54
L4L
sa(dp96
g18
F12.933171414828394
sg29
g33
sg17
I1
sg47
Vincrease
p97
sg48
VDIVIDE
p98
sg49
Vtriple
p99
sg35
g36
sg50
L3L
sS'practice_trials.thisTrialN'
p100
I3
sg52
L0L
sS'practice_trials.thisRepN'
p101
I0
sg37
g38
sg53
L3L
sg27
g28
sg16
S'3'
sg14
(lp102
S'space'
p103
asS'practice_trials.thisIndex'
p104
I4
sS'practice_trials.thisN'
p105
I3
sg34
g11
sg15
(lp106
F6.6166283586062491
asg51
L3L
sg54
L2L
sa(dp107
g18
F1.6667004036717117
sg29
g33
sg17
I1
sg47
L0L
sg48
g78
sg49
g88
sg35
g36
sg50
L7L
sS'practice_trials.thisTrialN'
p108
I4
sg52
L0L
sS'practice_trials.thisRepN'
p109
I0
sg37
g38
sg53
L2L
sg27
g28
sg16
S'7'
sg14
(lp110
S'space'
p111
asS'practice_trials.thisIndex'
p112
I2
sS'practice_trials.thisN'
p113
I4
sg34
g11
sg15
(lp114
F2.3333913989481516
asg51
L5L
sg54
L4L
sa(dp115
g18
F15.249815111863427
sg29
g33
sg17
I1
sg47
g97
sg48
g98
sg49
Vdouble
p116
sg35
g36
sg50
L9L
sS'practice_trials.thisTrialN'
p117
I5
sg52
g99
sS'practice_trials.thisRepN'
p118
I0
sg37
g38
sg53
L4L
sg27
g28
sg16
S'9'
sg14
(lp119
S'space'
p120
asS'practice_trials.thisIndex'
p121
I5
sS'practice_trials.thisN'
p122
I5
sg34
g11
sg15
(lp123
F13.583152626641095
asg51
L8L
sg54
L8L
sa(dp124
S'block.thisTrialN'
p125
I0
sS'block.thisRepN'
p126
I0
sg29
g33
sS'block.thisN'
p127
I0
sg55
(S'THIRD'
S'INCREASE'
S'SUBTRACT'
S'HALF'
S'x'
S'y'
tp128
sg27
g28
sg57
L4L
sg58
(I4
I2
I3
I1
tp129
sg21
I0
sVY
L2L
sVX
L8L
sg61
VSUBTRACT
p130
sg35
g36
sg37
g38
sg20
Nsg19
Nsg34
g11
sg60
L1L
sg56
Vincrease
p131
sg59
L1L
sS'block.thisIndex'
p132
I15
sg62
Vthird
p133
sg63
Vhalf
p134
sg64
VUUBUxy
p135
sa(dp136
S'block.thisTrialN'
p137
I1
sS'block.thisRepN'
p138
I0
sg29
g33
sS'block.thisN'
p139
I1
sg55
(S'TIMES'
S'THIRD'
S'x'
S'y'
tp140
sg27
g28
sg57
L2L
sg58
(I1
I4
tp141
sg21
I1
sg22
F3.7000344402040355
sg23
F2.6834241570904851
sVY
L4L
sVX
L3L
sg61
L0L
sg35
g36
sg37
g38
sg20
S'4'
sg19
S'space'
p142
sg34
g11
sg60
L4L
sg56
g133
sg59
L4L
sS'block.thisIndex'
p143
I1
sg62
VTIMES
p144
sg63
L0L
sg64
VBUxy
p145
sa(dp146
S'block.thisTrialN'
p147
I2
sS'block.thisRepN'
p148
I0
sg29
g33
sS'block.thisN'
p149
I2
sg55
(S'TIMES'
S'DECREASE'
S'THIRD'
S'DOUBLE'
S'x'
S'y'
tp150
sg27
g28
sg57
L4L
sg58
(I6
I2
I1
I2
tp151
sg21
I0
sg22
F9.8332351634744555
sg23
F13.433182533772197
sVY
L2L
sVX
L3L
sg61
g133
sg35
g36
sg37
g38
sg20
S'6'
sg19
S'space'
p152
sg34
g11
sg60
L2L
sg56
Vdecrease
p153
sg59
L2L
sS'block.thisIndex'
p154
I11
sg62
g144
sg63
Vdouble
p155
sg64
VBUUUxy
p156
sa(dp157
S'block.thisTrialN'
p158
I3
sS'block.thisRepN'
p159
I0
sg29
g33
sS'block.thisN'
p160
I3
sg55
(S'DECREASE'
S'HALF'
S'DIVIDE'
S'x'
S'y'
tp161
sg27
g28
sg57
L3L
sg58
(I4
I2
I1
tp162
sg21
I1
sg22
F6.6333053553826176
sg23
F15.833180994261056
sVY
L2L
sVX
L8L
sg61
VDIVIDE
p163
sg35
g36
sg37
g38
sg20
S'1'
sg19
S'space'
p164
sg34
g11
sg60
L1L
sg56
g134
sg59
L1L
sS'block.thisIndex'
p165
I8
sg62
g153
sg63
L0L
sg64
VUUBxy
p166
sa(dp167
S'block.thisTrialN'
p168
I4
sS'block.thisRepN'
p169
I0
sg29
g33
sS'block.thisN'
p170
I4
sg55
(S'SUBTRACT'
S'THIRD'
S'x'
S'y'
tp171
sg27
g28
sg57
L2L
sg58
(I3
I1
tp172
sg21
I1
sg22
F1.6000879252096638
sg23
F10.899888696498238
sVY
L2L
sVX
L9L
sg61
L0L
sg35
g36
sg37
g38
sg20
S'1'
sg19
S'space'
p173
sg34
g11
sg60
L1L
sg56
g133
sg59
L1L
sS'block.thisIndex'
p174
I0
sg62
g130
sg63
L0L
sg64
g145
sa(dp175
S'block.thisTrialN'
p176
I5
sS'block.thisRepN'
p177
I0
sg29
g33
sS'block.thisN'
p178
I5
sg55
(S'INCREASE'
S'DIVIDE'
S'HALF'
S'x'
S'y'
tp179
sg27
g28
sg57
L3L
sg58
(I2
I1
I2
tp180
sg21
I1
sg22
F4.6166642812895589
sg23
F14.766482130158693
sVY
L2L
sVX
L4L
sg61
g134
sg35
g36
sg37
g38
sg20
S'2'
sg19
S'space'
p181
sg34
g11
sg60
L2L
sg56
g163
sg59
L2L
sS'block.thisIndex'
p182
I7
sg62
g131
sg63
L0L
sg64
VUBUxy
p183
sa(dp184
S'block.thisTrialN'
p185
I6
sS'block.thisRepN'
p186
I0
sg29
g33
sS'block.thisN'
p187
I6
sg55
(S'INCREASE'
S'TRIPLE'
S'HALF'
S'ADD'
S'x'
S'y'
tp188
sg27
g28
sg57
L4L
sg58
(I4
I2
I6
I7
tp189
sg21
I1
sg22
F12.800030277750921
sg23
F19.71639183856314
sVY
L2L
sVX
L2L
sg61
g134
sg35
g36
sg37
g38
sg20
S'7'
sg19
S'space'
p190
sg34
g11
sg60
L7L
sg56
Vtriple
p191
sg59
L7L
sS'block.thisIndex'
p192
I17
sg62
g131
sg63
VADD
p193
sg64
VUUUBxy
p194
sa(dp195
S'block.thisTrialN'
p196
I7
sS'block.thisRepN'
p197
I0
sg29
g33
sS'block.thisN'
p198
I7
sg55
(S'TRIPLE'
S'SUBTRACT'
S'INCREASE'
S'HALF'
S'x'
S'y'
tp199
sg27
g28
sg57
L4L
sg58
(I3
I4
I1
I3
tp200
sg21
I1
sg22
F17.916406606789678
sg23
F11.233243887545541
sVY
L3L
sVX
L6L
sg61
g131
sg35
g36
sg37
g38
sg20
S'3'
sg19
S'space'
p201
sg34
g11
sg60
L3L
sg56
g130
sg59
L3L
sS'block.thisIndex'
p202
I13
sg62
g191
sg63
g134
sg64
VUBUUxy
p203
sa(dp204
S'block.thisTrialN'
p205
I8
sS'block.thisRepN'
p206
I0
sg29
g33
sS'block.thisN'
p207
I8
sg55
(S'ADD'
S'DECREASE'
S'HALF'
S'x'
S'y'
tp208
sg27
g28
sg57
L3L
sg58
(I3
I2
I6
tp209
sg21
I0
sg22
F2.2667276023421437
sVY
L4L
sVX
L6L
sg61
g134
sg35
g36
sg37
g38
sg20
Nsg19
S'space'
p210
sg34
g11
sg60
L6L
sg56
g153
sg59
L6L
sS'block.thisIndex'
p211
I4
sg62
g193
sg63
L0L
sg64
VBUUxy
p212
sa(dp213
S'block.thisTrialN'
p214
I9
sS'block.thisRepN'
p215
I0
sg29
g33
sS'block.thisN'
p216
I9
sg55
(S'DIVIDE'
S'DECREASE'
S'THIRD'
S'DOUBLE'
S'x'
S'y'
tp217
sg27
g28
sg57
L4L
sg58
(I12
I4
I3
I1
tp218
sg21
I1
sg22
F14.399591621011496
sg23
F9.0166034407448024
sVY
L3L
sVX
L6L
sg61
g133
sg35
g36
sg37
g38
sg20
S'1'
sg19
S'space'
p219
sg34
g11
sg60
L1L
sg56
g153
sg59
L1L
sS'block.thisIndex'
p220
I10
sg62
g163
sg63
g155
sg64
g156
sa(dp221
S'block.thisTrialN'
p222
I10
sS'block.thisRepN'
p223
I0
sg29
g33
sS'block.thisN'
p224
I10
sg55
(S'TRIPLE'
S'HALF'
S'TIMES'
S'x'
S'y'
tp225
sg27
g28
sg57
L3L
sg58
(I6
I3
I9
tp226
sg21
I1
sg22
F2.2167125775013119
sg23
F5.2166823567822576
sVY
L3L
sVX
L2L
sg61
g144
sg35
g36
sg37
g38
sg20
S'9'
sg19
S'space'
p227
sg34
g11
sg60
L9L
sg56
g134
sg59
L9L
sS'block.thisIndex'
p228
I9
sg62
g191
sg63
L0L
sg64
g166
sa(dp229
S'block.thisTrialN'
p230
I11
sS'block.thisRepN'
p231
I0
sg29
g33
sS'block.thisN'
p232
I11
sg55
(S'INCREASE'
S'HALF'
S'TIMES'
S'TRIPLE'
S'x'
S'y'
tp233
sg27
g28
sg57
L4L
sg58
(I6
I12
I6
I7
tp234
sg21
I1
sg22
F13.333203517191578
sg23
F14.316453819628805
sVY
L2L
sVX
L2L
sg61
g144
sg35
g36
sg37
g38
sg20
S'7'
sg19
S'space'
p235
sg34
g11
sg60
L7L
sg56
g134
sg59
L7L
sS'block.thisIndex'
p236
I14
sg62
g131
sg63
g191
sg64
g135
sa(dp237
S'block.thisTrialN'
p238
I12
sS'block.thisRepN'
p239
I0
sg29
g33
sS'block.thisN'
p240
I12
sg55
(S'SUBTRACT'
S'DOUBLE'
S'DECREASE'
S'x'
S'y'
tp241
sg27
g28
sg57
L3L
sg58
(I8
I16
I7
tp242
sg21
I1
sg22
F16.466457839531358
sg23
F17.149680144910235
sVY
L9L
sVX
L9L
sg61
g153
sg35
g36
sg37
g38
sg20
S'7'
sg19
S'space'
p243
sg34
g11
sg60
L7L
sg56
g155
sg59
L7L
sS'block.thisIndex'
p244
I5
sg62
g130
sg63
L0L
sg64
g212
sa(dp245
S'block.thisTrialN'
p246
I13
sS'block.thisRepN'
p247
I0
sg29
g33
sS'block.thisN'
p248
I13
sg55
(S'TRIPLE'
S'SUBTRACT'
S'x'
S'y'
tp249
sg27
g28
sg57
L2L
sg58
(I2
I6
tp250
sg21
I1
sg22
F4.8333272511372343
sg23
F7.6666217157035135
sVY
L6L
sVX
L8L
sg61
L0L
sg35
g36
sg37
g38
sg20
S'6'
sg19
S'space'
p251
sg34
g11
sg60
L6L
sg56
g130
sg59
L6L
sS'block.thisIndex'
p252
I3
sg62
g191
sg63
L0L
sg64
VUBxy
p253
sa(dp254
S'block.thisTrialN'
p255
I14
sS'block.thisRepN'
p256
I0
sg29
g33
sS'block.thisN'
p257
I14
sg55
(S'DECREASE'
S'DIVIDE'
S'TRIPLE'
S'DOUBLE'
S'x'
S'y'
tp258
sg27
g28
sg57
L4L
sg58
(I6
I18
I2
I1
tp259
sg21
I1
sg22
F13.266410854877904
sg23
F18.516377640538849
sVY
L9L
sVX
L3L
sg61
g191
sg35
g36
sg37
g38
sg20
S'1'
sg19
S'space'
p260
sg34
g11
sg60
L1L
sg56
g163
sg59
L1L
sS'block.thisIndex'
p261
I12
sg62
g153
sg63
g155
sg64
g203
sa(dp262
S'block.thisTrialN'
p263
I15
sS'block.thisRepN'
p264
I0
sg29
g33
sS'block.thisN'
p265
I15
sg55
(S'INCREASE'
S'TIMES'
S'x'
S'y'
tp266
sg27
g28
sg57
L2L
sg58
(I8
I9
tp267
sg21
I1
sg22
F1.1167560839094222
sg23
F2.0667650075629354
sVY
L4L
sVX
L2L
sg61
L0L
sg35
g36
sg37
g38
sg20
S'9'
sg19
S'space'
p268
sg34
g11
sg60
L9L
sg56
g144
sg59
L9L
sS'block.thisIndex'
p269
I2
sg62
g131
sg63
L0L
sg64
g253
sa(dp270
S'block.thisTrialN'
p271
I16
sS'block.thisRepN'
p272
I0
sg29
g33
sS'block.thisN'
p273
I16
sg55
(S'DOUBLE'
S'TIMES'
S'THIRD'
S'x'
S'y'
tp274
sg27
g28
sg57
L3L
sg58
(I1
I4
I8
tp275
sg21
I0
sg22
F5.4499949536984786
sg23
F8.6166371967410669
sVY
L4L
sVX
L3L
sg61
g133
sg35
g36
sg37
g38
sg20
S'1'
sg19
S'space'
p276
sg34
g11
sg60
L8L
sg56
g144
sg59
L8L
sS'block.thisIndex'
p277
I6
sg62
g155
sg63
L0L
sg64
g183
sa(dp278
S'block.thisTrialN'
p279
I17
sS'block.thisRepN'
p280
I0
sg29
g33
sS'block.thisN'
p281
I17
sg55
(S'DECREASE'
S'HALF'
S'TRIPLE'
S'ADD'
S'x'
S'y'
tp282
sg27
g28
sg57
L4L
sg58
(I4
I12
I6
I5
tp283
sg21
I0
sVY
L2L
sVX
L2L
sg61
g191
sg35
g36
sg37
g38
sg20
Nsg19
Nsg34
g11
sg60
L5L
sg56
g134
sg59
L5L
sS'block.thisIndex'
p284
I16
sg62
g153
sg63
g193
sg64
g194
sa(dp285
S'block.thisTrialN'
p286
I0
sS'block.thisRepN'
p287
I0
sg29
g33
sS'block.thisN'
p288
I0
sVRule
p289
(S'THIRD'
S'TIMES'
S'HALF'
S'INCREASE'
S'x'
S'y'
tp290
sg27
g28
sVLength
p291
L4L
sVIntermediate
p292
(I8
I4
I12
I4
tp293
sg21
I1
sg22
F12.099837321205996
sg23
F10.216553776117507
sVY
L3L
sVX
L7L
sVOperatorc
p294
Vhalf
p295
sg35
g36
sg37
g38
sg20
S'4'
sg19
S'space'
p296
sg34
g11
sVResult
p297
L4L
sVOperatora
p298
VTIMES
p299
sVCorrectResponse
p300
L4L
sS'block.thisIndex'
p301
I13
sVOperatorb
p302
Vthird
p303
sVOperatord
p304
Vincrease
p305
sVStructure
p306
VUBUUxy
p307
sa(dp308
S'block.thisTrialN'
p309
I1
sS'block.thisRepN'
p310
I0
sg29
g33
sS'block.thisN'
p311
I1
sg289
(S'SUBTRACT'
S'INCREASE'
S'x'
S'y'
tp312
sg27
g28
sg291
L2L
sg292
(I6
I2
tp313
sg21
I1
sg22
F0.95010984950931743
sg23
F3.9500377188669518
sVY
L4L
sVX
L5L
sg294
L0L
sg35
g36
sg37
g38
sg20
S'2'
sg19
S'space'
p314
sg34
g11
sg297
L2L
sg298
g305
sg300
L2L
sS'block.thisIndex'
p315
I1
sg302
VSUBTRACT
p316
sg304
L0L
sg306
VBUxy
p317
sa(dp318
S'block.thisTrialN'
p319
I2
sS'block.thisRepN'
p320
I0
sg29
g33
sS'block.thisN'
p321
I2
sg289
(S'DIVIDE'
S'DOUBLE'
S'INCREASE'
S'THIRD'
S'x'
S'y'
tp322
sg27
g28
sg291
L4L
sg292
(I2
I3
I6
I2
tp323
sg21
I1
sg22
F10.999881112773437
sg23
F16.38298875046894
sVY
L3L
sVX
L6L
sg294
g305
sg35
g36
sg37
g38
sg20
S'2'
sg19
S'space'
p324
sg34
g11
sg297
L2L
sg298
Vdouble
p325
sg300
L2L
sS'block.thisIndex'
p326
I10
sg302
VDIVIDE
p327
sg304
g303
sg306
VBUUUxy
p328
sa(dp329
S'block.thisTrialN'
p330
I3
sS'block.thisRepN'
p331
I0
sg29
g33
sS'block.thisN'
p332
I3
sg289
(S'INCREASE'
S'DIVIDE'
S'TRIPLE'
S'HALF'
S'x'
S'y'
tp333
sg27
g28
sg291
L4L
sg292
(I2
I6
I2
I3
tp334
sg21
I1
sg22
F14.566493876336608
sg23
F8.4666186366230249
sVY
L3L
sVX
L4L
sg294
Vtriple
p335
sg35
g36
sg37
g38
sg20
S'3'
sg19
S'space'
p336
sg34
g11
sg297
L3L
sg298
g327
sg300
L3L
sS'block.thisIndex'
p337
I12
sg302
g305
sg304
g295
sg306
g307
sa(dp338
S'block.thisTrialN'
p339
I4
sS'block.thisRepN'
p340
I0
sg29
g33
sS'block.thisN'
p341
I4
sg289
(S'ADD'
S'THIRD'
S'x'
S'y'
tp342
sg27
g28
sg291
L2L
sg292
(I1
I7
tp343
sg21
I1
sg22
F0.95008476061047986
sg23
F3.9833837297046557
sVY
L6L
sVX
L3L
sg294
L0L
sg35
g36
sg37
g38
sg20
S'7'
sg19
S'space'
p344
sg34
g11
sg297
L7L
sg298
g303
sg300
L7L
sS'block.thisIndex'
p345
I0
sg302
VADD
p346
sg304
L0L
sg306
g317
sa(dp347
S'block.thisTrialN'
p348
I5
sS'block.thisRepN'
p349
I0
sg29
g33
sS'block.thisN'
p350
I5
sg289
(S'THIRD'
S'INCREASE'
S'ADD'
S'DOUBLE'
S'x'
S'y'
tp351
sg27
g28
sg291
L4L
sg292
(I16
I20
I21
I7
tp352
sg21
I1
sg22
F15.783274022804108
sg23
F15.483079811790958
sVY
L4L
sVX
L8L
sg294
g346
sg35
g36
sg37
g38
sg20
S'7'
sg19
S'space'
p353
sg34
g11
sg297
L7L
sg298
g305
sg300
L7L
sS'block.thisIndex'
p354
I14
sg302
g303
sg304
g325
sg306
VUUBUxy
p355
sa(dp356
S'block.thisTrialN'
p357
I6
sS'block.thisRepN'
p358
I0
sg29
g33
sS'block.thisN'
p359
I6
sg289
(S'DOUBLE'
S'ADD'
S'x'
S'y'
tp360
sg27
g28
sg291
L2L
sg292
(I4
I8
tp361
sg21
I1
sg22
F1.1833922257646918
sg23
F8.5666210314375348
sVY
L2L
sVX
L2L
sg294
L0L
sg35
g36
sg37
g38
sg20
S'8'
sg19
S'space'
p362
sg34
g11
sg297
L8L
sg298
g346
sg300
L8L
sS'block.thisIndex'
p363
I2
sg302
g325
sg304
L0L
sg306
VUBxy
p364
sa(dp365
S'block.thisTrialN'
p366
I7
sS'block.thisRepN'
p367
I0
sg29
g33
sS'block.thisN'
p368
I7
sg289
(S'INCREASE'
S'ADD'
S'TRIPLE'
S'x'
S'y'
tp369
sg27
g28
sg291
L3L
sg292
(I6
I8
I9
tp370
sg21
I1
sg22
F6.5666455501923338
sg23
F13.033217430172954
sVY
L2L
sVX
L2L
sg294
g335
sg35
g36
sg37
g38
sg20
S'9'
sg19
S'space'
p371
sg34
g11
sg297
L9L
sg298
g346
sg300
L9L
sS'block.thisIndex'
p372
I6
sg302
g305
sg304
L0L
sg306
VUBUxy
p373
sa(dp374
S'block.thisTrialN'
p375
I8
sS'block.thisRepN'
p376
I0
sg29
g33
sS'block.thisN'
p377
I8
sg289
(S'TIMES'
S'INCREASE'
S'HALF'
S'TRIPLE'
S'x'
S'y'
tp378
sg27
g28
sg291
L4L
sg292
(I6
I3
I4
I8
tp379
sg21
I0
sg22
F10.983223787916359
sVY
L2L
sVX
L2L
sg294
g295
sg35
g36
sg37
g38
sg20
Nsg19
S'space'
p380
sg34
g11
sg297
L8L
sg298
g305
sg300
L8L
sS'block.thisIndex'
p381
I11
sg302
g299
sg304
g335
sg306
g328
sa(dp382
S'block.thisTrialN'
p383
I9
sS'block.thisRepN'
p384
I0
sg29
g33
sS'block.thisN'
p385
I9
sg289
(S'DIVIDE'
S'TRIPLE'
S'HALF'
S'x'
S'y'
tp386
sg27
g28
sg291
L3L
sg292
(I4
I12
I4
tp387
sg21
I1
sg22
F2.3500740978051908
sg23
F15.483127993938979
sVY
L3L
sVX
L8L
sg294
g295
sg35
g36
sg37
g38
sg20
S'4'
sg19
S'space'
p388
sg34
g11
sg297
L4L
sg298
g335
sg300
L4L
sS'block.thisIndex'
p389
I4
sg302
g327
sg304
L0L
sg306
VBUUxy
p390
sa(dp391
S'block.thisTrialN'
p392
I10
sS'block.thisRepN'
p393
I0
sg29
g33
sS'block.thisN'
p394
I10
sg289
(S'DOUBLE'
S'TIMES'
S'x'
S'y'
tp395
sg27
g28
sg291
L2L
sg292
(I4
I8
tp396
sg21
I1
sg22
F0.86673398857237771
sg23
F8.0165974536212161
sVY
L2L
sVX
L2L
sg294
L0L
sg35
g36
sg37
g38
sg20
S'8'
sg19
S'space'
p397
sg34
g11
sg297
L8L
sg298
g299
sg300
L8L
sS'block.thisIndex'
p398
I3
sg302
g325
sg304
L0L
sg306
g364
sa(dp399
S'block.thisTrialN'
p400
I11
sS'block.thisRepN'
p401
I0
sg29
g33
sS'block.thisN'
p402
I11
sg289
(S'TRIPLE'
S'DECREASE'
S'HALF'
S'SUBTRACT'
S'x'
S'y'
tp403
sg27
g28
sg291
L4L
sg292
(I4
I2
I1
I3
tp404
sg21
I1
sg22
F16.683110830839723
sg23
F19.416396628308576
sVY
L5L
sVX
L9L
sg294
g295
sg35
g36
sg37
g38
sg20
S'3'
sg19
S'space'
p405
sg34
g11
sg297
L3L
sg298
Vdecrease
p406
sg300
L3L
sS'block.thisIndex'
p407
I17
sg302
g335
sg304
g316
sg306
VUUUBxy
p408
sa(dp409
S'block.thisTrialN'
p410
I12
sS'block.thisRepN'
p411
I0
sg29
g33
sS'block.thisN'
p412
I12
sg289
(S'TIMES'
S'THIRD'
S'DOUBLE'
S'x'
S'y'
tp413
sg27
g28
sg291
L3L
sg292
(I6
I2
I4
tp414
sg21
I1
sg22
F1.7000746394624002
sg23
F12.066578551370185
sVY
L2L
sVX
L3L
sg294
g325
sg35
g36
sg37
g38
sg20
S'4'
sg19
S'space'
p415
sg34
g11
sg297
L4L
sg298
g303
sg300
L4L
sS'block.thisIndex'
p416
I5
sg302
g299
sg304
L0L
sg306
g390
sa(dp417
S'block.thisTrialN'
p418
I13
sS'block.thisRepN'
p419
I0
sg29
g33
sS'block.thisN'
p420
I13
sg289
(S'TRIPLE'
S'DOUBLE'
S'SUBTRACT'
S'DECREASE'
S'x'
S'y'
tp421
sg27
g28
sg291
L4L
sg292
(I4
I1
I2
I6
tp422
sg21
I0
sVY
L3L
sVX
L5L
sg294
g316
sg35
g36
sg37
g38
sg20
Nsg19
Nsg34
g11
sg297
L6L
sg298
g325
sg300
L6L
sS'block.thisIndex'
p423
I15
sg302
g335
sg304
g406
sg306
g355
sa(dp424
S'block.thisTrialN'
p425
I14
sS'block.thisRepN'
p426
I0
sg29
g33
sS'block.thisN'
p427
I14
sg289
(S'THIRD'
S'INCREASE'
S'SUBTRACT'
S'x'
S'y'
tp428
sg27
g28
sg291
L3L
sg292
(I2
I3
I1
tp429
sg21
I1
sg22
F5.0166866902727634
sg23
F7.9166218582540751
sVY
L6L
sVX
L8L
sg294
g316
sg35
g36
sg37
g38
sg20
S'1'
sg19
S'space'
p430
sg34
g11
sg297
L1L
sg298
g305
sg300
L1L
sS'block.thisIndex'
p431
I9
sg302
g303
sg304
L0L
sg306
VUUBxy
p432
sa(dp433
S'block.thisTrialN'
p434
I15
sS'block.thisRepN'
p435
I0
sg29
g33
sS'block.thisN'
p436
I15
sg289
(S'DECREASE'
S'TRIPLE'
S'HALF'
S'ADD'
S'x'
S'y'
tp437
sg27
g28
sg291
L4L
sg292
(I6
I3
I9
I8
tp438
sg21
I1
sg22
F8.0666104826959781
sg23
F7.0332955479389057
sVY
L2L
sVX
L4L
sg294
g295
sg35
g36
sg37
g38
sg20
S'8'
sg19
S'space'
p439
sg34
g11
sg297
L8L
sg298
g335
sg300
L8L
sS'block.thisIndex'
p440
I16
sg302
g406
sg304
g346
sg306
g408
sa(dp441
S'block.thisTrialN'
p442
I16
sS'block.thisRepN'
p443
I0
sg29
g33
sS'block.thisN'
p444
I16
sg289
(S'INCREASE'
S'SUBTRACT'
S'THIRD'
S'x'
S'y'
tp445
sg27
g28
sg291
L3L
sg292
(I3
I1
I2
tp446
sg21
I1
sg22
F10.733217088039964
sg23
F16.049789224634878
sVY
L2L
sVX
L9L
sg294
g303
sg35
g36
sg37
g38
sg20
S'2'
sg19
S'space'
p447
sg34
g11
sg297
L2L
sg298
g316
sg300
L2L
sS'block.thisIndex'
p448
I7
sg302
g305
sg304
L0L
sg306
g373
sa(dp449
S'block.thisTrialN'
p450
I17
sS'block.thisRepN'
p451
I0
sg29
g33
sS'block.thisN'
p452
I17
sg289
(S'DECREASE'
S'TRIPLE'
S'DIVIDE'
S'x'
S'y'
tp453
sg27
g28
sg291
L3L
sg292
(I2
I6
I5
tp454
sg21
I1
sg22
F7.2666771393851377
sg23
F16.683132498525083
sVY
L4L
sVX
L8L
sg294
g327
sg35
g36
sg37
g38
sg20
S'5'
sg19
S'space'
p455
sg34
g11
sg297
L5L
sg298
g335
sg300
L5L
sS'block.thisIndex'
p456
I8
sg302
g406
sg304
L0L
sg306
g432
sa(dp457
S'block.thisTrialN'
p458
I0
sS'block.thisRepN'
p459
I0
sg29
g33
sS'block.thisN'
p460
I0
sVRule
p461
(S'INCREASE'
S'TIMES'
S'TRIPLE'
S'HALF'
S'x'
S'y'
tp462
sg27
g28
sVLength
p463
L4L
sVIntermediate
p464
(I1
I3
I6
I7
tp465
sg21
I1
sg22
F15.866454874456394
sg23
F9.0166199765517376
sVY
L2L
sVX
L2L
sVOperatorc
p466
Vtriple
p467
sg35
g36
sg37
g38
sg20
S'7'
sg19
S'space'
p468
sg34
g11
sVResult
p469
L7L
sVOperatora
p470
VTIMES
p471
sVCorrectResponse
p472
L7L
sS'block.thisIndex'
p473
I13
sVOperatorb
p474
Vincrease
p475
sVOperatord
p476
Vhalf
p477
sVStructure
p478
VUBUUxy
p479
sa(dp480
S'block.thisTrialN'
p481
I1
sS'block.thisRepN'
p482
I0
sg29
g33
sS'block.thisN'
p483
I1
sg461
(S'TRIPLE'
S'INCREASE'
S'SUBTRACT'
S'x'
S'y'
tp484
sg27
g28
sg463
L3L
sg464
(I1
I2
I6
tp485
sg21
I1
sg22
F15.133124316111207
sg23
F6.1999517608783208
sVY
L2L
sVX
L3L
sg466
VSUBTRACT
p486
sg35
g36
sg37
g38
sg20
S'6'
sg19
S'space'
p487
sg34
g11
sg469
L6L
sg470
g475
sg472
L6L
sS'block.thisIndex'
p488
I9
sg474
g467
sg476
L0L
sg478
VUUBxy
p489
sa(dp490
S'block.thisTrialN'
p491
I2
sS'block.thisRepN'
p492
I0
sg29
g33
sS'block.thisN'
p493
I2
sg461
(S'HALF'
S'SUBTRACT'
S'DECREASE'
S'TRIPLE'
S'x'
S'y'
tp494
sg27
g28
sg463
L4L
sg464
(I15
I14
I10
I5
tp495
sg21
I0
sVY
L4L
sVX
L5L
sg466
Vdecrease
p496
sg35
g36
sg37
g38
sg20
Nsg19
Nsg34
g11
sg469
L5L
sg470
g486
sg472
L5L
sS'block.thisIndex'
p497
I12
sg474
g477
sg476
g467
sg478
g479
sa(dp498
S'block.thisTrialN'
p499
I3
sS'block.thisRepN'
p500
I0
sg29
g33
sS'block.thisN'
p501
I3
sg461
(S'THIRD'
S'INCREASE'
S'HALF'
S'TIMES'
S'x'
S'y'
tp502
sg27
g28
sg463
L4L
sg464
(I28
I14
I15
I5
tp503
sg21
I1
sg22
F11.899902666453272
sg23
F10.716572022531182
sVY
L4L
sVX
L7L
sg466
g477
sg35
g36
sg37
g38
sg20
S'5'
sg19
S'space'
p504
sg34
g11
sg469
L5L
sg470
g475
sg472
L5L
sS'block.thisIndex'
p505
I17
sg474
Vthird
p506
sg476
g471
sg478
VUUUBxy
p507
sa(dp508
S'block.thisTrialN'
p509
I4
sS'block.thisRepN'
p510
I0
sg29
g33
sS'block.thisN'
p511
I4
sg461
(S'TRIPLE'
S'DOUBLE'
S'SUBTRACT'
S'INCREASE'
S'x'
S'y'
tp512
sg27
g28
sg463
L4L
sg464
(I5
I1
I2
I6
tp513
sg21
I1
sg22
F9.4165827994002029
sg23
F14.049840542837046
sVY
L4L
sVX
L4L
sg466
g486
sg35
g36
sg37
g38
sg20
S'6'
sg19
S'space'
p514
sg34
g11
sg469
L6L
sg470
Vdouble
p515
sg472
L6L
sS'block.thisIndex'
p516
I14
sg474
g467
sg476
g475
sg478
VUUBUxy
p517
sa(dp518
S'block.thisTrialN'
p519
I5
sS'block.thisRepN'
p520
I0
sg29
g33
sS'block.thisN'
p521
I5
sg461
(S'TIMES'
S'HALF'
S'INCREASE'
S'THIRD'
S'x'
S'y'
tp522
sg27
g28
sg463
L4L
sg464
(I1
I2
I1
I9
tp523
sg21
I1
sg22
F7.1832995678414591
sg23
F10.999901640054304
sVY
L9L
sVX
L3L
sg466
g475
sg35
g36
sg37
g38
sg20
S'9'
sg19
S'space'
p524
sg34
g11
sg469
L9L
sg470
g477
sg472
L9L
sS'block.thisIndex'
p525
I11
sg474
g471
sg476
g506
sg478
VBUUUxy
p526
sa(dp527
S'block.thisTrialN'
p528
I6
sS'block.thisRepN'
p529
I0
sg29
g33
sS'block.thisN'
p530
I6
sg461
(S'HALF'
S'TIMES'
S'DECREASE'
S'x'
S'y'
tp531
sg27
g28
sg463
L3L
sg464
(I8
I16
I8
tp532
sg21
I1
sg22
F9.4665758713963442
sg23
F11.933205626963172
sVY
L2L
sVX
L9L
sg466
g496
sg35
g36
sg37
g38
sg20
S'8'
sg19
S'space'
p533
sg34
g11
sg469
L8L
sg470
g471
sg472
L8L
sS'block.thisIndex'
p534
I6
sg474
g477
sg476
L0L
sg478
VUBUxy
p535
sa(dp536
S'block.thisTrialN'
p537
I7
sS'block.thisRepN'
p538
I0
sg29
g33
sS'block.thisN'
p539
I7
sg461
(S'SUBTRACT'
S'INCREASE'
S'HALF'
S'x'
S'y'
tp540
sg27
g28
sg463
L3L
sg464
(I4
I5
I3
tp541
sg21
I0
sg22
F7.933291157358326
sVY
L2L
sVX
L8L
sg466
g477
sg35
g36
sg37
g38
sg20
Nsg19
S'space'
p542
sg34
g11
sg469
L3L
sg470
g475
sg472
L3L
sS'block.thisIndex'
p543
I5
sg474
g486
sg476
L0L
sg478
VBUUxy
p544
sa(dp545
S'block.thisTrialN'
p546
I8
sS'block.thisRepN'
p547
I0
sg29
g33
sS'block.thisN'
p548
I8
sg461
(S'INCREASE'
S'DIVIDE'
S'TRIPLE'
S'x'
S'y'
tp549
sg27
g28
sg463
L3L
sg464
(I6
I2
I3
tp550
sg21
I1
sg22
F3.5833758609369397
sg23
F13.066514688718598
sVY
L3L
sVX
L2L
sg466
g467
sg35
g36
sg37
g38
sg20
S'3'
sg19
S'space'
p551
sg34
g11
sg469
L3L
sg470
VDIVIDE
p552
sg472
L3L
sS'block.thisIndex'
p553
I7
sg474
g475
sg476
L0L
sg478
g535
sa(dp554
S'block.thisTrialN'
p555
I9
sS'block.thisRepN'
p556
I0
sg29
g33
sS'block.thisN'
p557
I9
sg461
(S'DIVIDE'
S'DOUBLE'
S'INCREASE'
S'TRIPLE'
S'x'
S'y'
tp558
sg27
g28
sg463
L4L
sg464
(I9
I10
I20
I5
tp559
sg21
I1
sg22
F13.049845959758386
sg23
F5.1500254025449976
sVY
L4L
sVX
L3L
sg466
g475
sg35
g36
sg37
g38
sg20
S'5'
sg19
S'space'
p560
sg34
g11
sg469
L5L
sg470
g515
sg472
L5L
sS'block.thisIndex'
p561
I10
sg474
g552
sg476
g467
sg478
g526
sa(dp562
S'block.thisTrialN'
p563
I10
sS'block.thisRepN'
p564
I0
sg29
g33
sS'block.thisN'
p565
I10
sg461
(S'ADD'
S'HALF'
S'x'
S'y'
tp566
sg27
g28
sg463
L2L
sg464
(I2
I7
tp567
sg21
I1
sg22
F1.5334010353544727
sg23
F1.6667625557165593
sVY
L5L
sVX
L4L
sg466
L0L
sg35
g36
sg37
g38
sg20
S'7'
sg19
S'space'
p568
sg34
g11
sg469
L7L
sg470
g477
sg472
L7L
sS'block.thisIndex'
p569
I0
sg474
VADD
p570
sg476
L0L
sg478
VBUxy
p571
sa(dp572
S'block.thisTrialN'
p573
I11
sS'block.thisRepN'
p574
I0
sg29
g33
sS'block.thisN'
p575
I11
sg461
(S'DIVIDE'
S'TRIPLE'
S'DECREASE'
S'x'
S'y'
tp576
sg27
g28
sg463
L3L
sg464
(I6
I18
I9
tp577
sg21
I1
sg22
F4.9500134852714837
sg23
F18.416421147005167
sVY
L2L
sVX
L7L
sg466
g496
sg35
g36
sg37
g38
sg20
S'9'
sg19
S'space'
p578
sg34
g11
sg469
L9L
sg470
g467
sg472
L9L
sS'block.thisIndex'
p579
I4
sg474
g552
sg476
L0L
sg478
g544
sa(dp580
S'block.thisTrialN'
p581
I12
sS'block.thisRepN'
p582
I0
sg29
g33
sS'block.thisN'
p583
I12
sg461
(S'DECREASE'
S'THIRD'
S'DOUBLE'
S'ADD'
S'x'
S'y'
tp584
sg27
g28
sg463
L4L
sg464
(I9
I18
I6
I5
tp585
sg21
I1
sg22
F6.9333051273133606
sg23
F19.333056119852699
sVY
L4L
sVX
L5L
sg466
g515
sg35
g36
sg37
g38
sg20
S'5'
sg19
S'space'
p586
sg34
g11
sg469
L5L
sg470
g506
sg472
L5L
sS'block.thisIndex'
p587
I16
sg474
g496
sg476
g570
sg478
g507
sa(dp588
S'block.thisTrialN'
p589
I13
sS'block.thisRepN'
p590
I0
sg29
g33
sS'block.thisN'
p591
I13
sg461
(S'TRIPLE'
S'INCREASE'
S'DIVIDE'
S'DOUBLE'
S'x'
S'y'
tp592
sg27
g28
sg463
L4L
sg464
(I16
I2
I3
I9
tp593
sg21
I0
sg22
F9.3999120747903362
sg23
F12.149863750091754
sVY
L8L
sVX
L8L
sg466
g552
sg35
g36
sg37
g38
sg20
S'3'
sg19
S'space'
p594
sg34
g11
sg469
L9L
sg470
g475
sg472
L9L
sS'block.thisIndex'
p595
I15
sg474
g467
sg476
g515
sg478
g517
sa(dp596
S'block.thisTrialN'
p597
I14
sS'block.thisRepN'
p598
I0
sg29
g33
sS'block.thisN'
p599
I14
sg461
(S'TRIPLE'
S'HALF'
S'ADD'
S'x'
S'y'
tp600
sg27
g28
sg463
L3L
sg464
(I6
I3
I9
tp601
sg21
I1
sg22
F1.9667466470855288
sg23
F8.4499527587322518
sVY
L3L
sVX
L3L
sg466
g570
sg35
g36
sg37
g38
sg20
S'9'
sg19
S'space'
p602
sg34
g11
sg469
L9L
sg470
g477
sg472
L9L
sS'block.thisIndex'
p603
I8
sg474
g467
sg476
L0L
sg478
g489
sa(dp604
S'block.thisTrialN'
p605
I15
sS'block.thisRepN'
p606
I0
sg29
g33
sS'block.thisN'
p607
I15
sg461
(S'DOUBLE'
S'DIVIDE'
S'x'
S'y'
tp608
sg27
g28
sg463
L2L
sg464
(I1
I2
tp609
sg21
I1
sg22
F1.7167408024542965
sg23
F1.8834249553619884
sVY
L8L
sVX
L8L
sg466
L0L
sg35
g36
sg37
g38
sg20
S'2'
sg19
S'space'
p610
sg34
g11
sg469
L2L
sg470
g552
sg472
L2L
sS'block.thisIndex'
p611
I2
sg474
g515
sg476
L0L
sg478
VUBxy
p612
sa(dp613
S'block.thisTrialN'
p614
I16
sS'block.thisRepN'
p615
I0
sg29
g33
sS'block.thisN'
p616
I16
sg461
(S'INCREASE'
S'DIVIDE'
S'x'
S'y'
tp617
sg27
g28
sg463
L2L
sg464
(I4
I5
tp618
sg21
I1
sg22
F1.7000609546084888
sg23
F8.7166210599825718
sVY
L2L
sVX
L8L
sg466
L0L
sg35
g36
sg37
g38
sg20
S'5'
sg19
S'space'
p619
sg34
g11
sg469
L5L
sg470
g552
sg472
L5L
sS'block.thisIndex'
p620
I3
sg474
g475
sg476
L0L
sg478
g612
sa(dp621
S'block.thisTrialN'
p622
I17
sS'block.thisRepN'
p623
I0
sg29
g33
sS'block.thisN'
p624
I17
sg461
(S'SUBTRACT'
S'TRIPLE'
S'x'
S'y'
tp625
sg27
g28
sg463
L2L
sg464
(I12
I9
tp626
sg21
I1
sg22
F1.1167595051229
sg23
F9.9665901264525019
sVY
L3L
sVX
L4L
sg466
L0L
sg35
g36
sg37
g38
sg20
S'9'
sg19
S'space'
p627
sg34
g11
sg469
L9L
sg470
g467
sg472
L9L
sS'block.thisIndex'
p628
I1
sg474
g486
sg476
L0L
sg478
g571
sa(dp629
S'block.thisTrialN'
p630
I0
sS'block.thisRepN'
p631
I0
sg29
g33
sS'block.thisN'
p632
I0
sVRule
p633
(S'SUBTRACT'
S'DECREASE'
S'x'
S'y'
tp634
sg27
g28
sVLength
p635
L2L
sVIntermediate
p636
(I5
I3
tp637
sg21
I1
sg22
F0.93342715065227821
sg23
F8.9499279548763297
sVY
L2L
sVX
L6L
sVOperatorc
p638
L0L
sg35
g36
sg37
g38
sg20
S'3'
sg19
S'space'
p639
sg34
g11
sVResult
p640
L3L
sVOperatora
p641
Vdecrease
p642
sVCorrectResponse
p643
L3L
sS'block.thisIndex'
p644
I1
sVOperatorb
p645
VSUBTRACT
p646
sVOperatord
p647
L0L
sVStructure
p648
VBUxy
p649
sa(dp650
S'block.thisTrialN'
p651
I1
sS'block.thisRepN'
p652
I0
sg29
g33
sS'block.thisN'
p653
I1
sg633
(S'INCREASE'
S'SUBTRACT'
S'HALF'
S'x'
S'y'
tp654
sg27
g28
sg635
L3L
sg636
(I4
I2
I3
tp655
sg21
I1
sg22
F9.8499261302640662
sg23
F8.3999422955093905
sVY
L2L
sVX
L8L
sg638
Vhalf
p656
sg35
g36
sg37
g38
sg20
S'3'
sg19
S'space'
p657
sg34
g11
sg640
L3L
sg641
g646
sg643
L3L
sS'block.thisIndex'
p658
I7
sg645
Vincrease
p659
sg647
L0L
sg648
VUBUxy
p660
sa(dp661
S'block.thisTrialN'
p662
I2
sS'block.thisRepN'
p663
I0
sg29
g33
sS'block.thisN'
p664
I2
sg633
(S'INCREASE'
S'ADD'
S'x'
S'y'
tp665
sg27
g28
sg635
L2L
sg636
(I5
I6
tp666
sg21
I1
sg22
F0.71674165781587362
sg23
F1.4167732470086776
sVY
L2L
sVX
L3L
sg638
L0L
sg35
g36
sg37
g38
sg20
S'6'
sg19
S'space'
p667
sg34
g11
sg640
L6L
sg641
VADD
p668
sg643
L6L
sS'block.thisIndex'
p669
I3
sg645
g659
sg647
L0L
sg648
VUBxy
p670
sa(dp671
S'block.thisTrialN'
p672
I3
sS'block.thisRepN'
p673
I0
sg29
g33
sS'block.thisN'
p674
I3
sg633
(S'DIVIDE'
S'DECREASE'
S'TRIPLE'
S'x'
S'y'
tp675
sg27
g28
sg635
L3L
sg636
(I9
I8
I4
tp676
sg21
I1
sg22
F4.8166972960461862
sg23
F10.883228235470597
sVY
L2L
sVX
L3L
sg638
Vtriple
p677
sg35
g36
sg37
g38
sg20
S'4'
sg19
S'space'
p678
sg34
g11
sg640
L4L
sg641
g642
sg643
L4L
sS'block.thisIndex'
p679
I5
sg645
VDIVIDE
p680
sg647
L0L
sg648
VBUUxy
p681
sa(dp682
S'block.thisTrialN'
p683
I4
sS'block.thisRepN'
p684
I0
sg29
g33
sS'block.thisN'
p685
I4
sg633
(S'INCREASE'
S'TRIPLE'
S'DIVIDE'
S'x'
S'y'
tp686
sg27
g28
sg635
L3L
sg636
(I2
I6
I7
tp687
sg21
I1
sg22
F1.9834011209313758
sg23
F7.8499569211853668
sVY
L3L
sVX
L6L
sg638
g680
sg35
g36
sg37
g38
sg20
S'7'
sg19
S'space'
p688
sg34
g11
sg640
L7L
sg641
g677
sg643
L7L
sS'block.thisIndex'
p689
I8
sg645
g659
sg647
L0L
sg648
VUUBxy
p690
sa(dp691
S'block.thisTrialN'
p692
I5
sS'block.thisRepN'
p693
I0
sg29
g33
sS'block.thisN'
p694
I5
sg633
(S'ADD'
S'HALF'
S'THIRD'
S'x'
S'y'
tp695
sg27
g28
sg635
L3L
sg636
(I2
I1
I9
tp696
sg21
I1
sg22
F2.1833993532927707
sg23
F8.2666312380461022
sVY
L8L
sVX
L6L
sg638
Vthird
p697
sg35
g36
sg37
g38
sg20
S'9'
sg19
S'space'
p698
sg34
g11
sg640
L9L
sg641
g656
sg643
L9L
sS'block.thisIndex'
p699
I4
sg645
g668
sg647
L0L
sg648
g681
sa(dp700
S'block.thisTrialN'
p701
I6
sS'block.thisRepN'
p702
I0
sg29
g33
sS'block.thisN'
p703
I6
sg633
(S'THIRD'
S'INCREASE'
S'DIVIDE'
S'DOUBLE'
S'x'
S'y'
tp704
sg27
g28
sg635
L4L
sg636
(I18
I2
I3
I1
tp705
sg21
I1
sg22
F14.166424140508752
sg23
F10.616575329739135
sVY
L9L
sVX
L9L
sg638
g680
sg35
g36
sg37
g38
sg20
S'1'
sg19
S'space'
p706
sg34
g11
sg640
L1L
sg641
g659
sg643
L1L
sS'block.thisIndex'
p707
I15
sg645
g697
sg647
Vdouble
p708
sg648
VUUBUxy
p709
sa(dp710
S'block.thisTrialN'
p711
I7
sS'block.thisRepN'
p712
I0
sg29
g33
sS'block.thisN'
p713
I7
sg633
(S'SUBTRACT'
S'DECREASE'
S'TRIPLE'
S'DOUBLE'
S'x'
S'y'
tp714
sg27
g28
sg635
L4L
sg636
(I6
I18
I17
I8
tp715
sg21
I0
sg22
F14.683146468480118
sVY
L9L
sVX
L3L
sg638
g677
sg35
g36
sg37
g38
sg20
Nsg19
S'space'
p716
sg34
g11
sg640
L8L
sg641
g642
sg643
L8L
sS'block.thisIndex'
p717
I11
sg645
g646
sg647
g708
sg648
VBUUUxy
p718
sa(dp719
S'block.thisTrialN'
p720
I8
sS'block.thisRepN'
p721
I0
sg29
g33
sS'block.thisN'
p722
I8
sg633
(S'THIRD'
S'TIMES'
S'DOUBLE'
S'DECREASE'
S'x'
S'y'
tp723
sg27
g28
sg635
L4L
sg636
(I1
I2
I6
I2
tp724
sg21
I1
sg22
F9.3831817640457302
sg23
F9.5832549780025147
sVY
L3L
sVX
L2L
sg638
g708
sg35
g36
sg37
g38
sg20
S'2'
sg19
S'space'
p725
sg34
g11
sg640
L2L
sg641
VTIMES
p726
sg643
L2L
sS'block.thisIndex'
p727
I13
sg645
g697
sg647
g642
sg648
VUBUUxy
p728
sa(dp729
S'block.thisTrialN'
p730
I9
sS'block.thisRepN'
p731
I0
sg29
g33
sS'block.thisN'
p732
I9
sg633
(S'THIRD'
S'DOUBLE'
S'ADD'
S'DECREASE'
S'x'
S'y'
tp733
sg27
g28
sg635
L4L
sg636
(I5
I12
I24
I8
tp734
sg21
I0
sg22
F14.716579435218591
sVY
L7L
sVX
L6L
sg638
g668
sg35
g36
sg37
g38
sg20
Nsg19
S'space'
p735
sg34
g11
sg640
L8L
sg641
g708
sg643
L8L
sS'block.thisIndex'
p736
I14
sg645
g697
sg647
g642
sg648
g709
sa(dp737
S'block.thisTrialN'
p738
I10
sS'block.thisRepN'
p739
I0
sg29
g33
sS'block.thisN'
p740
I10
sg633
(S'THIRD'
S'HALF'
S'ADD'
S'x'
S'y'
tp741
sg27
g28
sg635
L3L
sg636
(I6
I3
I1
tp742
sg21
I1
sg22
F2.8333973861299455
sg23
F9.5666010744171217
sVY
L3L
sVX
L3L
sg638
g668
sg35
g36
sg37
g38
sg20
S'1'
sg19
S'space'
p743
sg34
g11
sg640
L1L
sg641
g656
sg643
L1L
sS'block.thisIndex'
p744
I9
sg645
g697
sg647
L0L
sg648
g690
sa(dp745
S'block.thisTrialN'
p746
I11
sS'block.thisRepN'
p747
I0
sg29
g33
sS'block.thisN'
p748
I11
sg633
(S'DOUBLE'
S'ADD'
S'INCREASE'
S'THIRD'
S'x'
S'y'
tp749
sg27
g28
sg635
L4L
sg636
(I1
I2
I4
I8
tp750
sg21
I1
sg22
F12.566541488165967
sg23
F9.6332625902141444
sVY
L2L
sVX
L3L
sg638
g659
sg35
g36
sg37
g38
sg20
S'8'
sg19
S'space'
p751
sg34
g11
sg640
L8L
sg641
g668
sg643
L8L
sS'block.thisIndex'
p752
I12
sg645
g708
sg647
g697
sg648
g728
sa(dp753
S'block.thisTrialN'
p754
I12
sS'block.thisRepN'
p755
I0
sg29
g33
sS'block.thisN'
p756
I12
sg633
(S'DECREASE'
S'DIVIDE'
S'x'
S'y'
tp757
sg27
g28
sg635
L2L
sg636
(I2
I1
tp758
sg21
I1
sg22
F1.050085729919374
sg23
F4.0167157706455328
sVY
L4L
sVX
L8L
sg638
L0L
sg35
g36
sg37
g38
sg20
S'1'
sg19
S'space'
p759
sg34
g11
sg640
L1L
sg641
g680
sg643
L1L
sS'block.thisIndex'
p760
I2
sg645
g642
sg647
L0L
sg648
g670
sa(dp761
S'block.thisTrialN'
p762
I13
sS'block.thisRepN'
p763
I0
sg29
g33
sS'block.thisN'
p764
I13
sg633
(S'DIVIDE'
S'INCREASE'
S'x'
S'y'
tp765
sg27
g28
sg635
L2L
sg636
(I4
I2
tp766
sg21
I1
sg22
F1.566742199473083
sg23
F13.08317657513544
sVY
L2L
sVX
L3L
sg638
L0L
sg35
g36
sg37
g38
sg20
S'2'
sg19
S'space'
p767
sg34
g11
sg640
L2L
sg641
g659
sg643
L2L
sS'block.thisIndex'
p768
I0
sg645
g680
sg647
L0L
sg648
g649
sa(dp769
S'block.thisTrialN'
p770
I14
sS'block.thisRepN'
p771
I0
sg29
g33
sS'block.thisN'
p772
I14
sg633
(S'HALF'
S'ADD'
S'TRIPLE'
S'x'
S'y'
tp773
sg27
g28
sg635
L3L
sg636
(I9
I12
I6
tp774
sg21
I1
sg22
F1.216762755298987
sg23
F3.9667007457464933
sVY
L3L
sVX
L3L
sg638
g677
sg35
g36
sg37
g38
sg20
S'6'
sg19
S'space'
p775
sg34
g11
sg640
L6L
sg641
g668
sg643
L6L
sS'block.thisIndex'
p776
I6
sg645
g656
sg647
L0L
sg648
g660
sa(dp777
S'block.thisTrialN'
p778
I15
sS'block.thisRepN'
p779
I0
sg29
g33
sS'block.thisN'
p780
I15
sg633
(S'THIRD'
S'DOUBLE'
S'INCREASE'
S'TIMES'
S'x'
S'y'
tp781
sg27
g28
sg635
L4L
sg636
(I8
I9
I18
I6
tp782
sg21
I1
sg22
F4.8833362888544798
sg23
F7.0832595396204852
sVY
L4L
sVX
L2L
sg638
g659
sg35
g36
sg37
g38
sg20
S'6'
sg19
S'space'
p783
sg34
g11
sg640
L6L
sg641
g708
sg643
L6L
sS'block.thisIndex'
p784
I17
sg645
g697
sg647
g726
sg648
VUUUBxy
p785
sa(dp786
S'block.thisTrialN'
p787
I16
sS'block.thisRepN'
p788
I0
sg29
g33
sS'block.thisN'
p789
I16
sg633
(S'HALF'
S'TRIPLE'
S'INCREASE'
S'DIVIDE'
S'x'
S'y'
tp790
sg27
g28
sg635
L4L
sg636
(I3
I4
I12
I6
tp791
sg21
I1
sg22
F12.766527176136151
sg23
F6.8833419909351505
sVY
L3L
sVX
L9L
sg638
g659
sg35
g36
sg37
g38
sg20
S'6'
sg19
S'space'
p792
sg34
g11
sg640
L6L
sg641
g677
sg643
L6L
sS'block.thisIndex'
p793
I16
sg645
g656
sg647
g680
sg648
g785
sa(dp794
S'block.thisTrialN'
p795
I17
sS'block.thisRepN'
p796
I0
sg29
g33
sS'block.thisN'
p797
I17
sg633
(S'ADD'
S'DOUBLE'
S'DECREASE'
S'THIRD'
S'x'
S'y'
tp798
sg27
g28
sg635
L4L
sg636
(I2
I1
I2
I8
tp799
sg21
I0
sVY
L6L
sVX
L6L
sg638
g642
sg35
g36
sg37
g38
sg20
Nsg19
Nsg34
g11
sg640
L8L
sg641
g708
sg643
L8L
sS'block.thisIndex'
p800
I10
sg645
g668
sg647
g697
sg648
g718
sa(dp801
S'block.thisTrialN'
p802
I0
sS'block.thisRepN'
p803
I0
sg29
g33
sS'block.thisN'
p804
I0
sVRule
p805
(S'THIRD'
S'DECREASE'
S'TIMES'
S'x'
S'y'
tp806
sg27
g28
sVLength
p807
L3L
sVIntermediate
p808
(I25
I24
I8
tp809
sg21
I1
sg22
F10.116565351199824
sg23
F16.983095777453855
sVY
L5L
sVX
L5L
sVOperatorc
p810
VTIMES
p811
sg35
g36
sg37
g38
sg20
S'8'
sg19
S'space'
p812
sg34
g11
sVResult
p813
L8L
sVOperatora
p814
Vdecrease
p815
sVCorrectResponse
p816
L8L
sS'block.thisIndex'
p817
I8
sVOperatorb
p818
Vthird
p819
sVOperatord
p820
L0L
sVStructure
p821
VUUBxy
p822
sa(dp823
S'block.thisTrialN'
p824
I1
sS'block.thisRepN'
p825
I0
sg29
g33
sS'block.thisN'
p826
I1
sg805
(S'TIMES'
S'DECREASE'
S'HALF'
S'x'
S'y'
tp827
sg27
g28
sg807
L3L
sg808
(I4
I3
I9
tp828
sg21
I0
sg22
F8.3999197725206614
sg23
F14.699820329202339
sVY
L3L
sVX
L8L
sg810
Vhalf
p829
sg35
g36
sg37
g38
sg20
S'6'
sg19
S'space'
p830
sg34
g11
sg813
L9L
sg814
g815
sg816
L9L
sS'block.thisIndex'
p831
I4
sg818
g811
sg820
L0L
sg821
VBUUxy
p832
sa(dp833
S'block.thisTrialN'
p834
I2
sS'block.thisRepN'
p835
I0
sg29
g33
sS'block.thisN'
p836
I2
sg805
(S'THIRD'
S'ADD'
S'x'
S'y'
tp837
sg27
g28
sg807
L2L
sg808
(I9
I3
tp838
sg21
I1
sg22
F0.75008168147178367
sg23
F4.0334033162216656
sVY
L5L
sVX
L4L
sg810
L0L
sg35
g36
sg37
g38
sg20
S'3'
sg19
S'space'
p839
sg34
g11
sg813
L3L
sg814
VADD
p840
sg816
L3L
sS'block.thisIndex'
p841
I2
sg818
g819
sg820
L0L
sg821
VUBxy
p842
sa(dp843
S'block.thisTrialN'
p844
I3
sS'block.thisRepN'
p845
I0
sg29
g33
sS'block.thisN'
p846
I3
sg805
(S'TRIPLE'
S'HALF'
S'ADD'
S'DECREASE'
S'x'
S'y'
tp847
sg27
g28
sg807
L4L
sg808
(I1
I4
I2
I6
tp848
sg21
I1
sg22
F11.56656543671852
sg23
F9.9499413546873257
sVY
L3L
sVX
L2L
sg810
g840
sg35
g36
sg37
g38
sg20
S'6'
sg19
S'space'
p849
sg34
g11
sg813
L6L
sg814
g829
sg816
L6L
sS'block.thisIndex'
p850
I15
sg818
Vtriple
p851
sg820
g815
sg821
VUUBUxy
p852
sa(dp853
S'block.thisTrialN'
p854
I4
sS'block.thisRepN'
p855
I0
sg29
g33
sS'block.thisN'
p856
I4
sg805
(S'TRIPLE'
S'HALF'
S'DIVIDE'
S'x'
S'y'
tp857
sg27
g28
sg807
L3L
sg808
(I2
I1
I3
tp858
sg21
I1
sg22
F5.3666778235929087
sg23
F2.7834194244351238
sVY
L2L
sVX
L4L
sg810
VDIVIDE
p859
sg35
g36
sg37
g38
sg20
S'3'
sg19
S'space'
p860
sg34
g11
sg813
L3L
sg814
g829
sg816
L3L
sS'block.thisIndex'
p861
I9
sg818
g851
sg820
L0L
sg821
g822
sa(dp862
S'block.thisTrialN'
p863
I5
sS'block.thisRepN'
p864
I0
sg29
g33
sS'block.thisN'
p865
I5
sg805
(S'TIMES'
S'THIRD'
S'HALF'
S'x'
S'y'
tp866
sg27
g28
sg807
L3L
sg808
(I3
I1
I5
tp867
sg21
I1
sg22
F3.2833740932983346
sg23
F5.0333759464556351
sVY
L5L
sVX
L6L
sg810
g829
sg35
g36
sg37
g38
sg20
S'5'
sg19
S'space'
p868
sg34
g11
sg813
L5L
sg814
g819
sg816
L5L
sS'block.thisIndex'
p869
I5
sg818
g811
sg820
L0L
sg821
g832
sa(dp870
S'block.thisTrialN'
p871
I6
sS'block.thisRepN'
p872
I0
sg29
g33
sS'block.thisN'
p873
I6
sg805
(S'TIMES'
S'DECREASE'
S'x'
S'y'
tp874
sg27
g28
sg807
L2L
sg808
(I2
I4
tp875
sg21
I1
sg22
F1.4334012063918635
sg23
F8.6166146737523377
sVY
L2L
sVX
L3L
sg810
L0L
sg35
g36
sg37
g38
sg20
S'4'
sg19
S'space'
p876
sg34
g11
sg813
L4L
sg814
g815
sg816
L4L
sS'block.thisIndex'
p877
I0
sg818
g811
sg820
L0L
sg821
VBUxy
p878
sa(dp879
S'block.thisTrialN'
p880
I7
sS'block.thisRepN'
p881
I0
sg29
g33
sS'block.thisN'
p882
I7
sg805
(S'INCREASE'
S'DIVIDE'
S'TRIPLE'
S'DOUBLE'
S'x'
S'y'
tp883
sg27
g28
sg807
L4L
sg808
(I6
I18
I3
I4
tp884
sg21
I1
sg22
F13.049843964050524
sg23
F7.6499629653408192
sVY
L6L
sVX
L3L
sg810
g851
sg35
g36
sg37
g38
sg20
S'4'
sg19
S'space'
p885
sg34
g11
sg813
L4L
sg814
g859
sg816
L4L
sS'block.thisIndex'
p886
I12
sg818
Vincrease
p887
sg820
Vdouble
p888
sg821
VUBUUxy
p889
sa(dp890
S'block.thisTrialN'
p891
I8
sS'block.thisRepN'
p892
I0
sg29
g33
sS'block.thisN'
p893
I8
sg805
(S'THIRD'
S'ADD'
S'INCREASE'
S'x'
S'y'
tp894
sg27
g28
sg807
L3L
sg808
(I8
I15
I5
tp895
sg21
I1
sg22
F4.3333540507010184
sg23
F3.5167274597333744
sVY
L7L
sVX
L7L
sg810
g887
sg35
g36
sg37
g38
sg20
S'5'
sg19
S'space'
p896
sg34
g11
sg813
L5L
sg814
g840
sg816
L5L
sS'block.thisIndex'
p897
I6
sg818
g819
sg820
L0L
sg821
VUBUxy
p898
sa(dp899
S'block.thisTrialN'
p900
I9
sS'block.thisRepN'
p901
I0
sg29
g33
sS'block.thisN'
p902
I9
sg805
(S'SUBTRACT'
S'HALF'
S'INCREASE'
S'TRIPLE'
S'x'
S'y'
tp903
sg27
g28
sg807
L4L
sg808
(I15
I16
I8
I3
tp904
sg21
I1
sg22
F10.349895054241642
sg23
F15.849814085464459
sVY
L5L
sVX
L5L
sg810
g887
sg35
g36
sg37
g38
sg20
S'3'
sg19
S'space'
p905
sg34
g11
sg813
L3L
sg814
g829
sg816
L3L
sS'block.thisIndex'
p906
I10
sg818
VSUBTRACT
p907
sg820
g851
sg821
VBUUUxy
p908
sa(dp909
S'block.thisTrialN'
p910
I10
sS'block.thisRepN'
p911
I0
sg29
g33
sS'block.thisN'
p912
I10
sg805
(S'THIRD'
S'TIMES'
S'DECREASE'
S'x'
S'y'
tp913
sg27
g28
sg807
L3L
sg808
(I3
I15
I5
tp914
sg21
I1
sg22
F6.3499748826143332
sg23
F8.9499390738201328
sVY
L5L
sVX
L4L
sg810
g815
sg35
g36
sg37
g38
sg20
S'5'
sg19
S'space'
p915
sg34
g11
sg813
L5L
sg814
g811
sg816
L5L
sS'block.thisIndex'
p916
I7
sg818
g819
sg820
L0L
sg821
g898
sa(dp917
S'block.thisTrialN'
p918
I11
sS'block.thisRepN'
p919
I0
sg29
g33
sS'block.thisN'
p920
I11
sg805
(S'THIRD'
S'SUBTRACT'
S'x'
S'y'
tp921
sg27
g28
sg807
L2L
sg808
(I3
I1
tp922
sg21
I1
sg22
F1.3000895788427442
sg23
F2.4501030070241541
sVY
L2L
sVX
L5L
sg810
L0L
sg35
g36
sg37
g38
sg20
S'1'
sg19
S'space'
p923
sg34
g11
sg813
L1L
sg814
g907
sg816
L1L
sS'block.thisIndex'
p924
I3
sg818
g819
sg820
L0L
sg821
g842
sa(dp925
S'block.thisTrialN'
p926
I12
sS'block.thisRepN'
p927
I0
sg29
g33
sS'block.thisN'
p928
I12
sg805
(S'TIMES'
S'INCREASE'
S'THIRD'
S'DOUBLE'
S'x'
S'y'
tp929
sg27
g28
sg807
L4L
sg808
(I6
I2
I3
I9
tp930
sg21
I0
sg22
F6.8499751677154563
sVY
L3L
sVX
L3L
sg810
g819
sg35
g36
sg37
g38
sg20
Nsg19
S'space'
p931
sg34
g11
sg813
L9L
sg814
g887
sg816
L9L
sS'block.thisIndex'
p932
I11
sg818
g811
sg820
g888
sg821
g908
sa(dp933
S'block.thisTrialN'
p934
I13
sS'block.thisRepN'
p935
I0
sg29
g33
sS'block.thisN'
p936
I13
sg805
(S'TIMES'
S'INCREASE'
S'x'
S'y'
tp937
sg27
g28
sg807
L2L
sg808
(I3
I6
tp938
sg21
I1
sg22
F1.2500888089998625
sg23
F12.366415530501399
sVY
L2L
sVX
L2L
sg810
L0L
sg35
g36
sg37
g38
sg20
S'6'
sg19
S'space'
p939
sg34
g11
sg813
L6L
sg814
g887
sg816
L6L
sS'block.thisIndex'
p940
I1
sg818
g811
sg820
L0L
sg821
g878
sa(dp941
S'block.thisTrialN'
p942
I14
sS'block.thisRepN'
p943
I0
sg29
g33
sS'block.thisN'
p944
I14
sg805
(S'TRIPLE'
S'DECREASE'
S'HALF'
S'TIMES'
S'x'
S'y'
tp945
sg27
g28
sg807
L4L
sg808
(I6
I3
I2
I6
tp946
sg21
I0
sg22
F18.999740842962638
sVY
L2L
sVX
L3L
sg810
g829
sg35
g36
sg37
g38
sg20
Nsg19
S'space'
p947
sg34
g11
sg813
L6L
sg814
g815
sg816
L6L
sS'block.thisIndex'
p948
I17
sg818
g851
sg820
g811
sg821
VUUUBxy
p949
sa(dp950
S'block.thisTrialN'
p951
I15
sS'block.thisRepN'
p952
I0
sg29
g33
sS'block.thisN'
p953
I15
sg805
(S'THIRD'
S'DOUBLE'
S'ADD'
S'INCREASE'
S'x'
S'y'
tp954
sg27
g28
sg807
L4L
sg808
(I10
I12
I24
I8
tp955
sg21
I0
sg22
F15.549811747623608
sg23
F17.333125684584957
sVY
L2L
sVX
L9L
sg810
g840
sg35
g36
sg37
g38
sg20
S'2'
sg19
S'space'
p956
sg34
g11
sg813
L8L
sg814
g888
sg816
L8L
sS'block.thisIndex'
p957
I14
sg818
g819
sg820
g887
sg821
g852
sa(dp958
S'block.thisTrialN'
p959
I16
sS'block.thisRepN'
p960
I0
sg29
g33
sS'block.thisN'
p961
I16
sg805
(S'TRIPLE'
S'SUBTRACT'
S'DOUBLE'
S'DECREASE'
S'x'
S'y'
tp962
sg27
g28
sg807
L4L
sg808
(I2
I4
I1
I3
tp963
sg21
I0
sVY
L3L
sVX
L3L
sg810
g888
sg35
g36
sg37
g38
sg20
Nsg19
Nsg34
g11
sg813
L3L
sg814
g907
sg816
L3L
sS'block.thisIndex'
p964
I13
sg818
g851
sg820
g815
sg821
g889
sa(dp965
S'block.thisTrialN'
p966
I17
sS'block.thisRepN'
p967
I0
sg29
g33
sS'block.thisN'
p968
I17
sg805
(S'THIRD'
S'INCREASE'
S'HALF'
S'DIVIDE'
S'x'
S'y'
tp969
sg27
g28
sg807
L4L
sg808
(I4
I2
I3
I1
tp970
sg21
I1
sg22
F12.116536555928178
sg23
F9.8999012409476563
sVY
L2L
sVX
L8L
sg810
g829
sg35
g36
sg37
g38
sg20
S'1'
sg19
S'space'
p971
sg34
g11
sg813
L1L
sg814
g887
sg816
L1L
sS'block.thisIndex'
p972
I16
sg818
g819
sg820
g859
sg821
g949
sa(dp973
S'block.thisTrialN'
p974
I0
sS'block.thisRepN'
p975
I0
sg29
g33
sS'block.thisN'
p976
I0
sVRule
p977
(S'DOUBLE'
S'SUBTRACT'
S'x'
S'y'
tp978
sg27
g28
sVLength
p979
L2L
sVIntermediate
p980
(I1
I2
tp981
sg21
I1
sg22
F1.2332895037834533
sg23
F2.1002721005934291
sVY
L7L
sVX
L8L
sVOperatorc
p982
L0L
sg35
g36
sg37
g38
sg20
S'2'
sg19
S'space'
p983
sg34
g11
sVResult
p984
L2L
sVOperatora
p985
VSUBTRACT
p986
sVCorrectResponse
p987
L2L
sS'block.thisIndex'
p988
I2
sVOperatorb
p989
Vdouble
p990
sVOperatord
p991
L0L
sVStructure
p992
VUBxy
p993
sa(dp994
S'block.thisTrialN'
p995
I1
sS'block.thisRepN'
p996
I0
sg29
g33
sS'block.thisN'
p997
I1
sg977
(S'HALF'
S'SUBTRACT'
S'TRIPLE'
S'x'
S'y'
tp998
sg27
g28
sg979
L3L
sg980
(I9
I2
I1
tp999
sg21
I1
sg22
F5.3833331527421251
sg23
F9.099943949142471
sVY
L7L
sVX
L3L
sg982
Vtriple
p1000
sg35
g36
sg37
g38
sg20
S'1'
sg19
S'space'
p1001
sg34
g11
sg984
L1L
sg985
g986
sg987
L1L
sS'block.thisIndex'
p1002
I6
sg989
Vhalf
p1003
sg991
L0L
sg992
VUBUxy
p1004
sa(dp1005
S'block.thisTrialN'
p1006
I2
sS'block.thisRepN'
p1007
I0
sg29
g33
sS'block.thisN'
p1008
I2
sg977
(S'DIVIDE'
S'DOUBLE'
S'THIRD'
S'x'
S'y'
tp1009
sg27
g28
sg979
L3L
sg980
(I2
I4
I1
tp1010
sg21
I1
sg22
F2.7667184790479951
sg23
F16.549715668545105
sVY
L4L
sVX
L6L
sg982
Vthird
p1011
sg35
g36
sg37
g38
sg20
S'1'
sg19
S'space'
p1012
sg34
g11
sg984
L1L
sg985
g990
sg987
L1L
sS'block.thisIndex'
p1013
I4
sg989
VDIVIDE
p1014
sg991
L0L
sg992
VBUUxy
p1015
sa(dp1016
S'block.thisTrialN'
p1017
I3
sS'block.thisRepN'
p1018
I0
sg29
g33
sS'block.thisN'
p1019
I3
sg977
(S'ADD'
S'THIRD'
S'INCREASE'
S'HALF'
S'x'
S'y'
tp1020
sg27
g28
sg979
L4L
sg980
(I2
I3
I1
I7
tp1021
sg21
I0
sg22
F18.249719032726716
sVY
L6L
sVX
L4L
sg982
Vincrease
p1022
sg35
g36
sg37
g38
sg20
Nsg19
S'space'
p1023
sg34
g11
sg984
L7L
sg985
g1011
sg987
L7L
sS'block.thisIndex'
p1024
I10
sg989
VADD
p1025
sg991
g1003
sg992
VBUUUxy
p1026
sa(dp1027
S'block.thisTrialN'
p1028
I4
sS'block.thisRepN'
p1029
I0
sg29
g33
sS'block.thisN'
p1030
I4
sg977
(S'INCREASE'
S'DIVIDE'
S'THIRD'
S'x'
S'y'
tp1031
sg27
g28
sg979
L3L
sg980
(I3
I1
I2
tp1032
sg21
I1
sg22
F9.0332408084650524
sg23
F6.1000289092771709
sVY
L3L
sVX
L9L
sg982
g1011
sg35
g36
sg37
g38
sg20
S'2'
sg19
S'space'
p1033
sg34
g11
sg984
L2L
sg985
g1014
sg987
L2L
sS'block.thisIndex'
p1034
I7
sg989
g1022
sg991
L0L
sg992
g1004
sa(dp1035
S'block.thisTrialN'
p1036
I5
sS'block.thisRepN'
p1037
I0
sg29
g33
sS'block.thisN'
p1038
I5
sg977
(S'DECREASE'
S'ADD'
S'DOUBLE'
S'THIRD'
S'x'
S'y'
tp1039
sg27
g28
sg979
L4L
sg980
(I3
I6
I10
I9
tp1040
sg21
I0
sVY
L4L
sVX
L9L
sg982
g990
sg35
g36
sg37
g38
sg20
Nsg19
Nsg34
g11
sg984
L9L
sg985
g1025
sg987
L9L
sS'block.thisIndex'
p1041
I12
sg989
Vdecrease 
p1042
sg991
g1011
sg992
VUBUUxy
p1043
sa(dp1044
S'block.thisTrialN'
p1045
I6
sS'block.thisRepN'
p1046
I0
sg29
g33
sS'block.thisN'
p1047
I6
sg977
(S'DOUBLE'
S'TRIPLE'
S'SUBTRACT'
S'x'
S'y'
tp1048
sg27
g28
sg979
L3L
sg980
(I1
I3
I6
tp1049
sg21
I1
sg22
F7.5499605705263093
sg23
F10.216600247600581
sVY
L3L
sVX
L4L
sg982
g986
sg35
g36
sg37
g38
sg20
S'6'
sg19
S'space'
p1050
sg34
g11
sg984
L6L
sg985
g1000
sg987
L6L
sS'block.thisIndex'
p1051
I9
sg989
g990
sg991
L0L
sg992
VUUBxy
p1052
sa(dp1053
S'block.thisTrialN'
p1054
I7
sS'block.thisRepN'
p1055
I0
sg29
g33
sS'block.thisN'
p1056
I7
sg977
(S'HALF'
S'TIMES'
S'x'
S'y'
tp1057
sg27
g28
sg979
L2L
sg980
(I16
I8
tp1058
sg21
I1
sg22
F0.85010802489705384
sg23
F4.1333766307216138
sVY
L4L
sVX
L4L
sg982
L0L
sg35
g36
sg37
g38
sg20
S'8'
sg19
S'space'
p1059
sg34
g11
sg984
L8L
sg985
VTIMES
p1060
sg987
L8L
sS'block.thisIndex'
p1061
I3
sg989
g1003
sg991
L0L
sg992
g993
sa(dp1062
S'block.thisTrialN'
p1063
I8
sS'block.thisRepN'
p1064
I0
sg29
g33
sS'block.thisN'
p1065
I8
sg977
(S'DECREASE'
S'TIMES'
S'DOUBLE'
S'THIRD'
S'x'
S'y'
tp1066
sg27
g28
sg979
L4L
sg980
(I1
I2
I8
I7
tp1067
sg21
I0
sg22
F9.3665760424919426
sg23
F9.2166008178028278
sVY
L4L
sVX
L3L
sg982
g990
sg35
g36
sg37
g38
sg20
S'3'
sg19
S'space'
p1068
sg34
g11
sg984
L7L
sg985
g1060
sg987
L7L
sS'block.thisIndex'
p1069
I13
sg989
Vdecrease
p1070
sg991
g1011
sg992
g1043
sa(dp1071
S'block.thisTrialN'
p1072
I9
sS'block.thisRepN'
p1073
I0
sg29
g33
sS'block.thisN'
p1074
I9
sg977
(S'DOUBLE'
S'TRIPLE'
S'DIVIDE'
S'DECREASE'
S'x'
S'y'
tp1075
sg27
g28
sg979
L4L
sg980
(I8
I1
I3
I6
tp1076
sg21
I0
sVY
L8L
sVX
L9L
sg982
g1014
sg35
g36
sg37
g38
sg20
Nsg19
Nsg34
g11
sg984
L6L
sg985
g1000
sg987
L6L
sS'block.thisIndex'
p1077
I15
sg989
g990
sg991
g1070
sg992
VUUBUxy
p1078
sa(dp1079
S'block.thisTrialN'
p1080
I10
sS'block.thisRepN'
p1081
I0
sg29
g33
sS'block.thisN'
p1082
I10
sg977
(S'ADD'
S'DOUBLE'
S'x'
S'y'
tp1083
sg27
g28
sg979
L2L
sg980
(I4
I8
tp1084
sg21
I1
sg22
F0.73342635232256725
sg23
F2.9167435964918695
sVY
L4L
sVX
L2L
sg982
L0L
sg35
g36
sg37
g38
sg20
S'8'
sg19
S'space'
p1085
sg34
g11
sg984
L8L
sg985
g990
sg987
L8L
sS'block.thisIndex'
p1086
I0
sg989
g1025
sg991
L0L
sg992
VBUxy
p1087
sa(dp1088
S'block.thisTrialN'
p1089
I11
sS'block.thisRepN'
p1090
I0
sg29
g33
sS'block.thisN'
p1091
I11
sg977
(S'DECREASE'
S'THIRD'
S'TIMES'
S'HALF'
S'x'
S'y'
tp1092
sg27
g28
sg979
L4L
sg980
(I2
I12
I4
I3
tp1093
sg21
I1
sg22
F16.283108949137386
sg23
F14.049829138850328
sVY
L6L
sVX
L4L
sg982
g1060
sg35
g36
sg37
g38
sg20
S'3'
sg19
S'space'
p1094
sg34
g11
sg984
L3L
sg985
g1011
sg987
L3L
sS'block.thisIndex'
p1095
I14
sg989
g1070
sg991
g1003
sg992
g1078
sa(dp1096
S'block.thisTrialN'
p1097
I12
sS'block.thisRepN'
p1098
I0
sg29
g33
sS'block.thisN'
p1099
I12
sg977
(S'SUBTRACT'
S'HALF'
S'TRIPLE'
S'x'
S'y'
tp1100
sg27
g28
sg979
L3L
sg980
(I12
I6
I2
tp1101
sg21
I1
sg22
F7.3832824047422037
sg23
F7.2998885824345052
sVY
L4L
sVX
L4L
sg982
g1000
sg35
g36
sg37
g38
sg20
S'2'
sg19
S'space'
p1102
sg34
g11
sg984
L2L
sg985
g1003
sg987
L2L
sS'block.thisIndex'
p1103
I5
sg989
g986
sg991
L0L
sg992
g1015
sa(dp1104
S'block.thisTrialN'
p1105
I13
sS'block.thisRepN'
p1106
I0
sg29
g33
sS'block.thisN'
p1107
I13
sg977
(S'DOUBLE'
S'DECREASE'
S'TRIPLE'
S'DIVIDE'
S'x'
S'y'
tp1108
sg27
g28
sg979
L4L
sg980
(I1
I3
I2
I4
tp1109
sg21
I1
sg22
F6.6832855978282169
sg23
F8.7831414507236332
sVY
L4L
sVX
L4L
sg982
g1000
sg35
g36
sg37
g38
sg20
S'4'
sg19
S'space'
p1110
sg34
g11
sg984
L4L
sg985
g1070
sg987
L4L
sS'block.thisIndex'
p1111
I17
sg989
g990
sg991
g1014
sg992
VUUUBxy
p1112
sa(dp1113
S'block.thisTrialN'
p1114
I14
sS'block.thisRepN'
p1115
I0
sg29
g33
sS'block.thisN'
p1116
I14
sg977
(S'DECREASE'
S'HALF'
S'TRIPLE'
S'DIVIDE'
S'x'
S'y'
tp1117
sg27
g28
sg979
L4L
sg980
(I4
I12
I6
I5
tp1118
sg21
I1
sg22
F14.983133695961442
sg23
F4.9334228741354309
sVY
L2L
sVX
L8L
sg982
g1000
sg35
g36
sg37
g38
sg20
S'5'
sg19
S'space'
p1119
sg34
g11
sg984
L5L
sg985
g1003
sg987
L5L
sS'block.thisIndex'
p1120
I16
sg989
g1070
sg991
g1014
sg992
g1112
sa(dp1121
S'block.thisTrialN'
p1122
I15
sS'block.thisRepN'
p1123
I0
sg29
g33
sS'block.thisN'
p1124
I15
sg977
(S'DIVIDE'
S'DOUBLE'
S'x'
S'y'
tp1125
sg27
g28
sg979
L2L
sg980
(I12
I2
tp1126
sg21
I1
sg22
F0.83342618128517643
sg23
F4.5167300256434828
sVY
L6L
sVX
L6L
sg982
L0L
sg35
g36
sg37
g38
sg20
S'2'
sg19
S'space'
p1127
sg34
g11
sg984
L2L
sg985
g990
sg987
L2L
sS'block.thisIndex'
p1128
I1
sg989
g1014
sg991
L0L
sg992
g1087
sa(dp1129
S'block.thisTrialN'
p1130
I16
sS'block.thisRepN'
p1131
I0
sg29
g33
sS'block.thisN'
p1132
I16
sg977
(S'DOUBLE'
S'DECREASE'
S'SUBTRACT'
S'x'
S'y'
tp1133
sg27
g28
sg979
L3L
sg980
(I5
I4
I8
tp1134
sg21
I1
sg22
F10.116567917109933
sg23
F7.8499771633651108
sVY
L2L
sVX
L7L
sg982
g986
sg35
g36
sg37
g38
sg20
S'8'
sg19
S'space'
p1135
sg34
g11
sg984
L8L
sg985
g1070
sg987
L8L
sS'block.thisIndex'
p1136
I8
sg989
g990
sg991
L0L
sg992
g1052
sa(dp1137
S'block.thisTrialN'
p1138
I17
sS'block.thisRepN'
p1139
I0
sg29
g33
sS'block.thisN'
p1140
I17
sg977
(S'DIVIDE'
S'INCREASE'
S'DOUBLE'
S'THIRD'
S'x'
S'y'
tp1141
sg27
g28
sg979
L4L
sg980
(I2
I4
I5
I1
tp1142
sg21
I1
sg22
F3.9166928484919481
sg23
F7.5332938372739591
sVY
L5L
sVX
L6L
sg982
g990
sg35
g36
sg37
g38
sg20
S'1'
sg19
S'space'
p1143
sg34
g11
sg984
L1L
sg985
g1022
sg987
L1L
sS'block.thisIndex'
p1144
I11
sg989
g1014
sg991
g1011
sg992
g1026
sa(dp1145
S'block.thisTrialN'
p1146
I0
sS'block.thisRepN'
p1147
I0
sg29
g33
sS'block.thisN'
p1148
I0
sVRule
p1149
(S'ADD'
S'DECREASE'
S'x'
S'y'
tp1150
sg27
g28
sVLength
p1151
L2L
sVIntermediate
p1152
(I2
I7
tp1153
sg21
I1
sg22
F0.86663591378601268
sg23
F6.9999985744943842
sVY
L5L
sVX
L3L
sVOperatorc
p1154
L0L
sg35
g36
sg37
g38
sg20
S'7'
sg19
S'space'
p1155
sg34
g11
sVResult
p1156
L7L
sVOperatora
p1157
Vdecrease
p1158
sVCorrectResponse
p1159
L7L
sS'block.thisIndex'
p1160
I0
sVOperatorb
p1161
VADD
p1162
sVOperatord
p1163
L0L
sVStructure
p1164
VBUxy
p1165
sa(dp1166
S'block.thisTrialN'
p1167
I1
sS'block.thisRepN'
p1168
I0
sg29
g33
sS'block.thisN'
p1169
I1
sg1149
(S'INCREASE'
S'HALF'
S'THIRD'
S'TIMES'
S'x'
S'y'
tp1170
sg27
g28
sg1151
L4L
sg1152
(I12
I4
I2
I3
tp1171
sg21
I1
sg22
F6.9832922122441232
sg23
F12.366538124042563
sVY
L4L
sVX
L3L
sg1154
Vthird
p1172
sg35
g36
sg37
g38
sg20
S'3'
sg19
S'space'
p1173
sg34
g11
sg1156
L3L
sg1157
Vhalf
p1174
sg1159
L3L
sS'block.thisIndex'
p1175
I16
sg1161
Vincrease
p1176
sg1163
VTIMES
p1177
sg1164
VUUUBxy
p1178
sa(dp1179
S'block.thisTrialN'
p1180
I2
sS'block.thisRepN'
p1181
I0
sg29
g33
sS'block.thisN'
p1182
I2
sg1149
(S'DECREASE'
S'SUBTRACT'
S'DOUBLE'
S'THIRD'
S'x'
S'y'
tp1183
sg27
g28
sg1151
L4L
sg1152
(I3
I6
I4
I3
tp1184
sg21
I0
sg22
F12.666495700948872
sVY
L2L
sVX
L9L
sg1154
Vdouble
p1185
sg35
g36
sg37
g38
sg20
Nsg19
S'space'
p1186
sg34
g11
sg1156
L3L
sg1157
VSUBTRACT
p1187
sg1159
L3L
sS'block.thisIndex'
p1188
I13
sg1161
g1158
sg1163
g1172
sg1164
VUBUUxy
p1189
sa(dp1190
S'block.thisTrialN'
p1191
I3
sS'block.thisRepN'
p1192
I0
sg29
g33
sS'block.thisN'
p1193
I3
sg1149
(S'ADD'
S'TRIPLE'
S'HALF'
S'x'
S'y'
tp1194
sg27
g28
sg1151
L3L
sg1152
(I2
I6
I8
tp1195
sg21
I1
sg22
F1.6000779466703534
sg23
F7.5666475458419882
sVY
L2L
sVX
L4L
sg1154
g1174
sg35
g36
sg37
g38
sg20
S'8'
sg19
S'space'
p1196
sg34
g11
sg1156
L8L
sg1157
Vtriple
p1197
sg1159
L8L
sS'block.thisIndex'
p1198
I5
sg1161
g1162
sg1163
L0L
sg1164
VBUUxy
p1199
sa(dp1200
S'block.thisTrialN'
p1201
I4
sS'block.thisRepN'
p1202
I0
sg29
g33
sS'block.thisN'
p1203
I4
sg1149
(S'DECREASE'
S'DOUBLE'
S'TIMES'
S'THIRD'
S'x'
S'y'
tp1204
sg27
g28
sg1151
L4L
sg1152
(I1
I3
I6
I5
tp1205
sg21
I1
sg22
F8.6332146931672469
sg23
F10.233254721446428
sVY
L3L
sVX
L3L
sg1154
g1177
sg35
g36
sg37
g38
sg20
S'5'
sg19
S'space'
p1206
sg34
g11
sg1156
L5L
sg1157
g1185
sg1159
L5L
sS'block.thisIndex'
p1207
I14
sg1161
g1158
sg1163
g1172
sg1164
VUUBUxy
p1208
sa(dp1209
S'block.thisTrialN'
p1210
I5
sS'block.thisRepN'
p1211
I0
sg29
g33
sS'block.thisN'
p1212
I5
sg1149
(S'DECREASE'
S'TIMES'
S'x'
S'y'
tp1213
sg27
g28
sg1151
L2L
sg1152
(I9
I8
tp1214
sg21
I1
sg22
F0.66676569182891399
sg23
F2.4666896268026903
sVY
L3L
sVX
L3L
sg1154
L0L
sg35
g36
sg37
g38
sg20
S'8'
sg19
S'space'
p1215
sg34
g11
sg1156
L8L
sg1157
g1177
sg1159
L8L
sS'block.thisIndex'
p1216
I2
sg1161
g1158
sg1163
L0L
sg1164
VUBxy
p1217
sa(dp1218
S'block.thisTrialN'
p1219
I6
sS'block.thisRepN'
p1220
I0
sg29
g33
sS'block.thisN'
p1221
I6
sg1149
(S'INCREASE'
S'ADD'
S'HALF'
S'x'
S'y'
tp1222
sg27
g28
sg1151
L3L
sg1152
(I1
I4
I5
tp1223
sg21
I0
sg22
F4.7167031691642478
sg23
F9.2166549870162271
sVY
L3L
sVX
L2L
sg1154
g1174
sg35
g36
sg37
g38
sg20
S'4'
sg19
S'space'
p1224
sg34
g11
sg1156
L5L
sg1157
g1162
sg1159
L5L
sS'block.thisIndex'
p1225
I7
sg1161
g1176
sg1163
L0L
sg1164
VUBUxy
p1226
sa(dp1227
S'block.thisTrialN'
p1228
I7
sS'block.thisRepN'
p1229
I0
sg29
g33
sS'block.thisN'
p1230
I7
sg1149
(S'HALF'
S'INCREASE'
S'TIMES'
S'x'
S'y'
tp1231
sg27
g28
sg1151
L3L
sg1152
(I9
I10
I5
tp1232
sg21
I1
sg22
F9.3332405803957954
sg23
F7.7666283870930783
sVY
L3L
sVX
L3L
sg1154
g1177
sg35
g36
sg37
g38
sg20
S'5'
sg19
S'space'
p1233
sg34
g11
sg1156
L5L
sg1157
g1176
sg1159
L5L
sS'block.thisIndex'
p1234
I9
sg1161
g1174
sg1163
L0L
sg1164
VUUBxy
p1235
sa(dp1236
S'block.thisTrialN'
p1237
I8
sS'block.thisRepN'
p1238
I0
sg29
g33
sS'block.thisN'
p1239
I8
sg1149
(S'HALF'
S'ADD'
S'x'
S'y'
tp1240
sg27
g28
sg1151
L2L
sg1152
(I12
I6
tp1241
sg21
I1
sg22
F1.000098074786365
sg23
F1.8667468181229196
sVY
L8L
sVX
L4L
sg1154
L0L
sg35
g36
sg37
g38
sg20
S'6'
sg19
S'space'
p1242
sg34
g11
sg1156
L6L
sg1157
g1162
sg1159
L6L
sS'block.thisIndex'
p1243
I3
sg1161
g1174
sg1163
L0L
sg1164
g1217
sa(dp1244
S'block.thisTrialN'
p1245
I9
sS'block.thisRepN'
p1246
I0
sg29
g33
sS'block.thisN'
p1247
I9
sg1149
(S'DECREASE'
S'TRIPLE'
S'SUBTRACT'
S'DOUBLE'
S'x'
S'y'
tp1248
sg27
g28
sg1151
L4L
sg1152
(I6
I3
I9
I8
tp1249
sg21
I0
sg22
F11.616537981492002
sg23
F13.14982811245136
sVY
L3L
sVX
L3L
sg1154
g1187
sg35
g36
sg37
g38
sg20
S'5'
sg19
S'space'
p1250
sg34
g11
sg1156
L8L
sg1157
g1197
sg1159
L8L
sS'block.thisIndex'
p1251
I15
sg1161
g1158
sg1163
g1185
sg1164
g1208
sa(dp1252
S'block.thisTrialN'
p1253
I10
sS'block.thisRepN'
p1254
I0
sg29
g33
sS'block.thisN'
p1255
I10
sg1149
(S'ADD'
S'DOUBLE'
S'DECREASE'
S'x'
S'y'
tp1256
sg27
g28
sg1151
L3L
sg1152
(I1
I2
I7
tp1257
sg21
I1
sg22
F8.4999341416405514
sg23
F5.4333450414706022
sVY
L5L
sVX
L2L
sg1154
g1158
sg35
g36
sg37
g38
sg20
S'7'
sg19
S'space'
p1258
sg34
g11
sg1156
L7L
sg1157
g1185
sg1159
L7L
sS'block.thisIndex'
p1259
I4
sg1161
g1162
sg1163
L0L
sg1164
g1199
sa(dp1260
S'block.thisTrialN'
p1261
I11
sS'block.thisRepN'
p1262
I0
sg29
g33
sS'block.thisN'
p1263
I11
sg1149
(S'DOUBLE'
S'THIRD'
S'ADD'
S'x'
S'y'
tp1264
sg27
g28
sg1151
L3L
sg1152
(I9
I3
I6
tp1265
sg21
I1
sg22
F7.6332791260792874
sg23
F3.9167202181997709
sVY
L4L
sVX
L5L
sg1154
g1162
sg35
g36
sg37
g38
sg20
S'6'
sg19
S'space'
p1266
sg34
g11
sg1156
L6L
sg1157
g1172
sg1159
L6L
sS'block.thisIndex'
p1267
I8
sg1161
g1185
sg1163
L0L
sg1164
g1235
sa(dp1268
S'block.thisTrialN'
p1269
I12
sS'block.thisRepN'
p1270
I0
sg29
g33
sS'block.thisN'
p1271
I12
sg1149
(S'DIVIDE'
S'DECREASE'
S'x'
S'y'
tp1272
sg27
g28
sg1151
L2L
sg1152
(I8
I2
tp1273
sg21
I1
sg22
F1.1001047461759299
sg23
F2.8667185931117274
sVY
L4L
sVX
L9L
sg1154
L0L
sg35
g36
sg37
g38
sg20
S'2'
sg19
S'space'
p1274
sg34
g11
sg1156
L2L
sg1157
g1158
sg1159
L2L
sS'block.thisIndex'
p1275
I1
sg1161
VDIVIDE
p1276
sg1163
L0L
sg1164
g1165
sa(dp1277
S'block.thisTrialN'
p1278
I13
sS'block.thisRepN'
p1279
I0
sg29
g33
sS'block.thisN'
p1280
I13
sg1149
(S'DECREASE'
S'ADD'
S'THIRD'
S'HALF'
S'x'
S'y'
tp1281
sg27
g28
sg1151
L4L
sg1152
(I3
I1
I7
I6
tp1282
sg21
I1
sg22
F5.383392168674618
sg23
F15.149714357045013
sVY
L6L
sVX
L6L
sg1154
g1172
sg35
g36
sg37
g38
sg20
S'6'
sg19
S'space'
p1283
sg34
g11
sg1156
L6L
sg1157
g1162
sg1159
L6L
sS'block.thisIndex'
p1284
I12
sg1161
g1158
sg1163
g1174
sg1164
g1189
sa(dp1285
S'block.thisTrialN'
p1286
I14
sS'block.thisRepN'
p1287
I0
sg29
g33
sS'block.thisN'
p1288
I14
sg1149
(S'ADD'
S'TRIPLE'
S'DOUBLE'
S'DECREASE'
S'x'
S'y'
tp1289
sg27
g28
sg1151
L4L
sg1152
(I1
I2
I6
I8
tp1290
sg21
I1
sg22
F10.233240466332063
sg23
F10.266571081767324
sVY
L2L
sVX
L2L
sg1154
g1185
sg35
g36
sg37
g38
sg20
S'8'
sg19
S'space'
p1291
sg34
g11
sg1156
L8L
sg1157
g1197
sg1159
L8L
sS'block.thisIndex'
p1292
I11
sg1161
g1162
sg1163
g1158
sg1164
VBUUUxy
p1293
sa(dp1294
S'block.thisTrialN'
p1295
I15
sS'block.thisRepN'
p1296
I0
sg29
g33
sS'block.thisN'
p1297
I15
sg1149
(S'DOUBLE'
S'SUBTRACT'
S'INCREASE'
S'x'
S'y'
tp1298
sg27
g28
sg1151
L3L
sg1152
(I4
I1
I2
tp1299
sg21
I0
sg22
F12.299837834376376
sg23
F3.7667241811286658
sVY
L3L
sVX
L3L
sg1154
g1176
sg35
g36
sg37
g38
sg20
S'3'
sg19
S'space'
p1300
sg34
g11
sg1156
L2L
sg1157
g1187
sg1159
L2L
sS'block.thisIndex'
p1301
I6
sg1161
g1185
sg1163
L0L
sg1164
g1226
sa(dp1302
S'block.thisTrialN'
p1303
I16
sS'block.thisRepN'
p1304
I0
sg29
g33
sS'block.thisN'
p1305
I16
sg1149
(S'THIRD'
S'HALF'
S'INCREASE'
S'SUBTRACT'
S'x'
S'y'
tp1306
sg27
g28
sg1151
L4L
sg1152
(I5
I6
I3
I1
tp1307
sg21
I1
sg22
F9.7832600527908653
sg23
F8.5166319507989101
sVY
L2L
sVX
L7L
sg1154
g1176
sg35
g36
sg37
g38
sg20
S'1'
sg19
S'space'
p1308
sg34
g11
sg1156
L1L
sg1157
g1174
sg1159
L1L
sS'block.thisIndex'
p1309
I17
sg1161
g1172
sg1163
g1187
sg1164
g1178
sa(dp1310
S'block.thisTrialN'
p1311
I17
sS'block.thisRepN'
p1312
I0
sg29
g33
sS'block.thisN'
p1313
I17
sg1149
(S'ADD'
S'DECREASE'
S'THIRD'
S'DOUBLE'
S'x'
S'y'
tp1314
sg27
g28
sg1151
L4L
sg1152
(I18
I6
I5
I9
tp1315
sg21
I0
sVY
L4L
sVX
L9L
sg1154
g1172
sg35
g36
sg37
g38
sg20
Nsg19
Nsg34
g11
sg1156
L9L
sg1157
g1158
sg1159
L9L
sS'block.thisIndex'
p1316
I10
sg1161
g1162
sg1163
g1185
sg1164
g1293
sa(dp1317
S'block.thisTrialN'
p1318
I0
sS'block.thisRepN'
p1319
I0
sg29
g33
sS'block.thisN'
p1320
I0
sVRule
p1321
(S'HALF'
S'TRIPLE'
S'INCREASE'
S'SUBTRACT'
S'x'
S'y'
tp1322
sg27
g28
sVLength
p1323
L4L
sVIntermediate
p1324
(I1
I2
I6
I3
tp1325
sg21
I1
sg22
F17.749853030312806
sg23
F10.283244372229092
sVY
L2L
sVX
L3L
sVOperatorc
p1326
Vincrease
p1327
sg35
g36
sg37
g38
sg20
S'3'
sg19
S'space'
p1328
sg34
g11
sVResult
p1329
L3L
sVOperatora
p1330
Vtriple
p1331
sVCorrectResponse
p1332
L3L
sS'block.thisIndex'
p1333
I17
sVOperatorb
p1334
Vhalf
p1335
sVOperatord
p1336
VSUBTRACT
p1337
sVStructure
p1338
VUUUBxy
p1339
sa(dp1340
S'block.thisTrialN'
p1341
I1
sS'block.thisRepN'
p1342
I0
sg29
g33
sS'block.thisN'
p1343
I1
sg1321
(S'TIMES'
S'HALF'
S'INCREASE'
S'x'
S'y'
tp1344
sg27
g28
sg1323
L3L
sg1324
(I6
I3
I9
tp1345
sg21
I0
sg22
F4.7998848761199042
sg23
F5.3166827558306977
sVY
L3L
sVX
L5L
sg1326
g1327
sg35
g36
sg37
g38
sg20
S'6'
sg19
S'space'
p1346
sg34
g11
sg1329
L9L
sg1330
g1335
sg1332
L9L
sS'block.thisIndex'
p1347
I5
sg1334
VTIMES
p1348
sg1336
L0L
sg1338
VBUUxy
p1349
sa(dp1350
S'block.thisTrialN'
p1351
I2
sS'block.thisRepN'
p1352
I0
sg29
g33
sS'block.thisN'
p1353
I2
sg1321
(S'SUBTRACT'
S'DOUBLE'
S'TRIPLE'
S'DECREASE'
S'x'
S'y'
tp1354
sg27
g28
sg1323
L4L
sg1324
(I2
I6
I12
I8
tp1355
sg21
I0
sg22
F9.7665613883291371
sg23
F11.83321092982078
sVY
L4L
sVX
L3L
sg1326
g1331
sg35
g36
sg37
g38
sg20
S'3'
sg19
S'space'
p1356
sg34
g11
sg1329
L8L
sg1330
Vdouble
p1357
sg1332
L8L
sS'block.thisIndex'
p1358
I10
sg1334
g1337
sg1336
Vdecrease
p1359
sg1338
VBUUUxy
p1360
sa(dp1361
S'block.thisTrialN'
p1362
I3
sS'block.thisRepN'
p1363
I0
sg29
g33
sS'block.thisN'
p1364
I3
sg1321
(S'INCREASE'
S'SUBTRACT'
S'x'
S'y'
tp1365
sg27
g28
sg1323
L2L
sg1324
(I3
I4
tp1366
sg21
I1
sg22
F0.78341201180592179
sg23
F4.8500863571534865
sVY
L3L
sVX
L6L
sg1326
L0L
sg35
g36
sg37
g38
sg20
S'4'
sg19
S'space'
p1367
sg34
g11
sg1329
L4L
sg1330
g1337
sg1332
L4L
sS'block.thisIndex'
p1368
I2
sg1334
g1327
sg1336
L0L
sg1338
VUBxy
p1369
sa(dp1370
S'block.thisTrialN'
p1371
I4
sS'block.thisRepN'
p1372
I0
sg29
g33
sS'block.thisN'
p1373
I4
sg1321
(S'DOUBLE'
S'DECREASE'
S'ADD'
S'x'
S'y'
tp1374
sg27
g28
sg1323
L3L
sg1324
(I4
I3
I6
tp1375
sg21
I1
sg22
F5.9001555512077175
sg23
F7.833234308171086
sVY
L2L
sVX
L2L
sg1326
VADD
p1376
sg35
g36
sg37
g38
sg20
S'6'
sg19
S'space'
p1377
sg34
g11
sg1329
L6L
sg1330
g1359
sg1332
L6L
sS'block.thisIndex'
p1378
I8
sg1334
g1357
sg1336
L0L
sg1338
VUUBxy
p1379
sa(dp1380
S'block.thisTrialN'
p1381
I5
sS'block.thisRepN'
p1382
I0
sg29
g33
sS'block.thisN'
p1383
I5
sg1321
(S'THIRD'
S'DIVIDE'
S'x'
S'y'
tp1384
sg27
g28
sg1323
L2L
sg1324
(I3
I1
tp1385
sg21
I1
sg22
F0.983304756693542
sg23
F3.1166215161210857
sVY
L2L
sVX
L6L
sg1326
L0L
sg35
g36
sg37
g38
sg20
S'1'
sg19
S'space'
p1386
sg34
g11
sg1329
L1L
sg1330
VDIVIDE
p1387
sg1332
L1L
sS'block.thisIndex'
p1388
I3
sg1334
Vthird
p1389
sg1336
L0L
sg1338
g1369
sa(dp1390
S'block.thisTrialN'
p1391
I6
sS'block.thisRepN'
p1392
I0
sg29
g33
sS'block.thisN'
p1393
I6
sg1321
(S'SUBTRACT'
S'TRIPLE'
S'DECREASE'
S'DOUBLE'
S'x'
S'y'
tp1394
sg27
g28
sg1323
L4L
sg1324
(I4
I3
I9
I1
tp1395
sg21
I0
sVY
L8L
sVX
L2L
sg1326
g1359
sg35
g36
sg37
g38
sg20
Nsg19
Nsg34
g11
sg1329
L1L
sg1330
g1331
sg1332
L1L
sS'block.thisIndex'
p1396
I11
sg1334
g1337
sg1336
g1357
sg1338
g1360
sa(dp1397
S'block.thisTrialN'
p1398
I7
sS'block.thisRepN'
p1399
I0
sg29
g33
sS'block.thisN'
p1400
I7
sg1321
(S'DIVIDE'
S'THIRD'
S'x'
S'y'
tp1401
sg27
g28
sg1323
L2L
sg1324
(I3
I1
tp1402
sg21
I1
sg22
F0.80028629867592826
sg23
F2.1833859535399824
sVY
L3L
sVX
L9L
sg1326
L0L
sg35
g36
sg37
g38
sg20
S'1'
sg19
S'space'
p1403
sg34
g11
sg1329
L1L
sg1330
g1389
sg1332
L1L
sS'block.thisIndex'
p1404
I0
sg1334
g1387
sg1336
L0L
sg1338
VBUxy
p1405
sa(dp1406
S'block.thisTrialN'
p1407
I8
sS'block.thisRepN'
p1408
I0
sg29
g33
sS'block.thisN'
p1409
I8
sg1321
(S'DECREASE'
S'TRIPLE'
S'DIVIDE'
S'DOUBLE'
S'x'
S'y'
tp1410
sg27
g28
sg1323
L4L
sg1324
(I6
I2
I6
I5
tp1411
sg21
I0
sVY
L3L
sVX
L3L
sg1326
g1387
sg35
g36
sg37
g38
sg20
Nsg19
Nsg34
g11
sg1329
L5L
sg1330
g1331
sg1332
L5L
sS'block.thisIndex'
p1412
I14
sg1334
g1359
sg1336
g1357
sg1338
VUUBUxy
p1413
sa(dp1414
S'block.thisTrialN'
p1415
I9
sS'block.thisRepN'
p1416
I0
sg29
g33
sS'block.thisN'
p1417
I9
sg1321
(S'DECREASE'
S'TRIPLE'
S'HALF'
S'SUBTRACT'
S'x'
S'y'
tp1418
sg27
g28
sg1323
L4L
sg1324
(I4
I2
I6
I5
tp1419
sg21
I1
sg22
F11.26652803143952
sg23
F16.133005999145098
sVY
L2L
sVX
L6L
sg1326
g1335
sg35
g36
sg37
g38
sg20
S'5'
sg19
S'space'
p1420
sg34
g11
sg1329
L5L
sg1330
g1331
sg1332
L5L
sS'block.thisIndex'
p1421
I16
sg1334
g1359
sg1336
g1337
sg1338
g1339
sa(dp1422
S'block.thisTrialN'
p1423
I10
sS'block.thisRepN'
p1424
I0
sg29
g33
sS'block.thisN'
p1425
I10
sg1321
(S'DOUBLE'
S'THIRD'
S'TIMES'
S'x'
S'y'
tp1426
sg27
g28
sg1323
L3L
sg1324
(I12
I4
I8
tp1427
sg21
I1
sg22
F5.2833558468264528
sg23
F4.466685920546297
sVY
L6L
sVX
L2L
sg1326
g1348
sg35
g36
sg37
g38
sg20
S'8'
sg19
S'space'
p1428
sg34
g11
sg1329
L8L
sg1330
g1389
sg1332
L8L
sS'block.thisIndex'
p1429
I9
sg1334
g1357
sg1336
L0L
sg1338
g1379
sa(dp1430
S'block.thisTrialN'
p1431
I11
sS'block.thisRepN'
p1432
I0
sg29
g33
sS'block.thisN'
p1433
I11
sg1321
(S'THIRD'
S'DIVIDE'
S'DECREASE'
S'x'
S'y'
tp1434
sg27
g28
sg1323
L3L
sg1324
(I6
I3
I1
tp1435
sg21
I1
sg22
F5.199985402810853
sg23
F3.7667187641491182
sVY
L2L
sVX
L7L
sg1326
g1359
sg35
g36
sg37
g38
sg20
S'1'
sg19
S'space'
p1436
sg34
g11
sg1329
L1L
sg1330
g1387
sg1332
L1L
sS'block.thisIndex'
p1437
I6
sg1334
g1389
sg1336
L0L
sg1338
VUBUxy
p1438
sa(dp1439
S'block.thisTrialN'
p1440
I12
sS'block.thisRepN'
p1441
I0
sg29
g33
sS'block.thisN'
p1442
I12
sg1321
(S'THIRD'
S'TIMES'
S'HALF'
S'x'
S'y'
tp1443
sg27
g28
sg1323
L3L
sg1324
(I3
I18
I6
tp1444
sg21
I0
sg22
F1.9167179373907857
sg23
F8.7499479689868167
sVY
L6L
sVX
L6L
sg1326
g1335
sg35
g36
sg37
g38
sg20
S'4'
sg19
S'space'
p1445
sg34
g11
sg1329
L6L
sg1330
g1348
sg1332
L6L
sS'block.thisIndex'
p1446
I7
sg1334
g1389
sg1336
L0L
sg1338
g1438
sa(dp1447
S'block.thisTrialN'
p1448
I13
sS'block.thisRepN'
p1449
I0
sg29
g33
sS'block.thisN'
p1450
I13
sg1321
(S'DOUBLE'
S'DIVIDE'
S'TRIPLE'
S'INCREASE'
S'x'
S'y'
tp1451
sg27
g28
sg1323
L4L
sg1324
(I5
I15
I3
I6
tp1452
sg21
I1
sg22
F13.549918945762329
sg23
F8.6167540882015601
sVY
L5L
sVX
L4L
sg1326
g1331
sg35
g36
sg37
g38
sg20
S'6'
sg19
S'space'
p1453
sg34
g11
sg1329
L6L
sg1330
g1387
sg1332
L6L
sS'block.thisIndex'
p1454
I12
sg1334
g1357
sg1336
g1327
sg1338
VUBUUxy
p1455
sa(dp1456
S'block.thisTrialN'
p1457
I14
sS'block.thisRepN'
p1458
I0
sg29
g33
sS'block.thisN'
p1459
I14
sg1321
(S'SUBTRACT'
S'TRIPLE'
S'DECREASE'
S'x'
S'y'
tp1460
sg27
g28
sg1323
L3L
sg1324
(I4
I12
I3
tp1461
sg21
I1
sg22
F8.0332747354987077
sg23
F8.6332631604163907
sVY
L9L
sVX
L5L
sg1326
g1359
sg35
g36
sg37
g38
sg20
S'3'
sg19
S'space'
p1462
sg34
g11
sg1329
L3L
sg1330
g1331
sg1332
L3L
sS'block.thisIndex'
p1463
I4
sg1334
g1337
sg1336
L0L
sg1338
g1349
sa(dp1464
S'block.thisTrialN'
p1465
I15
sS'block.thisRepN'
p1466
I0
sg29
g33
sS'block.thisN'
p1467
I15
sg1321
(S'INCREASE'
S'ADD'
S'HALF'
S'TRIPLE'
S'x'
S'y'
tp1468
sg27
g28
sg1323
L4L
sg1324
(I6
I3
I6
I7
tp1469
sg21
I1
sg22
F8.4666086580837145
sg23
F13.716509015182965
sVY
L3L
sVX
L2L
sg1326
g1335
sg35
g36
sg37
g38
sg20
S'7'
sg19
S'space'
p1470
sg34
g11
sg1329
L7L
sg1330
g1376
sg1332
L7L
sS'block.thisIndex'
p1471
I13
sg1334
g1327
sg1336
g1331
sg1338
g1455
sa(dp1472
S'block.thisTrialN'
p1473
I16
sS'block.thisRepN'
p1474
I0
sg29
g33
sS'block.thisN'
p1475
I16
sg1321
(S'TIMES'
S'DOUBLE'
S'x'
S'y'
tp1476
sg27
g28
sg1323
L2L
sg1324
(I4
I8
tp1477
sg21
I1
sg22
F0.73345001577399671
sg23
F3.1667138033662923
sVY
L2L
sVX
L2L
sg1326
L0L
sg35
g36
sg37
g38
sg20
S'8'
sg19
S'space'
p1478
sg34
g11
sg1329
L8L
sg1330
g1357
sg1332
L8L
sS'block.thisIndex'
p1479
I1
sg1334
g1348
sg1336
L0L
sg1338
g1405
sa(dp1480
S'block.thisTrialN'
p1481
I17
sS'block.thisRepN'
p1482
I0
sg29
g33
sS'block.thisN'
p1483
I17
sg1321
(S'THIRD'
S'DECREASE'
S'TIMES'
S'HALF'
S'x'
S'y'
tp1484
sg27
g28
sg1323
L4L
sg1324
(I4
I16
I15
I5
tp1485
sg21
I1
sg22
F12.483173895219807
sg23
F11.216564609960187
sVY
L4L
sVX
L8L
sg1326
g1348
sg35
g36
sg37
g38
sg20
S'5'
sg19
S'space'
p1486
sg34
g11
sg1329
L5L
sg1330
g1359
sg1332
L5L
sS'block.thisIndex'
p1487
I15
sg1334
g1389
sg1336
g1335
sg1338
g1413
sasS'loops'
p1488
(lp1489
g1
(cpsychopy.data
TrialHandler
p1490
g3
NtRp1491
(dp1492
S'origin'
p1493
NsS'thisTrial'
p1494
(lp1495
sS'_exp'
p1496
I351187152
sg10
S'practice_trials'
p1497
sg6
S'C:\\Users\\CCDL\\Desktop\\Experiments\\KRITL\\2. kritl_experimenter.py'
p1498
sS'thisRepN'
p1499
I1
sg24
I01
sg25
g26
sS'data'
p1500
g1
(cpsychopy.data
DataHandler
p1501
c__builtin__
dict
p1502
(dp1503
g15
cnumpy.core.multiarray
_reconstruct
p1504
(cnumpy
ndarray
p1505
(I0
tS'b'
tRp1506
(I1
(I6
I1
tg31
(S'O4'
I0
I1
tRp1507
(I3
S'|'
NNNI-1
I-1
I63
tbI00
(lp1508
(lp1509
F0.20010400493629277
aa(lp1510
F4.6000209264457226
aa(lp1511
F2.3333913989481516
aa(lp1512
F16.549740757443942
aa(lp1513
F6.6166283586062491
aa(lp1514
F13.583152626641095
aatbsg16
g1504
(g1505
(I0
tS'b'
tRp1515
(I1
(I6
I1
tg1507
I00
(lp1516
S'9'
aS'8'
aS'7'
aS'8'
aS'3'
aS'9'
atbsS'ran'
p1517
cnumpy.ma.core
_mareconstruct
p1518
(cnumpy.ma.core
MaskedArray
p1519
g1505
(I0
tp1520
S'b'
tRp1521
(I1
(I6
I1
tg31
(S'f4'
I0
I1
tRp1522
(I3
S'<'
NNNI-1
I-1
I0
tbI00
S'\x00\x00\x80?\x00\x00\x80?\x00\x00\x80?\x00\x00\x80?\x00\x00\x80?\x00\x00\x80?'
S'\x00\x00\x00\x00\x00\x00'
Ntbsg18
g1518
(g1519
g1505
g1520
S'b'
tRp1523
(I1
(I6
I1
tg1522
I00
S'\xef\x10\xd1@uC\\ApV\xd5?\xf9C\xf4@E\xeeNA>\xffsA'
S'\x00\x00\x00\x00\x00\x00'
Ntbsg14
g1504
(g1505
(I0
tS'b'
tRp1524
(I1
(I6
I1
tg1507
I00
(lp1525
(lp1526
g82
aa(lp1527
g73
aa(lp1528
g111
aa(lp1529
g92
aa(lp1530
g103
aa(lp1531
g120
aatbsS'order'
p1532
g1518
(g1519
g1505
g1520
S'b'
tRp1533
(I1
(I6
I1
tg1522
I00
S'\x00\x00\x80?\x00\x00\x00\x00\x00\x00\x80@\x00\x00\x00@\x00\x00@@\x00\x00\xa0@'
S'\x00\x00\x00\x00\x00\x00'
Ntbsg17
g1518
(g1519
g1505
g1520
S'b'
tRp1534
(I1
(I6
I1
tg1522
I00
S'\x00\x00\x00\x00\x00\x00\x80?\x00\x00\x80?\x00\x00\x80?\x00\x00\x80?\x00\x00\x80?'
S'\x00\x00\x00\x00\x00\x00'
NtbstRp1535
(dp1536
S'isNumeric'
p1537
(dp1538
g16
I00
sg1517
I01
sg18
I01
sg14
I00
sg17
I01
sg1532
I01
sg15
I00
ssS'trials'
p1539
g1491
sS'dataTypes'
p1540
(lp1541
g1517
ag1532
ag14
ag15
ag16
ag17
ag18
asS'dataShape'
p1542
(lp1543
I6
aI1
asbsS'method'
p1544
S'fullRandom'
p1545
sS'sequenceIndices'
p1546
g1504
(g1505
(I0
tS'b'
tRp1547
(I1
(I6
I1
tg1507
I00
(lp1548
I1
aI0
aI3
aI4
aI2
aI5
atbsS'finished'
p1549
I01
sS'nReps'
p1550
I1
sS'nRemaining'
p1551
I-1
sS'trialList'
p1552
(lp1553
g1
(cpsychopy.data
TrialType
p1554
g1502
(dp1555
g47
L0L
sg48
g78
sg49
g68
sg50
L7L
sg53
L2L
sg52
L0L
sg51
L5L
sg54
L3L
stRp1556
ag1
(g1554
g1502
(dp1557
g47
L0L
sg48
g68
sg49
g69
sg50
L8L
sg53
L2L
sg52
L0L
sg51
L3L
sg54
L3L
stRp1558
ag1
(g1554
g1502
(dp1559
g47
L0L
sg48
g78
sg49
g88
sg50
L7L
sg53
L2L
sg52
L0L
sg51
L5L
sg54
L4L
stRp1560
ag1
(g1554
g1502
(dp1561
g47
g78
sg48
g87
sg49
g88
sg50
L8L
sg53
L3L
sg52
L0L
sg51
L2L
sg54
L4L
stRp1562
ag1
(g1554
g1502
(dp1563
g47
g97
sg48
g98
sg49
g99
sg50
L3L
sg53
L3L
sg52
L0L
sg51
L3L
sg54
L2L
stRp1564
ag1
(g1554
g1502
(dp1565
g47
g97
sg48
g98
sg49
g116
sg50
L9L
sg53
L4L
sg52
g99
sg51
L8L
sg54
L8L
stRp1566
asS'seed'
p1567
NsS'thisIndex'
p1568
I5
sS'thisN'
p1569
I6
sS'thisTrialN'
p1570
I0
sS'nTotal'
p1571
I6
sbag1
(g1490
g3
NtRp1572
(dp1573
g1493
Nsg1494
(lp1574
sg1496
I351187152
sg10
S'block'
p1575
sg6
g1498
sg1499
I1
sg24
I01
sg25
g26
sg1500
g1
(g1501
g1502
(dp1576
g21
g1518
(g1519
g1505
g1520
S'b'
tRp1577
(I1
(I18
I1
tg1522
I00
S'\x00\x00\x80?\x00\x00\x80?\x00\x00\x80?\x00\x00\x80?\x00\x00\x00\x00\x00\x00\x80?\x00\x00\x00\x00\x00\x00\x80?\x00\x00\x80?\x00\x00\x80?\x00\x00\x80?\x00\x00\x00\x00\x00\x00\x80?\x00\x00\x80?\x00\x00\x80?\x00\x00\x00\x00\x00\x00\x00\x00\x00\x00\x80?'
S'\x00\x00\x00\x00\x00\x00\x00\x00\x00\x00\x00\x00\x00\x00\x00\x00\x00\x00'
Ntbsg22
g1518
(g1519
g1505
g1520
S'b'
tRp1578
(I1
(I18
I1
tg1522
I00
S'\xae\xcf\xcc?]\xcdl@\xdd\xf1\x8e?\x9e\xaa\x9a@\x11\x12\x11@N\xbb\x83A\\f\xae@\xb7\xbb\x93@\nD\xd4@\x9e\xde\r@\xbadfA\xeeT\x1dA8CTA\xcdT\x8fA\xcdTUA\x00\x00\x00\x00\x00\x00\x00\x00\xed\xccLA'
S'\x00\x00\x00\x00\x00\x00\x00\x00\x00\x00\x00\x00\x00\x00\x00\x01\x01\x00'
Ntbsg23
g1518
(g1519
g1505
g1520
S'b'
tRp1579
(I1
(I18
I1
tg1522
I00
S'\xf2e.A9\xbd+@\xe1E\x04@\xf7T\xf5@\x00\x00\x00\x00\x8c2\x89A\xbf\xdd\tA\x83ClA\xb6T}A\x10\xef\xa6@\x02D\x10AQ\xeeVA\x8b!\x94A^\xbb3A2\x10eA\x00\x00\x00\x00\x00\x00\x00\x00,\xbb\x9dA'
S'\x00\x00\x00\x00\x01\x00\x00\x00\x00\x00\x00\x00\x00\x00\x00\x01\x01\x00'
Ntbsg1517
g1518
(g1519
g1505
g1520
S'b'
tRp1580
(I1
(I18
I1
tg1522
I00
S'\x00\x00\x80?\x00\x00\x80?\x00\x00\x80?\x00\x00\x80?\x00\x00\x80?\x00\x00\x80?\x00\x00\x80?\x00\x00\x80?\x00\x00\x80?\x00\x00\x80?\x00\x00\x80?\x00\x00\x80?\x00\x00\x80?\x00\x00\x80?\x00\x00\x80?\x00\x00\x80?\x00\x00\x80?\x00\x00\x80?'
S'\x00\x00\x00\x00\x00\x00\x00\x00\x00\x00\x00\x00\x00\x00\x00\x00\x00\x00'
Ntbsg20
g1504
(g1505
(I0
tS'b'
tRp1581
(I1
(I18
I1
tg1507
I00
(lp1582
S'1'
aS'4'
aS'9'
aS'6'
aNaS'7'
aS'1'
aS'2'
aS'1'
aS'9'
aS'1'
aS'6'
aS'1'
aS'3'
aS'7'
aNaNaS'7'
atbsg1532
g1518
(g1519
g1505
g1520
S'b'
tRp1583
(I1
(I18
I1
tg1522
I00
S'\x00\x00\x80@\x00\x00\x80?\x00\x00pA\x00\x00PA\x00\x00\x00A\x00\x00@A\x00\x00\x80A\x00\x00\xa0@\x00\x00@@\x00\x00 A\x00\x00\x10A\x00\x00\x00@\x00\x00`A\x00\x00\xe0@\x00\x000A\x00\x00\x00\x00\x00\x00\x88A\x00\x00\xc0@'
S'\x00\x00\x00\x00\x00\x00\x00\x00\x00\x00\x00\x00\x00\x00\x00\x00\x00\x00'
Ntbsg19
g1504
(g1505
(I0
tS'b'
tRp1584
(I1
(I18
I1
tg1507
I00
(lp1585
g173
ag142
ag268
ag251
ag210
ag243
ag276
ag181
ag164
ag227
ag219
ag152
ag260
ag201
ag235
aNaNag190
atbstRp1586
(dp1587
g1537
(dp1588
g1517
I01
sg20
I00
sg19
I00
sg21
I01
sg22
I01
sg23
I01
sg1532
I01
ssg1539
g1572
sg1540
(lp1589
g1517
ag1532
ag19
ag20
ag21
ag22
ag23
asg1542
(lp1590
I18
aI1
asbsg1544
g1545
sg1546
g1504
(g1505
(I0
tS'b'
tRp1591
(I1
(I18
I1
tg1507
I00
(lp1592
I15
aI1
aI11
aI8
aI0
aI7
aI17
aI13
aI4
aI10
aI9
aI14
aI5
aI3
aI12
aI2
aI6
aI16
atbsg1549
I01
sg1550
I1
sg1551
I-1
sg1552
(lp1593
g1
(g1554
g1502
(dp1594
g55
g171
sVY
L2L
sg57
L2L
sg58
g172
sg59
L1L
sg60
L1L
sg56
g133
sVX
L9L
sg61
L0L
sg62
g130
sg63
L0L
sg64
g145
stRp1595
ag1
(g1554
g1502
(dp1596
g55
g140
sVY
L4L
sg57
L2L
sg58
g141
sg59
L4L
sg60
L4L
sg56
g133
sVX
L3L
sg61
L0L
sg62
g144
sg63
L0L
sg64
g145
stRp1597
ag1
(g1554
g1502
(dp1598
g55
g266
sVY
L4L
sg57
L2L
sg58
g267
sg59
L9L
sg60
L9L
sg56
g144
sVX
L2L
sg61
L0L
sg62
g131
sg63
L0L
sg64
g253
stRp1599
ag1
(g1554
g1502
(dp1600
g55
g249
sVY
L6L
sg57
L2L
sg58
g250
sg59
L6L
sg60
L6L
sg56
g130
sVX
L8L
sg61
L0L
sg62
g191
sg63
L0L
sg64
g253
stRp1601
ag1
(g1554
g1502
(dp1602
g55
g208
sVY
L4L
sg57
L3L
sg58
g209
sg59
L6L
sg60
L6L
sg56
g153
sVX
L6L
sg61
g134
sg62
g193
sg63
L0L
sg64
g212
stRp1603
ag1
(g1554
g1502
(dp1604
g55
g241
sVY
L9L
sg57
L3L
sg58
g242
sg59
L7L
sg60
L7L
sg56
g155
sVX
L9L
sg61
g153
sg62
g130
sg63
L0L
sg64
g212
stRp1605
ag1
(g1554
g1502
(dp1606
g55
g274
sVY
L4L
sg57
L3L
sg58
g275
sg59
L8L
sg60
L8L
sg56
g144
sVX
L3L
sg61
g133
sg62
g155
sg63
L0L
sg64
g183
stRp1607
ag1
(g1554
g1502
(dp1608
g55
g179
sVY
L2L
sg57
L3L
sg58
g180
sg59
L2L
sg60
L2L
sg56
g163
sVX
L4L
sg61
g134
sg62
g131
sg63
L0L
sg64
g183
stRp1609
ag1
(g1554
g1502
(dp1610
g55
g161
sVY
L2L
sg57
L3L
sg58
g162
sg59
L1L
sg60
L1L
sg56
g134
sVX
L8L
sg61
g163
sg62
g153
sg63
L0L
sg64
g166
stRp1611
ag1
(g1554
g1502
(dp1612
g55
g225
sVY
L3L
sg57
L3L
sg58
g226
sg59
L9L
sg60
L9L
sg56
g134
sVX
L2L
sg61
g144
sg62
g191
sg63
L0L
sg64
g166
stRp1613
ag1
(g1554
g1502
(dp1614
g55
g217
sVY
L3L
sg57
L4L
sg58
g218
sg59
L1L
sg60
L1L
sg56
g153
sVX
L6L
sg61
g133
sg62
g163
sg63
g155
sg64
g156
stRp1615
ag1
(g1554
g1502
(dp1616
g55
g150
sVY
L2L
sg57
L4L
sg58
g151
sg59
L2L
sg60
L2L
sg56
g153
sVX
L3L
sg61
g133
sg62
g144
sg63
g155
sg64
g156
stRp1617
ag1
(g1554
g1502
(dp1618
g55
g258
sVY
L9L
sg57
L4L
sg58
g259
sg59
L1L
sg60
L1L
sg56
g163
sVX
L3L
sg61
g191
sg62
g153
sg63
g155
sg64
g203
stRp1619
ag1
(g1554
g1502
(dp1620
g55
g199
sVY
L3L
sg57
L4L
sg58
g200
sg59
L3L
sg60
L3L
sg56
g130
sVX
L6L
sg61
g131
sg62
g191
sg63
g134
sg64
g203
stRp1621
ag1
(g1554
g1502
(dp1622
g55
g233
sVY
L2L
sg57
L4L
sg58
g234
sg59
L7L
sg60
L7L
sg56
g134
sVX
L2L
sg61
g144
sg62
g131
sg63
g191
sg64
g135
stRp1623
ag1
(g1554
g1502
(dp1624
g55
g128
sVY
L2L
sg57
L4L
sg58
g129
sg59
L1L
sg60
L1L
sg56
g131
sVX
L8L
sg61
g130
sg62
g133
sg63
g134
sg64
g135
stRp1625
ag1
(g1554
g1502
(dp1626
g55
g282
sVY
L2L
sg57
L4L
sg58
g283
sg59
L5L
sg60
L5L
sg56
g134
sVX
L2L
sg61
g191
sg62
g153
sg63
g193
sg64
g194
stRp1627
ag1
(g1554
g1502
(dp1628
g55
g188
sVY
L2L
sg57
L4L
sg58
g189
sg59
L7L
sg60
L7L
sg56
g191
sVX
L2L
sg61
g134
sg62
g131
sg63
g193
sg64
g194
stRp1629
asg1567
Nsg1568
I16
sg1569
I18
sg1570
I0
sg1571
I18
sbag1
(g1490
g3
NtRp1630
(dp1631
g1493
Nsg1494
(lp1632
sg1496
I351187152
sg10
g1575
sg6
g1498
sg1499
I1
sg24
I01
sg25
g26
sg1500
g1
(g1501
g1502
(dp1633
g21
g1518
(g1519
g1505
g1520
S'b'
tRp1634
(I1
(I18
I1
tg1522
I00
S'\x00\x00\x80?\x00\x00\x80?\x00\x00\x80?\x00\x00\x80?\x00\x00\x80?\x00\x00\x80?\x00\x00\x80?\x00\x00\x80?\x00\x00\x80?\x00\x00\x80?\x00\x00\x80?\x00\x00\x00\x00\x00\x00\x80?\x00\x00\x80?\x00\x00\x80?\x00\x00\x00\x00\x00\x00\x80?\x00\x00\x80?'
S'\x00\x00\x00\x00\x00\x00\x00\x00\x00\x00\x00\x00\x00\x00\x00\x00\x00\x00'
Ntbsg19
g1504
(g1505
(I0
tS'b'
tRp1635
(I1
(I18
I1
tg1507
I00
(lp1636
g344
ag314
ag362
ag397
ag388
ag415
ag371
ag447
ag455
ag430
ag324
ag380
ag336
ag296
ag353
aNag439
ag405
atbsg23
g1518
(g1519
g1505
g1520
S'b'
tRp1637
(I1
(I18
I1
tg1522
I00
S'\xc2\xef~@k\xcd|@\xe1\x10\tA\xfcC\x00A\xe4\xbawA\xb5\x10AA\x0f\x88PA\xf8e\x80A\x0ew\x85A\xf7T\xfd@\\\x10\x83A\x00\x00\x00\x00Ew\x07A\x01w#A\xb2\xbawA\x00\x00\x00\x00\xc2\x10\xe1@\xc8T\x9bA'
S'\x00\x00\x00\x00\x00\x00\x00\x00\x00\x00\x00\x01\x00\x00\x00\x01\x00\x00'
Ntbsg1517
g1518
(g1519
g1505
g1520
S'b'
tRp1638
(I1
(I18
I1
tg1522
I00
S'\x00\x00\x80?\x00\x00\x80?\x00\x00\x80?\x00\x00\x80?\x00\x00\x80?\x00\x00\x80?\x00\x00\x80?\x00\x00\x80?\x00\x00\x80?\x00\x00\x80?\x00\x00\x80?\x00\x00\x80?\x00\x00\x80?\x00\x00\x80?\x00\x00\x80?\x00\x00\x80?\x00\x00\x80?\x00\x00\x80?'
S'\x00\x00\x00\x00\x00\x00\x00\x00\x00\x00\x00\x00\x00\x00\x00\x00\x00\x00'
Ntbsg20
g1504
(g1505
(I0
tS'b'
tRp1639
(I1
(I18
I1
tg1507
I00
(lp1640
S'7'
aS'2'
aS'8'
aS'8'
aS'4'
aS'4'
aS'9'
aS'2'
aS'5'
aS'1'
aS'2'
aNaS'3'
aS'4'
aS'7'
aNaS'8'
aS'3'
atbsg1532
g1518
(g1519
g1505
g1520
S'b'
tRp1641
(I1
(I18
I1
tg1522
I00
S'\x00\x00\x80@\x00\x00\x80?\x00\x00\xc0@\x00\x00 A\x00\x00\x10A\x00\x00@A\x00\x00\xe0@\x00\x00\x80A\x00\x00\x88A\x00\x00`A\x00\x00\x00@\x00\x00\x00A\x00\x00@@\x00\x00\x00\x00\x00\x00\xa0@\x00\x00PA\x00\x00pA\x00\x000A'
S'\x00\x00\x00\x00\x00\x00\x00\x00\x00\x00\x00\x00\x00\x00\x00\x00\x00\x00'
Ntbsg22
g1518
(g1519
g1505
g1520
S'b'
tRp1642
(I1
(I18
I1
tg1522
I00
S'\xc18s?f:s?ey\x97?G\xe2]?\x9dg\x16@\x0c\x9c\xd9?\xf6!\xd2@B\xbb+A\x9e\x88\xe8@\xb3\x88\xa0@\x83\xff/AI\xbb/A\\\x10iA\xef\x98AAJ\x88|A\x00\x00\x00\x00\xd6\x10\x01A\x03w\x85A'
S'\x00\x00\x00\x00\x00\x00\x00\x00\x00\x00\x00\x00\x00\x00\x00\x01\x00\x00'
NtbstRp1643
(dp1644
g1537
(dp1645
g1517
I01
sg20
I00
sg22
I01
sg21
I01
sg19
I00
sg23
I01
sg1532
I01
ssg1539
g1630
sg1540
(lp1646
g1517
ag1532
ag19
ag22
ag20
ag21
ag23
asg1542
(lp1647
I18
aI1
asbsg1544
g1545
sg1546
g1504
(g1505
(I0
tS'b'
tRp1648
(I1
(I18
I1
tg1507
I00
(lp1649
I13
aI1
aI10
aI12
aI0
aI14
aI2
aI6
aI11
aI4
aI3
aI17
aI5
aI15
aI9
aI16
aI7
aI8
atbsg1549
I01
sg1550
I1
sg1551
I-1
sg1552
(lp1650
g1
(g1554
g1502
(dp1651
g289
g342
sVY
L6L
sg291
L2L
sg292
g343
sg300
L7L
sg297
L7L
sg298
g303
sVX
L3L
sg294
L0L
sg302
g346
sg304
L0L
sg306
g317
stRp1652
ag1
(g1554
g1502
(dp1653
g289
g312
sVY
L4L
sg291
L2L
sg292
g313
sg300
L2L
sg297
L2L
sg298
g305
sVX
L5L
sg294
L0L
sg302
g316
sg304
L0L
sg306
g317
stRp1654
ag1
(g1554
g1502
(dp1655
g289
g360
sVY
L2L
sg291
L2L
sg292
g361
sg300
L8L
sg297
L8L
sg298
g346
sVX
L2L
sg294
L0L
sg302
g325
sg304
L0L
sg306
g364
stRp1656
ag1
(g1554
g1502
(dp1657
g289
g395
sVY
L2L
sg291
L2L
sg292
g396
sg300
L8L
sg297
L8L
sg298
g299
sVX
L2L
sg294
L0L
sg302
g325
sg304
L0L
sg306
g364
stRp1658
ag1
(g1554
g1502
(dp1659
g289
g386
sVY
L3L
sg291
L3L
sg292
g387
sg300
L4L
sg297
L4L
sg298
g335
sVX
L8L
sg294
g295
sg302
g327
sg304
L0L
sg306
g390
stRp1660
ag1
(g1554
g1502
(dp1661
g289
g413
sVY
L2L
sg291
L3L
sg292
g414
sg300
L4L
sg297
L4L
sg298
g303
sVX
L3L
sg294
g325
sg302
g299
sg304
L0L
sg306
g390
stRp1662
ag1
(g1554
g1502
(dp1663
g289
g369
sVY
L2L
sg291
L3L
sg292
g370
sg300
L9L
sg297
L9L
sg298
g346
sVX
L2L
sg294
g335
sg302
g305
sg304
L0L
sg306
g373
stRp1664
ag1
(g1554
g1502
(dp1665
g289
g445
sVY
L2L
sg291
L3L
sg292
g446
sg300
L2L
sg297
L2L
sg298
g316
sVX
L9L
sg294
g303
sg302
g305
sg304
L0L
sg306
g373
stRp1666
ag1
(g1554
g1502
(dp1667
g289
g453
sVY
L4L
sg291
L3L
sg292
g454
sg300
L5L
sg297
L5L
sg298
g335
sVX
L8L
sg294
g327
sg302
g406
sg304
L0L
sg306
g432
stRp1668
ag1
(g1554
g1502
(dp1669
g289
g428
sVY
L6L
sg291
L3L
sg292
g429
sg300
L1L
sg297
L1L
sg298
g305
sVX
L8L
sg294
g316
sg302
g303
sg304
L0L
sg306
g432
stRp1670
ag1
(g1554
g1502
(dp1671
g289
g322
sVY
L3L
sg291
L4L
sg292
g323
sg300
L2L
sg297
L2L
sg298
g325
sVX
L6L
sg294
g305
sg302
g327
sg304
g303
sg306
g328
stRp1672
ag1
(g1554
g1502
(dp1673
g289
g378
sVY
L2L
sg291
L4L
sg292
g379
sg300
L8L
sg297
L8L
sg298
g305
sVX
L2L
sg294
g295
sg302
g299
sg304
g335
sg306
g328
stRp1674
ag1
(g1554
g1502
(dp1675
g289
g333
sVY
L3L
sg291
L4L
sg292
g334
sg300
L3L
sg297
L3L
sg298
g327
sVX
L4L
sg294
g335
sg302
g305
sg304
g295
sg306
g307
stRp1676
ag1
(g1554
g1502
(dp1677
g289
g290
sVY
L3L
sg291
L4L
sg292
g293
sg300
L4L
sg297
L4L
sg298
g299
sVX
L7L
sg294
g295
sg302
g303
sg304
g305
sg306
g307
stRp1678
ag1
(g1554
g1502
(dp1679
g289
g351
sVY
L4L
sg291
L4L
sg292
g352
sg300
L7L
sg297
L7L
sg298
g305
sVX
L8L
sg294
g346
sg302
g303
sg304
g325
sg306
g355
stRp1680
ag1
(g1554
g1502
(dp1681
g289
g421
sVY
L3L
sg291
L4L
sg292
g422
sg300
L6L
sg297
L6L
sg298
g325
sVX
L5L
sg294
g316
sg302
g335
sg304
g406
sg306
g355
stRp1682
ag1
(g1554
g1502
(dp1683
g289
g437
sVY
L2L
sg291
L4L
sg292
g438
sg300
L8L
sg297
L8L
sg298
g335
sVX
L4L
sg294
g295
sg302
g406
sg304
g346
sg306
g408
stRp1684
ag1
(g1554
g1502
(dp1685
g289
g403
sVY
L5L
sg291
L4L
sg292
g404
sg300
L3L
sg297
L3L
sg298
g406
sVX
L9L
sg294
g295
sg302
g335
sg304
g316
sg306
g408
stRp1686
asg1567
Nsg1568
I8
sg1569
I18
sg1570
I0
sg1571
I18
sbag1
(g1490
g3
NtRp1687
(dp1688
g1493
Nsg1494
(lp1689
sg1496
I351187152
sg10
g1575
sg6
g1498
sg1499
I1
sg24
I01
sg25
g26
sg1500
g1
(g1501
g1502
(dp1690
g21
g1518
(g1519
g1505
g1520
S'b'
tRp1691
(I1
(I18
I1
tg1522
I00
S'\x00\x00\x80?\x00\x00\x80?\x00\x00\x80?\x00\x00\x80?\x00\x00\x80?\x00\x00\x00\x00\x00\x00\x80?\x00\x00\x80?\x00\x00\x80?\x00\x00\x80?\x00\x00\x80?\x00\x00\x80?\x00\x00\x00\x00\x00\x00\x80?\x00\x00\x80?\x00\x00\x00\x00\x00\x00\x80?\x00\x00\x80?'
S'\x00\x00\x00\x00\x00\x00\x00\x00\x00\x00\x00\x00\x00\x00\x00\x00\x00\x00'
Ntbsg19
g1504
(g1505
(I0
tS'b'
tRp1692
(I1
(I18
I1
tg1507
I00
(lp1693
g568
ag627
ag610
ag619
ag578
ag542
ag533
ag551
ag602
ag487
ag560
ag524
aNag468
ag514
ag594
ag586
ag504
atbsg23
g1518
(g1519
g1505
g1520
S'b'
tRp1694
(I1
(I18
I1
tg1522
I00
S"zX\xd5?'w\x1fA\x12\x14\xf1?Hw\x0bA\xd5T\x93A\x00\x00\x00\x00i\xee>Ar\x10QA\x023\x07A\x01f\xc6@\x02\xcd\xa4@\x99\xff/A\x00\x00\x00\x00\x13D\x10A&\xcc`A\xd8eBA\x19\xaa\x9aA\x14w+A"
S'\x00\x00\x00\x00\x00\x01\x00\x00\x00\x00\x00\x00\x01\x00\x00\x00\x00\x00'
Ntbsg1517
g1518
(g1519
g1505
g1520
S'b'
tRp1695
(I1
(I18
I1
tg1522
I00
S'\x00\x00\x80?\x00\x00\x80?\x00\x00\x80?\x00\x00\x80?\x00\x00\x80?\x00\x00\x80?\x00\x00\x80?\x00\x00\x80?\x00\x00\x80?\x00\x00\x80?\x00\x00\x80?\x00\x00\x80?\x00\x00\x80?\x00\x00\x80?\x00\x00\x80?\x00\x00\x80?\x00\x00\x80?\x00\x00\x80?'
S'\x00\x00\x00\x00\x00\x00\x00\x00\x00\x00\x00\x00\x00\x00\x00\x00\x00\x00'
Ntbsg20
g1504
(g1505
(I0
tS'b'
tRp1696
(I1
(I18
I1
tg1507
I00
(lp1697
S'7'
aS'9'
aS'2'
aS'5'
aS'9'
aNaS'8'
aS'3'
aS'9'
aS'6'
aS'5'
aS'9'
aNaS'7'
aS'6'
aS'3'
aS'5'
aS'5'
atbsg1532
g1518
(g1519
g1505
g1520
S'b'
tRp1698
(I1
(I18
I1
tg1522
I00
S'\x00\x00 A\x00\x00\x88A\x00\x00pA\x00\x00\x80A\x00\x000A\x00\x00\xe0@\x00\x00\xc0@\x00\x00\x00A\x00\x00`A\x00\x00\x80?\x00\x00\x10A\x00\x00\xa0@\x00\x00\x00@\x00\x00\x00\x00\x00\x00\x80@\x00\x00PA\x00\x00@A\x00\x00@@'
S'\x00\x00\x00\x00\x00\x00\x00\x00\x00\x00\x00\x00\x00\x00\x00\x00\x00\x00'
Ntbsg22
g1518
(g1519
g1505
g1520
S'b'
tRp1699
(I1
(I18
I1
tg1522
I00
S'|F\xc4?\xfa\xf1\x8e?*\xbe\xdb?\x99\x9b\xd9?\x83f\x9e@\x85\xdd\xfd@\x18w\x17A\x08Ve@[\xbe\xfb?G!rA+\xccPA\x97\xdd\xe5@\x00\x00\x00\x00\x00\xdd}AS\xaa\x16A\nf\x16A\xa3\xdd\xdd@\x00f>A'
S'\x00\x00\x00\x00\x00\x00\x00\x00\x00\x00\x00\x00\x01\x00\x00\x00\x00\x00'
NtbstRp1700
(dp1701
g1537
(dp1702
g1517
I01
sg20
I00
sg22
I01
sg21
I01
sg19
I00
sg23
I01
sg1532
I01
ssg1539
g1687
sg1540
(lp1703
g1517
ag1532
ag19
ag22
ag20
ag21
ag23
asg1542
(lp1704
I18
aI1
asbsg1544
g1545
sg1546
g1504
(g1505
(I0
tS'b'
tRp1705
(I1
(I18
I1
tg1507
I00
(lp1706
I13
aI9
aI12
aI17
aI14
aI11
aI6
aI5
aI7
aI10
aI0
aI4
aI16
aI15
aI8
aI2
aI3
aI1
atbsg1549
I01
sg1550
I1
sg1551
I-1
sg1552
(lp1707
g1
(g1554
g1502
(dp1708
g461
g566
sVY
L5L
sg463
L2L
sg464
g567
sg472
L7L
sg469
L7L
sg470
g477
sVX
L4L
sg466
L0L
sg474
g570
sg476
L0L
sg478
g571
stRp1709
ag1
(g1554
g1502
(dp1710
g461
g625
sVY
L3L
sg463
L2L
sg464
g626
sg472
L9L
sg469
L9L
sg470
g467
sVX
L4L
sg466
L0L
sg474
g486
sg476
L0L
sg478
g571
stRp1711
ag1
(g1554
g1502
(dp1712
g461
g608
sVY
L8L
sg463
L2L
sg464
g609
sg472
L2L
sg469
L2L
sg470
g552
sVX
L8L
sg466
L0L
sg474
g515
sg476
L0L
sg478
g612
stRp1713
ag1
(g1554
g1502
(dp1714
g461
g617
sVY
L2L
sg463
L2L
sg464
g618
sg472
L5L
sg469
L5L
sg470
g552
sVX
L8L
sg466
L0L
sg474
g475
sg476
L0L
sg478
g612
stRp1715
ag1
(g1554
g1502
(dp1716
g461
g576
sVY
L2L
sg463
L3L
sg464
g577
sg472
L9L
sg469
L9L
sg470
g467
sVX
L7L
sg466
g496
sg474
g552
sg476
L0L
sg478
g544
stRp1717
ag1
(g1554
g1502
(dp1718
g461
g540
sVY
L2L
sg463
L3L
sg464
g541
sg472
L3L
sg469
L3L
sg470
g475
sVX
L8L
sg466
g477
sg474
g486
sg476
L0L
sg478
g544
stRp1719
ag1
(g1554
g1502
(dp1720
g461
g531
sVY
L2L
sg463
L3L
sg464
g532
sg472
L8L
sg469
L8L
sg470
g471
sVX
L9L
sg466
g496
sg474
g477
sg476
L0L
sg478
g535
stRp1721
ag1
(g1554
g1502
(dp1722
g461
g549
sVY
L3L
sg463
L3L
sg464
g550
sg472
L3L
sg469
L3L
sg470
g552
sVX
L2L
sg466
g467
sg474
g475
sg476
L0L
sg478
g535
stRp1723
ag1
(g1554
g1502
(dp1724
g461
g600
sVY
L3L
sg463
L3L
sg464
g601
sg472
L9L
sg469
L9L
sg470
g477
sVX
L3L
sg466
g570
sg474
g467
sg476
L0L
sg478
g489
stRp1725
ag1
(g1554
g1502
(dp1726
g461
g484
sVY
L2L
sg463
L3L
sg464
g485
sg472
L6L
sg469
L6L
sg470
g475
sVX
L3L
sg466
g486
sg474
g467
sg476
L0L
sg478
g489
stRp1727
ag1
(g1554
g1502
(dp1728
g461
g558
sVY
L4L
sg463
L4L
sg464
g559
sg472
L5L
sg469
L5L
sg470
g515
sVX
L3L
sg466
g475
sg474
g552
sg476
g467
sg478
g526
stRp1729
ag1
(g1554
g1502
(dp1730
g461
g522
sVY
L9L
sg463
L4L
sg464
g523
sg472
L9L
sg469
L9L
sg470
g477
sVX
L3L
sg466
g475
sg474
g471
sg476
g506
sg478
g526
stRp1731
ag1
(g1554
g1502
(dp1732
g461
g494
sVY
L4L
sg463
L4L
sg464
g495
sg472
L5L
sg469
L5L
sg470
g486
sVX
L5L
sg466
g496
sg474
g477
sg476
g467
sg478
g479
stRp1733
ag1
(g1554
g1502
(dp1734
g461
g462
sVY
L2L
sg463
L4L
sg464
g465
sg472
L7L
sg469
L7L
sg470
g471
sVX
L2L
sg466
g467
sg474
g475
sg476
g477
sg478
g479
stRp1735
ag1
(g1554
g1502
(dp1736
g461
g512
sVY
L4L
sg463
L4L
sg464
g513
sg472
L6L
sg469
L6L
sg470
g515
sVX
L4L
sg466
g486
sg474
g467
sg476
g475
sg478
g517
stRp1737
ag1
(g1554
g1502
(dp1738
g461
g592
sVY
L8L
sg463
L4L
sg464
g593
sg472
L9L
sg469
L9L
sg470
g475
sVX
L8L
sg466
g552
sg474
g467
sg476
g515
sg478
g517
stRp1739
ag1
(g1554
g1502
(dp1740
g461
g584
sVY
L4L
sg463
L4L
sg464
g585
sg472
L5L
sg469
L5L
sg470
g506
sVX
L5L
sg466
g515
sg474
g496
sg476
g570
sg478
g507
stRp1741
ag1
(g1554
g1502
(dp1742
g461
g502
sVY
L4L
sg463
L4L
sg464
g503
sg472
L5L
sg469
L5L
sg470
g475
sVX
L7L
sg466
g477
sg474
g506
sg476
g471
sg478
g507
stRp1743
asg1567
Nsg1568
I1
sg1569
I18
sg1570
I0
sg1571
I18
sbag1
(g1490
g3
NtRp1744
(dp1745
g1493
Nsg1494
(lp1746
sg1496
I351187152
sg10
g1575
sg6
g1498
sg1499
I1
sg24
I01
sg25
g26
sg1500
g1
(g1501
g1502
(dp1747
g21
g1518
(g1519
g1505
g1520
S'b'
tRp1748
(I1
(I18
I1
tg1522
I00
S'\x00\x00\x80?\x00\x00\x80?\x00\x00\x80?\x00\x00\x80?\x00\x00\x80?\x00\x00\x80?\x00\x00\x80?\x00\x00\x80?\x00\x00\x80?\x00\x00\x80?\x00\x00\x00\x00\x00\x00\x00\x00\x00\x00\x80?\x00\x00\x80?\x00\x00\x00\x00\x00\x00\x80?\x00\x00\x80?\x00\x00\x80?'
S'\x00\x00\x00\x00\x00\x00\x00\x00\x00\x00\x00\x00\x00\x00\x00\x00\x00\x00'
Ntbsg19
g1504
(g1505
(I0
tS'b'
tRp1749
(I1
(I18
I1
tg1507
I00
(lp1750
g767
ag639
ag759
ag667
ag698
ag678
ag775
ag657
ag688
ag743
aNag716
ag751
ag725
ag735
ag706
ag792
ag783
atbsg23
g1518
(g1519
g1505
g1520
S'b'
tRp1751
(I1
(I18
I1
tg1522
I00
S'\xb1TQA\xe82\x0fA\xf0\x88\x80@\xd3X\xb5?\x1fD\x04A\xb4!.Am\xde}@*f\x06A\xd92\xfb@\xcc\x10\x19A\x00\x00\x00\x00\x00\x00\x00\x00\xd8!\x1aA\x03U\x19A\x00\x00\x00\x00~\xdd)AVD\xdc@\x10\xaa\xe2@'
S'\x00\x00\x00\x00\x00\x00\x00\x00\x00\x00\x01\x01\x00\x00\x01\x00\x00\x00'
Ntbsg1517
g1518
(g1519
g1505
g1520
S'b'
tRp1752
(I1
(I18
I1
tg1522
I00
S'\x00\x00\x80?\x00\x00\x80?\x00\x00\x80?\x00\x00\x80?\x00\x00\x80?\x00\x00\x80?\x00\x00\x80?\x00\x00\x80?\x00\x00\x80?\x00\x00\x80?\x00\x00\x80?\x00\x00\x80?\x00\x00\x80?\x00\x00\x80?\x00\x00\x80?\x00\x00\x80?\x00\x00\x80?\x00\x00\x80?'
S'\x00\x00\x00\x00\x00\x00\x00\x00\x00\x00\x00\x00\x00\x00\x00\x00\x00\x00'
Ntbsg20
g1504
(g1505
(I0
tS'b'
tRp1753
(I1
(I18
I1
tg1507
I00
(lp1754
S'2'
aS'3'
aS'1'
aS'6'
aS'9'
aS'4'
aS'6'
aS'3'
aS'7'
aS'1'
aNaNaS'8'
aS'2'
aNaS'1'
aS'6'
aS'6'
atbsg1532
g1518
(g1519
g1505
g1520
S'b'
tRp1755
(I1
(I18
I1
tg1522
I00
S'\x00\x00PA\x00\x00\x00\x00\x00\x00@A\x00\x00\x00@\x00\x00\xa0@\x00\x00@@\x00\x00`A\x00\x00\x80?\x00\x00\x80@\x00\x00 A\x00\x00\x88A\x00\x00\xe0@\x00\x000A\x00\x00\x00A\x00\x00\x10A\x00\x00\xc0@\x00\x00\x80A\x00\x00pA'
S'\x00\x00\x00\x00\x00\x00\x00\x00\x00\x00\x00\x00\x00\x00\x00\x00\x00\x00'
Ntbsg22
g1518
(g1519
g1505
g1520
S'b'
tRp1756
(I1
(I18
I1
tg1522
I00
S'\x02\x8b\xc8?\x15\xf5n?6i\x86?b|7?\xd1\xbc\x0b@b"\x9a@\xe2\xbe\x9b?L\x99\x1dA\x17\xe0\xfd?bV5@\x00\x00\x00\x00+\xeejA\x8e\x10IA\x83!\x16A\x1cwkA\xac\xa9bA\xb2CLAJD\x9c@'
S'\x00\x00\x00\x00\x00\x00\x00\x00\x00\x00\x01\x00\x00\x00\x00\x00\x00\x00'
NtbstRp1757
(dp1758
g1537
(dp1759
g1517
I01
sg20
I00
sg22
I01
sg21
I01
sg19
I00
sg23
I01
sg1532
I01
ssg1539
g1744
sg1540
(lp1760
g1517
ag1532
ag19
ag22
ag20
ag21
ag23
asg1542
(lp1761
I18
aI1
asbsg1544
g1545
sg1546
g1504
(g1505
(I0
tS'b'
tRp1762
(I1
(I18
I1
tg1507
I00
(lp1763
I1
aI7
aI3
aI5
aI8
aI4
aI15
aI11
aI13
aI14
aI9
aI12
aI2
aI0
aI6
aI17
aI16
aI10
atbsg1549
I01
sg1550
I1
sg1551
I-1
sg1552
(lp1764
g1
(g1554
g1502
(dp1765
g633
g765
sVY
L2L
sg635
L2L
sg636
g766
sg643
L2L
sg640
L2L
sg641
g659
sVX
L3L
sg638
L0L
sg645
g680
sg647
L0L
sg648
g649
stRp1766
ag1
(g1554
g1502
(dp1767
g633
g634
sVY
L2L
sg635
L2L
sg636
g637
sg643
L3L
sg640
L3L
sg641
g642
sVX
L6L
sg638
L0L
sg645
g646
sg647
L0L
sg648
g649
stRp1768
ag1
(g1554
g1502
(dp1769
g633
g757
sVY
L4L
sg635
L2L
sg636
g758
sg643
L1L
sg640
L1L
sg641
g680
sVX
L8L
sg638
L0L
sg645
g642
sg647
L0L
sg648
g670
stRp1770
ag1
(g1554
g1502
(dp1771
g633
g665
sVY
L2L
sg635
L2L
sg636
g666
sg643
L6L
sg640
L6L
sg641
g668
sVX
L3L
sg638
L0L
sg645
g659
sg647
L0L
sg648
g670
stRp1772
ag1
(g1554
g1502
(dp1773
g633
g695
sVY
L8L
sg635
L3L
sg636
g696
sg643
L9L
sg640
L9L
sg641
g656
sVX
L6L
sg638
g697
sg645
g668
sg647
L0L
sg648
g681
stRp1774
ag1
(g1554
g1502
(dp1775
g633
g675
sVY
L2L
sg635
L3L
sg636
g676
sg643
L4L
sg640
L4L
sg641
g642
sVX
L3L
sg638
g677
sg645
g680
sg647
L0L
sg648
g681
stRp1776
ag1
(g1554
g1502
(dp1777
g633
g773
sVY
L3L
sg635
L3L
sg636
g774
sg643
L6L
sg640
L6L
sg641
g668
sVX
L3L
sg638
g677
sg645
g656
sg647
L0L
sg648
g660
stRp1778
ag1
(g1554
g1502
(dp1779
g633
g654
sVY
L2L
sg635
L3L
sg636
g655
sg643
L3L
sg640
L3L
sg641
g646
sVX
L8L
sg638
g656
sg645
g659
sg647
L0L
sg648
g660
stRp1780
ag1
(g1554
g1502
(dp1781
g633
g686
sVY
L3L
sg635
L3L
sg636
g687
sg643
L7L
sg640
L7L
sg641
g677
sVX
L6L
sg638
g680
sg645
g659
sg647
L0L
sg648
g690
stRp1782
ag1
(g1554
g1502
(dp1783
g633
g741
sVY
L3L
sg635
L3L
sg636
g742
sg643
L1L
sg640
L1L
sg641
g656
sVX
L3L
sg638
g668
sg645
g697
sg647
L0L
sg648
g690
stRp1784
ag1
(g1554
g1502
(dp1785
g633
g798
sVY
L6L
sg635
L4L
sg636
g799
sg643
L8L
sg640
L8L
sg641
g708
sVX
L6L
sg638
g642
sg645
g668
sg647
g697
sg648
g718
stRp1786
ag1
(g1554
g1502
(dp1787
g633
g714
sVY
L9L
sg635
L4L
sg636
g715
sg643
L8L
sg640
L8L
sg641
g642
sVX
L3L
sg638
g677
sg645
g646
sg647
g708
sg648
g718
stRp1788
ag1
(g1554
g1502
(dp1789
g633
g749
sVY
L2L
sg635
L4L
sg636
g750
sg643
L8L
sg640
L8L
sg641
g668
sVX
L3L
sg638
g659
sg645
g708
sg647
g697
sg648
g728
stRp1790
ag1
(g1554
g1502
(dp1791
g633
g723
sVY
L3L
sg635
L4L
sg636
g724
sg643
L2L
sg640
L2L
sg641
g726
sVX
L2L
sg638
g708
sg645
g697
sg647
g642
sg648
g728
stRp1792
ag1
(g1554
g1502
(dp1793
g633
g733
sVY
L7L
sg635
L4L
sg636
g734
sg643
L8L
sg640
L8L
sg641
g708
sVX
L6L
sg638
g668
sg645
g697
sg647
g642
sg648
g709
stRp1794
ag1
(g1554
g1502
(dp1795
g633
g704
sVY
L9L
sg635
L4L
sg636
g705
sg643
L1L
sg640
L1L
sg641
g659
sVX
L9L
sg638
g680
sg645
g697
sg647
g708
sg648
g709
stRp1796
ag1
(g1554
g1502
(dp1797
g633
g790
sVY
L3L
sg635
L4L
sg636
g791
sg643
L6L
sg640
L6L
sg641
g677
sVX
L9L
sg638
g659
sg645
g656
sg647
g680
sg648
g785
stRp1798
ag1
(g1554
g1502
(dp1799
g633
g781
sVY
L4L
sg635
L4L
sg636
g782
sg643
L6L
sg640
L6L
sg641
g708
sVX
L2L
sg638
g659
sg645
g697
sg647
g726
sg648
g785
stRp1800
asg1567
Nsg1568
I10
sg1569
I18
sg1570
I0
sg1571
I18
sbag1
(g1490
g3
NtRp1801
(dp1802
g1493
Nsg1494
(lp1803
sg1496
I351187152
sg10
g1575
sg6
g1498
sg1499
I1
sg24
I01
sg25
g26
sg1500
g1
(g1501
g1502
(dp1804
g21
g1518
(g1519
g1505
g1520
S'b'
tRp1805
(I1
(I18
I1
tg1522
I00
S'\x00\x00\x80?\x00\x00\x80?\x00\x00\x80?\x00\x00\x80?\x00\x00\x00\x00\x00\x00\x80?\x00\x00\x80?\x00\x00\x80?\x00\x00\x80?\x00\x00\x80?\x00\x00\x80?\x00\x00\x00\x00\x00\x00\x80?\x00\x00\x00\x00\x00\x00\x00\x00\x00\x00\x80?\x00\x00\x80?\x00\x00\x00\x00'
S'\x00\x00\x00\x00\x00\x00\x00\x00\x00\x00\x00\x00\x00\x00\x00\x00\x00\x00'
Ntbsg19
g1504
(g1505
(I0
tS'b'
tRp1806
(I1
(I18
I1
tg1507
I00
(lp1807
g876
ag939
ag839
ag923
ag830
ag868
ag896
ag915
ag812
ag860
ag905
ag931
ag885
aNag956
ag849
ag971
ag947
atbsg23
g1518
(g1519
g1505
g1520
S'b'
tRp1808
(I1
(I18
I1
tg1522
I00
S'\xa7\xdd\tA\xd7\xdcEA\xa4\x11\x81@}\xce\x1c@w2kAj\x11\xa1@\x10\x12a@\xf32\x0fAa\xdd\x87A\x8b#2@\xd7\x98}A\x00\x00\x00\x00\x7f\xcc\xf4@\x00\x00\x00\x00>\xaa\x8aA\xf62\x1fA\xffe\x1eA\x00\x00\x00\x00'
S'\x00\x00\x00\x00\x00\x00\x00\x00\x00\x00\x00\x01\x00\x01\x00\x00\x00\x01'
Ntbsg1517
g1518
(g1519
g1505
g1520
S'b'
tRp1809
(I1
(I18
I1
tg1522
I00
S'\x00\x00\x80?\x00\x00\x80?\x00\x00\x80?\x00\x00\x80?\x00\x00\x80?\x00\x00\x80?\x00\x00\x80?\x00\x00\x80?\x00\x00\x80?\x00\x00\x80?\x00\x00\x80?\x00\x00\x80?\x00\x00\x80?\x00\x00\x80?\x00\x00\x80?\x00\x00\x80?\x00\x00\x80?\x00\x00\x80?'
S'\x00\x00\x00\x00\x00\x00\x00\x00\x00\x00\x00\x00\x00\x00\x00\x00\x00\x00'
Ntbsg20
g1504
(g1505
(I0
tS'b'
tRp1810
(I1
(I18
I1
tg1507
I00
(lp1811
S'4'
aS'6'
aS'3'
aS'1'
aS'6'
aS'5'
aS'5'
aS'5'
aS'8'
aS'3'
aS'3'
aNaS'4'
aNaS'2'
aS'6'
aS'1'
aNatbsg1532
g1518
(g1519
g1505
g1520
S'b'
tRp1812
(I1
(I18
I1
tg1522
I00
S'\x00\x00\xc0@\x00\x00PA\x00\x00\x00@\x00\x000A\x00\x00\x80?\x00\x00\xa0@\x00\x00\x00A\x00\x00 A\x00\x00\x00\x00\x00\x00\x80@\x00\x00\x10A\x00\x00@A\x00\x00\xe0@\x00\x00\x80A\x00\x00pA\x00\x00@@\x00\x00\x88A\x00\x00`A'
S'\x00\x00\x00\x00\x00\x00\x00\x00\x00\x00\x00\x00\x00\x00\x00\x00\x00\x00'
Ntbsg22
g1518
(g1519
g1505
g1520
S'b'
tRp1813
(I1
(I18
I1
tg1522
I00
S'\xb1y\xb7?\xe9\x02\xa0?Z\x05@?Vi\xa6?\x12f\x06A\xcd"R@\xd6\xaa\x8a@\xff2\xcb@t\xdd!A\xd3\xbb\xab@,\x99%A\xff2\xdb@)\xccPA\x00\x00\x00\x00\x07\xccxA\xa7\x109AU\xddAAx\xff\x97A'
S'\x00\x00\x00\x00\x00\x00\x00\x00\x00\x00\x00\x00\x00\x01\x00\x00\x00\x00'
NtbstRp1814
(dp1815
g1537
(dp1816
g1517
I01
sg20
I00
sg22
I01
sg21
I01
sg19
I00
sg23
I01
sg1532
I01
ssg1539
g1801
sg1540
(lp1817
g1517
ag1532
ag19
ag22
ag20
ag21
ag23
asg1542
(lp1818
I18
aI1
asbsg1544
g1545
sg1546
g1504
(g1505
(I0
tS'b'
tRp1819
(I1
(I18
I1
tg1507
I00
(lp1820
I8
aI4
aI2
aI15
aI9
aI5
aI0
aI12
aI6
aI10
aI7
aI3
aI11
aI1
aI17
aI14
aI13
aI16
atbsg1549
I01
sg1550
I1
sg1551
I-1
sg1552
(lp1821
g1
(g1554
g1502
(dp1822
g805
g874
sVY
L2L
sg807
L2L
sg808
g875
sg816
L4L
sg813
L4L
sg814
g815
sVX
L3L
sg810
L0L
sg818
g811
sg820
L0L
sg821
g878
stRp1823
ag1
(g1554
g1502
(dp1824
g805
g937
sVY
L2L
sg807
L2L
sg808
g938
sg816
L6L
sg813
L6L
sg814
g887
sVX
L2L
sg810
L0L
sg818
g811
sg820
L0L
sg821
g878
stRp1825
ag1
(g1554
g1502
(dp1826
g805
g837
sVY
L5L
sg807
L2L
sg808
g838
sg816
L3L
sg813
L3L
sg814
g840
sVX
L4L
sg810
L0L
sg818
g819
sg820
L0L
sg821
g842
stRp1827
ag1
(g1554
g1502
(dp1828
g805
g921
sVY
L2L
sg807
L2L
sg808
g922
sg816
L1L
sg813
L1L
sg814
g907
sVX
L5L
sg810
L0L
sg818
g819
sg820
L0L
sg821
g842
stRp1829
ag1
(g1554
g1502
(dp1830
g805
g827
sVY
L3L
sg807
L3L
sg808
g828
sg816
L9L
sg813
L9L
sg814
g815
sVX
L8L
sg810
g829
sg818
g811
sg820
L0L
sg821
g832
stRp1831
ag1
(g1554
g1502
(dp1832
g805
g866
sVY
L5L
sg807
L3L
sg808
g867
sg816
L5L
sg813
L5L
sg814
g819
sVX
L6L
sg810
g829
sg818
g811
sg820
L0L
sg821
g832
stRp1833
ag1
(g1554
g1502
(dp1834
g805
g894
sVY
L7L
sg807
L3L
sg808
g895
sg816
L5L
sg813
L5L
sg814
g840
sVX
L7L
sg810
g887
sg818
g819
sg820
L0L
sg821
g898
stRp1835
ag1
(g1554
g1502
(dp1836
g805
g913
sVY
L5L
sg807
L3L
sg808
g914
sg816
L5L
sg813
L5L
sg814
g811
sVX
L4L
sg810
g815
sg818
g819
sg820
L0L
sg821
g898
stRp1837
ag1
(g1554
g1502
(dp1838
g805
g806
sVY
L5L
sg807
L3L
sg808
g809
sg816
L8L
sg813
L8L
sg814
g815
sVX
L5L
sg810
g811
sg818
g819
sg820
L0L
sg821
g822
stRp1839
ag1
(g1554
g1502
(dp1840
g805
g857
sVY
L2L
sg807
L3L
sg808
g858
sg816
L3L
sg813
L3L
sg814
g829
sVX
L4L
sg810
g859
sg818
g851
sg820
L0L
sg821
g822
stRp1841
ag1
(g1554
g1502
(dp1842
g805
g903
sVY
L5L
sg807
L4L
sg808
g904
sg816
L3L
sg813
L3L
sg814
g829
sVX
L5L
sg810
g887
sg818
g907
sg820
g851
sg821
g908
stRp1843
ag1
(g1554
g1502
(dp1844
g805
g929
sVY
L3L
sg807
L4L
sg808
g930
sg816
L9L
sg813
L9L
sg814
g887
sVX
L3L
sg810
g819
sg818
g811
sg820
g888
sg821
g908
stRp1845
ag1
(g1554
g1502
(dp1846
g805
g883
sVY
L6L
sg807
L4L
sg808
g884
sg816
L4L
sg813
L4L
sg814
g859
sVX
L3L
sg810
g851
sg818
g887
sg820
g888
sg821
g889
stRp1847
ag1
(g1554
g1502
(dp1848
g805
g962
sVY
L3L
sg807
L4L
sg808
g963
sg816
L3L
sg813
L3L
sg814
g907
sVX
L3L
sg810
g888
sg818
g851
sg820
g815
sg821
g889
stRp1849
ag1
(g1554
g1502
(dp1850
g805
g954
sVY
L2L
sg807
L4L
sg808
g955
sg816
L8L
sg813
L8L
sg814
g888
sVX
L9L
sg810
g840
sg818
g819
sg820
g887
sg821
g852
stRp1851
ag1
(g1554
g1502
(dp1852
g805
g847
sVY
L3L
sg807
L4L
sg808
g848
sg816
L6L
sg813
L6L
sg814
g829
sVX
L2L
sg810
g840
sg818
g851
sg820
g815
sg821
g852
stRp1853
ag1
(g1554
g1502
(dp1854
g805
g969
sVY
L2L
sg807
L4L
sg808
g970
sg816
L1L
sg813
L1L
sg814
g887
sVX
L8L
sg810
g829
sg818
g819
sg820
g859
sg821
g949
stRp1855
ag1
(g1554
g1502
(dp1856
g805
g945
sVY
L2L
sg807
L4L
sg808
g946
sg816
L6L
sg813
L6L
sg814
g815
sVX
L3L
sg810
g829
sg818
g851
sg820
g811
sg821
g949
stRp1857
asg1567
Nsg1568
I16
sg1569
I18
sg1570
I0
sg1571
I18
sbag1
(g1490
g3
NtRp1858
(dp1859
g1493
Nsg1494
(lp1860
sg1496
I351187152
sg10
g1575
sg6
g1498
sg1499
I1
sg24
I01
sg25
g26
sg1500
g1
(g1501
g1502
(dp1861
g21
g1518
(g1519
g1505
g1520
S'b'
tRp1862
(I1
(I18
I1
tg1522
I00
S'\x00\x00\x80?\x00\x00\x80?\x00\x00\x80?\x00\x00\x80?\x00\x00\x80?\x00\x00\x80?\x00\x00\x80?\x00\x00\x80?\x00\x00\x80?\x00\x00\x80?\x00\x00\x00\x00\x00\x00\x80?\x00\x00\x00\x00\x00\x00\x00\x00\x00\x00\x80?\x00\x00\x00\x00\x00\x00\x80?\x00\x00\x80?'
S'\x00\x00\x00\x00\x00\x00\x00\x00\x00\x00\x00\x00\x00\x00\x00\x00\x00\x00'
Ntbsg19
g1504
(g1505
(I0
tS'b'
tRp1863
(I1
(I18
I1
tg1507
I00
(lp1864
g1085
ag1127
ag983
ag1059
ag1012
ag1102
ag1001
ag1033
ag1135
ag1050
ag1023
ag1143
aNag1068
ag1094
aNag1119
ag1110
atbsg23
g1518
(g1519
g1505
g1520
S'b'
tRp1865
(I1
(I18
I1
tg1522
I00
S'\xed\xab:@\r\x89\x90@\xdcj\x06@\x9fD\x84@\xd1e\x84A\xb0\x98\xe9@_\x99\x11Ap3\xc3@\x033\xfb@2w#A\x00\x00\x00\x00\xbe\x10\xf1@\x00\x00\x00\x002w\x13A\x1a\xcc`A\x00\x00\x00\x00\x9a\xde\x9d@\xbf\x87\x0cA'
S'\x00\x00\x00\x00\x00\x00\x00\x00\x00\x00\x01\x00\x01\x00\x00\x01\x00\x00'
Ntbsg1517
g1518
(g1519
g1505
g1520
S'b'
tRp1866
(I1
(I18
I1
tg1522
I00
S'\x00\x00\x80?\x00\x00\x80?\x00\x00\x80?\x00\x00\x80?\x00\x00\x80?\x00\x00\x80?\x00\x00\x80?\x00\x00\x80?\x00\x00\x80?\x00\x00\x80?\x00\x00\x80?\x00\x00\x80?\x00\x00\x80?\x00\x00\x80?\x00\x00\x80?\x00\x00\x80?\x00\x00\x80?\x00\x00\x80?'
S'\x00\x00\x00\x00\x00\x00\x00\x00\x00\x00\x00\x00\x00\x00\x00\x00\x00\x00'
Ntbsg20
g1504
(g1505
(I0
tS'b'
tRp1867
(I1
(I18
I1
tg1507
I00
(lp1868
S'8'
aS'2'
aS'2'
aS'8'
aS'1'
aS'2'
aS'1'
aS'2'
aS'8'
aS'6'
aNaS'1'
aNaS'3'
aS'3'
aNaS'5'
aS'4'
atbsg1532
g1518
(g1519
g1505
g1520
S'b'
tRp1869
(I1
(I18
I1
tg1522
I00
S'\x00\x00 A\x00\x00pA\x00\x00\x00\x00\x00\x00\xe0@\x00\x00\x00@\x00\x00@A\x00\x00\x80?\x00\x00\x80@\x00\x00\x80A\x00\x00\xc0@\x00\x00@@\x00\x00\x88A\x00\x00\xa0@\x00\x00\x00A\x00\x000A\x00\x00\x10A\x00\x00`A\x00\x00PA'
S'\x00\x00\x00\x00\x00\x00\x00\x00\x00\x00\x00\x00\x00\x00\x00\x00\x00\x00'
Ntbsg22
g1518
(g1519
g1505
g1520
S'b'
tRp1870
(I1
(I18
I1
tg1522
I00
S'\xd4\xc1;?k[U?n\xdc\x9d?\xae\xa0Y?\xea\x111@\xd9C\xec@DD\xac@(\x88\x10Av\xdd!AG\x99\xf1@m\xff\x91A\x18\xabz@\x00\x00\x00\x00\x7f\xdd\x15A\xcfC\x82A\x00\x00\x00\x00\xea\xbaoAz\xdd\xd5@'
S'\x00\x00\x00\x00\x00\x00\x00\x00\x00\x00\x00\x00\x01\x00\x00\x01\x00\x00'
NtbstRp1871
(dp1872
g1537
(dp1873
g1517
I01
sg20
I00
sg22
I01
sg21
I01
sg19
I00
sg23
I01
sg1532
I01
ssg1539
g1858
sg1540
(lp1874
g1517
ag1532
ag19
ag22
ag20
ag21
ag23
asg1542
(lp1875
I18
aI1
asbsg1544
g1545
sg1546
g1504
(g1505
(I0
tS'b'
tRp1876
(I1
(I18
I1
tg1507
I00
(lp1877
I2
aI6
aI4
aI10
aI7
aI12
aI9
aI3
aI13
aI15
aI0
aI14
aI5
aI17
aI16
aI1
aI8
aI11
atbsg1549
I01
sg1550
I1
sg1551
I-1
sg1552
(lp1878
g1
(g1554
g1502
(dp1879
g977
g1083
sVY
L4L
sg979
L2L
sg980
g1084
sg987
L8L
sg984
L8L
sg985
g990
sVX
L2L
sg982
L0L
sg989
g1025
sg991
L0L
sg992
g1087
stRp1880
ag1
(g1554
g1502
(dp1881
g977
g1125
sVY
L6L
sg979
L2L
sg980
g1126
sg987
L2L
sg984
L2L
sg985
g990
sVX
L6L
sg982
L0L
sg989
g1014
sg991
L0L
sg992
g1087
stRp1882
ag1
(g1554
g1502
(dp1883
g977
g978
sVY
L7L
sg979
L2L
sg980
g981
sg987
L2L
sg984
L2L
sg985
g986
sVX
L8L
sg982
L0L
sg989
g990
sg991
L0L
sg992
g993
stRp1884
ag1
(g1554
g1502
(dp1885
g977
g1057
sVY
L4L
sg979
L2L
sg980
g1058
sg987
L8L
sg984
L8L
sg985
g1060
sVX
L4L
sg982
L0L
sg989
g1003
sg991
L0L
sg992
g993
stRp1886
ag1
(g1554
g1502
(dp1887
g977
g1009
sVY
L4L
sg979
L3L
sg980
g1010
sg987
L1L
sg984
L1L
sg985
g990
sVX
L6L
sg982
g1011
sg989
g1014
sg991
L0L
sg992
g1015
stRp1888
ag1
(g1554
g1502
(dp1889
g977
g1100
sVY
L4L
sg979
L3L
sg980
g1101
sg987
L2L
sg984
L2L
sg985
g1003
sVX
L4L
sg982
g1000
sg989
g986
sg991
L0L
sg992
g1015
stRp1890
ag1
(g1554
g1502
(dp1891
g977
g998
sVY
L7L
sg979
L3L
sg980
g999
sg987
L1L
sg984
L1L
sg985
g986
sVX
L3L
sg982
g1000
sg989
g1003
sg991
L0L
sg992
g1004
stRp1892
ag1
(g1554
g1502
(dp1893
g977
g1031
sVY
L3L
sg979
L3L
sg980
g1032
sg987
L2L
sg984
L2L
sg985
g1014
sVX
L9L
sg982
g1011
sg989
g1022
sg991
L0L
sg992
g1004
stRp1894
ag1
(g1554
g1502
(dp1895
g977
g1133
sVY
L2L
sg979
L3L
sg980
g1134
sg987
L8L
sg984
L8L
sg985
g1070
sVX
L7L
sg982
g986
sg989
g990
sg991
L0L
sg992
g1052
stRp1896
ag1
(g1554
g1502
(dp1897
g977
g1048
sVY
L3L
sg979
L3L
sg980
g1049
sg987
L6L
sg984
L6L
sg985
g1000
sVX
L4L
sg982
g986
sg989
g990
sg991
L0L
sg992
g1052
stRp1898
ag1
(g1554
g1502
(dp1899
g977
g1020
sVY
L6L
sg979
L4L
sg980
g1021
sg987
L7L
sg984
L7L
sg985
g1011
sVX
L4L
sg982
g1022
sg989
g1025
sg991
g1003
sg992
g1026
stRp1900
ag1
(g1554
g1502
(dp1901
g977
g1141
sVY
L5L
sg979
L4L
sg980
g1142
sg987
L1L
sg984
L1L
sg985
g1022
sVX
L6L
sg982
g990
sg989
g1014
sg991
g1011
sg992
g1026
stRp1902
ag1
(g1554
g1502
(dp1903
g977
g1039
sVY
L4L
sg979
L4L
sg980
g1040
sg987
L9L
sg984
L9L
sg985
g1025
sVX
L9L
sg982
g990
sg989
g1042
sg991
g1011
sg992
g1043
stRp1904
ag1
(g1554
g1502
(dp1905
g977
g1066
sVY
L4L
sg979
L4L
sg980
g1067
sg987
L7L
sg984
L7L
sg985
g1060
sVX
L3L
sg982
g990
sg989
g1070
sg991
g1011
sg992
g1043
stRp1906
ag1
(g1554
g1502
(dp1907
g977
g1092
sVY
L6L
sg979
L4L
sg980
g1093
sg987
L3L
sg984
L3L
sg985
g1011
sVX
L4L
sg982
g1060
sg989
g1070
sg991
g1003
sg992
g1078
stRp1908
ag1
(g1554
g1502
(dp1909
g977
g1075
sVY
L8L
sg979
L4L
sg980
g1076
sg987
L6L
sg984
L6L
sg985
g1000
sVX
L9L
sg982
g1014
sg989
g990
sg991
g1070
sg992
g1078
stRp1910
ag1
(g1554
g1502
(dp1911
g977
g1117
sVY
L2L
sg979
L4L
sg980
g1118
sg987
L5L
sg984
L5L
sg985
g1003
sVX
L8L
sg982
g1000
sg989
g1070
sg991
g1014
sg992
g1112
stRp1912
ag1
(g1554
g1502
(dp1913
g977
g1108
sVY
L4L
sg979
L4L
sg980
g1109
sg987
L4L
sg984
L4L
sg985
g1070
sVX
L4L
sg982
g1000
sg989
g990
sg991
g1014
sg992
g1112
stRp1914
asg1567
Nsg1568
I11
sg1569
I18
sg1570
I0
sg1571
I18
sbag1
(g1490
g3
NtRp1915
(dp1916
g1493
Nsg1494
(lp1917
sg1496
I351187152
sg10
g1575
sg6
g1498
sg1499
I1
sg24
I01
sg25
g26
sg1500
g1
(g1501
g1502
(dp1918
g21
g1518
(g1519
g1505
g1520
S'b'
tRp1919
(I1
(I18
I1
tg1522
I00
S'\x00\x00\x80?\x00\x00\x80?\x00\x00\x80?\x00\x00\x80?\x00\x00\x80?\x00\x00\x80?\x00\x00\x00\x00\x00\x00\x00\x00\x00\x00\x80?\x00\x00\x80?\x00\x00\x00\x00\x00\x00\x80?\x00\x00\x80?\x00\x00\x00\x00\x00\x00\x80?\x00\x00\x00\x00\x00\x00\x80?\x00\x00\x80?'
S'\x00\x00\x00\x00\x00\x00\x00\x00\x00\x00\x00\x00\x00\x00\x00\x00\x00\x00'
Ntbsg19
g1504
(g1505
(I0
tS'b'
tRp1920
(I1
(I18
I1
tg1507
I00
(lp1921
g1155
ag1274
ag1215
ag1242
ag1258
ag1196
ag1300
ag1224
ag1266
ag1233
aNag1291
ag1283
ag1186
ag1206
ag1250
ag1173
ag1308
atbsg23
g1518
(g1519
g1505
g1520
S'b'
tRp1922
(I1
(I18
I1
tg1522
I00
S'\xfd\xff\xdf@Qx7@>\xde\x1d@\x8f\xf1\xee?\xf6\xdd\xad@\xfa!\xf2@\x02\x12q@kw\x13A\x8b\xabz@8\x88\xf8@\x00\x00\x00\x00\xe0C$A;erA\x00\x00\x00\x00i\xbb#A\xb2eRAW\xddEA D\x08A'
S'\x00\x00\x00\x00\x00\x00\x00\x00\x00\x00\x01\x00\x00\x01\x00\x00\x00\x00'
Ntbsg1517
g1518
(g1519
g1505
g1520
S'b'
tRp1923
(I1
(I18
I1
tg1522
I00
S'\x00\x00\x80?\x00\x00\x80?\x00\x00\x80?\x00\x00\x80?\x00\x00\x80?\x00\x00\x80?\x00\x00\x80?\x00\x00\x80?\x00\x00\x80?\x00\x00\x80?\x00\x00\x80?\x00\x00\x80?\x00\x00\x80?\x00\x00\x80?\x00\x00\x80?\x00\x00\x80?\x00\x00\x80?\x00\x00\x80?'
S'\x00\x00\x00\x00\x00\x00\x00\x00\x00\x00\x00\x00\x00\x00\x00\x00\x00\x00'
Ntbsg20
g1504
(g1505
(I0
tS'b'
tRp1924
(I1
(I18
I1
tg1507
I00
(lp1925
S'7'
aS'2'
aS'8'
aS'6'
aS'7'
aS'8'
aS'3'
aS'4'
aS'6'
aS'5'
aNaS'8'
aS'6'
aNaS'5'
aS'5'
aS'3'
aS'1'
atbsg1532
g1518
(g1519
g1505
g1520
S'b'
tRp1926
(I1
(I18
I1
tg1522
I00
S'\x00\x00\x00\x00\x00\x00@A\x00\x00\xa0@\x00\x00\x00A\x00\x00 A\x00\x00@@\x00\x00pA\x00\x00\xc0@\x00\x000A\x00\x00\xe0@\x00\x00\x88A\x00\x00`A\x00\x00PA\x00\x00\x00@\x00\x00\x80@\x00\x00\x10A\x00\x00\x80?\x00\x00\x80A'
S'\x00\x00\x00\x00\x00\x00\x00\x00\x00\x00\x00\x00\x00\x00\x00\x00\x00\x00'
Ntbsg22
g1518
(g1519
g1505
g1520
S'b'
tRp1927
(I1
(I18
I1
tg1522
I00
S'\xda\xdb]?;\xd0\x8c?(\xb1*?7\x03\x80?\xbb\xff\x07A[\xcf\xcc?#\xccDA;\xef\x96@\xd3C\xf4@\xf4T\x15A\x00\x00\x00\x00Z\xbb#A\xc0D\xac@\xf7\xa9JA\xa6!\nAW\xdd9A!w\xdf@<\x88\x1cA'
S'\x00\x00\x00\x00\x00\x00\x00\x00\x00\x00\x01\x00\x00\x00\x00\x00\x00\x00'
NtbstRp1928
(dp1929
g1537
(dp1930
g1517
I01
sg20
I00
sg22
I01
sg21
I01
sg19
I00
sg23
I01
sg1532
I01
ssg1539
g1915
sg1540
(lp1931
g1517
ag1532
ag19
ag22
ag20
ag21
ag23
asg1542
(lp1932
I18
aI1
asbsg1544
g1545
sg1546
g1504
(g1505
(I0
tS'b'
tRp1933
(I1
(I18
I1
tg1507
I00
(lp1934
I0
aI16
aI13
aI5
aI14
aI2
aI7
aI9
aI3
aI15
aI4
aI8
aI1
aI12
aI11
aI6
aI17
aI10
atbsg1549
I01
sg1550
I1
sg1551
I-1
sg1552
(lp1935
g1
(g1554
g1502
(dp1936
g1149
g1150
sVY
L5L
sg1151
L2L
sg1152
g1153
sg1159
L7L
sg1156
L7L
sg1157
g1158
sVX
L3L
sg1154
L0L
sg1161
g1162
sg1163
L0L
sg1164
g1165
stRp1937
ag1
(g1554
g1502
(dp1938
g1149
g1272
sVY
L4L
sg1151
L2L
sg1152
g1273
sg1159
L2L
sg1156
L2L
sg1157
g1158
sVX
L9L
sg1154
L0L
sg1161
g1276
sg1163
L0L
sg1164
g1165
stRp1939
ag1
(g1554
g1502
(dp1940
g1149
g1213
sVY
L3L
sg1151
L2L
sg1152
g1214
sg1159
L8L
sg1156
L8L
sg1157
g1177
sVX
L3L
sg1154
L0L
sg1161
g1158
sg1163
L0L
sg1164
g1217
stRp1941
ag1
(g1554
g1502
(dp1942
g1149
g1240
sVY
L8L
sg1151
L2L
sg1152
g1241
sg1159
L6L
sg1156
L6L
sg1157
g1162
sVX
L4L
sg1154
L0L
sg1161
g1174
sg1163
L0L
sg1164
g1217
stRp1943
ag1
(g1554
g1502
(dp1944
g1149
g1256
sVY
L5L
sg1151
L3L
sg1152
g1257
sg1159
L7L
sg1156
L7L
sg1157
g1185
sVX
L2L
sg1154
g1158
sg1161
g1162
sg1163
L0L
sg1164
g1199
stRp1945
ag1
(g1554
g1502
(dp1946
g1149
g1194
sVY
L2L
sg1151
L3L
sg1152
g1195
sg1159
L8L
sg1156
L8L
sg1157
g1197
sVX
L4L
sg1154
g1174
sg1161
g1162
sg1163
L0L
sg1164
g1199
stRp1947
ag1
(g1554
g1502
(dp1948
g1149
g1298
sVY
L3L
sg1151
L3L
sg1152
g1299
sg1159
L2L
sg1156
L2L
sg1157
g1187
sVX
L3L
sg1154
g1176
sg1161
g1185
sg1163
L0L
sg1164
g1226
stRp1949
ag1
(g1554
g1502
(dp1950
g1149
g1222
sVY
L3L
sg1151
L3L
sg1152
g1223
sg1159
L5L
sg1156
L5L
sg1157
g1162
sVX
L2L
sg1154
g1174
sg1161
g1176
sg1163
L0L
sg1164
g1226
stRp1951
ag1
(g1554
g1502
(dp1952
g1149
g1264
sVY
L4L
sg1151
L3L
sg1152
g1265
sg1159
L6L
sg1156
L6L
sg1157
g1172
sVX
L5L
sg1154
g1162
sg1161
g1185
sg1163
L0L
sg1164
g1235
stRp1953
ag1
(g1554
g1502
(dp1954
g1149
g1231
sVY
L3L
sg1151
L3L
sg1152
g1232
sg1159
L5L
sg1156
L5L
sg1157
g1176
sVX
L3L
sg1154
g1177
sg1161
g1174
sg1163
L0L
sg1164
g1235
stRp1955
ag1
(g1554
g1502
(dp1956
g1149
g1314
sVY
L4L
sg1151
L4L
sg1152
g1315
sg1159
L9L
sg1156
L9L
sg1157
g1158
sVX
L9L
sg1154
g1172
sg1161
g1162
sg1163
g1185
sg1164
g1293
stRp1957
ag1
(g1554
g1502
(dp1958
g1149
g1289
sVY
L2L
sg1151
L4L
sg1152
g1290
sg1159
L8L
sg1156
L8L
sg1157
g1197
sVX
L2L
sg1154
g1185
sg1161
g1162
sg1163
g1158
sg1164
g1293
stRp1959
ag1
(g1554
g1502
(dp1960
g1149
g1281
sVY
L6L
sg1151
L4L
sg1152
g1282
sg1159
L6L
sg1156
L6L
sg1157
g1162
sVX
L6L
sg1154
g1172
sg1161
g1158
sg1163
g1174
sg1164
g1189
stRp1961
ag1
(g1554
g1502
(dp1962
g1149
g1183
sVY
L2L
sg1151
L4L
sg1152
g1184
sg1159
L3L
sg1156
L3L
sg1157
g1187
sVX
L9L
sg1154
g1185
sg1161
g1158
sg1163
g1172
sg1164
g1189
stRp1963
ag1
(g1554
g1502
(dp1964
g1149
g1204
sVY
L3L
sg1151
L4L
sg1152
g1205
sg1159
L5L
sg1156
L5L
sg1157
g1185
sVX
L3L
sg1154
g1177
sg1161
g1158
sg1163
g1172
sg1164
g1208
stRp1965
ag1
(g1554
g1502
(dp1966
g1149
g1248
sVY
L3L
sg1151
L4L
sg1152
g1249
sg1159
L8L
sg1156
L8L
sg1157
g1197
sVX
L3L
sg1154
g1187
sg1161
g1158
sg1163
g1185
sg1164
g1208
stRp1967
ag1
(g1554
g1502
(dp1968
g1149
g1170
sVY
L4L
sg1151
L4L
sg1152
g1171
sg1159
L3L
sg1156
L3L
sg1157
g1174
sVX
L3L
sg1154
g1172
sg1161
g1176
sg1163
g1177
sg1164
g1178
stRp1969
ag1
(g1554
g1502
(dp1970
g1149
g1306
sVY
L2L
sg1151
L4L
sg1152
g1307
sg1159
L1L
sg1156
L1L
sg1157
g1174
sVX
L7L
sg1154
g1176
sg1161
g1172
sg1163
g1187
sg1164
g1178
stRp1971
asg1567
Nsg1568
I10
sg1569
I18
sg1570
I0
sg1571
I18
sbag1
(g1490
g3
NtRp1972
(dp1973
g1493
Nsg1494
(lp1974
sg1496
I351187152
sg10
g1575
sg6
g1498
sg1499
I1
sg24
I01
sg25
g26
sg1500
g1
(g1501
g1502
(dp1975
g21
g1518
(g1519
g1505
g1520
S'b'
tRp1976
(I1
(I18
I1
tg1522
I00
S'\x00\x00\x80?\x00\x00\x80?\x00\x00\x80?\x00\x00\x80?\x00\x00\x80?\x00\x00\x00\x00\x00\x00\x80?\x00\x00\x00\x00\x00\x00\x80?\x00\x00\x80?\x00\x00\x00\x00\x00\x00\x00\x00\x00\x00\x80?\x00\x00\x80?\x00\x00\x00\x00\x00\x00\x80?\x00\x00\x80?\x00\x00\x80?'
S'\x00\x00\x00\x00\x00\x00\x00\x00\x00\x00\x00\x00\x00\x00\x00\x00\x00\x00'
Ntbsg19
g1504
(g1505
(I0
tS'b'
tRp1977
(I1
(I18
I1
tg1507
I00
(lp1978
g1403
ag1478
ag1367
ag1386
ag1462
ag1346
ag1436
ag1445
ag1377
ag1428
ag1356
aNag1453
ag1470
aNag1486
ag1420
ag1328
atbsg23
g1518
(g1519
g1505
g1520
S'b'
tRp1979
(I1
(I18
I1
tg1522
I00
S'\x98\xbc\x0b@p\xabJ@\xe83\x9b@\xbavG@\xd9!\nAD"\xaa@\xec\x11q@\xc9\xff\x0bA\xdb\xa9\xfa@\x17\xef\x8e@\xd5T=A\x00\x00\x00\x00:\xde\tA\xd2v[A\x00\x00\x00\x00\x0cw3Ae\x10\x81A+\x88$A'
S'\x00\x00\x00\x00\x00\x00\x00\x00\x00\x00\x00\x01\x00\x00\x01\x00\x00\x00'
Ntbsg1517
g1518
(g1519
g1505
g1520
S'b'
tRp1980
(I1
(I18
I1
tg1522
I00
S'\x00\x00\x80?\x00\x00\x80?\x00\x00\x80?\x00\x00\x80?\x00\x00\x80?\x00\x00\x80?\x00\x00\x80?\x00\x00\x80?\x00\x00\x80?\x00\x00\x80?\x00\x00\x80?\x00\x00\x80?\x00\x00\x80?\x00\x00\x80?\x00\x00\x80?\x00\x00\x80?\x00\x00\x80?\x00\x00\x80?'
S'\x00\x00\x00\x00\x00\x00\x00\x00\x00\x00\x00\x00\x00\x00\x00\x00\x00\x00'
Ntbsg20
g1504
(g1505
(I0
tS'b'
tRp1981
(I1
(I18
I1
tg1507
I00
(lp1982
S'1'
aS'8'
aS'4'
aS'1'
aS'3'
aS'6'
aS'1'
aS'4'
aS'6'
aS'8'
aS'3'
aNaS'6'
aS'7'
aNaS'5'
aS'5'
aS'3'
atbsg1532
g1518
(g1519
g1505
g1520
S'b'
tRp1983
(I1
(I18
I1
tg1522
I00
S'\x00\x00\xe0@\x00\x00\x80A\x00\x00@@\x00\x00\xa0@\x00\x00`A\x00\x00\x80?\x00\x000A\x00\x00@A\x00\x00\x80@\x00\x00 A\x00\x00\x00@\x00\x00\xc0@\x00\x00PA\x00\x00pA\x00\x00\x00A\x00\x00\x88A\x00\x00\x10A\x00\x00\x00\x00'
S'\x00\x00\x00\x00\x00\x00\x00\x00\x00\x00\x00\x00\x00\x00\x00\x00\x00\x00'
Ntbsg22
g1518
(g1519
g1505
g1520
S'b'
tRp1984
(I1
(I18
I1
tg1522
I00
S'\x90\xdfL?a\xc3;?\xb1\x8dH?\xdc\xb9{?K\x88\x00A\xa8\x98\x99@Hf\xa6@\x03W\xf5?\x13\xce\xbc@@\x11\xa9@\xd6C\x1cA\x00\x00\x00\x00x\xccXA;w\x07A\x00\x00\x00\x00\x15\xbbGA\xb3C4A\xb3\xff\x8dA'
S'\x00\x00\x00\x00\x00\x00\x00\x00\x00\x00\x00\x01\x00\x00\x01\x00\x00\x00'
NtbstRp1985
(dp1986
g1537
(dp1987
g1517
I01
sg20
I00
sg22
I01
sg21
I01
sg19
I00
sg23
I01
sg1532
I01
ssg1539
g1972
sg1540
(lp1988
g1517
ag1532
ag19
ag22
ag20
ag21
ag23
asg1542
(lp1989
I18
aI1
asbsg1544
g1545
sg1546
g1504
(g1505
(I0
tS'b'
tRp1990
(I1
(I18
I1
tg1507
I00
(lp1991
I17
aI5
aI10
aI2
aI8
aI3
aI11
aI0
aI14
aI16
aI9
aI6
aI7
aI12
aI4
aI13
aI1
aI15
atbsg1549
I01
sg1550
I1
sg1551
I-1
sg1552
(lp1992
g1
(g1554
g1502
(dp1993
g1321
g1401
sVY
L3L
sg1323
L2L
sg1324
g1402
sg1332
L1L
sg1329
L1L
sg1330
g1389
sVX
L9L
sg1326
L0L
sg1334
g1387
sg1336
L0L
sg1338
g1405
stRp1994
ag1
(g1554
g1502
(dp1995
g1321
g1476
sVY
L2L
sg1323
L2L
sg1324
g1477
sg1332
L8L
sg1329
L8L
sg1330
g1357
sVX
L2L
sg1326
L0L
sg1334
g1348
sg1336
L0L
sg1338
g1405
stRp1996
ag1
(g1554
g1502
(dp1997
g1321
g1365
sVY
L3L
sg1323
L2L
sg1324
g1366
sg1332
L4L
sg1329
L4L
sg1330
g1337
sVX
L6L
sg1326
L0L
sg1334
g1327
sg1336
L0L
sg1338
g1369
stRp1998
ag1
(g1554
g1502
(dp1999
g1321
g1384
sVY
L2L
sg1323
L2L
sg1324
g1385
sg1332
L1L
sg1329
L1L
sg1330
g1387
sVX
L6L
sg1326
L0L
sg1334
g1389
sg1336
L0L
sg1338
g1369
stRp2000
ag1
(g1554
g1502
(dp2001
g1321
g1460
sVY
L9L
sg1323
L3L
sg1324
g1461
sg1332
L3L
sg1329
L3L
sg1330
g1331
sVX
L5L
sg1326
g1359
sg1334
g1337
sg1336
L0L
sg1338
g1349
stRp2002
ag1
(g1554
g1502
(dp2003
g1321
g1344
sVY
L3L
sg1323
L3L
sg1324
g1345
sg1332
L9L
sg1329
L9L
sg1330
g1335
sVX
L5L
sg1326
g1327
sg1334
g1348
sg1336
L0L
sg1338
g1349
stRp2004
ag1
(g1554
g1502
(dp2005
g1321
g1434
sVY
L2L
sg1323
L3L
sg1324
g1435
sg1332
L1L
sg1329
L1L
sg1330
g1387
sVX
L7L
sg1326
g1359
sg1334
g1389
sg1336
L0L
sg1338
g1438
stRp2006
ag1
(g1554
g1502
(dp2007
g1321
g1443
sVY
L6L
sg1323
L3L
sg1324
g1444
sg1332
L6L
sg1329
L6L
sg1330
g1348
sVX
L6L
sg1326
g1335
sg1334
g1389
sg1336
L0L
sg1338
g1438
stRp2008
ag1
(g1554
g1502
(dp2009
g1321
g1374
sVY
L2L
sg1323
L3L
sg1324
g1375
sg1332
L6L
sg1329
L6L
sg1330
g1359
sVX
L2L
sg1326
g1376
sg1334
g1357
sg1336
L0L
sg1338
g1379
stRp2010
ag1
(g1554
g1502
(dp2011
g1321
g1426
sVY
L6L
sg1323
L3L
sg1324
g1427
sg1332
L8L
sg1329
L8L
sg1330
g1389
sVX
L2L
sg1326
g1348
sg1334
g1357
sg1336
L0L
sg1338
g1379
stRp2012
ag1
(g1554
g1502
(dp2013
g1321
g1354
sVY
L4L
sg1323
L4L
sg1324
g1355
sg1332
L8L
sg1329
L8L
sg1330
g1357
sVX
L3L
sg1326
g1331
sg1334
g1337
sg1336
g1359
sg1338
g1360
stRp2014
ag1
(g1554
g1502
(dp2015
g1321
g1394
sVY
L8L
sg1323
L4L
sg1324
g1395
sg1332
L1L
sg1329
L1L
sg1330
g1331
sVX
L2L
sg1326
g1359
sg1334
g1337
sg1336
g1357
sg1338
g1360
stRp2016
ag1
(g1554
g1502
(dp2017
g1321
g1451
sVY
L5L
sg1323
L4L
sg1324
g1452
sg1332
L6L
sg1329
L6L
sg1330
g1387
sVX
L4L
sg1326
g1331
sg1334
g1357
sg1336
g1327
sg1338
g1455
stRp2018
ag1
(g1554
g1502
(dp2019
g1321
g1468
sVY
L3L
sg1323
L4L
sg1324
g1469
sg1332
L7L
sg1329
L7L
sg1330
g1376
sVX
L2L
sg1326
g1335
sg1334
g1327
sg1336
g1331
sg1338
g1455
stRp2020
ag1
(g1554
g1502
(dp2021
g1321
g1410
sVY
L3L
sg1323
L4L
sg1324
g1411
sg1332
L5L
sg1329
L5L
sg1330
g1331
sVX
L3L
sg1326
g1387
sg1334
g1359
sg1336
g1357
sg1338
g1413
stRp2022
ag1
(g1554
g1502
(dp2023
g1321
g1484
sVY
L4L
sg1323
L4L
sg1324
g1485
sg1332
L5L
sg1329
L5L
sg1330
g1359
sVX
L8L
sg1326
g1348
sg1334
g1389
sg1336
g1335
sg1338
g1413
stRp2024
ag1
(g1554
g1502
(dp2025
g1321
g1418
sVY
L2L
sg1323
L4L
sg1324
g1419
sg1332
L5L
sg1329
L5L
sg1330
g1331
sVX
L6L
sg1326
g1335
sg1334
g1359
sg1336
g1337
sg1338
g1339
stRp2026
ag1
(g1554
g1502
(dp2027
g1321
g1322
sVY
L2L
sg1323
L4L
sg1324
g1325
sg1332
L3L
sg1329
L3L
sg1330
g1331
sVX
L3L
sg1326
g1327
sg1334
g1335
sg1336
g1337
sg1338
g1339
stRp2028
asg1567
Nsg1568
I15
sg1569
I18
sg1570
I0
sg1571
I18
sbasS'savePickle'
p2029
I00
sb.