ccopy_reg
_reconstructor
p1
(cpsychopy.data
ExperimentHandler
p2
c__builtin__
object
p3
NtRp4
(dp5
S'originPath'
p6
NsS'dataFileName'
p7
VC:\u005cUsers\u005cexperimenter\u005cDesktop\u005cExperiments\u005cKRITL\u005cdata/31047_KRITL_2017_Apr_28_0915
p8
sS'runtimeInfo'
p9
NsS'name'
p10
S'KRITL'
p11
sS'dataNames'
p12
(lp13
S'practice_encoding.keys'
p14
aS'practice_execution.keys'
p15
aS'practice_execution.corr'
p16
aS'practice_encoding.rt'
p17
aS'practice_execution.rt'
p18
aS'encoding.keys'
p19
aS'execution.keys'
p20
aS'execution.corr'
p21
aS'encoding.rt'
p22
aS'execution.rt'
p23
asS'autoLog'
p24
I01
sS'extraInfo'
p25
(dp26
S'date'
p27
V2017_Apr_28_0915
p28
sS'frameRate'
p29
NsS'expName'
p30
g11
sVsession
p31
V001
p32
sVparticipant
p33
V31047
p34
ssS'loopsUnfinished'
p35
(lp36
sS'saveWideText'
p37
I00
sS'thisEntry'
p38
(dp39
sS'version'
p40
S''
sS'_paramNamesSoFar'
p41
(lp42
Voperationc
p43
aVoperationb
p44
aVoperationa
p45
aVcorrectresponse
p46
aVvaluey
p47
aVoperationd
p48
aVcondition
p49
aVvaluex
p50
aVRule
p51
aVOperatora
p52
aVLength
p53
aVIntermediate
p54
aVCorrectResponse
p55
aVResult
p56
aVY
aVX
aVOperatorc
p57
aVOperatorb
p58
aVOperatord
p59
aVStructure
p60
asS'entries'
p61
(lp62
(dp63
g31
g32
sg43
Vincrease
p64
sg27
g28
sg15
Nsg29
Nsg14
Nsg49
I4
sg45
Vdouble
p65
sg16
I0
sS'practice_trials.thisN'
p66
I0
sg44
VDIVIDE
p67
sS'practice_trials.thisIndex'
p68
I5
sg30
g11
sg46
I9
sS'practice_trials.thisTrialN'
p69
I0
sg48
Vtriple
p70
sS'practice_trials.thisRepN'
p71
I0
sg33
g34
sg47
I8
sg50
I8
sa(dp72
g18
F4.2281428449787199
sg29
Nsg16
I1
sg43
I0
sg44
VADD
p73
sg45
Vdecrease
p74
sg31
g32
sg46
I7
sS'practice_trials.thisTrialN'
p75
I1
sg48
I0
sS'practice_trials.thisRepN'
p76
I0
sg33
g34
sg49
I2
sg27
g28
sg15
S'7'
sg14
(lp77
S'space'
p78
asS'practice_trials.thisIndex'
p79
I0
sS'practice_trials.thisN'
p80
I1
sg30
g11
sg17
(lp81
F9.8316807532683015
asg47
I5
sg50
I3
sa(dp82
g18
F1.5737813177984208
sg29
Nsg16
I1
sg43
I0
sg44
g74
sg45
VTIMES
p83
sg31
g32
sg46
I8
sS'practice_trials.thisTrialN'
p84
I2
sg48
I0
sS'practice_trials.thisRepN'
p85
I0
sg33
g34
sg49
I2
sg27
g28
sg15
S'8'
sg14
(lp86
S'space'
p87
asS'practice_trials.thisIndex'
p88
I1
sS'practice_trials.thisN'
p89
I2
sg30
g11
sg17
(lp90
F6.552284186007455
asg47
I3
sg50
I3
sa(dp91
g18
F1.921723592095077
sg29
Nsg16
I1
sg43
I0
sg44
g73
sg45
Vhalf
p92
sg31
g32
sg46
I7
sS'practice_trials.thisTrialN'
p93
I3
sg48
I0
sS'practice_trials.thisRepN'
p94
I0
sg33
g34
sg49
I2
sg27
g28
sg15
S'7'
sg14
(lp95
S'space'
p96
asS'practice_trials.thisIndex'
p97
I2
sS'practice_trials.thisN'
p98
I3
sg30
g11
sg17
(lp99
F4.8334046674426645
asg47
I5
sg50
I4
sa(dp100
g18
F7.5130516674835235
sg29
Nsg16
I1
sg43
g64
sg44
g67
sg45
g70
sg31
g32
sg46
I3
sS'practice_trials.thisTrialN'
p101
I4
sg48
I0
sS'practice_trials.thisRepN'
p102
I0
sg33
g34
sg49
I3
sg27
g28
sg15
S'3'
sg14
(lp103
S'space'
p104
asS'practice_trials.thisIndex'
p105
I4
sS'practice_trials.thisN'
p106
I4
sg30
g11
sg17
(lp107
F11.245120913721621
asg47
I3
sg50
I2
sa(dp108
g18
F12.003398833330721
sg29
Nsg16
I1
sg43
g73
sg44
Vtriple 
p109
sg45
g92
sg31
g32
sg46
I8
sS'practice_trials.thisTrialN'
p110
I5
sg48
I0
sS'practice_trials.thisRepN'
p111
I0
sg33
g34
sg49
I3
sg27
g28
sg15
S'8'
sg14
(lp112
S'space'
p113
asS'practice_trials.thisIndex'
p114
I3
sS'practice_trials.thisN'
p115
I5
sg30
g11
sg17
(lp116
F13.208133752690628
asg47
I2
sg50
I4
sa(dp117
S'block.thisTrialN'
p118
I0
sS'block.thisRepN'
p119
I0
sg29
NsS'block.thisN'
p120
I0
sg51
(S'TIMES'
S'DECREASE'
S'THIRD'
S'DOUBLE'
S'x'
S'y'
tp121
sg27
g28
sg53
I4
sg54
(I6
I2
I1
I2
tp122
sg21
I0
sVY
I2
sVX
I3
sg57
Vthird
p123
sg31
g32
sg33
g34
sg20
Nsg19
Nsg30
g11
sg56
I2
sg52
Vdecrease
p124
sg55
I2
sS'block.thisIndex'
p125
I11
sg58
VTIMES
p126
sg59
Vdouble
p127
sg60
VBUUUxy
p128
sa(dp129
S'block.thisTrialN'
p130
I1
sS'block.thisRepN'
p131
I0
sg29
NsS'block.thisN'
p132
I1
sg51
(S'INCREASE'
S'TRIPLE'
S'HALF'
S'ADD'
S'x'
S'y'
tp133
sg27
g28
sg53
I4
sg54
(I4
I2
I6
I7
tp134
sg21
I1
sg22
F8.7822093886788934
sg23
F8.0681243529543281
sVY
I2
sVX
I2
sg57
Vhalf
p135
sg31
g32
sg33
g34
sg20
S'7'
sg19
S'space'
p136
sg30
g11
sg56
I7
sg52
Vtriple
p137
sg55
I7
sS'block.thisIndex'
p138
I17
sg58
Vincrease
p139
sg59
VADD
p140
sg60
VUUUBxy
p141
sa(dp142
S'block.thisTrialN'
p143
I2
sS'block.thisRepN'
p144
I0
sg29
NsS'block.thisN'
p145
I2
sg51
(S'ADD'
S'DECREASE'
S'HALF'
S'x'
S'y'
tp146
sg27
g28
sg53
I3
sg54
(I3
I2
I6
tp147
sg21
I1
sg22
F9.3614137216936797
sg23
F3.4847586187534034
sVY
I4
sVX
I6
sg57
g135
sg31
g32
sg33
g34
sg20
S'6'
sg19
S'space'
p148
sg30
g11
sg56
I6
sg52
g124
sg55
I6
sS'block.thisIndex'
p149
I4
sg58
g140
sg59
I0
sg60
VBUUxy
p150
sa(dp151
S'block.thisTrialN'
p152
I3
sS'block.thisRepN'
p153
I0
sg29
NsS'block.thisN'
p154
I3
sg51
(S'SUBTRACT'
S'THIRD'
S'x'
S'y'
tp155
sg27
g28
sg53
I2
sg54
(I3
I1
tp156
sg21
I1
sg22
F16.384939584182575
sg23
F8.5160256465896964
sVY
I2
sVX
I9
sg57
I0
sg31
g32
sg33
g34
sg20
S'1'
sg19
S'space'
p157
sg30
g11
sg56
I1
sg52
g123
sg55
I1
sS'block.thisIndex'
p158
I0
sg58
VSUBTRACT
p159
sg59
I0
sg60
VBUxy
p160
sa(dp161
S'block.thisTrialN'
p162
I4
sS'block.thisRepN'
p163
I0
sg29
NsS'block.thisN'
p164
I4
sg51
(S'TRIPLE'
S'HALF'
S'TIMES'
S'x'
S'y'
tp165
sg27
g28
sg53
I3
sg54
(I6
I3
I9
tp166
sg21
I1
sg22
F11.076823714422062
sg23
F4.3870236095972359
sVY
I3
sVX
I2
sg57
g126
sg31
g32
sg33
g34
sg20
S'9'
sg19
S'space'
p167
sg30
g11
sg56
I9
sg52
g135
sg55
I9
sS'block.thisIndex'
p168
I9
sg58
g137
sg59
I0
sg60
VUUBxy
p169
sa(dp170
S'block.thisTrialN'
p171
I5
sS'block.thisRepN'
p172
I0
sg29
NsS'block.thisN'
p173
I5
sg51
(S'DIVIDE'
S'DECREASE'
S'THIRD'
S'DOUBLE'
S'x'
S'y'
tp174
sg27
g28
sg53
I4
sg54
(I12
I4
I3
I1
tp175
sg21
I0
sVY
I3
sVX
I6
sg57
g123
sg31
g32
sg33
g34
sg20
Nsg19
Nsg30
g11
sg56
I1
sg52
g124
sg55
I1
sS'block.thisIndex'
p176
I10
sg58
VDIVIDE
p177
sg59
g127
sg60
g128
sa(dp178
S'block.thisTrialN'
p179
I6
sS'block.thisRepN'
p180
I0
sg29
NsS'block.thisN'
p181
I6
sg51
(S'DECREASE'
S'HALF'
S'DIVIDE'
S'x'
S'y'
tp182
sg27
g28
sg53
I3
sg54
(I4
I2
I1
tp183
sg21
I1
sg22
F10.216784469783306
sg23
F3.6142348549328744
sVY
I2
sVX
I8
sg57
g177
sg31
g32
sg33
g34
sg20
S'1'
sg19
S'space'
p184
sg30
g11
sg56
I1
sg52
g135
sg55
I1
sS'block.thisIndex'
p185
I8
sg58
g124
sg59
I0
sg60
g169
sa(dp186
S'block.thisTrialN'
p187
I7
sS'block.thisRepN'
p188
I0
sg29
NsS'block.thisN'
p189
I7
sg51
(S'INCREASE'
S'HALF'
S'TIMES'
S'TRIPLE'
S'x'
S'y'
tp190
sg27
g28
sg53
I4
sg54
(I6
I12
I6
I7
tp191
sg21
I0
sg22
F0.1022810188587755
sg23
F3.7097689514048398
sVY
I2
sVX
I2
sg57
g126
sg31
g32
sg33
g34
sg20
S'1'
sg19
S'space'
p192
sg30
g11
sg56
I7
sg52
g135
sg55
I7
sS'block.thisIndex'
p193
I14
sg58
g139
sg59
g137
sg60
VUUBUxy
p194
sa(dp195
S'block.thisTrialN'
p196
I8
sS'block.thisRepN'
p197
I0
sg29
NsS'block.thisN'
p198
I8
sg51
(S'THIRD'
S'INCREASE'
S'SUBTRACT'
S'HALF'
S'x'
S'y'
tp199
sg27
g28
sg53
I4
sg54
(I4
I2
I3
I1
tp200
sg21
I1
sg22
F14.309741094475612
sg23
F13.667536556255072
sVY
I2
sVX
I8
sg57
g159
sg31
g32
sg33
g34
sg20
S'1'
sg19
S'space'
p201
sg30
g11
sg56
I1
sg52
g139
sg55
I1
sS'block.thisIndex'
p202
I15
sg58
g123
sg59
g135
sg60
g194
sa(dp203
S'block.thisTrialN'
p204
I9
sS'block.thisRepN'
p205
I0
sg29
NsS'block.thisN'
p206
I9
sg51
(S'DECREASE'
S'DIVIDE'
S'TRIPLE'
S'DOUBLE'
S'x'
S'y'
tp207
sg27
g28
sg53
I4
sg54
(I6
I18
I2
I1
tp208
sg21
I1
sg22
F11.158321874914691
sg23
F4.8626198663841933
sVY
I9
sVX
I3
sg57
g137
sg31
g32
sg33
g34
sg20
S'1'
sg19
S'space'
p209
sg30
g11
sg56
I1
sg52
g177
sg55
I1
sS'block.thisIndex'
p210
I12
sg58
g124
sg59
g127
sg60
VUBUUxy
p211
sa(dp212
S'block.thisTrialN'
p213
I10
sS'block.thisRepN'
p214
I0
sg29
NsS'block.thisN'
p215
I10
sg51
(S'SUBTRACT'
S'DOUBLE'
S'DECREASE'
S'x'
S'y'
tp216
sg27
g28
sg53
I3
sg54
(I8
I16
I7
tp217
sg21
I1
sg22
F15.570427629398182
sg23
F12.611862810561433
sVY
I9
sVX
I9
sg57
g124
sg31
g32
sg33
g34
sg20
S'7'
sg19
S'space'
p218
sg30
g11
sg56
I7
sg52
g127
sg55
I7
sS'block.thisIndex'
p219
I5
sg58
g159
sg59
I0
sg60
g150
sa(dp220
S'block.thisTrialN'
p221
I11
sS'block.thisRepN'
p222
I0
sg29
NsS'block.thisN'
p223
I11
sg51
(S'DOUBLE'
S'TIMES'
S'THIRD'
S'x'
S'y'
tp224
sg27
g28
sg53
I3
sg54
(I1
I4
I8
tp225
sg21
I1
sg22
F16.464893711032346
sg23
F15.012569244252518
sVY
I4
sVX
I3
sg57
g123
sg31
g32
sg33
g34
sg20
S'8'
sg19
S'space'
p226
sg30
g11
sg56
I8
sg52
g126
sg55
I8
sS'block.thisIndex'
p227
I6
sg58
g127
sg59
I0
sg60
VUBUxy
p228
sa(dp229
S'block.thisTrialN'
p230
I12
sS'block.thisRepN'
p231
I0
sg29
NsS'block.thisN'
p232
I12
sg51
(S'DECREASE'
S'HALF'
S'TRIPLE'
S'ADD'
S'x'
S'y'
tp233
sg27
g28
sg53
I4
sg54
(I4
I12
I6
I5
tp234
sg21
I1
sg22
F14.102263520937413
sg23
F7.7489983204286546
sVY
I2
sVX
I2
sg57
g137
sg31
g32
sg33
g34
sg20
S'5'
sg19
S'space'
p235
sg30
g11
sg56
I5
sg52
g135
sg55
I5
sS'block.thisIndex'
p236
I16
sg58
g124
sg59
g140
sg60
g141
sa(dp237
S'block.thisTrialN'
p238
I13
sS'block.thisRepN'
p239
I0
sg29
NsS'block.thisN'
p240
I13
sg51
(S'INCREASE'
S'DIVIDE'
S'HALF'
S'x'
S'y'
tp241
sg27
g28
sg53
I3
sg54
(I2
I1
I2
tp242
sg21
I1
sg22
F9.5220306490082294
sg23
F3.8593662674538791
sVY
I2
sVX
I4
sg57
g135
sg31
g32
sg33
g34
sg20
S'2'
sg19
S'space'
p243
sg30
g11
sg56
I2
sg52
g177
sg55
I2
sS'block.thisIndex'
p244
I7
sg58
g139
sg59
I0
sg60
g228
sa(dp245
S'block.thisTrialN'
p246
I14
sS'block.thisRepN'
p247
I0
sg29
NsS'block.thisN'
p248
I14
sg51
(S'TRIPLE'
S'SUBTRACT'
S'INCREASE'
S'HALF'
S'x'
S'y'
tp249
sg27
g28
sg53
I4
sg54
(I3
I4
I1
I3
tp250
sg21
I1
sg22
F17.316448471043259
sg23
F9.0446128386538476
sVY
I3
sVX
I6
sg57
g139
sg31
g32
sg33
g34
sg20
S'3'
sg19
S'space'
p251
sg30
g11
sg56
I3
sg52
g159
sg55
I3
sS'block.thisIndex'
p252
I13
sg58
g137
sg59
g135
sg60
g211
sa(dp253
S'block.thisTrialN'
p254
I15
sS'block.thisRepN'
p255
I0
sg29
NsS'block.thisN'
p256
I15
sg51
(S'TRIPLE'
S'SUBTRACT'
S'x'
S'y'
tp257
sg27
g28
sg53
I2
sg54
(I2
I6
tp258
sg21
I1
sg22
F2.5470627492759377
sg23
F1.9873289165552706
sVY
I6
sVX
I8
sg57
I0
sg31
g32
sg33
g34
sg20
S'6'
sg19
S'space'
p259
sg30
g11
sg56
I6
sg52
g159
sg55
I6
sS'block.thisIndex'
p260
I3
sg58
g137
sg59
I0
sg60
VUBxy
p261
sa(dp262
S'block.thisTrialN'
p263
I16
sS'block.thisRepN'
p264
I0
sg29
NsS'block.thisN'
p265
I16
sg51
(S'INCREASE'
S'TIMES'
S'x'
S'y'
tp266
sg27
g28
sg53
I2
sg54
(I8
I9
tp267
sg21
I1
sg22
F2.8488100057002157
sg23
F1.652860539034009
sVY
I4
sVX
I2
sg57
I0
sg31
g32
sg33
g34
sg20
S'9'
sg19
S'space'
p268
sg30
g11
sg56
I9
sg52
g126
sg55
I9
sS'block.thisIndex'
p269
I2
sg58
g139
sg59
I0
sg60
g261
sa(dp270
S'block.thisTrialN'
p271
I17
sS'block.thisRepN'
p272
I0
sg29
NsS'block.thisN'
p273
I17
sg51
(S'TIMES'
S'THIRD'
S'x'
S'y'
tp274
sg27
g28
sg53
I2
sg54
(I1
I4
tp275
sg21
I1
sg22
F2.9966641599312425
sg23
F1.6987444404512644
sVY
I4
sVX
I3
sg57
I0
sg31
g32
sg33
g34
sg20
S'4'
sg19
S'space'
p276
sg30
g11
sg56
I4
sg52
g123
sg55
I4
sS'block.thisIndex'
p277
I1
sg58
g126
sg59
I0
sg60
g160
sa(dp278
S'block.thisTrialN'
p279
I0
sS'block.thisRepN'
p280
I0
sg29
NsS'block.thisN'
p281
I0
sVRule
p282
(S'SUBTRACT'
S'DECREASE'
S'TRIPLE'
S'DOUBLE'
S'x'
S'y'
tp283
sg27
g28
sVLength
p284
I4
sVIntermediate
p285
(I6
I18
I17
I8
tp286
sg21
I1
sg22
F14.613843247061595
sg23
F5.9404455230105668
sVY
I9
sVX
I3
sVOperatorc
p287
Vtriple
p288
sg31
g32
sg33
g34
sg20
S'8'
sg19
S'space'
p289
sg30
g11
sVResult
p290
I8
sVOperatora
p291
Vdecrease
p292
sVCorrectResponse
p293
I8
sS'block.thisIndex'
p294
I11
sVOperatorb
p295
VSUBTRACT
p296
sVOperatord
p297
Vdouble
p298
sVStructure
p299
VBUUUxy
p300
sa(dp301
S'block.thisTrialN'
p302
I1
sS'block.thisRepN'
p303
I0
sg29
NsS'block.thisN'
p304
I1
sg282
(S'SUBTRACT'
S'DECREASE'
S'x'
S'y'
tp305
sg27
g28
sg284
I2
sg285
(I5
I3
tp306
sg21
I1
sg22
F2.6955692328047007
sg23
F1.7638720662798733
sVY
I2
sVX
I6
sg287
I0
sg31
g32
sg33
g34
sg20
S'3'
sg19
S'space'
p307
sg30
g11
sg290
I3
sg291
g292
sg293
I3
sS'block.thisIndex'
p308
I1
sg295
g296
sg297
I0
sg299
VBUxy
p309
sa(dp310
S'block.thisTrialN'
p311
I2
sS'block.thisRepN'
p312
I0
sg29
NsS'block.thisN'
p313
I2
sg282
(S'DECREASE'
S'DIVIDE'
S'x'
S'y'
tp314
sg27
g28
sg284
I2
sg285
(I2
I1
tp315
sg21
I1
sg22
F3.5264195257332176
sg23
F1.3991190050728619
sVY
I4
sVX
I8
sg287
I0
sg31
g32
sg33
g34
sg20
S'1'
sg19
S'space'
p316
sg30
g11
sg290
I1
sg291
VDIVIDE
p317
sg293
I1
sS'block.thisIndex'
p318
I2
sg295
g292
sg297
I0
sg299
VUBxy
p319
sa(dp320
S'block.thisTrialN'
p321
I3
sS'block.thisRepN'
p322
I0
sg29
NsS'block.thisN'
p323
I3
sg282
(S'HALF'
S'TRIPLE'
S'INCREASE'
S'DIVIDE'
S'x'
S'y'
tp324
sg27
g28
sg284
I4
sg285
(I3
I4
I12
I6
tp325
sg21
I1
sg22
F13.439121090807021
sg23
F7.8098795043770224
sVY
I3
sVX
I9
sg287
Vincrease
p326
sg31
g32
sg33
g34
sg20
S'6'
sg19
S'space'
p327
sg30
g11
sg290
I6
sg291
g288
sg293
I6
sS'block.thisIndex'
p328
I16
sg295
Vhalf
p329
sg297
g317
sg299
VUUUBxy
p330
sa(dp331
S'block.thisTrialN'
p332
I4
sS'block.thisRepN'
p333
I0
sg29
NsS'block.thisN'
p334
I4
sg282
(S'DIVIDE'
S'DECREASE'
S'TRIPLE'
S'x'
S'y'
tp335
sg27
g28
sg284
I3
sg285
(I9
I8
I4
tp336
sg21
I1
sg22
F4.2100795428268611
sg23
F4.081984258024022
sVY
I2
sVX
I3
sg287
g288
sg31
g32
sg33
g34
sg20
S'4'
sg19
S'space'
p337
sg30
g11
sg290
I4
sg291
g292
sg293
I4
sS'block.thisIndex'
p338
I5
sg295
g317
sg297
I0
sg299
VBUUxy
p339
sa(dp340
S'block.thisTrialN'
p341
I5
sS'block.thisRepN'
p342
I0
sg29
NsS'block.thisN'
p343
I5
sg282
(S'THIRD'
S'INCREASE'
S'DIVIDE'
S'DOUBLE'
S'x'
S'y'
tp344
sg27
g28
sg284
I4
sg285
(I18
I2
I3
I1
tp345
sg21
I0
sVY
I9
sVX
I9
sg287
g317
sg31
g32
sg33
g34
sg20
Nsg19
Nsg30
g11
sg290
I1
sg291
g326
sg293
I1
sS'block.thisIndex'
p346
I15
sg295
Vthird
p347
sg297
g298
sg299
VUUBUxy
p348
sa(dp349
S'block.thisTrialN'
p350
I6
sS'block.thisRepN'
p351
I0
sg29
NsS'block.thisN'
p352
I6
sg282
(S'INCREASE'
S'TRIPLE'
S'DIVIDE'
S'x'
S'y'
tp353
sg27
g28
sg284
I3
sg285
(I2
I6
I7
tp354
sg21
I1
sg22
F5.320890192175284
sg23
F4.2442071624100208
sVY
I3
sVX
I6
sg287
g317
sg31
g32
sg33
g34
sg20
S'7'
sg19
S'space'
p355
sg30
g11
sg290
I7
sg291
g288
sg293
I7
sS'block.thisIndex'
p356
I8
sg295
g326
sg297
I0
sg299
VUUBxy
p357
sa(dp358
S'block.thisTrialN'
p359
I7
sS'block.thisRepN'
p360
I0
sg29
NsS'block.thisN'
p361
I7
sg282
(S'DOUBLE'
S'ADD'
S'INCREASE'
S'THIRD'
S'x'
S'y'
tp362
sg27
g28
sg284
I4
sg285
(I1
I2
I4
I8
tp363
sg21
I1
sg22
F10.179501940729097
sg23
F8.3237332853022963
sVY
I2
sVX
I3
sg287
g326
sg31
g32
sg33
g34
sg20
S'8'
sg19
S'space'
p364
sg30
g11
sg290
I8
sg291
VADD
p365
sg293
I8
sS'block.thisIndex'
p366
I12
sg295
g298
sg297
g347
sg299
VUBUUxy
p367
sa(dp368
S'block.thisTrialN'
p369
I8
sS'block.thisRepN'
p370
I0
sg29
NsS'block.thisN'
p371
I8
sg282
(S'INCREASE'
S'ADD'
S'x'
S'y'
tp372
sg27
g28
sg284
I2
sg285
(I5
I6
tp373
sg21
I1
sg22
F2.5635746684856713
sg23
F2.5523149829823524
sVY
I2
sVX
I3
sg287
I0
sg31
g32
sg33
g34
sg20
S'6'
sg19
S'space'
p374
sg30
g11
sg290
I6
sg291
g365
sg293
I6
sS'block.thisIndex'
p375
I3
sg295
g326
sg297
I0
sg299
g319
sa(dp376
S'block.thisTrialN'
p377
I9
sS'block.thisRepN'
p378
I0
sg29
NsS'block.thisN'
p379
I9
sg282
(S'HALF'
S'ADD'
S'TRIPLE'
S'x'
S'y'
tp380
sg27
g28
sg284
I3
sg285
(I9
I12
I6
tp381
sg21
I1
sg22
F10.418028165586293
sg23
F11.038460152223706
sVY
I3
sVX
I3
sg287
g288
sg31
g32
sg33
g34
sg20
S'6'
sg19
S'space'
p382
sg30
g11
sg290
I6
sg291
g365
sg293
I6
sS'block.thisIndex'
p383
I6
sg295
g329
sg297
I0
sg299
VUBUxy
p384
sa(dp385
S'block.thisTrialN'
p386
I10
sS'block.thisRepN'
p387
I0
sg29
NsS'block.thisN'
p388
I10
sg282
(S'THIRD'
S'DOUBLE'
S'INCREASE'
S'TIMES'
S'x'
S'y'
tp389
sg27
g28
sg284
I4
sg285
(I8
I9
I18
I6
tp390
sg21
I1
sg22
F11.24102740525268
sg23
F12.767837838502601
sVY
I4
sVX
I2
sg287
g326
sg31
g32
sg33
g34
sg20
S'6'
sg19
S'space'
p391
sg30
g11
sg290
I6
sg291
g298
sg293
I6
sS'block.thisIndex'
p392
I17
sg295
g347
sg297
VTIMES
p393
sg299
g330
sa(dp394
S'block.thisTrialN'
p395
I11
sS'block.thisRepN'
p396
I0
sg29
NsS'block.thisN'
p397
I11
sg282
(S'ADD'
S'DOUBLE'
S'DECREASE'
S'THIRD'
S'x'
S'y'
tp398
sg27
g28
sg284
I4
sg285
(I2
I1
I2
I8
tp399
sg21
I1
sg22
F16.614048674702644
sg23
F8.226683852262795
sVY
I6
sVX
I6
sg287
g292
sg31
g32
sg33
g34
sg20
S'8'
sg19
S'space'
p400
sg30
g11
sg290
I8
sg291
g298
sg293
I8
sS'block.thisIndex'
p401
I10
sg295
g365
sg297
g347
sg299
g300
sa(dp402
S'block.thisTrialN'
p403
I12
sS'block.thisRepN'
p404
I0
sg29
NsS'block.thisN'
p405
I12
sg282
(S'THIRD'
S'TIMES'
S'DOUBLE'
S'DECREASE'
S'x'
S'y'
tp406
sg27
g28
sg284
I4
sg285
(I1
I2
I6
I2
tp407
sg21
I0
sVY
I3
sVX
I2
sg287
g298
sg31
g32
sg33
g34
sg20
Nsg19
Nsg30
g11
sg290
I2
sg291
g393
sg293
I2
sS'block.thisIndex'
p408
I13
sg295
g347
sg297
g292
sg299
g367
sa(dp409
S'block.thisTrialN'
p410
I13
sS'block.thisRepN'
p411
I0
sg29
NsS'block.thisN'
p412
I13
sg282
(S'THIRD'
S'HALF'
S'ADD'
S'x'
S'y'
tp413
sg27
g28
sg284
I3
sg285
(I6
I3
I1
tp414
sg21
I1
sg22
F4.0414876756258309
sg23
F1.8441975032910705
sVY
I3
sVX
I3
sg287
g365
sg31
g32
sg33
g34
sg20
S'1'
sg19
S'space'
p415
sg30
g11
sg290
I1
sg291
g329
sg293
I1
sS'block.thisIndex'
p416
I9
sg295
g347
sg297
I0
sg299
g357
sa(dp417
S'block.thisTrialN'
p418
I14
sS'block.thisRepN'
p419
I0
sg29
NsS'block.thisN'
p420
I14
sg282
(S'THIRD'
S'DOUBLE'
S'ADD'
S'DECREASE'
S'x'
S'y'
tp421
sg27
g28
sg284
I4
sg285
(I5
I12
I24
I8
tp422
sg21
I1
sg22
F14.193287303904071
sg23
F6.4531871238723397
sVY
I7
sVX
I6
sg287
g365
sg31
g32
sg33
g34
sg20
S'8'
sg19
S'space'
p423
sg30
g11
sg290
I8
sg291
g298
sg293
I8
sS'block.thisIndex'
p424
I14
sg295
g347
sg297
g292
sg299
g348
sa(dp425
S'block.thisTrialN'
p426
I15
sS'block.thisRepN'
p427
I0
sg29
NsS'block.thisN'
p428
I15
sg282
(S'ADD'
S'HALF'
S'THIRD'
S'x'
S'y'
tp429
sg27
g28
sg284
I3
sg285
(I2
I1
I9
tp430
sg21
I1
sg22
F5.0749650651123375
sg23
F1.3972054114565253
sVY
I8
sVX
I6
sg287
g347
sg31
g32
sg33
g34
sg20
S'9'
sg19
S'space'
p431
sg30
g11
sg290
I9
sg291
g329
sg293
I9
sS'block.thisIndex'
p432
I4
sg295
g365
sg297
I0
sg299
g339
sa(dp433
S'block.thisTrialN'
p434
I16
sS'block.thisRepN'
p435
I0
sg29
NsS'block.thisN'
p436
I16
sg282
(S'INCREASE'
S'SUBTRACT'
S'HALF'
S'x'
S'y'
tp437
sg27
g28
sg284
I3
sg285
(I4
I2
I3
tp438
sg21
I1
sg22
F3.3174518127925694
sg23
F3.6209901762194932
sVY
I2
sVX
I8
sg287
g329
sg31
g32
sg33
g34
sg20
S'3'
sg19
S'space'
p439
sg30
g11
sg290
I3
sg291
g296
sg293
I3
sS'block.thisIndex'
p440
I7
sg295
g326
sg297
I0
sg299
g384
sa(dp441
S'block.thisTrialN'
p442
I17
sS'block.thisRepN'
p443
I0
sg29
NsS'block.thisN'
p444
I17
sg282
(S'DIVIDE'
S'INCREASE'
S'x'
S'y'
tp445
sg27
g28
sg284
I2
sg285
(I4
I2
tp446
sg21
I1
sg22
F4.5511751556769013
sg23
F1.4740158275235444
sVY
I2
sVX
I3
sg287
I0
sg31
g32
sg33
g34
sg20
S'2'
sg19
S'space'
p447
sg30
g11
sg290
I2
sg291
g326
sg293
I2
sS'block.thisIndex'
p448
I0
sg295
g317
sg297
I0
sg299
g309
sa(dp449
S'block.thisTrialN'
p450
I0
sS'block.thisRepN'
p451
I0
sg29
NsS'block.thisN'
p452
I0
sVRule
p453
(S'TIMES'
S'DECREASE'
S'HALF'
S'x'
S'y'
tp454
sg27
g28
sVLength
p455
I3
sVIntermediate
p456
(I4
I3
I9
tp457
sg21
I0
sg22
F6.2973300330340862
sg23
F4.1196034506428987
sVY
I3
sVX
I8
sVOperatorc
p458
Vhalf
p459
sg31
g32
sg33
g34
sg20
S'1'
sg19
S'space'
p460
sg30
g11
sVResult
p461
I9
sVOperatora
p462
Vdecrease
p463
sVCorrectResponse
p464
I9
sS'block.thisIndex'
p465
I4
sVOperatorb
p466
VTIMES
p467
sVOperatord
p468
I0
sVStructure
p469
VBUUxy
p470
sa(dp471
S'block.thisTrialN'
p472
I1
sS'block.thisRepN'
p473
I0
sg29
NsS'block.thisN'
p474
I1
sg453
(S'TRIPLE'
S'SUBTRACT'
S'DOUBLE'
S'DECREASE'
S'x'
S'y'
tp475
sg27
g28
sg455
I4
sg456
(I2
I4
I1
I3
tp476
sg21
I1
sg22
F14.558531012618914
sg23
F7.108850160613656
sVY
I3
sVX
I3
sg458
Vdouble
p477
sg31
g32
sg33
g34
sg20
S'3'
sg19
S'space'
p478
sg30
g11
sg461
I3
sg462
VSUBTRACT
p479
sg464
I3
sS'block.thisIndex'
p480
I13
sg466
Vtriple
p481
sg468
g463
sg469
VUBUUxy
p482
sa(dp483
S'block.thisTrialN'
p484
I2
sS'block.thisRepN'
p485
I0
sg29
NsS'block.thisN'
p486
I2
sg453
(S'TRIPLE'
S'HALF'
S'DIVIDE'
S'x'
S'y'
tp487
sg27
g28
sg455
I3
sg456
(I2
I1
I3
tp488
sg21
I1
sg22
F4.8310256239492446
sg23
F4.8387261934112757
sVY
I2
sVX
I4
sg458
VDIVIDE
p489
sg31
g32
sg33
g34
sg20
S'3'
sg19
S'space'
p490
sg30
g11
sg461
I3
sg462
g459
sg464
I3
sS'block.thisIndex'
p491
I9
sg466
g481
sg468
I0
sg469
VUUBxy
p492
sa(dp493
S'block.thisTrialN'
p494
I3
sS'block.thisRepN'
p495
I0
sg29
NsS'block.thisN'
p496
I3
sg453
(S'TRIPLE'
S'DECREASE'
S'HALF'
S'TIMES'
S'x'
S'y'
tp497
sg27
g28
sg455
I4
sg456
(I6
I3
I2
I6
tp498
sg21
I1
sg22
F18.756391273112968
sg23
F9.5876636204775423
sVY
I2
sVX
I3
sg458
g459
sg31
g32
sg33
g34
sg20
S'6'
sg19
S'space'
p499
sg30
g11
sg461
I6
sg462
g463
sg464
I6
sS'block.thisIndex'
p500
I17
sg466
g481
sg468
g467
sg469
VUUUBxy
p501
sa(dp502
S'block.thisTrialN'
p503
I4
sS'block.thisRepN'
p504
I0
sg29
NsS'block.thisN'
p505
I4
sg453
(S'TIMES'
S'DECREASE'
S'x'
S'y'
tp506
sg27
g28
sg455
I2
sg456
(I2
I4
tp507
sg21
I1
sg22
F2.1486191714648157
sg23
F1.4272059258073568
sVY
I2
sVX
I3
sg458
I0
sg31
g32
sg33
g34
sg20
S'4'
sg19
S'space'
p508
sg30
g11
sg461
I4
sg462
g463
sg464
I4
sS'block.thisIndex'
p509
I0
sg466
g467
sg468
I0
sg469
VBUxy
p510
sa(dp511
S'block.thisTrialN'
p512
I5
sS'block.thisRepN'
p513
I0
sg29
NsS'block.thisN'
p514
I5
sg453
(S'TIMES'
S'INCREASE'
S'x'
S'y'
tp515
sg27
g28
sg455
I2
sg456
(I3
I6
tp516
sg21
I1
sg22
F1.444698439212516
sg23
F1.4445570544339716
sVY
I2
sVX
I2
sg458
I0
sg31
g32
sg33
g34
sg20
S'6'
sg19
S'space'
p517
sg30
g11
sg461
I6
sg462
Vincrease
p518
sg464
I6
sS'block.thisIndex'
p519
I1
sg466
g467
sg468
I0
sg469
g510
sa(dp520
S'block.thisTrialN'
p521
I6
sS'block.thisRepN'
p522
I0
sg29
NsS'block.thisN'
p523
I6
sg453
(S'THIRD'
S'ADD'
S'INCREASE'
S'x'
S'y'
tp524
sg27
g28
sg455
I3
sg456
(I8
I15
I5
tp525
sg21
I1
sg22
F3.6175738445017487
sg23
F3.618530641309917
sVY
I7
sVX
I7
sg458
g518
sg31
g32
sg33
g34
sg20
S'5'
sg19
S'space'
p526
sg30
g11
sg461
I5
sg462
VADD
p527
sg464
I5
sS'block.thisIndex'
p528
I6
sg466
Vthird
p529
sg468
I0
sg469
VUBUxy
p530
sa(dp531
S'block.thisTrialN'
p532
I7
sS'block.thisRepN'
p533
I0
sg29
NsS'block.thisN'
p534
I7
sg453
(S'THIRD'
S'TIMES'
S'DECREASE'
S'x'
S'y'
tp535
sg27
g28
sg455
I3
sg456
(I3
I15
I5
tp536
sg21
I1
sg22
F6.4547245078720152
sg23
F4.7202020261902362
sVY
I5
sVX
I4
sg458
g463
sg31
g32
sg33
g34
sg20
S'5'
sg19
S'space'
p537
sg30
g11
sg461
I5
sg462
g467
sg464
I5
sS'block.thisIndex'
p538
I7
sg466
g529
sg468
I0
sg469
g530
sa(dp539
S'block.thisTrialN'
p540
I8
sS'block.thisRepN'
p541
I0
sg29
NsS'block.thisN'
p542
I8
sg453
(S'THIRD'
S'DOUBLE'
S'ADD'
S'INCREASE'
S'x'
S'y'
tp543
sg27
g28
sg455
I4
sg456
(I10
I12
I24
I8
tp544
sg21
I1
sg22
F6.0187642762903124
sg23
F5.638934840913862
sVY
I2
sVX
I9
sg458
g527
sg31
g32
sg33
g34
sg20
S'8'
sg19
S'space'
p545
sg30
g11
sg461
I8
sg462
g477
sg464
I8
sS'block.thisIndex'
p546
I14
sg466
g529
sg468
g518
sg469
VUUBUxy
p547
sa(dp548
S'block.thisTrialN'
p549
I9
sS'block.thisRepN'
p550
I0
sg29
NsS'block.thisN'
p551
I9
sg453
(S'TIMES'
S'THIRD'
S'HALF'
S'x'
S'y'
tp552
sg27
g28
sg455
I3
sg456
(I3
I1
I5
tp553
sg21
I1
sg22
F4.758415105054155
sg23
F1.8734875943046063
sVY
I5
sVX
I6
sg458
g459
sg31
g32
sg33
g34
sg20
S'5'
sg19
S'space'
p554
sg30
g11
sg461
I5
sg462
g529
sg464
I5
sS'block.thisIndex'
p555
I5
sg466
g467
sg468
I0
sg469
g470
sa(dp556
S'block.thisTrialN'
p557
I10
sS'block.thisRepN'
p558
I0
sg29
NsS'block.thisN'
p559
I10
sg453
(S'INCREASE'
S'DIVIDE'
S'TRIPLE'
S'DOUBLE'
S'x'
S'y'
tp560
sg27
g28
sg455
I4
sg456
(I6
I18
I3
I4
tp561
sg21
I1
sg22
F4.854544137371704
sg23
F2.5638647871091962
sVY
I6
sVX
I3
sg458
g481
sg31
g32
sg33
g34
sg20
S'4'
sg19
S'space'
p562
sg30
g11
sg461
I4
sg462
g489
sg464
I4
sS'block.thisIndex'
p563
I12
sg466
g518
sg468
g477
sg469
g482
sa(dp564
S'block.thisTrialN'
p565
I11
sS'block.thisRepN'
p566
I0
sg29
NsS'block.thisN'
p567
I11
sg453
(S'THIRD'
S'SUBTRACT'
S'x'
S'y'
tp568
sg27
g28
sg455
I2
sg456
(I3
I1
tp569
sg21
I1
sg22
F2.0849120421335101
sg23
F1.4441028034780174
sVY
I2
sVX
I5
sg458
I0
sg31
g32
sg33
g34
sg20
S'1'
sg19
S'space'
p570
sg30
g11
sg461
I1
sg462
g479
sg464
I1
sS'block.thisIndex'
p571
I3
sg466
g529
sg468
I0
sg469
VUBxy
p572
sa(dp573
S'block.thisTrialN'
p574
I12
sS'block.thisRepN'
p575
I0
sg29
NsS'block.thisN'
p576
I12
sg453
(S'TRIPLE'
S'HALF'
S'ADD'
S'DECREASE'
S'x'
S'y'
tp577
sg27
g28
sg455
I4
sg456
(I1
I4
I2
I6
tp578
sg21
I1
sg22
F8.1302598014008254
sg23
F6.2905341158621013
sVY
I3
sVX
I2
sg458
g527
sg31
g32
sg33
g34
sg20
S'6'
sg19
S'space'
p579
sg30
g11
sg461
I6
sg462
g459
sg464
I6
sS'block.thisIndex'
p580
I15
sg466
g481
sg468
g463
sg469
g547
sa(dp581
S'block.thisTrialN'
p582
I13
sS'block.thisRepN'
p583
I0
sg29
NsS'block.thisN'
p584
I13
sg453
(S'THIRD'
S'DECREASE'
S'TIMES'
S'x'
S'y'
tp585
sg27
g28
sg455
I3
sg456
(I25
I24
I8
tp586
sg21
I1
sg22
F8.22362728160806
sg23
F4.1744253882206976
sVY
I5
sVX
I5
sg458
g467
sg31
g32
sg33
g34
sg20
S'8'
sg19
S'space'
p587
sg30
g11
sg461
I8
sg462
g463
sg464
I8
sS'block.thisIndex'
p588
I8
sg466
g529
sg468
I0
sg469
g492
sa(dp589
S'block.thisTrialN'
p590
I14
sS'block.thisRepN'
p591
I0
sg29
NsS'block.thisN'
p592
I14
sg453
(S'SUBTRACT'
S'HALF'
S'INCREASE'
S'TRIPLE'
S'x'
S'y'
tp593
sg27
g28
sg455
I4
sg456
(I15
I16
I8
I3
tp594
sg21
I1
sg22
F12.55170184886083
sg23
F6.3550545573234558
sVY
I5
sVX
I5
sg458
g518
sg31
g32
sg33
g34
sg20
S'3'
sg19
S'space'
p595
sg30
g11
sg461
I3
sg462
g459
sg464
I3
sS'block.thisIndex'
p596
I10
sg466
g479
sg468
g481
sg469
VBUUUxy
p597
sa(dp598
S'block.thisTrialN'
p599
I15
sS'block.thisRepN'
p600
I0
sg29
NsS'block.thisN'
p601
I15
sg453
(S'THIRD'
S'ADD'
S'x'
S'y'
tp602
sg27
g28
sg455
I2
sg456
(I9
I3
tp603
sg21
I1
sg22
F1.6698946016840637
sg23
F1.6115607931278646
sVY
I5
sVX
I4
sg458
I0
sg31
g32
sg33
g34
sg20
S'3'
sg19
S'space'
p604
sg30
g11
sg461
I3
sg462
g527
sg464
I3
sS'block.thisIndex'
p605
I2
sg466
g529
sg468
I0
sg469
g572
sa(dp606
S'block.thisTrialN'
p607
I16
sS'block.thisRepN'
p608
I0
sg29
NsS'block.thisN'
p609
I16
sg453
(S'TIMES'
S'INCREASE'
S'THIRD'
S'DOUBLE'
S'x'
S'y'
tp610
sg27
g28
sg455
I4
sg456
(I6
I2
I3
I9
tp611
sg21
I0
sg22
F12.866954148979858
sg23
F6.7395314914174378
sVY
I3
sVX
I3
sg458
g529
sg31
g32
sg33
g34
sg20
S'8'
sg19
S'space'
p612
sg30
g11
sg461
I9
sg462
g518
sg464
I9
sS'block.thisIndex'
p613
I11
sg466
g467
sg468
g477
sg469
g597
sa(dp614
S'block.thisTrialN'
p615
I17
sS'block.thisRepN'
p616
I0
sg29
NsS'block.thisN'
p617
I17
sg453
(S'THIRD'
S'INCREASE'
S'HALF'
S'DIVIDE'
S'x'
S'y'
tp618
sg27
g28
sg455
I4
sg456
(I4
I2
I3
I1
tp619
sg21
I0
sg22
F13.90510738408193
sg23
F7.8967793323099613
sVY
I2
sVX
I8
sg458
g459
sg31
g32
sg33
g34
sg20
S'3'
sg19
S'space'
p620
sg30
g11
sg461
I1
sg462
g518
sg464
I1
sS'block.thisIndex'
p621
I16
sg466
g529
sg468
g489
sg469
g501
sa(dp622
S'block.thisTrialN'
p623
I0
sS'block.thisRepN'
p624
I0
sg29
NsS'block.thisN'
p625
I0
sVRule
p626
(S'THIRD'
S'INCREASE'
S'ADD'
S'DOUBLE'
S'x'
S'y'
tp627
sg27
g28
sVLength
p628
I4
sVIntermediate
p629
(I16
I20
I21
I7
tp630
sg21
I1
sg22
F13.777597236214206
sg23
F7.381894912570715
sVY
I4
sVX
I8
sVOperatorc
p631
VADD
p632
sg31
g32
sg33
g34
sg20
S'7'
sg19
S'space'
p633
sg30
g11
sVResult
p634
I7
sVOperatora
p635
Vincrease
p636
sVCorrectResponse
p637
I7
sS'block.thisIndex'
p638
I14
sVOperatorb
p639
Vthird
p640
sVOperatord
p641
Vdouble
p642
sVStructure
p643
VUUBUxy
p644
sa(dp645
S'block.thisTrialN'
p646
I1
sS'block.thisRepN'
p647
I0
sg29
NsS'block.thisN'
p648
I1
sg626
(S'INCREASE'
S'ADD'
S'TRIPLE'
S'x'
S'y'
tp649
sg27
g28
sg628
I3
sg629
(I6
I8
I9
tp650
sg21
I0
sg22
F4.3043012809939682
sVY
I2
sVX
I2
sg631
Vtriple
p651
sg31
g32
sg33
g34
sg20
Nsg19
S'space'
p652
sg30
g11
sg634
I9
sg635
g632
sg637
I9
sS'block.thisIndex'
p653
I6
sg639
g636
sg641
I0
sg643
VUBUxy
p654
sa(dp655
S'block.thisTrialN'
p656
I2
sS'block.thisRepN'
p657
I0
sg29
NsS'block.thisN'
p658
I2
sg626
(S'DIVIDE'
S'TRIPLE'
S'HALF'
S'x'
S'y'
tp659
sg27
g28
sg628
I3
sg629
(I4
I12
I4
tp660
sg21
I1
sg22
F7.0961668284144253
sg23
F6.466041587293148
sVY
I3
sVX
I8
sg631
Vhalf
p661
sg31
g32
sg33
g34
sg20
S'4'
sg19
S'space'
p662
sg30
g11
sg634
I4
sg635
g651
sg637
I4
sS'block.thisIndex'
p663
I4
sg639
VDIVIDE
p664
sg641
I0
sg643
VBUUxy
p665
sa(dp666
S'block.thisTrialN'
p667
I3
sS'block.thisRepN'
p668
I0
sg29
NsS'block.thisN'
p669
I3
sg626
(S'DIVIDE'
S'DOUBLE'
S'INCREASE'
S'THIRD'
S'x'
S'y'
tp670
sg27
g28
sg628
I4
sg629
(I2
I3
I6
I2
tp671
sg21
I0
sg22
F19.123247257899493
sVY
I3
sVX
I6
sg631
g636
sg31
g32
sg33
g34
sg20
Nsg19
S'space'
p672
sg30
g11
sg634
I2
sg635
g642
sg637
I2
sS'block.thisIndex'
p673
I10
sg639
g664
sg641
g640
sg643
VBUUUxy
p674
sa(dp675
S'block.thisTrialN'
p676
I4
sS'block.thisRepN'
p677
I0
sg29
NsS'block.thisN'
p678
I4
sg626
(S'THIRD'
S'TIMES'
S'HALF'
S'INCREASE'
S'x'
S'y'
tp679
sg27
g28
sg628
I4
sg629
(I8
I4
I12
I4
tp680
sg21
I1
sg22
F15.543480885680765
sg23
F9.1692938916385174
sVY
I3
sVX
I7
sg631
g661
sg31
g32
sg33
g34
sg20
S'4'
sg19
S'space'
p681
sg30
g11
sg634
I4
sg635
VTIMES
p682
sg637
I4
sS'block.thisIndex'
p683
I13
sg639
g640
sg641
g636
sg643
VUBUUxy
p684
sa(dp685
S'block.thisTrialN'
p686
I5
sS'block.thisRepN'
p687
I0
sg29
NsS'block.thisN'
p688
I5
sg626
(S'TRIPLE'
S'DECREASE'
S'HALF'
S'SUBTRACT'
S'x'
S'y'
tp689
sg27
g28
sg628
I4
sg629
(I4
I2
I1
I3
tp690
sg21
I1
sg22
F14.464597293175757
sg23
F7.1412258688360453
sVY
I5
sVX
I9
sg631
g661
sg31
g32
sg33
g34
sg20
S'3'
sg19
S'space'
p691
sg30
g11
sg634
I3
sg635
Vdecrease
p692
sg637
I3
sS'block.thisIndex'
p693
I17
sg639
g651
sg641
VSUBTRACT
p694
sg643
VUUUBxy
p695
sa(dp696
S'block.thisTrialN'
p697
I6
sS'block.thisRepN'
p698
I0
sg29
NsS'block.thisN'
p699
I6
sg626
(S'THIRD'
S'INCREASE'
S'SUBTRACT'
S'x'
S'y'
tp700
sg27
g28
sg628
I3
sg629
(I2
I3
I1
tp701
sg21
I1
sg22
F4.7748752296902239
sg23
F2.8323278333991766
sVY
I6
sVX
I8
sg631
g694
sg31
g32
sg33
g34
sg20
S'1'
sg19
S'space'
p702
sg30
g11
sg634
I1
sg635
g636
sg637
I1
sS'block.thisIndex'
p703
I9
sg639
g640
sg641
I0
sg643
VUUBxy
p704
sa(dp705
S'block.thisTrialN'
p706
I7
sS'block.thisRepN'
p707
I0
sg29
NsS'block.thisN'
p708
I7
sg626
(S'INCREASE'
S'DIVIDE'
S'TRIPLE'
S'HALF'
S'x'
S'y'
tp709
sg27
g28
sg628
I4
sg629
(I2
I6
I2
I3
tp710
sg21
I1
sg22
F9.4799833837896585
sg23
F8.752237921115011
sVY
I3
sVX
I4
sg631
g651
sg31
g32
sg33
g34
sg20
S'3'
sg19
S'space'
p711
sg30
g11
sg634
I3
sg635
g664
sg637
I3
sS'block.thisIndex'
p712
I12
sg639
g636
sg641
g661
sg643
g684
sa(dp713
S'block.thisTrialN'
p714
I8
sS'block.thisRepN'
p715
I0
sg29
NsS'block.thisN'
p716
I8
sg626
(S'TIMES'
S'THIRD'
S'DOUBLE'
S'x'
S'y'
tp717
sg27
g28
sg628
I3
sg629
(I6
I2
I4
tp718
sg21
I1
sg22
F8.0533860423602164
sg23
F3.8092411733232439
sVY
I2
sVX
I3
sg631
g642
sg31
g32
sg33
g34
sg20
S'4'
sg19
S'space'
p719
sg30
g11
sg634
I4
sg635
g640
sg637
I4
sS'block.thisIndex'
p720
I5
sg639
g682
sg641
I0
sg643
g665
sa(dp721
S'block.thisTrialN'
p722
I9
sS'block.thisRepN'
p723
I0
sg29
NsS'block.thisN'
p724
I9
sg626
(S'ADD'
S'THIRD'
S'x'
S'y'
tp725
sg27
g28
sg628
I2
sg629
(I1
I7
tp726
sg21
I1
sg22
F2.2320442239288241
sg23
F1.5706019105855376
sVY
I6
sVX
I3
sg631
I0
sg31
g32
sg33
g34
sg20
S'7'
sg19
S'space'
p727
sg30
g11
sg634
I7
sg635
g640
sg637
I7
sS'block.thisIndex'
p728
I0
sg639
g632
sg641
I0
sg643
VBUxy
p729
sa(dp730
S'block.thisTrialN'
p731
I10
sS'block.thisRepN'
p732
I0
sg29
NsS'block.thisN'
p733
I10
sg626
(S'TRIPLE'
S'DOUBLE'
S'SUBTRACT'
S'DECREASE'
S'x'
S'y'
tp734
sg27
g28
sg628
I4
sg629
(I4
I1
I2
I6
tp735
sg21
I1
sg22
F11.327475781552494
sg23
F3.4195337034761906
sVY
I3
sVX
I5
sg631
g694
sg31
g32
sg33
g34
sg20
S'6'
sg19
S'space'
p736
sg30
g11
sg634
I6
sg635
g642
sg637
I6
sS'block.thisIndex'
p737
I15
sg639
g651
sg641
g692
sg643
g644
sa(dp738
S'block.thisTrialN'
p739
I11
sS'block.thisRepN'
p740
I0
sg29
NsS'block.thisN'
p741
I11
sg626
(S'DECREASE'
S'TRIPLE'
S'HALF'
S'ADD'
S'x'
S'y'
tp742
sg27
g28
sg628
I4
sg629
(I6
I3
I9
I8
tp743
sg21
I1
sg22
F12.516398006584495
sg23
F6.3680269583128393
sVY
I2
sVX
I4
sg631
g661
sg31
g32
sg33
g34
sg20
S'8'
sg19
S'space'
p744
sg30
g11
sg634
I8
sg635
g651
sg637
I8
sS'block.thisIndex'
p745
I16
sg639
g692
sg641
g632
sg643
g695
sa(dp746
S'block.thisTrialN'
p747
I12
sS'block.thisRepN'
p748
I0
sg29
NsS'block.thisN'
p749
I12
sg626
(S'DECREASE'
S'TRIPLE'
S'DIVIDE'
S'x'
S'y'
tp750
sg27
g28
sg628
I3
sg629
(I2
I6
I5
tp751
sg21
I1
sg22
F5.3827743676956743
sg23
F5.9238667609170079
sVY
I4
sVX
I8
sg631
g664
sg31
g32
sg33
g34
sg20
S'5'
sg19
S'space'
p752
sg30
g11
sg634
I5
sg635
g651
sg637
I5
sS'block.thisIndex'
p753
I8
sg639
g692
sg641
I0
sg643
g704
sa(dp754
S'block.thisTrialN'
p755
I13
sS'block.thisRepN'
p756
I0
sg29
NsS'block.thisN'
p757
I13
sg626
(S'INCREASE'
S'SUBTRACT'
S'THIRD'
S'x'
S'y'
tp758
sg27
g28
sg628
I3
sg629
(I3
I1
I2
tp759
sg21
I1
sg22
F12.391770497430116
sg23
F4.4821919957175851
sVY
I2
sVX
I9
sg631
g640
sg31
g32
sg33
g34
sg20
S'2'
sg19
S'space'
p760
sg30
g11
sg634
I2
sg635
g694
sg637
I2
sS'block.thisIndex'
p761
I7
sg639
g636
sg641
I0
sg643
g654
sa(dp762
S'block.thisTrialN'
p763
I14
sS'block.thisRepN'
p764
I0
sg29
NsS'block.thisN'
p765
I14
sg626
(S'SUBTRACT'
S'INCREASE'
S'x'
S'y'
tp766
sg27
g28
sg628
I2
sg629
(I6
I2
tp767
sg21
I1
sg22
F2.9611790366470814
sg23
F1.7946040017995983
sVY
I4
sVX
I5
sg631
I0
sg31
g32
sg33
g34
sg20
S'2'
sg19
S'space'
p768
sg30
g11
sg634
I2
sg635
g636
sg637
I2
sS'block.thisIndex'
p769
I1
sg639
g694
sg641
I0
sg643
g729
sa(dp770
S'block.thisTrialN'
p771
I15
sS'block.thisRepN'
p772
I0
sg29
NsS'block.thisN'
p773
I15
sg626
(S'DOUBLE'
S'ADD'
S'x'
S'y'
tp774
sg27
g28
sg628
I2
sg629
(I4
I8
tp775
sg21
I1
sg22
F1.6707383610773832
sg23
F2.5655257080215961
sVY
I2
sVX
I2
sg631
I0
sg31
g32
sg33
g34
sg20
S'8'
sg19
S'space'
p776
sg30
g11
sg634
I8
sg635
g632
sg637
I8
sS'block.thisIndex'
p777
I2
sg639
g642
sg641
I0
sg643
VUBxy
p778
sa(dp779
S'block.thisTrialN'
p780
I16
sS'block.thisRepN'
p781
I0
sg29
NsS'block.thisN'
p782
I16
sg626
(S'TIMES'
S'INCREASE'
S'HALF'
S'TRIPLE'
S'x'
S'y'
tp783
sg27
g28
sg628
I4
sg629
(I6
I3
I4
I8
tp784
sg21
I1
sg22
F13.123334048315883
sg23
F6.2307000190485269
sVY
I2
sVX
I2
sg631
g661
sg31
g32
sg33
g34
sg20
S'8'
sg19
S'space'
p785
sg30
g11
sg634
I8
sg635
g636
sg637
I8
sS'block.thisIndex'
p786
I11
sg639
g682
sg641
g651
sg643
g674
sa(dp787
S'block.thisTrialN'
p788
I17
sS'block.thisRepN'
p789
I0
sg29
NsS'block.thisN'
p790
I17
sg626
(S'DOUBLE'
S'TIMES'
S'x'
S'y'
tp791
sg27
g28
sg628
I2
sg629
(I4
I8
tp792
sg21
I1
sg22
F1.7791080232709646
sg23
F1.5578401871025562
sVY
I2
sVX
I2
sg631
I0
sg31
g32
sg33
g34
sg20
S'8'
sg19
S'space'
p793
sg30
g11
sg634
I8
sg635
g682
sg637
I8
sS'block.thisIndex'
p794
I3
sg639
g642
sg641
I0
sg643
g778
sa(dp795
S'block.thisTrialN'
p796
I0
sS'block.thisRepN'
p797
I0
sg29
NsS'block.thisN'
p798
I0
sVRule
p799
(S'DECREASE'
S'SUBTRACT'
S'DOUBLE'
S'THIRD'
S'x'
S'y'
tp800
sg27
g28
sVLength
p801
I4
sVIntermediate
p802
(I3
I6
I4
I3
tp803
sg21
I1
sg22
F15.181556219235063
sg23
F5.4399606501683593
sVY
I2
sVX
I9
sVOperatorc
p804
Vdouble
p805
sg31
g32
sg33
g34
sg20
S'3'
sg19
S'space'
p806
sg30
g11
sVResult
p807
I3
sVOperatora
p808
VSUBTRACT
p809
sVCorrectResponse
p810
I3
sS'block.thisIndex'
p811
I13
sVOperatorb
p812
Vdecrease
p813
sVOperatord
p814
Vthird
p815
sVStructure
p816
VUBUUxy
p817
sa(dp818
S'block.thisTrialN'
p819
I1
sS'block.thisRepN'
p820
I0
sg29
NsS'block.thisN'
p821
I1
sg799
(S'ADD'
S'DOUBLE'
S'DECREASE'
S'x'
S'y'
tp822
sg27
g28
sg801
I3
sg802
(I1
I2
I7
tp823
sg21
I1
sg22
F2.5465728021226823
sg23
F3.7972255693748593
sVY
I5
sVX
I2
sg804
g813
sg31
g32
sg33
g34
sg20
S'7'
sg19
S'space'
p824
sg30
g11
sg807
I7
sg808
g805
sg810
I7
sS'block.thisIndex'
p825
I4
sg812
VADD
p826
sg814
I0
sg816
VBUUxy
p827
sa(dp828
S'block.thisTrialN'
p829
I2
sS'block.thisRepN'
p830
I0
sg29
NsS'block.thisN'
p831
I2
sg799
(S'HALF'
S'INCREASE'
S'TIMES'
S'x'
S'y'
tp832
sg27
g28
sg801
I3
sg802
(I9
I10
I5
tp833
sg21
I1
sg22
F7.2699941310565919
sg23
F3.6017153051216155
sVY
I3
sVX
I3
sg804
VTIMES
p834
sg31
g32
sg33
g34
sg20
S'5'
sg19
S'space'
p835
sg30
g11
sg807
I5
sg808
Vincrease
p836
sg810
I5
sS'block.thisIndex'
p837
I9
sg812
Vhalf
p838
sg814
I0
sg816
VUUBxy
p839
sa(dp840
S'block.thisTrialN'
p841
I3
sS'block.thisRepN'
p842
I0
sg29
NsS'block.thisN'
p843
I3
sg799
(S'ADD'
S'DECREASE'
S'THIRD'
S'DOUBLE'
S'x'
S'y'
tp844
sg27
g28
sg801
I4
sg802
(I18
I6
I5
I9
tp845
sg21
I1
sg22
F17.81187428929843
sg23
F11.817963632522151
sVY
I4
sVX
I9
sg804
g815
sg31
g32
sg33
g34
sg20
S'9'
sg19
S'space'
p846
sg30
g11
sg807
I9
sg808
g813
sg810
I9
sS'block.thisIndex'
p847
I10
sg812
g826
sg814
g805
sg816
VBUUUxy
p848
sa(dp849
S'block.thisTrialN'
p850
I4
sS'block.thisRepN'
p851
I0
sg29
NsS'block.thisN'
p852
I4
sg799
(S'ADD'
S'DECREASE'
S'x'
S'y'
tp853
sg27
g28
sg801
I2
sg802
(I2
I7
tp854
sg21
I1
sg22
F3.712644241284579
sg23
F1.4622892921324819
sVY
I5
sVX
I3
sg804
I0
sg31
g32
sg33
g34
sg20
S'7'
sg19
S'space'
p855
sg30
g11
sg807
I7
sg808
g813
sg810
I7
sS'block.thisIndex'
p856
I0
sg812
g826
sg814
I0
sg816
VBUxy
p857
sa(dp858
S'block.thisTrialN'
p859
I5
sS'block.thisRepN'
p860
I0
sg29
NsS'block.thisN'
p861
I5
sg799
(S'DOUBLE'
S'SUBTRACT'
S'INCREASE'
S'x'
S'y'
tp862
sg27
g28
sg801
I3
sg802
(I4
I1
I2
tp863
sg21
I1
sg22
F9.934620751067996
sg23
F3.6542775360867381
sVY
I3
sVX
I3
sg804
g836
sg31
g32
sg33
g34
sg20
S'2'
sg19
S'space'
p864
sg30
g11
sg807
I2
sg808
g809
sg810
I2
sS'block.thisIndex'
p865
I6
sg812
g805
sg814
I0
sg816
VUBUxy
p866
sa(dp867
S'block.thisTrialN'
p868
I6
sS'block.thisRepN'
p869
I0
sg29
NsS'block.thisN'
p870
I6
sg799
(S'DIVIDE'
S'DECREASE'
S'x'
S'y'
tp871
sg27
g28
sg801
I2
sg802
(I8
I2
tp872
sg21
I1
sg22
F3.2185468797106296
sg23
F1.8897244432009757
sVY
I4
sVX
I9
sg804
I0
sg31
g32
sg33
g34
sg20
S'2'
sg19
S'space'
p873
sg30
g11
sg807
I2
sg808
g813
sg810
I2
sS'block.thisIndex'
p874
I1
sg812
VDIVIDE
p875
sg814
I0
sg816
g857
sa(dp876
S'block.thisTrialN'
p877
I7
sS'block.thisRepN'
p878
I0
sg29
NsS'block.thisN'
p879
I7
sg799
(S'INCREASE'
S'HALF'
S'THIRD'
S'TIMES'
S'x'
S'y'
tp880
sg27
g28
sg801
I4
sg802
(I12
I4
I2
I3
tp881
sg21
I1
sg22
F11.475254693767056
sg23
F2.4260206036269665
sVY
I4
sVX
I3
sg804
g815
sg31
g32
sg33
g34
sg20
S'3'
sg19
S'space'
p882
sg30
g11
sg807
I3
sg808
g838
sg810
I3
sS'block.thisIndex'
p883
I16
sg812
g836
sg814
g834
sg816
VUUUBxy
p884
sa(dp885
S'block.thisTrialN'
p886
I8
sS'block.thisRepN'
p887
I0
sg29
NsS'block.thisN'
p888
I8
sg799
(S'DECREASE'
S'ADD'
S'THIRD'
S'HALF'
S'x'
S'y'
tp889
sg27
g28
sg801
I4
sg802
(I3
I1
I7
I6
tp890
sg21
I1
sg22
F3.9026132030412555
sg23
F3.4123976228293031
sVY
I6
sVX
I6
sg804
g815
sg31
g32
sg33
g34
sg20
S'6'
sg19
S'space'
p891
sg30
g11
sg807
I6
sg808
g826
sg810
I6
sS'block.thisIndex'
p892
I12
sg812
g813
sg814
g838
sg816
g817
sa(dp893
S'block.thisTrialN'
p894
I9
sS'block.thisRepN'
p895
I0
sg29
NsS'block.thisN'
p896
I9
sg799
(S'THIRD'
S'HALF'
S'INCREASE'
S'SUBTRACT'
S'x'
S'y'
tp897
sg27
g28
sg801
I4
sg802
(I5
I6
I3
I1
tp898
sg21
I1
sg22
F6.2437123155687004
sg23
F3.2854880101513118
sVY
I2
sVX
I7
sg804
g836
sg31
g32
sg33
g34
sg20
S'1'
sg19
S'space'
p899
sg30
g11
sg807
I1
sg808
g838
sg810
I1
sS'block.thisIndex'
p900
I17
sg812
g815
sg814
g809
sg816
g884
sa(dp901
S'block.thisTrialN'
p902
I10
sS'block.thisRepN'
p903
I0
sg29
NsS'block.thisN'
p904
I10
sg799
(S'DECREASE'
S'DOUBLE'
S'TIMES'
S'THIRD'
S'x'
S'y'
tp905
sg27
g28
sg801
I4
sg802
(I1
I3
I6
I5
tp906
sg21
I1
sg22
F15.203573394566774
sg23
F12.949090990703553
sVY
I3
sVX
I3
sg804
g834
sg31
g32
sg33
g34
sg20
S'5'
sg19
S'space'
p907
sg30
g11
sg807
I5
sg808
g805
sg810
I5
sS'block.thisIndex'
p908
I14
sg812
g813
sg814
g815
sg816
VUUBUxy
p909
sa(dp910
S'block.thisTrialN'
p911
I11
sS'block.thisRepN'
p912
I0
sg29
NsS'block.thisN'
p913
I11
sg799
(S'HALF'
S'ADD'
S'x'
S'y'
tp914
sg27
g28
sg801
I2
sg802
(I12
I6
tp915
sg21
I1
sg22
F1.4706988851539791
sg23
F1.8614674408454448
sVY
I8
sVX
I4
sg804
I0
sg31
g32
sg33
g34
sg20
S'6'
sg19
S'space'
p916
sg30
g11
sg807
I6
sg808
g826
sg810
I6
sS'block.thisIndex'
p917
I3
sg812
g838
sg814
I0
sg816
VUBxy
p918
sa(dp919
S'block.thisTrialN'
p920
I12
sS'block.thisRepN'
p921
I0
sg29
NsS'block.thisN'
p922
I12
sg799
(S'INCREASE'
S'ADD'
S'HALF'
S'x'
S'y'
tp923
sg27
g28
sg801
I3
sg802
(I1
I4
I5
tp924
sg21
I1
sg22
F3.2938738057855517
sg23
F3.7754537172149867
sVY
I3
sVX
I2
sg804
g838
sg31
g32
sg33
g34
sg20
S'5'
sg19
S'space'
p925
sg30
g11
sg807
I5
sg808
g826
sg810
I5
sS'block.thisIndex'
p926
I7
sg812
g836
sg814
I0
sg816
g866
sa(dp927
S'block.thisTrialN'
p928
I13
sS'block.thisRepN'
p929
I0
sg29
NsS'block.thisN'
p930
I13
sg799
(S'ADD'
S'TRIPLE'
S'DOUBLE'
S'DECREASE'
S'x'
S'y'
tp931
sg27
g28
sg801
I4
sg802
(I1
I2
I6
I8
tp932
sg21
I1
sg22
F6.9162830789573491
sg23
F2.2790767017286271
sVY
I2
sVX
I2
sg804
g805
sg31
g32
sg33
g34
sg20
S'8'
sg19
S'space'
p933
sg30
g11
sg807
I8
sg808
Vtriple
p934
sg810
I8
sS'block.thisIndex'
p935
I11
sg812
g826
sg814
g813
sg816
g848
sa(dp936
S'block.thisTrialN'
p937
I14
sS'block.thisRepN'
p938
I0
sg29
NsS'block.thisN'
p939
I14
sg799
(S'DECREASE'
S'TIMES'
S'x'
S'y'
tp940
sg27
g28
sg801
I2
sg802
(I9
I8
tp941
sg21
I1
sg22
F1.8287372207269073
sg23
F1.3124256548471749
sVY
I3
sVX
I3
sg804
I0
sg31
g32
sg33
g34
sg20
S'8'
sg19
S'space'
p942
sg30
g11
sg807
I8
sg808
g834
sg810
I8
sS'block.thisIndex'
p943
I2
sg812
g813
sg814
I0
sg816
g918
sa(dp944
S'block.thisTrialN'
p945
I15
sS'block.thisRepN'
p946
I0
sg29
NsS'block.thisN'
p947
I15
sg799
(S'DECREASE'
S'TRIPLE'
S'SUBTRACT'
S'DOUBLE'
S'x'
S'y'
tp948
sg27
g28
sg801
I4
sg802
(I6
I3
I9
I8
tp949
sg21
I1
sg22
F13.697949326131493
sg23
F4.4693014859221876
sVY
I3
sVX
I3
sg804
g809
sg31
g32
sg33
g34
sg20
S'8'
sg19
S'space'
p950
sg30
g11
sg807
I8
sg808
g934
sg810
I8
sS'block.thisIndex'
p951
I15
sg812
g813
sg814
g805
sg816
g909
sa(dp952
S'block.thisTrialN'
p953
I16
sS'block.thisRepN'
p954
I0
sg29
NsS'block.thisN'
p955
I16
sg799
(S'DOUBLE'
S'THIRD'
S'ADD'
S'x'
S'y'
tp956
sg27
g28
sg801
I3
sg802
(I9
I3
I6
tp957
sg21
I1
sg22
F3.3622406823560596
sg23
F2.8335722992196679
sVY
I4
sVX
I5
sg804
g826
sg31
g32
sg33
g34
sg20
S'6'
sg19
S'space'
p958
sg30
g11
sg807
I6
sg808
g815
sg810
I6
sS'block.thisIndex'
p959
I8
sg812
g805
sg814
I0
sg816
g839
sa(dp960
S'block.thisTrialN'
p961
I17
sS'block.thisRepN'
p962
I0
sg29
NsS'block.thisN'
p963
I17
sg799
(S'ADD'
S'TRIPLE'
S'HALF'
S'x'
S'y'
tp964
sg27
g28
sg801
I3
sg802
(I2
I6
I8
tp965
sg21
I1
sg22
F3.3475611654575914
sg23
F4.3913603418041021
sVY
I2
sVX
I4
sg804
g838
sg31
g32
sg33
g34
sg20
S'8'
sg19
S'space'
p966
sg30
g11
sg807
I8
sg808
g934
sg810
I8
sS'block.thisIndex'
p967
I5
sg812
g826
sg814
I0
sg816
g827
sa(dp968
S'block.thisTrialN'
p969
I0
sS'block.thisRepN'
p970
I0
sg29
NsS'block.thisN'
p971
I0
sVRule
p972
(S'DOUBLE'
S'THIRD'
S'TIMES'
S'x'
S'y'
tp973
sg27
g28
sVLength
p974
I3
sVIntermediate
p975
(I12
I4
I8
tp976
sg21
I1
sg22
F5.3067384182941169
sg23
F3.5410514476243407
sVY
I6
sVX
I2
sVOperatorc
p977
VTIMES
p978
sg31
g32
sg33
g34
sg20
S'8'
sg19
S'space'
p979
sg30
g11
sVResult
p980
I8
sVOperatora
p981
Vthird
p982
sVCorrectResponse
p983
I8
sS'block.thisIndex'
p984
I9
sVOperatorb
p985
Vdouble
p986
sVOperatord
p987
I0
sVStructure
p988
VUUBxy
p989
sa(dp990
S'block.thisTrialN'
p991
I1
sS'block.thisRepN'
p992
I0
sg29
NsS'block.thisN'
p993
I1
sg972
(S'TIMES'
S'HALF'
S'INCREASE'
S'x'
S'y'
tp994
sg27
g28
sg974
I3
sg975
(I6
I3
I9
tp995
sg21
I1
sg22
F6.389084187336266
sg23
F2.3880909944418818
sVY
I3
sVX
I5
sg977
Vincrease
p996
sg31
g32
sg33
g34
sg20
S'9'
sg19
S'space'
p997
sg30
g11
sg980
I9
sg981
Vhalf
p998
sg983
I9
sS'block.thisIndex'
p999
I5
sg985
g978
sg987
I0
sg988
VBUUxy
p1000
sa(dp1001
S'block.thisTrialN'
p1002
I2
sS'block.thisRepN'
p1003
I0
sg29
NsS'block.thisN'
p1004
I2
sg972
(S'SUBTRACT'
S'DOUBLE'
S'TRIPLE'
S'DECREASE'
S'x'
S'y'
tp1005
sg27
g28
sg974
I4
sg975
(I2
I6
I12
I8
tp1006
sg21
I1
sg22
F6.3686862871982157
sg23
F3.4767007378395647
sVY
I4
sVX
I3
sg977
Vtriple
p1007
sg31
g32
sg33
g34
sg20
S'8'
sg19
S'space'
p1008
sg30
g11
sg980
I8
sg981
g986
sg983
I8
sS'block.thisIndex'
p1009
I10
sg985
VSUBTRACT
p1010
sg987
Vdecrease
p1011
sg988
VBUUUxy
p1012
sa(dp1013
S'block.thisTrialN'
p1014
I3
sS'block.thisRepN'
p1015
I0
sg29
NsS'block.thisN'
p1016
I3
sg972
(S'HALF'
S'TRIPLE'
S'INCREASE'
S'SUBTRACT'
S'x'
S'y'
tp1017
sg27
g28
sg974
I4
sg975
(I1
I2
I6
I3
tp1018
sg21
I1
sg22
F8.7877541908528656
sg23
F4.5179899849463254
sVY
I2
sVX
I3
sg977
g996
sg31
g32
sg33
g34
sg20
S'3'
sg19
S'space'
p1019
sg30
g11
sg980
I3
sg981
g1007
sg983
I3
sS'block.thisIndex'
p1020
I17
sg985
g998
sg987
g1010
sg988
VUUUBxy
p1021
sa(dp1022
S'block.thisTrialN'
p1023
I4
sS'block.thisRepN'
p1024
I0
sg29
NsS'block.thisN'
p1025
I4
sg972
(S'THIRD'
S'DIVIDE'
S'x'
S'y'
tp1026
sg27
g28
sg974
I2
sg975
(I3
I1
tp1027
sg21
I1
sg22
F1.7936521046794951
sg23
F1.2971638008020818
sVY
I2
sVX
I6
sg977
I0
sg31
g32
sg33
g34
sg20
S'1'
sg19
S'space'
p1028
sg30
g11
sg980
I1
sg981
VDIVIDE
p1029
sg983
I1
sS'block.thisIndex'
p1030
I3
sg985
g982
sg987
I0
sg988
VUBxy
p1031
sa(dp1032
S'block.thisTrialN'
p1033
I5
sS'block.thisRepN'
p1034
I0
sg29
NsS'block.thisN'
p1035
I5
sg972
(S'INCREASE'
S'ADD'
S'HALF'
S'TRIPLE'
S'x'
S'y'
tp1036
sg27
g28
sg974
I4
sg975
(I6
I3
I6
I7
tp1037
sg21
I1
sg22
F6.5198500342667103
sg23
F9.9260872716549784
sVY
I3
sVX
I2
sg977
g998
sg31
g32
sg33
g34
sg20
S'7'
sg19
S'space'
p1038
sg30
g11
sg980
I7
sg981
VADD
p1039
sg983
I7
sS'block.thisIndex'
p1040
I13
sg985
g996
sg987
g1007
sg988
VUBUUxy
p1041
sa(dp1042
S'block.thisTrialN'
p1043
I6
sS'block.thisRepN'
p1044
I0
sg29
NsS'block.thisN'
p1045
I6
sg972
(S'THIRD'
S'TIMES'
S'HALF'
S'x'
S'y'
tp1046
sg27
g28
sg974
I3
sg975
(I3
I18
I6
tp1047
sg21
I1
sg22
F3.8610436364542693
sg23
F12.873387155123055
sVY
I6
sVX
I6
sg977
g998
sg31
g32
sg33
g34
sg20
S'6'
sg19
S'space'
p1048
sg30
g11
sg980
I6
sg981
g978
sg983
I6
sS'block.thisIndex'
p1049
I7
sg985
g982
sg987
I0
sg988
VUBUxy
p1050
sa(dp1051
S'block.thisTrialN'
p1052
I7
sS'block.thisRepN'
p1053
I0
sg29
NsS'block.thisN'
p1054
I7
sg972
(S'DIVIDE'
S'THIRD'
S'x'
S'y'
tp1055
sg27
g28
sg974
I2
sg975
(I3
I1
tp1056
sg21
I1
sg22
F2.1269673567730933
sg23
F2.2628006569575518
sVY
I3
sVX
I9
sg977
I0
sg31
g32
sg33
g34
sg20
S'1'
sg19
S'space'
p1057
sg30
g11
sg980
I1
sg981
g982
sg983
I1
sS'block.thisIndex'
p1058
I0
sg985
g1029
sg987
I0
sg988
VBUxy
p1059
sa(dp1060
S'block.thisTrialN'
p1061
I8
sS'block.thisRepN'
p1062
I0
sg29
NsS'block.thisN'
p1063
I8
sg972
(S'DOUBLE'
S'DECREASE'
S'ADD'
S'x'
S'y'
tp1064
sg27
g28
sg974
I3
sg975
(I4
I3
I6
tp1065
sg21
I1
sg22
F4.9928709189407527
sg23
F3.002817896194756
sVY
I2
sVX
I2
sg977
g1039
sg31
g32
sg33
g34
sg20
S'6'
sg19
S'space'
p1066
sg30
g11
sg980
I6
sg981
g1011
sg983
I6
sS'block.thisIndex'
p1067
I8
sg985
g986
sg987
I0
sg988
g989
sa(dp1068
S'block.thisTrialN'
p1069
I9
sS'block.thisRepN'
p1070
I0
sg29
NsS'block.thisN'
p1071
I9
sg972
(S'TIMES'
S'DOUBLE'
S'x'
S'y'
tp1072
sg27
g28
sg974
I2
sg975
(I4
I8
tp1073
sg21
I1
sg22
F2.7536773160099983
sg23
F4.1304883270058781
sVY
I2
sVX
I2
sg977
I0
sg31
g32
sg33
g34
sg20
S'8'
sg19
S'space'
p1074
sg30
g11
sg980
I8
sg981
g986
sg983
I8
sS'block.thisIndex'
p1075
I1
sg985
g978
sg987
I0
sg988
g1059
sa(dp1076
S'block.thisTrialN'
p1077
I10
sS'block.thisRepN'
p1078
I0
sg29
NsS'block.thisN'
p1079
I10
sg972
(S'DECREASE'
S'TRIPLE'
S'HALF'
S'SUBTRACT'
S'x'
S'y'
tp1080
sg27
g28
sg974
I4
sg975
(I4
I2
I6
I5
tp1081
sg21
I1
sg22
F12.274599634576589
sg23
F6.2474600614514202
sVY
I2
sVX
I6
sg977
g998
sg31
g32
sg33
g34
sg20
S'5'
sg19
S'space'
p1082
sg30
g11
sg980
I5
sg981
g1007
sg983
I5
sS'block.thisIndex'
p1083
I16
sg985
g1011
sg987
g1010
sg988
g1021
sa(dp1084
S'block.thisTrialN'
p1085
I11
sS'block.thisRepN'
p1086
I0
sg29
NsS'block.thisN'
p1087
I11
sg972
(S'INCREASE'
S'SUBTRACT'
S'x'
S'y'
tp1088
sg27
g28
sg974
I2
sg975
(I3
I4
tp1089
sg21
I1
sg22
F1.7419588295742869
sg23
F1.4931986583396792
sVY
I3
sVX
I6
sg977
I0
sg31
g32
sg33
g34
sg20
S'4'
sg19
S'space'
p1090
sg30
g11
sg980
I4
sg981
g1010
sg983
I4
sS'block.thisIndex'
p1091
I2
sg985
g996
sg987
I0
sg988
g1031
sa(dp1092
S'block.thisTrialN'
p1093
I12
sS'block.thisRepN'
p1094
I0
sg29
NsS'block.thisN'
p1095
I12
sg972
(S'THIRD'
S'DIVIDE'
S'DECREASE'
S'x'
S'y'
tp1096
sg27
g28
sg974
I3
sg975
(I6
I3
I1
tp1097
sg21
I1
sg22
F3.7013772064819932
sg23
F1.9242076240479946
sVY
I2
sVX
I7
sg977
g1011
sg31
g32
sg33
g34
sg20
S'1'
sg19
S'space'
p1098
sg30
g11
sg980
I1
sg981
g1029
sg983
I1
sS'block.thisIndex'
p1099
I6
sg985
g982
sg987
I0
sg988
g1050
sa(dp1100
S'block.thisTrialN'
p1101
I13
sS'block.thisRepN'
p1102
I0
sg29
NsS'block.thisN'
p1103
I13
sg972
(S'SUBTRACT'
S'TRIPLE'
S'DECREASE'
S'x'
S'y'
tp1104
sg27
g28
sg974
I3
sg975
(I4
I12
I3
tp1105
sg21
I1
sg22
F5.4336399817839265
sg23
F2.7859154890757054
sVY
I9
sVX
I5
sg977
g1011
sg31
g32
sg33
g34
sg20
S'3'
sg19
S'space'
p1106
sg30
g11
sg980
I3
sg981
g1007
sg983
I3
sS'block.thisIndex'
p1107
I4
sg985
g1010
sg987
I0
sg988
g1000
sa(dp1108
S'block.thisTrialN'
p1109
I14
sS'block.thisRepN'
p1110
I0
sg29
NsS'block.thisN'
p1111
I14
sg972
(S'DOUBLE'
S'DIVIDE'
S'TRIPLE'
S'INCREASE'
S'x'
S'y'
tp1112
sg27
g28
sg974
I4
sg975
(I5
I15
I3
I6
tp1113
sg21
I1
sg22
F13.285572700900957
sg23
F17.107302277581766
sVY
I5
sVX
I4
sg977
g1007
sg31
g32
sg33
g34
sg20
S'6'
sg19
S'space'
p1114
sg30
g11
sg980
I6
sg981
g1029
sg983
I6
sS'block.thisIndex'
p1115
I12
sg985
g986
sg987
g996
sg988
g1041
sa(dp1116
S'block.thisTrialN'
p1117
I15
sS'block.thisRepN'
p1118
I0
sg29
NsS'block.thisN'
p1119
I15
sg972
(S'SUBTRACT'
S'TRIPLE'
S'DECREASE'
S'DOUBLE'
S'x'
S'y'
tp1120
sg27
g28
sg974
I4
sg975
(I4
I3
I9
I1
tp1121
sg21
I1
sg22
F8.3715199315920472
sg23
F16.301780152833089
sVY
I8
sVX
I2
sg977
g1011
sg31
g32
sg33
g34
sg20
S'1'
sg19
S'space'
p1122
sg30
g11
sg980
I1
sg981
g1007
sg983
I1
sS'block.thisIndex'
p1123
I11
sg985
g1010
sg987
g986
sg988
g1012
sa(dp1124
S'block.thisTrialN'
p1125
I16
sS'block.thisRepN'
p1126
I0
sg29
NsS'block.thisN'
p1127
I16
sg972
(S'DECREASE'
S'TRIPLE'
S'DIVIDE'
S'DOUBLE'
S'x'
S'y'
tp1128
sg27
g28
sg974
I4
sg975
(I6
I2
I6
I5
tp1129
sg21
I1
sg22
F17.476718935882673
sg23
F9.0951162418350577
sVY
I3
sVX
I3
sg977
g1029
sg31
g32
sg33
g34
sg20
S'5'
sg19
S'space'
p1130
sg30
g11
sg980
I5
sg981
g1007
sg983
I5
sS'block.thisIndex'
p1131
I14
sg985
g1011
sg987
g986
sg988
VUUBUxy
p1132
sa(dp1133
S'block.thisTrialN'
p1134
I17
sS'block.thisRepN'
p1135
I0
sg29
NsS'block.thisN'
p1136
I17
sg972
(S'THIRD'
S'DECREASE'
S'TIMES'
S'HALF'
S'x'
S'y'
tp1137
sg27
g28
sg974
I4
sg975
(I4
I16
I15
I5
tp1138
sg21
I1
sg22
F15.994564036373049
sg23
F9.0913562471978366
sVY
I4
sVX
I8
sg977
g978
sg31
g32
sg33
g34
sg20
S'5'
sg19
S'space'
p1139
sg30
g11
sg980
I5
sg981
g1011
sg983
I5
sS'block.thisIndex'
p1140
I15
sg985
g982
sg987
g998
sg988
g1132
sa(dp1141
S'block.thisTrialN'
p1142
I0
sS'block.thisRepN'
p1143
I0
sg29
NsS'block.thisN'
p1144
I0
sVRule
p1145
(S'DOUBLE'
S'SUBTRACT'
S'x'
S'y'
tp1146
sg27
g28
sVLength
p1147
I2
sVIntermediate
p1148
(I1
I2
tp1149
sg21
I1
sg22
F5.0549657719675452
sg23
F1.7463480564765632
sVY
I7
sVX
I8
sVOperatorc
p1150
I0
sg31
g32
sg33
g34
sg20
S'2'
sg19
S'space'
p1151
sg30
g11
sVResult
p1152
I2
sVOperatora
p1153
VSUBTRACT
p1154
sVCorrectResponse
p1155
I2
sS'block.thisIndex'
p1156
I2
sVOperatorb
p1157
Vdouble
p1158
sVOperatord
p1159
I0
sVStructure
p1160
VUBxy
p1161
sa(dp1162
S'block.thisTrialN'
p1163
I1
sS'block.thisRepN'
p1164
I0
sg29
NsS'block.thisN'
p1165
I1
sg1145
(S'DECREASE'
S'ADD'
S'DOUBLE'
S'THIRD'
S'x'
S'y'
tp1166
sg27
g28
sg1147
I4
sg1148
(I3
I6
I10
I9
tp1167
sg21
I1
sg22
F18.900575722800568
sg23
F5.335844079265371
sVY
I4
sVX
I9
sg1150
g1158
sg31
g32
sg33
g34
sg20
S'9'
sg19
S'space'
p1168
sg30
g11
sg1152
I9
sg1153
VADD
p1169
sg1155
I9
sS'block.thisIndex'
p1170
I12
sg1157
Vdecrease 
p1171
sg1159
Vthird
p1172
sg1160
VUBUUxy
p1173
sa(dp1174
S'block.thisTrialN'
p1175
I2
sS'block.thisRepN'
p1176
I0
sg29
NsS'block.thisN'
p1177
I2
sg1145
(S'ADD'
S'THIRD'
S'INCREASE'
S'HALF'
S'x'
S'y'
tp1178
sg27
g28
sg1147
I4
sg1148
(I2
I3
I1
I7
tp1179
sg21
I1
sg22
F6.0183681191410869
sg23
F7.2675492947455496
sVY
I6
sVX
I4
sg1150
Vincrease
p1180
sg31
g32
sg33
g34
sg20
S'7'
sg19
S'space'
p1181
sg30
g11
sg1152
I7
sg1153
g1172
sg1155
I7
sS'block.thisIndex'
p1182
I10
sg1157
g1169
sg1159
Vhalf
p1183
sg1160
VBUUUxy
p1184
sa(dp1185
S'block.thisTrialN'
p1186
I3
sS'block.thisRepN'
p1187
I0
sg29
NsS'block.thisN'
p1188
I3
sg1145
(S'DOUBLE'
S'DECREASE'
S'TRIPLE'
S'DIVIDE'
S'x'
S'y'
tp1189
sg27
g28
sg1147
I4
sg1148
(I1
I3
I2
I4
tp1190
sg21
I1
sg22
F11.329951414838433
sg23
F4.265284338966012
sVY
I4
sVX
I4
sg1150
Vtriple
p1191
sg31
g32
sg33
g34
sg20
S'4'
sg19
S'space'
p1192
sg30
g11
sg1152
I4
sg1153
Vdecrease
p1193
sg1155
I4
sS'block.thisIndex'
p1194
I17
sg1157
g1158
sg1159
VDIVIDE
p1195
sg1160
VUUUBxy
p1196
sa(dp1197
S'block.thisTrialN'
p1198
I4
sS'block.thisRepN'
p1199
I0
sg29
NsS'block.thisN'
p1200
I4
sg1145
(S'ADD'
S'DOUBLE'
S'x'
S'y'
tp1201
sg27
g28
sg1147
I2
sg1148
(I4
I8
tp1202
sg21
I1
sg22
F1.680249635130167
sg23
F1.5875834790058434
sVY
I4
sVX
I2
sg1150
I0
sg31
g32
sg33
g34
sg20
S'8'
sg19
S'space'
p1203
sg30
g11
sg1152
I8
sg1153
g1158
sg1155
I8
sS'block.thisIndex'
p1204
I0
sg1157
g1169
sg1159
I0
sg1160
VBUxy
p1205
sa(dp1206
S'block.thisTrialN'
p1207
I5
sS'block.thisRepN'
p1208
I0
sg29
NsS'block.thisN'
p1209
I5
sg1145
(S'DECREASE'
S'TIMES'
S'DOUBLE'
S'THIRD'
S'x'
S'y'
tp1210
sg27
g28
sg1147
I4
sg1148
(I1
I2
I8
I7
tp1211
sg21
I1
sg22
F15.017196445260197
sg23
F4.0168338844086975
sVY
I4
sVX
I3
sg1150
g1158
sg31
g32
sg33
g34
sg20
S'7'
sg19
S'space'
p1212
sg30
g11
sg1152
I7
sg1153
VTIMES
p1213
sg1155
I7
sS'block.thisIndex'
p1214
I13
sg1157
g1193
sg1159
g1172
sg1160
g1173
sa(dp1215
S'block.thisTrialN'
p1216
I6
sS'block.thisRepN'
p1217
I0
sg29
NsS'block.thisN'
p1218
I6
sg1145
(S'SUBTRACT'
S'HALF'
S'TRIPLE'
S'x'
S'y'
tp1219
sg27
g28
sg1147
I3
sg1148
(I12
I6
I2
tp1220
sg21
I1
sg22
F4.3565027012955397
sg23
F4.4997695498168468
sVY
I4
sVX
I4
sg1150
g1191
sg31
g32
sg33
g34
sg20
S'2'
sg19
S'space'
p1221
sg30
g11
sg1152
I2
sg1153
g1183
sg1155
I2
sS'block.thisIndex'
p1222
I5
sg1157
g1154
sg1159
I0
sg1160
VBUUxy
p1223
sa(dp1224
S'block.thisTrialN'
p1225
I7
sS'block.thisRepN'
p1226
I0
sg29
NsS'block.thisN'
p1227
I7
sg1145
(S'HALF'
S'TIMES'
S'x'
S'y'
tp1228
sg27
g28
sg1147
I2
sg1148
(I16
I8
tp1229
sg21
I1
sg22
F1.3144032915588468
sg23
F3.8887057031970471
sVY
I4
sVX
I4
sg1150
I0
sg31
g32
sg33
g34
sg20
S'8'
sg19
S'space'
p1230
sg30
g11
sg1152
I8
sg1153
g1213
sg1155
I8
sS'block.thisIndex'
p1231
I3
sg1157
g1183
sg1159
I0
sg1160
g1161
sa(dp1232
S'block.thisTrialN'
p1233
I8
sS'block.thisRepN'
p1234
I0
sg29
NsS'block.thisN'
p1235
I8
sg1145
(S'INCREASE'
S'DIVIDE'
S'THIRD'
S'x'
S'y'
tp1236
sg27
g28
sg1147
I3
sg1148
(I3
I1
I2
tp1237
sg21
I1
sg22
F9.3982640472240746
sg23
F2.3547885860316455
sVY
I3
sVX
I9
sg1150
g1172
sg31
g32
sg33
g34
sg20
S'2'
sg19
S'space'
p1238
sg30
g11
sg1152
I2
sg1153
g1195
sg1155
I2
sS'block.thisIndex'
p1239
I7
sg1157
g1180
sg1159
I0
sg1160
VUBUxy
p1240
sa(dp1241
S'block.thisTrialN'
p1242
I9
sS'block.thisRepN'
p1243
I0
sg29
NsS'block.thisN'
p1244
I9
sg1145
(S'DOUBLE'
S'TRIPLE'
S'DIVIDE'
S'DECREASE'
S'x'
S'y'
tp1245
sg27
g28
sg1147
I4
sg1148
(I8
I1
I3
I6
tp1246
sg21
I1
sg22
F5.8112629053648561
sg23
F1.9765427298843861
sVY
I8
sVX
I9
sg1150
g1195
sg31
g32
sg33
g34
sg20
S'6'
sg19
S'space'
p1247
sg30
g11
sg1152
I6
sg1153
g1191
sg1155
I6
sS'block.thisIndex'
p1248
I15
sg1157
g1158
sg1159
g1193
sg1160
VUUBUxy
p1249
sa(dp1250
S'block.thisTrialN'
p1251
I10
sS'block.thisRepN'
p1252
I0
sg29
NsS'block.thisN'
p1253
I10
sg1145
(S'HALF'
S'SUBTRACT'
S'TRIPLE'
S'x'
S'y'
tp1254
sg27
g28
sg1147
I3
sg1148
(I9
I2
I1
tp1255
sg21
I1
sg22
F3.6216243077069521
sg23
F4.1450716038234532
sVY
I7
sVX
I3
sg1150
g1191
sg31
g32
sg33
g34
sg20
S'1'
sg19
S'space'
p1256
sg30
g11
sg1152
I1
sg1153
g1154
sg1155
I1
sS'block.thisIndex'
p1257
I6
sg1157
g1183
sg1159
I0
sg1160
g1240
sa(dp1258
S'block.thisTrialN'
p1259
I11
sS'block.thisRepN'
p1260
I0
sg29
NsS'block.thisN'
p1261
I11
sg1145
(S'DIVIDE'
S'DOUBLE'
S'x'
S'y'
tp1262
sg27
g28
sg1147
I2
sg1148
(I12
I2
tp1263
sg21
I1
sg22
F2.5153463699389249
sg23
F1.5542800209950656
sVY
I6
sVX
I6
sg1150
I0
sg31
g32
sg33
g34
sg20
S'2'
sg19
S'space'
p1264
sg30
g11
sg1152
I2
sg1153
g1158
sg1155
I2
sS'block.thisIndex'
p1265
I1
sg1157
g1195
sg1159
I0
sg1160
g1205
sa(dp1266
S'block.thisTrialN'
p1267
I12
sS'block.thisRepN'
p1268
I0
sg29
NsS'block.thisN'
p1269
I12
sg1145
(S'DIVIDE'
S'INCREASE'
S'DOUBLE'
S'THIRD'
S'x'
S'y'
tp1270
sg27
g28
sg1147
I4
sg1148
(I2
I4
I5
I1
tp1271
sg21
I1
sg22
F8.5168015130329877
sg23
F4.9295543474145234
sVY
I5
sVX
I6
sg1150
g1158
sg31
g32
sg33
g34
sg20
S'1'
sg19
S'space'
p1272
sg30
g11
sg1152
I1
sg1153
g1180
sg1155
I1
sS'block.thisIndex'
p1273
I11
sg1157
g1195
sg1159
g1172
sg1160
g1184
sa(dp1274
S'block.thisTrialN'
p1275
I13
sS'block.thisRepN'
p1276
I0
sg29
NsS'block.thisN'
p1277
I13
sg1145
(S'DECREASE'
S'HALF'
S'TRIPLE'
S'DIVIDE'
S'x'
S'y'
tp1278
sg27
g28
sg1147
I4
sg1148
(I4
I12
I6
I5
tp1279
sg21
I1
sg22
F12.325764116365463
sg23
F4.5333183314651251
sVY
I2
sVX
I8
sg1150
g1191
sg31
g32
sg33
g34
sg20
S'5'
sg19
S'space'
p1280
sg30
g11
sg1152
I5
sg1153
g1183
sg1155
I5
sS'block.thisIndex'
p1281
I16
sg1157
g1193
sg1159
g1195
sg1160
g1196
sa(dp1282
S'block.thisTrialN'
p1283
I14
sS'block.thisRepN'
p1284
I0
sg29
NsS'block.thisN'
p1285
I14
sg1145
(S'DIVIDE'
S'DOUBLE'
S'THIRD'
S'x'
S'y'
tp1286
sg27
g28
sg1147
I3
sg1148
(I2
I4
I1
tp1287
sg21
I1
sg22
F3.6808645189739764
sg23
F2.1717005821410567
sVY
I4
sVX
I6
sg1150
g1172
sg31
g32
sg33
g34
sg20
S'1'
sg19
S'space'
p1288
sg30
g11
sg1152
I1
sg1153
g1158
sg1155
I1
sS'block.thisIndex'
p1289
I4
sg1157
g1195
sg1159
I0
sg1160
g1223
sa(dp1290
S'block.thisTrialN'
p1291
I15
sS'block.thisRepN'
p1292
I0
sg29
NsS'block.thisN'
p1293
I15
sg1145
(S'DECREASE'
S'THIRD'
S'TIMES'
S'HALF'
S'x'
S'y'
tp1294
sg27
g28
sg1147
I4
sg1148
(I2
I12
I4
I3
tp1295
sg21
I1
sg22
F6.2566311722621322
sg23
F5.137546015670523
sVY
I6
sVX
I4
sg1150
g1213
sg31
g32
sg33
g34
sg20
S'3'
sg19
S'space'
p1296
sg30
g11
sg1152
I3
sg1153
g1172
sg1155
I3
sS'block.thisIndex'
p1297
I14
sg1157
g1193
sg1159
g1183
sg1160
g1249
sa(dp1298
S'block.thisTrialN'
p1299
I16
sS'block.thisRepN'
p1300
I0
sg29
NsS'block.thisN'
p1301
I16
sg1145
(S'DOUBLE'
S'TRIPLE'
S'SUBTRACT'
S'x'
S'y'
tp1302
sg27
g28
sg1147
I3
sg1148
(I1
I3
I6
tp1303
sg21
I1
sg22
F3.6897763076703995
sg23
F1.6183168145362288
sVY
I3
sVX
I4
sg1150
g1154
sg31
g32
sg33
g34
sg20
S'6'
sg19
S'space'
p1304
sg30
g11
sg1152
I6
sg1153
g1191
sg1155
I6
sS'block.thisIndex'
p1305
I9
sg1157
g1158
sg1159
I0
sg1160
VUUBxy
p1306
sa(dp1307
S'block.thisTrialN'
p1308
I17
sS'block.thisRepN'
p1309
I0
sg29
NsS'block.thisN'
p1310
I17
sg1145
(S'DOUBLE'
S'DECREASE'
S'SUBTRACT'
S'x'
S'y'
tp1311
sg27
g28
sg1147
I3
sg1148
(I5
I4
I8
tp1312
sg21
I1
sg22
F5.2377377599477768
sg23
F2.6076128690037876
sVY
I2
sVX
I7
sg1150
g1154
sg31
g32
sg33
g34
sg20
S'8'
sg19
S'space'
p1313
sg30
g11
sg1152
I8
sg1153
g1193
sg1155
I8
sS'block.thisIndex'
p1314
I8
sg1157
g1158
sg1159
I0
sg1160
g1306
sa(dp1315
S'block.thisTrialN'
p1316
I0
sS'block.thisRepN'
p1317
I0
sg29
NsS'block.thisN'
p1318
I0
sVRule
p1319
(S'INCREASE'
S'DIVIDE'
S'x'
S'y'
tp1320
sg27
g28
sVLength
p1321
I2
sVIntermediate
p1322
(I4
I5
tp1323
sg21
I1
sg22
F11.185332661727443
sg23
F1.2980810517910868
sVY
I2
sVX
I8
sVOperatorc
p1324
I0
sg31
g32
sg33
g34
sg20
S'5'
sg19
S'space'
p1325
sg30
g11
sVResult
p1326
I5
sVOperatora
p1327
VDIVIDE
p1328
sVCorrectResponse
p1329
I5
sS'block.thisIndex'
p1330
I3
sVOperatorb
p1331
Vincrease
p1332
sVOperatord
p1333
I0
sVStructure
p1334
VUBxy
p1335
sa(dp1336
S'block.thisTrialN'
p1337
I1
sS'block.thisRepN'
p1338
I0
sg29
NsS'block.thisN'
p1339
I1
sg1319
(S'ADD'
S'HALF'
S'x'
S'y'
tp1340
sg27
g28
sg1321
I2
sg1322
(I2
I7
tp1341
sg21
I1
sg22
F2.2715710611082613
sg23
F2.9658097373321652
sVY
I5
sVX
I4
sg1324
I0
sg31
g32
sg33
g34
sg20
S'7'
sg19
S'space'
p1342
sg30
g11
sg1326
I7
sg1327
Vhalf
p1343
sg1329
I7
sS'block.thisIndex'
p1344
I0
sg1331
VADD
p1345
sg1333
I0
sg1334
VBUxy
p1346
sa(dp1347
S'block.thisTrialN'
p1348
I2
sS'block.thisRepN'
p1349
I0
sg29
NsS'block.thisN'
p1350
I2
sg1319
(S'TIMES'
S'HALF'
S'INCREASE'
S'THIRD'
S'x'
S'y'
tp1351
sg27
g28
sg1321
I4
sg1322
(I1
I2
I1
I9
tp1352
sg21
I1
sg22
F14.261280420934781
sg23
F4.4447383349761367
sVY
I9
sVX
I3
sg1324
g1332
sg31
g32
sg33
g34
sg20
S'9'
sg19
S'space'
p1353
sg30
g11
sg1326
I9
sg1327
g1343
sg1329
I9
sS'block.thisIndex'
p1354
I11
sg1331
VTIMES
p1355
sg1333
Vthird
p1356
sg1334
VBUUUxy
p1357
sa(dp1358
S'block.thisTrialN'
p1359
I3
sS'block.thisRepN'
p1360
I0
sg29
NsS'block.thisN'
p1361
I3
sg1319
(S'DIVIDE'
S'TRIPLE'
S'DECREASE'
S'x'
S'y'
tp1362
sg27
g28
sg1321
I3
sg1322
(I6
I18
I9
tp1363
sg21
I1
sg22
F3.8271651901304722
sg23
F4.3219477778766304
sVY
I2
sVX
I7
sg1324
Vdecrease
p1364
sg31
g32
sg33
g34
sg20
S'9'
sg19
S'space'
p1365
sg30
g11
sg1326
I9
sg1327
Vtriple
p1366
sg1329
I9
sS'block.thisIndex'
p1367
I4
sg1331
g1328
sg1333
I0
sg1334
VBUUxy
p1368
sa(dp1369
S'block.thisTrialN'
p1370
I4
sS'block.thisRepN'
p1371
I0
sg29
NsS'block.thisN'
p1372
I4
sg1319
(S'TRIPLE'
S'INCREASE'
S'SUBTRACT'
S'x'
S'y'
tp1373
sg27
g28
sg1321
I3
sg1322
(I1
I2
I6
tp1374
sg21
I1
sg22
F2.5619763908907771
sg23
F2.453647674061358
sVY
I2
sVX
I3
sg1324
VSUBTRACT
p1375
sg31
g32
sg33
g34
sg20
S'6'
sg19
S'space'
p1376
sg30
g11
sg1326
I6
sg1327
g1332
sg1329
I6
sS'block.thisIndex'
p1377
I9
sg1331
g1366
sg1333
I0
sg1334
VUUBxy
p1378
sa(dp1379
S'block.thisTrialN'
p1380
I5
sS'block.thisRepN'
p1381
I0
sg29
NsS'block.thisN'
p1382
I5
sg1319
(S'INCREASE'
S'TIMES'
S'TRIPLE'
S'HALF'
S'x'
S'y'
tp1383
sg27
g28
sg1321
I4
sg1322
(I1
I3
I6
I7
tp1384
sg21
I1
sg22
F8.8832742890808731
sg23
F9.1540603847242892
sVY
I2
sVX
I2
sg1324
g1366
sg31
g32
sg33
g34
sg20
S'7'
sg19
S'space'
p1385
sg30
g11
sg1326
I7
sg1327
g1355
sg1329
I7
sS'block.thisIndex'
p1386
I13
sg1331
g1332
sg1333
g1343
sg1334
VUBUUxy
p1387
sa(dp1388
S'block.thisTrialN'
p1389
I6
sS'block.thisRepN'
p1390
I0
sg29
NsS'block.thisN'
p1391
I6
sg1319
(S'INCREASE'
S'DIVIDE'
S'TRIPLE'
S'x'
S'y'
tp1392
sg27
g28
sg1321
I3
sg1322
(I6
I2
I3
tp1393
sg21
I1
sg22
F5.3808628739789128
sg23
F2.3898058095946908
sVY
I3
sVX
I2
sg1324
g1366
sg31
g32
sg33
g34
sg20
S'3'
sg19
S'space'
p1394
sg30
g11
sg1326
I3
sg1327
g1328
sg1329
I3
sS'block.thisIndex'
p1395
I7
sg1331
g1332
sg1333
I0
sg1334
VUBUxy
p1396
sa(dp1397
S'block.thisTrialN'
p1398
I7
sS'block.thisRepN'
p1399
I0
sg29
NsS'block.thisN'
p1400
I7
sg1319
(S'HALF'
S'SUBTRACT'
S'DECREASE'
S'TRIPLE'
S'x'
S'y'
tp1401
sg27
g28
sg1321
I4
sg1322
(I15
I14
I10
I5
tp1402
sg21
I1
sg22
F18.165250427788123
sg23
F6.8865614843089134
sVY
I4
sVX
I5
sg1324
g1364
sg31
g32
sg33
g34
sg20
S'5'
sg19
S'space'
p1403
sg30
g11
sg1326
I5
sg1327
g1375
sg1329
I5
sS'block.thisIndex'
p1404
I12
sg1331
g1343
sg1333
g1366
sg1334
g1387
sa(dp1405
S'block.thisTrialN'
p1406
I8
sS'block.thisRepN'
p1407
I0
sg29
NsS'block.thisN'
p1408
I8
sg1319
(S'TRIPLE'
S'HALF'
S'ADD'
S'x'
S'y'
tp1409
sg27
g28
sg1321
I3
sg1322
(I6
I3
I9
tp1410
sg21
I1
sg22
F2.7878759775776416
sg23
F2.9437873126007617
sVY
I3
sVX
I3
sg1324
g1345
sg31
g32
sg33
g34
sg20
S'9'
sg19
S'space'
p1411
sg30
g11
sg1326
I9
sg1327
g1343
sg1329
I9
sS'block.thisIndex'
p1412
I8
sg1331
g1366
sg1333
I0
sg1334
g1378
sa(dp1413
S'block.thisTrialN'
p1414
I9
sS'block.thisRepN'
p1415
I0
sg29
NsS'block.thisN'
p1416
I9
sg1319
(S'DECREASE'
S'THIRD'
S'DOUBLE'
S'ADD'
S'x'
S'y'
tp1417
sg27
g28
sg1321
I4
sg1322
(I9
I18
I6
I5
tp1418
sg21
I1
sg22
F5.2872364216018468
sg23
F5.0454779451247305
sVY
I4
sVX
I5
sg1324
Vdouble
p1419
sg31
g32
sg33
g34
sg20
S'5'
sg19
S'space'
p1420
sg30
g11
sg1326
I5
sg1327
g1356
sg1329
I5
sS'block.thisIndex'
p1421
I16
sg1331
g1364
sg1333
g1345
sg1334
VUUUBxy
p1422
sa(dp1423
S'block.thisTrialN'
p1424
I10
sS'block.thisRepN'
p1425
I0
sg29
NsS'block.thisN'
p1426
I10
sg1319
(S'SUBTRACT'
S'INCREASE'
S'HALF'
S'x'
S'y'
tp1427
sg27
g28
sg1321
I3
sg1322
(I4
I5
I3
tp1428
sg21
I1
sg22
F10.308804245432839
sg23
F9.510292564984411
sVY
I2
sVX
I8
sg1324
g1343
sg31
g32
sg33
g34
sg20
S'3'
sg19
S'space'
p1429
sg30
g11
sg1326
I3
sg1327
g1332
sg1329
I3
sS'block.thisIndex'
p1430
I5
sg1331
g1375
sg1333
I0
sg1334
g1368
sa(dp1431
S'block.thisTrialN'
p1432
I11
sS'block.thisRepN'
p1433
I0
sg29
NsS'block.thisN'
p1434
I11
sg1319
(S'HALF'
S'TIMES'
S'DECREASE'
S'x'
S'y'
tp1435
sg27
g28
sg1321
I3
sg1322
(I8
I16
I8
tp1436
sg21
I1
sg22
F6.9163191250991076
sg23
F3.0176818429026753
sVY
I2
sVX
I9
sg1324
g1364
sg31
g32
sg33
g34
sg20
S'8'
sg19
S'space'
p1437
sg30
g11
sg1326
I8
sg1327
g1355
sg1329
I8
sS'block.thisIndex'
p1438
I6
sg1331
g1343
sg1333
I0
sg1334
g1396
sa(dp1439
S'block.thisTrialN'
p1440
I12
sS'block.thisRepN'
p1441
I0
sg29
NsS'block.thisN'
p1442
I12
sg1319
(S'DOUBLE'
S'DIVIDE'
S'x'
S'y'
tp1443
sg27
g28
sg1321
I2
sg1322
(I1
I2
tp1444
sg21
I1
sg22
F2.7522225228603929
sg23
F1.2374056458938867
sVY
I8
sVX
I8
sg1324
I0
sg31
g32
sg33
g34
sg20
S'2'
sg19
S'space'
p1445
sg30
g11
sg1326
I2
sg1327
g1328
sg1329
I2
sS'block.thisIndex'
p1446
I2
sg1331
g1419
sg1333
I0
sg1334
g1335
sa(dp1447
S'block.thisTrialN'
p1448
I13
sS'block.thisRepN'
p1449
I0
sg29
NsS'block.thisN'
p1450
I13
sg1319
(S'SUBTRACT'
S'TRIPLE'
S'x'
S'y'
tp1451
sg27
g28
sg1321
I2
sg1322
(I12
I9
tp1452
sg21
I1
sg22
F1.9686948261223733
sg23
F4.3916546599939466
sVY
I3
sVX
I4
sg1324
I0
sg31
g32
sg33
g34
sg20
S'9'
sg19
S'space'
p1453
sg30
g11
sg1326
I9
sg1327
g1366
sg1329
I9
sS'block.thisIndex'
p1454
I1
sg1331
g1375
sg1333
I0
sg1334
g1346
sa(dp1455
S'block.thisTrialN'
p1456
I14
sS'block.thisRepN'
p1457
I0
sg29
NsS'block.thisN'
p1458
I14
sg1319
(S'THIRD'
S'INCREASE'
S'HALF'
S'TIMES'
S'x'
S'y'
tp1459
sg27
g28
sg1321
I4
sg1322
(I28
I14
I15
I5
tp1460
sg21
I1
sg22
F7.6855967084411532
sg23
F6.3710446828044951
sVY
I4
sVX
I7
sg1324
g1343
sg31
g32
sg33
g34
sg20
S'5'
sg19
S'space'
p1461
sg30
g11
sg1326
I5
sg1327
g1332
sg1329
I5
sS'block.thisIndex'
p1462
I17
sg1331
g1356
sg1333
g1355
sg1334
g1422
sa(dp1463
S'block.thisTrialN'
p1464
I15
sS'block.thisRepN'
p1465
I0
sg29
NsS'block.thisN'
p1466
I15
sg1319
(S'DIVIDE'
S'DOUBLE'
S'INCREASE'
S'TRIPLE'
S'x'
S'y'
tp1467
sg27
g28
sg1321
I4
sg1322
(I9
I10
I20
I5
tp1468
sg21
I1
sg22
F9.4614441331941634
sg23
F4.0314126121811569
sVY
I4
sVX
I3
sg1324
g1332
sg31
g32
sg33
g34
sg20
S'5'
sg19
S'space'
p1469
sg30
g11
sg1326
I5
sg1327
g1419
sg1329
I5
sS'block.thisIndex'
p1470
I10
sg1331
g1328
sg1333
g1366
sg1334
g1357
sa(dp1471
S'block.thisTrialN'
p1472
I16
sS'block.thisRepN'
p1473
I0
sg29
NsS'block.thisN'
p1474
I16
sg1319
(S'TRIPLE'
S'DOUBLE'
S'SUBTRACT'
S'INCREASE'
S'x'
S'y'
tp1475
sg27
g28
sg1321
I4
sg1322
(I5
I1
I2
I6
tp1476
sg21
I1
sg22
F6.0944831599481404
sg23
F2.4653584610205144
sVY
I4
sVX
I4
sg1324
g1375
sg31
g32
sg33
g34
sg20
S'6'
sg19
S'space'
p1477
sg30
g11
sg1326
I6
sg1327
g1419
sg1329
I6
sS'block.thisIndex'
p1478
I14
sg1331
g1366
sg1333
g1332
sg1334
VUUBUxy
p1479
sa(dp1480
S'block.thisTrialN'
p1481
I17
sS'block.thisRepN'
p1482
I0
sg29
NsS'block.thisN'
p1483
I17
sg1319
(S'TRIPLE'
S'INCREASE'
S'DIVIDE'
S'DOUBLE'
S'x'
S'y'
tp1484
sg27
g28
sg1321
I4
sg1322
(I16
I2
I3
I9
tp1485
sg21
I1
sg22
F10.323285333579406
sg23
F5.5316024667117745
sVY
I8
sVX
I8
sg1324
g1328
sg31
g32
sg33
g34
sg20
S'9'
sg19
S'space'
p1486
sg30
g11
sg1326
I9
sg1327
g1332
sg1329
I9
sS'block.thisIndex'
p1487
I15
sg1331
g1366
sg1333
g1419
sg1334
g1479
sasS'loops'
p1488
(lp1489
g1
(cpsychopy.data
TrialHandler
p1490
g3
NtRp1491
(dp1492
S'origin'
p1493
NsS'thisTrial'
p1494
(lp1495
sS'_exp'
p1496
I150444688
sg10
S'practice_trials'
p1497
sg6
S'C:\\Users\\experimenter\\Desktop\\Experiments\\KRITL\\2. kritl_experimenter.py'
p1498
sS'thisRepN'
p1499
I1
sg24
I01
sg25
g26
sS'data'
p1500
g1
(cpsychopy.data
DataHandler
p1501
c__builtin__
dict
p1502
(dp1503
g17
cnumpy.core.multiarray
_reconstruct
p1504
(cnumpy
ndarray
p1505
(I0
tS'b'
tRp1506
(I1
(I6
I1
tcnumpy
dtype
p1507
(S'O4'
I0
I1
tRp1508
(I3
S'|'
NNNI-1
I-1
I63
tbI00
(lp1509
(lp1510
F9.8316807532683015
aa(lp1511
F6.552284186007455
aa(lp1512
F4.8334046674426645
aa(lp1513
F13.208133752690628
aa(lp1514
F11.245120913721621
aaS'--'
p1515
atbsg15
g1504
(g1505
(I0
tS'b'
tRp1516
(I1
(I6
I1
tg1508
I00
(lp1517
S'7'
aS'8'
aS'7'
aS'8'
aS'3'
aNatbsS'ran'
p1518
cnumpy.ma.core
_mareconstruct
p1519
(cnumpy.ma.core
MaskedArray
p1520
g1505
(I0
tp1521
S'b'
tRp1522
(I1
(I6
I1
tg1507
(S'f4'
I0
I1
tRp1523
(I3
S'<'
NNNI-1
I-1
I0
tbI00
S'\x00\x00\x80?\x00\x00\x80?\x00\x00\x80?\x00\x00\x80?\x00\x00\x80?\x00\x00\x80?'
S'\x00\x00\x00\x00\x00\x00'
Ntbsg18
g1519
(g1520
g1505
g1521
S'b'
tRp1524
(I1
(I6
I1
tg1523
I00
S'\xf2L\x87@\xabq\xc9?\n\xfb\xf5?\xec\r@A\xebj\xf0@\x00\x00\x00\x00'
S'\x00\x00\x00\x00\x00\x01'
Ntbsg14
g1504
(g1505
(I0
tS'b'
tRp1525
(I1
(I6
I1
tg1508
I00
(lp1526
(lp1527
g78
aa(lp1528
g87
aa(lp1529
g96
aa(lp1530
g113
aa(lp1531
g104
aaNatbsS'order'
p1532
g1519
(g1520
g1505
g1521
S'b'
tRp1533
(I1
(I6
I1
tg1523
I00
S'\x00\x00\x80?\x00\x00\x00@\x00\x00@@\x00\x00\xa0@\x00\x00\x80@\x00\x00\x00\x00'
S'\x00\x00\x00\x00\x00\x00'
Ntbsg16
g1519
(g1520
g1505
g1521
S'b'
tRp1534
(I1
(I6
I1
tg1523
I00
S'\x00\x00\x80?\x00\x00\x80?\x00\x00\x80?\x00\x00\x80?\x00\x00\x80?\x00\x00\x00\x00'
S'\x00\x00\x00\x00\x00\x00'
NtbstRp1535
(dp1536
S'isNumeric'
p1537
(dp1538
g15
I00
sg1518
I01
sg18
I01
sg14
I00
sg16
I01
sg1532
I01
sg17
I00
ssS'trials'
p1539
g1491
sS'dataTypes'
p1540
(lp1541
g1518
ag1532
ag14
ag15
ag16
ag17
ag18
asS'dataShape'
p1542
(lp1543
I6
aI1
asbsS'method'
p1544
S'fullRandom'
p1545
sS'sequenceIndices'
p1546
g1504
(g1505
(I0
tS'b'
tRp1547
(I1
(I6
I1
tg1508
I00
(lp1548
I5
aI0
aI1
aI2
aI4
aI3
atbsS'finished'
p1549
I01
sS'nReps'
p1550
I1
sS'nRemaining'
p1551
I-1
sS'trialList'
p1552
(lp1553
g1
(cpsychopy.data
TrialType
p1554
g1502
(dp1555
g43
I0
sg44
g73
sg45
g74
sg46
I7
sg49
I2
sg48
I0
sg47
I5
sg50
I3
stRp1556
ag1
(g1554
g1502
(dp1557
g43
I0
sg44
g74
sg45
g83
sg46
I8
sg49
I2
sg48
I0
sg47
I3
sg50
I3
stRp1558
ag1
(g1554
g1502
(dp1559
g43
I0
sg44
g73
sg45
g92
sg46
I7
sg49
I2
sg48
I0
sg47
I5
sg50
I4
stRp1560
ag1
(g1554
g1502
(dp1561
g43
g73
sg44
g109
sg45
g92
sg46
I8
sg49
I3
sg48
I0
sg47
I2
sg50
I4
stRp1562
ag1
(g1554
g1502
(dp1563
g43
g64
sg44
g67
sg45
g70
sg46
I3
sg49
I3
sg48
I0
sg47
I3
sg50
I2
stRp1564
ag1
(g1554
g1502
(dp1565
g43
g64
sg44
g67
sg45
g65
sg46
I9
sg49
I4
sg48
g70
sg47
I8
sg50
I8
stRp1566
asS'seed'
p1567
NsS'thisIndex'
p1568
I3
sS'thisN'
p1569
I6
sS'thisTrialN'
p1570
I0
sS'nTotal'
p1571
I6
sS'_warnUseOfNext'
p1572
I01
sbag1
(g1490
g3
NtRp1573
(dp1574
g1493
Nsg1494
(lp1575
sg1496
I150444688
sg10
S'block'
p1576
sg6
g1498
sg1499
I1
sg24
I01
sg25
g26
sg1500
g1
(g1501
g1502
(dp1577
g21
g1519
(g1520
g1505
g1521
S'b'
tRp1578
(I1
(I18
I1
tg1523
I00
S'\x00\x00\x80?\x00\x00\x80?\x00\x00\x80?\x00\x00\x80?\x00\x00\x80?\x00\x00\x80?\x00\x00\x80?\x00\x00\x80?\x00\x00\x80?\x00\x00\x80?\x00\x00\x00\x00\x00\x00\x00\x00\x00\x00\x80?\x00\x00\x80?\x00\x00\x00\x00\x00\x00\x80?\x00\x00\x80?\x00\x00\x80?'
S'\x00\x00\x00\x00\x00\x00\x00\x00\x00\x00\x00\x00\x00\x00\x00\x00\x00\x00'
Ntbsg22
g1519
(g1520
g1505
g1521
S'b'
tRp1579
(I1
(I18
I1
tg1523
I00
S'[\x14\x83AX\xc9?@\xe7R6@\x13\x03#@Z\xc8\x15Ay yA\x1a\xb8\x83A=Z\x18A\xf3w#A\xac:1A\x00\x00\x00\x00\x00\x00\x00\x00}\x882A\x16\x88\x8aA\xb6x\xd1=\xb3\xf4dA\xdf\xa2aA\xee\x83\x0cA'
S'\x00\x00\x00\x00\x00\x00\x00\x00\x00\x00\x01\x01\x00\x00\x00\x00\x00\x00'
Ntbsg23
g1519
(g1520
g1505
g1521
S'b'
tRp1580
(I1
(I18
I1
tg1523
I00
S'\xa4A\x08Aup\xd9?\xef\x90\xd3?\xcb`\xfe?I\x06_@1\xcaIA|3pA\xdb\xffv@\xa0Og@\x7fb\x8c@\x00\x00\x00\x00\x00\x00\x00\x00\x95\x9a\x9b@\xbc\xb6\x10A\xdblm@;\xaeZA\xcb\xf7\xf7@\n\x17\x01A'
S'\x00\x00\x00\x00\x00\x00\x00\x00\x00\x00\x01\x01\x00\x00\x00\x00\x00\x00'
Ntbsg1518
g1519
(g1520
g1505
g1521
S'b'
tRp1581
(I1
(I18
I1
tg1523
I00
S'\x00\x00\x80?\x00\x00\x80?\x00\x00\x80?\x00\x00\x80?\x00\x00\x80?\x00\x00\x80?\x00\x00\x80?\x00\x00\x80?\x00\x00\x80?\x00\x00\x80?\x00\x00\x80?\x00\x00\x80?\x00\x00\x80?\x00\x00\x80?\x00\x00\x80?\x00\x00\x80?\x00\x00\x80?\x00\x00\x80?'
S'\x00\x00\x00\x00\x00\x00\x00\x00\x00\x00\x00\x00\x00\x00\x00\x00\x00\x00'
Ntbsg20
g1504
(g1505
(I0
tS'b'
tRp1582
(I1
(I18
I1
tg1508
I00
(lp1583
S'1'
aS'4'
aS'9'
aS'6'
aS'6'
aS'7'
aS'8'
aS'2'
aS'1'
aS'9'
aNaNaS'1'
aS'3'
aS'1'
aS'1'
aS'5'
aS'7'
atbsg1532
g1519
(g1520
g1505
g1521
S'b'
tRp1584
(I1
(I18
I1
tg1523
I00
S'\x00\x00@@\x00\x00\x88A\x00\x00\x80A\x00\x00pA\x00\x00\x00@\x00\x00 A\x00\x000A\x00\x00PA\x00\x00\xc0@\x00\x00\x80@\x00\x00\xa0@\x00\x00\x00\x00\x00\x00\x10A\x00\x00`A\x00\x00\xe0@\x00\x00\x00A\x00\x00@A\x00\x00\x80?'
S'\x00\x00\x00\x00\x00\x00\x00\x00\x00\x00\x00\x00\x00\x00\x00\x00\x00\x00'
Ntbsg19
g1504
(g1505
(I0
tS'b'
tRp1585
(I1
(I18
I1
tg1508
I00
(lp1586
g157
ag276
ag268
ag259
ag148
ag218
ag226
ag243
ag184
ag167
aNaNag209
ag251
ag192
ag201
ag235
ag136
atbstRp1587
(dp1588
g1537
(dp1589
g1518
I01
sg20
I00
sg19
I00
sg21
I01
sg22
I01
sg23
I01
sg1532
I01
ssg1539
g1573
sg1540
(lp1590
g1518
ag1532
ag19
ag20
ag21
ag22
ag23
asg1542
(lp1591
I18
aI1
asbsg1544
g1545
sg1546
g1504
(g1505
(I0
tS'b'
tRp1592
(I1
(I18
I1
tg1508
I00
(lp1593
I11
aI17
aI4
aI0
aI9
aI10
aI8
aI14
aI15
aI12
aI5
aI6
aI16
aI7
aI13
aI3
aI2
aI1
atbsg1549
I01
sg1550
I1
sg1551
I-1
sg1552
(lp1594
g1
(g1554
g1502
(dp1595
g51
g155
sVY
I2
sg53
I2
sg54
g156
sg55
I1
sg56
I1
sg52
g123
sVX
I9
sg57
I0
sg58
g159
sg59
I0
sg60
g160
stRp1596
ag1
(g1554
g1502
(dp1597
g51
g274
sVY
I4
sg53
I2
sg54
g275
sg55
I4
sg56
I4
sg52
g123
sVX
I3
sg57
I0
sg58
g126
sg59
I0
sg60
g160
stRp1598
ag1
(g1554
g1502
(dp1599
g51
g266
sVY
I4
sg53
I2
sg54
g267
sg55
I9
sg56
I9
sg52
g126
sVX
I2
sg57
I0
sg58
g139
sg59
I0
sg60
g261
stRp1600
ag1
(g1554
g1502
(dp1601
g51
g257
sVY
I6
sg53
I2
sg54
g258
sg55
I6
sg56
I6
sg52
g159
sVX
I8
sg57
I0
sg58
g137
sg59
I0
sg60
g261
stRp1602
ag1
(g1554
g1502
(dp1603
g51
g146
sVY
I4
sg53
I3
sg54
g147
sg55
I6
sg56
I6
sg52
g124
sVX
I6
sg57
g135
sg58
g140
sg59
I0
sg60
g150
stRp1604
ag1
(g1554
g1502
(dp1605
g51
g216
sVY
I9
sg53
I3
sg54
g217
sg55
I7
sg56
I7
sg52
g127
sVX
I9
sg57
g124
sg58
g159
sg59
I0
sg60
g150
stRp1606
ag1
(g1554
g1502
(dp1607
g51
g224
sVY
I4
sg53
I3
sg54
g225
sg55
I8
sg56
I8
sg52
g126
sVX
I3
sg57
g123
sg58
g127
sg59
I0
sg60
g228
stRp1608
ag1
(g1554
g1502
(dp1609
g51
g241
sVY
I2
sg53
I3
sg54
g242
sg55
I2
sg56
I2
sg52
g177
sVX
I4
sg57
g135
sg58
g139
sg59
I0
sg60
g228
stRp1610
ag1
(g1554
g1502
(dp1611
g51
g182
sVY
I2
sg53
I3
sg54
g183
sg55
I1
sg56
I1
sg52
g135
sVX
I8
sg57
g177
sg58
g124
sg59
I0
sg60
g169
stRp1612
ag1
(g1554
g1502
(dp1613
g51
g165
sVY
I3
sg53
I3
sg54
g166
sg55
I9
sg56
I9
sg52
g135
sVX
I2
sg57
g126
sg58
g137
sg59
I0
sg60
g169
stRp1614
ag1
(g1554
g1502
(dp1615
g51
g174
sVY
I3
sg53
I4
sg54
g175
sg55
I1
sg56
I1
sg52
g124
sVX
I6
sg57
g123
sg58
g177
sg59
g127
sg60
g128
stRp1616
ag1
(g1554
g1502
(dp1617
g51
g121
sVY
I2
sg53
I4
sg54
g122
sg55
I2
sg56
I2
sg52
g124
sVX
I3
sg57
g123
sg58
g126
sg59
g127
sg60
g128
stRp1618
ag1
(g1554
g1502
(dp1619
g51
g207
sVY
I9
sg53
I4
sg54
g208
sg55
I1
sg56
I1
sg52
g177
sVX
I3
sg57
g137
sg58
g124
sg59
g127
sg60
g211
stRp1620
ag1
(g1554
g1502
(dp1621
g51
g249
sVY
I3
sg53
I4
sg54
g250
sg55
I3
sg56
I3
sg52
g159
sVX
I6
sg57
g139
sg58
g137
sg59
g135
sg60
g211
stRp1622
ag1
(g1554
g1502
(dp1623
g51
g190
sVY
I2
sg53
I4
sg54
g191
sg55
I7
sg56
I7
sg52
g135
sVX
I2
sg57
g126
sg58
g139
sg59
g137
sg60
g194
stRp1624
ag1
(g1554
g1502
(dp1625
g51
g199
sVY
I2
sg53
I4
sg54
g200
sg55
I1
sg56
I1
sg52
g139
sVX
I8
sg57
g159
sg58
g123
sg59
g135
sg60
g194
stRp1626
ag1
(g1554
g1502
(dp1627
g51
g233
sVY
I2
sg53
I4
sg54
g234
sg55
I5
sg56
I5
sg52
g135
sVX
I2
sg57
g137
sg58
g124
sg59
g140
sg60
g141
stRp1628
ag1
(g1554
g1502
(dp1629
g51
g133
sVY
I2
sg53
I4
sg54
g134
sg55
I7
sg56
I7
sg52
g137
sVX
I2
sg57
g135
sg58
g139
sg59
g140
sg60
g141
stRp1630
asg1567
Nsg1568
I1
sg1569
I18
sg1570
I0
sg1571
I18
sg1572
I01
sbag1
(g1490
g3
NtRp1631
(dp1632
g1493
Nsg1494
(lp1633
sg1496
I150444688
sg10
g1576
sg6
g1498
sg1499
I1
sg24
I01
sg25
g26
sg1500
g1
(g1501
g1502
(dp1634
g21
g1519
(g1520
g1505
g1521
S'b'
tRp1635
(I1
(I18
I1
tg1523
I00
S'\x00\x00\x80?\x00\x00\x80?\x00\x00\x80?\x00\x00\x80?\x00\x00\x80?\x00\x00\x80?\x00\x00\x80?\x00\x00\x80?\x00\x00\x80?\x00\x00\x80?\x00\x00\x80?\x00\x00\x80?\x00\x00\x80?\x00\x00\x00\x00\x00\x00\x80?\x00\x00\x00\x00\x00\x00\x80?\x00\x00\x80?'
S'\x00\x00\x00\x00\x00\x00\x00\x00\x00\x00\x00\x00\x00\x00\x00\x00\x00\x00'
Ntbsg19
g1504
(g1505
(I0
tS'b'
tRp1636
(I1
(I18
I1
tg1508
I00
(lp1637
g447
ag307
ag316
ag374
ag431
ag337
ag382
ag439
ag355
ag415
ag400
ag289
ag364
aNag423
aNag327
ag391
atbsg23
g1519
(g1520
g1505
g1521
S'b'
tRp1638
(I1
(I18
I1
tg1523
I00
S'\x8d\xac\xbc?\x8f\xc6\xe1?U\x16\xb3?!Y#@\xa0\xd7\xb2?\x9d\x9f\x82@\x88\x9d0AN\xbeg@\x8c\xd0\x87@\xaa\x0e\xec?\x7f\xa0\x03A!\x18\xbe@\x03.\x05A\x00\x00\x00\x00\x82\x80\xce@\x00\x00\x00\x00\x88\xea\xf9@\x10ILA'
S'\x00\x00\x00\x00\x00\x00\x00\x00\x00\x00\x00\x00\x00\x01\x00\x01\x00\x00'
Ntbsg1518
g1519
(g1520
g1505
g1521
S'b'
tRp1639
(I1
(I18
I1
tg1523
I00
S'\x00\x00\x80?\x00\x00\x80?\x00\x00\x80?\x00\x00\x80?\x00\x00\x80?\x00\x00\x80?\x00\x00\x80?\x00\x00\x80?\x00\x00\x80?\x00\x00\x80?\x00\x00\x80?\x00\x00\x80?\x00\x00\x80?\x00\x00\x80?\x00\x00\x80?\x00\x00\x80?\x00\x00\x80?\x00\x00\x80?'
S'\x00\x00\x00\x00\x00\x00\x00\x00\x00\x00\x00\x00\x00\x00\x00\x00\x00\x00'
Ntbsg20
g1504
(g1505
(I0
tS'b'
tRp1640
(I1
(I18
I1
tg1508
I00
(lp1641
S'2'
aS'3'
aS'1'
aS'6'
aS'9'
aS'4'
aS'6'
aS'3'
aS'7'
aS'1'
aS'8'
aS'8'
aS'8'
aNaS'8'
aNaS'6'
aS'6'
atbsg1532
g1519
(g1520
g1505
g1521
S'b'
tRp1642
(I1
(I18
I1
tg1523
I00
S'\x00\x00\x88A\x00\x00\x80?\x00\x00\x00@\x00\x00\x00A\x00\x00pA\x00\x00\x80@\x00\x00\x10A\x00\x00\x80A\x00\x00\xc0@\x00\x00PA\x00\x000A\x00\x00\x00\x00\x00\x00\xe0@\x00\x00@A\x00\x00`A\x00\x00\xa0@\x00\x00@@\x00\x00 A'
S'\x00\x00\x00\x00\x00\x00\x00\x00\x00\x00\x00\x00\x00\x00\x00\x00\x00\x00'
Ntbsg22
g1519
(g1520
g1505
g1521
S'b'
tRp1643
(I1
(I18
I1
tg1523
I00
S':\xa3\x91@5\x84,@\xdc\xb0a@\x9b\x11$@\x1df\xa2@\xf9\xb8\x86@>\xb0&A!QT@\xbcD\xaa@\xdeS\x81@\x92\xe9\x84AM\xd2iA=\xdf"A\x00\x00\x00\x00\xb4\x17cA\x00\x00\x00\x00\xa4\x06WA@\xdb3A'
S'\x00\x00\x00\x00\x00\x00\x00\x00\x00\x00\x00\x00\x00\x01\x00\x01\x00\x00'
NtbstRp1644
(dp1645
g1537
(dp1646
g1518
I01
sg20
I00
sg22
I01
sg21
I01
sg19
I00
sg23
I01
sg1532
I01
ssg1539
g1631
sg1540
(lp1647
g1518
ag1532
ag19
ag22
ag20
ag21
ag23
asg1542
(lp1648
I18
aI1
asbsg1544
g1545
sg1546
g1504
(g1505
(I0
tS'b'
tRp1649
(I1
(I18
I1
tg1508
I00
(lp1650
I11
aI1
aI2
aI16
aI5
aI15
aI8
aI12
aI3
aI6
aI17
aI10
aI13
aI9
aI14
aI4
aI7
aI0
atbsg1549
I01
sg1550
I1
sg1551
I-1
sg1552
(lp1651
g1
(g1554
g1502
(dp1652
g282
g445
sVY
I2
sg284
I2
sg285
g446
sg293
I2
sg290
I2
sg291
g326
sVX
I3
sg287
I0
sg295
g317
sg297
I0
sg299
g309
stRp1653
ag1
(g1554
g1502
(dp1654
g282
g305
sVY
I2
sg284
I2
sg285
g306
sg293
I3
sg290
I3
sg291
g292
sVX
I6
sg287
I0
sg295
g296
sg297
I0
sg299
g309
stRp1655
ag1
(g1554
g1502
(dp1656
g282
g314
sVY
I4
sg284
I2
sg285
g315
sg293
I1
sg290
I1
sg291
g317
sVX
I8
sg287
I0
sg295
g292
sg297
I0
sg299
g319
stRp1657
ag1
(g1554
g1502
(dp1658
g282
g372
sVY
I2
sg284
I2
sg285
g373
sg293
I6
sg290
I6
sg291
g365
sVX
I3
sg287
I0
sg295
g326
sg297
I0
sg299
g319
stRp1659
ag1
(g1554
g1502
(dp1660
g282
g429
sVY
I8
sg284
I3
sg285
g430
sg293
I9
sg290
I9
sg291
g329
sVX
I6
sg287
g347
sg295
g365
sg297
I0
sg299
g339
stRp1661
ag1
(g1554
g1502
(dp1662
g282
g335
sVY
I2
sg284
I3
sg285
g336
sg293
I4
sg290
I4
sg291
g292
sVX
I3
sg287
g288
sg295
g317
sg297
I0
sg299
g339
stRp1663
ag1
(g1554
g1502
(dp1664
g282
g380
sVY
I3
sg284
I3
sg285
g381
sg293
I6
sg290
I6
sg291
g365
sVX
I3
sg287
g288
sg295
g329
sg297
I0
sg299
g384
stRp1665
ag1
(g1554
g1502
(dp1666
g282
g437
sVY
I2
sg284
I3
sg285
g438
sg293
I3
sg290
I3
sg291
g296
sVX
I8
sg287
g329
sg295
g326
sg297
I0
sg299
g384
stRp1667
ag1
(g1554
g1502
(dp1668
g282
g353
sVY
I3
sg284
I3
sg285
g354
sg293
I7
sg290
I7
sg291
g288
sVX
I6
sg287
g317
sg295
g326
sg297
I0
sg299
g357
stRp1669
ag1
(g1554
g1502
(dp1670
g282
g413
sVY
I3
sg284
I3
sg285
g414
sg293
I1
sg290
I1
sg291
g329
sVX
I3
sg287
g365
sg295
g347
sg297
I0
sg299
g357
stRp1671
ag1
(g1554
g1502
(dp1672
g282
g398
sVY
I6
sg284
I4
sg285
g399
sg293
I8
sg290
I8
sg291
g298
sVX
I6
sg287
g292
sg295
g365
sg297
g347
sg299
g300
stRp1673
ag1
(g1554
g1502
(dp1674
g282
g283
sVY
I9
sg284
I4
sg285
g286
sg293
I8
sg290
I8
sg291
g292
sVX
I3
sg287
g288
sg295
g296
sg297
g298
sg299
g300
stRp1675
ag1
(g1554
g1502
(dp1676
g282
g362
sVY
I2
sg284
I4
sg285
g363
sg293
I8
sg290
I8
sg291
g365
sVX
I3
sg287
g326
sg295
g298
sg297
g347
sg299
g367
stRp1677
ag1
(g1554
g1502
(dp1678
g282
g406
sVY
I3
sg284
I4
sg285
g407
sg293
I2
sg290
I2
sg291
g393
sVX
I2
sg287
g298
sg295
g347
sg297
g292
sg299
g367
stRp1679
ag1
(g1554
g1502
(dp1680
g282
g421
sVY
I7
sg284
I4
sg285
g422
sg293
I8
sg290
I8
sg291
g298
sVX
I6
sg287
g365
sg295
g347
sg297
g292
sg299
g348
stRp1681
ag1
(g1554
g1502
(dp1682
g282
g344
sVY
I9
sg284
I4
sg285
g345
sg293
I1
sg290
I1
sg291
g326
sVX
I9
sg287
g317
sg295
g347
sg297
g298
sg299
g348
stRp1683
ag1
(g1554
g1502
(dp1684
g282
g324
sVY
I3
sg284
I4
sg285
g325
sg293
I6
sg290
I6
sg291
g288
sVX
I9
sg287
g326
sg295
g329
sg297
g317
sg299
g330
stRp1685
ag1
(g1554
g1502
(dp1686
g282
g389
sVY
I4
sg284
I4
sg285
g390
sg293
I6
sg290
I6
sg291
g298
sVX
I2
sg287
g326
sg295
g347
sg297
g393
sg299
g330
stRp1687
asg1567
Nsg1568
I0
sg1569
I18
sg1570
I0
sg1571
I18
sg1572
I01
sbag1
(g1490
g3
NtRp1688
(dp1689
g1493
Nsg1494
(lp1690
sg1496
I150444688
sg10
g1576
sg6
g1498
sg1499
I1
sg24
I01
sg25
g26
sg1500
g1
(g1501
g1502
(dp1691
g21
g1519
(g1520
g1505
g1521
S'b'
tRp1692
(I1
(I18
I1
tg1523
I00
S'\x00\x00\x80?\x00\x00\x80?\x00\x00\x80?\x00\x00\x80?\x00\x00\x00\x00\x00\x00\x80?\x00\x00\x80?\x00\x00\x80?\x00\x00\x80?\x00\x00\x80?\x00\x00\x80?\x00\x00\x00\x00\x00\x00\x80?\x00\x00\x80?\x00\x00\x80?\x00\x00\x80?\x00\x00\x00\x00\x00\x00\x80?'
S'\x00\x00\x00\x00\x00\x00\x00\x00\x00\x00\x00\x00\x00\x00\x00\x00\x00\x00'
Ntbsg19
g1504
(g1505
(I0
tS'b'
tRp1693
(I1
(I18
I1
tg1508
I00
(lp1694
g508
ag517
ag604
ag570
ag460
ag554
ag526
ag537
ag587
ag490
ag595
ag612
ag562
ag478
ag545
ag579
ag620
ag499
atbsg23
g1519
(g1520
g1505
g1521
S'b'
tRp1695
(I1
(I18
I1
tg1523
I00
S"\xaf\xae\xb6??\xe7\xb8?\xa0G\xce?\\\xd8\xb8?\xcb\xd3\x83@q\xce\xef?\x02\x96g@\xe5\x0b\x97@\xe5\x94\x85@\xd8\xd6\x9a@\x9b\\\xcb@>\xaa\xd7@\\\x16$@\xb3{\xe3@'r\xb4@\x0eL\xc9@k\xb2\xfc@\x12g\x19A"
S'\x00\x00\x00\x00\x00\x00\x00\x00\x00\x00\x00\x00\x00\x00\x00\x00\x00\x00'
Ntbsg1518
g1519
(g1520
g1505
g1521
S'b'
tRp1696
(I1
(I18
I1
tg1523
I00
S'\x00\x00\x80?\x00\x00\x80?\x00\x00\x80?\x00\x00\x80?\x00\x00\x80?\x00\x00\x80?\x00\x00\x80?\x00\x00\x80?\x00\x00\x80?\x00\x00\x80?\x00\x00\x80?\x00\x00\x80?\x00\x00\x80?\x00\x00\x80?\x00\x00\x80?\x00\x00\x80?\x00\x00\x80?\x00\x00\x80?'
S'\x00\x00\x00\x00\x00\x00\x00\x00\x00\x00\x00\x00\x00\x00\x00\x00\x00\x00'
Ntbsg20
g1504
(g1505
(I0
tS'b'
tRp1697
(I1
(I18
I1
tg1508
I00
(lp1698
S'4'
aS'6'
aS'3'
aS'1'
aS'1'
aS'5'
aS'5'
aS'5'
aS'8'
aS'3'
aS'3'
aS'8'
aS'4'
aS'3'
aS'8'
aS'6'
aS'3'
aS'6'
atbsg1532
g1519
(g1520
g1505
g1521
S'b'
tRp1699
(I1
(I18
I1
tg1523
I00
S'\x00\x00\x80@\x00\x00\xa0@\x00\x00pA\x00\x000A\x00\x00\x00\x00\x00\x00\x10A\x00\x00\xc0@\x00\x00\xe0@\x00\x00PA\x00\x00\x00@\x00\x00`A\x00\x00\x80A\x00\x00 A\x00\x00\x80?\x00\x00\x00A\x00\x00@A\x00\x00\x88A\x00\x00@@'
S'\x00\x00\x00\x00\x00\x00\x00\x00\x00\x00\x00\x00\x00\x00\x00\x00\x00\x00'
Ntbsg22
g1519
(g1520
g1505
g1521
S'b'
tRp1700
(I1
(I18
I1
tg1523
I00
S'\xfa\x82\t@\xe1\xeb\xb8?\x1b\xbf\xd5?3o\x05@\xba\x83\xc9@\xf0D\x98@T\x86g@\x1a\x8d\xce@\xfa\x93\x03A\xc3\x97\x9a@\xc5\xd3HA\x0b\xdfMAmX\x9b@\xbe\xefhA\xb8\x99\xc0@\x8b\x15\x02AR{^A\x17\r\x96A'
S'\x00\x00\x00\x00\x00\x00\x00\x00\x00\x00\x00\x00\x00\x00\x00\x00\x00\x00'
NtbstRp1701
(dp1702
g1537
(dp1703
g1518
I01
sg20
I00
sg22
I01
sg21
I01
sg19
I00
sg23
I01
sg1532
I01
ssg1539
g1688
sg1540
(lp1704
g1518
ag1532
ag19
ag22
ag20
ag21
ag23
asg1542
(lp1705
I18
aI1
asbsg1544
g1545
sg1546
g1504
(g1505
(I0
tS'b'
tRp1706
(I1
(I18
I1
tg1508
I00
(lp1707
I4
aI13
aI9
aI17
aI0
aI1
aI6
aI7
aI14
aI5
aI12
aI3
aI15
aI8
aI10
aI2
aI11
aI16
atbsg1549
I01
sg1550
I1
sg1551
I-1
sg1552
(lp1708
g1
(g1554
g1502
(dp1709
g453
g506
sVY
I2
sg455
I2
sg456
g507
sg464
I4
sg461
I4
sg462
g463
sVX
I3
sg458
I0
sg466
g467
sg468
I0
sg469
g510
stRp1710
ag1
(g1554
g1502
(dp1711
g453
g515
sVY
I2
sg455
I2
sg456
g516
sg464
I6
sg461
I6
sg462
g518
sVX
I2
sg458
I0
sg466
g467
sg468
I0
sg469
g510
stRp1712
ag1
(g1554
g1502
(dp1713
g453
g602
sVY
I5
sg455
I2
sg456
g603
sg464
I3
sg461
I3
sg462
g527
sVX
I4
sg458
I0
sg466
g529
sg468
I0
sg469
g572
stRp1714
ag1
(g1554
g1502
(dp1715
g453
g568
sVY
I2
sg455
I2
sg456
g569
sg464
I1
sg461
I1
sg462
g479
sVX
I5
sg458
I0
sg466
g529
sg468
I0
sg469
g572
stRp1716
ag1
(g1554
g1502
(dp1717
g453
g454
sVY
I3
sg455
I3
sg456
g457
sg464
I9
sg461
I9
sg462
g463
sVX
I8
sg458
g459
sg466
g467
sg468
I0
sg469
g470
stRp1718
ag1
(g1554
g1502
(dp1719
g453
g552
sVY
I5
sg455
I3
sg456
g553
sg464
I5
sg461
I5
sg462
g529
sVX
I6
sg458
g459
sg466
g467
sg468
I0
sg469
g470
stRp1720
ag1
(g1554
g1502
(dp1721
g453
g524
sVY
I7
sg455
I3
sg456
g525
sg464
I5
sg461
I5
sg462
g527
sVX
I7
sg458
g518
sg466
g529
sg468
I0
sg469
g530
stRp1722
ag1
(g1554
g1502
(dp1723
g453
g535
sVY
I5
sg455
I3
sg456
g536
sg464
I5
sg461
I5
sg462
g467
sVX
I4
sg458
g463
sg466
g529
sg468
I0
sg469
g530
stRp1724
ag1
(g1554
g1502
(dp1725
g453
g585
sVY
I5
sg455
I3
sg456
g586
sg464
I8
sg461
I8
sg462
g463
sVX
I5
sg458
g467
sg466
g529
sg468
I0
sg469
g492
stRp1726
ag1
(g1554
g1502
(dp1727
g453
g487
sVY
I2
sg455
I3
sg456
g488
sg464
I3
sg461
I3
sg462
g459
sVX
I4
sg458
g489
sg466
g481
sg468
I0
sg469
g492
stRp1728
ag1
(g1554
g1502
(dp1729
g453
g593
sVY
I5
sg455
I4
sg456
g594
sg464
I3
sg461
I3
sg462
g459
sVX
I5
sg458
g518
sg466
g479
sg468
g481
sg469
g597
stRp1730
ag1
(g1554
g1502
(dp1731
g453
g610
sVY
I3
sg455
I4
sg456
g611
sg464
I9
sg461
I9
sg462
g518
sVX
I3
sg458
g529
sg466
g467
sg468
g477
sg469
g597
stRp1732
ag1
(g1554
g1502
(dp1733
g453
g560
sVY
I6
sg455
I4
sg456
g561
sg464
I4
sg461
I4
sg462
g489
sVX
I3
sg458
g481
sg466
g518
sg468
g477
sg469
g482
stRp1734
ag1
(g1554
g1502
(dp1735
g453
g475
sVY
I3
sg455
I4
sg456
g476
sg464
I3
sg461
I3
sg462
g479
sVX
I3
sg458
g477
sg466
g481
sg468
g463
sg469
g482
stRp1736
ag1
(g1554
g1502
(dp1737
g453
g543
sVY
I2
sg455
I4
sg456
g544
sg464
I8
sg461
I8
sg462
g477
sVX
I9
sg458
g527
sg466
g529
sg468
g518
sg469
g547
stRp1738
ag1
(g1554
g1502
(dp1739
g453
g577
sVY
I3
sg455
I4
sg456
g578
sg464
I6
sg461
I6
sg462
g459
sVX
I2
sg458
g527
sg466
g481
sg468
g463
sg469
g547
stRp1740
ag1
(g1554
g1502
(dp1741
g453
g618
sVY
I2
sg455
I4
sg456
g619
sg464
I1
sg461
I1
sg462
g518
sVX
I8
sg458
g459
sg466
g529
sg468
g489
sg469
g501
stRp1742
ag1
(g1554
g1502
(dp1743
g453
g497
sVY
I2
sg455
I4
sg456
g498
sg464
I6
sg461
I6
sg462
g463
sVX
I3
sg458
g459
sg466
g481
sg468
g467
sg469
g501
stRp1744
asg1567
Nsg1568
I16
sg1569
I18
sg1570
I0
sg1571
I18
sg1572
I01
sbag1
(g1490
g3
NtRp1745
(dp1746
g1493
Nsg1494
(lp1747
sg1496
I150444688
sg10
g1576
sg6
g1498
sg1499
I1
sg24
I01
sg25
g26
sg1500
g1
(g1501
g1502
(dp1748
g21
g1519
(g1520
g1505
g1521
S'b'
tRp1749
(I1
(I18
I1
tg1523
I00
S'\x00\x00\x80?\x00\x00\x80?\x00\x00\x80?\x00\x00\x80?\x00\x00\x80?\x00\x00\x80?\x00\x00\x00\x00\x00\x00\x80?\x00\x00\x80?\x00\x00\x80?\x00\x00\x00\x00\x00\x00\x80?\x00\x00\x80?\x00\x00\x80?\x00\x00\x80?\x00\x00\x80?\x00\x00\x80?\x00\x00\x80?'
S'\x00\x00\x00\x00\x00\x00\x00\x00\x00\x00\x00\x00\x00\x00\x00\x00\x00\x00'
Ntbsg19
g1504
(g1505
(I0
tS'b'
tRp1750
(I1
(I18
I1
tg1508
I00
(lp1751
g727
ag768
ag776
ag793
ag662
ag719
ag652
ag760
ag752
ag702
ag672
ag785
ag711
ag681
ag633
ag736
ag744
ag691
atbsg23
g1519
(g1520
g1505
g1521
S'b'
tRp1752
(I1
(I18
I1
tg1523
I00
S'|\t\xc9?\x95\xb5\xe5?\x931$@Og\xc7?\xd0\xe9\xce@\x9b\xcas@\x00\x00\x00\x00\x1en\x8f@Q\x90\xbd@\xdcD5@\x00\x00\x00\x00\xe5a\xc7@+\t\x0cAn\xb5\x12A|8\xec@\xa4\xd9Z@\xe0\xc6\xcb@\xec\x84\xe4@'
S'\x00\x00\x00\x00\x00\x00\x01\x00\x00\x00\x01\x00\x00\x00\x00\x00\x00\x00'
Ntbsg1518
g1519
(g1520
g1505
g1521
S'b'
tRp1753
(I1
(I18
I1
tg1523
I00
S'\x00\x00\x80?\x00\x00\x80?\x00\x00\x80?\x00\x00\x80?\x00\x00\x80?\x00\x00\x80?\x00\x00\x80?\x00\x00\x80?\x00\x00\x80?\x00\x00\x80?\x00\x00\x80?\x00\x00\x80?\x00\x00\x80?\x00\x00\x80?\x00\x00\x80?\x00\x00\x80?\x00\x00\x80?\x00\x00\x80?'
S'\x00\x00\x00\x00\x00\x00\x00\x00\x00\x00\x00\x00\x00\x00\x00\x00\x00\x00'
Ntbsg20
g1504
(g1505
(I0
tS'b'
tRp1754
(I1
(I18
I1
tg1508
I00
(lp1755
S'7'
aS'2'
aS'8'
aS'8'
aS'4'
aS'4'
aNaS'2'
aS'5'
aS'1'
aNaS'8'
aS'3'
aS'4'
aS'7'
aS'6'
aS'8'
aS'3'
atbsg1532
g1519
(g1520
g1505
g1521
S'b'
tRp1756
(I1
(I18
I1
tg1523
I00
S'\x00\x00\x10A\x00\x00`A\x00\x00pA\x00\x00\x88A\x00\x00\x00@\x00\x00\x00A\x00\x00\x80?\x00\x00PA\x00\x00@A\x00\x00\xc0@\x00\x00@@\x00\x00\x80A\x00\x00\xe0@\x00\x00\x80@\x00\x00\x00\x00\x00\x00 A\x00\x000A\x00\x00\xa0@'
S'\x00\x00\x00\x00\x00\x00\x00\x00\x00\x00\x00\x00\x00\x00\x00\x00\x00\x00'
Ntbsg22
g1519
(g1520
g1505
g1521
S'b'
tRp1757
(I1
(I18
I1
tg1523
I00
S'\xd0\xd9\x0e@\xf5\x83=@\xc1\xda\xd5?\xd0\xb9\xe3?\xcc\x13\xe3@\xab\xda\x00A\xd6\xbc\x89@\xb1DFA\xb0?\xac@\xc7\xcb\x98@i\xfc\x98A-\xf9QA\x03\xae\x17A\x19\xb2xA\nq\\AW=5A+CHA\xfengA'
S'\x00\x00\x00\x00\x00\x00\x00\x00\x00\x00\x00\x00\x00\x00\x00\x00\x00\x00'
NtbstRp1758
(dp1759
g1537
(dp1760
g1518
I01
sg20
I00
sg22
I01
sg21
I01
sg19
I00
sg23
I01
sg1532
I01
ssg1539
g1745
sg1540
(lp1761
g1518
ag1532
ag19
ag22
ag20
ag21
ag23
asg1542
(lp1762
I18
aI1
asbsg1544
g1545
sg1546
g1504
(g1505
(I0
tS'b'
tRp1763
(I1
(I18
I1
tg1508
I00
(lp1764
I14
aI6
aI4
aI10
aI13
aI17
aI9
aI12
aI5
aI0
aI15
aI16
aI8
aI7
aI1
aI2
aI11
aI3
atbsg1549
I01
sg1550
I1
sg1551
I-1
sg1552
(lp1765
g1
(g1554
g1502
(dp1766
g626
g725
sVY
I6
sg628
I2
sg629
g726
sg637
I7
sg634
I7
sg635
g640
sVX
I3
sg631
I0
sg639
g632
sg641
I0
sg643
g729
stRp1767
ag1
(g1554
g1502
(dp1768
g626
g766
sVY
I4
sg628
I2
sg629
g767
sg637
I2
sg634
I2
sg635
g636
sVX
I5
sg631
I0
sg639
g694
sg641
I0
sg643
g729
stRp1769
ag1
(g1554
g1502
(dp1770
g626
g774
sVY
I2
sg628
I2
sg629
g775
sg637
I8
sg634
I8
sg635
g632
sVX
I2
sg631
I0
sg639
g642
sg641
I0
sg643
g778
stRp1771
ag1
(g1554
g1502
(dp1772
g626
g791
sVY
I2
sg628
I2
sg629
g792
sg637
I8
sg634
I8
sg635
g682
sVX
I2
sg631
I0
sg639
g642
sg641
I0
sg643
g778
stRp1773
ag1
(g1554
g1502
(dp1774
g626
g659
sVY
I3
sg628
I3
sg629
g660
sg637
I4
sg634
I4
sg635
g651
sVX
I8
sg631
g661
sg639
g664
sg641
I0
sg643
g665
stRp1775
ag1
(g1554
g1502
(dp1776
g626
g717
sVY
I2
sg628
I3
sg629
g718
sg637
I4
sg634
I4
sg635
g640
sVX
I3
sg631
g642
sg639
g682
sg641
I0
sg643
g665
stRp1777
ag1
(g1554
g1502
(dp1778
g626
g649
sVY
I2
sg628
I3
sg629
g650
sg637
I9
sg634
I9
sg635
g632
sVX
I2
sg631
g651
sg639
g636
sg641
I0
sg643
g654
stRp1779
ag1
(g1554
g1502
(dp1780
g626
g758
sVY
I2
sg628
I3
sg629
g759
sg637
I2
sg634
I2
sg635
g694
sVX
I9
sg631
g640
sg639
g636
sg641
I0
sg643
g654
stRp1781
ag1
(g1554
g1502
(dp1782
g626
g750
sVY
I4
sg628
I3
sg629
g751
sg637
I5
sg634
I5
sg635
g651
sVX
I8
sg631
g664
sg639
g692
sg641
I0
sg643
g704
stRp1783
ag1
(g1554
g1502
(dp1784
g626
g700
sVY
I6
sg628
I3
sg629
g701
sg637
I1
sg634
I1
sg635
g636
sVX
I8
sg631
g694
sg639
g640
sg641
I0
sg643
g704
stRp1785
ag1
(g1554
g1502
(dp1786
g626
g670
sVY
I3
sg628
I4
sg629
g671
sg637
I2
sg634
I2
sg635
g642
sVX
I6
sg631
g636
sg639
g664
sg641
g640
sg643
g674
stRp1787
ag1
(g1554
g1502
(dp1788
g626
g783
sVY
I2
sg628
I4
sg629
g784
sg637
I8
sg634
I8
sg635
g636
sVX
I2
sg631
g661
sg639
g682
sg641
g651
sg643
g674
stRp1789
ag1
(g1554
g1502
(dp1790
g626
g709
sVY
I3
sg628
I4
sg629
g710
sg637
I3
sg634
I3
sg635
g664
sVX
I4
sg631
g651
sg639
g636
sg641
g661
sg643
g684
stRp1791
ag1
(g1554
g1502
(dp1792
g626
g679
sVY
I3
sg628
I4
sg629
g680
sg637
I4
sg634
I4
sg635
g682
sVX
I7
sg631
g661
sg639
g640
sg641
g636
sg643
g684
stRp1793
ag1
(g1554
g1502
(dp1794
g626
g627
sVY
I4
sg628
I4
sg629
g630
sg637
I7
sg634
I7
sg635
g636
sVX
I8
sg631
g632
sg639
g640
sg641
g642
sg643
g644
stRp1795
ag1
(g1554
g1502
(dp1796
g626
g734
sVY
I3
sg628
I4
sg629
g735
sg637
I6
sg634
I6
sg635
g642
sVX
I5
sg631
g694
sg639
g651
sg641
g692
sg643
g644
stRp1797
ag1
(g1554
g1502
(dp1798
g626
g742
sVY
I2
sg628
I4
sg629
g743
sg637
I8
sg634
I8
sg635
g651
sVX
I4
sg631
g661
sg639
g692
sg641
g632
sg643
g695
stRp1799
ag1
(g1554
g1502
(dp1800
g626
g689
sVY
I5
sg628
I4
sg629
g690
sg637
I3
sg634
I3
sg635
g692
sVX
I9
sg631
g661
sg639
g651
sg641
g694
sg643
g695
stRp1801
asg1567
Nsg1568
I3
sg1569
I18
sg1570
I0
sg1571
I18
sg1572
I01
sbag1
(g1490
g3
NtRp1802
(dp1803
g1493
Nsg1494
(lp1804
sg1496
I150444688
sg10
g1576
sg6
g1498
sg1499
I1
sg24
I01
sg25
g26
sg1500
g1
(g1501
g1502
(dp1805
g21
g1519
(g1520
g1505
g1521
S'b'
tRp1806
(I1
(I18
I1
tg1523
I00
S'\x00\x00\x80?\x00\x00\x80?\x00\x00\x80?\x00\x00\x80?\x00\x00\x80?\x00\x00\x80?\x00\x00\x80?\x00\x00\x80?\x00\x00\x80?\x00\x00\x80?\x00\x00\x80?\x00\x00\x80?\x00\x00\x80?\x00\x00\x80?\x00\x00\x80?\x00\x00\x80?\x00\x00\x80?\x00\x00\x80?'
S'\x00\x00\x00\x00\x00\x00\x00\x00\x00\x00\x00\x00\x00\x00\x00\x00\x00\x00'
Ntbsg19
g1504
(g1505
(I0
tS'b'
tRp1807
(I1
(I18
I1
tg1508
I00
(lp1808
g855
ag873
ag942
ag916
ag824
ag966
ag864
ag925
ag958
ag835
ag846
ag933
ag891
ag806
ag907
ag950
ag882
ag899
atbsg23
g1519
(g1520
g1505
g1521
S'b'
tRp1809
(I1
(I18
I1
tg1523
I00
S'L,\xbb?~\xe2\xf1?\x90\xfd\xa7?\x91D\xee?\xbe\x05s@\x06\x86\x8c@\xaf\xdfi@\t\xa1q@@Y5@\x81\x82f@a\x16=Ae\xdc\x11@\xb9dZ@(\x14\xae@z/OA\x85\x04\x8f@\xecC\x1b@pER@'
S'\x00\x00\x00\x00\x00\x00\x00\x00\x00\x00\x00\x00\x00\x00\x00\x00\x00\x00'
Ntbsg1518
g1519
(g1520
g1505
g1521
S'b'
tRp1810
(I1
(I18
I1
tg1523
I00
S'\x00\x00\x80?\x00\x00\x80?\x00\x00\x80?\x00\x00\x80?\x00\x00\x80?\x00\x00\x80?\x00\x00\x80?\x00\x00\x80?\x00\x00\x80?\x00\x00\x80?\x00\x00\x80?\x00\x00\x80?\x00\x00\x80?\x00\x00\x80?\x00\x00\x80?\x00\x00\x80?\x00\x00\x80?\x00\x00\x80?'
S'\x00\x00\x00\x00\x00\x00\x00\x00\x00\x00\x00\x00\x00\x00\x00\x00\x00\x00'
Ntbsg20
g1504
(g1505
(I0
tS'b'
tRp1811
(I1
(I18
I1
tg1508
I00
(lp1812
S'7'
aS'2'
aS'8'
aS'6'
aS'7'
aS'8'
aS'2'
aS'5'
aS'6'
aS'5'
aS'9'
aS'8'
aS'6'
aS'3'
aS'5'
aS'8'
aS'3'
aS'1'
atbsg1532
g1519
(g1520
g1505
g1521
S'b'
tRp1813
(I1
(I18
I1
tg1523
I00
S'\x00\x00\x80@\x00\x00\xc0@\x00\x00`A\x00\x000A\x00\x00\x80?\x00\x00\x88A\x00\x00\xa0@\x00\x00@A\x00\x00\x80A\x00\x00\x00@\x00\x00@@\x00\x00PA\x00\x00\x00A\x00\x00\x00\x00\x00\x00 A\x00\x00pA\x00\x00\xe0@\x00\x00\x10A'
S'\x00\x00\x00\x00\x00\x00\x00\x00\x00\x00\x00\x00\x00\x00\x00\x00\x00\x00'
Ntbsg22
g1519
(g1520
g1505
g1521
S'b'
tRp1814
(I1
(I18
I1
tg1523
I00
S'\xf7\x9bm@\xac\xfcM@\x10\x14\xea?\xdc?\xbc?\x0c\xfb"@q>V@5\xf4\x1eA\xd4\xceR@\xf4.W@\xcb\xa3\xe8@\xb8~\x8eA1R\xdd@j\xc4y@\xa7\xe7rA\xd6AsA\xcd*[A\xa5\x9a7A~\xcc\xc7@'
S'\x00\x00\x00\x00\x00\x00\x00\x00\x00\x00\x00\x00\x00\x00\x00\x00\x00\x00'
NtbstRp1815
(dp1816
g1537
(dp1817
g1518
I01
sg20
I00
sg22
I01
sg21
I01
sg19
I00
sg23
I01
sg1532
I01
ssg1539
g1802
sg1540
(lp1818
g1518
ag1532
ag19
ag22
ag20
ag21
ag23
asg1542
(lp1819
I18
aI1
asbsg1544
g1545
sg1546
g1504
(g1505
(I0
tS'b'
tRp1820
(I1
(I18
I1
tg1508
I00
(lp1821
I13
aI4
aI9
aI10
aI0
aI6
aI1
aI16
aI12
aI17
aI14
aI3
aI7
aI11
aI2
aI15
aI8
aI5
atbsg1549
I01
sg1550
I1
sg1551
I-1
sg1552
(lp1822
g1
(g1554
g1502
(dp1823
g799
g853
sVY
I5
sg801
I2
sg802
g854
sg810
I7
sg807
I7
sg808
g813
sVX
I3
sg804
I0
sg812
g826
sg814
I0
sg816
g857
stRp1824
ag1
(g1554
g1502
(dp1825
g799
g871
sVY
I4
sg801
I2
sg802
g872
sg810
I2
sg807
I2
sg808
g813
sVX
I9
sg804
I0
sg812
g875
sg814
I0
sg816
g857
stRp1826
ag1
(g1554
g1502
(dp1827
g799
g940
sVY
I3
sg801
I2
sg802
g941
sg810
I8
sg807
I8
sg808
g834
sVX
I3
sg804
I0
sg812
g813
sg814
I0
sg816
g918
stRp1828
ag1
(g1554
g1502
(dp1829
g799
g914
sVY
I8
sg801
I2
sg802
g915
sg810
I6
sg807
I6
sg808
g826
sVX
I4
sg804
I0
sg812
g838
sg814
I0
sg816
g918
stRp1830
ag1
(g1554
g1502
(dp1831
g799
g822
sVY
I5
sg801
I3
sg802
g823
sg810
I7
sg807
I7
sg808
g805
sVX
I2
sg804
g813
sg812
g826
sg814
I0
sg816
g827
stRp1832
ag1
(g1554
g1502
(dp1833
g799
g964
sVY
I2
sg801
I3
sg802
g965
sg810
I8
sg807
I8
sg808
g934
sVX
I4
sg804
g838
sg812
g826
sg814
I0
sg816
g827
stRp1834
ag1
(g1554
g1502
(dp1835
g799
g862
sVY
I3
sg801
I3
sg802
g863
sg810
I2
sg807
I2
sg808
g809
sVX
I3
sg804
g836
sg812
g805
sg814
I0
sg816
g866
stRp1836
ag1
(g1554
g1502
(dp1837
g799
g923
sVY
I3
sg801
I3
sg802
g924
sg810
I5
sg807
I5
sg808
g826
sVX
I2
sg804
g838
sg812
g836
sg814
I0
sg816
g866
stRp1838
ag1
(g1554
g1502
(dp1839
g799
g956
sVY
I4
sg801
I3
sg802
g957
sg810
I6
sg807
I6
sg808
g815
sVX
I5
sg804
g826
sg812
g805
sg814
I0
sg816
g839
stRp1840
ag1
(g1554
g1502
(dp1841
g799
g832
sVY
I3
sg801
I3
sg802
g833
sg810
I5
sg807
I5
sg808
g836
sVX
I3
sg804
g834
sg812
g838
sg814
I0
sg816
g839
stRp1842
ag1
(g1554
g1502
(dp1843
g799
g844
sVY
I4
sg801
I4
sg802
g845
sg810
I9
sg807
I9
sg808
g813
sVX
I9
sg804
g815
sg812
g826
sg814
g805
sg816
g848
stRp1844
ag1
(g1554
g1502
(dp1845
g799
g931
sVY
I2
sg801
I4
sg802
g932
sg810
I8
sg807
I8
sg808
g934
sVX
I2
sg804
g805
sg812
g826
sg814
g813
sg816
g848
stRp1846
ag1
(g1554
g1502
(dp1847
g799
g889
sVY
I6
sg801
I4
sg802
g890
sg810
I6
sg807
I6
sg808
g826
sVX
I6
sg804
g815
sg812
g813
sg814
g838
sg816
g817
stRp1848
ag1
(g1554
g1502
(dp1849
g799
g800
sVY
I2
sg801
I4
sg802
g803
sg810
I3
sg807
I3
sg808
g809
sVX
I9
sg804
g805
sg812
g813
sg814
g815
sg816
g817
stRp1850
ag1
(g1554
g1502
(dp1851
g799
g905
sVY
I3
sg801
I4
sg802
g906
sg810
I5
sg807
I5
sg808
g805
sVX
I3
sg804
g834
sg812
g813
sg814
g815
sg816
g909
stRp1852
ag1
(g1554
g1502
(dp1853
g799
g948
sVY
I3
sg801
I4
sg802
g949
sg810
I8
sg807
I8
sg808
g934
sVX
I3
sg804
g809
sg812
g813
sg814
g805
sg816
g909
stRp1854
ag1
(g1554
g1502
(dp1855
g799
g880
sVY
I4
sg801
I4
sg802
g881
sg810
I3
sg807
I3
sg808
g838
sVX
I3
sg804
g815
sg812
g836
sg814
g834
sg816
g884
stRp1856
ag1
(g1554
g1502
(dp1857
g799
g897
sVY
I2
sg801
I4
sg802
g898
sg810
I1
sg807
I1
sg808
g838
sVX
I7
sg804
g836
sg812
g815
sg814
g809
sg816
g884
stRp1858
asg1567
Nsg1568
I5
sg1569
I18
sg1570
I0
sg1571
I18
sg1572
I01
sbag1
(g1490
g3
NtRp1859
(dp1860
g1493
Nsg1494
(lp1861
sg1496
I150444688
sg10
g1576
sg6
g1498
sg1499
I1
sg24
I01
sg25
g26
sg1500
g1
(g1501
g1502
(dp1862
g21
g1519
(g1520
g1505
g1521
S'b'
tRp1863
(I1
(I18
I1
tg1523
I00
S'\x00\x00\x80?\x00\x00\x80?\x00\x00\x80?\x00\x00\x80?\x00\x00\x80?\x00\x00\x80?\x00\x00\x80?\x00\x00\x80?\x00\x00\x80?\x00\x00\x80?\x00\x00\x80?\x00\x00\x80?\x00\x00\x80?\x00\x00\x80?\x00\x00\x80?\x00\x00\x80?\x00\x00\x80?\x00\x00\x80?'
S'\x00\x00\x00\x00\x00\x00\x00\x00\x00\x00\x00\x00\x00\x00\x00\x00\x00\x00'
Ntbsg19
g1504
(g1505
(I0
tS'b'
tRp1864
(I1
(I18
I1
tg1508
I00
(lp1865
g1057
ag1074
ag1090
ag1028
ag1106
ag997
ag1098
ag1048
ag1066
ag979
ag1008
ag1122
ag1114
ag1038
ag1130
ag1139
ag1082
ag1019
atbsg23
g1519
(g1520
g1505
g1521
S'b'
tRp1866
(I1
(I18
I1
tg1523
I00
S'\xba\xd1\x10@\xf6,\x84@"!\xbf?w\t\xa6?pL2@|\xd6\x18@oL\xf6?e\xf9MA+.@@\x96\xa0b@D\x82^@\x0cj\x82A\xc1\xdb\x88AA\xd1\x1eA\x99\x85\x11A2v\x11A1\xeb\xc7@`\x93\x90@'
S'\x00\x00\x00\x00\x00\x00\x00\x00\x00\x00\x00\x00\x00\x00\x00\x00\x00\x00'
Ntbsg1518
g1519
(g1520
g1505
g1521
S'b'
tRp1867
(I1
(I18
I1
tg1523
I00
S'\x00\x00\x80?\x00\x00\x80?\x00\x00\x80?\x00\x00\x80?\x00\x00\x80?\x00\x00\x80?\x00\x00\x80?\x00\x00\x80?\x00\x00\x80?\x00\x00\x80?\x00\x00\x80?\x00\x00\x80?\x00\x00\x80?\x00\x00\x80?\x00\x00\x80?\x00\x00\x80?\x00\x00\x80?\x00\x00\x80?'
S'\x00\x00\x00\x00\x00\x00\x00\x00\x00\x00\x00\x00\x00\x00\x00\x00\x00\x00'
Ntbsg20
g1504
(g1505
(I0
tS'b'
tRp1868
(I1
(I18
I1
tg1508
I00
(lp1869
S'1'
aS'8'
aS'4'
aS'1'
aS'3'
aS'9'
aS'1'
aS'6'
aS'6'
aS'8'
aS'8'
aS'1'
aS'6'
aS'7'
aS'5'
aS'5'
aS'5'
aS'3'
atbsg1532
g1519
(g1520
g1505
g1521
S'b'
tRp1870
(I1
(I18
I1
tg1523
I00
S'\x00\x00\xe0@\x00\x00\x10A\x00\x000A\x00\x00\x80@\x00\x00PA\x00\x00\x80?\x00\x00@A\x00\x00\xc0@\x00\x00\x00A\x00\x00\x00\x00\x00\x00\x00@\x00\x00pA\x00\x00`A\x00\x00\xa0@\x00\x00\x80A\x00\x00\x88A\x00\x00 A\x00\x00@@'
S'\x00\x00\x00\x00\x00\x00\x00\x00\x00\x00\x00\x00\x00\x00\x00\x00\x00\x00'
Ntbsg22
g1519
(g1520
g1505
g1521
S'b'
tRp1871
(I1
(I18
I1
tg1523
I00
S'< \x08@@<0@\x82\xf8\xde?d\x96\xe5?a\xe0\xad@as\xcc@]\xe3l@W\x1bw@\x99\xc5\x9f@\xcd\xd0\xa9@G\xcc\xcb@\xbf\xf1\x05A\xb5\x91TA\x9d\xa2\xd0@R\xd0\x8bA\xbc\xe9\x7fA\xc3dDA\xa4\x9a\x0cA'
S'\x00\x00\x00\x00\x00\x00\x00\x00\x00\x00\x00\x00\x00\x00\x00\x00\x00\x00'
NtbstRp1872
(dp1873
g1537
(dp1874
g1518
I01
sg20
I00
sg22
I01
sg21
I01
sg19
I00
sg23
I01
sg1532
I01
ssg1539
g1859
sg1540
(lp1875
g1518
ag1532
ag19
ag22
ag20
ag21
ag23
asg1542
(lp1876
I18
aI1
asbsg1544
g1545
sg1546
g1504
(g1505
(I0
tS'b'
tRp1877
(I1
(I18
I1
tg1508
I00
(lp1878
I9
aI5
aI10
aI17
aI3
aI13
aI7
aI0
aI8
aI1
aI16
aI2
aI6
aI4
aI12
aI11
aI14
aI15
atbsg1549
I01
sg1550
I1
sg1551
I-1
sg1552
(lp1879
g1
(g1554
g1502
(dp1880
g972
g1055
sVY
I3
sg974
I2
sg975
g1056
sg983
I1
sg980
I1
sg981
g982
sVX
I9
sg977
I0
sg985
g1029
sg987
I0
sg988
g1059
stRp1881
ag1
(g1554
g1502
(dp1882
g972
g1072
sVY
I2
sg974
I2
sg975
g1073
sg983
I8
sg980
I8
sg981
g986
sVX
I2
sg977
I0
sg985
g978
sg987
I0
sg988
g1059
stRp1883
ag1
(g1554
g1502
(dp1884
g972
g1088
sVY
I3
sg974
I2
sg975
g1089
sg983
I4
sg980
I4
sg981
g1010
sVX
I6
sg977
I0
sg985
g996
sg987
I0
sg988
g1031
stRp1885
ag1
(g1554
g1502
(dp1886
g972
g1026
sVY
I2
sg974
I2
sg975
g1027
sg983
I1
sg980
I1
sg981
g1029
sVX
I6
sg977
I0
sg985
g982
sg987
I0
sg988
g1031
stRp1887
ag1
(g1554
g1502
(dp1888
g972
g1104
sVY
I9
sg974
I3
sg975
g1105
sg983
I3
sg980
I3
sg981
g1007
sVX
I5
sg977
g1011
sg985
g1010
sg987
I0
sg988
g1000
stRp1889
ag1
(g1554
g1502
(dp1890
g972
g994
sVY
I3
sg974
I3
sg975
g995
sg983
I9
sg980
I9
sg981
g998
sVX
I5
sg977
g996
sg985
g978
sg987
I0
sg988
g1000
stRp1891
ag1
(g1554
g1502
(dp1892
g972
g1096
sVY
I2
sg974
I3
sg975
g1097
sg983
I1
sg980
I1
sg981
g1029
sVX
I7
sg977
g1011
sg985
g982
sg987
I0
sg988
g1050
stRp1893
ag1
(g1554
g1502
(dp1894
g972
g1046
sVY
I6
sg974
I3
sg975
g1047
sg983
I6
sg980
I6
sg981
g978
sVX
I6
sg977
g998
sg985
g982
sg987
I0
sg988
g1050
stRp1895
ag1
(g1554
g1502
(dp1896
g972
g1064
sVY
I2
sg974
I3
sg975
g1065
sg983
I6
sg980
I6
sg981
g1011
sVX
I2
sg977
g1039
sg985
g986
sg987
I0
sg988
g989
stRp1897
ag1
(g1554
g1502
(dp1898
g972
g973
sVY
I6
sg974
I3
sg975
g976
sg983
I8
sg980
I8
sg981
g982
sVX
I2
sg977
g978
sg985
g986
sg987
I0
sg988
g989
stRp1899
ag1
(g1554
g1502
(dp1900
g972
g1005
sVY
I4
sg974
I4
sg975
g1006
sg983
I8
sg980
I8
sg981
g986
sVX
I3
sg977
g1007
sg985
g1010
sg987
g1011
sg988
g1012
stRp1901
ag1
(g1554
g1502
(dp1902
g972
g1120
sVY
I8
sg974
I4
sg975
g1121
sg983
I1
sg980
I1
sg981
g1007
sVX
I2
sg977
g1011
sg985
g1010
sg987
g986
sg988
g1012
stRp1903
ag1
(g1554
g1502
(dp1904
g972
g1112
sVY
I5
sg974
I4
sg975
g1113
sg983
I6
sg980
I6
sg981
g1029
sVX
I4
sg977
g1007
sg985
g986
sg987
g996
sg988
g1041
stRp1905
ag1
(g1554
g1502
(dp1906
g972
g1036
sVY
I3
sg974
I4
sg975
g1037
sg983
I7
sg980
I7
sg981
g1039
sVX
I2
sg977
g998
sg985
g996
sg987
g1007
sg988
g1041
stRp1907
ag1
(g1554
g1502
(dp1908
g972
g1128
sVY
I3
sg974
I4
sg975
g1129
sg983
I5
sg980
I5
sg981
g1007
sVX
I3
sg977
g1029
sg985
g1011
sg987
g986
sg988
g1132
stRp1909
ag1
(g1554
g1502
(dp1910
g972
g1137
sVY
I4
sg974
I4
sg975
g1138
sg983
I5
sg980
I5
sg981
g1011
sVX
I8
sg977
g978
sg985
g982
sg987
g998
sg988
g1132
stRp1911
ag1
(g1554
g1502
(dp1912
g972
g1080
sVY
I2
sg974
I4
sg975
g1081
sg983
I5
sg980
I5
sg981
g1007
sVX
I6
sg977
g998
sg985
g1011
sg987
g1010
sg988
g1021
stRp1913
ag1
(g1554
g1502
(dp1914
g972
g1017
sVY
I2
sg974
I4
sg975
g1018
sg983
I3
sg980
I3
sg981
g1007
sVX
I3
sg977
g996
sg985
g998
sg987
g1010
sg988
g1021
stRp1915
asg1567
Nsg1568
I15
sg1569
I18
sg1570
I0
sg1571
I18
sg1572
I01
sbag1
(g1490
g3
NtRp1916
(dp1917
g1493
Nsg1494
(lp1918
sg1496
I150444688
sg10
g1576
sg6
g1498
sg1499
I1
sg24
I01
sg25
g26
sg1500
g1
(g1501
g1502
(dp1919
g21
g1519
(g1520
g1505
g1521
S'b'
tRp1920
(I1
(I18
I1
tg1523
I00
S'\x00\x00\x80?\x00\x00\x80?\x00\x00\x80?\x00\x00\x80?\x00\x00\x80?\x00\x00\x80?\x00\x00\x80?\x00\x00\x80?\x00\x00\x80?\x00\x00\x80?\x00\x00\x80?\x00\x00\x80?\x00\x00\x80?\x00\x00\x80?\x00\x00\x80?\x00\x00\x80?\x00\x00\x80?\x00\x00\x80?'
S'\x00\x00\x00\x00\x00\x00\x00\x00\x00\x00\x00\x00\x00\x00\x00\x00\x00\x00'
Ntbsg19
g1504
(g1505
(I0
tS'b'
tRp1921
(I1
(I18
I1
tg1508
I00
(lp1922
g1203
ag1264
ag1151
ag1230
ag1288
ag1221
ag1256
ag1238
ag1313
ag1304
ag1181
ag1272
ag1168
ag1212
ag1296
ag1247
ag1280
ag1192
atbsg23
g1519
(g1520
g1505
g1521
S'b'
tRp1923
(I1
(I18
I1
tg1523
I00
S'\xef5\xcb?\xa6\xf2\xc6?U\x88\xdf?\x8e\xe0x@$\xfd\n@\x1d\xfe\x8f@m\xa4\x84@\xdb\xb4\x16@!\xe3&@\x01%\xcf?\xc4\x8f\xe8@\xe9\xbe\x9d@<\xbf\xaa@\xe7\x89\x80@\xc7f\xa4@Z\xff\xfc?\xf2\x10\x91@6}\x88@'
S'\x00\x00\x00\x00\x00\x00\x00\x00\x00\x00\x00\x00\x00\x00\x00\x00\x00\x00'
Ntbsg1518
g1519
(g1520
g1505
g1521
S'b'
tRp1924
(I1
(I18
I1
tg1523
I00
S'\x00\x00\x80?\x00\x00\x80?\x00\x00\x80?\x00\x00\x80?\x00\x00\x80?\x00\x00\x80?\x00\x00\x80?\x00\x00\x80?\x00\x00\x80?\x00\x00\x80?\x00\x00\x80?\x00\x00\x80?\x00\x00\x80?\x00\x00\x80?\x00\x00\x80?\x00\x00\x80?\x00\x00\x80?\x00\x00\x80?'
S'\x00\x00\x00\x00\x00\x00\x00\x00\x00\x00\x00\x00\x00\x00\x00\x00\x00\x00'
Ntbsg20
g1504
(g1505
(I0
tS'b'
tRp1925
(I1
(I18
I1
tg1508
I00
(lp1926
S'8'
aS'2'
aS'2'
aS'8'
aS'1'
aS'2'
aS'1'
aS'2'
aS'8'
aS'6'
aS'7'
aS'1'
aS'9'
aS'7'
aS'3'
aS'6'
aS'5'
aS'4'
atbsg1532
g1519
(g1520
g1505
g1521
S'b'
tRp1927
(I1
(I18
I1
tg1523
I00
S'\x00\x00\x80@\x00\x000A\x00\x00\x00\x00\x00\x00\xe0@\x00\x00`A\x00\x00\xc0@\x00\x00 A\x00\x00\x00A\x00\x00\x88A\x00\x00\x80A\x00\x00\x00@\x00\x00@A\x00\x00\x80?\x00\x00\xa0@\x00\x00pA\x00\x00\x10A\x00\x00PA\x00\x00@@'
S'\x00\x00\x00\x00\x00\x00\x00\x00\x00\x00\x00\x00\x00\x00\x00\x00\x00\x00'
Ntbsg22
g1519
(g1520
g1505
g1521
S'b'
tRp1928
(I1
(I18
I1
tg1523
I00
S'l\x12\xd7?o\xfb @H\xc2\xa1@^>\xa8?I\x93k@xh\x8b@\xb1\xc8g@J_\x16A\x8c\x9b\xa7@L%l@y\x96\xc0@\xd2D\x08Aa4\x97ApFpAS6\xc8@\xde\xf5\xb9@T6EA{G5A'
S'\x00\x00\x00\x00\x00\x00\x00\x00\x00\x00\x00\x00\x00\x00\x00\x00\x00\x00'
NtbstRp1929
(dp1930
g1537
(dp1931
g1518
I01
sg20
I00
sg22
I01
sg21
I01
sg19
I00
sg23
I01
sg1532
I01
ssg1539
g1916
sg1540
(lp1932
g1518
ag1532
ag19
ag22
ag20
ag21
ag23
asg1542
(lp1933
I18
aI1
asbsg1544
g1545
sg1546
g1504
(g1505
(I0
tS'b'
tRp1934
(I1
(I18
I1
tg1508
I00
(lp1935
I2
aI12
aI10
aI17
aI0
aI13
aI5
aI3
aI7
aI15
aI6
aI1
aI11
aI16
aI4
aI14
aI9
aI8
atbsg1549
I01
sg1550
I1
sg1551
I-1
sg1552
(lp1936
g1
(g1554
g1502
(dp1937
g1145
g1201
sVY
I4
sg1147
I2
sg1148
g1202
sg1155
I8
sg1152
I8
sg1153
g1158
sVX
I2
sg1150
I0
sg1157
g1169
sg1159
I0
sg1160
g1205
stRp1938
ag1
(g1554
g1502
(dp1939
g1145
g1262
sVY
I6
sg1147
I2
sg1148
g1263
sg1155
I2
sg1152
I2
sg1153
g1158
sVX
I6
sg1150
I0
sg1157
g1195
sg1159
I0
sg1160
g1205
stRp1940
ag1
(g1554
g1502
(dp1941
g1145
g1146
sVY
I7
sg1147
I2
sg1148
g1149
sg1155
I2
sg1152
I2
sg1153
g1154
sVX
I8
sg1150
I0
sg1157
g1158
sg1159
I0
sg1160
g1161
stRp1942
ag1
(g1554
g1502
(dp1943
g1145
g1228
sVY
I4
sg1147
I2
sg1148
g1229
sg1155
I8
sg1152
I8
sg1153
g1213
sVX
I4
sg1150
I0
sg1157
g1183
sg1159
I0
sg1160
g1161
stRp1944
ag1
(g1554
g1502
(dp1945
g1145
g1286
sVY
I4
sg1147
I3
sg1148
g1287
sg1155
I1
sg1152
I1
sg1153
g1158
sVX
I6
sg1150
g1172
sg1157
g1195
sg1159
I0
sg1160
g1223
stRp1946
ag1
(g1554
g1502
(dp1947
g1145
g1219
sVY
I4
sg1147
I3
sg1148
g1220
sg1155
I2
sg1152
I2
sg1153
g1183
sVX
I4
sg1150
g1191
sg1157
g1154
sg1159
I0
sg1160
g1223
stRp1948
ag1
(g1554
g1502
(dp1949
g1145
g1254
sVY
I7
sg1147
I3
sg1148
g1255
sg1155
I1
sg1152
I1
sg1153
g1154
sVX
I3
sg1150
g1191
sg1157
g1183
sg1159
I0
sg1160
g1240
stRp1950
ag1
(g1554
g1502
(dp1951
g1145
g1236
sVY
I3
sg1147
I3
sg1148
g1237
sg1155
I2
sg1152
I2
sg1153
g1195
sVX
I9
sg1150
g1172
sg1157
g1180
sg1159
I0
sg1160
g1240
stRp1952
ag1
(g1554
g1502
(dp1953
g1145
g1311
sVY
I2
sg1147
I3
sg1148
g1312
sg1155
I8
sg1152
I8
sg1153
g1193
sVX
I7
sg1150
g1154
sg1157
g1158
sg1159
I0
sg1160
g1306
stRp1954
ag1
(g1554
g1502
(dp1955
g1145
g1302
sVY
I3
sg1147
I3
sg1148
g1303
sg1155
I6
sg1152
I6
sg1153
g1191
sVX
I4
sg1150
g1154
sg1157
g1158
sg1159
I0
sg1160
g1306
stRp1956
ag1
(g1554
g1502
(dp1957
g1145
g1178
sVY
I6
sg1147
I4
sg1148
g1179
sg1155
I7
sg1152
I7
sg1153
g1172
sVX
I4
sg1150
g1180
sg1157
g1169
sg1159
g1183
sg1160
g1184
stRp1958
ag1
(g1554
g1502
(dp1959
g1145
g1270
sVY
I5
sg1147
I4
sg1148
g1271
sg1155
I1
sg1152
I1
sg1153
g1180
sVX
I6
sg1150
g1158
sg1157
g1195
sg1159
g1172
sg1160
g1184
stRp1960
ag1
(g1554
g1502
(dp1961
g1145
g1166
sVY
I4
sg1147
I4
sg1148
g1167
sg1155
I9
sg1152
I9
sg1153
g1169
sVX
I9
sg1150
g1158
sg1157
g1171
sg1159
g1172
sg1160
g1173
stRp1962
ag1
(g1554
g1502
(dp1963
g1145
g1210
sVY
I4
sg1147
I4
sg1148
g1211
sg1155
I7
sg1152
I7
sg1153
g1213
sVX
I3
sg1150
g1158
sg1157
g1193
sg1159
g1172
sg1160
g1173
stRp1964
ag1
(g1554
g1502
(dp1965
g1145
g1294
sVY
I6
sg1147
I4
sg1148
g1295
sg1155
I3
sg1152
I3
sg1153
g1172
sVX
I4
sg1150
g1213
sg1157
g1193
sg1159
g1183
sg1160
g1249
stRp1966
ag1
(g1554
g1502
(dp1967
g1145
g1245
sVY
I8
sg1147
I4
sg1148
g1246
sg1155
I6
sg1152
I6
sg1153
g1191
sVX
I9
sg1150
g1195
sg1157
g1158
sg1159
g1193
sg1160
g1249
stRp1968
ag1
(g1554
g1502
(dp1969
g1145
g1278
sVY
I2
sg1147
I4
sg1148
g1279
sg1155
I5
sg1152
I5
sg1153
g1183
sVX
I8
sg1150
g1191
sg1157
g1193
sg1159
g1195
sg1160
g1196
stRp1970
ag1
(g1554
g1502
(dp1971
g1145
g1189
sVY
I4
sg1147
I4
sg1148
g1190
sg1155
I4
sg1152
I4
sg1153
g1193
sVX
I4
sg1150
g1191
sg1157
g1158
sg1159
g1195
sg1160
g1196
stRp1972
asg1567
Nsg1568
I8
sg1569
I18
sg1570
I0
sg1571
I18
sg1572
I01
sbag1
(g1490
g3
NtRp1973
(dp1974
g1493
Nsg1494
(lp1975
sg1496
I150444688
sg10
g1576
sg6
g1498
sg1499
I1
sg24
I01
sg25
g26
sg1500
g1
(g1501
g1502
(dp1976
g21
g1519
(g1520
g1505
g1521
S'b'
tRp1977
(I1
(I18
I1
tg1523
I00
S'\x00\x00\x80?\x00\x00\x80?\x00\x00\x80?\x00\x00\x80?\x00\x00\x80?\x00\x00\x80?\x00\x00\x80?\x00\x00\x80?\x00\x00\x80?\x00\x00\x80?\x00\x00\x80?\x00\x00\x80?\x00\x00\x80?\x00\x00\x80?\x00\x00\x80?\x00\x00\x80?\x00\x00\x80?\x00\x00\x80?'
S'\x00\x00\x00\x00\x00\x00\x00\x00\x00\x00\x00\x00\x00\x00\x00\x00\x00\x00'
Ntbsg19
g1504
(g1505
(I0
tS'b'
tRp1978
(I1
(I18
I1
tg1508
I00
(lp1979
g1342
ag1453
ag1445
ag1325
ag1365
ag1429
ag1437
ag1394
ag1411
ag1376
ag1469
ag1353
ag1403
ag1385
ag1477
ag1486
ag1420
ag1461
atbsg23
g1519
(g1520
g1505
g1521
S'b'
tRp1980
(I1
(I18
I1
tg1523
I00
S"\xd4\xcf=@o\x88\x8c@Oc\x9e?\x85'\xa6?eM\x8a@)*\x18A\xb3!A@\x94\xf2\x18@\x03g<@\x90\x08\x1d@U\x01\x81@L;\x8e@\xb6^\xdc@\x08w\x12Ao\xc8\x1d@\xe3\x02\xb1@\x8et\xa1@\x99\xdf\xcb@"
S'\x00\x00\x00\x00\x00\x00\x00\x00\x00\x00\x00\x00\x00\x00\x00\x00\x00\x00'
Ntbsg1518
g1519
(g1520
g1505
g1521
S'b'
tRp1981
(I1
(I18
I1
tg1523
I00
S'\x00\x00\x80?\x00\x00\x80?\x00\x00\x80?\x00\x00\x80?\x00\x00\x80?\x00\x00\x80?\x00\x00\x80?\x00\x00\x80?\x00\x00\x80?\x00\x00\x80?\x00\x00\x80?\x00\x00\x80?\x00\x00\x80?\x00\x00\x80?\x00\x00\x80?\x00\x00\x80?\x00\x00\x80?\x00\x00\x80?'
S'\x00\x00\x00\x00\x00\x00\x00\x00\x00\x00\x00\x00\x00\x00\x00\x00\x00\x00'
Ntbsg20
g1504
(g1505
(I0
tS'b'
tRp1982
(I1
(I18
I1
tg1508
I00
(lp1983
S'7'
aS'9'
aS'2'
aS'5'
aS'9'
aS'3'
aS'8'
aS'3'
aS'9'
aS'6'
aS'5'
aS'9'
aS'5'
aS'7'
aS'6'
aS'9'
aS'5'
aS'5'
atbsg1532
g1519
(g1520
g1505
g1521
S'b'
tRp1984
(I1
(I18
I1
tg1523
I00
S'\x00\x00\x80?\x00\x00PA\x00\x00@A\x00\x00\x00\x00\x00\x00@@\x00\x00 A\x00\x000A\x00\x00\xc0@\x00\x00\x00A\x00\x00\x80@\x00\x00pA\x00\x00\x00@\x00\x00\xe0@\x00\x00\xa0@\x00\x00\x80A\x00\x00\x88A\x00\x00\x10A\x00\x00`A'
S'\x00\x00\x00\x00\x00\x00\x00\x00\x00\x00\x00\x00\x00\x00\x00\x00\x00\x00'
Ntbsg22
g1519
(g1520
g1505
g1521
S'b'
tRp1985
(I1
(I18
I1
tg1523
I00
S'la\x11@1\xfe\xfb?j$0@\x1f\xf72AF\xf0t@\xdd\xf0$A|R\xdd@\x070\xac@\x8fl2@l\xf7#@\x13b\x17A4.dAoR\x91A\xe4!\x0eA\x02\x06\xc3@-,%A\n1\xa9@i\xf0\xf5@'
S'\x00\x00\x00\x00\x00\x00\x00\x00\x00\x00\x00\x00\x00\x00\x00\x00\x00\x00'
NtbstRp1986
(dp1987
g1537
(dp1988
g1518
I01
sg20
I00
sg22
I01
sg21
I01
sg19
I00
sg23
I01
sg1532
I01
ssg1539
g1973
sg1540
(lp1989
g1518
ag1532
ag19
ag22
ag20
ag21
ag23
asg1542
(lp1990
I18
aI1
asbsg1544
g1545
sg1546
g1504
(g1505
(I0
tS'b'
tRp1991
(I1
(I18
I1
tg1508
I00
(lp1992
I3
aI0
aI11
aI4
aI9
aI13
aI7
aI12
aI8
aI16
aI5
aI6
aI2
aI1
aI17
aI10
aI14
aI15
atbsg1549
I01
sg1550
I1
sg1551
I-1
sg1552
(lp1993
g1
(g1554
g1502
(dp1994
g1319
g1340
sVY
I5
sg1321
I2
sg1322
g1341
sg1329
I7
sg1326
I7
sg1327
g1343
sVX
I4
sg1324
I0
sg1331
g1345
sg1333
I0
sg1334
g1346
stRp1995
ag1
(g1554
g1502
(dp1996
g1319
g1451
sVY
I3
sg1321
I2
sg1322
g1452
sg1329
I9
sg1326
I9
sg1327
g1366
sVX
I4
sg1324
I0
sg1331
g1375
sg1333
I0
sg1334
g1346
stRp1997
ag1
(g1554
g1502
(dp1998
g1319
g1443
sVY
I8
sg1321
I2
sg1322
g1444
sg1329
I2
sg1326
I2
sg1327
g1328
sVX
I8
sg1324
I0
sg1331
g1419
sg1333
I0
sg1334
g1335
stRp1999
ag1
(g1554
g1502
(dp2000
g1319
g1320
sVY
I2
sg1321
I2
sg1322
g1323
sg1329
I5
sg1326
I5
sg1327
g1328
sVX
I8
sg1324
I0
sg1331
g1332
sg1333
I0
sg1334
g1335
stRp2001
ag1
(g1554
g1502
(dp2002
g1319
g1362
sVY
I2
sg1321
I3
sg1322
g1363
sg1329
I9
sg1326
I9
sg1327
g1366
sVX
I7
sg1324
g1364
sg1331
g1328
sg1333
I0
sg1334
g1368
stRp2003
ag1
(g1554
g1502
(dp2004
g1319
g1427
sVY
I2
sg1321
I3
sg1322
g1428
sg1329
I3
sg1326
I3
sg1327
g1332
sVX
I8
sg1324
g1343
sg1331
g1375
sg1333
I0
sg1334
g1368
stRp2005
ag1
(g1554
g1502
(dp2006
g1319
g1435
sVY
I2
sg1321
I3
sg1322
g1436
sg1329
I8
sg1326
I8
sg1327
g1355
sVX
I9
sg1324
g1364
sg1331
g1343
sg1333
I0
sg1334
g1396
stRp2007
ag1
(g1554
g1502
(dp2008
g1319
g1392
sVY
I3
sg1321
I3
sg1322
g1393
sg1329
I3
sg1326
I3
sg1327
g1328
sVX
I2
sg1324
g1366
sg1331
g1332
sg1333
I0
sg1334
g1396
stRp2009
ag1
(g1554
g1502
(dp2010
g1319
g1409
sVY
I3
sg1321
I3
sg1322
g1410
sg1329
I9
sg1326
I9
sg1327
g1343
sVX
I3
sg1324
g1345
sg1331
g1366
sg1333
I0
sg1334
g1378
stRp2011
ag1
(g1554
g1502
(dp2012
g1319
g1373
sVY
I2
sg1321
I3
sg1322
g1374
sg1329
I6
sg1326
I6
sg1327
g1332
sVX
I3
sg1324
g1375
sg1331
g1366
sg1333
I0
sg1334
g1378
stRp2013
ag1
(g1554
g1502
(dp2014
g1319
g1467
sVY
I4
sg1321
I4
sg1322
g1468
sg1329
I5
sg1326
I5
sg1327
g1419
sVX
I3
sg1324
g1332
sg1331
g1328
sg1333
g1366
sg1334
g1357
stRp2015
ag1
(g1554
g1502
(dp2016
g1319
g1351
sVY
I9
sg1321
I4
sg1322
g1352
sg1329
I9
sg1326
I9
sg1327
g1343
sVX
I3
sg1324
g1332
sg1331
g1355
sg1333
g1356
sg1334
g1357
stRp2017
ag1
(g1554
g1502
(dp2018
g1319
g1401
sVY
I4
sg1321
I4
sg1322
g1402
sg1329
I5
sg1326
I5
sg1327
g1375
sVX
I5
sg1324
g1364
sg1331
g1343
sg1333
g1366
sg1334
g1387
stRp2019
ag1
(g1554
g1502
(dp2020
g1319
g1383
sVY
I2
sg1321
I4
sg1322
g1384
sg1329
I7
sg1326
I7
sg1327
g1355
sVX
I2
sg1324
g1366
sg1331
g1332
sg1333
g1343
sg1334
g1387
stRp2021
ag1
(g1554
g1502
(dp2022
g1319
g1475
sVY
I4
sg1321
I4
sg1322
g1476
sg1329
I6
sg1326
I6
sg1327
g1419
sVX
I4
sg1324
g1375
sg1331
g1366
sg1333
g1332
sg1334
g1479
stRp2023
ag1
(g1554
g1502
(dp2024
g1319
g1484
sVY
I8
sg1321
I4
sg1322
g1485
sg1329
I9
sg1326
I9
sg1327
g1332
sVX
I8
sg1324
g1328
sg1331
g1366
sg1333
g1419
sg1334
g1479
stRp2025
ag1
(g1554
g1502
(dp2026
g1319
g1417
sVY
I4
sg1321
I4
sg1322
g1418
sg1329
I5
sg1326
I5
sg1327
g1356
sVX
I5
sg1324
g1419
sg1331
g1364
sg1333
g1345
sg1334
g1422
stRp2027
ag1
(g1554
g1502
(dp2028
g1319
g1459
sVY
I4
sg1321
I4
sg1322
g1460
sg1329
I5
sg1326
I5
sg1327
g1332
sVX
I7
sg1324
g1343
sg1331
g1356
sg1333
g1355
sg1334
g1422
stRp2029
asg1567
Nsg1568
I15
sg1569
I18
sg1570
I0
sg1571
I18
sg1572
I01
sbasS'savePickle'
p2030
I00
sb.