ccopy_reg
_reconstructor
p1
(cpsychopy.data
ExperimentHandler
p2
c__builtin__
object
p3
NtRp4
(dp5
S'originPath'
p6
NsS'dataFileName'
p7
VC:\u005cUsers\u005cexperimenter\u005cDesktop\u005cExperiments\u005cKRITL\u005cdata/31046_KRITL_2017_Apr_28_0911
p8
sS'runtimeInfo'
p9
NsS'name'
p10
S'KRITL'
p11
sS'dataNames'
p12
(lp13
S'practice_encoding.keys'
p14
aS'practice_encoding.rt'
p15
aS'practice_execution.keys'
p16
aS'practice_execution.corr'
p17
aS'practice_execution.rt'
p18
aS'encoding.keys'
p19
aS'encoding.rt'
p20
aS'execution.keys'
p21
aS'execution.corr'
p22
aS'execution.rt'
p23
asS'autoLog'
p24
I01
sS'extraInfo'
p25
(dp26
S'date'
p27
V2017_Apr_28_0911
p28
sS'frameRate'
p29
NsS'expName'
p30
g11
sVsession
p31
V001
p32
sVparticipant
p33
V31046
p34
ssS'loopsUnfinished'
p35
(lp36
sS'saveWideText'
p37
I00
sS'thisEntry'
p38
(dp39
sS'version'
p40
S''
sS'_paramNamesSoFar'
p41
(lp42
Voperationc
p43
aVoperationb
p44
aVoperationa
p45
aVcorrectresponse
p46
aVvaluey
p47
aVoperationd
p48
aVcondition
p49
aVvaluex
p50
aVRule
p51
aVOperatora
p52
aVLength
p53
aVIntermediate
p54
aVCorrectResponse
p55
aVResult
p56
aVY
aVX
aVOperatorc
p57
aVOperatorb
p58
aVOperatord
p59
aVStructure
p60
asS'entries'
p61
(lp62
(dp63
g31
g32
sg43
Vincrease
p64
sg27
g28
sg16
Nsg29
Nsg14
(lp65
S'space'
p66
asg49
L4L
sg45
Vdouble
p67
sg17
I0
sS'practice_trials.thisN'
p68
I0
sg44
VDIVIDE
p69
sS'practice_trials.thisIndex'
p70
I5
sg30
g11
sg46
L9L
sS'practice_trials.thisTrialN'
p71
I0
sg48
Vtriple
p72
sS'practice_trials.thisRepN'
p73
I0
sg33
g34
sg50
L8L
sg47
L8L
sg15
(lp74
F8.0969164369162172
asa(dp75
g18
F10.112215440487489
sg29
Nsg17
I1
sg43
g64
sg44
g69
sg45
g72
sg31
g32
sg46
L3L
sS'practice_trials.thisTrialN'
p76
I1
sg48
L0L
sS'practice_trials.thisRepN'
p77
I0
sg33
g34
sg49
L3L
sg27
g28
sg16
S'3'
sg14
(lp78
S'space'
p79
asS'practice_trials.thisIndex'
p80
I4
sS'practice_trials.thisN'
p81
I1
sg30
g11
sg15
(lp82
F5.7990352206397802
asg47
L3L
sg50
L2L
sa(dp83
g18
F1.9066909868270159
sg29
Nsg17
I1
sg43
L0L
sg44
Vdecrease
p84
sg45
VTIMES
p85
sg31
g32
sg46
L8L
sS'practice_trials.thisTrialN'
p86
I2
sg48
L0L
sS'practice_trials.thisRepN'
p87
I0
sg33
g34
sg49
L2L
sg27
g28
sg16
S'8'
sg14
(lp88
S'space'
p89
asS'practice_trials.thisIndex'
p90
I1
sS'practice_trials.thisN'
p91
I2
sg30
g11
sg15
(lp92
F4.8107023031916469
asg47
L3L
sg50
L3L
sa(dp93
g18
F4.8010545100551099
sg29
Nsg17
I1
sg43
VADD
p94
sg44
Vtriple 
p95
sg45
Vhalf
p96
sg31
g32
sg46
L8L
sS'practice_trials.thisTrialN'
p97
I3
sg48
L0L
sS'practice_trials.thisRepN'
p98
I0
sg33
g34
sg49
L3L
sg27
g28
sg16
S'8'
sg14
(lp99
S'space'
p100
asS'practice_trials.thisIndex'
p101
I3
sS'practice_trials.thisN'
p102
I3
sg30
g11
sg15
(lp103
F6.2542764663230628
asg47
L2L
sg50
L4L
sa(dp104
g18
F3.2415104985702783
sg29
Nsg17
I1
sg43
L0L
sg44
g94
sg45
g84
sg31
g32
sg46
L7L
sS'practice_trials.thisTrialN'
p105
I4
sg48
L0L
sS'practice_trials.thisRepN'
p106
I0
sg33
g34
sg49
L2L
sg27
g28
sg16
S'7'
sg14
(lp107
S'space'
p108
asS'practice_trials.thisIndex'
p109
I0
sS'practice_trials.thisN'
p110
I4
sg30
g11
sg15
(lp111
F2.0402444005012512
asg47
L5L
sg50
L3L
sa(dp112
g18
F3.5102450060658157
sg29
Nsg17
I1
sg43
L0L
sg44
g94
sg45
g96
sg31
g32
sg46
L7L
sS'practice_trials.thisTrialN'
p113
I5
sg48
L0L
sS'practice_trials.thisRepN'
p114
I0
sg33
g34
sg49
L2L
sg27
g28
sg16
S'7'
sg14
(lp115
S'space'
p116
asS'practice_trials.thisIndex'
p117
I2
sS'practice_trials.thisN'
p118
I5
sg30
g11
sg15
(lp119
F2.3773516234941781
asg47
L5L
sg50
L4L
sa(dp120
S'block.thisTrialN'
p121
I0
sS'block.thisRepN'
p122
I0
sg29
NsS'block.thisN'
p123
I0
sg51
(S'SUBTRACT'
S'TRIPLE'
S'x'
S'y'
tp124
sg27
g28
sg53
L2L
sg54
(I12
I9
tp125
sg22
I1
sg20
F12.528417559806257
sg23
F3.5251184538938105
sVY
L3L
sVX
L4L
sg57
L0L
sg31
g32
sg33
g34
sg21
S'9'
sg19
S'space'
p126
sg30
g11
sg56
L9L
sg52
Vtriple
p127
sg55
L9L
sS'block.thisIndex'
p128
I1
sg58
VSUBTRACT
p129
sg59
L0L
sg60
VBUxy
p130
sa(dp131
S'block.thisTrialN'
p132
I1
sS'block.thisRepN'
p133
I0
sg29
NsS'block.thisN'
p134
I1
sg51
(S'DIVIDE'
S'DOUBLE'
S'INCREASE'
S'TRIPLE'
S'x'
S'y'
tp135
sg27
g28
sg53
L4L
sg54
(I9
I10
I20
I5
tp136
sg22
I1
sg20
F5.7827769671566784
sg23
F7.7500518821179867
sVY
L4L
sVX
L3L
sg57
Vincrease
p137
sg31
g32
sg33
g34
sg21
S'5'
sg19
S'space'
p138
sg30
g11
sg56
L5L
sg52
Vdouble
p139
sg55
L5L
sS'block.thisIndex'
p140
I10
sg58
VDIVIDE
p141
sg59
g127
sg60
VBUUUxy
p142
sa(dp143
S'block.thisTrialN'
p144
I2
sS'block.thisRepN'
p145
I0
sg29
NsS'block.thisN'
p146
I2
sg51
(S'TRIPLE'
S'INCREASE'
S'DIVIDE'
S'DOUBLE'
S'x'
S'y'
tp147
sg27
g28
sg53
L4L
sg54
(I16
I2
I3
I9
tp148
sg22
I1
sg20
F9.9908600037451833
sg23
F5.8907368516083807
sVY
L8L
sVX
L8L
sg57
g141
sg31
g32
sg33
g34
sg21
S'9'
sg19
S'space'
p149
sg30
g11
sg56
L9L
sg52
g137
sg55
L9L
sS'block.thisIndex'
p150
I15
sg58
g127
sg59
g139
sg60
VUUBUxy
p151
sa(dp152
S'block.thisTrialN'
p153
I3
sS'block.thisRepN'
p154
I0
sg29
NsS'block.thisN'
p155
I3
sg51
(S'DIVIDE'
S'TRIPLE'
S'DECREASE'
S'x'
S'y'
tp156
sg27
g28
sg53
L3L
sg54
(I6
I18
I9
tp157
sg22
I1
sg20
F4.3359652920626104
sg23
F7.9737065439112484
sVY
L2L
sVX
L7L
sg57
Vdecrease
p158
sg31
g32
sg33
g34
sg21
S'9'
sg19
S'space'
p159
sg30
g11
sg56
L9L
sg52
g127
sg55
L9L
sS'block.thisIndex'
p160
I4
sg58
g141
sg59
L0L
sg60
VBUUxy
p161
sa(dp162
S'block.thisTrialN'
p163
I4
sS'block.thisRepN'
p164
I0
sg29
NsS'block.thisN'
p165
I4
sg51
(S'DOUBLE'
S'DIVIDE'
S'x'
S'y'
tp166
sg27
g28
sg53
L2L
sg54
(I1
I2
tp167
sg22
I1
sg20
F2.038504732074216
sg23
F1.9595134246628731
sVY
L8L
sVX
L8L
sg57
L0L
sg31
g32
sg33
g34
sg21
S'2'
sg19
S'space'
p168
sg30
g11
sg56
L2L
sg52
g141
sg55
L2L
sS'block.thisIndex'
p169
I2
sg58
g139
sg59
L0L
sg60
VUBxy
p170
sa(dp171
S'block.thisTrialN'
p172
I5
sS'block.thisRepN'
p173
I0
sg29
NsS'block.thisN'
p174
I5
sg51
(S'INCREASE'
S'DIVIDE'
S'TRIPLE'
S'x'
S'y'
tp175
sg27
g28
sg53
L3L
sg54
(I6
I2
I3
tp176
sg22
I1
sg20
F6.0998687287792563
sg23
F6.5006059617735445
sVY
L3L
sVX
L2L
sg57
g127
sg31
g32
sg33
g34
sg21
S'3'
sg19
S'space'
p177
sg30
g11
sg56
L3L
sg52
g141
sg55
L3L
sS'block.thisIndex'
p178
I7
sg58
g137
sg59
L0L
sg60
VUBUxy
p179
sa(dp180
S'block.thisTrialN'
p181
I6
sS'block.thisRepN'
p182
I0
sg29
NsS'block.thisN'
p183
I6
sg51
(S'THIRD'
S'INCREASE'
S'HALF'
S'TIMES'
S'x'
S'y'
tp184
sg27
g28
sg53
L4L
sg54
(I28
I14
I15
I5
tp185
sg22
I1
sg20
F10.783671473851427
sg23
F14.056714031845331
sVY
L4L
sVX
L7L
sg57
Vhalf
p186
sg31
g32
sg33
g34
sg21
S'5'
sg19
S'space'
p187
sg30
g11
sg56
L5L
sg52
g137
sg55
L5L
sS'block.thisIndex'
p188
I17
sg58
Vthird
p189
sg59
VTIMES
p190
sg60
VUUUBxy
p191
sa(dp192
S'block.thisTrialN'
p193
I7
sS'block.thisRepN'
p194
I0
sg29
NsS'block.thisN'
p195
I7
sg51
(S'HALF'
S'SUBTRACT'
S'DECREASE'
S'TRIPLE'
S'x'
S'y'
tp196
sg27
g28
sg53
L4L
sg54
(I15
I14
I10
I5
tp197
sg22
I1
sg20
F11.203882074914873
sg23
F5.9929188387468457
sVY
L4L
sVX
L5L
sg57
g158
sg31
g32
sg33
g34
sg21
S'5'
sg19
S'space'
p198
sg30
g11
sg56
L5L
sg52
g129
sg55
L5L
sS'block.thisIndex'
p199
I12
sg58
g186
sg59
g127
sg60
VUBUUxy
p200
sa(dp201
S'block.thisTrialN'
p202
I8
sS'block.thisRepN'
p203
I0
sg29
NsS'block.thisN'
p204
I8
sg51
(S'INCREASE'
S'TIMES'
S'TRIPLE'
S'HALF'
S'x'
S'y'
tp205
sg27
g28
sg53
L4L
sg54
(I1
I3
I6
I7
tp206
sg22
I1
sg20
F10.257341796532273
sg23
F12.26431061909534
sVY
L2L
sVX
L2L
sg57
g127
sg31
g32
sg33
g34
sg21
S'7'
sg19
S'space'
p207
sg30
g11
sg56
L7L
sg52
g190
sg55
L7L
sS'block.thisIndex'
p208
I13
sg58
g137
sg59
g186
sg60
g200
sa(dp209
S'block.thisTrialN'
p210
I9
sS'block.thisRepN'
p211
I0
sg29
NsS'block.thisN'
p212
I9
sg51
(S'SUBTRACT'
S'INCREASE'
S'HALF'
S'x'
S'y'
tp213
sg27
g28
sg53
L3L
sg54
(I4
I5
I3
tp214
sg22
I1
sg20
F3.6987524852156639
sg23
F8.4863750466611236
sVY
L2L
sVX
L8L
sg57
g186
sg31
g32
sg33
g34
sg21
S'3'
sg19
S'space'
p215
sg30
g11
sg56
L3L
sg52
g137
sg55
L3L
sS'block.thisIndex'
p216
I5
sg58
g129
sg59
L0L
sg60
g161
sa(dp217
S'block.thisTrialN'
p218
I10
sS'block.thisRepN'
p219
I0
sg29
NsS'block.thisN'
p220
I10
sg51
(S'TIMES'
S'HALF'
S'INCREASE'
S'THIRD'
S'x'
S'y'
tp221
sg27
g28
sg53
L4L
sg54
(I1
I2
I1
I9
tp222
sg22
I0
sg20
F9.714068986941129
sg23
F15.797226959373802
sVY
L9L
sVX
L3L
sg57
g137
sg31
g32
sg33
g34
sg21
S'1'
sg19
S'space'
p223
sg30
g11
sg56
L9L
sg52
g186
sg55
L9L
sS'block.thisIndex'
p224
I11
sg58
g190
sg59
g189
sg60
g142
sa(dp225
S'block.thisTrialN'
p226
I11
sS'block.thisRepN'
p227
I0
sg29
NsS'block.thisN'
p228
I11
sg51
(S'DECREASE'
S'THIRD'
S'DOUBLE'
S'ADD'
S'x'
S'y'
tp229
sg27
g28
sg53
L4L
sg54
(I9
I18
I6
I5
tp230
sg22
I0
sVY
L4L
sVX
L5L
sg57
g139
sg31
g32
sg33
g34
sg21
Nsg19
Nsg30
g11
sg56
L5L
sg52
g189
sg55
L5L
sS'block.thisIndex'
p231
I16
sg58
g158
sg59
VADD
p232
sg60
g191
sa(dp233
S'block.thisTrialN'
p234
I12
sS'block.thisRepN'
p235
I0
sg29
NsS'block.thisN'
p236
I12
sg51
(S'INCREASE'
S'DIVIDE'
S'x'
S'y'
tp237
sg27
g28
sg53
L2L
sg54
(I4
I5
tp238
sg22
I1
sg20
F3.7902234899811447
sg23
F2.9982459829188883
sVY
L2L
sVX
L8L
sg57
L0L
sg31
g32
sg33
g34
sg21
S'5'
sg19
S'space'
p239
sg30
g11
sg56
L5L
sg52
g141
sg55
L5L
sS'block.thisIndex'
p240
I3
sg58
g137
sg59
L0L
sg60
g170
sa(dp241
S'block.thisTrialN'
p242
I13
sS'block.thisRepN'
p243
I0
sg29
NsS'block.thisN'
p244
I13
sg51
(S'TRIPLE'
S'DOUBLE'
S'SUBTRACT'
S'INCREASE'
S'x'
S'y'
tp245
sg27
g28
sg53
L4L
sg54
(I5
I1
I2
I6
tp246
sg22
I1
sg20
F10.11925145611167
sg23
F3.2066446866374463
sVY
L4L
sVX
L4L
sg57
g129
sg31
g32
sg33
g34
sg21
S'6'
sg19
S'space'
p247
sg30
g11
sg56
L6L
sg52
g139
sg55
L6L
sS'block.thisIndex'
p248
I14
sg58
g127
sg59
g137
sg60
g151
sa(dp249
S'block.thisTrialN'
p250
I14
sS'block.thisRepN'
p251
I0
sg29
NsS'block.thisN'
p252
I14
sg51
(S'ADD'
S'HALF'
S'x'
S'y'
tp253
sg27
g28
sg53
L2L
sg54
(I2
I7
tp254
sg22
I1
sg20
F2.0077660395763814
sg23
F5.3964197335299104
sVY
L5L
sVX
L4L
sg57
L0L
sg31
g32
sg33
g34
sg21
S'7'
sg19
S'space'
p255
sg30
g11
sg56
L7L
sg52
g186
sg55
L7L
sS'block.thisIndex'
p256
I0
sg58
g232
sg59
L0L
sg60
g130
sa(dp257
S'block.thisTrialN'
p258
I15
sS'block.thisRepN'
p259
I0
sg29
NsS'block.thisN'
p260
I15
sg51
(S'TRIPLE'
S'HALF'
S'ADD'
S'x'
S'y'
tp261
sg27
g28
sg53
L3L
sg54
(I6
I3
I9
tp262
sg22
I1
sg20
F7.1050835344940424
sg23
F6.4350896482355893
sVY
L3L
sVX
L3L
sg57
g232
sg31
g32
sg33
g34
sg21
S'9'
sg19
S'space'
p263
sg30
g11
sg56
L9L
sg52
g186
sg55
L9L
sS'block.thisIndex'
p264
I8
sg58
g127
sg59
L0L
sg60
VUUBxy
p265
sa(dp266
S'block.thisTrialN'
p267
I16
sS'block.thisRepN'
p268
I0
sg29
NsS'block.thisN'
p269
I16
sg51
(S'TRIPLE'
S'INCREASE'
S'SUBTRACT'
S'x'
S'y'
tp270
sg27
g28
sg53
L3L
sg54
(I1
I2
I6
tp271
sg22
I1
sg20
F4.1144384082872421
sg23
F4.406525278929621
sVY
L2L
sVX
L3L
sg57
g129
sg31
g32
sg33
g34
sg21
S'6'
sg19
S'space'
p272
sg30
g11
sg56
L6L
sg52
g137
sg55
L6L
sS'block.thisIndex'
p273
I9
sg58
g127
sg59
L0L
sg60
g265
sa(dp274
S'block.thisTrialN'
p275
I17
sS'block.thisRepN'
p276
I0
sg29
NsS'block.thisN'
p277
I17
sg51
(S'HALF'
S'TIMES'
S'DECREASE'
S'x'
S'y'
tp278
sg27
g28
sg53
L3L
sg54
(I8
I16
I8
tp279
sg22
I1
sg20
F5.0570902426261455
sg23
F12.293633009539917
sVY
L2L
sVX
L9L
sg57
g158
sg31
g32
sg33
g34
sg21
S'8'
sg19
S'space'
p280
sg30
g11
sg56
L8L
sg52
g190
sg55
L8L
sS'block.thisIndex'
p281
I6
sg58
g186
sg59
L0L
sg60
g179
sa(dp282
S'block.thisTrialN'
p283
I0
sS'block.thisRepN'
p284
I0
sg29
NsS'block.thisN'
p285
I0
sVRule
p286
(S'ADD'
S'DECREASE'
S'HALF'
S'x'
S'y'
tp287
sg27
g28
sVLength
p288
L3L
sVIntermediate
p289
(I3
I2
I6
tp290
sg22
I1
sg20
F8.0666078494396061
sg23
F4.8399526008870453
sVY
L4L
sVX
L6L
sVOperatorc
p291
Vhalf
p292
sg31
g32
sg33
g34
sg21
S'6'
sg19
S'space'
p293
sg30
g11
sVResult
p294
L6L
sVOperatora
p295
Vdecrease
p296
sVCorrectResponse
p297
L6L
sS'block.thisIndex'
p298
I4
sVOperatorb
p299
VADD
p300
sVOperatord
p301
L0L
sVStructure
p302
VBUUxy
p303
sa(dp304
S'block.thisTrialN'
p305
I1
sS'block.thisRepN'
p306
I0
sg29
NsS'block.thisN'
p307
I1
sg286
(S'TIMES'
S'THIRD'
S'x'
S'y'
tp308
sg27
g28
sg288
L2L
sg289
(I1
I4
tp309
sg22
I1
sg20
F6.2433656547218561
sg23
F4.0668153779115528
sVY
L4L
sVX
L3L
sg291
L0L
sg31
g32
sg33
g34
sg21
S'4'
sg19
S'space'
p310
sg30
g11
sg294
L4L
sg295
Vthird
p311
sg297
L4L
sS'block.thisIndex'
p312
I1
sg299
VTIMES
p313
sg301
L0L
sg302
VBUxy
p314
sa(dp315
S'block.thisTrialN'
p316
I2
sS'block.thisRepN'
p317
I0
sg29
NsS'block.thisN'
p318
I2
sg286
(S'TRIPLE'
S'HALF'
S'TIMES'
S'x'
S'y'
tp319
sg27
g28
sg288
L3L
sg289
(I6
I3
I9
tp320
sg22
I1
sg20
F9.8221965036354959
sg23
F12.884765074821189
sVY
L3L
sVX
L2L
sg291
g313
sg31
g32
sg33
g34
sg21
S'9'
sg19
S'space'
p321
sg30
g11
sg294
L9L
sg295
g292
sg297
L9L
sS'block.thisIndex'
p322
I9
sg299
Vtriple
p323
sg301
L0L
sg302
VUUBxy
p324
sa(dp325
S'block.thisTrialN'
p326
I3
sS'block.thisRepN'
p327
I0
sg29
NsS'block.thisN'
p328
I3
sg286
(S'DECREASE'
S'HALF'
S'TRIPLE'
S'ADD'
S'x'
S'y'
tp329
sg27
g28
sg288
L4L
sg289
(I4
I12
I6
I5
tp330
sg22
I1
sg20
F8.7251799774821848
sg23
F11.061522180214524
sVY
L2L
sVX
L2L
sg291
g323
sg31
g32
sg33
g34
sg21
S'5'
sg19
S'space'
p331
sg30
g11
sg294
L5L
sg295
g292
sg297
L5L
sS'block.thisIndex'
p332
I16
sg299
g296
sg301
g300
sg302
VUUUBxy
p333
sa(dp334
S'block.thisTrialN'
p335
I4
sS'block.thisRepN'
p336
I0
sg29
NsS'block.thisN'
p337
I4
sg286
(S'SUBTRACT'
S'THIRD'
S'x'
S'y'
tp338
sg27
g28
sg288
L2L
sg289
(I3
I1
tp339
sg22
I1
sg20
F2.4487791699357331
sg23
F7.185921949101612
sVY
L2L
sVX
L9L
sg291
L0L
sg31
g32
sg33
g34
sg21
S'1'
sg19
S'space'
p340
sg30
g11
sg294
L1L
sg295
g311
sg297
L1L
sS'block.thisIndex'
p341
I0
sg299
VSUBTRACT
p342
sg301
L0L
sg302
g314
sa(dp343
S'block.thisTrialN'
p344
I5
sS'block.thisRepN'
p345
I0
sg29
NsS'block.thisN'
p346
I5
sg286
(S'DECREASE'
S'DIVIDE'
S'TRIPLE'
S'DOUBLE'
S'x'
S'y'
tp347
sg27
g28
sg288
L4L
sg289
(I6
I18
I2
I1
tp348
sg22
I1
sg20
F12.615844736807048
sg23
F10.128709219163284
sVY
L9L
sVX
L3L
sg291
g323
sg31
g32
sg33
g34
sg21
S'1'
sg19
S'space'
p349
sg30
g11
sg294
L1L
sg295
VDIVIDE
p350
sg297
L1L
sS'block.thisIndex'
p351
I12
sg299
g296
sg301
Vdouble
p352
sg302
VUBUUxy
p353
sa(dp354
S'block.thisTrialN'
p355
I6
sS'block.thisRepN'
p356
I0
sg29
NsS'block.thisN'
p357
I6
sg286
(S'TIMES'
S'DECREASE'
S'THIRD'
S'DOUBLE'
S'x'
S'y'
tp358
sg27
g28
sg288
L4L
sg289
(I6
I2
I1
I2
tp359
sg22
I1
sg20
F15.046803765930235
sg23
F7.571526411222294
sVY
L2L
sVX
L3L
sg291
g311
sg31
g32
sg33
g34
sg21
S'2'
sg19
S'space'
p360
sg30
g11
sg294
L2L
sg295
g296
sg297
L2L
sS'block.thisIndex'
p361
I11
sg299
g313
sg301
g352
sg302
VBUUUxy
p362
sa(dp363
S'block.thisTrialN'
p364
I7
sS'block.thisRepN'
p365
I0
sg29
NsS'block.thisN'
p366
I7
sg286
(S'INCREASE'
S'TIMES'
S'x'
S'y'
tp367
sg27
g28
sg288
L2L
sg289
(I8
I9
tp368
sg22
I1
sg20
F2.660141714150086
sg23
F1.7972952022682875
sVY
L4L
sVX
L2L
sg291
L0L
sg31
g32
sg33
g34
sg21
S'9'
sg19
S'space'
p369
sg30
g11
sg294
L9L
sg295
g313
sg297
L9L
sS'block.thisIndex'
p370
I2
sg299
Vincrease
p371
sg301
L0L
sg302
VUBxy
p372
sa(dp373
S'block.thisTrialN'
p374
I8
sS'block.thisRepN'
p375
I0
sg29
NsS'block.thisN'
p376
I8
sg286
(S'INCREASE'
S'TRIPLE'
S'HALF'
S'ADD'
S'x'
S'y'
tp377
sg27
g28
sg288
L4L
sg289
(I4
I2
I6
I7
tp378
sg22
I1
sg20
F11.974905518582091
sg23
F6.5679224871564656
sVY
L2L
sVX
L2L
sg291
g292
sg31
g32
sg33
g34
sg21
S'7'
sg19
S'space'
p379
sg30
g11
sg294
L7L
sg295
g323
sg297
L7L
sS'block.thisIndex'
p380
I17
sg299
g371
sg301
g300
sg302
g333
sa(dp381
S'block.thisTrialN'
p382
I9
sS'block.thisRepN'
p383
I0
sg29
NsS'block.thisN'
p384
I9
sg286
(S'TRIPLE'
S'SUBTRACT'
S'INCREASE'
S'HALF'
S'x'
S'y'
tp385
sg27
g28
sg288
L4L
sg289
(I3
I4
I1
I3
tp386
sg22
I1
sg20
F11.509370797080919
sg23
F7.2390170085709542
sVY
L3L
sVX
L6L
sg291
g371
sg31
g32
sg33
g34
sg21
S'3'
sg19
S'space'
p387
sg30
g11
sg294
L3L
sg295
g342
sg297
L3L
sS'block.thisIndex'
p388
I13
sg299
g323
sg301
g292
sg302
g353
sa(dp389
S'block.thisTrialN'
p390
I10
sS'block.thisRepN'
p391
I0
sg29
NsS'block.thisN'
p392
I10
sg286
(S'DIVIDE'
S'DECREASE'
S'THIRD'
S'DOUBLE'
S'x'
S'y'
tp393
sg27
g28
sg288
L4L
sg289
(I12
I4
I3
I1
tp394
sg22
I0
sg20
F10.457581451395527
sg23
F14.002563832327724
sVY
L3L
sVX
L6L
sg291
g311
sg31
g32
sg33
g34
sg21
S'6'
sg19
S'space'
p395
sg30
g11
sg294
L1L
sg295
g296
sg297
L1L
sS'block.thisIndex'
p396
I10
sg299
g350
sg301
g352
sg302
g362
sa(dp397
S'block.thisTrialN'
p398
I11
sS'block.thisRepN'
p399
I0
sg29
NsS'block.thisN'
p400
I11
sg286
(S'THIRD'
S'INCREASE'
S'SUBTRACT'
S'HALF'
S'x'
S'y'
tp401
sg27
g28
sg288
L4L
sg289
(I4
I2
I3
I1
tp402
sg22
I1
sg20
F15.896880460437387
sg23
F7.5217168089002371
sVY
L2L
sVX
L8L
sg291
g342
sg31
g32
sg33
g34
sg21
S'1'
sg19
S'space'
p403
sg30
g11
sg294
L1L
sg295
g371
sg297
L1L
sS'block.thisIndex'
p404
I15
sg299
g311
sg301
g292
sg302
VUUBUxy
p405
sa(dp406
S'block.thisTrialN'
p407
I12
sS'block.thisRepN'
p408
I0
sg29
NsS'block.thisN'
p409
I12
sg286
(S'DOUBLE'
S'TIMES'
S'THIRD'
S'x'
S'y'
tp410
sg27
g28
sg288
L3L
sg289
(I1
I4
I8
tp411
sg22
I1
sg20
F3.4272438171319664
sg23
F5.3674970015417784
sVY
L4L
sVX
L3L
sg291
g311
sg31
g32
sg33
g34
sg21
S'8'
sg19
S'space'
p412
sg30
g11
sg294
L8L
sg295
g313
sg297
L8L
sS'block.thisIndex'
p413
I6
sg299
g352
sg301
L0L
sg302
VUBUxy
p414
sa(dp415
S'block.thisTrialN'
p416
I13
sS'block.thisRepN'
p417
I0
sg29
NsS'block.thisN'
p418
I13
sg286
(S'TRIPLE'
S'SUBTRACT'
S'x'
S'y'
tp419
sg27
g28
sg288
L2L
sg289
(I2
I6
tp420
sg22
I1
sg20
F8.4677111443597823
sg23
F2.4376776283606887
sVY
L6L
sVX
L8L
sg291
L0L
sg31
g32
sg33
g34
sg21
S'6'
sg19
S'space'
p421
sg30
g11
sg294
L6L
sg295
g342
sg297
L6L
sS'block.thisIndex'
p422
I3
sg299
g323
sg301
L0L
sg302
g372
sa(dp423
S'block.thisTrialN'
p424
I14
sS'block.thisRepN'
p425
I0
sg29
NsS'block.thisN'
p426
I14
sg286
(S'INCREASE'
S'DIVIDE'
S'HALF'
S'x'
S'y'
tp427
sg27
g28
sg288
L3L
sg289
(I2
I1
I2
tp428
sg22
I1
sg20
F3.4625071873888373
sg23
F3.7481907762121409
sVY
L2L
sVX
L4L
sg291
g292
sg31
g32
sg33
g34
sg21
S'2'
sg19
S'space'
p429
sg30
g11
sg294
L2L
sg295
g350
sg297
L2L
sS'block.thisIndex'
p430
I7
sg299
g371
sg301
L0L
sg302
g414
sa(dp431
S'block.thisTrialN'
p432
I15
sS'block.thisRepN'
p433
I0
sg29
NsS'block.thisN'
p434
I15
sg286
(S'INCREASE'
S'HALF'
S'TIMES'
S'TRIPLE'
S'x'
S'y'
tp435
sg27
g28
sg288
L4L
sg289
(I6
I12
I6
I7
tp436
sg22
I1
sg20
F8.8389356068801135
sg23
F9.8607166341971606
sVY
L2L
sVX
L2L
sg291
g313
sg31
g32
sg33
g34
sg21
S'7'
sg19
S'space'
p437
sg30
g11
sg294
L7L
sg295
g292
sg297
L7L
sS'block.thisIndex'
p438
I14
sg299
g371
sg301
g323
sg302
g405
sa(dp439
S'block.thisTrialN'
p440
I16
sS'block.thisRepN'
p441
I0
sg29
NsS'block.thisN'
p442
I16
sg286
(S'DECREASE'
S'HALF'
S'DIVIDE'
S'x'
S'y'
tp443
sg27
g28
sg288
L3L
sg289
(I4
I2
I1
tp444
sg22
I1
sg20
F5.555887243244797
sg23
F4.5508701666258276
sVY
L2L
sVX
L8L
sg291
g350
sg31
g32
sg33
g34
sg21
S'1'
sg19
S'space'
p445
sg30
g11
sg294
L1L
sg295
g292
sg297
L1L
sS'block.thisIndex'
p446
I8
sg299
g296
sg301
L0L
sg302
g324
sa(dp447
S'block.thisTrialN'
p448
I17
sS'block.thisRepN'
p449
I0
sg29
NsS'block.thisN'
p450
I17
sg286
(S'SUBTRACT'
S'DOUBLE'
S'DECREASE'
S'x'
S'y'
tp451
sg27
g28
sg288
L3L
sg289
(I8
I16
I7
tp452
sg22
I1
sg20
F2.9848357322625816
sg23
F8.0513312434777617
sVY
L9L
sVX
L9L
sg291
g296
sg31
g32
sg33
g34
sg21
S'7'
sg19
S'space'
p453
sg30
g11
sg294
L7L
sg295
g352
sg297
L7L
sS'block.thisIndex'
p454
I5
sg299
g342
sg301
L0L
sg302
g303
sa(dp455
S'block.thisTrialN'
p456
I0
sS'block.thisRepN'
p457
I0
sg29
NsS'block.thisN'
p458
I0
sVRule
p459
(S'THIRD'
S'INCREASE'
S'HALF'
S'DIVIDE'
S'x'
S'y'
tp460
sg27
g28
sVLength
p461
L4L
sVIntermediate
p462
(I4
I2
I3
I1
tp463
sg22
I1
sg20
F13.344665384152904
sg23
F9.6689404961653054
sVY
L2L
sVX
L8L
sVOperatorc
p464
Vhalf
p465
sg31
g32
sg33
g34
sg21
S'1'
sg19
S'space'
p466
sg30
g11
sVResult
p467
L1L
sVOperatora
p468
Vincrease
p469
sVCorrectResponse
p470
L1L
sS'block.thisIndex'
p471
I16
sVOperatorb
p472
Vthird
p473
sVOperatord
p474
VDIVIDE
p475
sVStructure
p476
VUUUBxy
p477
sa(dp478
S'block.thisTrialN'
p479
I1
sS'block.thisRepN'
p480
I0
sg29
NsS'block.thisN'
p481
I1
sg459
(S'THIRD'
S'TIMES'
S'DECREASE'
S'x'
S'y'
tp482
sg27
g28
sg461
L3L
sg462
(I3
I15
I5
tp483
sg22
I1
sg20
F9.0768652791157365
sg23
F4.6934368899092078
sVY
L5L
sVX
L4L
sg464
Vdecrease
p484
sg31
g32
sg33
g34
sg21
S'5'
sg19
S'space'
p485
sg30
g11
sg467
L5L
sg468
VTIMES
p486
sg470
L5L
sS'block.thisIndex'
p487
I7
sg472
g473
sg474
L0L
sg476
VUBUxy
p488
sa(dp489
S'block.thisTrialN'
p490
I2
sS'block.thisRepN'
p491
I0
sg29
NsS'block.thisN'
p492
I2
sg459
(S'SUBTRACT'
S'HALF'
S'INCREASE'
S'TRIPLE'
S'x'
S'y'
tp493
sg27
g28
sg461
L4L
sg462
(I15
I16
I8
I3
tp494
sg22
I0
sg20
F8.6613427889533341
sg23
F12.118312504142523
sVY
L5L
sVX
L5L
sg464
g469
sg31
g32
sg33
g34
sg21
S'5'
sg19
S'space'
p495
sg30
g11
sg467
L3L
sg468
g465
sg470
L3L
sS'block.thisIndex'
p496
I10
sg472
VSUBTRACT
p497
sg474
Vtriple
p498
sg476
VBUUUxy
p499
sa(dp500
S'block.thisTrialN'
p501
I3
sS'block.thisRepN'
p502
I0
sg29
NsS'block.thisN'
p503
I3
sg459
(S'THIRD'
S'DOUBLE'
S'ADD'
S'INCREASE'
S'x'
S'y'
tp504
sg27
g28
sg461
L4L
sg462
(I10
I12
I24
I8
tp505
sg22
I1
sg20
F17.763900986872613
sg23
F7.5405878897290677
sVY
L2L
sVX
L9L
sg464
VADD
p506
sg31
g32
sg33
g34
sg21
S'8'
sg19
S'space'
p507
sg30
g11
sg467
L8L
sg468
Vdouble
p508
sg470
L8L
sS'block.thisIndex'
p509
I14
sg472
g473
sg474
g469
sg476
VUUBUxy
p510
sa(dp511
S'block.thisTrialN'
p512
I4
sS'block.thisRepN'
p513
I0
sg29
NsS'block.thisN'
p514
I4
sg459
(S'INCREASE'
S'DIVIDE'
S'TRIPLE'
S'DOUBLE'
S'x'
S'y'
tp515
sg27
g28
sg461
L4L
sg462
(I6
I18
I3
I4
tp516
sg22
I1
sg20
F8.3726719117257744
sg23
F16.663953866343945
sVY
L6L
sVX
L3L
sg464
g498
sg31
g32
sg33
g34
sg21
S'4'
sg19
S'space'
p517
sg30
g11
sg467
L4L
sg468
g475
sg470
L4L
sS'block.thisIndex'
p518
I12
sg472
g469
sg474
g508
sg476
VUBUUxy
p519
sa(dp520
S'block.thisTrialN'
p521
I5
sS'block.thisRepN'
p522
I0
sg29
NsS'block.thisN'
p523
I5
sg459
(S'TIMES'
S'DECREASE'
S'HALF'
S'x'
S'y'
tp524
sg27
g28
sg461
L3L
sg462
(I4
I3
I9
tp525
sg22
I1
sg20
F7.5440794753376395
sg23
F4.6413640736136585
sVY
L3L
sVX
L8L
sg464
g465
sg31
g32
sg33
g34
sg21
S'9'
sg19
S'space'
p526
sg30
g11
sg467
L9L
sg468
g484
sg470
L9L
sS'block.thisIndex'
p527
I4
sg472
g486
sg474
L0L
sg476
VBUUxy
p528
sa(dp529
S'block.thisTrialN'
p530
I6
sS'block.thisRepN'
p531
I0
sg29
NsS'block.thisN'
p532
I6
sg459
(S'TIMES'
S'DECREASE'
S'x'
S'y'
tp533
sg27
g28
sg461
L2L
sg462
(I2
I4
tp534
sg22
I1
sg20
F2.5060044983401895
sg23
F4.2882540705613792
sVY
L2L
sVX
L3L
sg464
L0L
sg31
g32
sg33
g34
sg21
S'4'
sg19
S'space'
p535
sg30
g11
sg467
L4L
sg468
g484
sg470
L4L
sS'block.thisIndex'
p536
I0
sg472
g486
sg474
L0L
sg476
VBUxy
p537
sa(dp538
S'block.thisTrialN'
p539
I7
sS'block.thisRepN'
p540
I0
sg29
NsS'block.thisN'
p541
I7
sg459
(S'TIMES'
S'THIRD'
S'HALF'
S'x'
S'y'
tp542
sg27
g28
sg461
L3L
sg462
(I3
I1
I5
tp543
sg22
I1
sg20
F6.9004945333581418
sg23
F4.2139904201030731
sVY
L5L
sVX
L6L
sg464
g465
sg31
g32
sg33
g34
sg21
S'5'
sg19
S'space'
p544
sg30
g11
sg467
L5L
sg468
g473
sg470
L5L
sS'block.thisIndex'
p545
I5
sg472
g486
sg474
L0L
sg476
g528
sa(dp546
S'block.thisTrialN'
p547
I8
sS'block.thisRepN'
p548
I0
sg29
NsS'block.thisN'
p549
I8
sg459
(S'TRIPLE'
S'SUBTRACT'
S'DOUBLE'
S'DECREASE'
S'x'
S'y'
tp550
sg27
g28
sg461
L4L
sg462
(I2
I4
I1
I3
tp551
sg22
I1
sg20
F14.614815843990073
sg23
F11.924248654628173
sVY
L3L
sVX
L3L
sg464
g508
sg31
g32
sg33
g34
sg21
S'3'
sg19
S'space'
p552
sg30
g11
sg467
L3L
sg468
g497
sg470
L3L
sS'block.thisIndex'
p553
I13
sg472
g498
sg474
g484
sg476
g519
sa(dp554
S'block.thisTrialN'
p555
I9
sS'block.thisRepN'
p556
I0
sg29
NsS'block.thisN'
p557
I9
sg459
(S'THIRD'
S'ADD'
S'x'
S'y'
tp558
sg27
g28
sg461
L2L
sg462
(I9
I3
tp559
sg22
I1
sg20
F3.6051984976511449
sg23
F2.7928580152802169
sVY
L5L
sVX
L4L
sg464
L0L
sg31
g32
sg33
g34
sg21
S'3'
sg19
S'space'
p560
sg30
g11
sg467
L3L
sg468
g506
sg470
L3L
sS'block.thisIndex'
p561
I2
sg472
g473
sg474
L0L
sg476
VUBxy
p562
sa(dp563
S'block.thisTrialN'
p564
I10
sS'block.thisRepN'
p565
I0
sg29
NsS'block.thisN'
p566
I10
sg459
(S'TIMES'
S'INCREASE'
S'THIRD'
S'DOUBLE'
S'x'
S'y'
tp567
sg27
g28
sg461
L4L
sg462
(I6
I2
I3
I9
tp568
sg22
I1
sg20
F12.453155463095754
sg23
F5.7819930491968989
sVY
L3L
sVX
L3L
sg464
g473
sg31
g32
sg33
g34
sg21
S'9'
sg19
S'space'
p569
sg30
g11
sg467
L9L
sg468
g469
sg470
L9L
sS'block.thisIndex'
p570
I11
sg472
g486
sg474
g508
sg476
g499
sa(dp571
S'block.thisTrialN'
p572
I11
sS'block.thisRepN'
p573
I0
sg29
NsS'block.thisN'
p574
I11
sg459
(S'THIRD'
S'SUBTRACT'
S'x'
S'y'
tp575
sg27
g28
sg461
L2L
sg462
(I3
I1
tp576
sg22
I1
sg20
F1.9904340980574489
sg23
F5.7671059526037425
sVY
L2L
sVX
L5L
sg464
L0L
sg31
g32
sg33
g34
sg21
S'1'
sg19
S'space'
p577
sg30
g11
sg467
L1L
sg468
g497
sg470
L1L
sS'block.thisIndex'
p578
I3
sg472
g473
sg474
L0L
sg476
g562
sa(dp579
S'block.thisTrialN'
p580
I12
sS'block.thisRepN'
p581
I0
sg29
NsS'block.thisN'
p582
I12
sg459
(S'THIRD'
S'DECREASE'
S'TIMES'
S'x'
S'y'
tp583
sg27
g28
sg461
L3L
sg462
(I25
I24
I8
tp584
sg22
I1
sg20
F10.25511042913422
sg23
F4.6162482444196939
sVY
L5L
sVX
L5L
sg464
g486
sg31
g32
sg33
g34
sg21
S'8'
sg19
S'space'
p585
sg30
g11
sg467
L8L
sg468
g484
sg470
L8L
sS'block.thisIndex'
p586
I8
sg472
g473
sg474
L0L
sg476
VUUBxy
p587
sa(dp588
S'block.thisTrialN'
p589
I13
sS'block.thisRepN'
p590
I0
sg29
NsS'block.thisN'
p591
I13
sg459
(S'TRIPLE'
S'HALF'
S'DIVIDE'
S'x'
S'y'
tp592
sg27
g28
sg461
L3L
sg462
(I2
I1
I3
tp593
sg22
I1
sg20
F13.239724634680897
sg23
F3.0103732675779611
sVY
L2L
sVX
L4L
sg464
g475
sg31
g32
sg33
g34
sg21
S'3'
sg19
S'space'
p594
sg30
g11
sg467
L3L
sg468
g465
sg470
L3L
sS'block.thisIndex'
p595
I9
sg472
g498
sg474
L0L
sg476
g587
sa(dp596
S'block.thisTrialN'
p597
I14
sS'block.thisRepN'
p598
I0
sg29
NsS'block.thisN'
p599
I14
sg459
(S'THIRD'
S'ADD'
S'INCREASE'
S'x'
S'y'
tp600
sg27
g28
sg461
L3L
sg462
(I8
I15
I5
tp601
sg22
I1
sg20
F5.9912320149596781
sg23
F4.7412950957659632
sVY
L7L
sVX
L7L
sg464
g469
sg31
g32
sg33
g34
sg21
S'5'
sg19
S'space'
p602
sg30
g11
sg467
L5L
sg468
g506
sg470
L5L
sS'block.thisIndex'
p603
I6
sg472
g473
sg474
L0L
sg476
g488
sa(dp604
S'block.thisTrialN'
p605
I15
sS'block.thisRepN'
p606
I0
sg29
NsS'block.thisN'
p607
I15
sg459
(S'TRIPLE'
S'DECREASE'
S'HALF'
S'TIMES'
S'x'
S'y'
tp608
sg27
g28
sg461
L4L
sg462
(I6
I3
I2
I6
tp609
sg22
I1
sg20
F11.798230304615572
sg23
F9.9687111650127918
sVY
L2L
sVX
L3L
sg464
g465
sg31
g32
sg33
g34
sg21
S'6'
sg19
S'space'
p610
sg30
g11
sg467
L6L
sg468
g484
sg470
L6L
sS'block.thisIndex'
p611
I17
sg472
g498
sg474
g486
sg476
g477
sa(dp612
S'block.thisTrialN'
p613
I16
sS'block.thisRepN'
p614
I0
sg29
NsS'block.thisN'
p615
I16
sg459
(S'TIMES'
S'INCREASE'
S'x'
S'y'
tp616
sg27
g28
sg461
L2L
sg462
(I3
I6
tp617
sg22
I1
sg20
F7.6107338699512184
sg23
F2.912882890785113
sVY
L2L
sVX
L2L
sg464
L0L
sg31
g32
sg33
g34
sg21
S'6'
sg19
S'space'
p618
sg30
g11
sg467
L6L
sg468
g469
sg470
L6L
sS'block.thisIndex'
p619
I1
sg472
g486
sg474
L0L
sg476
g537
sa(dp620
S'block.thisTrialN'
p621
I17
sS'block.thisRepN'
p622
I0
sg29
NsS'block.thisN'
p623
I17
sg459
(S'TRIPLE'
S'HALF'
S'ADD'
S'DECREASE'
S'x'
S'y'
tp624
sg27
g28
sg461
L4L
sg462
(I1
I4
I2
I6
tp625
sg22
I1
sg20
F13.540468552149832
sg23
F7.6200016029179096
sVY
L3L
sVX
L2L
sg464
g506
sg31
g32
sg33
g34
sg21
S'6'
sg19
S'space'
p626
sg30
g11
sg467
L6L
sg468
g465
sg470
L6L
sS'block.thisIndex'
p627
I15
sg472
g498
sg474
g484
sg476
g510
sa(dp628
S'block.thisTrialN'
p629
I0
sS'block.thisRepN'
p630
I0
sg29
NsS'block.thisN'
p631
I0
sVRule
p632
(S'DIVIDE'
S'THIRD'
S'x'
S'y'
tp633
sg27
g28
sVLength
p634
L2L
sVIntermediate
p635
(I3
I1
tp636
sg22
I1
sg20
F2.9223130065947771
sg23
F2.4998157443478703
sVY
L3L
sVX
L9L
sVOperatorc
p637
L0L
sg31
g32
sg33
g34
sg21
S'1'
sg19
S'space'
p638
sg30
g11
sVResult
p639
L1L
sVOperatora
p640
Vthird
p641
sVCorrectResponse
p642
L1L
sS'block.thisIndex'
p643
I0
sVOperatorb
p644
VDIVIDE
p645
sVOperatord
p646
L0L
sVStructure
p647
VBUxy
p648
sa(dp649
S'block.thisTrialN'
p650
I1
sS'block.thisRepN'
p651
I0
sg29
NsS'block.thisN'
p652
I1
sg632
(S'SUBTRACT'
S'TRIPLE'
S'DECREASE'
S'x'
S'y'
tp653
sg27
g28
sg634
L3L
sg635
(I4
I12
I3
tp654
sg22
I1
sg20
F7.3958769403398037
sg23
F3.5782579588703811
sVY
L9L
sVX
L5L
sg637
Vdecrease
p655
sg31
g32
sg33
g34
sg21
S'3'
sg19
S'space'
p656
sg30
g11
sg639
L3L
sg640
Vtriple
p657
sg642
L3L
sS'block.thisIndex'
p658
I4
sg644
VSUBTRACT
p659
sg646
L0L
sg647
VBUUxy
p660
sa(dp661
S'block.thisTrialN'
p662
I2
sS'block.thisRepN'
p663
I0
sg29
NsS'block.thisN'
p664
I2
sg632
(S'SUBTRACT'
S'TRIPLE'
S'DECREASE'
S'DOUBLE'
S'x'
S'y'
tp665
sg27
g28
sg634
L4L
sg635
(I4
I3
I9
I1
tp666
sg22
I1
sg20
F14.669835702748969
sg23
F6.2644730024039745
sVY
L8L
sVX
L2L
sg637
g655
sg31
g32
sg33
g34
sg21
S'1'
sg19
S'space'
p667
sg30
g11
sg639
L1L
sg640
g657
sg642
L1L
sS'block.thisIndex'
p668
I11
sg644
g659
sg646
Vdouble
p669
sg647
VBUUUxy
p670
sa(dp671
S'block.thisTrialN'
p672
I3
sS'block.thisRepN'
p673
I0
sg29
NsS'block.thisN'
p674
I3
sg632
(S'THIRD'
S'TIMES'
S'HALF'
S'x'
S'y'
tp675
sg27
g28
sg634
L3L
sg635
(I3
I18
I6
tp676
sg22
I1
sg20
F9.6530486545525491
sg23
F5.3210438990499824
sVY
L6L
sVX
L6L
sg637
Vhalf
p677
sg31
g32
sg33
g34
sg21
S'6'
sg19
S'space'
p678
sg30
g11
sg639
L6L
sg640
VTIMES
p679
sg642
L6L
sS'block.thisIndex'
p680
I7
sg644
g641
sg646
L0L
sg647
VUBUxy
p681
sa(dp682
S'block.thisTrialN'
p683
I4
sS'block.thisRepN'
p684
I0
sg29
NsS'block.thisN'
p685
I4
sg632
(S'THIRD'
S'DECREASE'
S'TIMES'
S'HALF'
S'x'
S'y'
tp686
sg27
g28
sg634
L4L
sg635
(I4
I16
I15
I5
tp687
sg22
I1
sg20
F16.883183589903638
sg23
F7.1600323505699635
sVY
L4L
sVX
L8L
sg637
g679
sg31
g32
sg33
g34
sg21
S'5'
sg19
S'space'
p688
sg30
g11
sg639
L5L
sg640
g655
sg642
L5L
sS'block.thisIndex'
p689
I15
sg644
g641
sg646
g677
sg647
VUUBUxy
p690
sa(dp691
S'block.thisTrialN'
p692
I5
sS'block.thisRepN'
p693
I0
sg29
NsS'block.thisN'
p694
I5
sg632
(S'TIMES'
S'HALF'
S'INCREASE'
S'x'
S'y'
tp695
sg27
g28
sg634
L3L
sg635
(I6
I3
I9
tp696
sg22
I1
sg20
F5.0441569923423231
sg23
F5.1619337021838874
sVY
L3L
sVX
L5L
sg637
Vincrease
p697
sg31
g32
sg33
g34
sg21
S'9'
sg19
S'space'
p698
sg30
g11
sg639
L9L
sg640
g677
sg642
L9L
sS'block.thisIndex'
p699
I5
sg644
g679
sg646
L0L
sg647
g660
sa(dp700
S'block.thisTrialN'
p701
I6
sS'block.thisRepN'
p702
I0
sg29
NsS'block.thisN'
p703
I6
sg632
(S'SUBTRACT'
S'DOUBLE'
S'TRIPLE'
S'DECREASE'
S'x'
S'y'
tp704
sg27
g28
sg634
L4L
sg635
(I2
I6
I12
I8
tp705
sg22
I1
sg20
F8.6879697605036199
sg23
F13.273289982229471
sVY
L4L
sVX
L3L
sg637
g657
sg31
g32
sg33
g34
sg21
S'8'
sg19
S'space'
p706
sg30
g11
sg639
L8L
sg640
g669
sg642
L8L
sS'block.thisIndex'
p707
I10
sg644
g659
sg646
g655
sg647
g670
sa(dp708
S'block.thisTrialN'
p709
I7
sS'block.thisRepN'
p710
I0
sg29
NsS'block.thisN'
p711
I7
sg632
(S'DOUBLE'
S'DIVIDE'
S'TRIPLE'
S'INCREASE'
S'x'
S'y'
tp712
sg27
g28
sg634
L4L
sg635
(I5
I15
I3
I6
tp713
sg22
I1
sg20
F14.895942908478901
sg23
F9.7331423466093838
sVY
L5L
sVX
L4L
sg637
g657
sg31
g32
sg33
g34
sg21
S'6'
sg19
S'space'
p714
sg30
g11
sg639
L6L
sg640
g645
sg642
L6L
sS'block.thisIndex'
p715
I12
sg644
g669
sg646
g697
sg647
VUBUUxy
p716
sa(dp717
S'block.thisTrialN'
p718
I8
sS'block.thisRepN'
p719
I0
sg29
NsS'block.thisN'
p720
I8
sg632
(S'HALF'
S'TRIPLE'
S'INCREASE'
S'SUBTRACT'
S'x'
S'y'
tp721
sg27
g28
sg634
L4L
sg635
(I1
I2
I6
I3
tp722
sg22
I1
sg20
F11.537738137179986
sg23
F6.5149985598400235
sVY
L2L
sVX
L3L
sg637
g697
sg31
g32
sg33
g34
sg21
S'3'
sg19
S'space'
p723
sg30
g11
sg639
L3L
sg640
g657
sg642
L3L
sS'block.thisIndex'
p724
I17
sg644
g677
sg646
g659
sg647
VUUUBxy
p725
sa(dp726
S'block.thisTrialN'
p727
I9
sS'block.thisRepN'
p728
I0
sg29
NsS'block.thisN'
p729
I9
sg632
(S'THIRD'
S'DIVIDE'
S'x'
S'y'
tp730
sg27
g28
sg634
L2L
sg635
(I3
I1
tp731
sg22
I1
sg20
F2.0539906162302941
sg23
F1.7190440676640719
sVY
L2L
sVX
L6L
sg637
L0L
sg31
g32
sg33
g34
sg21
S'1'
sg19
S'space'
p732
sg30
g11
sg639
L1L
sg640
g645
sg642
L1L
sS'block.thisIndex'
p733
I3
sg644
g641
sg646
L0L
sg647
VUBxy
p734
sa(dp735
S'block.thisTrialN'
p736
I10
sS'block.thisRepN'
p737
I0
sg29
NsS'block.thisN'
p738
I10
sg632
(S'INCREASE'
S'ADD'
S'HALF'
S'TRIPLE'
S'x'
S'y'
tp739
sg27
g28
sg634
L4L
sg635
(I6
I3
I6
I7
tp740
sg22
I1
sg20
F12.01813685731031
sg23
F8.1351072515826672
sVY
L3L
sVX
L2L
sg637
g677
sg31
g32
sg33
g34
sg21
S'7'
sg19
S'space'
p741
sg30
g11
sg639
L7L
sg640
VADD
p742
sg642
L7L
sS'block.thisIndex'
p743
I13
sg644
g697
sg646
g657
sg647
g716
sa(dp744
S'block.thisTrialN'
p745
I11
sS'block.thisRepN'
p746
I0
sg29
NsS'block.thisN'
p747
I11
sg632
(S'INCREASE'
S'SUBTRACT'
S'x'
S'y'
tp748
sg27
g28
sg634
L2L
sg635
(I3
I4
tp749
sg22
I1
sg20
F2.9182523805648088
sg23
F6.5962523808702826
sVY
L3L
sVX
L6L
sg637
L0L
sg31
g32
sg33
g34
sg21
S'4'
sg19
S'space'
p750
sg30
g11
sg639
L4L
sg640
g659
sg642
L4L
sS'block.thisIndex'
p751
I2
sg644
g697
sg646
L0L
sg647
g734
sa(dp752
S'block.thisTrialN'
p753
I12
sS'block.thisRepN'
p754
I0
sg29
NsS'block.thisN'
p755
I12
sg632
(S'TIMES'
S'DOUBLE'
S'x'
S'y'
tp756
sg27
g28
sg634
L2L
sg635
(I4
I8
tp757
sg22
I1
sg20
F15.633050341159105
sg23
F2.3932676124386489
sVY
L2L
sVX
L2L
sg637
L0L
sg31
g32
sg33
g34
sg21
S'8'
sg19
S'space'
p758
sg30
g11
sg639
L8L
sg640
g669
sg642
L8L
sS'block.thisIndex'
p759
I1
sg644
g679
sg646
L0L
sg647
g648
sa(dp760
S'block.thisTrialN'
p761
I13
sS'block.thisRepN'
p762
I0
sg29
NsS'block.thisN'
p763
I13
sg632
(S'DOUBLE'
S'DECREASE'
S'ADD'
S'x'
S'y'
tp764
sg27
g28
sg634
L3L
sg635
(I4
I3
I6
tp765
sg22
I1
sg20
F12.802583150565624
sg23
F4.8544253406580538
sVY
L2L
sVX
L2L
sg637
g742
sg31
g32
sg33
g34
sg21
S'6'
sg19
S'space'
p766
sg30
g11
sg639
L6L
sg640
g655
sg642
L6L
sS'block.thisIndex'
p767
I8
sg644
g669
sg646
L0L
sg647
VUUBxy
p768
sa(dp769
S'block.thisTrialN'
p770
I14
sS'block.thisRepN'
p771
I0
sg29
NsS'block.thisN'
p772
I14
sg632
(S'DOUBLE'
S'THIRD'
S'TIMES'
S'x'
S'y'
tp773
sg27
g28
sg634
L3L
sg635
(I12
I4
I8
tp774
sg22
I1
sg20
F6.8868883030954748
sg23
F4.5476407036185265
sVY
L6L
sVX
L2L
sg637
g679
sg31
g32
sg33
g34
sg21
S'8'
sg19
S'space'
p775
sg30
g11
sg639
L8L
sg640
g641
sg642
L8L
sS'block.thisIndex'
p776
I9
sg644
g669
sg646
L0L
sg647
g768
sa(dp777
S'block.thisTrialN'
p778
I15
sS'block.thisRepN'
p779
I0
sg29
NsS'block.thisN'
p780
I15
sg632
(S'DECREASE'
S'TRIPLE'
S'HALF'
S'SUBTRACT'
S'x'
S'y'
tp781
sg27
g28
sg634
L4L
sg635
(I4
I2
I6
I5
tp782
sg22
I0
sg20
F11.554887397447601
sg23
F14.692109478404745
sVY
L2L
sVX
L6L
sg637
g677
sg31
g32
sg33
g34
sg21
S'7'
sg19
S'space'
p783
sg30
g11
sg639
L5L
sg640
g657
sg642
L5L
sS'block.thisIndex'
p784
I16
sg644
g655
sg646
g659
sg647
g725
sa(dp785
S'block.thisTrialN'
p786
I16
sS'block.thisRepN'
p787
I0
sg29
NsS'block.thisN'
p788
I16
sg632
(S'THIRD'
S'DIVIDE'
S'DECREASE'
S'x'
S'y'
tp789
sg27
g28
sg634
L3L
sg635
(I6
I3
I1
tp790
sg22
I1
sg20
F15.494200230343267
sg23
F5.9903315587434918
sVY
L2L
sVX
L7L
sg637
g655
sg31
g32
sg33
g34
sg21
S'1'
sg19
S'space'
p791
sg30
g11
sg639
L1L
sg640
g645
sg642
L1L
sS'block.thisIndex'
p792
I6
sg644
g641
sg646
L0L
sg647
g681
sa(dp793
S'block.thisTrialN'
p794
I17
sS'block.thisRepN'
p795
I0
sg29
NsS'block.thisN'
p796
I17
sg632
(S'DECREASE'
S'TRIPLE'
S'DIVIDE'
S'DOUBLE'
S'x'
S'y'
tp797
sg27
g28
sg634
L4L
sg635
(I6
I2
I6
I5
tp798
sg22
I0
sg20
F14.484474045224488
sg23
F9.3360639817547053
sVY
L3L
sVX
L3L
sg637
g645
sg31
g32
sg33
g34
sg21
S'8'
sg19
S'space'
p799
sg30
g11
sg639
L5L
sg640
g657
sg642
L5L
sS'block.thisIndex'
p800
I14
sg644
g655
sg646
g669
sg647
g690
sa(dp801
S'block.thisTrialN'
p802
I0
sS'block.thisRepN'
p803
I0
sg29
NsS'block.thisN'
p804
I0
sVRule
p805
(S'DOUBLE'
S'ADD'
S'INCREASE'
S'THIRD'
S'x'
S'y'
tp806
sg27
g28
sVLength
p807
L4L
sVIntermediate
p808
(I1
I2
I4
I8
tp809
sg22
I1
sg20
F8.1108971280045807
sg23
F7.8284556006547064
sVY
L2L
sVX
L3L
sVOperatorc
p810
Vincrease
p811
sg31
g32
sg33
g34
sg21
S'8'
sg19
S'space'
p812
sg30
g11
sVResult
p813
L8L
sVOperatora
p814
VADD
p815
sVCorrectResponse
p816
L8L
sS'block.thisIndex'
p817
I12
sVOperatorb
p818
Vdouble
p819
sVOperatord
p820
Vthird
p821
sVStructure
p822
VUBUUxy
p823
sa(dp824
S'block.thisTrialN'
p825
I1
sS'block.thisRepN'
p826
I0
sg29
NsS'block.thisN'
p827
I1
sg805
(S'SUBTRACT'
S'DECREASE'
S'x'
S'y'
tp828
sg27
g28
sg807
L2L
sg808
(I5
I3
tp829
sg22
I1
sg20
F4.3534197206608951
sg23
F4.3113268131855875
sVY
L2L
sVX
L6L
sg810
L0L
sg31
g32
sg33
g34
sg21
S'3'
sg19
S'space'
p830
sg30
g11
sg813
L3L
sg814
Vdecrease
p831
sg816
L3L
sS'block.thisIndex'
p832
I1
sg818
VSUBTRACT
p833
sg820
L0L
sg822
VBUxy
p834
sa(dp835
S'block.thisTrialN'
p836
I2
sS'block.thisRepN'
p837
I0
sg29
NsS'block.thisN'
p838
I2
sg805
(S'THIRD'
S'DOUBLE'
S'ADD'
S'DECREASE'
S'x'
S'y'
tp839
sg27
g28
sg807
L4L
sg808
(I5
I12
I24
I8
tp840
sg22
I1
sg20
F13.648494229651988
sg23
F6.5795559731777757
sVY
L7L
sVX
L6L
sg810
g815
sg31
g32
sg33
g34
sg21
S'8'
sg19
S'space'
p841
sg30
g11
sg813
L8L
sg814
g819
sg816
L8L
sS'block.thisIndex'
p842
I14
sg818
g821
sg820
g831
sg822
VUUBUxy
p843
sa(dp844
S'block.thisTrialN'
p845
I3
sS'block.thisRepN'
p846
I0
sg29
NsS'block.thisN'
p847
I3
sg805
(S'INCREASE'
S'SUBTRACT'
S'HALF'
S'x'
S'y'
tp848
sg27
g28
sg807
L3L
sg808
(I4
I2
I3
tp849
sg22
I1
sg20
F12.674874826800078
sg23
F4.1822326341643929
sVY
L2L
sVX
L8L
sg810
Vhalf
p850
sg31
g32
sg33
g34
sg21
S'3'
sg19
S'space'
p851
sg30
g11
sg813
L3L
sg814
g833
sg816
L3L
sS'block.thisIndex'
p852
I7
sg818
g811
sg820
L0L
sg822
VUBUxy
p853
sa(dp854
S'block.thisTrialN'
p855
I4
sS'block.thisRepN'
p856
I0
sg29
NsS'block.thisN'
p857
I4
sg805
(S'INCREASE'
S'TRIPLE'
S'DIVIDE'
S'x'
S'y'
tp858
sg27
g28
sg807
L3L
sg808
(I2
I6
I7
tp859
sg22
I1
sg20
F4.5650681850966066
sg23
F3.5852841755840927
sVY
L3L
sVX
L6L
sg810
VDIVIDE
p860
sg31
g32
sg33
g34
sg21
S'7'
sg19
S'space'
p861
sg30
g11
sg813
L7L
sg814
Vtriple
p862
sg816
L7L
sS'block.thisIndex'
p863
I8
sg818
g811
sg820
L0L
sg822
VUUBxy
p864
sa(dp865
S'block.thisTrialN'
p866
I5
sS'block.thisRepN'
p867
I0
sg29
NsS'block.thisN'
p868
I5
sg805
(S'INCREASE'
S'ADD'
S'x'
S'y'
tp869
sg27
g28
sg807
L2L
sg808
(I5
I6
tp870
sg22
I1
sg20
F1.2500807540491223
sg23
F1.8635614872910082
sVY
L2L
sVX
L3L
sg810
L0L
sg31
g32
sg33
g34
sg21
S'6'
sg19
S'space'
p871
sg30
g11
sg813
L6L
sg814
g815
sg816
L6L
sS'block.thisIndex'
p872
I3
sg818
g811
sg820
L0L
sg822
VUBxy
p873
sa(dp874
S'block.thisTrialN'
p875
I6
sS'block.thisRepN'
p876
I0
sg29
NsS'block.thisN'
p877
I6
sg805
(S'THIRD'
S'HALF'
S'ADD'
S'x'
S'y'
tp878
sg27
g28
sg807
L3L
sg808
(I6
I3
I1
tp879
sg22
I1
sg20
F9.2360570174641907
sg23
F2.0838019053917378
sVY
L3L
sVX
L3L
sg810
g815
sg31
g32
sg33
g34
sg21
S'1'
sg19
S'space'
p880
sg30
g11
sg813
L1L
sg814
g850
sg816
L1L
sS'block.thisIndex'
p881
I9
sg818
g821
sg820
L0L
sg822
g864
sa(dp882
S'block.thisTrialN'
p883
I7
sS'block.thisRepN'
p884
I0
sg29
NsS'block.thisN'
p885
I7
sg805
(S'DIVIDE'
S'DECREASE'
S'TRIPLE'
S'x'
S'y'
tp886
sg27
g28
sg807
L3L
sg808
(I9
I8
I4
tp887
sg22
I1
sg20
F10.278017638949677
sg23
F3.0118326153606176
sVY
L2L
sVX
L3L
sg810
g862
sg31
g32
sg33
g34
sg21
S'4'
sg19
S'space'
p888
sg30
g11
sg813
L4L
sg814
g831
sg816
L4L
sS'block.thisIndex'
p889
I5
sg818
g860
sg820
L0L
sg822
VBUUxy
p890
sa(dp891
S'block.thisTrialN'
p892
I8
sS'block.thisRepN'
p893
I0
sg29
NsS'block.thisN'
p894
I8
sg805
(S'SUBTRACT'
S'DECREASE'
S'TRIPLE'
S'DOUBLE'
S'x'
S'y'
tp895
sg27
g28
sg807
L4L
sg808
(I6
I18
I17
I8
tp896
sg22
I1
sg20
F8.8721586903557181
sg23
F13.736503045773134
sVY
L9L
sVX
L3L
sg810
g862
sg31
g32
sg33
g34
sg21
S'8'
sg19
S'space'
p897
sg30
g11
sg813
L8L
sg814
g831
sg816
L8L
sS'block.thisIndex'
p898
I11
sg818
g833
sg820
g819
sg822
VBUUUxy
p899
sa(dp900
S'block.thisTrialN'
p901
I9
sS'block.thisRepN'
p902
I0
sg29
NsS'block.thisN'
p903
I9
sg805
(S'DIVIDE'
S'INCREASE'
S'x'
S'y'
tp904
sg27
g28
sg807
L2L
sg808
(I4
I2
tp905
sg22
I1
sg20
F3.360163867007941
sg23
F2.6280560123268515
sVY
L2L
sVX
L3L
sg810
L0L
sg31
g32
sg33
g34
sg21
S'2'
sg19
S'space'
p906
sg30
g11
sg813
L2L
sg814
g811
sg816
L2L
sS'block.thisIndex'
p907
I0
sg818
g860
sg820
L0L
sg822
g834
sa(dp908
S'block.thisTrialN'
p909
I10
sS'block.thisRepN'
p910
I0
sg29
NsS'block.thisN'
p911
I10
sg805
(S'HALF'
S'TRIPLE'
S'INCREASE'
S'DIVIDE'
S'x'
S'y'
tp912
sg27
g28
sg807
L4L
sg808
(I3
I4
I12
I6
tp913
sg22
I1
sg20
F10.403295116266236
sg23
F4.7252051748801023
sVY
L3L
sVX
L9L
sg810
g811
sg31
g32
sg33
g34
sg21
S'6'
sg19
S'space'
p914
sg30
g11
sg813
L6L
sg814
g862
sg816
L6L
sS'block.thisIndex'
p915
I16
sg818
g850
sg820
g860
sg822
VUUUBxy
p916
sa(dp917
S'block.thisTrialN'
p918
I11
sS'block.thisRepN'
p919
I0
sg29
NsS'block.thisN'
p920
I11
sg805
(S'HALF'
S'ADD'
S'TRIPLE'
S'x'
S'y'
tp921
sg27
g28
sg807
L3L
sg808
(I9
I12
I6
tp922
sg22
I1
sg20
F8.1148149690125138
sg23
F4.0398342432454228
sVY
L3L
sVX
L3L
sg810
g862
sg31
g32
sg33
g34
sg21
S'6'
sg19
S'space'
p923
sg30
g11
sg813
L6L
sg814
g815
sg816
L6L
sS'block.thisIndex'
p924
I6
sg818
g850
sg820
L0L
sg822
g853
sa(dp925
S'block.thisTrialN'
p926
I12
sS'block.thisRepN'
p927
I0
sg29
NsS'block.thisN'
p928
I12
sg805
(S'THIRD'
S'DOUBLE'
S'INCREASE'
S'TIMES'
S'x'
S'y'
tp929
sg27
g28
sg807
L4L
sg808
(I8
I9
I18
I6
tp930
sg22
I1
sg20
F11.634334007278085
sg23
F5.8962015314027667
sVY
L4L
sVX
L2L
sg810
g811
sg31
g32
sg33
g34
sg21
S'6'
sg19
S'space'
p931
sg30
g11
sg813
L6L
sg814
g819
sg816
L6L
sS'block.thisIndex'
p932
I17
sg818
g821
sg820
VTIMES
p933
sg822
g916
sa(dp934
S'block.thisTrialN'
p935
I13
sS'block.thisRepN'
p936
I0
sg29
NsS'block.thisN'
p937
I13
sg805
(S'THIRD'
S'INCREASE'
S'DIVIDE'
S'DOUBLE'
S'x'
S'y'
tp938
sg27
g28
sg807
L4L
sg808
(I18
I2
I3
I1
tp939
sg22
I1
sg20
F14.323407902382314
sg23
F9.991184419952333
sVY
L9L
sVX
L9L
sg810
g860
sg31
g32
sg33
g34
sg21
S'1'
sg19
S'space'
p940
sg30
g11
sg813
L1L
sg814
g811
sg816
L1L
sS'block.thisIndex'
p941
I15
sg818
g821
sg820
g819
sg822
g843
sa(dp942
S'block.thisTrialN'
p943
I14
sS'block.thisRepN'
p944
I0
sg29
NsS'block.thisN'
p945
I14
sg805
(S'ADD'
S'HALF'
S'THIRD'
S'x'
S'y'
tp946
sg27
g28
sg807
L3L
sg808
(I2
I1
I9
tp947
sg22
I1
sg20
F9.0288793365471065
sg23
F2.6042623452376574
sVY
L8L
sVX
L6L
sg810
g821
sg31
g32
sg33
g34
sg21
S'9'
sg19
S'space'
p948
sg30
g11
sg813
L9L
sg814
g850
sg816
L9L
sS'block.thisIndex'
p949
I4
sg818
g815
sg820
L0L
sg822
g890
sa(dp950
S'block.thisTrialN'
p951
I15
sS'block.thisRepN'
p952
I0
sg29
NsS'block.thisN'
p953
I15
sg805
(S'ADD'
S'DOUBLE'
S'DECREASE'
S'THIRD'
S'x'
S'y'
tp954
sg27
g28
sg807
L4L
sg808
(I2
I1
I2
I8
tp955
sg22
I1
sg20
F11.663502413546667
sg23
F11.03011540742591
sVY
L6L
sVX
L6L
sg810
g831
sg31
g32
sg33
g34
sg21
S'8'
sg19
S'space'
p956
sg30
g11
sg813
L8L
sg814
g819
sg816
L8L
sS'block.thisIndex'
p957
I10
sg818
g815
sg820
g821
sg822
g899
sa(dp958
S'block.thisTrialN'
p959
I16
sS'block.thisRepN'
p960
I0
sg29
NsS'block.thisN'
p961
I16
sg805
(S'THIRD'
S'TIMES'
S'DOUBLE'
S'DECREASE'
S'x'
S'y'
tp962
sg27
g28
sg807
L4L
sg808
(I1
I2
I6
I2
tp963
sg22
I0
sVY
L3L
sVX
L2L
sg810
g819
sg31
g32
sg33
g34
sg21
Nsg19
Nsg30
g11
sg813
L2L
sg814
g933
sg816
L2L
sS'block.thisIndex'
p964
I13
sg818
g821
sg820
g831
sg822
g823
sa(dp965
S'block.thisTrialN'
p966
I17
sS'block.thisRepN'
p967
I0
sg29
NsS'block.thisN'
p968
I17
sg805
(S'DECREASE'
S'DIVIDE'
S'x'
S'y'
tp969
sg27
g28
sg807
L2L
sg808
(I2
I1
tp970
sg22
I1
sg20
F5.4489531016442925
sg23
F3.8922199967782944
sVY
L4L
sVX
L8L
sg810
L0L
sg31
g32
sg33
g34
sg21
S'1'
sg19
S'space'
p971
sg30
g11
sg813
L1L
sg814
g860
sg816
L1L
sS'block.thisIndex'
p972
I2
sg818
g831
sg820
L0L
sg822
g873
sa(dp973
S'block.thisTrialN'
p974
I0
sS'block.thisRepN'
p975
I0
sg29
NsS'block.thisN'
p976
I0
sVRule
p977
(S'ADD'
S'THIRD'
S'INCREASE'
S'HALF'
S'x'
S'y'
tp978
sg27
g28
sVLength
p979
L4L
sVIntermediate
p980
(I2
I3
I1
I7
tp981
sg22
I0
sg20
F11.94744423427619
sg23
F6.2275413561146706
sVY
L6L
sVX
L4L
sVOperatorc
p982
Vincrease
p983
sg31
g32
sg33
g34
sg21
S'8'
sg19
S'space'
p984
sg30
g11
sVResult
p985
L7L
sVOperatora
p986
Vthird
p987
sVCorrectResponse
p988
L7L
sS'block.thisIndex'
p989
I10
sVOperatorb
p990
VADD
p991
sVOperatord
p992
Vhalf
p993
sVStructure
p994
VBUUUxy
p995
sa(dp996
S'block.thisTrialN'
p997
I1
sS'block.thisRepN'
p998
I0
sg29
NsS'block.thisN'
p999
I1
sg977
(S'SUBTRACT'
S'HALF'
S'TRIPLE'
S'x'
S'y'
tp1000
sg27
g28
sg979
L3L
sg980
(I12
I6
I2
tp1001
sg22
I1
sg20
F12.031023912597448
sg23
F12.535326538840309
sVY
L4L
sVX
L4L
sg982
Vtriple
p1002
sg31
g32
sg33
g34
sg21
S'2'
sg19
S'space'
p1003
sg30
g11
sg985
L2L
sg986
g993
sg988
L2L
sS'block.thisIndex'
p1004
I5
sg990
VSUBTRACT
p1005
sg992
L0L
sg994
VBUUxy
p1006
sa(dp1007
S'block.thisTrialN'
p1008
I2
sS'block.thisRepN'
p1009
I0
sg29
NsS'block.thisN'
p1010
I2
sg977
(S'INCREASE'
S'DIVIDE'
S'THIRD'
S'x'
S'y'
tp1011
sg27
g28
sg979
L3L
sg980
(I3
I1
I2
tp1012
sg22
I1
sg20
F16.24592388770543
sg23
F6.0088330782018602
sVY
L3L
sVX
L9L
sg982
g987
sg31
g32
sg33
g34
sg21
S'2'
sg19
S'space'
p1013
sg30
g11
sg985
L2L
sg986
VDIVIDE
p1014
sg988
L2L
sS'block.thisIndex'
p1015
I7
sg990
g983
sg992
L0L
sg994
VUBUxy
p1016
sa(dp1017
S'block.thisTrialN'
p1018
I3
sS'block.thisRepN'
p1019
I0
sg29
NsS'block.thisN'
p1020
I3
sg977
(S'DOUBLE'
S'DECREASE'
S'TRIPLE'
S'DIVIDE'
S'x'
S'y'
tp1021
sg27
g28
sg979
L4L
sg980
(I1
I3
I2
I4
tp1022
sg22
I1
sg20
F10.094339305767789
sg23
F9.4624242461286485
sVY
L4L
sVX
L4L
sg982
g1002
sg31
g32
sg33
g34
sg21
S'4'
sg19
S'space'
p1023
sg30
g11
sg985
L4L
sg986
Vdecrease
p1024
sg988
L4L
sS'block.thisIndex'
p1025
I17
sg990
Vdouble
p1026
sg992
g1014
sg994
VUUUBxy
p1027
sa(dp1028
S'block.thisTrialN'
p1029
I4
sS'block.thisRepN'
p1030
I0
sg29
NsS'block.thisN'
p1031
I4
sg977
(S'DOUBLE'
S'DECREASE'
S'SUBTRACT'
S'x'
S'y'
tp1032
sg27
g28
sg979
L3L
sg980
(I5
I4
I8
tp1033
sg22
I1
sg20
F6.9338544521015137
sg23
F7.0631873065140098
sVY
L2L
sVX
L7L
sg982
g1005
sg31
g32
sg33
g34
sg21
S'8'
sg19
S'space'
p1034
sg30
g11
sg985
L8L
sg986
g1024
sg988
L8L
sS'block.thisIndex'
p1035
I8
sg990
g1026
sg992
L0L
sg994
VUUBxy
p1036
sa(dp1037
S'block.thisTrialN'
p1038
I5
sS'block.thisRepN'
p1039
I0
sg29
NsS'block.thisN'
p1040
I5
sg977
(S'DIVIDE'
S'INCREASE'
S'DOUBLE'
S'THIRD'
S'x'
S'y'
tp1041
sg27
g28
sg979
L4L
sg980
(I2
I4
I5
I1
tp1042
sg22
I1
sg20
F10.11836814833805
sg23
F7.2992639217991382
sVY
L5L
sVX
L6L
sg982
g1026
sg31
g32
sg33
g34
sg21
S'1'
sg19
S'space'
p1043
sg30
g11
sg985
L1L
sg986
g983
sg988
L1L
sS'block.thisIndex'
p1044
I11
sg990
g1014
sg992
g987
sg994
g995
sa(dp1045
S'block.thisTrialN'
p1046
I6
sS'block.thisRepN'
p1047
I0
sg29
NsS'block.thisN'
p1048
I6
sg977
(S'HALF'
S'TIMES'
S'x'
S'y'
tp1049
sg27
g28
sg979
L2L
sg980
(I16
I8
tp1050
sg22
I1
sg20
F4.8700494603253901
sg23
F2.2757432262878865
sVY
L4L
sVX
L4L
sg982
L0L
sg31
g32
sg33
g34
sg21
S'8'
sg19
S'space'
p1051
sg30
g11
sg985
L8L
sg986
VTIMES
p1052
sg988
L8L
sS'block.thisIndex'
p1053
I3
sg990
g993
sg992
L0L
sg994
VUBxy
p1054
sa(dp1055
S'block.thisTrialN'
p1056
I7
sS'block.thisRepN'
p1057
I0
sg29
NsS'block.thisN'
p1058
I7
sg977
(S'DOUBLE'
S'TRIPLE'
S'SUBTRACT'
S'x'
S'y'
tp1059
sg27
g28
sg979
L3L
sg980
(I1
I3
I6
tp1060
sg22
I1
sg20
F4.8688592344988137
sg23
F6.7299590785987675
sVY
L3L
sVX
L4L
sg982
g1005
sg31
g32
sg33
g34
sg21
S'6'
sg19
S'space'
p1061
sg30
g11
sg985
L6L
sg986
g1002
sg988
L6L
sS'block.thisIndex'
p1062
I9
sg990
g1026
sg992
L0L
sg994
g1036
sa(dp1063
S'block.thisTrialN'
p1064
I8
sS'block.thisRepN'
p1065
I0
sg29
NsS'block.thisN'
p1066
I8
sg977
(S'DECREASE'
S'HALF'
S'TRIPLE'
S'DIVIDE'
S'x'
S'y'
tp1067
sg27
g28
sg979
L4L
sg980
(I4
I12
I6
I5
tp1068
sg22
I1
sg20
F7.4574278173968196
sg23
F8.2652331229764968
sVY
L2L
sVX
L8L
sg982
g1002
sg31
g32
sg33
g34
sg21
S'5'
sg19
S'space'
p1069
sg30
g11
sg985
L5L
sg986
g993
sg988
L5L
sS'block.thisIndex'
p1070
I16
sg990
g1024
sg992
g1014
sg994
g1027
sa(dp1071
S'block.thisTrialN'
p1072
I9
sS'block.thisRepN'
p1073
I0
sg29
NsS'block.thisN'
p1074
I9
sg977
(S'DIVIDE'
S'DOUBLE'
S'x'
S'y'
tp1075
sg27
g28
sg979
L2L
sg980
(I12
I2
tp1076
sg22
I1
sg20
F4.1148863616399467
sg23
F2.2415773412212729
sVY
L6L
sVX
L6L
sg982
L0L
sg31
g32
sg33
g34
sg21
S'2'
sg19
S'space'
p1077
sg30
g11
sg985
L2L
sg986
g1026
sg988
L2L
sS'block.thisIndex'
p1078
I1
sg990
g1014
sg992
L0L
sg994
VBUxy
p1079
sa(dp1080
S'block.thisTrialN'
p1081
I10
sS'block.thisRepN'
p1082
I0
sg29
NsS'block.thisN'
p1083
I10
sg977
(S'DOUBLE'
S'SUBTRACT'
S'x'
S'y'
tp1084
sg27
g28
sg979
L2L
sg980
(I1
I2
tp1085
sg22
I1
sg20
F2.1784988737199455
sg23
F3.604851683601737
sVY
L7L
sVX
L8L
sg982
L0L
sg31
g32
sg33
g34
sg21
S'2'
sg19
S'space'
p1086
sg30
g11
sg985
L2L
sg986
g1005
sg988
L2L
sS'block.thisIndex'
p1087
I2
sg990
g1026
sg992
L0L
sg994
g1054
sa(dp1088
S'block.thisTrialN'
p1089
I11
sS'block.thisRepN'
p1090
I0
sg29
NsS'block.thisN'
p1091
I11
sg977
(S'DECREASE'
S'THIRD'
S'TIMES'
S'HALF'
S'x'
S'y'
tp1092
sg27
g28
sg979
L4L
sg980
(I2
I12
I4
I3
tp1093
sg22
I1
sg20
F16.359532532747835
sg23
F6.1314928287174553
sVY
L6L
sVX
L4L
sg982
g1052
sg31
g32
sg33
g34
sg21
S'3'
sg19
S'space'
p1094
sg30
g11
sg985
L3L
sg986
g987
sg988
L3L
sS'block.thisIndex'
p1095
I14
sg990
g1024
sg992
g993
sg994
VUUBUxy
p1096
sa(dp1097
S'block.thisTrialN'
p1098
I12
sS'block.thisRepN'
p1099
I0
sg29
NsS'block.thisN'
p1100
I12
sg977
(S'ADD'
S'DOUBLE'
S'x'
S'y'
tp1101
sg27
g28
sg979
L2L
sg980
(I4
I8
tp1102
sg22
I1
sg20
F1.3145268792286515
sg23
F2.3287602439522743
sVY
L4L
sVX
L2L
sg982
L0L
sg31
g32
sg33
g34
sg21
S'8'
sg19
S'space'
p1103
sg30
g11
sg985
L8L
sg986
g1026
sg988
L8L
sS'block.thisIndex'
p1104
I0
sg990
g991
sg992
L0L
sg994
g1079
sa(dp1105
S'block.thisTrialN'
p1106
I13
sS'block.thisRepN'
p1107
I0
sg29
NsS'block.thisN'
p1108
I13
sg977
(S'DECREASE'
S'ADD'
S'DOUBLE'
S'THIRD'
S'x'
S'y'
tp1109
sg27
g28
sg979
L4L
sg980
(I3
I6
I10
I9
tp1110
sg22
I1
sg20
F5.1527065651025623
sg23
F15.939264537766576
sVY
L4L
sVX
L9L
sg982
g1026
sg31
g32
sg33
g34
sg21
S'9'
sg19
S'space'
p1111
sg30
g11
sg985
L9L
sg986
g991
sg988
L9L
sS'block.thisIndex'
p1112
I12
sg990
Vdecrease 
p1113
sg992
g987
sg994
VUBUUxy
p1114
sa(dp1115
S'block.thisTrialN'
p1116
I14
sS'block.thisRepN'
p1117
I0
sg29
NsS'block.thisN'
p1118
I14
sg977
(S'DIVIDE'
S'DOUBLE'
S'THIRD'
S'x'
S'y'
tp1119
sg27
g28
sg979
L3L
sg980
(I2
I4
I1
tp1120
sg22
I1
sg20
F3.5258418282028288
sg23
F3.8747606687247753
sVY
L4L
sVX
L6L
sg982
g987
sg31
g32
sg33
g34
sg21
S'1'
sg19
S'space'
p1121
sg30
g11
sg985
L1L
sg986
g1026
sg988
L1L
sS'block.thisIndex'
p1122
I4
sg990
g1014
sg992
L0L
sg994
g1006
sa(dp1123
S'block.thisTrialN'
p1124
I15
sS'block.thisRepN'
p1125
I0
sg29
NsS'block.thisN'
p1126
I15
sg977
(S'DOUBLE'
S'TRIPLE'
S'DIVIDE'
S'DECREASE'
S'x'
S'y'
tp1127
sg27
g28
sg979
L4L
sg980
(I8
I1
I3
I6
tp1128
sg22
I1
sg20
F8.3449166580103338
sg23
F3.5715131126344204
sVY
L8L
sVX
L9L
sg982
g1014
sg31
g32
sg33
g34
sg21
S'6'
sg19
S'space'
p1129
sg30
g11
sg985
L6L
sg986
g1002
sg988
L6L
sS'block.thisIndex'
p1130
I15
sg990
g1026
sg992
g1024
sg994
g1096
sa(dp1131
S'block.thisTrialN'
p1132
I16
sS'block.thisRepN'
p1133
I0
sg29
NsS'block.thisN'
p1134
I16
sg977
(S'HALF'
S'SUBTRACT'
S'TRIPLE'
S'x'
S'y'
tp1135
sg27
g28
sg979
L3L
sg980
(I9
I2
I1
tp1136
sg22
I1
sg20
F11.781196532072499
sg23
F3.9724400257691741
sVY
L7L
sVX
L3L
sg982
g1002
sg31
g32
sg33
g34
sg21
S'1'
sg19
S'space'
p1137
sg30
g11
sg985
L1L
sg986
g1005
sg988
L1L
sS'block.thisIndex'
p1138
I6
sg990
g993
sg992
L0L
sg994
g1016
sa(dp1139
S'block.thisTrialN'
p1140
I17
sS'block.thisRepN'
p1141
I0
sg29
NsS'block.thisN'
p1142
I17
sg977
(S'DECREASE'
S'TIMES'
S'DOUBLE'
S'THIRD'
S'x'
S'y'
tp1143
sg27
g28
sg979
L4L
sg980
(I1
I2
I8
I7
tp1144
sg22
I1
sg20
F11.796181268524379
sg23
F4.8220859153661877
sVY
L4L
sVX
L3L
sg982
g1026
sg31
g32
sg33
g34
sg21
S'7'
sg19
S'space'
p1145
sg30
g11
sg985
L7L
sg986
g1052
sg988
L7L
sS'block.thisIndex'
p1146
I13
sg990
g1024
sg992
g987
sg994
g1114
sa(dp1147
S'block.thisTrialN'
p1148
I0
sS'block.thisRepN'
p1149
I0
sg29
NsS'block.thisN'
p1150
I0
sVRule
p1151
(S'DECREASE'
S'TRIPLE'
S'HALF'
S'ADD'
S'x'
S'y'
tp1152
sg27
g28
sVLength
p1153
L4L
sVIntermediate
p1154
(I6
I3
I9
I8
tp1155
sg22
I1
sg20
F9.2270094114355743
sg23
F7.2214932872448117
sVY
L2L
sVX
L4L
sVOperatorc
p1156
Vhalf
p1157
sg31
g32
sg33
g34
sg21
S'8'
sg19
S'space'
p1158
sg30
g11
sVResult
p1159
L8L
sVOperatora
p1160
Vtriple
p1161
sVCorrectResponse
p1162
L8L
sS'block.thisIndex'
p1163
I16
sVOperatorb
p1164
Vdecrease
p1165
sVOperatord
p1166
VADD
p1167
sVStructure
p1168
VUUUBxy
p1169
sa(dp1170
S'block.thisTrialN'
p1171
I1
sS'block.thisRepN'
p1172
I0
sg29
NsS'block.thisN'
p1173
I1
sg1151
(S'TIMES'
S'THIRD'
S'DOUBLE'
S'x'
S'y'
tp1174
sg27
g28
sg1153
L3L
sg1154
(I6
I2
I4
tp1175
sg22
I0
sg20
F10.181837525218725
sg23
F4.2896675732918084
sVY
L2L
sVX
L3L
sg1156
Vdouble
p1176
sg31
g32
sg33
g34
sg21
S'6'
sg19
S'space'
p1177
sg30
g11
sg1159
L4L
sg1160
Vthird
p1178
sg1162
L4L
sS'block.thisIndex'
p1179
I5
sg1164
VTIMES
p1180
sg1166
L0L
sg1168
VBUUxy
p1181
sa(dp1182
S'block.thisTrialN'
p1183
I2
sS'block.thisRepN'
p1184
I0
sg29
NsS'block.thisN'
p1185
I2
sg1151
(S'THIRD'
S'INCREASE'
S'SUBTRACT'
S'x'
S'y'
tp1186
sg27
g28
sg1153
L3L
sg1154
(I2
I3
I1
tp1187
sg22
I1
sg20
F9.831259157974273
sg23
F3.8248474772553891
sVY
L6L
sVX
L8L
sg1156
VSUBTRACT
p1188
sg31
g32
sg33
g34
sg21
S'1'
sg19
S'space'
p1189
sg30
g11
sg1159
L1L
sg1160
Vincrease
p1190
sg1162
L1L
sS'block.thisIndex'
p1191
I9
sg1164
g1178
sg1166
L0L
sg1168
VUUBxy
p1192
sa(dp1193
S'block.thisTrialN'
p1194
I3
sS'block.thisRepN'
p1195
I0
sg29
NsS'block.thisN'
p1196
I3
sg1151
(S'DIVIDE'
S'TRIPLE'
S'HALF'
S'x'
S'y'
tp1197
sg27
g28
sg1153
L3L
sg1154
(I4
I12
I4
tp1198
sg22
I1
sg20
F6.7564152681734413
sg23
F6.3706501726992428
sVY
L3L
sVX
L8L
sg1156
g1157
sg31
g32
sg33
g34
sg21
S'4'
sg19
S'space'
p1199
sg30
g11
sg1159
L4L
sg1160
g1161
sg1162
L4L
sS'block.thisIndex'
p1200
I4
sg1164
VDIVIDE
p1201
sg1166
L0L
sg1168
g1181
sa(dp1202
S'block.thisTrialN'
p1203
I4
sS'block.thisRepN'
p1204
I0
sg29
NsS'block.thisN'
p1205
I4
sg1151
(S'DOUBLE'
S'TIMES'
S'x'
S'y'
tp1206
sg27
g28
sg1153
L2L
sg1154
(I4
I8
tp1207
sg22
I1
sg20
F1.1265436452813447
sg23
F3.0951746685896069
sVY
L2L
sVX
L2L
sg1156
L0L
sg31
g32
sg33
g34
sg21
S'8'
sg19
S'space'
p1208
sg30
g11
sg1159
L8L
sg1160
g1180
sg1162
L8L
sS'block.thisIndex'
p1209
I3
sg1164
g1176
sg1166
L0L
sg1168
VUBxy
p1210
sa(dp1211
S'block.thisTrialN'
p1212
I5
sS'block.thisRepN'
p1213
I0
sg29
NsS'block.thisN'
p1214
I5
sg1151
(S'INCREASE'
S'ADD'
S'TRIPLE'
S'x'
S'y'
tp1215
sg27
g28
sg1153
L3L
sg1154
(I6
I8
I9
tp1216
sg22
I1
sg20
F14.693243009969592
sg23
F5.1752284648828208
sVY
L2L
sVX
L2L
sg1156
g1161
sg31
g32
sg33
g34
sg21
S'9'
sg19
S'space'
p1217
sg30
g11
sg1159
L9L
sg1160
g1167
sg1162
L9L
sS'block.thisIndex'
p1218
I6
sg1164
g1190
sg1166
L0L
sg1168
VUBUxy
p1219
sa(dp1220
S'block.thisTrialN'
p1221
I6
sS'block.thisRepN'
p1222
I0
sg29
NsS'block.thisN'
p1223
I6
sg1151
(S'THIRD'
S'TIMES'
S'HALF'
S'INCREASE'
S'x'
S'y'
tp1224
sg27
g28
sg1153
L4L
sg1154
(I8
I4
I12
I4
tp1225
sg22
I1
sg20
F12.293234400916845
sg23
F7.8757979604415596
sVY
L3L
sVX
L7L
sg1156
g1157
sg31
g32
sg33
g34
sg21
S'4'
sg19
S'space'
p1226
sg30
g11
sg1159
L4L
sg1160
g1180
sg1162
L4L
sS'block.thisIndex'
p1227
I13
sg1164
g1178
sg1166
g1190
sg1168
VUBUUxy
p1228
sa(dp1229
S'block.thisTrialN'
p1230
I7
sS'block.thisRepN'
p1231
I0
sg29
NsS'block.thisN'
p1232
I7
sg1151
(S'TIMES'
S'INCREASE'
S'HALF'
S'TRIPLE'
S'x'
S'y'
tp1233
sg27
g28
sg1153
L4L
sg1154
(I6
I3
I4
I8
tp1234
sg22
I1
sg20
F9.0786724905483425
sg23
F9.6491546106990427
sVY
L2L
sVX
L2L
sg1156
g1157
sg31
g32
sg33
g34
sg21
S'8'
sg19
S'space'
p1235
sg30
g11
sg1159
L8L
sg1160
g1190
sg1162
L8L
sS'block.thisIndex'
p1236
I11
sg1164
g1180
sg1166
g1161
sg1168
VBUUUxy
p1237
sa(dp1238
S'block.thisTrialN'
p1239
I8
sS'block.thisRepN'
p1240
I0
sg29
NsS'block.thisN'
p1241
I8
sg1151
(S'DIVIDE'
S'DOUBLE'
S'INCREASE'
S'THIRD'
S'x'
S'y'
tp1242
sg27
g28
sg1153
L4L
sg1154
(I2
I3
I6
I2
tp1243
sg22
I1
sg20
F5.2848807726986706
sg23
F11.605705244699493
sVY
L3L
sVX
L6L
sg1156
g1190
sg31
g32
sg33
g34
sg21
S'2'
sg19
S'space'
p1244
sg30
g11
sg1159
L2L
sg1160
g1176
sg1162
L2L
sS'block.thisIndex'
p1245
I10
sg1164
g1201
sg1166
g1178
sg1168
g1237
sa(dp1246
S'block.thisTrialN'
p1247
I9
sS'block.thisRepN'
p1248
I0
sg29
NsS'block.thisN'
p1249
I9
sg1151
(S'THIRD'
S'INCREASE'
S'ADD'
S'DOUBLE'
S'x'
S'y'
tp1250
sg27
g28
sg1153
L4L
sg1154
(I16
I20
I21
I7
tp1251
sg22
I1
sg20
F10.309858016204089
sg23
F6.9822358537930995
sVY
L4L
sVX
L8L
sg1156
g1167
sg31
g32
sg33
g34
sg21
S'7'
sg19
S'space'
p1252
sg30
g11
sg1159
L7L
sg1160
g1190
sg1162
L7L
sS'block.thisIndex'
p1253
I14
sg1164
g1178
sg1166
g1176
sg1168
VUUBUxy
p1254
sa(dp1255
S'block.thisTrialN'
p1256
I10
sS'block.thisRepN'
p1257
I0
sg29
NsS'block.thisN'
p1258
I10
sg1151
(S'ADD'
S'THIRD'
S'x'
S'y'
tp1259
sg27
g28
sg1153
L2L
sg1154
(I1
I7
tp1260
sg22
I1
sg20
F1.7466145406942815
sg23
F2.5190931325778365
sVY
L6L
sVX
L3L
sg1156
L0L
sg31
g32
sg33
g34
sg21
S'7'
sg19
S'space'
p1261
sg30
g11
sg1159
L7L
sg1160
g1178
sg1162
L7L
sS'block.thisIndex'
p1262
I0
sg1164
g1167
sg1166
L0L
sg1168
VBUxy
p1263
sa(dp1264
S'block.thisTrialN'
p1265
I11
sS'block.thisRepN'
p1266
I0
sg29
NsS'block.thisN'
p1267
I11
sg1151
(S'SUBTRACT'
S'INCREASE'
S'x'
S'y'
tp1268
sg27
g28
sg1153
L2L
sg1154
(I6
I2
tp1269
sg22
I1
sg20
F1.8125711081083864
sg23
F2.0010085948742926
sVY
L4L
sVX
L5L
sg1156
L0L
sg31
g32
sg33
g34
sg21
S'2'
sg19
S'space'
p1270
sg30
g11
sg1159
L2L
sg1160
g1190
sg1162
L2L
sS'block.thisIndex'
p1271
I1
sg1164
g1188
sg1166
L0L
sg1168
g1263
sa(dp1272
S'block.thisTrialN'
p1273
I12
sS'block.thisRepN'
p1274
I0
sg29
NsS'block.thisN'
p1275
I12
sg1151
(S'TRIPLE'
S'DOUBLE'
S'SUBTRACT'
S'DECREASE'
S'x'
S'y'
tp1276
sg27
g28
sg1153
L4L
sg1154
(I4
I1
I2
I6
tp1277
sg22
I1
sg20
F6.3079689133446664
sg23
F4.1982273650355637
sVY
L3L
sVX
L5L
sg1156
g1188
sg31
g32
sg33
g34
sg21
S'6'
sg19
S'space'
p1278
sg30
g11
sg1159
L6L
sg1160
g1176
sg1162
L6L
sS'block.thisIndex'
p1279
I15
sg1164
g1161
sg1166
g1165
sg1168
g1254
sa(dp1280
S'block.thisTrialN'
p1281
I13
sS'block.thisRepN'
p1282
I0
sg29
NsS'block.thisN'
p1283
I13
sg1151
(S'TRIPLE'
S'DECREASE'
S'HALF'
S'SUBTRACT'
S'x'
S'y'
tp1284
sg27
g28
sg1153
L4L
sg1154
(I4
I2
I1
I3
tp1285
sg22
I0
sg20
F13.222718159435317
sg23
F10.966903603635728
sVY
L5L
sVX
L9L
sg1156
g1157
sg31
g32
sg33
g34
sg21
S'8'
sg19
S'space'
p1286
sg30
g11
sg1159
L3L
sg1160
g1165
sg1162
L3L
sS'block.thisIndex'
p1287
I17
sg1164
g1161
sg1166
g1188
sg1168
g1169
sa(dp1288
S'block.thisTrialN'
p1289
I14
sS'block.thisRepN'
p1290
I0
sg29
NsS'block.thisN'
p1291
I14
sg1151
(S'INCREASE'
S'SUBTRACT'
S'THIRD'
S'x'
S'y'
tp1292
sg27
g28
sg1153
L3L
sg1154
(I3
I1
I2
tp1293
sg22
I1
sg20
F10.211668762378395
sg23
F3.9395504577551037
sVY
L2L
sVX
L9L
sg1156
g1178
sg31
g32
sg33
g34
sg21
S'2'
sg19
S'space'
p1294
sg30
g11
sg1159
L2L
sg1160
g1188
sg1162
L2L
sS'block.thisIndex'
p1295
I7
sg1164
g1190
sg1166
L0L
sg1168
g1219
sa(dp1296
S'block.thisTrialN'
p1297
I15
sS'block.thisRepN'
p1298
I0
sg29
NsS'block.thisN'
p1299
I15
sg1151
(S'DOUBLE'
S'ADD'
S'x'
S'y'
tp1300
sg27
g28
sg1153
L2L
sg1154
(I4
I8
tp1301
sg22
I1
sg20
F0.98302257154136896
sg23
F3.1422283085994422
sVY
L2L
sVX
L2L
sg1156
L0L
sg31
g32
sg33
g34
sg21
S'8'
sg19
S'space'
p1302
sg30
g11
sg1159
L8L
sg1160
g1167
sg1162
L8L
sS'block.thisIndex'
p1303
I2
sg1164
g1176
sg1166
L0L
sg1168
g1210
sa(dp1304
S'block.thisTrialN'
p1305
I16
sS'block.thisRepN'
p1306
I0
sg29
NsS'block.thisN'
p1307
I16
sg1151
(S'DECREASE'
S'TRIPLE'
S'DIVIDE'
S'x'
S'y'
tp1308
sg27
g28
sg1153
L3L
sg1154
(I2
I6
I5
tp1309
sg22
I1
sg20
F10.419982074992731
sg23
F3.3715152824297547
sVY
L4L
sVX
L8L
sg1156
g1201
sg31
g32
sg33
g34
sg21
S'5'
sg19
S'space'
p1310
sg30
g11
sg1159
L5L
sg1160
g1161
sg1162
L5L
sS'block.thisIndex'
p1311
I8
sg1164
g1165
sg1166
L0L
sg1168
g1192
sa(dp1312
S'block.thisTrialN'
p1313
I17
sS'block.thisRepN'
p1314
I0
sg29
NsS'block.thisN'
p1315
I17
sg1151
(S'INCREASE'
S'DIVIDE'
S'TRIPLE'
S'HALF'
S'x'
S'y'
tp1316
sg27
g28
sg1153
L4L
sg1154
(I2
I6
I2
I3
tp1317
sg22
I1
sg20
F9.873174284119159
sg23
F6.2161769920494407
sVY
L3L
sVX
L4L
sg1156
g1161
sg31
g32
sg33
g34
sg21
S'3'
sg19
S'space'
p1318
sg30
g11
sg1159
L3L
sg1160
g1201
sg1162
L3L
sS'block.thisIndex'
p1319
I12
sg1164
g1190
sg1166
g1157
sg1168
g1228
sa(dp1320
S'block.thisTrialN'
p1321
I0
sS'block.thisRepN'
p1322
I0
sg29
NsS'block.thisN'
p1323
I0
sVRule
p1324
(S'HALF'
S'ADD'
S'x'
S'y'
tp1325
sg27
g28
sVLength
p1326
L2L
sVIntermediate
p1327
(I12
I6
tp1328
sg22
I1
sg20
F0.97938750102184713
sg23
F4.8874625933822244
sVY
L8L
sVX
L4L
sVOperatorc
p1329
L0L
sg31
g32
sg33
g34
sg21
S'6'
sg19
S'space'
p1330
sg30
g11
sVResult
p1331
L6L
sVOperatora
p1332
VADD
p1333
sVCorrectResponse
p1334
L6L
sS'block.thisIndex'
p1335
I3
sVOperatorb
p1336
Vhalf
p1337
sVOperatord
p1338
L0L
sVStructure
p1339
VUBxy
p1340
sa(dp1341
S'block.thisTrialN'
p1342
I1
sS'block.thisRepN'
p1343
I0
sg29
NsS'block.thisN'
p1344
I1
sg1324
(S'DECREASE'
S'ADD'
S'THIRD'
S'HALF'
S'x'
S'y'
tp1345
sg27
g28
sg1326
L4L
sg1327
(I3
I1
I7
I6
tp1346
sg22
I0
sg20
F6.278661921620369
sg23
F9.6021293178200722
sVY
L6L
sVX
L6L
sg1329
Vthird
p1347
sg31
g32
sg33
g34
sg21
S'1'
sg19
S'space'
p1348
sg30
g11
sg1331
L6L
sg1332
g1333
sg1334
L6L
sS'block.thisIndex'
p1349
I12
sg1336
Vdecrease
p1350
sg1338
g1337
sg1339
VUBUUxy
p1351
sa(dp1352
S'block.thisTrialN'
p1353
I2
sS'block.thisRepN'
p1354
I0
sg29
NsS'block.thisN'
p1355
I2
sg1324
(S'DOUBLE'
S'SUBTRACT'
S'INCREASE'
S'x'
S'y'
tp1356
sg27
g28
sg1326
L3L
sg1327
(I4
I1
I2
tp1357
sg22
I1
sg20
F10.007506366819143
sg23
F4.1169081006664783
sVY
L3L
sVX
L3L
sg1329
Vincrease
p1358
sg31
g32
sg33
g34
sg21
S'2'
sg19
S'space'
p1359
sg30
g11
sg1331
L2L
sg1332
VSUBTRACT
p1360
sg1334
L2L
sS'block.thisIndex'
p1361
I6
sg1336
Vdouble
p1362
sg1338
L0L
sg1339
VUBUxy
p1363
sa(dp1364
S'block.thisTrialN'
p1365
I3
sS'block.thisRepN'
p1366
I0
sg29
NsS'block.thisN'
p1367
I3
sg1324
(S'INCREASE'
S'HALF'
S'THIRD'
S'TIMES'
S'x'
S'y'
tp1368
sg27
g28
sg1326
L4L
sg1327
(I12
I4
I2
I3
tp1369
sg22
I1
sg20
F10.582269240403548
sg23
F3.4722235735971481
sVY
L4L
sVX
L3L
sg1329
g1347
sg31
g32
sg33
g34
sg21
S'3'
sg19
S'space'
p1370
sg30
g11
sg1331
L3L
sg1332
g1337
sg1334
L3L
sS'block.thisIndex'
p1371
I16
sg1336
g1358
sg1338
VTIMES
p1372
sg1339
VUUUBxy
p1373
sa(dp1374
S'block.thisTrialN'
p1375
I4
sS'block.thisRepN'
p1376
I0
sg29
NsS'block.thisN'
p1377
I4
sg1324
(S'DECREASE'
S'SUBTRACT'
S'DOUBLE'
S'THIRD'
S'x'
S'y'
tp1378
sg27
g28
sg1326
L4L
sg1327
(I3
I6
I4
I3
tp1379
sg22
I1
sg20
F11.942481402074918
sg23
F7.4156995716039091
sVY
L2L
sVX
L9L
sg1329
g1362
sg31
g32
sg33
g34
sg21
S'3'
sg19
S'space'
p1380
sg30
g11
sg1331
L3L
sg1332
g1360
sg1334
L3L
sS'block.thisIndex'
p1381
I13
sg1336
g1350
sg1338
g1347
sg1339
g1351
sa(dp1382
S'block.thisTrialN'
p1383
I5
sS'block.thisRepN'
p1384
I0
sg29
NsS'block.thisN'
p1385
I5
sg1324
(S'DIVIDE'
S'DECREASE'
S'x'
S'y'
tp1386
sg27
g28
sg1326
L2L
sg1327
(I8
I2
tp1387
sg22
I1
sg20
F0.88356854952871799
sg23
F4.1944355105515569
sVY
L4L
sVX
L9L
sg1329
L0L
sg31
g32
sg33
g34
sg21
S'2'
sg19
S'space'
p1388
sg30
g11
sg1331
L2L
sg1332
g1350
sg1334
L2L
sS'block.thisIndex'
p1389
I1
sg1336
VDIVIDE
p1390
sg1338
L0L
sg1339
VBUxy
p1391
sa(dp1392
S'block.thisTrialN'
p1393
I6
sS'block.thisRepN'
p1394
I0
sg29
NsS'block.thisN'
p1395
I6
sg1324
(S'ADD'
S'TRIPLE'
S'DOUBLE'
S'DECREASE'
S'x'
S'y'
tp1396
sg27
g28
sg1326
L4L
sg1327
(I1
I2
I6
I8
tp1397
sg22
I1
sg20
F11.861799421254545
sg23
F3.9238983411341906
sVY
L2L
sVX
L2L
sg1329
g1362
sg31
g32
sg33
g34
sg21
S'8'
sg19
S'space'
p1398
sg30
g11
sg1331
L8L
sg1332
Vtriple
p1399
sg1334
L8L
sS'block.thisIndex'
p1400
I11
sg1336
g1333
sg1338
g1350
sg1339
VBUUUxy
p1401
sa(dp1402
S'block.thisTrialN'
p1403
I7
sS'block.thisRepN'
p1404
I0
sg29
NsS'block.thisN'
p1405
I7
sg1324
(S'THIRD'
S'HALF'
S'INCREASE'
S'SUBTRACT'
S'x'
S'y'
tp1406
sg27
g28
sg1326
L4L
sg1327
(I5
I6
I3
I1
tp1407
sg22
I1
sg20
F15.812201896682382
sg23
F5.0953514000866562
sVY
L2L
sVX
L7L
sg1329
g1358
sg31
g32
sg33
g34
sg21
S'1'
sg19
S'space'
p1408
sg30
g11
sg1331
L1L
sg1332
g1337
sg1334
L1L
sS'block.thisIndex'
p1409
I17
sg1336
g1347
sg1338
g1360
sg1339
g1373
sa(dp1410
S'block.thisTrialN'
p1411
I8
sS'block.thisRepN'
p1412
I0
sg29
NsS'block.thisN'
p1413
I8
sg1324
(S'DECREASE'
S'DOUBLE'
S'TIMES'
S'THIRD'
S'x'
S'y'
tp1414
sg27
g28
sg1326
L4L
sg1327
(I1
I3
I6
I5
tp1415
sg22
I1
sg20
F9.0439337154384702
sg23
F6.9675219890195876
sVY
L3L
sVX
L3L
sg1329
g1372
sg31
g32
sg33
g34
sg21
S'5'
sg19
S'space'
p1416
sg30
g11
sg1331
L5L
sg1332
g1362
sg1334
L5L
sS'block.thisIndex'
p1417
I14
sg1336
g1350
sg1338
g1347
sg1339
VUUBUxy
p1418
sa(dp1419
S'block.thisTrialN'
p1420
I9
sS'block.thisRepN'
p1421
I0
sg29
NsS'block.thisN'
p1422
I9
sg1324
(S'ADD'
S'TRIPLE'
S'HALF'
S'x'
S'y'
tp1423
sg27
g28
sg1326
L3L
sg1327
(I2
I6
I8
tp1424
sg22
I1
sg20
F3.1068407010752708
sg23
F3.1593394228257239
sVY
L2L
sVX
L4L
sg1329
g1337
sg31
g32
sg33
g34
sg21
S'8'
sg19
S'space'
p1425
sg30
g11
sg1331
L8L
sg1332
g1399
sg1334
L8L
sS'block.thisIndex'
p1426
I5
sg1336
g1333
sg1338
L0L
sg1339
VBUUxy
p1427
sa(dp1428
S'block.thisTrialN'
p1429
I10
sS'block.thisRepN'
p1430
I0
sg29
NsS'block.thisN'
p1431
I10
sg1324
(S'HALF'
S'INCREASE'
S'TIMES'
S'x'
S'y'
tp1432
sg27
g28
sg1326
L3L
sg1327
(I9
I10
I5
tp1433
sg22
I1
sg20
F5.764871085761115
sg23
F2.4840477895922959
sVY
L3L
sVX
L3L
sg1329
g1372
sg31
g32
sg33
g34
sg21
S'5'
sg19
S'space'
p1434
sg30
g11
sg1331
L5L
sg1332
g1358
sg1334
L5L
sS'block.thisIndex'
p1435
I9
sg1336
g1337
sg1338
L0L
sg1339
VUUBxy
p1436
sa(dp1437
S'block.thisTrialN'
p1438
I11
sS'block.thisRepN'
p1439
I0
sg29
NsS'block.thisN'
p1440
I11
sg1324
(S'ADD'
S'DECREASE'
S'x'
S'y'
tp1441
sg27
g28
sg1326
L2L
sg1327
(I2
I7
tp1442
sg22
I1
sg20
F1.2544958933722228
sg23
F3.0773366799112409
sVY
L5L
sVX
L3L
sg1329
L0L
sg31
g32
sg33
g34
sg21
S'7'
sg19
S'space'
p1443
sg30
g11
sg1331
L7L
sg1332
g1350
sg1334
L7L
sS'block.thisIndex'
p1444
I0
sg1336
g1333
sg1338
L0L
sg1339
g1391
sa(dp1445
S'block.thisTrialN'
p1446
I12
sS'block.thisRepN'
p1447
I0
sg29
NsS'block.thisN'
p1448
I12
sg1324
(S'DECREASE'
S'TIMES'
S'x'
S'y'
tp1449
sg27
g28
sg1326
L2L
sg1327
(I9
I8
tp1450
sg22
I1
sg20
F1.091850015334785
sg23
F2.7606557754334062
sVY
L3L
sVX
L3L
sg1329
L0L
sg31
g32
sg33
g34
sg21
S'8'
sg19
S'space'
p1451
sg30
g11
sg1331
L8L
sg1332
g1372
sg1334
L8L
sS'block.thisIndex'
p1452
I2
sg1336
g1350
sg1338
L0L
sg1339
g1340
sa(dp1453
S'block.thisTrialN'
p1454
I13
sS'block.thisRepN'
p1455
I0
sg29
NsS'block.thisN'
p1456
I13
sg1324
(S'ADD'
S'DECREASE'
S'THIRD'
S'DOUBLE'
S'x'
S'y'
tp1457
sg27
g28
sg1326
L4L
sg1327
(I18
I6
I5
I9
tp1458
sg22
I1
sg20
F6.950439921580255
sg23
F6.9323058638256043
sVY
L4L
sVX
L9L
sg1329
g1347
sg31
g32
sg33
g34
sg21
S'9'
sg19
S'space'
p1459
sg30
g11
sg1331
L9L
sg1332
g1350
sg1334
L9L
sS'block.thisIndex'
p1460
I10
sg1336
g1333
sg1338
g1362
sg1339
g1401
sa(dp1461
S'block.thisTrialN'
p1462
I14
sS'block.thisRepN'
p1463
I0
sg29
NsS'block.thisN'
p1464
I14
sg1324
(S'DECREASE'
S'TRIPLE'
S'SUBTRACT'
S'DOUBLE'
S'x'
S'y'
tp1465
sg27
g28
sg1326
L4L
sg1327
(I6
I3
I9
I8
tp1466
sg22
I0
sg20
F17.315006678923965
sg23
F12.310311568900943
sVY
L3L
sVX
L3L
sg1329
g1360
sg31
g32
sg33
g34
sg21
S'5'
sg19
S'space'
p1467
sg30
g11
sg1331
L8L
sg1332
g1399
sg1334
L8L
sS'block.thisIndex'
p1468
I15
sg1336
g1350
sg1338
g1362
sg1339
g1418
sa(dp1469
S'block.thisTrialN'
p1470
I15
sS'block.thisRepN'
p1471
I0
sg29
NsS'block.thisN'
p1472
I15
sg1324
(S'DOUBLE'
S'THIRD'
S'ADD'
S'x'
S'y'
tp1473
sg27
g28
sg1326
L3L
sg1327
(I9
I3
I6
tp1474
sg22
I1
sg20
F4.8552998995874077
sg23
F7.2681514685973525
sVY
L4L
sVX
L5L
sg1329
g1333
sg31
g32
sg33
g34
sg21
S'6'
sg19
S'space'
p1475
sg30
g11
sg1331
L6L
sg1332
g1347
sg1334
L6L
sS'block.thisIndex'
p1476
I8
sg1336
g1362
sg1338
L0L
sg1339
g1436
sa(dp1477
S'block.thisTrialN'
p1478
I16
sS'block.thisRepN'
p1479
I0
sg29
NsS'block.thisN'
p1480
I16
sg1324
(S'INCREASE'
S'ADD'
S'HALF'
S'x'
S'y'
tp1481
sg27
g28
sg1326
L3L
sg1327
(I1
I4
I5
tp1482
sg22
I1
sg20
F6.9483299916610122
sg23
F2.9996171398088336
sVY
L3L
sVX
L2L
sg1329
g1337
sg31
g32
sg33
g34
sg21
S'5'
sg19
S'space'
p1483
sg30
g11
sg1331
L5L
sg1332
g1333
sg1334
L5L
sS'block.thisIndex'
p1484
I7
sg1336
g1358
sg1338
L0L
sg1339
g1363
sa(dp1485
S'block.thisTrialN'
p1486
I17
sS'block.thisRepN'
p1487
I0
sg29
NsS'block.thisN'
p1488
I17
sg1324
(S'ADD'
S'DOUBLE'
S'DECREASE'
S'x'
S'y'
tp1489
sg27
g28
sg1326
L3L
sg1327
(I1
I2
I7
tp1490
sg22
I1
sg20
F2.2933971339371055
sg23
F5.2993314645718783
sVY
L5L
sVX
L2L
sg1329
g1350
sg31
g32
sg33
g34
sg21
S'7'
sg19
S'space'
p1491
sg30
g11
sg1331
L7L
sg1332
g1362
sg1334
L7L
sS'block.thisIndex'
p1492
I4
sg1336
g1333
sg1338
L0L
sg1339
g1427
sasS'loops'
p1493
(lp1494
g1
(cpsychopy.data
TrialHandler
p1495
g3
NtRp1496
(dp1497
S'origin'
p1498
NsS'thisTrial'
p1499
(lp1500
sS'_exp'
p1501
I339866576
sg10
S'practice_trials'
p1502
sg6
S'C:\\Users\\experimenter\\Desktop\\Experiments\\KRITL\\2. kritl_experimenter.py'
p1503
sS'thisRepN'
p1504
I1
sg24
I01
sg25
g26
sS'data'
p1505
g1
(cpsychopy.data
DataHandler
p1506
c__builtin__
dict
p1507
(dp1508
g15
cnumpy.core.multiarray
_reconstruct
p1509
(cnumpy
ndarray
p1510
(I0
tS'b'
tRp1511
(I1
(I6
I1
tcnumpy
dtype
p1512
(S'O4'
I0
I1
tRp1513
(I3
S'|'
NNNI-1
I-1
I63
tbI00
(lp1514
(lp1515
F2.0402444005012512
aa(lp1516
F4.8107023031916469
aa(lp1517
F2.3773516234941781
aa(lp1518
F6.2542764663230628
aa(lp1519
F5.7990352206397802
aa(lp1520
F8.0969164369162172
aatbsg16
g1509
(g1510
(I0
tS'b'
tRp1521
(I1
(I6
I1
tg1513
I00
(lp1522
S'7'
aS'8'
aS'7'
aS'8'
aS'3'
aNatbsS'ran'
p1523
cnumpy.ma.core
_mareconstruct
p1524
(cnumpy.ma.core
MaskedArray
p1525
g1510
(I0
tp1526
S'b'
tRp1527
(I1
(I6
I1
tg1512
(S'f4'
I0
I1
tRp1528
(I3
S'<'
NNNI-1
I-1
I0
tbI00
S'\x00\x00\x80?\x00\x00\x80?\x00\x00\x80?\x00\x00\x80?\x00\x00\x80?\x00\x00\x80?'
S'\x00\x00\x00\x00\x00\x00'
Ntbsg18
g1524
(g1525
g1510
g1526
S'b'
tRp1529
(I1
(I6
I1
tg1528
I00
S'\xe8tO@s\x0e\xf4?\xdb\xa7`@=\xa2\x99@\xa2\xcb!A\x00\x00\x00\x00'
S'\x00\x00\x00\x00\x00\x01'
Ntbsg14
g1509
(g1510
(I0
tS'b'
tRp1530
(I1
(I6
I1
tg1513
I00
(lp1531
(lp1532
g108
aa(lp1533
g89
aa(lp1534
g116
aa(lp1535
g100
aa(lp1536
g79
aa(lp1537
g66
aatbsS'order'
p1538
g1524
(g1525
g1510
g1526
S'b'
tRp1539
(I1
(I6
I1
tg1528
I00
S'\x00\x00\x80@\x00\x00\x00@\x00\x00\xa0@\x00\x00@@\x00\x00\x80?\x00\x00\x00\x00'
S'\x00\x00\x00\x00\x00\x00'
Ntbsg17
g1524
(g1525
g1510
g1526
S'b'
tRp1540
(I1
(I6
I1
tg1528
I00
S'\x00\x00\x80?\x00\x00\x80?\x00\x00\x80?\x00\x00\x80?\x00\x00\x80?\x00\x00\x00\x00'
S'\x00\x00\x00\x00\x00\x00'
NtbstRp1541
(dp1542
S'isNumeric'
p1543
(dp1544
g16
I00
sg1523
I01
sg18
I01
sg14
I00
sg17
I01
sg1538
I01
sg15
I00
ssS'trials'
p1545
g1496
sS'dataTypes'
p1546
(lp1547
g1523
ag1538
ag14
ag15
ag16
ag17
ag18
asS'dataShape'
p1548
(lp1549
I6
aI1
asbsS'method'
p1550
S'fullRandom'
p1551
sS'sequenceIndices'
p1552
g1509
(g1510
(I0
tS'b'
tRp1553
(I1
(I6
I1
tg1513
I00
(lp1554
I5
aI4
aI1
aI3
aI0
aI2
atbsS'finished'
p1555
I01
sS'nReps'
p1556
I1
sS'nRemaining'
p1557
I-1
sS'trialList'
p1558
(lp1559
g1
(cpsychopy.data
TrialType
p1560
g1507
(dp1561
g43
L0L
sg44
g94
sg45
g84
sg46
L7L
sg49
L2L
sg48
L0L
sg47
L5L
sg50
L3L
stRp1562
ag1
(g1560
g1507
(dp1563
g43
L0L
sg44
g84
sg45
g85
sg46
L8L
sg49
L2L
sg48
L0L
sg47
L3L
sg50
L3L
stRp1564
ag1
(g1560
g1507
(dp1565
g43
L0L
sg44
g94
sg45
g96
sg46
L7L
sg49
L2L
sg48
L0L
sg47
L5L
sg50
L4L
stRp1566
ag1
(g1560
g1507
(dp1567
g43
g94
sg44
g95
sg45
g96
sg46
L8L
sg49
L3L
sg48
L0L
sg47
L2L
sg50
L4L
stRp1568
ag1
(g1560
g1507
(dp1569
g43
g64
sg44
g69
sg45
g72
sg46
L3L
sg49
L3L
sg48
L0L
sg47
L3L
sg50
L2L
stRp1570
ag1
(g1560
g1507
(dp1571
g43
g64
sg44
g69
sg45
g67
sg46
L9L
sg49
L4L
sg48
g72
sg47
L8L
sg50
L8L
stRp1572
asS'seed'
p1573
NsS'thisIndex'
p1574
I2
sS'thisN'
p1575
I6
sS'thisTrialN'
p1576
I0
sS'nTotal'
p1577
I6
sbag1
(g1495
g3
NtRp1578
(dp1579
g1498
Nsg1499
(lp1580
sg1501
I339866576
sg10
S'block'
p1581
sg6
g1503
sg1504
I1
sg24
I01
sg25
g26
sg1505
g1
(g1506
g1507
(dp1582
g22
g1524
(g1525
g1510
g1526
S'b'
tRp1583
(I1
(I18
I1
tg1528
I00
S'\x00\x00\x80?\x00\x00\x80?\x00\x00\x80?\x00\x00\x80?\x00\x00\x80?\x00\x00\x80?\x00\x00\x80?\x00\x00\x80?\x00\x00\x80?\x00\x00\x80?\x00\x00\x80?\x00\x00\x00\x00\x00\x00\x80?\x00\x00\x80?\x00\x00\x80?\x00\x00\x80?\x00\x00\x00\x00\x00\x00\x80?'
S'\x00\x00\x00\x00\x00\x00\x00\x00\x00\x00\x00\x00\x00\x00\x00\x00\x00\x00'
Ntbsg19
g1509
(g1510
(I0
tS'b'
tRp1584
(I1
(I18
I1
tg1513
I00
(lp1585
g255
ag126
ag168
ag239
ag159
ag215
ag280
ag177
ag263
ag272
ag138
ag223
ag198
ag207
ag247
ag149
aNag187
atbsg23
g1524
(g1525
g1510
g1526
S'b'
tRp1586
(I1
(I18
I1
tg1528
I00
S'x\xaf\xac@\x8a\x9ba@V\xd1\xfa?C\xe3?@\x9b(\xff@1\xc8\x07A\xb9\xb2DA\xf7\x04\xd0@A\xec\xcd@A\x02\x8d@m\x00\xf8@q\xc1|A\xfe\xc5\xbf@\x9e:DA\xab9M@\xeb\x80\xbc@\x00\x00\x00\x00M\xe8`A'
S'\x00\x00\x00\x00\x00\x00\x00\x00\x00\x00\x00\x00\x00\x00\x00\x00\x01\x00'
Ntbsg1523
g1524
(g1525
g1510
g1526
S'b'
tRp1587
(I1
(I18
I1
tg1528
I00
S'\x00\x00\x80?\x00\x00\x80?\x00\x00\x80?\x00\x00\x80?\x00\x00\x80?\x00\x00\x80?\x00\x00\x80?\x00\x00\x80?\x00\x00\x80?\x00\x00\x80?\x00\x00\x80?\x00\x00\x80?\x00\x00\x80?\x00\x00\x80?\x00\x00\x80?\x00\x00\x80?\x00\x00\x80?\x00\x00\x80?'
S'\x00\x00\x00\x00\x00\x00\x00\x00\x00\x00\x00\x00\x00\x00\x00\x00\x00\x00'
Ntbsg21
g1509
(g1510
(I0
tS'b'
tRp1588
(I1
(I18
I1
tg1513
I00
(lp1589
S'7'
aS'9'
aS'2'
aS'5'
aS'9'
aS'3'
aS'8'
aS'3'
aS'9'
aS'6'
aS'5'
aS'1'
aS'5'
aS'7'
aS'6'
aS'9'
aNaS'5'
atbsg1538
g1524
(g1525
g1510
g1526
S'b'
tRp1590
(I1
(I18
I1
tg1528
I00
S'\x00\x00`A\x00\x00\x00\x00\x00\x00\x80@\x00\x00@A\x00\x00@@\x00\x00\x10A\x00\x00\x88A\x00\x00\xa0@\x00\x00pA\x00\x00\x80A\x00\x00\x80?\x00\x00 A\x00\x00\xe0@\x00\x00\x00A\x00\x00PA\x00\x00\x00@\x00\x000A\x00\x00\xc0@'
S'\x00\x00\x00\x00\x00\x00\x00\x00\x00\x00\x00\x00\x00\x00\x00\x00\x00\x00'
Ntbsg20
g1524
(g1525
g1510
g1526
S'b'
tRp1591
(I1
(I18
I1
tg1528
I00
S'=\x7f\x00@ftHA\xddv\x02@\x06\x93r@:\xc0\x8a@\\\xb8l@\xaf\xd3\xa1@ 2\xc3@\xd8\\\xe3@{\xa9\x83@\x82\x0c\xb9@\xd4l\x1bA\x1aC3A\x12\x1e$At\xe8!A\x90\xda\x1fA\x00\x00\x00\x00\xeb\x89,A'
S'\x00\x00\x00\x00\x00\x00\x00\x00\x00\x00\x00\x00\x00\x00\x00\x00\x01\x00'
NtbstRp1592
(dp1593
g1543
(dp1594
g1523
I01
sg21
I00
sg20
I01
sg22
I01
sg19
I00
sg23
I01
sg1538
I01
ssg1545
g1578
sg1546
(lp1595
g1523
ag1538
ag19
ag20
ag21
ag22
ag23
asg1548
(lp1596
I18
aI1
asbsg1550
g1551
sg1552
g1509
(g1510
(I0
tS'b'
tRp1597
(I1
(I18
I1
tg1513
I00
(lp1598
I1
aI10
aI15
aI4
aI2
aI7
aI17
aI12
aI13
aI5
aI11
aI16
aI3
aI14
aI0
aI8
aI9
aI6
atbsg1555
I01
sg1556
I1
sg1557
I-1
sg1558
(lp1599
g1
(g1560
g1507
(dp1600
g51
g253
sVY
L5L
sg53
L2L
sg54
g254
sg55
L7L
sg56
L7L
sg52
g186
sVX
L4L
sg57
L0L
sg58
g232
sg59
L0L
sg60
g130
stRp1601
ag1
(g1560
g1507
(dp1602
g51
g124
sVY
L3L
sg53
L2L
sg54
g125
sg55
L9L
sg56
L9L
sg52
g127
sVX
L4L
sg57
L0L
sg58
g129
sg59
L0L
sg60
g130
stRp1603
ag1
(g1560
g1507
(dp1604
g51
g166
sVY
L8L
sg53
L2L
sg54
g167
sg55
L2L
sg56
L2L
sg52
g141
sVX
L8L
sg57
L0L
sg58
g139
sg59
L0L
sg60
g170
stRp1605
ag1
(g1560
g1507
(dp1606
g51
g237
sVY
L2L
sg53
L2L
sg54
g238
sg55
L5L
sg56
L5L
sg52
g141
sVX
L8L
sg57
L0L
sg58
g137
sg59
L0L
sg60
g170
stRp1607
ag1
(g1560
g1507
(dp1608
g51
g156
sVY
L2L
sg53
L3L
sg54
g157
sg55
L9L
sg56
L9L
sg52
g127
sVX
L7L
sg57
g158
sg58
g141
sg59
L0L
sg60
g161
stRp1609
ag1
(g1560
g1507
(dp1610
g51
g213
sVY
L2L
sg53
L3L
sg54
g214
sg55
L3L
sg56
L3L
sg52
g137
sVX
L8L
sg57
g186
sg58
g129
sg59
L0L
sg60
g161
stRp1611
ag1
(g1560
g1507
(dp1612
g51
g278
sVY
L2L
sg53
L3L
sg54
g279
sg55
L8L
sg56
L8L
sg52
g190
sVX
L9L
sg57
g158
sg58
g186
sg59
L0L
sg60
g179
stRp1613
ag1
(g1560
g1507
(dp1614
g51
g175
sVY
L3L
sg53
L3L
sg54
g176
sg55
L3L
sg56
L3L
sg52
g141
sVX
L2L
sg57
g127
sg58
g137
sg59
L0L
sg60
g179
stRp1615
ag1
(g1560
g1507
(dp1616
g51
g261
sVY
L3L
sg53
L3L
sg54
g262
sg55
L9L
sg56
L9L
sg52
g186
sVX
L3L
sg57
g232
sg58
g127
sg59
L0L
sg60
g265
stRp1617
ag1
(g1560
g1507
(dp1618
g51
g270
sVY
L2L
sg53
L3L
sg54
g271
sg55
L6L
sg56
L6L
sg52
g137
sVX
L3L
sg57
g129
sg58
g127
sg59
L0L
sg60
g265
stRp1619
ag1
(g1560
g1507
(dp1620
g51
g135
sVY
L4L
sg53
L4L
sg54
g136
sg55
L5L
sg56
L5L
sg52
g139
sVX
L3L
sg57
g137
sg58
g141
sg59
g127
sg60
g142
stRp1621
ag1
(g1560
g1507
(dp1622
g51
g221
sVY
L9L
sg53
L4L
sg54
g222
sg55
L9L
sg56
L9L
sg52
g186
sVX
L3L
sg57
g137
sg58
g190
sg59
g189
sg60
g142
stRp1623
ag1
(g1560
g1507
(dp1624
g51
g196
sVY
L4L
sg53
L4L
sg54
g197
sg55
L5L
sg56
L5L
sg52
g129
sVX
L5L
sg57
g158
sg58
g186
sg59
g127
sg60
g200
stRp1625
ag1
(g1560
g1507
(dp1626
g51
g205
sVY
L2L
sg53
L4L
sg54
g206
sg55
L7L
sg56
L7L
sg52
g190
sVX
L2L
sg57
g127
sg58
g137
sg59
g186
sg60
g200
stRp1627
ag1
(g1560
g1507
(dp1628
g51
g245
sVY
L4L
sg53
L4L
sg54
g246
sg55
L6L
sg56
L6L
sg52
g139
sVX
L4L
sg57
g129
sg58
g127
sg59
g137
sg60
g151
stRp1629
ag1
(g1560
g1507
(dp1630
g51
g147
sVY
L8L
sg53
L4L
sg54
g148
sg55
L9L
sg56
L9L
sg52
g137
sVX
L8L
sg57
g141
sg58
g127
sg59
g139
sg60
g151
stRp1631
ag1
(g1560
g1507
(dp1632
g51
g229
sVY
L4L
sg53
L4L
sg54
g230
sg55
L5L
sg56
L5L
sg52
g189
sVX
L5L
sg57
g139
sg58
g158
sg59
g232
sg60
g191
stRp1633
ag1
(g1560
g1507
(dp1634
g51
g184
sVY
L4L
sg53
L4L
sg54
g185
sg55
L5L
sg56
L5L
sg52
g137
sVX
L7L
sg57
g186
sg58
g189
sg59
g190
sg60
g191
stRp1635
asg1573
Nsg1574
I6
sg1575
I18
sg1576
I0
sg1577
I18
sbag1
(g1495
g3
NtRp1636
(dp1637
g1498
Nsg1499
(lp1638
sg1501
I339866576
sg10
g1581
sg6
g1503
sg1504
I1
sg24
I01
sg25
g26
sg1505
g1
(g1506
g1507
(dp1639
g22
g1524
(g1525
g1510
g1526
S'b'
tRp1640
(I1
(I18
I1
tg1528
I00
S'\x00\x00\x80?\x00\x00\x80?\x00\x00\x80?\x00\x00\x80?\x00\x00\x80?\x00\x00\x80?\x00\x00\x80?\x00\x00\x80?\x00\x00\x80?\x00\x00\x80?\x00\x00\x00\x00\x00\x00\x80?\x00\x00\x80?\x00\x00\x80?\x00\x00\x80?\x00\x00\x80?\x00\x00\x80?\x00\x00\x80?'
S'\x00\x00\x00\x00\x00\x00\x00\x00\x00\x00\x00\x00\x00\x00\x00\x00\x00\x00'
Ntbsg19
g1509
(g1510
(I0
tS'b'
tRp1641
(I1
(I18
I1
tg1513
I00
(lp1642
g340
ag310
ag369
ag421
ag293
ag453
ag412
ag429
ag445
ag321
ag395
ag360
ag349
ag387
ag437
ag403
ag331
ag379
atbsg23
g1524
(g1525
g1510
g1526
S'b'
tRp1643
(I1
(I18
I1
tg1528
I00
S'\x13\xf3\xe5@Z#\x82@\xc5\r\xe6?\xe9\x02\x1c@\xe4\xe0\x9a@A\xd2\x00A\x89\xc2\xab@\\\xe2o@\xba\xa0\x91@\xff\'NA\x80\n`A\xf2I\xf2@1\x0f"A\x07\xa6\xe7@\x7f\xc5\x1dA\xe7\xb1\xf0@\xff\xfb0Al,\xd2@'
S'\x00\x00\x00\x00\x00\x00\x00\x00\x00\x00\x00\x00\x00\x00\x00\x00\x00\x00'
Ntbsg1523
g1524
(g1525
g1510
g1526
S'b'
tRp1644
(I1
(I18
I1
tg1528
I00
S'\x00\x00\x80?\x00\x00\x80?\x00\x00\x80?\x00\x00\x80?\x00\x00\x80?\x00\x00\x80?\x00\x00\x80?\x00\x00\x80?\x00\x00\x80?\x00\x00\x80?\x00\x00\x80?\x00\x00\x80?\x00\x00\x80?\x00\x00\x80?\x00\x00\x80?\x00\x00\x80?\x00\x00\x80?\x00\x00\x80?'
S'\x00\x00\x00\x00\x00\x00\x00\x00\x00\x00\x00\x00\x00\x00\x00\x00\x00\x00'
Ntbsg21
g1509
(g1510
(I0
tS'b'
tRp1645
(I1
(I18
I1
tg1513
I00
(lp1646
S'1'
aS'4'
aS'9'
aS'6'
aS'6'
aS'7'
aS'8'
aS'2'
aS'1'
aS'9'
aS'6'
aS'2'
aS'1'
aS'3'
aS'7'
aS'1'
aS'5'
aS'7'
atbsg1538
g1524
(g1525
g1510
g1526
S'b'
tRp1647
(I1
(I18
I1
tg1528
I00
S'\x00\x00\x80@\x00\x00\x80?\x00\x00\xe0@\x00\x00PA\x00\x00\x00\x00\x00\x00\x88A\x00\x00@A\x00\x00`A\x00\x00\x80A\x00\x00\x00@\x00\x00 A\x00\x00\xc0@\x00\x00\xa0@\x00\x00\x10A\x00\x00pA\x00\x000A\x00\x00@@\x00\x00\x00A'
S'\x00\x00\x00\x00\x00\x00\x00\x00\x00\x00\x00\x00\x00\x00\x00\x00\x00\x00'
Ntbsg20
g1524
(g1525
g1510
g1526
S'b'
tRp1648
(I1
(I18
I1
tg1528
I00
S"\xcc\xb8\x1c@\xa7\xc9\xc7@\xc3?*@\xbf{\x07A\xd3\x10\x01A\x8c\x07?@\xf6W[@\xb8\x99]@\xd4\xc9\xb1@\xb8'\x1dAAR'A\xb5\xbfpA\x80\xdaIAb&8AHl\rA\x9fY~AV\x9a\x0bA7\x99?A"
S'\x00\x00\x00\x00\x00\x00\x00\x00\x00\x00\x00\x00\x00\x00\x00\x00\x00\x00'
NtbstRp1649
(dp1650
g1543
(dp1651
g1523
I01
sg21
I00
sg20
I01
sg22
I01
sg19
I00
sg23
I01
sg1538
I01
ssg1545
g1636
sg1546
(lp1652
g1523
ag1538
ag19
ag20
ag21
ag22
ag23
asg1548
(lp1653
I18
aI1
asbsg1550
g1551
sg1552
g1509
(g1510
(I0
tS'b'
tRp1654
(I1
(I18
I1
tg1513
I00
(lp1655
I4
aI1
aI9
aI16
aI0
aI12
aI11
aI2
aI17
aI13
aI10
aI15
aI6
aI3
aI7
aI14
aI8
aI5
atbsg1555
I01
sg1556
I1
sg1557
I-1
sg1558
(lp1656
g1
(g1560
g1507
(dp1657
g286
g338
sVY
L2L
sg288
L2L
sg289
g339
sg297
L1L
sg294
L1L
sg295
g311
sVX
L9L
sg291
L0L
sg299
g342
sg301
L0L
sg302
g314
stRp1658
ag1
(g1560
g1507
(dp1659
g286
g308
sVY
L4L
sg288
L2L
sg289
g309
sg297
L4L
sg294
L4L
sg295
g311
sVX
L3L
sg291
L0L
sg299
g313
sg301
L0L
sg302
g314
stRp1660
ag1
(g1560
g1507
(dp1661
g286
g367
sVY
L4L
sg288
L2L
sg289
g368
sg297
L9L
sg294
L9L
sg295
g313
sVX
L2L
sg291
L0L
sg299
g371
sg301
L0L
sg302
g372
stRp1662
ag1
(g1560
g1507
(dp1663
g286
g419
sVY
L6L
sg288
L2L
sg289
g420
sg297
L6L
sg294
L6L
sg295
g342
sVX
L8L
sg291
L0L
sg299
g323
sg301
L0L
sg302
g372
stRp1664
ag1
(g1560
g1507
(dp1665
g286
g287
sVY
L4L
sg288
L3L
sg289
g290
sg297
L6L
sg294
L6L
sg295
g296
sVX
L6L
sg291
g292
sg299
g300
sg301
L0L
sg302
g303
stRp1666
ag1
(g1560
g1507
(dp1667
g286
g451
sVY
L9L
sg288
L3L
sg289
g452
sg297
L7L
sg294
L7L
sg295
g352
sVX
L9L
sg291
g296
sg299
g342
sg301
L0L
sg302
g303
stRp1668
ag1
(g1560
g1507
(dp1669
g286
g410
sVY
L4L
sg288
L3L
sg289
g411
sg297
L8L
sg294
L8L
sg295
g313
sVX
L3L
sg291
g311
sg299
g352
sg301
L0L
sg302
g414
stRp1670
ag1
(g1560
g1507
(dp1671
g286
g427
sVY
L2L
sg288
L3L
sg289
g428
sg297
L2L
sg294
L2L
sg295
g350
sVX
L4L
sg291
g292
sg299
g371
sg301
L0L
sg302
g414
stRp1672
ag1
(g1560
g1507
(dp1673
g286
g443
sVY
L2L
sg288
L3L
sg289
g444
sg297
L1L
sg294
L1L
sg295
g292
sVX
L8L
sg291
g350
sg299
g296
sg301
L0L
sg302
g324
stRp1674
ag1
(g1560
g1507
(dp1675
g286
g319
sVY
L3L
sg288
L3L
sg289
g320
sg297
L9L
sg294
L9L
sg295
g292
sVX
L2L
sg291
g313
sg299
g323
sg301
L0L
sg302
g324
stRp1676
ag1
(g1560
g1507
(dp1677
g286
g393
sVY
L3L
sg288
L4L
sg289
g394
sg297
L1L
sg294
L1L
sg295
g296
sVX
L6L
sg291
g311
sg299
g350
sg301
g352
sg302
g362
stRp1678
ag1
(g1560
g1507
(dp1679
g286
g358
sVY
L2L
sg288
L4L
sg289
g359
sg297
L2L
sg294
L2L
sg295
g296
sVX
L3L
sg291
g311
sg299
g313
sg301
g352
sg302
g362
stRp1680
ag1
(g1560
g1507
(dp1681
g286
g347
sVY
L9L
sg288
L4L
sg289
g348
sg297
L1L
sg294
L1L
sg295
g350
sVX
L3L
sg291
g323
sg299
g296
sg301
g352
sg302
g353
stRp1682
ag1
(g1560
g1507
(dp1683
g286
g385
sVY
L3L
sg288
L4L
sg289
g386
sg297
L3L
sg294
L3L
sg295
g342
sVX
L6L
sg291
g371
sg299
g323
sg301
g292
sg302
g353
stRp1684
ag1
(g1560
g1507
(dp1685
g286
g435
sVY
L2L
sg288
L4L
sg289
g436
sg297
L7L
sg294
L7L
sg295
g292
sVX
L2L
sg291
g313
sg299
g371
sg301
g323
sg302
g405
stRp1686
ag1
(g1560
g1507
(dp1687
g286
g401
sVY
L2L
sg288
L4L
sg289
g402
sg297
L1L
sg294
L1L
sg295
g371
sVX
L8L
sg291
g342
sg299
g311
sg301
g292
sg302
g405
stRp1688
ag1
(g1560
g1507
(dp1689
g286
g329
sVY
L2L
sg288
L4L
sg289
g330
sg297
L5L
sg294
L5L
sg295
g292
sVX
L2L
sg291
g323
sg299
g296
sg301
g300
sg302
g333
stRp1690
ag1
(g1560
g1507
(dp1691
g286
g377
sVY
L2L
sg288
L4L
sg289
g378
sg297
L7L
sg294
L7L
sg295
g323
sVX
L2L
sg291
g292
sg299
g371
sg301
g300
sg302
g333
stRp1692
asg1573
Nsg1574
I5
sg1575
I18
sg1576
I0
sg1577
I18
sbag1
(g1495
g3
NtRp1693
(dp1694
g1498
Nsg1499
(lp1695
sg1501
I339866576
sg10
g1581
sg6
g1503
sg1504
I1
sg24
I01
sg25
g26
sg1505
g1
(g1506
g1507
(dp1696
g22
g1524
(g1525
g1510
g1526
S'b'
tRp1697
(I1
(I18
I1
tg1528
I00
S'\x00\x00\x80?\x00\x00\x80?\x00\x00\x80?\x00\x00\x80?\x00\x00\x80?\x00\x00\x80?\x00\x00\x80?\x00\x00\x80?\x00\x00\x80?\x00\x00\x80?\x00\x00\x00\x00\x00\x00\x80?\x00\x00\x80?\x00\x00\x80?\x00\x00\x80?\x00\x00\x80?\x00\x00\x80?\x00\x00\x80?'
S'\x00\x00\x00\x00\x00\x00\x00\x00\x00\x00\x00\x00\x00\x00\x00\x00\x00\x00'
Ntbsg19
g1509
(g1510
(I0
tS'b'
tRp1698
(I1
(I18
I1
tg1513
I00
(lp1699
g535
ag618
ag560
ag577
ag526
ag544
ag602
ag485
ag585
ag594
ag495
ag569
ag517
ag552
ag507
ag626
ag466
ag610
atbsg23
g1524
(g1525
g1510
g1526
S'b'
tRp1700
(I1
(I18
I1
tg1528
I00
S'a9\x89@\xacl:@0\xbe2@"\x8c\xb8@\x0e\x86\x94@\x02\xd9\x86@\xb0\xb8\x97@\xa30\x96@N\xb8\x93@\xf5\xa9@@\x9c\xe4AA\x16\x06\xb9@\xc7O\x85A\xb9\xc9>A\x7fL\xf1@\x0e\xd7\xf3@\xfb\xb3\x1aA\xd7\x7f\x1fA'
S'\x00\x00\x00\x00\x00\x00\x00\x00\x00\x00\x00\x00\x00\x00\x00\x00\x00\x00'
Ntbsg1523
g1524
(g1525
g1510
g1526
S'b'
tRp1701
(I1
(I18
I1
tg1528
I00
S'\x00\x00\x80?\x00\x00\x80?\x00\x00\x80?\x00\x00\x80?\x00\x00\x80?\x00\x00\x80?\x00\x00\x80?\x00\x00\x80?\x00\x00\x80?\x00\x00\x80?\x00\x00\x80?\x00\x00\x80?\x00\x00\x80?\x00\x00\x80?\x00\x00\x80?\x00\x00\x80?\x00\x00\x80?\x00\x00\x80?'
S'\x00\x00\x00\x00\x00\x00\x00\x00\x00\x00\x00\x00\x00\x00\x00\x00\x00\x00'
Ntbsg21
g1509
(g1510
(I0
tS'b'
tRp1702
(I1
(I18
I1
tg1513
I00
(lp1703
S'4'
aS'6'
aS'3'
aS'1'
aS'9'
aS'5'
aS'5'
aS'5'
aS'8'
aS'3'
aS'5'
aS'9'
aS'4'
aS'3'
aS'8'
aS'6'
aS'1'
aS'6'
atbsg1538
g1524
(g1525
g1510
g1526
S'b'
tRp1704
(I1
(I18
I1
tg1528
I00
S'\x00\x00\xc0@\x00\x00\x80A\x00\x00\x10A\x00\x000A\x00\x00\xa0@\x00\x00\xe0@\x00\x00`A\x00\x00\x80?\x00\x00@A\x00\x00PA\x00\x00\x00@\x00\x00 A\x00\x00\x80@\x00\x00\x00A\x00\x00@@\x00\x00\x88A\x00\x00\x00\x00\x00\x00pA'
S'\x00\x00\x00\x00\x00\x00\x00\x00\x00\x00\x00\x00\x00\x00\x00\x00\x00\x00'
Ntbsg20
g1524
(g1525
g1510
g1526
S'b'
tRp1705
(I1
(I18
I1
tg1528
I00
S'ab @"\x8b\xf3@\x92\xbbf@\x8b\xc6\xfe?\x19i\xf1@\xda\xd0\xdc@,\xb8\xbf@\xd7:\x11A\xef\x14$A\xe9\xd5SA\xdc\x94\nA @GAw\xf6\x05AI\xd6iAx\x1c\x8eA\xc2\xa5XA\xc0\x83UA\x8d\xc5<A'
S'\x00\x00\x00\x00\x00\x00\x00\x00\x00\x00\x00\x00\x00\x00\x00\x00\x00\x00'
NtbstRp1706
(dp1707
g1543
(dp1708
g1523
I01
sg21
I00
sg20
I01
sg22
I01
sg19
I00
sg23
I01
sg1538
I01
ssg1545
g1693
sg1546
(lp1709
g1523
ag1538
ag19
ag20
ag21
ag22
ag23
asg1548
(lp1710
I18
aI1
asbsg1550
g1551
sg1552
g1509
(g1510
(I0
tS'b'
tRp1711
(I1
(I18
I1
tg1513
I00
(lp1712
I16
aI7
aI10
aI14
aI12
aI4
aI0
aI5
aI13
aI2
aI11
aI3
aI8
aI9
aI6
aI17
aI1
aI15
atbsg1555
I01
sg1556
I1
sg1557
I-1
sg1558
(lp1713
g1
(g1560
g1507
(dp1714
g459
g533
sVY
L2L
sg461
L2L
sg462
g534
sg470
L4L
sg467
L4L
sg468
g484
sVX
L3L
sg464
L0L
sg472
g486
sg474
L0L
sg476
g537
stRp1715
ag1
(g1560
g1507
(dp1716
g459
g616
sVY
L2L
sg461
L2L
sg462
g617
sg470
L6L
sg467
L6L
sg468
g469
sVX
L2L
sg464
L0L
sg472
g486
sg474
L0L
sg476
g537
stRp1717
ag1
(g1560
g1507
(dp1718
g459
g558
sVY
L5L
sg461
L2L
sg462
g559
sg470
L3L
sg467
L3L
sg468
g506
sVX
L4L
sg464
L0L
sg472
g473
sg474
L0L
sg476
g562
stRp1719
ag1
(g1560
g1507
(dp1720
g459
g575
sVY
L2L
sg461
L2L
sg462
g576
sg470
L1L
sg467
L1L
sg468
g497
sVX
L5L
sg464
L0L
sg472
g473
sg474
L0L
sg476
g562
stRp1721
ag1
(g1560
g1507
(dp1722
g459
g524
sVY
L3L
sg461
L3L
sg462
g525
sg470
L9L
sg467
L9L
sg468
g484
sVX
L8L
sg464
g465
sg472
g486
sg474
L0L
sg476
g528
stRp1723
ag1
(g1560
g1507
(dp1724
g459
g542
sVY
L5L
sg461
L3L
sg462
g543
sg470
L5L
sg467
L5L
sg468
g473
sVX
L6L
sg464
g465
sg472
g486
sg474
L0L
sg476
g528
stRp1725
ag1
(g1560
g1507
(dp1726
g459
g600
sVY
L7L
sg461
L3L
sg462
g601
sg470
L5L
sg467
L5L
sg468
g506
sVX
L7L
sg464
g469
sg472
g473
sg474
L0L
sg476
g488
stRp1727
ag1
(g1560
g1507
(dp1728
g459
g482
sVY
L5L
sg461
L3L
sg462
g483
sg470
L5L
sg467
L5L
sg468
g486
sVX
L4L
sg464
g484
sg472
g473
sg474
L0L
sg476
g488
stRp1729
ag1
(g1560
g1507
(dp1730
g459
g583
sVY
L5L
sg461
L3L
sg462
g584
sg470
L8L
sg467
L8L
sg468
g484
sVX
L5L
sg464
g486
sg472
g473
sg474
L0L
sg476
g587
stRp1731
ag1
(g1560
g1507
(dp1732
g459
g592
sVY
L2L
sg461
L3L
sg462
g593
sg470
L3L
sg467
L3L
sg468
g465
sVX
L4L
sg464
g475
sg472
g498
sg474
L0L
sg476
g587
stRp1733
ag1
(g1560
g1507
(dp1734
g459
g493
sVY
L5L
sg461
L4L
sg462
g494
sg470
L3L
sg467
L3L
sg468
g465
sVX
L5L
sg464
g469
sg472
g497
sg474
g498
sg476
g499
stRp1735
ag1
(g1560
g1507
(dp1736
g459
g567
sVY
L3L
sg461
L4L
sg462
g568
sg470
L9L
sg467
L9L
sg468
g469
sVX
L3L
sg464
g473
sg472
g486
sg474
g508
sg476
g499
stRp1737
ag1
(g1560
g1507
(dp1738
g459
g515
sVY
L6L
sg461
L4L
sg462
g516
sg470
L4L
sg467
L4L
sg468
g475
sVX
L3L
sg464
g498
sg472
g469
sg474
g508
sg476
g519
stRp1739
ag1
(g1560
g1507
(dp1740
g459
g550
sVY
L3L
sg461
L4L
sg462
g551
sg470
L3L
sg467
L3L
sg468
g497
sVX
L3L
sg464
g508
sg472
g498
sg474
g484
sg476
g519
stRp1741
ag1
(g1560
g1507
(dp1742
g459
g504
sVY
L2L
sg461
L4L
sg462
g505
sg470
L8L
sg467
L8L
sg468
g508
sVX
L9L
sg464
g506
sg472
g473
sg474
g469
sg476
g510
stRp1743
ag1
(g1560
g1507
(dp1744
g459
g624
sVY
L3L
sg461
L4L
sg462
g625
sg470
L6L
sg467
L6L
sg468
g465
sVX
L2L
sg464
g506
sg472
g498
sg474
g484
sg476
g510
stRp1745
ag1
(g1560
g1507
(dp1746
g459
g460
sVY
L2L
sg461
L4L
sg462
g463
sg470
L1L
sg467
L1L
sg468
g469
sVX
L8L
sg464
g465
sg472
g473
sg474
g475
sg476
g477
stRp1747
ag1
(g1560
g1507
(dp1748
g459
g608
sVY
L2L
sg461
L4L
sg462
g609
sg470
L6L
sg467
L6L
sg468
g484
sVX
L3L
sg464
g465
sg472
g498
sg474
g486
sg476
g477
stRp1749
asg1573
Nsg1574
I15
sg1575
I18
sg1576
I0
sg1577
I18
sbag1
(g1495
g3
NtRp1750
(dp1751
g1498
Nsg1499
(lp1752
sg1501
I339866576
sg10
g1581
sg6
g1503
sg1504
I1
sg24
I01
sg25
g26
sg1505
g1
(g1506
g1507
(dp1753
g22
g1524
(g1525
g1510
g1526
S'b'
tRp1754
(I1
(I18
I1
tg1528
I00
S'\x00\x00\x80?\x00\x00\x80?\x00\x00\x80?\x00\x00\x80?\x00\x00\x80?\x00\x00\x80?\x00\x00\x80?\x00\x00\x80?\x00\x00\x80?\x00\x00\x80?\x00\x00\x80?\x00\x00\x80?\x00\x00\x80?\x00\x00\x80?\x00\x00\x00\x00\x00\x00\x80?\x00\x00\x00\x00\x00\x00\x80?'
S'\x00\x00\x00\x00\x00\x00\x00\x00\x00\x00\x00\x00\x00\x00\x00\x00\x00\x00'
Ntbsg19
g1509
(g1510
(I0
tS'b'
tRp1755
(I1
(I18
I1
tg1513
I00
(lp1756
g638
ag758
ag750
ag732
ag656
ag698
ag791
ag678
ag766
ag775
ag706
ag667
ag714
ag741
ag799
ag688
ag783
ag723
atbsg23
g1524
(g1525
g1510
g1526
S'b'
tRp1757
(I1
(I18
I1
tg1528
I00
S'\xfb\xfc\x1f@L+\x19@\x80\x14\xd3@\xa3\t\xdc?.\x02e@\x90.\xa5@\xcc\xb0\xbf@\xfeE\xaa@tW\x9b@F\x86\x91@e_TA\x90v\xc8@\xf3\xba\x1bAf)\x02A\x85`\x15A\xfc\x1e\xe5@\xe1\x12kA\xdez\xd0@'
S'\x00\x00\x00\x00\x00\x00\x00\x00\x00\x00\x00\x00\x00\x00\x00\x00\x00\x00'
Ntbsg1523
g1524
(g1525
g1510
g1526
S'b'
tRp1758
(I1
(I18
I1
tg1528
I00
S'\x00\x00\x80?\x00\x00\x80?\x00\x00\x80?\x00\x00\x80?\x00\x00\x80?\x00\x00\x80?\x00\x00\x80?\x00\x00\x80?\x00\x00\x80?\x00\x00\x80?\x00\x00\x80?\x00\x00\x80?\x00\x00\x80?\x00\x00\x80?\x00\x00\x80?\x00\x00\x80?\x00\x00\x80?\x00\x00\x80?'
S'\x00\x00\x00\x00\x00\x00\x00\x00\x00\x00\x00\x00\x00\x00\x00\x00\x00\x00'
Ntbsg21
g1509
(g1510
(I0
tS'b'
tRp1759
(I1
(I18
I1
tg1513
I00
(lp1760
S'1'
aS'8'
aS'4'
aS'1'
aS'3'
aS'9'
aS'1'
aS'6'
aS'6'
aS'8'
aS'8'
aS'1'
aS'6'
aS'7'
aS'8'
aS'5'
aS'7'
aS'3'
atbsg1538
g1524
(g1525
g1510
g1526
S'b'
tRp1761
(I1
(I18
I1
tg1528
I00
S'\x00\x00\x00\x00\x00\x00@A\x00\x000A\x00\x00\x10A\x00\x00\x80?\x00\x00\xa0@\x00\x00\x80A\x00\x00@@\x00\x00PA\x00\x00`A\x00\x00\xc0@\x00\x00\x00@\x00\x00\xe0@\x00\x00 A\x00\x00\x88A\x00\x00\x80@\x00\x00pA\x00\x00\x00A'
S'\x00\x00\x00\x00\x00\x00\x00\x00\x00\x00\x00\x00\x00\x00\x00\x00\x00\x00'
Ntbsg20
g1524
(g1525
g1510
g1526
S'b'
tRp1762
(I1
(I18
I1
tg1528
I00
S'-\x07;@\xf9 zA\xa6\xc4:@\x95t\x03@\x06\xab\xec@\xbci\xa1@?\xe8wA\xe3r\x1aAa\xd7LAda\xdc@\xed\x01\x0bA\xa6\xb7jA\xc8UnAJJ@Ah\xc0gA\xc3\x10\x87A\xd2\xe08A\x93\x9a8A'
S'\x00\x00\x00\x00\x00\x00\x00\x00\x00\x00\x00\x00\x00\x00\x00\x00\x00\x00'
NtbstRp1763
(dp1764
g1543
(dp1765
g1523
I01
sg21
I00
sg20
I01
sg22
I01
sg19
I00
sg23
I01
sg1538
I01
ssg1545
g1750
sg1546
(lp1766
g1523
ag1538
ag19
ag20
ag21
ag22
ag23
asg1548
(lp1767
I18
aI1
asbsg1550
g1551
sg1552
g1509
(g1510
(I0
tS'b'
tRp1768
(I1
(I18
I1
tg1513
I00
(lp1769
I0
aI4
aI11
aI7
aI15
aI5
aI10
aI12
aI17
aI3
aI13
aI2
aI1
aI8
aI9
aI16
aI6
aI14
atbsg1555
I01
sg1556
I1
sg1557
I-1
sg1558
(lp1770
g1
(g1560
g1507
(dp1771
g632
g633
sVY
L3L
sg634
L2L
sg635
g636
sg642
L1L
sg639
L1L
sg640
g641
sVX
L9L
sg637
L0L
sg644
g645
sg646
L0L
sg647
g648
stRp1772
ag1
(g1560
g1507
(dp1773
g632
g756
sVY
L2L
sg634
L2L
sg635
g757
sg642
L8L
sg639
L8L
sg640
g669
sVX
L2L
sg637
L0L
sg644
g679
sg646
L0L
sg647
g648
stRp1774
ag1
(g1560
g1507
(dp1775
g632
g748
sVY
L3L
sg634
L2L
sg635
g749
sg642
L4L
sg639
L4L
sg640
g659
sVX
L6L
sg637
L0L
sg644
g697
sg646
L0L
sg647
g734
stRp1776
ag1
(g1560
g1507
(dp1777
g632
g730
sVY
L2L
sg634
L2L
sg635
g731
sg642
L1L
sg639
L1L
sg640
g645
sVX
L6L
sg637
L0L
sg644
g641
sg646
L0L
sg647
g734
stRp1778
ag1
(g1560
g1507
(dp1779
g632
g653
sVY
L9L
sg634
L3L
sg635
g654
sg642
L3L
sg639
L3L
sg640
g657
sVX
L5L
sg637
g655
sg644
g659
sg646
L0L
sg647
g660
stRp1780
ag1
(g1560
g1507
(dp1781
g632
g695
sVY
L3L
sg634
L3L
sg635
g696
sg642
L9L
sg639
L9L
sg640
g677
sVX
L5L
sg637
g697
sg644
g679
sg646
L0L
sg647
g660
stRp1782
ag1
(g1560
g1507
(dp1783
g632
g789
sVY
L2L
sg634
L3L
sg635
g790
sg642
L1L
sg639
L1L
sg640
g645
sVX
L7L
sg637
g655
sg644
g641
sg646
L0L
sg647
g681
stRp1784
ag1
(g1560
g1507
(dp1785
g632
g675
sVY
L6L
sg634
L3L
sg635
g676
sg642
L6L
sg639
L6L
sg640
g679
sVX
L6L
sg637
g677
sg644
g641
sg646
L0L
sg647
g681
stRp1786
ag1
(g1560
g1507
(dp1787
g632
g764
sVY
L2L
sg634
L3L
sg635
g765
sg642
L6L
sg639
L6L
sg640
g655
sVX
L2L
sg637
g742
sg644
g669
sg646
L0L
sg647
g768
stRp1788
ag1
(g1560
g1507
(dp1789
g632
g773
sVY
L6L
sg634
L3L
sg635
g774
sg642
L8L
sg639
L8L
sg640
g641
sVX
L2L
sg637
g679
sg644
g669
sg646
L0L
sg647
g768
stRp1790
ag1
(g1560
g1507
(dp1791
g632
g704
sVY
L4L
sg634
L4L
sg635
g705
sg642
L8L
sg639
L8L
sg640
g669
sVX
L3L
sg637
g657
sg644
g659
sg646
g655
sg647
g670
stRp1792
ag1
(g1560
g1507
(dp1793
g632
g665
sVY
L8L
sg634
L4L
sg635
g666
sg642
L1L
sg639
L1L
sg640
g657
sVX
L2L
sg637
g655
sg644
g659
sg646
g669
sg647
g670
stRp1794
ag1
(g1560
g1507
(dp1795
g632
g712
sVY
L5L
sg634
L4L
sg635
g713
sg642
L6L
sg639
L6L
sg640
g645
sVX
L4L
sg637
g657
sg644
g669
sg646
g697
sg647
g716
stRp1796
ag1
(g1560
g1507
(dp1797
g632
g739
sVY
L3L
sg634
L4L
sg635
g740
sg642
L7L
sg639
L7L
sg640
g742
sVX
L2L
sg637
g677
sg644
g697
sg646
g657
sg647
g716
stRp1798
ag1
(g1560
g1507
(dp1799
g632
g797
sVY
L3L
sg634
L4L
sg635
g798
sg642
L5L
sg639
L5L
sg640
g657
sVX
L3L
sg637
g645
sg644
g655
sg646
g669
sg647
g690
stRp1800
ag1
(g1560
g1507
(dp1801
g632
g686
sVY
L4L
sg634
L4L
sg635
g687
sg642
L5L
sg639
L5L
sg640
g655
sVX
L8L
sg637
g679
sg644
g641
sg646
g677
sg647
g690
stRp1802
ag1
(g1560
g1507
(dp1803
g632
g781
sVY
L2L
sg634
L4L
sg635
g782
sg642
L5L
sg639
L5L
sg640
g657
sVX
L6L
sg637
g677
sg644
g655
sg646
g659
sg647
g725
stRp1804
ag1
(g1560
g1507
(dp1805
g632
g721
sVY
L2L
sg634
L4L
sg635
g722
sg642
L3L
sg639
L3L
sg640
g657
sVX
L3L
sg637
g697
sg644
g677
sg646
g659
sg647
g725
stRp1806
asg1573
Nsg1574
I14
sg1575
I18
sg1576
I0
sg1577
I18
sbag1
(g1495
g3
NtRp1807
(dp1808
g1498
Nsg1499
(lp1809
sg1501
I339866576
sg10
g1581
sg6
g1503
sg1504
I1
sg24
I01
sg25
g26
sg1505
g1
(g1506
g1507
(dp1810
g22
g1524
(g1525
g1510
g1526
S'b'
tRp1811
(I1
(I18
I1
tg1528
I00
S'\x00\x00\x80?\x00\x00\x80?\x00\x00\x80?\x00\x00\x80?\x00\x00\x80?\x00\x00\x80?\x00\x00\x80?\x00\x00\x80?\x00\x00\x80?\x00\x00\x80?\x00\x00\x80?\x00\x00\x80?\x00\x00\x80?\x00\x00\x00\x00\x00\x00\x80?\x00\x00\x80?\x00\x00\x80?\x00\x00\x80?'
S'\x00\x00\x00\x00\x00\x00\x00\x00\x00\x00\x00\x00\x00\x00\x00\x00\x00\x00'
Ntbsg19
g1509
(g1510
(I0
tS'b'
tRp1812
(I1
(I18
I1
tg1513
I00
(lp1813
g906
ag830
ag971
ag871
ag948
ag888
ag923
ag851
ag861
ag880
ag956
ag897
ag812
aNag841
ag940
ag914
ag931
atbsg23
g1524
(g1525
g1510
g1526
S'b'
tRp1814
(I1
(I18
I1
tg1528
I00
S'\x122(@d\xf6\x89@"\x1ay@/\x89\xee?<\xac&@\xde\xc1@@RF\x81@\xda\xd4\x85@Lue@\x03]\x05@Z{0A\xb7\xc8[A\xb5\x82\xfa@\x00\x00\x00\x00\xb9\x8b\xd2@\xe4\xdb\x1fA\xe14\x97@\xaf\xad\xbc@'
S'\x00\x00\x00\x00\x00\x00\x00\x00\x00\x00\x00\x00\x00\x01\x00\x00\x00\x00'
Ntbsg1523
g1524
(g1525
g1510
g1526
S'b'
tRp1815
(I1
(I18
I1
tg1528
I00
S'\x00\x00\x80?\x00\x00\x80?\x00\x00\x80?\x00\x00\x80?\x00\x00\x80?\x00\x00\x80?\x00\x00\x80?\x00\x00\x80?\x00\x00\x80?\x00\x00\x80?\x00\x00\x80?\x00\x00\x80?\x00\x00\x80?\x00\x00\x80?\x00\x00\x80?\x00\x00\x80?\x00\x00\x80?\x00\x00\x80?'
S'\x00\x00\x00\x00\x00\x00\x00\x00\x00\x00\x00\x00\x00\x00\x00\x00\x00\x00'
Ntbsg21
g1509
(g1510
(I0
tS'b'
tRp1816
(I1
(I18
I1
tg1513
I00
(lp1817
S'2'
aS'3'
aS'1'
aS'6'
aS'9'
aS'4'
aS'6'
aS'3'
aS'7'
aS'1'
aS'8'
aS'8'
aS'8'
aNaS'8'
aS'1'
aS'6'
aS'6'
atbsg1538
g1524
(g1525
g1510
g1526
S'b'
tRp1818
(I1
(I18
I1
tg1528
I00
S'\x00\x00\x10A\x00\x00\x80?\x00\x00\x88A\x00\x00\xa0@\x00\x00`A\x00\x00\xe0@\x00\x000A\x00\x00@@\x00\x00\x80@\x00\x00\xc0@\x00\x00pA\x00\x00\x00A\x00\x00\x00\x00\x00\x00\x80A\x00\x00\x00@\x00\x00PA\x00\x00 A\x00\x00@A'
S'\x00\x00\x00\x00\x00\x00\x00\x00\x00\x00\x00\x00\x00\x00\x00\x00\x00\x00'
Ntbsg20
g1524
(g1525
g1510
g1526
S'b'
tRp1819
(I1
(I18
I1
tg1528
I00
S'\xed\x0cW@7O\x8b@\xd3]\xae@\xa5\x02\xa0?Jv\x10A\xc3r$AH\xd6\x01AJ\xccJA\n\x15\x92@\xe4\xc6\x13A\xb5\x9d:A]\xf4\rA<\xc6\x01A\x00\x00\x00\x00;`ZA\xae,eA\xe6s&A;&:A'
S'\x00\x00\x00\x00\x00\x00\x00\x00\x00\x00\x00\x00\x00\x01\x00\x00\x00\x00'
NtbstRp1820
(dp1821
g1543
(dp1822
g1523
I01
sg21
I00
sg20
I01
sg22
I01
sg19
I00
sg23
I01
sg1538
I01
ssg1545
g1807
sg1546
(lp1823
g1523
ag1538
ag19
ag20
ag21
ag22
ag23
asg1548
(lp1824
I18
aI1
asbsg1550
g1551
sg1552
g1509
(g1510
(I0
tS'b'
tRp1825
(I1
(I18
I1
tg1513
I00
(lp1826
I12
aI1
aI14
aI7
aI8
aI3
aI9
aI5
aI11
aI0
aI16
aI6
aI17
aI15
aI4
aI10
aI13
aI2
atbsg1555
I01
sg1556
I1
sg1557
I-1
sg1558
(lp1827
g1
(g1560
g1507
(dp1828
g805
g904
sVY
L2L
sg807
L2L
sg808
g905
sg816
L2L
sg813
L2L
sg814
g811
sVX
L3L
sg810
L0L
sg818
g860
sg820
L0L
sg822
g834
stRp1829
ag1
(g1560
g1507
(dp1830
g805
g828
sVY
L2L
sg807
L2L
sg808
g829
sg816
L3L
sg813
L3L
sg814
g831
sVX
L6L
sg810
L0L
sg818
g833
sg820
L0L
sg822
g834
stRp1831
ag1
(g1560
g1507
(dp1832
g805
g969
sVY
L4L
sg807
L2L
sg808
g970
sg816
L1L
sg813
L1L
sg814
g860
sVX
L8L
sg810
L0L
sg818
g831
sg820
L0L
sg822
g873
stRp1833
ag1
(g1560
g1507
(dp1834
g805
g869
sVY
L2L
sg807
L2L
sg808
g870
sg816
L6L
sg813
L6L
sg814
g815
sVX
L3L
sg810
L0L
sg818
g811
sg820
L0L
sg822
g873
stRp1835
ag1
(g1560
g1507
(dp1836
g805
g946
sVY
L8L
sg807
L3L
sg808
g947
sg816
L9L
sg813
L9L
sg814
g850
sVX
L6L
sg810
g821
sg818
g815
sg820
L0L
sg822
g890
stRp1837
ag1
(g1560
g1507
(dp1838
g805
g886
sVY
L2L
sg807
L3L
sg808
g887
sg816
L4L
sg813
L4L
sg814
g831
sVX
L3L
sg810
g862
sg818
g860
sg820
L0L
sg822
g890
stRp1839
ag1
(g1560
g1507
(dp1840
g805
g921
sVY
L3L
sg807
L3L
sg808
g922
sg816
L6L
sg813
L6L
sg814
g815
sVX
L3L
sg810
g862
sg818
g850
sg820
L0L
sg822
g853
stRp1841
ag1
(g1560
g1507
(dp1842
g805
g848
sVY
L2L
sg807
L3L
sg808
g849
sg816
L3L
sg813
L3L
sg814
g833
sVX
L8L
sg810
g850
sg818
g811
sg820
L0L
sg822
g853
stRp1843
ag1
(g1560
g1507
(dp1844
g805
g858
sVY
L3L
sg807
L3L
sg808
g859
sg816
L7L
sg813
L7L
sg814
g862
sVX
L6L
sg810
g860
sg818
g811
sg820
L0L
sg822
g864
stRp1845
ag1
(g1560
g1507
(dp1846
g805
g878
sVY
L3L
sg807
L3L
sg808
g879
sg816
L1L
sg813
L1L
sg814
g850
sVX
L3L
sg810
g815
sg818
g821
sg820
L0L
sg822
g864
stRp1847
ag1
(g1560
g1507
(dp1848
g805
g954
sVY
L6L
sg807
L4L
sg808
g955
sg816
L8L
sg813
L8L
sg814
g819
sVX
L6L
sg810
g831
sg818
g815
sg820
g821
sg822
g899
stRp1849
ag1
(g1560
g1507
(dp1850
g805
g895
sVY
L9L
sg807
L4L
sg808
g896
sg816
L8L
sg813
L8L
sg814
g831
sVX
L3L
sg810
g862
sg818
g833
sg820
g819
sg822
g899
stRp1851
ag1
(g1560
g1507
(dp1852
g805
g806
sVY
L2L
sg807
L4L
sg808
g809
sg816
L8L
sg813
L8L
sg814
g815
sVX
L3L
sg810
g811
sg818
g819
sg820
g821
sg822
g823
stRp1853
ag1
(g1560
g1507
(dp1854
g805
g962
sVY
L3L
sg807
L4L
sg808
g963
sg816
L2L
sg813
L2L
sg814
g933
sVX
L2L
sg810
g819
sg818
g821
sg820
g831
sg822
g823
stRp1855
ag1
(g1560
g1507
(dp1856
g805
g839
sVY
L7L
sg807
L4L
sg808
g840
sg816
L8L
sg813
L8L
sg814
g819
sVX
L6L
sg810
g815
sg818
g821
sg820
g831
sg822
g843
stRp1857
ag1
(g1560
g1507
(dp1858
g805
g938
sVY
L9L
sg807
L4L
sg808
g939
sg816
L1L
sg813
L1L
sg814
g811
sVX
L9L
sg810
g860
sg818
g821
sg820
g819
sg822
g843
stRp1859
ag1
(g1560
g1507
(dp1860
g805
g912
sVY
L3L
sg807
L4L
sg808
g913
sg816
L6L
sg813
L6L
sg814
g862
sVX
L9L
sg810
g811
sg818
g850
sg820
g860
sg822
g916
stRp1861
ag1
(g1560
g1507
(dp1862
g805
g929
sVY
L4L
sg807
L4L
sg808
g930
sg816
L6L
sg813
L6L
sg814
g819
sVX
L2L
sg810
g811
sg818
g821
sg820
g933
sg822
g916
stRp1863
asg1573
Nsg1574
I2
sg1575
I18
sg1576
I0
sg1577
I18
sbag1
(g1495
g3
NtRp1864
(dp1865
g1498
Nsg1499
(lp1866
sg1501
I339866576
sg10
g1581
sg6
g1503
sg1504
I1
sg24
I01
sg25
g26
sg1505
g1
(g1506
g1507
(dp1867
g22
g1524
(g1525
g1510
g1526
S'b'
tRp1868
(I1
(I18
I1
tg1528
I00
S'\x00\x00\x80?\x00\x00\x80?\x00\x00\x80?\x00\x00\x80?\x00\x00\x80?\x00\x00\x80?\x00\x00\x80?\x00\x00\x80?\x00\x00\x80?\x00\x00\x80?\x00\x00\x00\x00\x00\x00\x80?\x00\x00\x80?\x00\x00\x80?\x00\x00\x80?\x00\x00\x80?\x00\x00\x80?\x00\x00\x80?'
S'\x00\x00\x00\x00\x00\x00\x00\x00\x00\x00\x00\x00\x00\x00\x00\x00\x00\x00'
Ntbsg19
g1509
(g1510
(I0
tS'b'
tRp1869
(I1
(I18
I1
tg1513
I00
(lp1870
g1103
ag1077
ag1086
ag1051
ag1121
ag1003
ag1137
ag1013
ag1034
ag1061
ag984
ag1043
ag1111
ag1145
ag1094
ag1129
ag1069
ag1023
atbsg23
g1524
(g1525
g1510
g1526
S'b'
tRp1871
(I1
(I18
I1
tg1528
I00
S'h\n\x15@\x01v\x0f@\xe4\xb5f@\xc7\xa5\x11@\x14\xfcw@\xb3\x90HAu<~@\\H\xc0@\xa1\x05\xe2@\xd3[\xd7@\x05H\xc7@\x92\x93\xe9@:\x07\x7fA\x87N\x9a@05\xc4@\xac\x93d@e>\x04A\x17f\x17A'
S'\x00\x00\x00\x00\x00\x00\x00\x00\x00\x00\x00\x00\x00\x00\x00\x00\x00\x00'
Ntbsg1523
g1524
(g1525
g1510
g1526
S'b'
tRp1872
(I1
(I18
I1
tg1528
I00
S'\x00\x00\x80?\x00\x00\x80?\x00\x00\x80?\x00\x00\x80?\x00\x00\x80?\x00\x00\x80?\x00\x00\x80?\x00\x00\x80?\x00\x00\x80?\x00\x00\x80?\x00\x00\x80?\x00\x00\x80?\x00\x00\x80?\x00\x00\x80?\x00\x00\x80?\x00\x00\x80?\x00\x00\x80?\x00\x00\x80?'
S'\x00\x00\x00\x00\x00\x00\x00\x00\x00\x00\x00\x00\x00\x00\x00\x00\x00\x00'
Ntbsg21
g1509
(g1510
(I0
tS'b'
tRp1873
(I1
(I18
I1
tg1513
I00
(lp1874
S'8'
aS'2'
aS'2'
aS'8'
aS'1'
aS'2'
aS'1'
aS'2'
aS'8'
aS'6'
aS'8'
aS'1'
aS'9'
aS'7'
aS'3'
aS'6'
aS'5'
aS'4'
atbsg1538
g1524
(g1525
g1510
g1526
S'b'
tRp1875
(I1
(I18
I1
tg1528
I00
S'\x00\x00@A\x00\x00\x10A\x00\x00 A\x00\x00\xc0@\x00\x00`A\x00\x00\x80?\x00\x00\x80A\x00\x00\x00@\x00\x00\x80@\x00\x00\xe0@\x00\x00\x00\x00\x00\x00\xa0@\x00\x00PA\x00\x00\x88A\x00\x000A\x00\x00pA\x00\x00\x00A\x00\x00@@'
S'\x00\x00\x00\x00\x00\x00\x00\x00\x00\x00\x00\x00\x00\x00\x00\x00\x00\x00'
Ntbsg20
g1524
(g1525
g1510
g1526
S'b'
tRp1876
(I1
(I18
I1
tg1528
I00
S'kB\xa8?&\xad\x83@\x87l\x0b@r\xd7\x9b@d\xa7a@\x13\x7f@A\xc8\x7f<A\xa7\xf7\x81A#\xe2\xdd@\xb2\xcd\x9b@\xbb(?A\xd6\xe4!A\xf9\xe2\xa4@)\xbd<AS\xe0\x82A\xc7\x84\x05A@\xa3\xee@j\x82!A'
S'\x00\x00\x00\x00\x00\x00\x00\x00\x00\x00\x00\x00\x00\x00\x00\x00\x00\x00'
NtbstRp1877
(dp1878
g1543
(dp1879
g1523
I01
sg21
I00
sg20
I01
sg22
I01
sg19
I00
sg23
I01
sg1538
I01
ssg1545
g1864
sg1546
(lp1880
g1523
ag1538
ag19
ag20
ag21
ag22
ag23
asg1548
(lp1881
I18
aI1
asbsg1550
g1551
sg1552
g1509
(g1510
(I0
tS'b'
tRp1882
(I1
(I18
I1
tg1513
I00
(lp1883
I10
aI5
aI7
aI17
aI8
aI11
aI3
aI9
aI16
aI1
aI2
aI14
aI0
aI12
aI4
aI15
aI6
aI13
atbsg1555
I01
sg1556
I1
sg1557
I-1
sg1558
(lp1884
g1
(g1560
g1507
(dp1885
g977
g1101
sVY
L4L
sg979
L2L
sg980
g1102
sg988
L8L
sg985
L8L
sg986
g1026
sVX
L2L
sg982
L0L
sg990
g991
sg992
L0L
sg994
g1079
stRp1886
ag1
(g1560
g1507
(dp1887
g977
g1075
sVY
L6L
sg979
L2L
sg980
g1076
sg988
L2L
sg985
L2L
sg986
g1026
sVX
L6L
sg982
L0L
sg990
g1014
sg992
L0L
sg994
g1079
stRp1888
ag1
(g1560
g1507
(dp1889
g977
g1084
sVY
L7L
sg979
L2L
sg980
g1085
sg988
L2L
sg985
L2L
sg986
g1005
sVX
L8L
sg982
L0L
sg990
g1026
sg992
L0L
sg994
g1054
stRp1890
ag1
(g1560
g1507
(dp1891
g977
g1049
sVY
L4L
sg979
L2L
sg980
g1050
sg988
L8L
sg985
L8L
sg986
g1052
sVX
L4L
sg982
L0L
sg990
g993
sg992
L0L
sg994
g1054
stRp1892
ag1
(g1560
g1507
(dp1893
g977
g1119
sVY
L4L
sg979
L3L
sg980
g1120
sg988
L1L
sg985
L1L
sg986
g1026
sVX
L6L
sg982
g987
sg990
g1014
sg992
L0L
sg994
g1006
stRp1894
ag1
(g1560
g1507
(dp1895
g977
g1000
sVY
L4L
sg979
L3L
sg980
g1001
sg988
L2L
sg985
L2L
sg986
g993
sVX
L4L
sg982
g1002
sg990
g1005
sg992
L0L
sg994
g1006
stRp1896
ag1
(g1560
g1507
(dp1897
g977
g1135
sVY
L7L
sg979
L3L
sg980
g1136
sg988
L1L
sg985
L1L
sg986
g1005
sVX
L3L
sg982
g1002
sg990
g993
sg992
L0L
sg994
g1016
stRp1898
ag1
(g1560
g1507
(dp1899
g977
g1011
sVY
L3L
sg979
L3L
sg980
g1012
sg988
L2L
sg985
L2L
sg986
g1014
sVX
L9L
sg982
g987
sg990
g983
sg992
L0L
sg994
g1016
stRp1900
ag1
(g1560
g1507
(dp1901
g977
g1032
sVY
L2L
sg979
L3L
sg980
g1033
sg988
L8L
sg985
L8L
sg986
g1024
sVX
L7L
sg982
g1005
sg990
g1026
sg992
L0L
sg994
g1036
stRp1902
ag1
(g1560
g1507
(dp1903
g977
g1059
sVY
L3L
sg979
L3L
sg980
g1060
sg988
L6L
sg985
L6L
sg986
g1002
sVX
L4L
sg982
g1005
sg990
g1026
sg992
L0L
sg994
g1036
stRp1904
ag1
(g1560
g1507
(dp1905
g977
g978
sVY
L6L
sg979
L4L
sg980
g981
sg988
L7L
sg985
L7L
sg986
g987
sVX
L4L
sg982
g983
sg990
g991
sg992
g993
sg994
g995
stRp1906
ag1
(g1560
g1507
(dp1907
g977
g1041
sVY
L5L
sg979
L4L
sg980
g1042
sg988
L1L
sg985
L1L
sg986
g983
sVX
L6L
sg982
g1026
sg990
g1014
sg992
g987
sg994
g995
stRp1908
ag1
(g1560
g1507
(dp1909
g977
g1109
sVY
L4L
sg979
L4L
sg980
g1110
sg988
L9L
sg985
L9L
sg986
g991
sVX
L9L
sg982
g1026
sg990
g1113
sg992
g987
sg994
g1114
stRp1910
ag1
(g1560
g1507
(dp1911
g977
g1143
sVY
L4L
sg979
L4L
sg980
g1144
sg988
L7L
sg985
L7L
sg986
g1052
sVX
L3L
sg982
g1026
sg990
g1024
sg992
g987
sg994
g1114
stRp1912
ag1
(g1560
g1507
(dp1913
g977
g1092
sVY
L6L
sg979
L4L
sg980
g1093
sg988
L3L
sg985
L3L
sg986
g987
sVX
L4L
sg982
g1052
sg990
g1024
sg992
g993
sg994
g1096
stRp1914
ag1
(g1560
g1507
(dp1915
g977
g1127
sVY
L8L
sg979
L4L
sg980
g1128
sg988
L6L
sg985
L6L
sg986
g1002
sVX
L9L
sg982
g1014
sg990
g1026
sg992
g1024
sg994
g1096
stRp1916
ag1
(g1560
g1507
(dp1917
g977
g1067
sVY
L2L
sg979
L4L
sg980
g1068
sg988
L5L
sg985
L5L
sg986
g993
sVX
L8L
sg982
g1002
sg990
g1024
sg992
g1014
sg994
g1027
stRp1918
ag1
(g1560
g1507
(dp1919
g977
g1021
sVY
L4L
sg979
L4L
sg980
g1022
sg988
L4L
sg985
L4L
sg986
g1024
sVX
L4L
sg982
g1002
sg990
g1026
sg992
g1014
sg994
g1027
stRp1920
asg1573
Nsg1574
I13
sg1575
I18
sg1576
I0
sg1577
I18
sbag1
(g1495
g3
NtRp1921
(dp1922
g1498
Nsg1499
(lp1923
sg1501
I339866576
sg10
g1581
sg6
g1503
sg1504
I1
sg24
I01
sg25
g26
sg1505
g1
(g1506
g1507
(dp1924
g22
g1524
(g1525
g1510
g1526
S'b'
tRp1925
(I1
(I18
I1
tg1528
I00
S'\x00\x00\x80?\x00\x00\x80?\x00\x00\x80?\x00\x00\x80?\x00\x00\x80?\x00\x00\x00\x00\x00\x00\x80?\x00\x00\x80?\x00\x00\x80?\x00\x00\x80?\x00\x00\x80?\x00\x00\x80?\x00\x00\x80?\x00\x00\x80?\x00\x00\x80?\x00\x00\x80?\x00\x00\x80?\x00\x00\x00\x00'
S'\x00\x00\x00\x00\x00\x00\x00\x00\x00\x00\x00\x00\x00\x00\x00\x00\x00\x00'
Ntbsg19
g1509
(g1510
(I0
tS'b'
tRp1926
(I1
(I18
I1
tg1513
I00
(lp1927
g1261
ag1270
ag1302
ag1208
ag1199
ag1177
ag1217
ag1294
ag1310
ag1189
ag1244
ag1235
ag1318
ag1226
ag1252
ag1278
ag1158
ag1286
atbsg23
g1524
(g1525
g1510
g1526
S'b'
tRp1928
(I1
(I18
I1
tg1528
I00
S'\xd28!@\x86\x10\x00@E\x1aI@W\x17F@^\xdc\xcb@\xf5D\x89@y\x9b\xa5@\x98!|@\xe8\xc6W@M\xcat@\xf8\xb09A\xf0b\x1aA\xec\xea\xc6@\x89\x06\xfc@zn\xdf@\xe1W\x86@y\x16\xe7@px/A'
S'\x00\x00\x00\x00\x00\x00\x00\x00\x00\x00\x00\x00\x00\x00\x00\x00\x00\x00'
Ntbsg1523
g1524
(g1525
g1510
g1526
S'b'
tRp1929
(I1
(I18
I1
tg1528
I00
S'\x00\x00\x80?\x00\x00\x80?\x00\x00\x80?\x00\x00\x80?\x00\x00\x80?\x00\x00\x80?\x00\x00\x80?\x00\x00\x80?\x00\x00\x80?\x00\x00\x80?\x00\x00\x80?\x00\x00\x80?\x00\x00\x80?\x00\x00\x80?\x00\x00\x80?\x00\x00\x80?\x00\x00\x80?\x00\x00\x80?'
S'\x00\x00\x00\x00\x00\x00\x00\x00\x00\x00\x00\x00\x00\x00\x00\x00\x00\x00'
Ntbsg21
g1509
(g1510
(I0
tS'b'
tRp1930
(I1
(I18
I1
tg1513
I00
(lp1931
S'7'
aS'2'
aS'8'
aS'8'
aS'4'
aS'6'
aS'9'
aS'2'
aS'5'
aS'1'
aS'2'
aS'8'
aS'3'
aS'4'
aS'7'
aS'6'
aS'8'
aS'8'
atbsg1538
g1524
(g1525
g1510
g1526
S'b'
tRp1932
(I1
(I18
I1
tg1528
I00
S'\x00\x00 A\x00\x000A\x00\x00pA\x00\x00\x80@\x00\x00@@\x00\x00\x80?\x00\x00\xa0@\x00\x00`A\x00\x00\x80A\x00\x00\x00@\x00\x00\x00A\x00\x00\xe0@\x00\x00\x88A\x00\x00\xc0@\x00\x00\x10A\x00\x00@A\x00\x00\x00\x00\x00\x00PA'
S'\x00\x00\x00\x00\x00\x00\x00\x00\x00\x00\x00\x00\x00\x00\x00\x00\x00\x00'
Ntbsg20
g1524
(g1525
g1510
g1526
S'b'
tRp1933
(I1
(I18
I1
tg1528
I00
S'\x11\x91\xdf?T\x02\xe8?^\xa7{?\x952\x90?\x8e4\xd8@\xce\xe8"A\x86\x17kA\xffb#A?\xb8&A\xd6L\x1dA\xbe\x1d\xa9@>B\x11A\x86\xf8\x1dA\x17\xb1DA.\xf5$A\xe2\xda\xc9@\xd5\xa1\x13AA\x90SA'
S'\x00\x00\x00\x00\x00\x00\x00\x00\x00\x00\x00\x00\x00\x00\x00\x00\x00\x00'
NtbstRp1934
(dp1935
g1543
(dp1936
g1523
I01
sg21
I00
sg20
I01
sg22
I01
sg19
I00
sg23
I01
sg1538
I01
ssg1545
g1921
sg1546
(lp1937
g1523
ag1538
ag19
ag20
ag21
ag22
ag23
asg1548
(lp1938
I18
aI1
asbsg1550
g1551
sg1552
g1509
(g1510
(I0
tS'b'
tRp1939
(I1
(I18
I1
tg1513
I00
(lp1940
I16
aI5
aI9
aI4
aI3
aI6
aI13
aI11
aI10
aI14
aI0
aI1
aI15
aI17
aI7
aI2
aI8
aI12
atbsg1555
I01
sg1556
I1
sg1557
I-1
sg1558
(lp1941
g1
(g1560
g1507
(dp1942
g1151
g1259
sVY
L6L
sg1153
L2L
sg1154
g1260
sg1162
L7L
sg1159
L7L
sg1160
g1178
sVX
L3L
sg1156
L0L
sg1164
g1167
sg1166
L0L
sg1168
g1263
stRp1943
ag1
(g1560
g1507
(dp1944
g1151
g1268
sVY
L4L
sg1153
L2L
sg1154
g1269
sg1162
L2L
sg1159
L2L
sg1160
g1190
sVX
L5L
sg1156
L0L
sg1164
g1188
sg1166
L0L
sg1168
g1263
stRp1945
ag1
(g1560
g1507
(dp1946
g1151
g1300
sVY
L2L
sg1153
L2L
sg1154
g1301
sg1162
L8L
sg1159
L8L
sg1160
g1167
sVX
L2L
sg1156
L0L
sg1164
g1176
sg1166
L0L
sg1168
g1210
stRp1947
ag1
(g1560
g1507
(dp1948
g1151
g1206
sVY
L2L
sg1153
L2L
sg1154
g1207
sg1162
L8L
sg1159
L8L
sg1160
g1180
sVX
L2L
sg1156
L0L
sg1164
g1176
sg1166
L0L
sg1168
g1210
stRp1949
ag1
(g1560
g1507
(dp1950
g1151
g1197
sVY
L3L
sg1153
L3L
sg1154
g1198
sg1162
L4L
sg1159
L4L
sg1160
g1161
sVX
L8L
sg1156
g1157
sg1164
g1201
sg1166
L0L
sg1168
g1181
stRp1951
ag1
(g1560
g1507
(dp1952
g1151
g1174
sVY
L2L
sg1153
L3L
sg1154
g1175
sg1162
L4L
sg1159
L4L
sg1160
g1178
sVX
L3L
sg1156
g1176
sg1164
g1180
sg1166
L0L
sg1168
g1181
stRp1953
ag1
(g1560
g1507
(dp1954
g1151
g1215
sVY
L2L
sg1153
L3L
sg1154
g1216
sg1162
L9L
sg1159
L9L
sg1160
g1167
sVX
L2L
sg1156
g1161
sg1164
g1190
sg1166
L0L
sg1168
g1219
stRp1955
ag1
(g1560
g1507
(dp1956
g1151
g1292
sVY
L2L
sg1153
L3L
sg1154
g1293
sg1162
L2L
sg1159
L2L
sg1160
g1188
sVX
L9L
sg1156
g1178
sg1164
g1190
sg1166
L0L
sg1168
g1219
stRp1957
ag1
(g1560
g1507
(dp1958
g1151
g1308
sVY
L4L
sg1153
L3L
sg1154
g1309
sg1162
L5L
sg1159
L5L
sg1160
g1161
sVX
L8L
sg1156
g1201
sg1164
g1165
sg1166
L0L
sg1168
g1192
stRp1959
ag1
(g1560
g1507
(dp1960
g1151
g1186
sVY
L6L
sg1153
L3L
sg1154
g1187
sg1162
L1L
sg1159
L1L
sg1160
g1190
sVX
L8L
sg1156
g1188
sg1164
g1178
sg1166
L0L
sg1168
g1192
stRp1961
ag1
(g1560
g1507
(dp1962
g1151
g1242
sVY
L3L
sg1153
L4L
sg1154
g1243
sg1162
L2L
sg1159
L2L
sg1160
g1176
sVX
L6L
sg1156
g1190
sg1164
g1201
sg1166
g1178
sg1168
g1237
stRp1963
ag1
(g1560
g1507
(dp1964
g1151
g1233
sVY
L2L
sg1153
L4L
sg1154
g1234
sg1162
L8L
sg1159
L8L
sg1160
g1190
sVX
L2L
sg1156
g1157
sg1164
g1180
sg1166
g1161
sg1168
g1237
stRp1965
ag1
(g1560
g1507
(dp1966
g1151
g1316
sVY
L3L
sg1153
L4L
sg1154
g1317
sg1162
L3L
sg1159
L3L
sg1160
g1201
sVX
L4L
sg1156
g1161
sg1164
g1190
sg1166
g1157
sg1168
g1228
stRp1967
ag1
(g1560
g1507
(dp1968
g1151
g1224
sVY
L3L
sg1153
L4L
sg1154
g1225
sg1162
L4L
sg1159
L4L
sg1160
g1180
sVX
L7L
sg1156
g1157
sg1164
g1178
sg1166
g1190
sg1168
g1228
stRp1969
ag1
(g1560
g1507
(dp1970
g1151
g1250
sVY
L4L
sg1153
L4L
sg1154
g1251
sg1162
L7L
sg1159
L7L
sg1160
g1190
sVX
L8L
sg1156
g1167
sg1164
g1178
sg1166
g1176
sg1168
g1254
stRp1971
ag1
(g1560
g1507
(dp1972
g1151
g1276
sVY
L3L
sg1153
L4L
sg1154
g1277
sg1162
L6L
sg1159
L6L
sg1160
g1176
sVX
L5L
sg1156
g1188
sg1164
g1161
sg1166
g1165
sg1168
g1254
stRp1973
ag1
(g1560
g1507
(dp1974
g1151
g1152
sVY
L2L
sg1153
L4L
sg1154
g1155
sg1162
L8L
sg1159
L8L
sg1160
g1161
sVX
L4L
sg1156
g1157
sg1164
g1165
sg1166
g1167
sg1168
g1169
stRp1975
ag1
(g1560
g1507
(dp1976
g1151
g1284
sVY
L5L
sg1153
L4L
sg1154
g1285
sg1162
L3L
sg1159
L3L
sg1160
g1165
sVX
L9L
sg1156
g1157
sg1164
g1161
sg1166
g1188
sg1168
g1169
stRp1977
asg1573
Nsg1574
I12
sg1575
I18
sg1576
I0
sg1577
I18
sbag1
(g1495
g3
NtRp1978
(dp1979
g1498
Nsg1499
(lp1980
sg1501
I339866576
sg10
g1581
sg6
g1503
sg1504
I1
sg24
I01
sg25
g26
sg1505
g1
(g1506
g1507
(dp1981
g22
g1524
(g1525
g1510
g1526
S'b'
tRp1982
(I1
(I18
I1
tg1528
I00
S'\x00\x00\x80?\x00\x00\x80?\x00\x00\x80?\x00\x00\x80?\x00\x00\x80?\x00\x00\x80?\x00\x00\x80?\x00\x00\x80?\x00\x00\x80?\x00\x00\x80?\x00\x00\x80?\x00\x00\x80?\x00\x00\x00\x00\x00\x00\x80?\x00\x00\x80?\x00\x00\x00\x00\x00\x00\x80?\x00\x00\x80?'
S'\x00\x00\x00\x00\x00\x00\x00\x00\x00\x00\x00\x00\x00\x00\x00\x00\x00\x00'
Ntbsg19
g1509
(g1510
(I0
tS'b'
tRp1983
(I1
(I18
I1
tg1513
I00
(lp1984
g1443
ag1388
ag1451
ag1330
ag1491
ag1425
ag1359
ag1483
ag1475
ag1434
ag1459
ag1398
ag1348
ag1380
ag1416
ag1467
ag1370
ag1408
atbsg23
g1524
(g1525
g1510
g1526
S'b'
tRp1985
(I1
(I18
I1
tg1528
I00
S"\x16\xf3D@\xd18\x86@\x96\xae0@\x18f\x9c@ \x94\xa9@\x9e2J@\xb6\xbd\x83@\xba\xf9?@\xb2\x94\xe8@\xa4\xfa\x1e@s\xd5\xdd@'!{@R\xa2\x19AiM\xed@\xf1\xf5\xde@\t\xf7DA\xe98^@\x1e\r\xa3@"
S'\x00\x00\x00\x00\x00\x00\x00\x00\x00\x00\x00\x00\x00\x00\x00\x00\x00\x00'
Ntbsg1523
g1524
(g1525
g1510
g1526
S'b'
tRp1986
(I1
(I18
I1
tg1528
I00
S'\x00\x00\x80?\x00\x00\x80?\x00\x00\x80?\x00\x00\x80?\x00\x00\x80?\x00\x00\x80?\x00\x00\x80?\x00\x00\x80?\x00\x00\x80?\x00\x00\x80?\x00\x00\x80?\x00\x00\x80?\x00\x00\x80?\x00\x00\x80?\x00\x00\x80?\x00\x00\x80?\x00\x00\x80?\x00\x00\x80?'
S'\x00\x00\x00\x00\x00\x00\x00\x00\x00\x00\x00\x00\x00\x00\x00\x00\x00\x00'
Ntbsg21
g1509
(g1510
(I0
tS'b'
tRp1987
(I1
(I18
I1
tg1513
I00
(lp1988
S'7'
aS'2'
aS'8'
aS'6'
aS'7'
aS'8'
aS'2'
aS'5'
aS'6'
aS'5'
aS'9'
aS'8'
aS'1'
aS'3'
aS'5'
aS'5'
aS'3'
aS'1'
atbsg1538
g1524
(g1525
g1510
g1526
S'b'
tRp1989
(I1
(I18
I1
tg1528
I00
S'\x00\x000A\x00\x00\xa0@\x00\x00@A\x00\x00\x00\x00\x00\x00\x88A\x00\x00\x10A\x00\x00\x00@\x00\x00\x80A\x00\x00pA\x00\x00 A\x00\x00PA\x00\x00\xc0@\x00\x00\x80?\x00\x00\x80@\x00\x00\x00A\x00\x00`A\x00\x00@@\x00\x00\xe0@'
S'\x00\x00\x00\x00\x00\x00\x00\x00\x00\x00\x00\x00\x00\x00\x00\x00\x00\x00'
Ntbsg20
g1524
(g1525
g1510
g1526
S'b'
tRp1990
(I1
(I18
I1
tg1528
I00
S'R\x93\xa0?\x8c1b?\xbe\xc1\x8b?$\xb9z?\x05\xc7\x12@z\xd6F@\xbf\x1e A\xb8X\xde@\x9e^\x9b@\xd3y\xb8@\x01j\xde@\xee\xc9=A\xcc\xea\xc8@g\x14?A\xf4\xb3\x10A"\x85\x8aA\xfaP)A\xc7\xfe|A'
S'\x00\x00\x00\x00\x00\x00\x00\x00\x00\x00\x00\x00\x00\x00\x00\x00\x00\x00'
NtbstRp1991
(dp1992
g1543
(dp1993
g1523
I01
sg21
I00
sg20
I01
sg22
I01
sg19
I00
sg23
I01
sg1538
I01
ssg1545
g1978
sg1546
(lp1994
g1523
ag1538
ag19
ag20
ag21
ag22
ag23
asg1548
(lp1995
I18
aI1
asbsg1550
g1551
sg1552
g1509
(g1510
(I0
tS'b'
tRp1996
(I1
(I18
I1
tg1513
I00
(lp1997
I3
aI12
aI6
aI16
aI13
aI1
aI11
aI17
aI14
aI5
aI9
aI0
aI2
aI10
aI15
aI8
aI7
aI4
atbsg1555
I01
sg1556
I1
sg1557
I-1
sg1558
(lp1998
g1
(g1560
g1507
(dp1999
g1324
g1441
sVY
L5L
sg1326
L2L
sg1327
g1442
sg1334
L7L
sg1331
L7L
sg1332
g1350
sVX
L3L
sg1329
L0L
sg1336
g1333
sg1338
L0L
sg1339
g1391
stRp2000
ag1
(g1560
g1507
(dp2001
g1324
g1386
sVY
L4L
sg1326
L2L
sg1327
g1387
sg1334
L2L
sg1331
L2L
sg1332
g1350
sVX
L9L
sg1329
L0L
sg1336
g1390
sg1338
L0L
sg1339
g1391
stRp2002
ag1
(g1560
g1507
(dp2003
g1324
g1449
sVY
L3L
sg1326
L2L
sg1327
g1450
sg1334
L8L
sg1331
L8L
sg1332
g1372
sVX
L3L
sg1329
L0L
sg1336
g1350
sg1338
L0L
sg1339
g1340
stRp2004
ag1
(g1560
g1507
(dp2005
g1324
g1325
sVY
L8L
sg1326
L2L
sg1327
g1328
sg1334
L6L
sg1331
L6L
sg1332
g1333
sVX
L4L
sg1329
L0L
sg1336
g1337
sg1338
L0L
sg1339
g1340
stRp2006
ag1
(g1560
g1507
(dp2007
g1324
g1489
sVY
L5L
sg1326
L3L
sg1327
g1490
sg1334
L7L
sg1331
L7L
sg1332
g1362
sVX
L2L
sg1329
g1350
sg1336
g1333
sg1338
L0L
sg1339
g1427
stRp2008
ag1
(g1560
g1507
(dp2009
g1324
g1423
sVY
L2L
sg1326
L3L
sg1327
g1424
sg1334
L8L
sg1331
L8L
sg1332
g1399
sVX
L4L
sg1329
g1337
sg1336
g1333
sg1338
L0L
sg1339
g1427
stRp2010
ag1
(g1560
g1507
(dp2011
g1324
g1356
sVY
L3L
sg1326
L3L
sg1327
g1357
sg1334
L2L
sg1331
L2L
sg1332
g1360
sVX
L3L
sg1329
g1358
sg1336
g1362
sg1338
L0L
sg1339
g1363
stRp2012
ag1
(g1560
g1507
(dp2013
g1324
g1481
sVY
L3L
sg1326
L3L
sg1327
g1482
sg1334
L5L
sg1331
L5L
sg1332
g1333
sVX
L2L
sg1329
g1337
sg1336
g1358
sg1338
L0L
sg1339
g1363
stRp2014
ag1
(g1560
g1507
(dp2015
g1324
g1473
sVY
L4L
sg1326
L3L
sg1327
g1474
sg1334
L6L
sg1331
L6L
sg1332
g1347
sVX
L5L
sg1329
g1333
sg1336
g1362
sg1338
L0L
sg1339
g1436
stRp2016
ag1
(g1560
g1507
(dp2017
g1324
g1432
sVY
L3L
sg1326
L3L
sg1327
g1433
sg1334
L5L
sg1331
L5L
sg1332
g1358
sVX
L3L
sg1329
g1372
sg1336
g1337
sg1338
L0L
sg1339
g1436
stRp2018
ag1
(g1560
g1507
(dp2019
g1324
g1457
sVY
L4L
sg1326
L4L
sg1327
g1458
sg1334
L9L
sg1331
L9L
sg1332
g1350
sVX
L9L
sg1329
g1347
sg1336
g1333
sg1338
g1362
sg1339
g1401
stRp2020
ag1
(g1560
g1507
(dp2021
g1324
g1396
sVY
L2L
sg1326
L4L
sg1327
g1397
sg1334
L8L
sg1331
L8L
sg1332
g1399
sVX
L2L
sg1329
g1362
sg1336
g1333
sg1338
g1350
sg1339
g1401
stRp2022
ag1
(g1560
g1507
(dp2023
g1324
g1345
sVY
L6L
sg1326
L4L
sg1327
g1346
sg1334
L6L
sg1331
L6L
sg1332
g1333
sVX
L6L
sg1329
g1347
sg1336
g1350
sg1338
g1337
sg1339
g1351
stRp2024
ag1
(g1560
g1507
(dp2025
g1324
g1378
sVY
L2L
sg1326
L4L
sg1327
g1379
sg1334
L3L
sg1331
L3L
sg1332
g1360
sVX
L9L
sg1329
g1362
sg1336
g1350
sg1338
g1347
sg1339
g1351
stRp2026
ag1
(g1560
g1507
(dp2027
g1324
g1414
sVY
L3L
sg1326
L4L
sg1327
g1415
sg1334
L5L
sg1331
L5L
sg1332
g1362
sVX
L3L
sg1329
g1372
sg1336
g1350
sg1338
g1347
sg1339
g1418
stRp2028
ag1
(g1560
g1507
(dp2029
g1324
g1465
sVY
L3L
sg1326
L4L
sg1327
g1466
sg1334
L8L
sg1331
L8L
sg1332
g1399
sVX
L3L
sg1329
g1360
sg1336
g1350
sg1338
g1362
sg1339
g1418
stRp2030
ag1
(g1560
g1507
(dp2031
g1324
g1368
sVY
L4L
sg1326
L4L
sg1327
g1369
sg1334
L3L
sg1331
L3L
sg1332
g1337
sVX
L3L
sg1329
g1347
sg1336
g1358
sg1338
g1372
sg1339
g1373
stRp2032
ag1
(g1560
g1507
(dp2033
g1324
g1406
sVY
L2L
sg1326
L4L
sg1327
g1407
sg1334
L1L
sg1331
L1L
sg1332
g1337
sVX
L7L
sg1329
g1358
sg1336
g1347
sg1338
g1360
sg1339
g1373
stRp2034
asg1573
Nsg1574
I4
sg1575
I18
sg1576
I0
sg1577
I18
sbasS'savePickle'
p2035
I00
sb.