ccopy_reg
_reconstructor
p1
(cpsychopy.data
ExperimentHandler
p2
c__builtin__
object
p3
NtRp4
(dp5
S'originPath'
p6
NsS'dataFileName'
p7
VC:\u005cUsers\u005cexperimenter\u005cDesktop\u005cExperiments\u005cKRITL\u005cdata/31049_KRITL_2017_May_05_0907
p8
sS'runtimeInfo'
p9
NsS'name'
p10
S'KRITL'
p11
sS'dataNames'
p12
(lp13
S'practice_encoding.keys'
p14
aS'practice_encoding.rt'
p15
aS'practice_execution.keys'
p16
aS'practice_execution.corr'
p17
aS'practice_execution.rt'
p18
aS'encoding.keys'
p19
aS'encoding.rt'
p20
aS'execution.keys'
p21
aS'execution.corr'
p22
aS'execution.rt'
p23
asS'autoLog'
p24
I01
sS'extraInfo'
p25
(dp26
S'date'
p27
V2017_May_05_0907
p28
sS'frameRate'
p29
NsS'expName'
p30
g11
sVsession
p31
V001
p32
sVparticipant
p33
V31049
p34
ssS'loopsUnfinished'
p35
(lp36
sS'saveWideText'
p37
I00
sS'thisEntry'
p38
(dp39
sS'version'
p40
S''
sS'_paramNamesSoFar'
p41
(lp42
Voperationc
p43
aVoperationb
p44
aVoperationa
p45
aVcorrectresponse
p46
aVvaluey
p47
aVoperationd
p48
aVcondition
p49
aVvaluex
p50
aVRule
p51
aVOperatora
p52
aVLength
p53
aVIntermediate
p54
aVCorrectResponse
p55
aVResult
p56
aVY
aVX
aVOperatorc
p57
aVOperatorb
p58
aVOperatord
p59
aVStructure
p60
asS'entries'
p61
(lp62
(dp63
g18
F7.0760663124819985
sg29
Nsg17
I1
sg43
Vincrease
p64
sg44
VDIVIDE
p65
sg45
Vdouble
p66
sg31
g32
sg46
L9L
sS'practice_trials.thisTrialN'
p67
I0
sg48
Vtriple
p68
sS'practice_trials.thisRepN'
p69
I0
sg33
g34
sg49
L4L
sg27
g28
sg16
S'9'
sg14
(lp70
S'space'
p71
asS'practice_trials.thisIndex'
p72
I5
sS'practice_trials.thisN'
p73
I0
sg30
g11
sg15
(lp74
F3.1522278150296188
asg47
L8L
sg50
L8L
sa(dp75
g18
F3.318123453813314
sg29
Nsg17
I1
sg43
VADD
p76
sg44
Vtriple 
p77
sg45
Vhalf
p78
sg31
g32
sg46
L8L
sS'practice_trials.thisTrialN'
p79
I1
sg48
L0L
sS'practice_trials.thisRepN'
p80
I0
sg33
g34
sg49
L3L
sg27
g28
sg16
S'8'
sg14
(lp81
S'space'
p82
asS'practice_trials.thisIndex'
p83
I3
sS'practice_trials.thisN'
p84
I1
sg30
g11
sg15
(lp85
F2.3364748388485168
asg47
L2L
sg50
L4L
sa(dp86
g18
F1.9073657163899043
sg29
Nsg17
I1
sg43
L0L
sg44
Vdecrease
p87
sg45
VTIMES
p88
sg31
g32
sg46
L8L
sS'practice_trials.thisTrialN'
p89
I2
sg48
L0L
sS'practice_trials.thisRepN'
p90
I0
sg33
g34
sg49
L2L
sg27
g28
sg16
S'8'
sg14
(lp91
S'space'
p92
asS'practice_trials.thisIndex'
p93
I1
sS'practice_trials.thisN'
p94
I2
sg30
g11
sg15
(lp95
F2.1525165349012241
asg47
L3L
sg50
L3L
sa(dp96
g18
F2.1319197841730784
sg29
Nsg17
I1
sg43
L0L
sg44
g76
sg45
g78
sg31
g32
sg46
L7L
sS'practice_trials.thisTrialN'
p97
I3
sg48
L0L
sS'practice_trials.thisRepN'
p98
I0
sg33
g34
sg49
L2L
sg27
g28
sg16
S'7'
sg14
(lp99
S'space'
p100
asS'practice_trials.thisIndex'
p101
I2
sS'practice_trials.thisN'
p102
I3
sg30
g11
sg15
(lp103
F0.90844430383731378
asg47
L5L
sg50
L4L
sa(dp104
g18
F4.1649321893273736
sg29
Nsg17
I1
sg43
g64
sg44
g65
sg45
g68
sg31
g32
sg46
L3L
sS'practice_trials.thisTrialN'
p105
I4
sg48
L0L
sS'practice_trials.thisRepN'
p106
I0
sg33
g34
sg49
L3L
sg27
g28
sg16
S'3'
sg14
(lp107
S'space'
p108
asS'practice_trials.thisIndex'
p109
I4
sS'practice_trials.thisN'
p110
I4
sg30
g11
sg15
(lp111
F1.6423691687741666
asg47
L3L
sg50
L2L
sa(dp112
g18
F1.6656396405087435
sg29
Nsg17
I1
sg43
L0L
sg44
g76
sg45
g87
sg31
g32
sg46
L7L
sS'practice_trials.thisTrialN'
p113
I5
sg48
L0L
sS'practice_trials.thisRepN'
p114
I0
sg33
g34
sg49
L2L
sg27
g28
sg16
S'7'
sg14
(lp115
S'space'
p116
asS'practice_trials.thisIndex'
p117
I0
sS'practice_trials.thisN'
p118
I5
sg30
g11
sg15
(lp119
F2.0465384937051567
asg47
L5L
sg50
L3L
sa(dp120
S'block.thisTrialN'
p121
I0
sS'block.thisRepN'
p122
I0
sg29
NsS'block.thisN'
p123
I0
sg51
(S'TIMES'
S'THIRD'
S'x'
S'y'
tp124
sg27
g28
sg53
L2L
sg54
(I1
I4
tp125
sg22
I1
sg20
F1.9487422487436561
sg23
F2.6122744091626373
sVY
L4L
sVX
L3L
sg57
L0L
sg31
g32
sg33
g34
sg21
S'4'
sg19
S'space'
p126
sg30
g11
sg56
L4L
sg52
Vthird
p127
sg55
L4L
sS'block.thisIndex'
p128
I1
sg58
VTIMES
p129
sg59
L0L
sg60
VBUxy
p130
sa(dp131
S'block.thisTrialN'
p132
I1
sS'block.thisRepN'
p133
I0
sg29
NsS'block.thisN'
p134
I1
sg51
(S'INCREASE'
S'HALF'
S'TIMES'
S'TRIPLE'
S'x'
S'y'
tp135
sg27
g28
sg53
L4L
sg54
(I6
I12
I6
I7
tp136
sg22
I1
sg20
F2.0188500829972327
sg23
F14.485614226156031
sVY
L2L
sVX
L2L
sg57
g129
sg31
g32
sg33
g34
sg21
S'7'
sg19
S'space'
p137
sg30
g11
sg56
L7L
sg52
Vhalf
p138
sg55
L7L
sS'block.thisIndex'
p139
I14
sg58
Vincrease
p140
sg59
Vtriple
p141
sg60
VUUBUxy
p142
sa(dp143
S'block.thisTrialN'
p144
I2
sS'block.thisRepN'
p145
I0
sg29
NsS'block.thisN'
p146
I2
sg51
(S'DECREASE'
S'HALF'
S'TRIPLE'
S'ADD'
S'x'
S'y'
tp147
sg27
g28
sg53
L4L
sg54
(I4
I12
I6
I5
tp148
sg22
I1
sg20
F2.1312699019908905
sg23
F3.2531334855229943
sVY
L2L
sVX
L2L
sg57
g141
sg31
g32
sg33
g34
sg21
S'5'
sg19
S'space'
p149
sg30
g11
sg56
L5L
sg52
g138
sg55
L5L
sS'block.thisIndex'
p150
I16
sg58
Vdecrease
p151
sg59
VADD
p152
sg60
VUUUBxy
p153
sa(dp154
S'block.thisTrialN'
p155
I3
sS'block.thisRepN'
p156
I0
sg29
NsS'block.thisN'
p157
I3
sg51
(S'TRIPLE'
S'HALF'
S'TIMES'
S'x'
S'y'
tp158
sg27
g28
sg53
L3L
sg54
(I6
I3
I9
tp159
sg22
I1
sg20
F1.1281793744856259
sg23
F5.4437711924765608
sVY
L3L
sVX
L2L
sg57
g129
sg31
g32
sg33
g34
sg21
S'9'
sg19
S'space'
p160
sg30
g11
sg56
L9L
sg52
g138
sg55
L9L
sS'block.thisIndex'
p161
I9
sg58
g141
sg59
L0L
sg60
VUUBxy
p162
sa(dp163
S'block.thisTrialN'
p164
I4
sS'block.thisRepN'
p165
I0
sg29
NsS'block.thisN'
p166
I4
sg51
(S'INCREASE'
S'DIVIDE'
S'HALF'
S'x'
S'y'
tp167
sg27
g28
sg53
L3L
sg54
(I2
I1
I2
tp168
sg22
I1
sg20
F1.9570976268587401
sg23
F2.8805760118921171
sVY
L2L
sVX
L4L
sg57
g138
sg31
g32
sg33
g34
sg21
S'2'
sg19
S'space'
p169
sg30
g11
sg56
L2L
sg52
VDIVIDE
p170
sg55
L2L
sS'block.thisIndex'
p171
I7
sg58
g140
sg59
L0L
sg60
VUBUxy
p172
sa(dp173
S'block.thisTrialN'
p174
I5
sS'block.thisRepN'
p175
I0
sg29
NsS'block.thisN'
p176
I5
sg51
(S'DOUBLE'
S'TIMES'
S'THIRD'
S'x'
S'y'
tp177
sg27
g28
sg53
L3L
sg54
(I1
I4
I8
tp178
sg22
I1
sg20
F3.0935651864710962
sg23
F2.6781462854341953
sVY
L4L
sVX
L3L
sg57
g127
sg31
g32
sg33
g34
sg21
S'8'
sg19
S'space'
p179
sg30
g11
sg56
L8L
sg52
g129
sg55
L8L
sS'block.thisIndex'
p180
I6
sg58
Vdouble
p181
sg59
L0L
sg60
g172
sa(dp182
S'block.thisTrialN'
p183
I6
sS'block.thisRepN'
p184
I0
sg29
NsS'block.thisN'
p185
I6
sg51
(S'SUBTRACT'
S'THIRD'
S'x'
S'y'
tp186
sg27
g28
sg53
L2L
sg54
(I3
I1
tp187
sg22
I1
sg20
F1.1542527037308901
sg23
F1.6536890875431709
sVY
L2L
sVX
L9L
sg57
L0L
sg31
g32
sg33
g34
sg21
S'1'
sg19
S'space'
p188
sg30
g11
sg56
L1L
sg52
g127
sg55
L1L
sS'block.thisIndex'
p189
I0
sg58
VSUBTRACT
p190
sg59
L0L
sg60
g130
sa(dp191
S'block.thisTrialN'
p192
I7
sS'block.thisRepN'
p193
I0
sg29
NsS'block.thisN'
p194
I7
sg51
(S'DIVIDE'
S'DECREASE'
S'THIRD'
S'DOUBLE'
S'x'
S'y'
tp195
sg27
g28
sg53
L4L
sg54
(I12
I4
I3
I1
tp196
sg22
I1
sg20
F1.6812781086337054
sg23
F4.5177958180065616
sVY
L3L
sVX
L6L
sg57
g127
sg31
g32
sg33
g34
sg21
S'1'
sg19
S'space'
p197
sg30
g11
sg56
L1L
sg52
g151
sg55
L1L
sS'block.thisIndex'
p198
I10
sg58
g170
sg59
g181
sg60
VBUUUxy
p199
sa(dp200
S'block.thisTrialN'
p201
I8
sS'block.thisRepN'
p202
I0
sg29
NsS'block.thisN'
p203
I8
sg51
(S'TRIPLE'
S'SUBTRACT'
S'INCREASE'
S'HALF'
S'x'
S'y'
tp204
sg27
g28
sg53
L4L
sg54
(I3
I4
I1
I3
tp205
sg22
I1
sg20
F1.3458741580325295
sg23
F3.8779232887100079
sVY
L3L
sVX
L6L
sg57
g140
sg31
g32
sg33
g34
sg21
S'3'
sg19
S'space'
p206
sg30
g11
sg56
L3L
sg52
g190
sg55
L3L
sS'block.thisIndex'
p207
I13
sg58
g141
sg59
g138
sg60
VUBUUxy
p208
sa(dp209
S'block.thisTrialN'
p210
I9
sS'block.thisRepN'
p211
I0
sg29
NsS'block.thisN'
p212
I9
sg51
(S'DECREASE'
S'HALF'
S'DIVIDE'
S'x'
S'y'
tp213
sg27
g28
sg53
L3L
sg54
(I4
I2
I1
tp214
sg22
I1
sg20
F1.17130992381135
sg23
F3.9558528067573206
sVY
L2L
sVX
L8L
sg57
g170
sg31
g32
sg33
g34
sg21
S'1'
sg19
S'space'
p215
sg30
g11
sg56
L1L
sg52
g138
sg55
L1L
sS'block.thisIndex'
p216
I8
sg58
g151
sg59
L0L
sg60
g162
sa(dp217
S'block.thisTrialN'
p218
I10
sS'block.thisRepN'
p219
I0
sg29
NsS'block.thisN'
p220
I10
sg51
(S'THIRD'
S'INCREASE'
S'SUBTRACT'
S'HALF'
S'x'
S'y'
tp221
sg27
g28
sg53
L4L
sg54
(I4
I2
I3
I1
tp222
sg22
I1
sg20
F1.7942823666307959
sg23
F4.1648390990376356
sVY
L2L
sVX
L8L
sg57
g190
sg31
g32
sg33
g34
sg21
S'1'
sg19
S'space'
p223
sg30
g11
sg56
L1L
sg52
g140
sg55
L1L
sS'block.thisIndex'
p224
I15
sg58
g127
sg59
g138
sg60
g142
sa(dp225
S'block.thisTrialN'
p226
I11
sS'block.thisRepN'
p227
I0
sg29
NsS'block.thisN'
p228
I11
sg51
(S'SUBTRACT'
S'DOUBLE'
S'DECREASE'
S'x'
S'y'
tp229
sg27
g28
sg53
L3L
sg54
(I8
I16
I7
tp230
sg22
I1
sg20
F2.2435402865739889
sg23
F4.9190090014089947
sVY
L9L
sVX
L9L
sg57
g151
sg31
g32
sg33
g34
sg21
S'7'
sg19
S'space'
p231
sg30
g11
sg56
L7L
sg52
g181
sg55
L7L
sS'block.thisIndex'
p232
I5
sg58
g190
sg59
L0L
sg60
VBUUxy
p233
sa(dp234
S'block.thisTrialN'
p235
I12
sS'block.thisRepN'
p236
I0
sg29
NsS'block.thisN'
p237
I12
sg51
(S'INCREASE'
S'TIMES'
S'x'
S'y'
tp238
sg27
g28
sg53
L2L
sg54
(I8
I9
tp239
sg22
I1
sg20
F2.7895522602266283
sg23
F1.4106240513792727
sVY
L4L
sVX
L2L
sg57
L0L
sg31
g32
sg33
g34
sg21
S'9'
sg19
S'space'
p240
sg30
g11
sg56
L9L
sg52
g129
sg55
L9L
sS'block.thisIndex'
p241
I2
sg58
g140
sg59
L0L
sg60
VUBxy
p242
sa(dp243
S'block.thisTrialN'
p244
I13
sS'block.thisRepN'
p245
I0
sg29
NsS'block.thisN'
p246
I13
sg51
(S'TIMES'
S'DECREASE'
S'THIRD'
S'DOUBLE'
S'x'
S'y'
tp247
sg27
g28
sg53
L4L
sg54
(I6
I2
I1
I2
tp248
sg22
I1
sg20
F1.8468573804348125
sg23
F5.8102053550755954
sVY
L2L
sVX
L3L
sg57
g127
sg31
g32
sg33
g34
sg21
S'2'
sg19
S'space'
p249
sg30
g11
sg56
L2L
sg52
g151
sg55
L2L
sS'block.thisIndex'
p250
I11
sg58
g129
sg59
g181
sg60
g199
sa(dp251
S'block.thisTrialN'
p252
I14
sS'block.thisRepN'
p253
I0
sg29
NsS'block.thisN'
p254
I14
sg51
(S'INCREASE'
S'TRIPLE'
S'HALF'
S'ADD'
S'x'
S'y'
tp255
sg27
g28
sg53
L4L
sg54
(I4
I2
I6
I7
tp256
sg22
I1
sg20
F1.1540490249899449
sg23
F7.8141858397066244
sVY
L2L
sVX
L2L
sg57
g138
sg31
g32
sg33
g34
sg21
S'7'
sg19
S'space'
p257
sg30
g11
sg56
L7L
sg52
g141
sg55
L7L
sS'block.thisIndex'
p258
I17
sg58
g140
sg59
g152
sg60
g153
sa(dp259
S'block.thisTrialN'
p260
I15
sS'block.thisRepN'
p261
I0
sg29
NsS'block.thisN'
p262
I15
sg51
(S'ADD'
S'DECREASE'
S'HALF'
S'x'
S'y'
tp263
sg27
g28
sg53
L3L
sg54
(I3
I2
I6
tp264
sg22
I1
sg20
F1.2513661699413205
sg23
F4.2147711886209436
sVY
L4L
sVX
L6L
sg57
g138
sg31
g32
sg33
g34
sg21
S'6'
sg19
S'space'
p265
sg30
g11
sg56
L6L
sg52
g151
sg55
L6L
sS'block.thisIndex'
p266
I4
sg58
g152
sg59
L0L
sg60
g233
sa(dp267
S'block.thisTrialN'
p268
I16
sS'block.thisRepN'
p269
I0
sg29
NsS'block.thisN'
p270
I16
sg51
(S'DECREASE'
S'DIVIDE'
S'TRIPLE'
S'DOUBLE'
S'x'
S'y'
tp271
sg27
g28
sg53
L4L
sg54
(I6
I18
I2
I1
tp272
sg22
I1
sg20
F3.2677752576564671
sg23
F6.2490466119852499
sVY
L9L
sVX
L3L
sg57
g141
sg31
g32
sg33
g34
sg21
S'1'
sg19
S'space'
p273
sg30
g11
sg56
L1L
sg52
g170
sg55
L1L
sS'block.thisIndex'
p274
I12
sg58
g151
sg59
g181
sg60
g208
sa(dp275
S'block.thisTrialN'
p276
I17
sS'block.thisRepN'
p277
I0
sg29
NsS'block.thisN'
p278
I17
sg51
(S'TRIPLE'
S'SUBTRACT'
S'x'
S'y'
tp279
sg27
g28
sg53
L2L
sg54
(I2
I6
tp280
sg22
I1
sg20
F1.3954366861798917
sg23
F2.0540578090731287
sVY
L6L
sVX
L8L
sg57
L0L
sg31
g32
sg33
g34
sg21
S'6'
sg19
S'space'
p281
sg30
g11
sg56
L6L
sg52
g190
sg55
L6L
sS'block.thisIndex'
p282
I3
sg58
g141
sg59
L0L
sg60
g242
sa(dp283
S'block.thisTrialN'
p284
I0
sS'block.thisRepN'
p285
I0
sg29
NsS'block.thisN'
p286
I0
sVRule
p287
(S'DECREASE'
S'TRIPLE'
S'SUBTRACT'
S'DOUBLE'
S'x'
S'y'
tp288
sg27
g28
sVLength
p289
L4L
sVIntermediate
p290
(I6
I3
I9
I8
tp291
sg22
I0
sg20
F3.7272668097066344
sg23
F5.6873958202486392
sVY
L3L
sVX
L3L
sVOperatorc
p292
VSUBTRACT
p293
sg31
g32
sg33
g34
sg21
S'1'
sg19
S'space'
p294
sg30
g11
sVResult
p295
L8L
sVOperatora
p296
Vtriple
p297
sVCorrectResponse
p298
L8L
sS'block.thisIndex'
p299
I15
sVOperatorb
p300
Vdecrease
p301
sVOperatord
p302
Vdouble
p303
sVStructure
p304
VUUBUxy
p305
sa(dp306
S'block.thisTrialN'
p307
I1
sS'block.thisRepN'
p308
I0
sg29
NsS'block.thisN'
p309
I1
sg287
(S'ADD'
S'TRIPLE'
S'HALF'
S'x'
S'y'
tp310
sg27
g28
sg289
L3L
sg290
(I2
I6
I8
tp311
sg22
I1
sg20
F1.5061703811225016
sg23
F3.7026920240896288
sVY
L2L
sVX
L4L
sg292
Vhalf
p312
sg31
g32
sg33
g34
sg21
S'8'
sg19
S'space'
p313
sg30
g11
sg295
L8L
sg296
g297
sg298
L8L
sS'block.thisIndex'
p314
I5
sg300
VADD
p315
sg302
L0L
sg304
VBUUxy
p316
sa(dp317
S'block.thisTrialN'
p318
I2
sS'block.thisRepN'
p319
I0
sg29
NsS'block.thisN'
p320
I2
sg287
(S'ADD'
S'DECREASE'
S'THIRD'
S'DOUBLE'
S'x'
S'y'
tp321
sg27
g28
sg289
L4L
sg290
(I18
I6
I5
I9
tp322
sg22
I1
sg20
F4.0851219675168977
sg23
F4.5139108734001638
sVY
L4L
sVX
L9L
sg292
Vthird
p323
sg31
g32
sg33
g34
sg21
S'9'
sg19
S'space'
p324
sg30
g11
sg295
L9L
sg296
g301
sg298
L9L
sS'block.thisIndex'
p325
I10
sg300
g315
sg302
g303
sg304
VBUUUxy
p326
sa(dp327
S'block.thisTrialN'
p328
I3
sS'block.thisRepN'
p329
I0
sg29
NsS'block.thisN'
p330
I3
sg287
(S'DECREASE'
S'DOUBLE'
S'TIMES'
S'THIRD'
S'x'
S'y'
tp331
sg27
g28
sg289
L4L
sg290
(I1
I3
I6
I5
tp332
sg22
I1
sg20
F3.122206897714932
sg23
F5.3314941585849738
sVY
L3L
sVX
L3L
sg292
VTIMES
p333
sg31
g32
sg33
g34
sg21
S'5'
sg19
S'space'
p334
sg30
g11
sg295
L5L
sg296
g303
sg298
L5L
sS'block.thisIndex'
p335
I14
sg300
g301
sg302
g323
sg304
g305
sa(dp336
S'block.thisTrialN'
p337
I4
sS'block.thisRepN'
p338
I0
sg29
NsS'block.thisN'
p339
I4
sg287
(S'ADD'
S'TRIPLE'
S'DOUBLE'
S'DECREASE'
S'x'
S'y'
tp340
sg27
g28
sg289
L4L
sg290
(I1
I2
I6
I8
tp341
sg22
I1
sg20
F2.9277090935502201
sg23
F3.2869396078531281
sVY
L2L
sVX
L2L
sg292
g303
sg31
g32
sg33
g34
sg21
S'8'
sg19
S'space'
p342
sg30
g11
sg295
L8L
sg296
g297
sg298
L8L
sS'block.thisIndex'
p343
I11
sg300
g315
sg302
g301
sg304
g326
sa(dp344
S'block.thisTrialN'
p345
I5
sS'block.thisRepN'
p346
I0
sg29
NsS'block.thisN'
p347
I5
sg287
(S'ADD'
S'DOUBLE'
S'DECREASE'
S'x'
S'y'
tp348
sg27
g28
sg289
L3L
sg290
(I1
I2
I7
tp349
sg22
I1
sg20
F1.6685037416318664
sg23
F2.6605833681242075
sVY
L5L
sVX
L2L
sg292
g301
sg31
g32
sg33
g34
sg21
S'7'
sg19
S'space'
p350
sg30
g11
sg295
L7L
sg296
g303
sg298
L7L
sS'block.thisIndex'
p351
I4
sg300
g315
sg302
L0L
sg304
g316
sa(dp352
S'block.thisTrialN'
p353
I6
sS'block.thisRepN'
p354
I0
sg29
NsS'block.thisN'
p355
I6
sg287
(S'ADD'
S'DECREASE'
S'x'
S'y'
tp356
sg27
g28
sg289
L2L
sg290
(I2
I7
tp357
sg22
I1
sg20
F1.3293506322661415
sg23
F1.7504497905611061
sVY
L5L
sVX
L3L
sg292
L0L
sg31
g32
sg33
g34
sg21
S'7'
sg19
S'space'
p358
sg30
g11
sg295
L7L
sg296
g301
sg298
L7L
sS'block.thisIndex'
p359
I0
sg300
g315
sg302
L0L
sg304
VBUxy
p360
sa(dp361
S'block.thisTrialN'
p362
I7
sS'block.thisRepN'
p363
I0
sg29
NsS'block.thisN'
p364
I7
sg287
(S'INCREASE'
S'ADD'
S'HALF'
S'x'
S'y'
tp365
sg27
g28
sg289
L3L
sg290
(I1
I4
I5
tp366
sg22
I1
sg20
F1.1906646541465307
sg23
F3.3462815155216958
sVY
L3L
sVX
L2L
sg292
g312
sg31
g32
sg33
g34
sg21
S'5'
sg19
S'space'
p367
sg30
g11
sg295
L5L
sg296
g315
sg298
L5L
sS'block.thisIndex'
p368
I7
sg300
Vincrease
p369
sg302
L0L
sg304
VUBUxy
p370
sa(dp371
S'block.thisTrialN'
p372
I8
sS'block.thisRepN'
p373
I0
sg29
NsS'block.thisN'
p374
I8
sg287
(S'HALF'
S'INCREASE'
S'TIMES'
S'x'
S'y'
tp375
sg27
g28
sg289
L3L
sg290
(I9
I10
I5
tp376
sg22
I1
sg20
F2.8686111104325391
sg23
F2.6614411286209361
sVY
L3L
sVX
L3L
sg292
g333
sg31
g32
sg33
g34
sg21
S'5'
sg19
S'space'
p377
sg30
g11
sg295
L5L
sg296
g369
sg298
L5L
sS'block.thisIndex'
p378
I9
sg300
g312
sg302
L0L
sg304
VUUBxy
p379
sa(dp380
S'block.thisTrialN'
p381
I9
sS'block.thisRepN'
p382
I0
sg29
NsS'block.thisN'
p383
I9
sg287
(S'DOUBLE'
S'SUBTRACT'
S'INCREASE'
S'x'
S'y'
tp384
sg27
g28
sg289
L3L
sg290
(I4
I1
I2
tp385
sg22
I1
sg20
F1.0785339049907634
sg23
F3.3508173922091373
sVY
L3L
sVX
L3L
sg292
g369
sg31
g32
sg33
g34
sg21
S'2'
sg19
S'space'
p386
sg30
g11
sg295
L2L
sg296
g293
sg298
L2L
sS'block.thisIndex'
p387
I6
sg300
g303
sg302
L0L
sg304
g370
sa(dp388
S'block.thisTrialN'
p389
I10
sS'block.thisRepN'
p390
I0
sg29
NsS'block.thisN'
p391
I10
sg287
(S'INCREASE'
S'HALF'
S'THIRD'
S'TIMES'
S'x'
S'y'
tp392
sg27
g28
sg289
L4L
sg290
(I12
I4
I2
I3
tp393
sg22
I1
sg20
F6.8500231500802329
sg23
F6.8360123621096136
sVY
L4L
sVX
L3L
sg292
g323
sg31
g32
sg33
g34
sg21
S'3'
sg19
S'space'
p394
sg30
g11
sg295
L3L
sg296
g312
sg298
L3L
sS'block.thisIndex'
p395
I16
sg300
g369
sg302
g333
sg304
VUUUBxy
p396
sa(dp397
S'block.thisTrialN'
p398
I11
sS'block.thisRepN'
p399
I0
sg29
NsS'block.thisN'
p400
I11
sg287
(S'THIRD'
S'HALF'
S'INCREASE'
S'SUBTRACT'
S'x'
S'y'
tp401
sg27
g28
sg289
L4L
sg290
(I5
I6
I3
I1
tp402
sg22
I1
sg20
F1.667453151261725
sg23
F7.3666756374004763
sVY
L2L
sVX
L7L
sg292
g369
sg31
g32
sg33
g34
sg21
S'1'
sg19
S'space'
p403
sg30
g11
sg295
L1L
sg296
g312
sg298
L1L
sS'block.thisIndex'
p404
I17
sg300
g323
sg302
g293
sg304
g396
sa(dp405
S'block.thisTrialN'
p406
I12
sS'block.thisRepN'
p407
I0
sg29
NsS'block.thisN'
p408
I12
sg287
(S'HALF'
S'ADD'
S'x'
S'y'
tp409
sg27
g28
sg289
L2L
sg290
(I12
I6
tp410
sg22
I1
sg20
F1.2086965225171298
sg23
F1.6394756707159104
sVY
L8L
sVX
L4L
sg292
L0L
sg31
g32
sg33
g34
sg21
S'6'
sg19
S'space'
p411
sg30
g11
sg295
L6L
sg296
g315
sg298
L6L
sS'block.thisIndex'
p412
I3
sg300
g312
sg302
L0L
sg304
VUBxy
p413
sa(dp414
S'block.thisTrialN'
p415
I13
sS'block.thisRepN'
p416
I0
sg29
NsS'block.thisN'
p417
I13
sg287
(S'DECREASE'
S'ADD'
S'THIRD'
S'HALF'
S'x'
S'y'
tp418
sg27
g28
sg289
L4L
sg290
(I3
I1
I7
I6
tp419
sg22
I1
sg20
F2.1312929995765444
sg23
F3.7326716457100702
sVY
L6L
sVX
L6L
sg292
g323
sg31
g32
sg33
g34
sg21
S'6'
sg19
S'space'
p420
sg30
g11
sg295
L6L
sg296
g315
sg298
L6L
sS'block.thisIndex'
p421
I12
sg300
g301
sg302
g312
sg304
VUBUUxy
p422
sa(dp423
S'block.thisTrialN'
p424
I14
sS'block.thisRepN'
p425
I0
sg29
NsS'block.thisN'
p426
I14
sg287
(S'DECREASE'
S'TIMES'
S'x'
S'y'
tp427
sg27
g28
sg289
L2L
sg290
(I9
I8
tp428
sg22
I1
sg20
F1.6065903023045394
sg23
F1.3978185376327019
sVY
L3L
sVX
L3L
sg292
L0L
sg31
g32
sg33
g34
sg21
S'8'
sg19
S'space'
p429
sg30
g11
sg295
L8L
sg296
g333
sg298
L8L
sS'block.thisIndex'
p430
I2
sg300
g301
sg302
L0L
sg304
g413
sa(dp431
S'block.thisTrialN'
p432
I15
sS'block.thisRepN'
p433
I0
sg29
NsS'block.thisN'
p434
I15
sg287
(S'DOUBLE'
S'THIRD'
S'ADD'
S'x'
S'y'
tp435
sg27
g28
sg289
L3L
sg290
(I9
I3
I6
tp436
sg22
I1
sg20
F1.0452380294082104
sg23
F4.0844937830770505
sVY
L4L
sVX
L5L
sg292
g315
sg31
g32
sg33
g34
sg21
S'6'
sg19
S'space'
p437
sg30
g11
sg295
L6L
sg296
g323
sg298
L6L
sS'block.thisIndex'
p438
I8
sg300
g303
sg302
L0L
sg304
g379
sa(dp439
S'block.thisTrialN'
p440
I16
sS'block.thisRepN'
p441
I0
sg29
NsS'block.thisN'
p442
I16
sg287
(S'DECREASE'
S'SUBTRACT'
S'DOUBLE'
S'THIRD'
S'x'
S'y'
tp443
sg27
g28
sg289
L4L
sg290
(I3
I6
I4
I3
tp444
sg22
I1
sg20
F3.2705424188970937
sg23
F5.7980206765423645
sVY
L2L
sVX
L9L
sg292
g303
sg31
g32
sg33
g34
sg21
S'3'
sg19
S'space'
p445
sg30
g11
sg295
L3L
sg296
g293
sg298
L3L
sS'block.thisIndex'
p446
I13
sg300
g301
sg302
g323
sg304
g422
sa(dp447
S'block.thisTrialN'
p448
I17
sS'block.thisRepN'
p449
I0
sg29
NsS'block.thisN'
p450
I17
sg287
(S'DIVIDE'
S'DECREASE'
S'x'
S'y'
tp451
sg27
g28
sg289
L2L
sg290
(I8
I2
tp452
sg22
I1
sg20
F0.91807564880582504
sg23
F1.6051694505731575
sVY
L4L
sVX
L9L
sg292
L0L
sg31
g32
sg33
g34
sg21
S'2'
sg19
S'space'
p453
sg30
g11
sg295
L2L
sg296
g301
sg298
L2L
sS'block.thisIndex'
p454
I1
sg300
VDIVIDE
p455
sg302
L0L
sg304
g360
sa(dp456
S'block.thisTrialN'
p457
I0
sS'block.thisRepN'
p458
I0
sg29
NsS'block.thisN'
p459
I0
sVRule
p460
(S'TRIPLE'
S'DOUBLE'
S'SUBTRACT'
S'INCREASE'
S'x'
S'y'
tp461
sg27
g28
sVLength
p462
L4L
sVIntermediate
p463
(I5
I1
I2
I6
tp464
sg22
I1
sg20
F5.8475132120001945
sg23
F2.9667660679624532
sVY
L4L
sVX
L4L
sVOperatorc
p465
VSUBTRACT
p466
sg31
g32
sg33
g34
sg21
S'6'
sg19
S'space'
p467
sg30
g11
sVResult
p468
L6L
sVOperatora
p469
Vdouble
p470
sVCorrectResponse
p471
L6L
sS'block.thisIndex'
p472
I14
sVOperatorb
p473
Vtriple
p474
sVOperatord
p475
Vincrease
p476
sVStructure
p477
VUUBUxy
p478
sa(dp479
S'block.thisTrialN'
p480
I1
sS'block.thisRepN'
p481
I0
sg29
NsS'block.thisN'
p482
I1
sg460
(S'ADD'
S'HALF'
S'x'
S'y'
tp483
sg27
g28
sg462
L2L
sg463
(I2
I7
tp484
sg22
I1
sg20
F1.6997316830020281
sg23
F2.0095050081508816
sVY
L5L
sVX
L4L
sg465
L0L
sg31
g32
sg33
g34
sg21
S'7'
sg19
S'space'
p485
sg30
g11
sg468
L7L
sg469
Vhalf
p486
sg471
L7L
sS'block.thisIndex'
p487
I0
sg473
VADD
p488
sg475
L0L
sg477
VBUxy
p489
sa(dp490
S'block.thisTrialN'
p491
I2
sS'block.thisRepN'
p492
I0
sg29
NsS'block.thisN'
p493
I2
sg460
(S'DIVIDE'
S'TRIPLE'
S'DECREASE'
S'x'
S'y'
tp494
sg27
g28
sg462
L3L
sg463
(I6
I18
I9
tp495
sg22
I1
sg20
F1.697659199264308
sg23
F4.8522426184863434
sVY
L2L
sVX
L7L
sg465
Vdecrease
p496
sg31
g32
sg33
g34
sg21
S'9'
sg19
S'space'
p497
sg30
g11
sg468
L9L
sg469
g474
sg471
L9L
sS'block.thisIndex'
p498
I4
sg473
VDIVIDE
p499
sg475
L0L
sg477
VBUUxy
p500
sa(dp501
S'block.thisTrialN'
p502
I3
sS'block.thisRepN'
p503
I0
sg29
NsS'block.thisN'
p504
I3
sg460
(S'INCREASE'
S'TIMES'
S'TRIPLE'
S'HALF'
S'x'
S'y'
tp505
sg27
g28
sg462
L4L
sg463
(I1
I3
I6
I7
tp506
sg22
I1
sg20
F3.7478145655477419
sg23
F5.1583290783601115
sVY
L2L
sVX
L2L
sg465
g474
sg31
g32
sg33
g34
sg21
S'7'
sg19
S'space'
p507
sg30
g11
sg468
L7L
sg469
VTIMES
p508
sg471
L7L
sS'block.thisIndex'
p509
I13
sg473
g476
sg475
g486
sg477
VUBUUxy
p510
sa(dp511
S'block.thisTrialN'
p512
I4
sS'block.thisRepN'
p513
I0
sg29
NsS'block.thisN'
p514
I4
sg460
(S'DECREASE'
S'THIRD'
S'DOUBLE'
S'ADD'
S'x'
S'y'
tp515
sg27
g28
sg462
L4L
sg463
(I9
I18
I6
I5
tp516
sg22
I1
sg20
F2.7880883629768505
sg23
F3.9910440845560515
sVY
L4L
sVX
L5L
sg465
g470
sg31
g32
sg33
g34
sg21
S'5'
sg19
S'space'
p517
sg30
g11
sg468
L5L
sg469
Vthird
p518
sg471
L5L
sS'block.thisIndex'
p519
I16
sg473
g496
sg475
g488
sg477
VUUUBxy
p520
sa(dp521
S'block.thisTrialN'
p522
I5
sS'block.thisRepN'
p523
I0
sg29
NsS'block.thisN'
p524
I5
sg460
(S'TRIPLE'
S'HALF'
S'ADD'
S'x'
S'y'
tp525
sg27
g28
sg462
L3L
sg463
(I6
I3
I9
tp526
sg22
I1
sg20
F2.5483759769631433
sg23
F3.1262563251584652
sVY
L3L
sVX
L3L
sg465
g488
sg31
g32
sg33
g34
sg21
S'9'
sg19
S'space'
p527
sg30
g11
sg468
L9L
sg469
g486
sg471
L9L
sS'block.thisIndex'
p528
I8
sg473
g474
sg475
L0L
sg477
VUUBxy
p529
sa(dp530
S'block.thisTrialN'
p531
I6
sS'block.thisRepN'
p532
I0
sg29
NsS'block.thisN'
p533
I6
sg460
(S'DIVIDE'
S'DOUBLE'
S'INCREASE'
S'TRIPLE'
S'x'
S'y'
tp534
sg27
g28
sg462
L4L
sg463
(I9
I10
I20
I5
tp535
sg22
I1
sg20
F5.6517068943867343
sg23
F5.1103298370799166
sVY
L4L
sVX
L3L
sg465
g476
sg31
g32
sg33
g34
sg21
S'5'
sg19
S'space'
p536
sg30
g11
sg468
L5L
sg469
g470
sg471
L5L
sS'block.thisIndex'
p537
I10
sg473
g499
sg475
g474
sg477
VBUUUxy
p538
sa(dp539
S'block.thisTrialN'
p540
I7
sS'block.thisRepN'
p541
I0
sg29
NsS'block.thisN'
p542
I7
sg460
(S'HALF'
S'SUBTRACT'
S'DECREASE'
S'TRIPLE'
S'x'
S'y'
tp543
sg27
g28
sg462
L4L
sg463
(I15
I14
I10
I5
tp544
sg22
I1
sg20
F8.4021801324997796
sg23
F3.8143923181632999
sVY
L4L
sVX
L5L
sg465
g496
sg31
g32
sg33
g34
sg21
S'5'
sg19
S'space'
p545
sg30
g11
sg468
L5L
sg469
g466
sg471
L5L
sS'block.thisIndex'
p546
I12
sg473
g486
sg475
g474
sg477
g510
sa(dp547
S'block.thisTrialN'
p548
I8
sS'block.thisRepN'
p549
I0
sg29
NsS'block.thisN'
p550
I8
sg460
(S'TRIPLE'
S'INCREASE'
S'DIVIDE'
S'DOUBLE'
S'x'
S'y'
tp551
sg27
g28
sg462
L4L
sg463
(I16
I2
I3
I9
tp552
sg22
I1
sg20
F6.6128724967566086
sg23
F6.9809259403773467
sVY
L8L
sVX
L8L
sg465
g499
sg31
g32
sg33
g34
sg21
S'9'
sg19
S'space'
p553
sg30
g11
sg468
L9L
sg469
g476
sg471
L9L
sS'block.thisIndex'
p554
I15
sg473
g474
sg475
g470
sg477
g478
sa(dp555
S'block.thisTrialN'
p556
I9
sS'block.thisRepN'
p557
I0
sg29
NsS'block.thisN'
p558
I9
sg460
(S'TIMES'
S'HALF'
S'INCREASE'
S'THIRD'
S'x'
S'y'
tp559
sg27
g28
sg462
L4L
sg463
(I1
I2
I1
I9
tp560
sg22
I1
sg20
F2.5203460018965416
sg23
F4.9784293008997338
sVY
L9L
sVX
L3L
sg465
g476
sg31
g32
sg33
g34
sg21
S'9'
sg19
S'space'
p561
sg30
g11
sg468
L9L
sg469
g486
sg471
L9L
sS'block.thisIndex'
p562
I11
sg473
g508
sg475
g518
sg477
g538
sa(dp563
S'block.thisTrialN'
p564
I10
sS'block.thisRepN'
p565
I0
sg29
NsS'block.thisN'
p566
I10
sg460
(S'SUBTRACT'
S'INCREASE'
S'HALF'
S'x'
S'y'
tp567
sg27
g28
sg462
L3L
sg463
(I4
I5
I3
tp568
sg22
I1
sg20
F7.6992182865724317
sg23
F3.6540019548992859
sVY
L2L
sVX
L8L
sg465
g486
sg31
g32
sg33
g34
sg21
S'3'
sg19
S'space'
p569
sg30
g11
sg468
L3L
sg469
g476
sg471
L3L
sS'block.thisIndex'
p570
I5
sg473
g466
sg475
L0L
sg477
g500
sa(dp571
S'block.thisTrialN'
p572
I11
sS'block.thisRepN'
p573
I0
sg29
NsS'block.thisN'
p574
I11
sg460
(S'INCREASE'
S'DIVIDE'
S'x'
S'y'
tp575
sg27
g28
sg462
L2L
sg463
(I4
I5
tp576
sg22
I1
sg20
F2.8688746329353307
sg23
F2.0517120038493886
sVY
L2L
sVX
L8L
sg465
L0L
sg31
g32
sg33
g34
sg21
S'5'
sg19
S'space'
p577
sg30
g11
sg468
L5L
sg469
g499
sg471
L5L
sS'block.thisIndex'
p578
I3
sg473
g476
sg475
L0L
sg477
VUBxy
p579
sa(dp580
S'block.thisTrialN'
p581
I12
sS'block.thisRepN'
p582
I0
sg29
NsS'block.thisN'
p583
I12
sg460
(S'SUBTRACT'
S'TRIPLE'
S'x'
S'y'
tp584
sg27
g28
sg462
L2L
sg463
(I12
I9
tp585
sg22
I1
sg20
F1.1108260852925014
sg23
F2.7884152288679616
sVY
L3L
sVX
L4L
sg465
L0L
sg31
g32
sg33
g34
sg21
S'9'
sg19
S'space'
p586
sg30
g11
sg468
L9L
sg469
g474
sg471
L9L
sS'block.thisIndex'
p587
I1
sg473
g466
sg475
L0L
sg477
g489
sa(dp588
S'block.thisTrialN'
p589
I13
sS'block.thisRepN'
p590
I0
sg29
NsS'block.thisN'
p591
I13
sg460
(S'THIRD'
S'INCREASE'
S'HALF'
S'TIMES'
S'x'
S'y'
tp592
sg27
g28
sg462
L4L
sg463
(I28
I14
I15
I5
tp593
sg22
I1
sg20
F2.0543094328095322
sg23
F8.8394892493015504
sVY
L4L
sVX
L7L
sg465
g486
sg31
g32
sg33
g34
sg21
S'5'
sg19
S'space'
p594
sg30
g11
sg468
L5L
sg469
g476
sg471
L5L
sS'block.thisIndex'
p595
I17
sg473
g518
sg475
g508
sg477
g520
sa(dp596
S'block.thisTrialN'
p597
I14
sS'block.thisRepN'
p598
I0
sg29
NsS'block.thisN'
p599
I14
sg460
(S'HALF'
S'TIMES'
S'DECREASE'
S'x'
S'y'
tp600
sg27
g28
sg462
L3L
sg463
(I8
I16
I8
tp601
sg22
I1
sg20
F1.3006210801904672
sg23
F2.9351461674959864
sVY
L2L
sVX
L9L
sg465
g496
sg31
g32
sg33
g34
sg21
S'8'
sg19
S'space'
p602
sg30
g11
sg468
L8L
sg469
g508
sg471
L8L
sS'block.thisIndex'
p603
I6
sg473
g486
sg475
L0L
sg477
VUBUxy
p604
sa(dp605
S'block.thisTrialN'
p606
I15
sS'block.thisRepN'
p607
I0
sg29
NsS'block.thisN'
p608
I15
sg460
(S'INCREASE'
S'DIVIDE'
S'TRIPLE'
S'x'
S'y'
tp609
sg27
g28
sg462
L3L
sg463
(I6
I2
I3
tp610
sg22
I1
sg20
F2.7431411532161292
sg23
F3.4893980313136126
sVY
L3L
sVX
L2L
sg465
g474
sg31
g32
sg33
g34
sg21
S'3'
sg19
S'space'
p611
sg30
g11
sg468
L3L
sg469
g499
sg471
L3L
sS'block.thisIndex'
p612
I7
sg473
g476
sg475
L0L
sg477
g604
sa(dp613
S'block.thisTrialN'
p614
I16
sS'block.thisRepN'
p615
I0
sg29
NsS'block.thisN'
p616
I16
sg460
(S'DOUBLE'
S'DIVIDE'
S'x'
S'y'
tp617
sg27
g28
sg462
L2L
sg463
(I1
I2
tp618
sg22
I1
sg20
F1.3341038362632389
sg23
F1.6373804393515456
sVY
L8L
sVX
L8L
sg465
L0L
sg31
g32
sg33
g34
sg21
S'2'
sg19
S'space'
p619
sg30
g11
sg468
L2L
sg469
g499
sg471
L2L
sS'block.thisIndex'
p620
I2
sg473
g470
sg475
L0L
sg477
g579
sa(dp621
S'block.thisTrialN'
p622
I17
sS'block.thisRepN'
p623
I0
sg29
NsS'block.thisN'
p624
I17
sg460
(S'TRIPLE'
S'INCREASE'
S'SUBTRACT'
S'x'
S'y'
tp625
sg27
g28
sg462
L3L
sg463
(I1
I2
I6
tp626
sg22
I1
sg20
F3.877188365389884
sg23
F3.159947309497511
sVY
L2L
sVX
L3L
sg465
g466
sg31
g32
sg33
g34
sg21
S'6'
sg19
S'space'
p627
sg30
g11
sg468
L6L
sg469
g476
sg471
L6L
sS'block.thisIndex'
p628
I9
sg473
g474
sg475
L0L
sg477
g529
sa(dp629
S'block.thisTrialN'
p630
I0
sS'block.thisRepN'
p631
I0
sg29
NsS'block.thisN'
p632
I0
sVRule
p633
(S'INCREASE'
S'DIVIDE'
S'TRIPLE'
S'HALF'
S'x'
S'y'
tp634
sg27
g28
sVLength
p635
L4L
sVIntermediate
p636
(I2
I6
I2
I3
tp637
sg22
I1
sg20
F4.6669558531575603
sg23
F4.0369974393179291
sVY
L3L
sVX
L4L
sVOperatorc
p638
Vtriple
p639
sg31
g32
sg33
g34
sg21
S'3'
sg19
S'space'
p640
sg30
g11
sVResult
p641
L3L
sVOperatora
p642
VDIVIDE
p643
sVCorrectResponse
p644
L3L
sS'block.thisIndex'
p645
I12
sVOperatorb
p646
Vincrease
p647
sVOperatord
p648
Vhalf
p649
sVStructure
p650
VUBUUxy
p651
sa(dp652
S'block.thisTrialN'
p653
I1
sS'block.thisRepN'
p654
I0
sg29
NsS'block.thisN'
p655
I1
sg633
(S'DOUBLE'
S'TIMES'
S'x'
S'y'
tp656
sg27
g28
sg635
L2L
sg636
(I4
I8
tp657
sg22
I1
sg20
F1.0112527257733746
sg23
F1.4921693921278347
sVY
L2L
sVX
L2L
sg638
L0L
sg31
g32
sg33
g34
sg21
S'8'
sg19
S'space'
p658
sg30
g11
sg641
L8L
sg642
VTIMES
p659
sg644
L8L
sS'block.thisIndex'
p660
I3
sg646
Vdouble
p661
sg648
L0L
sg650
VUBxy
p662
sa(dp663
S'block.thisTrialN'
p664
I2
sS'block.thisRepN'
p665
I0
sg29
NsS'block.thisN'
p666
I2
sg633
(S'DECREASE'
S'TRIPLE'
S'HALF'
S'ADD'
S'x'
S'y'
tp667
sg27
g28
sg635
L4L
sg636
(I6
I3
I9
I8
tp668
sg22
I1
sg20
F3.2366428563182126
sg23
F3.2075794390839292
sVY
L2L
sVX
L4L
sg638
g649
sg31
g32
sg33
g34
sg21
S'8'
sg19
S'space'
p669
sg30
g11
sg641
L8L
sg642
g639
sg644
L8L
sS'block.thisIndex'
p670
I16
sg646
Vdecrease
p671
sg648
VADD
p672
sg650
VUUUBxy
p673
sa(dp674
S'block.thisTrialN'
p675
I3
sS'block.thisRepN'
p676
I0
sg29
NsS'block.thisN'
p677
I3
sg633
(S'TIMES'
S'THIRD'
S'DOUBLE'
S'x'
S'y'
tp678
sg27
g28
sg635
L3L
sg636
(I6
I2
I4
tp679
sg22
I1
sg20
F1.011139337606437
sg23
F4.9490005217958242
sVY
L2L
sVX
L3L
sg638
g661
sg31
g32
sg33
g34
sg21
S'4'
sg19
S'space'
p680
sg30
g11
sg641
L4L
sg642
Vthird
p681
sg644
L4L
sS'block.thisIndex'
p682
I5
sg646
g659
sg648
L0L
sg650
VBUUxy
p683
sa(dp684
S'block.thisTrialN'
p685
I4
sS'block.thisRepN'
p686
I0
sg29
NsS'block.thisN'
p687
I4
sg633
(S'ADD'
S'THIRD'
S'x'
S'y'
tp688
sg27
g28
sg635
L2L
sg636
(I1
I7
tp689
sg22
I1
sg20
F0.86817400604195427
sg23
F2.4064920325545245
sVY
L6L
sVX
L3L
sg638
L0L
sg31
g32
sg33
g34
sg21
S'7'
sg19
S'space'
p690
sg30
g11
sg641
L7L
sg642
g681
sg644
L7L
sS'block.thisIndex'
p691
I0
sg646
g672
sg648
L0L
sg650
VBUxy
p692
sa(dp693
S'block.thisTrialN'
p694
I5
sS'block.thisRepN'
p695
I0
sg29
NsS'block.thisN'
p696
I5
sg633
(S'DOUBLE'
S'ADD'
S'x'
S'y'
tp697
sg27
g28
sg635
L2L
sg636
(I4
I8
tp698
sg22
I1
sg20
F1.1561792526990757
sg23
F2.3863439350097906
sVY
L2L
sVX
L2L
sg638
L0L
sg31
g32
sg33
g34
sg21
S'8'
sg19
S'space'
p699
sg30
g11
sg641
L8L
sg642
g672
sg644
L8L
sS'block.thisIndex'
p700
I2
sg646
g661
sg648
L0L
sg650
g662
sa(dp701
S'block.thisTrialN'
p702
I6
sS'block.thisRepN'
p703
I0
sg29
NsS'block.thisN'
p704
I6
sg633
(S'THIRD'
S'INCREASE'
S'ADD'
S'DOUBLE'
S'x'
S'y'
tp705
sg27
g28
sg635
L4L
sg636
(I16
I20
I21
I7
tp706
sg22
I1
sg20
F1.9240677235356998
sg23
F4.7572586800597492
sVY
L4L
sVX
L8L
sg638
g672
sg31
g32
sg33
g34
sg21
S'7'
sg19
S'space'
p707
sg30
g11
sg641
L7L
sg642
g647
sg644
L7L
sS'block.thisIndex'
p708
I14
sg646
g681
sg648
g661
sg650
VUUBUxy
p709
sa(dp710
S'block.thisTrialN'
p711
I7
sS'block.thisRepN'
p712
I0
sg29
NsS'block.thisN'
p713
I7
sg633
(S'THIRD'
S'TIMES'
S'HALF'
S'INCREASE'
S'x'
S'y'
tp714
sg27
g28
sg635
L4L
sg636
(I8
I4
I12
I4
tp715
sg22
I1
sg20
F4.9661046369801625
sg23
F8.5671791648564977
sVY
L3L
sVX
L7L
sg638
g649
sg31
g32
sg33
g34
sg21
S'4'
sg19
S'space'
p716
sg30
g11
sg641
L4L
sg642
g659
sg644
L4L
sS'block.thisIndex'
p717
I13
sg646
g681
sg648
g647
sg650
g651
sa(dp718
S'block.thisTrialN'
p719
I8
sS'block.thisRepN'
p720
I0
sg29
NsS'block.thisN'
p721
I8
sg633
(S'DIVIDE'
S'DOUBLE'
S'INCREASE'
S'THIRD'
S'x'
S'y'
tp722
sg27
g28
sg635
L4L
sg636
(I2
I3
I6
I2
tp723
sg22
I1
sg20
F3.5363470321899513
sg23
F3.97403270968789
sVY
L3L
sVX
L6L
sg638
g647
sg31
g32
sg33
g34
sg21
S'2'
sg19
S'space'
p724
sg30
g11
sg641
L2L
sg642
g661
sg644
L2L
sS'block.thisIndex'
p725
I10
sg646
g643
sg648
g681
sg650
VBUUUxy
p726
sa(dp727
S'block.thisTrialN'
p728
I9
sS'block.thisRepN'
p729
I0
sg29
NsS'block.thisN'
p730
I9
sg633
(S'TIMES'
S'INCREASE'
S'HALF'
S'TRIPLE'
S'x'
S'y'
tp731
sg27
g28
sg635
L4L
sg636
(I6
I3
I4
I8
tp732
sg22
I1
sg20
F7.2521056427794974
sg23
F5.1073785950429738
sVY
L2L
sVX
L2L
sg638
g649
sg31
g32
sg33
g34
sg21
S'8'
sg19
S'space'
p733
sg30
g11
sg641
L8L
sg642
g647
sg644
L8L
sS'block.thisIndex'
p734
I11
sg646
g659
sg648
g639
sg650
g726
sa(dp735
S'block.thisTrialN'
p736
I10
sS'block.thisRepN'
p737
I0
sg29
NsS'block.thisN'
p738
I10
sg633
(S'INCREASE'
S'ADD'
S'TRIPLE'
S'x'
S'y'
tp739
sg27
g28
sg635
L3L
sg636
(I6
I8
I9
tp740
sg22
I1
sg20
F2.0390629237881512
sg23
F3.1586709926777985
sVY
L2L
sVX
L2L
sg638
g639
sg31
g32
sg33
g34
sg21
S'9'
sg19
S'space'
p741
sg30
g11
sg641
L9L
sg642
g672
sg644
L9L
sS'block.thisIndex'
p742
I6
sg646
g647
sg648
L0L
sg650
VUBUxy
p743
sa(dp744
S'block.thisTrialN'
p745
I11
sS'block.thisRepN'
p746
I0
sg29
NsS'block.thisN'
p747
I11
sg633
(S'DECREASE'
S'TRIPLE'
S'DIVIDE'
S'x'
S'y'
tp748
sg27
g28
sg635
L3L
sg636
(I2
I6
I5
tp749
sg22
I1
sg20
F2.3901998326473404
sg23
F4.5623976138085709
sVY
L4L
sVX
L8L
sg638
g643
sg31
g32
sg33
g34
sg21
S'5'
sg19
S'space'
p750
sg30
g11
sg641
L5L
sg642
g639
sg644
L5L
sS'block.thisIndex'
p751
I8
sg646
g671
sg648
L0L
sg650
VUUBxy
p752
sa(dp753
S'block.thisTrialN'
p754
I12
sS'block.thisRepN'
p755
I0
sg29
NsS'block.thisN'
p756
I12
sg633
(S'INCREASE'
S'SUBTRACT'
S'THIRD'
S'x'
S'y'
tp757
sg27
g28
sg635
L3L
sg636
(I3
I1
I2
tp758
sg22
I1
sg20
F3.3125978804091574
sg23
F3.8338268401712412
sVY
L2L
sVX
L9L
sg638
g681
sg31
g32
sg33
g34
sg21
S'2'
sg19
S'space'
p759
sg30
g11
sg641
L2L
sg642
VSUBTRACT
p760
sg644
L2L
sS'block.thisIndex'
p761
I7
sg646
g647
sg648
L0L
sg650
g743
sa(dp762
S'block.thisTrialN'
p763
I13
sS'block.thisRepN'
p764
I0
sg29
NsS'block.thisN'
p765
I13
sg633
(S'SUBTRACT'
S'INCREASE'
S'x'
S'y'
tp766
sg27
g28
sg635
L2L
sg636
(I6
I2
tp767
sg22
I1
sg20
F2.7395519277561107
sg23
F1.942785870298394
sVY
L4L
sVX
L5L
sg638
L0L
sg31
g32
sg33
g34
sg21
S'2'
sg19
S'space'
p768
sg30
g11
sg641
L2L
sg642
g647
sg644
L2L
sS'block.thisIndex'
p769
I1
sg646
g760
sg648
L0L
sg650
g692
sa(dp770
S'block.thisTrialN'
p771
I14
sS'block.thisRepN'
p772
I0
sg29
NsS'block.thisN'
p773
I14
sg633
(S'TRIPLE'
S'DOUBLE'
S'SUBTRACT'
S'DECREASE'
S'x'
S'y'
tp774
sg27
g28
sg635
L4L
sg636
(I4
I1
I2
I6
tp775
sg22
I1
sg20
F3.6649883584614145
sg23
F4.6935002332538716
sVY
L3L
sVX
L5L
sg638
g760
sg31
g32
sg33
g34
sg21
S'6'
sg19
S'space'
p776
sg30
g11
sg641
L6L
sg642
g661
sg644
L6L
sS'block.thisIndex'
p777
I15
sg646
g639
sg648
g671
sg650
g709
sa(dp778
S'block.thisTrialN'
p779
I15
sS'block.thisRepN'
p780
I0
sg29
NsS'block.thisN'
p781
I15
sg633
(S'THIRD'
S'INCREASE'
S'SUBTRACT'
S'x'
S'y'
tp782
sg27
g28
sg635
L3L
sg636
(I2
I3
I1
tp783
sg22
I1
sg20
F2.8881390726892278
sg23
F2.6582533112668898
sVY
L6L
sVX
L8L
sg638
g760
sg31
g32
sg33
g34
sg21
S'1'
sg19
S'space'
p784
sg30
g11
sg641
L1L
sg642
g647
sg644
L1L
sS'block.thisIndex'
p785
I9
sg646
g681
sg648
L0L
sg650
g752
sa(dp786
S'block.thisTrialN'
p787
I16
sS'block.thisRepN'
p788
I0
sg29
NsS'block.thisN'
p789
I16
sg633
(S'DIVIDE'
S'TRIPLE'
S'HALF'
S'x'
S'y'
tp790
sg27
g28
sg635
L3L
sg636
(I4
I12
I4
tp791
sg22
I1
sg20
F6.4041346785452333
sg23
F5.4783885301585542
sVY
L3L
sVX
L8L
sg638
g649
sg31
g32
sg33
g34
sg21
S'4'
sg19
S'space'
p792
sg30
g11
sg641
L4L
sg642
g639
sg644
L4L
sS'block.thisIndex'
p793
I4
sg646
g643
sg648
L0L
sg650
g683
sa(dp794
S'block.thisTrialN'
p795
I17
sS'block.thisRepN'
p796
I0
sg29
NsS'block.thisN'
p797
I17
sg633
(S'TRIPLE'
S'DECREASE'
S'HALF'
S'SUBTRACT'
S'x'
S'y'
tp798
sg27
g28
sg635
L4L
sg636
(I4
I2
I1
I3
tp799
sg22
I0
sg20
F4.7719078014197294
sg23
F12.96064730645594
sVY
L5L
sVX
L9L
sg638
g649
sg31
g32
sg33
g34
sg21
S'2'
sg19
S'space'
p800
sg30
g11
sg641
L3L
sg642
g671
sg644
L3L
sS'block.thisIndex'
p801
I17
sg646
g639
sg648
g760
sg650
g673
sa(dp802
S'block.thisTrialN'
p803
I0
sS'block.thisRepN'
p804
I0
sg29
NsS'block.thisN'
p805
I0
sVRule
p806
(S'TIMES'
S'INCREASE'
S'x'
S'y'
tp807
sg27
g28
sVLength
p808
L2L
sVIntermediate
p809
(I3
I6
tp810
sg22
I1
sg20
F1.3571272337721894
sg23
F1.493715180818981
sVY
L2L
sVX
L2L
sVOperatorc
p811
L0L
sg31
g32
sg33
g34
sg21
S'6'
sg19
S'space'
p812
sg30
g11
sVResult
p813
L6L
sVOperatora
p814
Vincrease
p815
sVCorrectResponse
p816
L6L
sS'block.thisIndex'
p817
I1
sVOperatorb
p818
VTIMES
p819
sVOperatord
p820
L0L
sVStructure
p821
VBUxy
p822
sa(dp823
S'block.thisTrialN'
p824
I1
sS'block.thisRepN'
p825
I0
sg29
NsS'block.thisN'
p826
I1
sg806
(S'TIMES'
S'DECREASE'
S'x'
S'y'
tp827
sg27
g28
sg808
L2L
sg809
(I2
I4
tp828
sg22
I1
sg20
F1.3489331888195011
sg23
F1.6825040307012387
sVY
L2L
sVX
L3L
sg811
L0L
sg31
g32
sg33
g34
sg21
S'4'
sg19
S'space'
p829
sg30
g11
sg813
L4L
sg814
Vdecrease
p830
sg816
L4L
sS'block.thisIndex'
p831
I0
sg818
g819
sg820
L0L
sg821
g822
sa(dp832
S'block.thisTrialN'
p833
I2
sS'block.thisRepN'
p834
I0
sg29
NsS'block.thisN'
p835
I2
sg806
(S'TIMES'
S'DECREASE'
S'HALF'
S'x'
S'y'
tp836
sg27
g28
sg808
L3L
sg809
(I4
I3
I9
tp837
sg22
I1
sg20
F2.6779776030380162
sg23
F2.2286601893065381
sVY
L3L
sVX
L8L
sg811
Vhalf
p838
sg31
g32
sg33
g34
sg21
S'9'
sg19
S'space'
p839
sg30
g11
sg813
L9L
sg814
g830
sg816
L9L
sS'block.thisIndex'
p840
I4
sg818
g819
sg820
L0L
sg821
VBUUxy
p841
sa(dp842
S'block.thisTrialN'
p843
I3
sS'block.thisRepN'
p844
I0
sg29
NsS'block.thisN'
p845
I3
sg806
(S'THIRD'
S'DOUBLE'
S'ADD'
S'INCREASE'
S'x'
S'y'
tp846
sg27
g28
sg808
L4L
sg809
(I10
I12
I24
I8
tp847
sg22
I1
sg20
F1.9235011326600215
sg23
F8.8850772421865258
sVY
L2L
sVX
L9L
sg811
VADD
p848
sg31
g32
sg33
g34
sg21
S'8'
sg19
S'space'
p849
sg30
g11
sg813
L8L
sg814
Vdouble
p850
sg816
L8L
sS'block.thisIndex'
p851
I14
sg818
Vthird
p852
sg820
g815
sg821
VUUBUxy
p853
sa(dp854
S'block.thisTrialN'
p855
I4
sS'block.thisRepN'
p856
I0
sg29
NsS'block.thisN'
p857
I4
sg806
(S'THIRD'
S'DECREASE'
S'TIMES'
S'x'
S'y'
tp858
sg27
g28
sg808
L3L
sg809
(I25
I24
I8
tp859
sg22
I1
sg20
F2.9971554968215059
sg23
F3.113796925295901
sVY
L5L
sVX
L5L
sg811
g819
sg31
g32
sg33
g34
sg21
S'8'
sg19
S'space'
p860
sg30
g11
sg813
L8L
sg814
g830
sg816
L8L
sS'block.thisIndex'
p861
I8
sg818
g852
sg820
L0L
sg821
VUUBxy
p862
sa(dp863
S'block.thisTrialN'
p864
I5
sS'block.thisRepN'
p865
I0
sg29
NsS'block.thisN'
p866
I5
sg806
(S'TRIPLE'
S'DECREASE'
S'HALF'
S'TIMES'
S'x'
S'y'
tp867
sg27
g28
sg808
L4L
sg809
(I6
I3
I2
I6
tp868
sg22
I1
sg20
F1.6342083703566459
sg23
F5.2516300424031215
sVY
L2L
sVX
L3L
sg811
g838
sg31
g32
sg33
g34
sg21
S'6'
sg19
S'space'
p869
sg30
g11
sg813
L6L
sg814
g830
sg816
L6L
sS'block.thisIndex'
p870
I17
sg818
Vtriple
p871
sg820
g819
sg821
VUUUBxy
p872
sa(dp873
S'block.thisTrialN'
p874
I6
sS'block.thisRepN'
p875
I0
sg29
NsS'block.thisN'
p876
I6
sg806
(S'INCREASE'
S'DIVIDE'
S'TRIPLE'
S'DOUBLE'
S'x'
S'y'
tp877
sg27
g28
sg808
L4L
sg809
(I6
I18
I3
I4
tp878
sg22
I1
sg20
F2.1807365401473362
sg23
F3.6229542447254062
sVY
L6L
sVX
L3L
sg811
g871
sg31
g32
sg33
g34
sg21
S'4'
sg19
S'space'
p879
sg30
g11
sg813
L4L
sg814
VDIVIDE
p880
sg816
L4L
sS'block.thisIndex'
p881
I12
sg818
g815
sg820
g850
sg821
VUBUUxy
p882
sa(dp883
S'block.thisTrialN'
p884
I7
sS'block.thisRepN'
p885
I0
sg29
NsS'block.thisN'
p886
I7
sg806
(S'TRIPLE'
S'SUBTRACT'
S'DOUBLE'
S'DECREASE'
S'x'
S'y'
tp887
sg27
g28
sg808
L4L
sg809
(I2
I4
I1
I3
tp888
sg22
I1
sg20
F10.868402882158989
sg23
F4.3546886882395484
sVY
L3L
sVX
L3L
sg811
g850
sg31
g32
sg33
g34
sg21
S'3'
sg19
S'space'
p889
sg30
g11
sg813
L3L
sg814
VSUBTRACT
p890
sg816
L3L
sS'block.thisIndex'
p891
I13
sg818
g871
sg820
g830
sg821
g882
sa(dp892
S'block.thisTrialN'
p893
I8
sS'block.thisRepN'
p894
I0
sg29
NsS'block.thisN'
p895
I8
sg806
(S'TIMES'
S'THIRD'
S'HALF'
S'x'
S'y'
tp896
sg27
g28
sg808
L3L
sg809
(I3
I1
I5
tp897
sg22
I1
sg20
F1.7659020781211439
sg23
F4.3464333996744244
sVY
L5L
sVX
L6L
sg811
g838
sg31
g32
sg33
g34
sg21
S'5'
sg19
S'space'
p898
sg30
g11
sg813
L5L
sg814
g852
sg816
L5L
sS'block.thisIndex'
p899
I5
sg818
g819
sg820
L0L
sg821
g841
sa(dp900
S'block.thisTrialN'
p901
I9
sS'block.thisRepN'
p902
I0
sg29
NsS'block.thisN'
p903
I9
sg806
(S'THIRD'
S'INCREASE'
S'HALF'
S'DIVIDE'
S'x'
S'y'
tp904
sg27
g28
sg808
L4L
sg809
(I4
I2
I3
I1
tp905
sg22
I1
sg20
F9.1371786854069796
sg23
F3.8298967502705636
sVY
L2L
sVX
L8L
sg811
g838
sg31
g32
sg33
g34
sg21
S'1'
sg19
S'space'
p906
sg30
g11
sg813
L1L
sg814
g815
sg816
L1L
sS'block.thisIndex'
p907
I16
sg818
g852
sg820
g880
sg821
g872
sa(dp908
S'block.thisTrialN'
p909
I10
sS'block.thisRepN'
p910
I0
sg29
NsS'block.thisN'
p911
I10
sg806
(S'TRIPLE'
S'HALF'
S'ADD'
S'DECREASE'
S'x'
S'y'
tp912
sg27
g28
sg808
L4L
sg809
(I1
I4
I2
I6
tp913
sg22
I1
sg20
F7.1768466960420483
sg23
F3.6687942113276222
sVY
L3L
sVX
L2L
sg811
g848
sg31
g32
sg33
g34
sg21
S'6'
sg19
S'space'
p914
sg30
g11
sg813
L6L
sg814
g838
sg816
L6L
sS'block.thisIndex'
p915
I15
sg818
g871
sg820
g830
sg821
g853
sa(dp916
S'block.thisTrialN'
p917
I11
sS'block.thisRepN'
p918
I0
sg29
NsS'block.thisN'
p919
I11
sg806
(S'SUBTRACT'
S'HALF'
S'INCREASE'
S'TRIPLE'
S'x'
S'y'
tp920
sg27
g28
sg808
L4L
sg809
(I15
I16
I8
I3
tp921
sg22
I1
sg20
F4.018295740839676
sg23
F3.6030136755216517
sVY
L5L
sVX
L5L
sg811
g815
sg31
g32
sg33
g34
sg21
S'3'
sg19
S'space'
p922
sg30
g11
sg813
L3L
sg814
g838
sg816
L3L
sS'block.thisIndex'
p923
I10
sg818
g890
sg820
g871
sg821
VBUUUxy
p924
sa(dp925
S'block.thisTrialN'
p926
I12
sS'block.thisRepN'
p927
I0
sg29
NsS'block.thisN'
p928
I12
sg806
(S'THIRD'
S'ADD'
S'x'
S'y'
tp929
sg27
g28
sg808
L2L
sg809
(I9
I3
tp930
sg22
I1
sg20
F0.98385443479492096
sg23
F1.525008565360622
sVY
L5L
sVX
L4L
sg811
L0L
sg31
g32
sg33
g34
sg21
S'3'
sg19
S'space'
p931
sg30
g11
sg813
L3L
sg814
g848
sg816
L3L
sS'block.thisIndex'
p932
I2
sg818
g852
sg820
L0L
sg821
VUBxy
p933
sa(dp934
S'block.thisTrialN'
p935
I13
sS'block.thisRepN'
p936
I0
sg29
NsS'block.thisN'
p937
I13
sg806
(S'THIRD'
S'SUBTRACT'
S'x'
S'y'
tp938
sg27
g28
sg808
L2L
sg809
(I3
I1
tp939
sg22
I1
sg20
F2.8665228783429484
sg23
F1.6373314444645075
sVY
L2L
sVX
L5L
sg811
L0L
sg31
g32
sg33
g34
sg21
S'1'
sg19
S'space'
p940
sg30
g11
sg813
L1L
sg814
g890
sg816
L1L
sS'block.thisIndex'
p941
I3
sg818
g852
sg820
L0L
sg821
g933
sa(dp942
S'block.thisTrialN'
p943
I14
sS'block.thisRepN'
p944
I0
sg29
NsS'block.thisN'
p945
I14
sg806
(S'THIRD'
S'ADD'
S'INCREASE'
S'x'
S'y'
tp946
sg27
g28
sg808
L3L
sg809
(I8
I15
I5
tp947
sg22
I1
sg20
F6.4248539164982503
sg23
F2.5961088960393681
sVY
L7L
sVX
L7L
sg811
g815
sg31
g32
sg33
g34
sg21
S'5'
sg19
S'space'
p948
sg30
g11
sg813
L5L
sg814
g848
sg816
L5L
sS'block.thisIndex'
p949
I6
sg818
g852
sg820
L0L
sg821
VUBUxy
p950
sa(dp951
S'block.thisTrialN'
p952
I15
sS'block.thisRepN'
p953
I0
sg29
NsS'block.thisN'
p954
I15
sg806
(S'TRIPLE'
S'HALF'
S'DIVIDE'
S'x'
S'y'
tp955
sg27
g28
sg808
L3L
sg809
(I2
I1
I3
tp956
sg22
I1
sg20
F1.3814398967442685
sg23
F2.6926263744389871
sVY
L2L
sVX
L4L
sg811
g880
sg31
g32
sg33
g34
sg21
S'3'
sg19
S'space'
p957
sg30
g11
sg813
L3L
sg814
g838
sg816
L3L
sS'block.thisIndex'
p958
I9
sg818
g871
sg820
L0L
sg821
g862
sa(dp959
S'block.thisTrialN'
p960
I16
sS'block.thisRepN'
p961
I0
sg29
NsS'block.thisN'
p962
I16
sg806
(S'TIMES'
S'INCREASE'
S'THIRD'
S'DOUBLE'
S'x'
S'y'
tp963
sg27
g28
sg808
L4L
sg809
(I6
I2
I3
I9
tp964
sg22
I0
sg20
F1.8437003598737647
sVY
L3L
sVX
L3L
sg811
g852
sg31
g32
sg33
g34
sg21
Nsg19
S'space'
p965
sg30
g11
sg813
L9L
sg814
g815
sg816
L9L
sS'block.thisIndex'
p966
I11
sg818
g819
sg820
g850
sg821
g924
sa(dp967
S'block.thisTrialN'
p968
I17
sS'block.thisRepN'
p969
I0
sg29
NsS'block.thisN'
p970
I17
sg806
(S'THIRD'
S'TIMES'
S'DECREASE'
S'x'
S'y'
tp971
sg27
g28
sg808
L3L
sg809
(I3
I15
I5
tp972
sg22
I1
sg20
F1.8679570286840317
sg23
F3.0925548419036204
sVY
L5L
sVX
L4L
sg811
g830
sg31
g32
sg33
g34
sg21
S'5'
sg19
S'space'
p973
sg30
g11
sg813
L5L
sg814
g819
sg816
L5L
sS'block.thisIndex'
p974
I7
sg818
g852
sg820
L0L
sg821
g950
sa(dp975
S'block.thisTrialN'
p976
I0
sS'block.thisRepN'
p977
I0
sg29
NsS'block.thisN'
p978
I0
sVRule
p979
(S'DOUBLE'
S'SUBTRACT'
S'x'
S'y'
tp980
sg27
g28
sVLength
p981
L2L
sVIntermediate
p982
(I1
I2
tp983
sg22
I1
sg20
F1.6488168959549512
sg23
F4.4535929175835918
sVY
L7L
sVX
L8L
sVOperatorc
p984
L0L
sg31
g32
sg33
g34
sg21
S'2'
sg19
S'space'
p985
sg30
g11
sVResult
p986
L2L
sVOperatora
p987
VSUBTRACT
p988
sVCorrectResponse
p989
L2L
sS'block.thisIndex'
p990
I2
sVOperatorb
p991
Vdouble
p992
sVOperatord
p993
L0L
sVStructure
p994
VUBxy
p995
sa(dp996
S'block.thisTrialN'
p997
I1
sS'block.thisRepN'
p998
I0
sg29
NsS'block.thisN'
p999
I1
sg979
(S'DECREASE'
S'ADD'
S'DOUBLE'
S'THIRD'
S'x'
S'y'
tp1000
sg27
g28
sg981
L4L
sg982
(I3
I6
I10
I9
tp1001
sg22
I1
sg20
F6.5950985514646163
sg23
F10.021362120867707
sVY
L4L
sVX
L9L
sg984
g992
sg31
g32
sg33
g34
sg21
S'9'
sg19
S'space'
p1002
sg30
g11
sg986
L9L
sg987
VADD
p1003
sg989
L9L
sS'block.thisIndex'
p1004
I12
sg991
Vdecrease 
p1005
sg993
Vthird
p1006
sg994
VUBUUxy
p1007
sa(dp1008
S'block.thisTrialN'
p1009
I2
sS'block.thisRepN'
p1010
I0
sg29
NsS'block.thisN'
p1011
I2
sg979
(S'DIVIDE'
S'DOUBLE'
S'x'
S'y'
tp1012
sg27
g28
sg981
L2L
sg982
(I12
I2
tp1013
sg22
I1
sg20
F1.4780032203634619
sg23
F2.2759598535849364
sVY
L6L
sVX
L6L
sg984
L0L
sg31
g32
sg33
g34
sg21
S'2'
sg19
S'space'
p1014
sg30
g11
sg986
L2L
sg987
g992
sg989
L2L
sS'block.thisIndex'
p1015
I1
sg991
VDIVIDE
p1016
sg993
L0L
sg994
VBUxy
p1017
sa(dp1018
S'block.thisTrialN'
p1019
I3
sS'block.thisRepN'
p1020
I0
sg29
NsS'block.thisN'
p1021
I3
sg979
(S'DOUBLE'
S'TRIPLE'
S'SUBTRACT'
S'x'
S'y'
tp1022
sg27
g28
sg981
L3L
sg982
(I1
I3
I6
tp1023
sg22
I1
sg20
F4.0826708232998499
sg23
F4.0038877443148522
sVY
L3L
sVX
L4L
sg984
g988
sg31
g32
sg33
g34
sg21
S'6'
sg19
S'space'
p1024
sg30
g11
sg986
L6L
sg987
Vtriple
p1025
sg989
L6L
sS'block.thisIndex'
p1026
I9
sg991
g992
sg993
L0L
sg994
VUUBxy
p1027
sa(dp1028
S'block.thisTrialN'
p1029
I4
sS'block.thisRepN'
p1030
I0
sg29
NsS'block.thisN'
p1031
I4
sg979
(S'DOUBLE'
S'TRIPLE'
S'DIVIDE'
S'DECREASE'
S'x'
S'y'
tp1032
sg27
g28
sg981
L4L
sg982
(I8
I1
I3
I6
tp1033
sg22
I1
sg20
F2.0238563105885987
sg23
F2.3082467844506027
sVY
L8L
sVX
L9L
sg984
g1016
sg31
g32
sg33
g34
sg21
S'6'
sg19
S'space'
p1034
sg30
g11
sg986
L6L
sg987
g1025
sg989
L6L
sS'block.thisIndex'
p1035
I15
sg991
g992
sg993
Vdecrease
p1036
sg994
VUUBUxy
p1037
sa(dp1038
S'block.thisTrialN'
p1039
I5
sS'block.thisRepN'
p1040
I0
sg29
NsS'block.thisN'
p1041
I5
sg979
(S'DOUBLE'
S'DECREASE'
S'TRIPLE'
S'DIVIDE'
S'x'
S'y'
tp1042
sg27
g28
sg981
L4L
sg982
(I1
I3
I2
I4
tp1043
sg22
I1
sg20
F3.1405054382557864
sg23
F3.9102595644144458
sVY
L4L
sVX
L4L
sg984
g1025
sg31
g32
sg33
g34
sg21
S'4'
sg19
S'space'
p1044
sg30
g11
sg986
L4L
sg987
g1036
sg989
L4L
sS'block.thisIndex'
p1045
I17
sg991
g992
sg993
g1016
sg994
VUUUBxy
p1046
sa(dp1047
S'block.thisTrialN'
p1048
I6
sS'block.thisRepN'
p1049
I0
sg29
NsS'block.thisN'
p1050
I6
sg979
(S'ADD'
S'THIRD'
S'INCREASE'
S'HALF'
S'x'
S'y'
tp1051
sg27
g28
sg981
L4L
sg982
(I2
I3
I1
I7
tp1052
sg22
I1
sg20
F4.9300461496823118
sg23
F4.1676895515920478
sVY
L6L
sVX
L4L
sg984
Vincrease
p1053
sg31
g32
sg33
g34
sg21
S'7'
sg19
S'space'
p1054
sg30
g11
sg986
L7L
sg987
g1006
sg989
L7L
sS'block.thisIndex'
p1055
I10
sg991
g1003
sg993
Vhalf
p1056
sg994
VBUUUxy
p1057
sa(dp1058
S'block.thisTrialN'
p1059
I7
sS'block.thisRepN'
p1060
I0
sg29
NsS'block.thisN'
p1061
I7
sg979
(S'DECREASE'
S'TIMES'
S'DOUBLE'
S'THIRD'
S'x'
S'y'
tp1062
sg27
g28
sg981
L4L
sg982
(I1
I2
I8
I7
tp1063
sg22
I1
sg20
F3.3492229585826863
sg23
F4.2246961529526743
sVY
L4L
sVX
L3L
sg984
g992
sg31
g32
sg33
g34
sg21
S'7'
sg19
S'space'
p1064
sg30
g11
sg986
L7L
sg987
VTIMES
p1065
sg989
L7L
sS'block.thisIndex'
p1066
I13
sg991
g1036
sg993
g1006
sg994
g1007
sa(dp1067
S'block.thisTrialN'
p1068
I8
sS'block.thisRepN'
p1069
I0
sg29
NsS'block.thisN'
p1070
I8
sg979
(S'INCREASE'
S'DIVIDE'
S'THIRD'
S'x'
S'y'
tp1071
sg27
g28
sg981
L3L
sg982
(I3
I1
I2
tp1072
sg22
I1
sg20
F2.5033304274693364
sg23
F2.9359339352959068
sVY
L3L
sVX
L9L
sg984
g1006
sg31
g32
sg33
g34
sg21
S'2'
sg19
S'space'
p1073
sg30
g11
sg986
L2L
sg987
g1016
sg989
L2L
sS'block.thisIndex'
p1074
I7
sg991
g1053
sg993
L0L
sg994
VUBUxy
p1075
sa(dp1076
S'block.thisTrialN'
p1077
I9
sS'block.thisRepN'
p1078
I0
sg29
NsS'block.thisN'
p1079
I9
sg979
(S'DECREASE'
S'THIRD'
S'TIMES'
S'HALF'
S'x'
S'y'
tp1080
sg27
g28
sg981
L4L
sg982
(I2
I12
I4
I3
tp1081
sg22
I1
sg20
F2.8507136280386476
sg23
F9.2199397992808372
sVY
L6L
sVX
L4L
sg984
g1065
sg31
g32
sg33
g34
sg21
S'3'
sg19
S'space'
p1082
sg30
g11
sg986
L3L
sg987
g1006
sg989
L3L
sS'block.thisIndex'
p1083
I14
sg991
g1036
sg993
g1056
sg994
g1037
sa(dp1084
S'block.thisTrialN'
p1085
I10
sS'block.thisRepN'
p1086
I0
sg29
NsS'block.thisN'
p1087
I10
sg979
(S'DIVIDE'
S'INCREASE'
S'DOUBLE'
S'THIRD'
S'x'
S'y'
tp1088
sg27
g28
sg981
L4L
sg982
(I2
I4
I5
I1
tp1089
sg22
I1
sg20
F5.0125650888294331
sg23
F4.403388906364853
sVY
L5L
sVX
L6L
sg984
g992
sg31
g32
sg33
g34
sg21
S'1'
sg19
S'space'
p1090
sg30
g11
sg986
L1L
sg987
g1053
sg989
L1L
sS'block.thisIndex'
p1091
I11
sg991
g1016
sg993
g1006
sg994
g1057
sa(dp1092
S'block.thisTrialN'
p1093
I11
sS'block.thisRepN'
p1094
I0
sg29
NsS'block.thisN'
p1095
I11
sg979
(S'DOUBLE'
S'DECREASE'
S'SUBTRACT'
S'x'
S'y'
tp1096
sg27
g28
sg981
L3L
sg982
(I5
I4
I8
tp1097
sg22
I1
sg20
F2.1178397034309455
sg23
F3.2039023727847962
sVY
L2L
sVX
L7L
sg984
g988
sg31
g32
sg33
g34
sg21
S'8'
sg19
S'space'
p1098
sg30
g11
sg986
L8L
sg987
g1036
sg989
L8L
sS'block.thisIndex'
p1099
I8
sg991
g992
sg993
L0L
sg994
g1027
sa(dp1100
S'block.thisTrialN'
p1101
I12
sS'block.thisRepN'
p1102
I0
sg29
NsS'block.thisN'
p1103
I12
sg979
(S'SUBTRACT'
S'HALF'
S'TRIPLE'
S'x'
S'y'
tp1104
sg27
g28
sg981
L3L
sg982
(I12
I6
I2
tp1105
sg22
I1
sg20
F1.3990602080666577
sg23
F3.489879931032192
sVY
L4L
sVX
L4L
sg984
g1025
sg31
g32
sg33
g34
sg21
S'2'
sg19
S'space'
p1106
sg30
g11
sg986
L2L
sg987
g1056
sg989
L2L
sS'block.thisIndex'
p1107
I5
sg991
g988
sg993
L0L
sg994
VBUUxy
p1108
sa(dp1109
S'block.thisTrialN'
p1110
I13
sS'block.thisRepN'
p1111
I0
sg29
NsS'block.thisN'
p1112
I13
sg979
(S'HALF'
S'SUBTRACT'
S'TRIPLE'
S'x'
S'y'
tp1113
sg27
g28
sg981
L3L
sg982
(I9
I2
I1
tp1114
sg22
I1
sg20
F1.3021588197225356
sg23
F2.5325663766998332
sVY
L7L
sVX
L3L
sg984
g1025
sg31
g32
sg33
g34
sg21
S'1'
sg19
S'space'
p1115
sg30
g11
sg986
L1L
sg987
g988
sg989
L1L
sS'block.thisIndex'
p1116
I6
sg991
g1056
sg993
L0L
sg994
g1075
sa(dp1117
S'block.thisTrialN'
p1118
I14
sS'block.thisRepN'
p1119
I0
sg29
NsS'block.thisN'
p1120
I14
sg979
(S'HALF'
S'TIMES'
S'x'
S'y'
tp1121
sg27
g28
sg981
L2L
sg982
(I16
I8
tp1122
sg22
I1
sg20
F0.98150722972059157
sg23
F2.1969772954180371
sVY
L4L
sVX
L4L
sg984
L0L
sg31
g32
sg33
g34
sg21
S'8'
sg19
S'space'
p1123
sg30
g11
sg986
L8L
sg987
g1065
sg989
L8L
sS'block.thisIndex'
p1124
I3
sg991
g1056
sg993
L0L
sg994
g995
sa(dp1125
S'block.thisTrialN'
p1126
I15
sS'block.thisRepN'
p1127
I0
sg29
NsS'block.thisN'
p1128
I15
sg979
(S'ADD'
S'DOUBLE'
S'x'
S'y'
tp1129
sg27
g28
sg981
L2L
sg982
(I4
I8
tp1130
sg22
I1
sg20
F1.426586235727882
sg23
F1.7495993793054367
sVY
L4L
sVX
L2L
sg984
L0L
sg31
g32
sg33
g34
sg21
S'8'
sg19
S'space'
p1131
sg30
g11
sg986
L8L
sg987
g992
sg989
L8L
sS'block.thisIndex'
p1132
I0
sg991
g1003
sg993
L0L
sg994
g1017
sa(dp1133
S'block.thisTrialN'
p1134
I16
sS'block.thisRepN'
p1135
I0
sg29
NsS'block.thisN'
p1136
I16
sg979
(S'DIVIDE'
S'DOUBLE'
S'THIRD'
S'x'
S'y'
tp1137
sg27
g28
sg981
L3L
sg982
(I2
I4
I1
tp1138
sg22
I1
sg20
F1.7303646864456823
sg23
F3.3976694531957037
sVY
L4L
sVX
L6L
sg984
g1006
sg31
g32
sg33
g34
sg21
S'1'
sg19
S'space'
p1139
sg30
g11
sg986
L1L
sg987
g992
sg989
L1L
sS'block.thisIndex'
p1140
I4
sg991
g1016
sg993
L0L
sg994
g1108
sa(dp1141
S'block.thisTrialN'
p1142
I17
sS'block.thisRepN'
p1143
I0
sg29
NsS'block.thisN'
p1144
I17
sg979
(S'DECREASE'
S'HALF'
S'TRIPLE'
S'DIVIDE'
S'x'
S'y'
tp1145
sg27
g28
sg981
L4L
sg982
(I4
I12
I6
I5
tp1146
sg22
I1
sg20
F3.0612002137568197
sg23
F4.2141703013257938
sVY
L2L
sVX
L8L
sg984
g1025
sg31
g32
sg33
g34
sg21
S'5'
sg19
S'space'
p1147
sg30
g11
sg986
L5L
sg987
g1056
sg989
L5L
sS'block.thisIndex'
p1148
I16
sg991
g1036
sg993
g1016
sg994
g1046
sa(dp1149
S'block.thisTrialN'
p1150
I0
sS'block.thisRepN'
p1151
I0
sg29
NsS'block.thisN'
p1152
I0
sVRule
p1153
(S'SUBTRACT'
S'DECREASE'
S'TRIPLE'
S'DOUBLE'
S'x'
S'y'
tp1154
sg27
g28
sVLength
p1155
L4L
sVIntermediate
p1156
(I6
I18
I17
I8
tp1157
sg22
I1
sg20
F1.9864021689354558
sg23
F11.152094128978206
sVY
L9L
sVX
L3L
sVOperatorc
p1158
Vtriple
p1159
sg31
g32
sg33
g34
sg21
S'8'
sg19
S'space'
p1160
sg30
g11
sVResult
p1161
L8L
sVOperatora
p1162
Vdecrease
p1163
sVCorrectResponse
p1164
L8L
sS'block.thisIndex'
p1165
I11
sVOperatorb
p1166
VSUBTRACT
p1167
sVOperatord
p1168
Vdouble
p1169
sVStructure
p1170
VBUUUxy
p1171
sa(dp1172
S'block.thisTrialN'
p1173
I1
sS'block.thisRepN'
p1174
I0
sg29
NsS'block.thisN'
p1175
I1
sg1153
(S'INCREASE'
S'SUBTRACT'
S'HALF'
S'x'
S'y'
tp1176
sg27
g28
sg1155
L3L
sg1156
(I4
I2
I3
tp1177
sg22
I1
sg20
F2.1849654988545808
sg23
F3.7454309642780572
sVY
L2L
sVX
L8L
sg1158
Vhalf
p1178
sg31
g32
sg33
g34
sg21
S'3'
sg19
S'space'
p1179
sg30
g11
sg1161
L3L
sg1162
g1167
sg1164
L3L
sS'block.thisIndex'
p1180
I7
sg1166
Vincrease
p1181
sg1168
L0L
sg1170
VUBUxy
p1182
sa(dp1183
S'block.thisTrialN'
p1184
I2
sS'block.thisRepN'
p1185
I0
sg29
NsS'block.thisN'
p1186
I2
sg1153
(S'DECREASE'
S'DIVIDE'
S'x'
S'y'
tp1187
sg27
g28
sg1155
L2L
sg1156
(I2
I1
tp1188
sg22
I1
sg20
F2.7269493928324664
sg23
F2.4019656048840261
sVY
L4L
sVX
L8L
sg1158
L0L
sg31
g32
sg33
g34
sg21
S'1'
sg19
S'space'
p1189
sg30
g11
sg1161
L1L
sg1162
VDIVIDE
p1190
sg1164
L1L
sS'block.thisIndex'
p1191
I2
sg1166
g1163
sg1168
L0L
sg1170
VUBxy
p1192
sa(dp1193
S'block.thisTrialN'
p1194
I3
sS'block.thisRepN'
p1195
I0
sg29
NsS'block.thisN'
p1196
I3
sg1153
(S'DOUBLE'
S'ADD'
S'INCREASE'
S'THIRD'
S'x'
S'y'
tp1197
sg27
g28
sg1155
L4L
sg1156
(I1
I2
I4
I8
tp1198
sg22
I1
sg20
F2.3866298551729415
sg23
F3.3303319298647693
sVY
L2L
sVX
L3L
sg1158
g1181
sg31
g32
sg33
g34
sg21
S'8'
sg19
S'space'
p1199
sg30
g11
sg1161
L8L
sg1162
VADD
p1200
sg1164
L8L
sS'block.thisIndex'
p1201
I12
sg1166
g1169
sg1168
Vthird
p1202
sg1170
VUBUUxy
p1203
sa(dp1204
S'block.thisTrialN'
p1205
I4
sS'block.thisRepN'
p1206
I0
sg29
NsS'block.thisN'
p1207
I4
sg1153
(S'DIVIDE'
S'DECREASE'
S'TRIPLE'
S'x'
S'y'
tp1208
sg27
g28
sg1155
L3L
sg1156
(I9
I8
I4
tp1209
sg22
I1
sg20
F3.49266039088252
sg23
F6.8203654948592884
sVY
L2L
sVX
L3L
sg1158
g1159
sg31
g32
sg33
g34
sg21
S'4'
sg19
S'space'
p1210
sg30
g11
sg1161
L4L
sg1162
g1163
sg1164
L4L
sS'block.thisIndex'
p1211
I5
sg1166
g1190
sg1168
L0L
sg1170
VBUUxy
p1212
sa(dp1213
S'block.thisTrialN'
p1214
I5
sS'block.thisRepN'
p1215
I0
sg29
NsS'block.thisN'
p1216
I5
sg1153
(S'HALF'
S'TRIPLE'
S'INCREASE'
S'DIVIDE'
S'x'
S'y'
tp1217
sg27
g28
sg1155
L4L
sg1156
(I3
I4
I12
I6
tp1218
sg22
I1
sg20
F5.812018865828577
sg23
F4.3397641456103884
sVY
L3L
sVX
L9L
sg1158
g1181
sg31
g32
sg33
g34
sg21
S'6'
sg19
S'space'
p1219
sg30
g11
sg1161
L6L
sg1162
g1159
sg1164
L6L
sS'block.thisIndex'
p1220
I16
sg1166
g1178
sg1168
g1190
sg1170
VUUUBxy
p1221
sa(dp1222
S'block.thisTrialN'
p1223
I6
sS'block.thisRepN'
p1224
I0
sg29
NsS'block.thisN'
p1225
I6
sg1153
(S'ADD'
S'HALF'
S'THIRD'
S'x'
S'y'
tp1226
sg27
g28
sg1155
L3L
sg1156
(I2
I1
I9
tp1227
sg22
I1
sg20
F1.7484455497105955
sg23
F3.081924351194175
sVY
L8L
sVX
L6L
sg1158
g1202
sg31
g32
sg33
g34
sg21
S'9'
sg19
S'space'
p1228
sg30
g11
sg1161
L9L
sg1162
g1178
sg1164
L9L
sS'block.thisIndex'
p1229
I4
sg1166
g1200
sg1168
L0L
sg1170
g1212
sa(dp1230
S'block.thisTrialN'
p1231
I7
sS'block.thisRepN'
p1232
I0
sg29
NsS'block.thisN'
p1233
I7
sg1153
(S'THIRD'
S'DOUBLE'
S'INCREASE'
S'TIMES'
S'x'
S'y'
tp1234
sg27
g28
sg1155
L4L
sg1156
(I8
I9
I18
I6
tp1235
sg22
I1
sg20
F5.0746353118011029
sg23
F3.5090929261568817
sVY
L4L
sVX
L2L
sg1158
g1181
sg31
g32
sg33
g34
sg21
S'6'
sg19
S'space'
p1236
sg30
g11
sg1161
L6L
sg1162
g1169
sg1164
L6L
sS'block.thisIndex'
p1237
I17
sg1166
g1202
sg1168
VTIMES
p1238
sg1170
g1221
sa(dp1239
S'block.thisTrialN'
p1240
I8
sS'block.thisRepN'
p1241
I0
sg29
NsS'block.thisN'
p1242
I8
sg1153
(S'THIRD'
S'HALF'
S'ADD'
S'x'
S'y'
tp1243
sg27
g28
sg1155
L3L
sg1156
(I6
I3
I1
tp1244
sg22
I1
sg20
F2.0674285138375126
sg23
F4.3881728441701853
sVY
L3L
sVX
L3L
sg1158
g1200
sg31
g32
sg33
g34
sg21
S'1'
sg19
S'space'
p1245
sg30
g11
sg1161
L1L
sg1162
g1178
sg1164
L1L
sS'block.thisIndex'
p1246
I9
sg1166
g1202
sg1168
L0L
sg1170
VUUBxy
p1247
sa(dp1248
S'block.thisTrialN'
p1249
I9
sS'block.thisRepN'
p1250
I0
sg29
NsS'block.thisN'
p1251
I9
sg1153
(S'HALF'
S'ADD'
S'TRIPLE'
S'x'
S'y'
tp1252
sg27
g28
sg1155
L3L
sg1156
(I9
I12
I6
tp1253
sg22
I1
sg20
F1.3478692998396582
sg23
F2.8055028957751347
sVY
L3L
sVX
L3L
sg1158
g1159
sg31
g32
sg33
g34
sg21
S'6'
sg19
S'space'
p1254
sg30
g11
sg1161
L6L
sg1162
g1200
sg1164
L6L
sS'block.thisIndex'
p1255
I6
sg1166
g1178
sg1168
L0L
sg1170
g1182
sa(dp1256
S'block.thisTrialN'
p1257
I10
sS'block.thisRepN'
p1258
I0
sg29
NsS'block.thisN'
p1259
I10
sg1153
(S'THIRD'
S'DOUBLE'
S'ADD'
S'DECREASE'
S'x'
S'y'
tp1260
sg27
g28
sg1155
L4L
sg1156
(I5
I12
I24
I8
tp1261
sg22
I1
sg20
F2.483829412398336
sg23
F4.3413603290537139
sVY
L7L
sVX
L6L
sg1158
g1200
sg31
g32
sg33
g34
sg21
S'8'
sg19
S'space'
p1262
sg30
g11
sg1161
L8L
sg1162
g1169
sg1164
L8L
sS'block.thisIndex'
p1263
I14
sg1166
g1202
sg1168
g1163
sg1170
VUUBUxy
p1264
sa(dp1265
S'block.thisTrialN'
p1266
I11
sS'block.thisRepN'
p1267
I0
sg29
NsS'block.thisN'
p1268
I11
sg1153
(S'THIRD'
S'INCREASE'
S'DIVIDE'
S'DOUBLE'
S'x'
S'y'
tp1269
sg27
g28
sg1155
L4L
sg1156
(I18
I2
I3
I1
tp1270
sg22
I1
sg20
F2.2572441565716872
sg23
F4.2618801228090888
sVY
L9L
sVX
L9L
sg1158
g1190
sg31
g32
sg33
g34
sg21
S'1'
sg19
S'space'
p1271
sg30
g11
sg1161
L1L
sg1162
g1181
sg1164
L1L
sS'block.thisIndex'
p1272
I15
sg1166
g1202
sg1168
g1169
sg1170
g1264
sa(dp1273
S'block.thisTrialN'
p1274
I12
sS'block.thisRepN'
p1275
I0
sg29
NsS'block.thisN'
p1276
I12
sg1153
(S'SUBTRACT'
S'DECREASE'
S'x'
S'y'
tp1277
sg27
g28
sg1155
L2L
sg1156
(I5
I3
tp1278
sg22
I1
sg20
F1.2663418072261265
sg23
F2.3244696915935492
sVY
L2L
sVX
L6L
sg1158
L0L
sg31
g32
sg33
g34
sg21
S'3'
sg19
S'space'
p1279
sg30
g11
sg1161
L3L
sg1162
g1163
sg1164
L3L
sS'block.thisIndex'
p1280
I1
sg1166
g1167
sg1168
L0L
sg1170
VBUxy
p1281
sa(dp1282
S'block.thisTrialN'
p1283
I13
sS'block.thisRepN'
p1284
I0
sg29
NsS'block.thisN'
p1285
I13
sg1153
(S'INCREASE'
S'ADD'
S'x'
S'y'
tp1286
sg27
g28
sg1155
L2L
sg1156
(I5
I6
tp1287
sg22
I1
sg20
F2.4895145691552898
sg23
F1.9061348948234809
sVY
L2L
sVX
L3L
sg1158
L0L
sg31
g32
sg33
g34
sg21
S'6'
sg19
S'space'
p1288
sg30
g11
sg1161
L6L
sg1162
g1200
sg1164
L6L
sS'block.thisIndex'
p1289
I3
sg1166
g1181
sg1168
L0L
sg1170
g1192
sa(dp1290
S'block.thisTrialN'
p1291
I14
sS'block.thisRepN'
p1292
I0
sg29
NsS'block.thisN'
p1293
I14
sg1153
(S'THIRD'
S'TIMES'
S'DOUBLE'
S'DECREASE'
S'x'
S'y'
tp1294
sg27
g28
sg1155
L4L
sg1156
(I1
I2
I6
I2
tp1295
sg22
I1
sg20
F6.3701073792981333
sg23
F4.3139714870776515
sVY
L3L
sVX
L2L
sg1158
g1169
sg31
g32
sg33
g34
sg21
S'2'
sg19
S'space'
p1296
sg30
g11
sg1161
L2L
sg1162
g1238
sg1164
L2L
sS'block.thisIndex'
p1297
I13
sg1166
g1202
sg1168
g1163
sg1170
g1203
sa(dp1298
S'block.thisTrialN'
p1299
I15
sS'block.thisRepN'
p1300
I0
sg29
NsS'block.thisN'
p1301
I15
sg1153
(S'ADD'
S'DOUBLE'
S'DECREASE'
S'THIRD'
S'x'
S'y'
tp1302
sg27
g28
sg1155
L4L
sg1156
(I2
I1
I2
I8
tp1303
sg22
I1
sg20
F1.8583165846648626
sg23
F4.8199507881363388
sVY
L6L
sVX
L6L
sg1158
g1163
sg31
g32
sg33
g34
sg21
S'8'
sg19
S'space'
p1304
sg30
g11
sg1161
L8L
sg1162
g1169
sg1164
L8L
sS'block.thisIndex'
p1305
I10
sg1166
g1200
sg1168
g1202
sg1170
g1171
sa(dp1306
S'block.thisTrialN'
p1307
I16
sS'block.thisRepN'
p1308
I0
sg29
NsS'block.thisN'
p1309
I16
sg1153
(S'DIVIDE'
S'INCREASE'
S'x'
S'y'
tp1310
sg27
g28
sg1155
L2L
sg1156
(I4
I2
tp1311
sg22
I1
sg20
F2.2138609336107038
sg23
F2.0492843071842799
sVY
L2L
sVX
L3L
sg1158
L0L
sg31
g32
sg33
g34
sg21
S'2'
sg19
S'space'
p1312
sg30
g11
sg1161
L2L
sg1162
g1181
sg1164
L2L
sS'block.thisIndex'
p1313
I0
sg1166
g1190
sg1168
L0L
sg1170
g1281
sa(dp1314
S'block.thisTrialN'
p1315
I17
sS'block.thisRepN'
p1316
I0
sg29
NsS'block.thisN'
p1317
I17
sg1153
(S'INCREASE'
S'TRIPLE'
S'DIVIDE'
S'x'
S'y'
tp1318
sg27
g28
sg1155
L3L
sg1156
(I2
I6
I7
tp1319
sg22
I1
sg20
F1.6389636741369031
sg23
F5.3835932220463292
sVY
L3L
sVX
L6L
sg1158
g1190
sg31
g32
sg33
g34
sg21
S'7'
sg19
S'space'
p1320
sg30
g11
sg1161
L7L
sg1162
g1159
sg1164
L7L
sS'block.thisIndex'
p1321
I8
sg1166
g1181
sg1168
L0L
sg1170
g1247
sa(dp1322
S'block.thisTrialN'
p1323
I0
sS'block.thisRepN'
p1324
I0
sg29
NsS'block.thisN'
p1325
I0
sVRule
p1326
(S'THIRD'
S'DECREASE'
S'TIMES'
S'HALF'
S'x'
S'y'
tp1327
sg27
g28
sVLength
p1328
L4L
sVIntermediate
p1329
(I4
I16
I15
I5
tp1330
sg22
I1
sg20
F1.93188030829333
sg23
F11.730127061236999
sVY
L4L
sVX
L8L
sVOperatorc
p1331
VTIMES
p1332
sg31
g32
sg33
g34
sg21
S'5'
sg19
S'space'
p1333
sg30
g11
sVResult
p1334
L5L
sVOperatora
p1335
Vdecrease
p1336
sVCorrectResponse
p1337
L5L
sS'block.thisIndex'
p1338
I15
sVOperatorb
p1339
Vthird
p1340
sVOperatord
p1341
Vhalf
p1342
sVStructure
p1343
VUUBUxy
p1344
sa(dp1345
S'block.thisTrialN'
p1346
I1
sS'block.thisRepN'
p1347
I0
sg29
NsS'block.thisN'
p1348
I1
sg1326
(S'DOUBLE'
S'DIVIDE'
S'TRIPLE'
S'INCREASE'
S'x'
S'y'
tp1349
sg27
g28
sg1328
L4L
sg1329
(I5
I15
I3
I6
tp1350
sg22
I1
sg20
F2.0388235487625934
sg23
F5.2355208734006737
sVY
L5L
sVX
L4L
sg1331
Vtriple
p1351
sg31
g32
sg33
g34
sg21
S'6'
sg19
S'space'
p1352
sg30
g11
sg1334
L6L
sg1335
VDIVIDE
p1353
sg1337
L6L
sS'block.thisIndex'
p1354
I12
sg1339
Vdouble
p1355
sg1341
Vincrease
p1356
sg1343
VUBUUxy
p1357
sa(dp1358
S'block.thisTrialN'
p1359
I2
sS'block.thisRepN'
p1360
I0
sg29
NsS'block.thisN'
p1361
I2
sg1326
(S'DOUBLE'
S'THIRD'
S'TIMES'
S'x'
S'y'
tp1362
sg27
g28
sg1328
L3L
sg1329
(I12
I4
I8
tp1363
sg22
I1
sg20
F3.4932486795005389
sg23
F5.1223216857324587
sVY
L6L
sVX
L2L
sg1331
g1332
sg31
g32
sg33
g34
sg21
S'8'
sg19
S'space'
p1364
sg30
g11
sg1334
L8L
sg1335
g1340
sg1337
L8L
sS'block.thisIndex'
p1365
I9
sg1339
g1355
sg1341
L0L
sg1343
VUUBxy
p1366
sa(dp1367
S'block.thisTrialN'
p1368
I3
sS'block.thisRepN'
p1369
I0
sg29
NsS'block.thisN'
p1370
I3
sg1326
(S'DOUBLE'
S'DECREASE'
S'ADD'
S'x'
S'y'
tp1371
sg27
g28
sg1328
L3L
sg1329
(I4
I3
I6
tp1372
sg22
I1
sg20
F1.4450240617370582
sg23
F3.8919736225507222
sVY
L2L
sVX
L2L
sg1331
VADD
p1373
sg31
g32
sg33
g34
sg21
S'6'
sg19
S'space'
p1374
sg30
g11
sg1334
L6L
sg1335
g1336
sg1337
L6L
sS'block.thisIndex'
p1375
I8
sg1339
g1355
sg1341
L0L
sg1343
g1366
sa(dp1376
S'block.thisTrialN'
p1377
I4
sS'block.thisRepN'
p1378
I0
sg29
NsS'block.thisN'
p1379
I4
sg1326
(S'SUBTRACT'
S'DOUBLE'
S'TRIPLE'
S'DECREASE'
S'x'
S'y'
tp1380
sg27
g28
sg1328
L4L
sg1329
(I2
I6
I12
I8
tp1381
sg22
I1
sg20
F3.410011615291296
sg23
F9.2390964502847055
sVY
L4L
sVX
L3L
sg1331
g1351
sg31
g32
sg33
g34
sg21
S'8'
sg19
S'space'
p1382
sg30
g11
sg1334
L8L
sg1335
g1355
sg1337
L8L
sS'block.thisIndex'
p1383
I10
sg1339
VSUBTRACT
p1384
sg1341
g1336
sg1343
VBUUUxy
p1385
sa(dp1386
S'block.thisTrialN'
p1387
I5
sS'block.thisRepN'
p1388
I0
sg29
NsS'block.thisN'
p1389
I5
sg1326
(S'TIMES'
S'HALF'
S'INCREASE'
S'x'
S'y'
tp1390
sg27
g28
sg1328
L3L
sg1329
(I6
I3
I9
tp1391
sg22
I1
sg20
F2.3402099990853458
sg23
F2.2279994582568179
sVY
L3L
sVX
L5L
sg1331
g1356
sg31
g32
sg33
g34
sg21
S'9'
sg19
S'space'
p1392
sg30
g11
sg1334
L9L
sg1335
g1342
sg1337
L9L
sS'block.thisIndex'
p1393
I5
sg1339
g1332
sg1341
L0L
sg1343
VBUUxy
p1394
sa(dp1395
S'block.thisTrialN'
p1396
I6
sS'block.thisRepN'
p1397
I0
sg29
NsS'block.thisN'
p1398
I6
sg1326
(S'INCREASE'
S'SUBTRACT'
S'x'
S'y'
tp1399
sg27
g28
sg1328
L2L
sg1329
(I3
I4
tp1400
sg22
I1
sg20
F2.261701291470672
sg23
F2.2125905661741854
sVY
L3L
sVX
L6L
sg1331
L0L
sg31
g32
sg33
g34
sg21
S'4'
sg19
S'space'
p1401
sg30
g11
sg1334
L4L
sg1335
g1384
sg1337
L4L
sS'block.thisIndex'
p1402
I2
sg1339
g1356
sg1341
L0L
sg1343
VUBxy
p1403
sa(dp1404
S'block.thisTrialN'
p1405
I7
sS'block.thisRepN'
p1406
I0
sg29
NsS'block.thisN'
p1407
I7
sg1326
(S'THIRD'
S'TIMES'
S'HALF'
S'x'
S'y'
tp1408
sg27
g28
sg1328
L3L
sg1329
(I3
I18
I6
tp1409
sg22
I1
sg20
F1.1079308374173706
sg23
F6.9192928217962617
sVY
L6L
sVX
L6L
sg1331
g1342
sg31
g32
sg33
g34
sg21
S'6'
sg19
S'space'
p1410
sg30
g11
sg1334
L6L
sg1335
g1332
sg1337
L6L
sS'block.thisIndex'
p1411
I7
sg1339
g1340
sg1341
L0L
sg1343
VUBUxy
p1412
sa(dp1413
S'block.thisTrialN'
p1414
I8
sS'block.thisRepN'
p1415
I0
sg29
NsS'block.thisN'
p1416
I8
sg1326
(S'HALF'
S'TRIPLE'
S'INCREASE'
S'SUBTRACT'
S'x'
S'y'
tp1417
sg27
g28
sg1328
L4L
sg1329
(I1
I2
I6
I3
tp1418
sg22
I1
sg20
F3.0933202120359056
sg23
F5.9745387568764272
sVY
L2L
sVX
L3L
sg1331
g1356
sg31
g32
sg33
g34
sg21
S'3'
sg19
S'space'
p1419
sg30
g11
sg1334
L3L
sg1335
g1351
sg1337
L3L
sS'block.thisIndex'
p1420
I17
sg1339
g1342
sg1341
g1384
sg1343
VUUUBxy
p1421
sa(dp1422
S'block.thisTrialN'
p1423
I9
sS'block.thisRepN'
p1424
I0
sg29
NsS'block.thisN'
p1425
I9
sg1326
(S'INCREASE'
S'ADD'
S'HALF'
S'TRIPLE'
S'x'
S'y'
tp1426
sg27
g28
sg1328
L4L
sg1329
(I6
I3
I6
I7
tp1427
sg22
I1
sg20
F1.400633993842348
sg23
F17.519985889477539
sVY
L3L
sVX
L2L
sg1331
g1342
sg31
g32
sg33
g34
sg21
S'7'
sg19
S'space'
p1428
sg30
g11
sg1334
L7L
sg1335
g1373
sg1337
L7L
sS'block.thisIndex'
p1429
I13
sg1339
g1356
sg1341
g1351
sg1343
g1357
sa(dp1430
S'block.thisTrialN'
p1431
I10
sS'block.thisRepN'
p1432
I0
sg29
NsS'block.thisN'
p1433
I10
sg1326
(S'TIMES'
S'DOUBLE'
S'x'
S'y'
tp1434
sg27
g28
sg1328
L2L
sg1329
(I4
I8
tp1435
sg22
I1
sg20
F1.1856237801621319
sg23
F1.4320799624620122
sVY
L2L
sVX
L2L
sg1331
L0L
sg31
g32
sg33
g34
sg21
S'8'
sg19
S'space'
p1436
sg30
g11
sg1334
L8L
sg1335
g1355
sg1337
L8L
sS'block.thisIndex'
p1437
I1
sg1339
g1332
sg1341
L0L
sg1343
VBUxy
p1438
sa(dp1439
S'block.thisTrialN'
p1440
I11
sS'block.thisRepN'
p1441
I0
sg29
NsS'block.thisN'
p1442
I11
sg1326
(S'THIRD'
S'DIVIDE'
S'x'
S'y'
tp1443
sg27
g28
sg1328
L2L
sg1329
(I3
I1
tp1444
sg22
I1
sg20
F0.90008402623789152
sg23
F2.565713167830836
sVY
L2L
sVX
L6L
sg1331
L0L
sg31
g32
sg33
g34
sg21
S'1'
sg19
S'space'
p1445
sg30
g11
sg1334
L1L
sg1335
g1353
sg1337
L1L
sS'block.thisIndex'
p1446
I3
sg1339
g1340
sg1341
L0L
sg1343
g1403
sa(dp1447
S'block.thisTrialN'
p1448
I12
sS'block.thisRepN'
p1449
I0
sg29
NsS'block.thisN'
p1450
I12
sg1326
(S'DECREASE'
S'TRIPLE'
S'HALF'
S'SUBTRACT'
S'x'
S'y'
tp1451
sg27
g28
sg1328
L4L
sg1329
(I4
I2
I6
I5
tp1452
sg22
I1
sg20
F2.6119268954280415
sg23
F6.9334365958857234
sVY
L2L
sVX
L6L
sg1331
g1342
sg31
g32
sg33
g34
sg21
S'5'
sg19
S'space'
p1453
sg30
g11
sg1334
L5L
sg1335
g1351
sg1337
L5L
sS'block.thisIndex'
p1454
I16
sg1339
g1336
sg1341
g1384
sg1343
g1421
sa(dp1455
S'block.thisTrialN'
p1456
I13
sS'block.thisRepN'
p1457
I0
sg29
NsS'block.thisN'
p1458
I13
sg1326
(S'SUBTRACT'
S'TRIPLE'
S'DECREASE'
S'x'
S'y'
tp1459
sg27
g28
sg1328
L3L
sg1329
(I4
I12
I3
tp1460
sg22
I1
sg20
F1.8284111552929971
sg23
F3.0945590827614069
sVY
L9L
sVX
L5L
sg1331
g1336
sg31
g32
sg33
g34
sg21
S'3'
sg19
S'space'
p1461
sg30
g11
sg1334
L3L
sg1335
g1351
sg1337
L3L
sS'block.thisIndex'
p1462
I4
sg1339
g1384
sg1341
L0L
sg1343
g1394
sa(dp1463
S'block.thisTrialN'
p1464
I14
sS'block.thisRepN'
p1465
I0
sg29
NsS'block.thisN'
p1466
I14
sg1326
(S'DECREASE'
S'TRIPLE'
S'DIVIDE'
S'DOUBLE'
S'x'
S'y'
tp1467
sg27
g28
sg1328
L4L
sg1329
(I6
I2
I6
I5
tp1468
sg22
I1
sg20
F4.7407781997972052
sg23
F3.9090406416071346
sVY
L3L
sVX
L3L
sg1331
g1353
sg31
g32
sg33
g34
sg21
S'5'
sg19
S'space'
p1469
sg30
g11
sg1334
L5L
sg1335
g1351
sg1337
L5L
sS'block.thisIndex'
p1470
I14
sg1339
g1336
sg1341
g1355
sg1343
g1344
sa(dp1471
S'block.thisTrialN'
p1472
I15
sS'block.thisRepN'
p1473
I0
sg29
NsS'block.thisN'
p1474
I15
sg1326
(S'DIVIDE'
S'THIRD'
S'x'
S'y'
tp1475
sg27
g28
sg1328
L2L
sg1329
(I3
I1
tp1476
sg22
I1
sg20
F0.77233860646083485
sg23
F1.5740993427316425
sVY
L3L
sVX
L9L
sg1331
L0L
sg31
g32
sg33
g34
sg21
S'1'
sg19
S'space'
p1477
sg30
g11
sg1334
L1L
sg1335
g1340
sg1337
L1L
sS'block.thisIndex'
p1478
I0
sg1339
g1353
sg1341
L0L
sg1343
g1438
sa(dp1479
S'block.thisTrialN'
p1480
I16
sS'block.thisRepN'
p1481
I0
sg29
NsS'block.thisN'
p1482
I16
sg1326
(S'THIRD'
S'DIVIDE'
S'DECREASE'
S'x'
S'y'
tp1483
sg27
g28
sg1328
L3L
sg1329
(I6
I3
I1
tp1484
sg22
I1
sg20
F4.371645468789211
sg23
F3.8447509502366302
sVY
L2L
sVX
L7L
sg1331
g1336
sg31
g32
sg33
g34
sg21
S'1'
sg19
S'space'
p1485
sg30
g11
sg1334
L1L
sg1335
g1353
sg1337
L1L
sS'block.thisIndex'
p1486
I6
sg1339
g1340
sg1341
L0L
sg1343
g1412
sa(dp1487
S'block.thisTrialN'
p1488
I17
sS'block.thisRepN'
p1489
I0
sg29
NsS'block.thisN'
p1490
I17
sg1326
(S'SUBTRACT'
S'TRIPLE'
S'DECREASE'
S'DOUBLE'
S'x'
S'y'
tp1491
sg27
g28
sg1328
L4L
sg1329
(I4
I3
I9
I1
tp1492
sg22
I1
sg20
F3.0127390206835116
sg23
F3.7041499719489366
sVY
L8L
sVX
L2L
sg1331
g1336
sg31
g32
sg33
g34
sg21
S'1'
sg19
S'space'
p1493
sg30
g11
sg1334
L1L
sg1335
g1351
sg1337
L1L
sS'block.thisIndex'
p1494
I11
sg1339
g1384
sg1341
g1355
sg1343
g1385
sasS'loops'
p1495
(lp1496
g1
(cpsychopy.data
TrialHandler
p1497
g3
NtRp1498
(dp1499
S'origin'
p1500
NsS'thisTrial'
p1501
(lp1502
sS'_exp'
p1503
I327541712
sg10
S'practice_trials'
p1504
sg6
S'C:\\Users\\experimenter\\Desktop\\Experiments\\KRITL\\2. kritl_experimenter.py'
p1505
sS'thisRepN'
p1506
I1
sg24
I01
sg25
g26
sS'data'
p1507
g1
(cpsychopy.data
DataHandler
p1508
c__builtin__
dict
p1509
(dp1510
g15
cnumpy.core.multiarray
_reconstruct
p1511
(cnumpy
ndarray
p1512
(I0
tS'b'
tRp1513
(I1
(I6
I1
tcnumpy
dtype
p1514
(S'O4'
I0
I1
tRp1515
(I3
S'|'
NNNI-1
I-1
I63
tbI00
(lp1516
(lp1517
F2.0465384937051567
aa(lp1518
F2.1525165349012241
aa(lp1519
F0.90844430383731378
aa(lp1520
F2.3364748388485168
aa(lp1521
F1.6423691687741666
aa(lp1522
F3.1522278150296188
aatbsg16
g1511
(g1512
(I0
tS'b'
tRp1523
(I1
(I6
I1
tg1515
I00
(lp1524
S'7'
aS'8'
aS'7'
aS'8'
aS'3'
aS'9'
atbsS'ran'
p1525
cnumpy.ma.core
_mareconstruct
p1526
(cnumpy.ma.core
MaskedArray
p1527
g1512
(I0
tp1528
S'b'
tRp1529
(I1
(I6
I1
tg1514
(S'f4'
I0
I1
tRp1530
(I3
S'<'
NNNI-1
I-1
I0
tbI00
S'\x00\x00\x80?\x00\x00\x80?\x00\x00\x80?\x00\x00\x80?\x00\x00\x80?\x00\x00\x80?'
S'\x00\x00\x00\x00\x00\x00'
Ntbsg18
g1526
(g1527
g1512
g1528
S'b'
tRp1531
(I1
(I6
I1
tg1530
I00
S'\xae3\xd5?\x8f$\xf4?`q\x08@"\\T@ G\x85@#o\xe2@'
S'\x00\x00\x00\x00\x00\x00'
Ntbsg14
g1511
(g1512
(I0
tS'b'
tRp1532
(I1
(I6
I1
tg1515
I00
(lp1533
(lp1534
g116
aa(lp1535
g92
aa(lp1536
g100
aa(lp1537
g82
aa(lp1538
g108
aa(lp1539
g71
aatbsS'order'
p1540
g1526
(g1527
g1512
g1528
S'b'
tRp1541
(I1
(I6
I1
tg1530
I00
S'\x00\x00\xa0@\x00\x00\x00@\x00\x00@@\x00\x00\x80?\x00\x00\x80@\x00\x00\x00\x00'
S'\x00\x00\x00\x00\x00\x00'
Ntbsg17
g1526
(g1527
g1512
g1528
S'b'
tRp1542
(I1
(I6
I1
tg1530
I00
S'\x00\x00\x80?\x00\x00\x80?\x00\x00\x80?\x00\x00\x80?\x00\x00\x80?\x00\x00\x80?'
S'\x00\x00\x00\x00\x00\x00'
NtbstRp1543
(dp1544
S'isNumeric'
p1545
(dp1546
g16
I00
sg1525
I01
sg18
I01
sg14
I00
sg17
I01
sg1540
I01
sg15
I00
ssS'trials'
p1547
g1498
sS'dataTypes'
p1548
(lp1549
g1525
ag1540
ag14
ag15
ag16
ag17
ag18
asS'dataShape'
p1550
(lp1551
I6
aI1
asbsS'method'
p1552
S'fullRandom'
p1553
sS'sequenceIndices'
p1554
g1511
(g1512
(I0
tS'b'
tRp1555
(I1
(I6
I1
tg1515
I00
(lp1556
I5
aI3
aI1
aI2
aI4
aI0
atbsS'finished'
p1557
I01
sS'nReps'
p1558
I1
sS'nRemaining'
p1559
I-1
sS'trialList'
p1560
(lp1561
g1
(cpsychopy.data
TrialType
p1562
g1509
(dp1563
g43
L0L
sg44
g76
sg45
g87
sg46
L7L
sg49
L2L
sg48
L0L
sg47
L5L
sg50
L3L
stRp1564
ag1
(g1562
g1509
(dp1565
g43
L0L
sg44
g87
sg45
g88
sg46
L8L
sg49
L2L
sg48
L0L
sg47
L3L
sg50
L3L
stRp1566
ag1
(g1562
g1509
(dp1567
g43
L0L
sg44
g76
sg45
g78
sg46
L7L
sg49
L2L
sg48
L0L
sg47
L5L
sg50
L4L
stRp1568
ag1
(g1562
g1509
(dp1569
g43
g76
sg44
g77
sg45
g78
sg46
L8L
sg49
L3L
sg48
L0L
sg47
L2L
sg50
L4L
stRp1570
ag1
(g1562
g1509
(dp1571
g43
g64
sg44
g65
sg45
g68
sg46
L3L
sg49
L3L
sg48
L0L
sg47
L3L
sg50
L2L
stRp1572
ag1
(g1562
g1509
(dp1573
g43
g64
sg44
g65
sg45
g66
sg46
L9L
sg49
L4L
sg48
g68
sg47
L8L
sg50
L8L
stRp1574
asS'seed'
p1575
NsS'thisIndex'
p1576
I0
sS'thisN'
p1577
I6
sS'thisTrialN'
p1578
I0
sS'nTotal'
p1579
I6
sbag1
(g1497
g3
NtRp1580
(dp1581
g1500
Nsg1501
(lp1582
sg1503
I327541712
sg10
S'block'
p1583
sg6
g1505
sg1506
I1
sg24
I01
sg25
g26
sg1507
g1
(g1508
g1509
(dp1584
g22
g1526
(g1527
g1512
g1528
S'b'
tRp1585
(I1
(I18
I1
tg1530
I00
S'\x00\x00\x80?\x00\x00\x80?\x00\x00\x80?\x00\x00\x80?\x00\x00\x80?\x00\x00\x80?\x00\x00\x80?\x00\x00\x80?\x00\x00\x80?\x00\x00\x80?\x00\x00\x80?\x00\x00\x80?\x00\x00\x80?\x00\x00\x80?\x00\x00\x80?\x00\x00\x80?\x00\x00\x80?\x00\x00\x80?'
S'\x00\x00\x00\x00\x00\x00\x00\x00\x00\x00\x00\x00\x00\x00\x00\x00\x00\x00'
Ntbsg19
g1511
(g1512
(I0
tS'b'
tRp1586
(I1
(I18
I1
tg1515
I00
(lp1587
g188
ag126
ag240
ag281
ag265
ag231
ag179
ag169
ag215
ag160
ag197
ag249
ag273
ag206
ag137
ag223
ag149
ag257
atbsg23
g1526
(g1527
g1512
g1528
S'b'
tRp1588
(I1
(I18
I1
tg1530
I00
S"\x16\xac\xd3?\x81/'@T\x8f\xb4?\xafu\x03@h\xdf\x86@\x86h\x9d@\xc0f+@[[8@\xb1,}@`3\xae@\xc9\x91\x90@4\xed\xb9@1\xf8\xc7@\xe5/x@\x13\xc5gA]F\x85@W3P@\xcf\r\xfa@"
S'\x00\x00\x00\x00\x00\x00\x00\x00\x00\x00\x00\x00\x00\x00\x00\x00\x00\x00'
Ntbsg1525
g1526
(g1527
g1512
g1528
S'b'
tRp1589
(I1
(I18
I1
tg1530
I00
S'\x00\x00\x80?\x00\x00\x80?\x00\x00\x80?\x00\x00\x80?\x00\x00\x80?\x00\x00\x80?\x00\x00\x80?\x00\x00\x80?\x00\x00\x80?\x00\x00\x80?\x00\x00\x80?\x00\x00\x80?\x00\x00\x80?\x00\x00\x80?\x00\x00\x80?\x00\x00\x80?\x00\x00\x80?\x00\x00\x80?'
S'\x00\x00\x00\x00\x00\x00\x00\x00\x00\x00\x00\x00\x00\x00\x00\x00\x00\x00'
Ntbsg21
g1511
(g1512
(I0
tS'b'
tRp1590
(I1
(I18
I1
tg1515
I00
(lp1591
S'1'
aS'4'
aS'9'
aS'6'
aS'6'
aS'7'
aS'8'
aS'2'
aS'1'
aS'9'
aS'1'
aS'2'
aS'1'
aS'3'
aS'7'
aS'1'
aS'5'
aS'7'
atbsg1540
g1526
(g1527
g1512
g1528
S'b'
tRp1592
(I1
(I18
I1
tg1530
I00
S'\x00\x00\xc0@\x00\x00\x00\x00\x00\x00@A\x00\x00\x88A\x00\x00pA\x00\x000A\x00\x00\xa0@\x00\x00\x80@\x00\x00\x10A\x00\x00@@\x00\x00\xe0@\x00\x00PA\x00\x00\x80A\x00\x00\x00A\x00\x00\x80?\x00\x00 A\x00\x00\x00@\x00\x00`A'
S'\x00\x00\x00\x00\x00\x00\x00\x00\x00\x00\x00\x00\x00\x00\x00\x00\x00\x00'
Ntbsg20
g1526
(g1527
g1512
g1528
S'b'
tRp1593
(I1
(I18
I1
tg1530
I00
S'\x8d\xbe\x93?cp\xf9?\x06\x882@\xab\x9d\xb2?\xc4,\xa0?*\x96\x0f@\xf9\xfcE@-\x82\xfa?|\xed\x95?/h\x90?\x1f4\xd7?\xd3e\xec?;#Q@\x9bE\xac?\xd74\x01@\x0b\xab\xe5?\xbaf\x08@\xe1\xb7\x93?'
S'\x00\x00\x00\x00\x00\x00\x00\x00\x00\x00\x00\x00\x00\x00\x00\x00\x00\x00'
NtbstRp1594
(dp1595
g1545
(dp1596
g1525
I01
sg21
I00
sg20
I01
sg22
I01
sg19
I00
sg23
I01
sg1540
I01
ssg1547
g1580
sg1548
(lp1597
g1525
ag1540
ag19
ag20
ag21
ag22
ag23
asg1550
(lp1598
I18
aI1
asbsg1552
g1553
sg1554
g1511
(g1512
(I0
tS'b'
tRp1599
(I1
(I18
I1
tg1515
I00
(lp1600
I1
aI14
aI16
aI9
aI7
aI6
aI0
aI10
aI13
aI8
aI15
aI5
aI2
aI11
aI17
aI4
aI12
aI3
atbsg1557
I01
sg1558
I1
sg1559
I-1
sg1560
(lp1601
g1
(g1562
g1509
(dp1602
g51
g186
sVY
L2L
sg53
L2L
sg54
g187
sg55
L1L
sg56
L1L
sg52
g127
sVX
L9L
sg57
L0L
sg58
g190
sg59
L0L
sg60
g130
stRp1603
ag1
(g1562
g1509
(dp1604
g51
g124
sVY
L4L
sg53
L2L
sg54
g125
sg55
L4L
sg56
L4L
sg52
g127
sVX
L3L
sg57
L0L
sg58
g129
sg59
L0L
sg60
g130
stRp1605
ag1
(g1562
g1509
(dp1606
g51
g238
sVY
L4L
sg53
L2L
sg54
g239
sg55
L9L
sg56
L9L
sg52
g129
sVX
L2L
sg57
L0L
sg58
g140
sg59
L0L
sg60
g242
stRp1607
ag1
(g1562
g1509
(dp1608
g51
g279
sVY
L6L
sg53
L2L
sg54
g280
sg55
L6L
sg56
L6L
sg52
g190
sVX
L8L
sg57
L0L
sg58
g141
sg59
L0L
sg60
g242
stRp1609
ag1
(g1562
g1509
(dp1610
g51
g263
sVY
L4L
sg53
L3L
sg54
g264
sg55
L6L
sg56
L6L
sg52
g151
sVX
L6L
sg57
g138
sg58
g152
sg59
L0L
sg60
g233
stRp1611
ag1
(g1562
g1509
(dp1612
g51
g229
sVY
L9L
sg53
L3L
sg54
g230
sg55
L7L
sg56
L7L
sg52
g181
sVX
L9L
sg57
g151
sg58
g190
sg59
L0L
sg60
g233
stRp1613
ag1
(g1562
g1509
(dp1614
g51
g177
sVY
L4L
sg53
L3L
sg54
g178
sg55
L8L
sg56
L8L
sg52
g129
sVX
L3L
sg57
g127
sg58
g181
sg59
L0L
sg60
g172
stRp1615
ag1
(g1562
g1509
(dp1616
g51
g167
sVY
L2L
sg53
L3L
sg54
g168
sg55
L2L
sg56
L2L
sg52
g170
sVX
L4L
sg57
g138
sg58
g140
sg59
L0L
sg60
g172
stRp1617
ag1
(g1562
g1509
(dp1618
g51
g213
sVY
L2L
sg53
L3L
sg54
g214
sg55
L1L
sg56
L1L
sg52
g138
sVX
L8L
sg57
g170
sg58
g151
sg59
L0L
sg60
g162
stRp1619
ag1
(g1562
g1509
(dp1620
g51
g158
sVY
L3L
sg53
L3L
sg54
g159
sg55
L9L
sg56
L9L
sg52
g138
sVX
L2L
sg57
g129
sg58
g141
sg59
L0L
sg60
g162
stRp1621
ag1
(g1562
g1509
(dp1622
g51
g195
sVY
L3L
sg53
L4L
sg54
g196
sg55
L1L
sg56
L1L
sg52
g151
sVX
L6L
sg57
g127
sg58
g170
sg59
g181
sg60
g199
stRp1623
ag1
(g1562
g1509
(dp1624
g51
g247
sVY
L2L
sg53
L4L
sg54
g248
sg55
L2L
sg56
L2L
sg52
g151
sVX
L3L
sg57
g127
sg58
g129
sg59
g181
sg60
g199
stRp1625
ag1
(g1562
g1509
(dp1626
g51
g271
sVY
L9L
sg53
L4L
sg54
g272
sg55
L1L
sg56
L1L
sg52
g170
sVX
L3L
sg57
g141
sg58
g151
sg59
g181
sg60
g208
stRp1627
ag1
(g1562
g1509
(dp1628
g51
g204
sVY
L3L
sg53
L4L
sg54
g205
sg55
L3L
sg56
L3L
sg52
g190
sVX
L6L
sg57
g140
sg58
g141
sg59
g138
sg60
g208
stRp1629
ag1
(g1562
g1509
(dp1630
g51
g135
sVY
L2L
sg53
L4L
sg54
g136
sg55
L7L
sg56
L7L
sg52
g138
sVX
L2L
sg57
g129
sg58
g140
sg59
g141
sg60
g142
stRp1631
ag1
(g1562
g1509
(dp1632
g51
g221
sVY
L2L
sg53
L4L
sg54
g222
sg55
L1L
sg56
L1L
sg52
g140
sVX
L8L
sg57
g190
sg58
g127
sg59
g138
sg60
g142
stRp1633
ag1
(g1562
g1509
(dp1634
g51
g147
sVY
L2L
sg53
L4L
sg54
g148
sg55
L5L
sg56
L5L
sg52
g138
sVX
L2L
sg57
g141
sg58
g151
sg59
g152
sg60
g153
stRp1635
ag1
(g1562
g1509
(dp1636
g51
g255
sVY
L2L
sg53
L4L
sg54
g256
sg55
L7L
sg56
L7L
sg52
g141
sVX
L2L
sg57
g138
sg58
g140
sg59
g152
sg60
g153
stRp1637
asg1575
Nsg1576
I3
sg1577
I18
sg1578
I0
sg1579
I18
sbag1
(g1497
g3
NtRp1638
(dp1639
g1500
Nsg1501
(lp1640
sg1503
I327541712
sg10
g1583
sg6
g1505
sg1506
I1
sg24
I01
sg25
g26
sg1507
g1
(g1508
g1509
(dp1641
g22
g1526
(g1527
g1512
g1528
S'b'
tRp1642
(I1
(I18
I1
tg1530
I00
S'\x00\x00\x80?\x00\x00\x80?\x00\x00\x80?\x00\x00\x80?\x00\x00\x80?\x00\x00\x80?\x00\x00\x80?\x00\x00\x80?\x00\x00\x80?\x00\x00\x80?\x00\x00\x80?\x00\x00\x80?\x00\x00\x80?\x00\x00\x80?\x00\x00\x80?\x00\x00\x00\x00\x00\x00\x80?\x00\x00\x80?'
S'\x00\x00\x00\x00\x00\x00\x00\x00\x00\x00\x00\x00\x00\x00\x00\x00\x00\x00'
Ntbsg19
g1511
(g1512
(I0
tS'b'
tRp1643
(I1
(I18
I1
tg1515
I00
(lp1644
g358
ag453
ag429
ag411
ag350
ag313
ag386
ag367
ag437
ag377
ag324
ag342
ag420
ag445
ag334
ag294
ag394
ag403
atbsg23
g1526
(g1527
g1512
g1528
S'b'
tRp1645
(I1
(I18
I1
tg1530
I00
S'\xbd\x0e\xe0?1v\xcd?\xb8\xeb\xb2?W\xda\xd1?\xffF*@\xe8\xf8l@\xcbsV@z)V@,\xb4\x82@\rU*@\xf5q\x90@8]R@\x18\xe4n@c\x89\xb9@\x9a\x9b\xaa@&\xff\xb5@\x9d\xc0\xda@\xcf\xbb\xeb@'
S'\x00\x00\x00\x00\x00\x00\x00\x00\x00\x00\x00\x00\x00\x00\x00\x00\x00\x00'
Ntbsg1525
g1526
(g1527
g1512
g1528
S'b'
tRp1646
(I1
(I18
I1
tg1530
I00
S'\x00\x00\x80?\x00\x00\x80?\x00\x00\x80?\x00\x00\x80?\x00\x00\x80?\x00\x00\x80?\x00\x00\x80?\x00\x00\x80?\x00\x00\x80?\x00\x00\x80?\x00\x00\x80?\x00\x00\x80?\x00\x00\x80?\x00\x00\x80?\x00\x00\x80?\x00\x00\x80?\x00\x00\x80?\x00\x00\x80?'
S'\x00\x00\x00\x00\x00\x00\x00\x00\x00\x00\x00\x00\x00\x00\x00\x00\x00\x00'
Ntbsg21
g1511
(g1512
(I0
tS'b'
tRp1647
(I1
(I18
I1
tg1515
I00
(lp1648
S'7'
aS'2'
aS'8'
aS'6'
aS'7'
aS'8'
aS'2'
aS'5'
aS'6'
aS'5'
aS'9'
aS'8'
aS'6'
aS'3'
aS'5'
aS'1'
aS'3'
aS'1'
atbsg1540
g1526
(g1527
g1512
g1528
S'b'
tRp1649
(I1
(I18
I1
tg1530
I00
S'\x00\x00\xc0@\x00\x00\x88A\x00\x00`A\x00\x00@A\x00\x00\xa0@\x00\x00\x80?\x00\x00\x10A\x00\x00\xe0@\x00\x00pA\x00\x00\x00A\x00\x00\x00@\x00\x00\x80@\x00\x00PA\x00\x00\x80A\x00\x00@@\x00\x00\x00\x00\x00\x00 A\x00\x000A'
S'\x00\x00\x00\x00\x00\x00\x00\x00\x00\x00\x00\x00\x00\x00\x00\x00\x00\x00'
Ntbsg20
g1526
(g1527
g1512
g1528
S'b'
tRp1650
(I1
(I18
I1
tg1530
I00
S')(\xaa?\x01\x07k?\xc0\xa4\xcd?\x91\xb6\x9a?\x88\x91\xd5?1\xca\xc0?f\r\x8a?\xb3g\x98?\\\xca\x85?S\x977@R\xb9\x82@\x96_;@\x1bg\x08@\x91PQ@=\xd2G@\x8a\x8bn@d3\xdb@\x1bo\xd5?'
S'\x00\x00\x00\x00\x00\x00\x00\x00\x00\x00\x00\x00\x00\x00\x00\x00\x00\x00'
NtbstRp1651
(dp1652
g1545
(dp1653
g1525
I01
sg21
I00
sg20
I01
sg22
I01
sg19
I00
sg23
I01
sg1540
I01
ssg1547
g1638
sg1548
(lp1654
g1525
ag1540
ag19
ag20
ag21
ag22
ag23
asg1550
(lp1655
I18
aI1
asbsg1552
g1553
sg1554
g1511
(g1512
(I0
tS'b'
tRp1656
(I1
(I18
I1
tg1515
I00
(lp1657
I15
aI5
aI10
aI14
aI11
aI4
aI0
aI7
aI9
aI6
aI16
aI17
aI3
aI12
aI2
aI8
aI13
aI1
atbsg1557
I01
sg1558
I1
sg1559
I-1
sg1560
(lp1658
g1
(g1562
g1509
(dp1659
g287
g356
sVY
L5L
sg289
L2L
sg290
g357
sg298
L7L
sg295
L7L
sg296
g301
sVX
L3L
sg292
L0L
sg300
g315
sg302
L0L
sg304
g360
stRp1660
ag1
(g1562
g1509
(dp1661
g287
g451
sVY
L4L
sg289
L2L
sg290
g452
sg298
L2L
sg295
L2L
sg296
g301
sVX
L9L
sg292
L0L
sg300
g455
sg302
L0L
sg304
g360
stRp1662
ag1
(g1562
g1509
(dp1663
g287
g427
sVY
L3L
sg289
L2L
sg290
g428
sg298
L8L
sg295
L8L
sg296
g333
sVX
L3L
sg292
L0L
sg300
g301
sg302
L0L
sg304
g413
stRp1664
ag1
(g1562
g1509
(dp1665
g287
g409
sVY
L8L
sg289
L2L
sg290
g410
sg298
L6L
sg295
L6L
sg296
g315
sVX
L4L
sg292
L0L
sg300
g312
sg302
L0L
sg304
g413
stRp1666
ag1
(g1562
g1509
(dp1667
g287
g348
sVY
L5L
sg289
L3L
sg290
g349
sg298
L7L
sg295
L7L
sg296
g303
sVX
L2L
sg292
g301
sg300
g315
sg302
L0L
sg304
g316
stRp1668
ag1
(g1562
g1509
(dp1669
g287
g310
sVY
L2L
sg289
L3L
sg290
g311
sg298
L8L
sg295
L8L
sg296
g297
sVX
L4L
sg292
g312
sg300
g315
sg302
L0L
sg304
g316
stRp1670
ag1
(g1562
g1509
(dp1671
g287
g384
sVY
L3L
sg289
L3L
sg290
g385
sg298
L2L
sg295
L2L
sg296
g293
sVX
L3L
sg292
g369
sg300
g303
sg302
L0L
sg304
g370
stRp1672
ag1
(g1562
g1509
(dp1673
g287
g365
sVY
L3L
sg289
L3L
sg290
g366
sg298
L5L
sg295
L5L
sg296
g315
sVX
L2L
sg292
g312
sg300
g369
sg302
L0L
sg304
g370
stRp1674
ag1
(g1562
g1509
(dp1675
g287
g435
sVY
L4L
sg289
L3L
sg290
g436
sg298
L6L
sg295
L6L
sg296
g323
sVX
L5L
sg292
g315
sg300
g303
sg302
L0L
sg304
g379
stRp1676
ag1
(g1562
g1509
(dp1677
g287
g375
sVY
L3L
sg289
L3L
sg290
g376
sg298
L5L
sg295
L5L
sg296
g369
sVX
L3L
sg292
g333
sg300
g312
sg302
L0L
sg304
g379
stRp1678
ag1
(g1562
g1509
(dp1679
g287
g321
sVY
L4L
sg289
L4L
sg290
g322
sg298
L9L
sg295
L9L
sg296
g301
sVX
L9L
sg292
g323
sg300
g315
sg302
g303
sg304
g326
stRp1680
ag1
(g1562
g1509
(dp1681
g287
g340
sVY
L2L
sg289
L4L
sg290
g341
sg298
L8L
sg295
L8L
sg296
g297
sVX
L2L
sg292
g303
sg300
g315
sg302
g301
sg304
g326
stRp1682
ag1
(g1562
g1509
(dp1683
g287
g418
sVY
L6L
sg289
L4L
sg290
g419
sg298
L6L
sg295
L6L
sg296
g315
sVX
L6L
sg292
g323
sg300
g301
sg302
g312
sg304
g422
stRp1684
ag1
(g1562
g1509
(dp1685
g287
g443
sVY
L2L
sg289
L4L
sg290
g444
sg298
L3L
sg295
L3L
sg296
g293
sVX
L9L
sg292
g303
sg300
g301
sg302
g323
sg304
g422
stRp1686
ag1
(g1562
g1509
(dp1687
g287
g331
sVY
L3L
sg289
L4L
sg290
g332
sg298
L5L
sg295
L5L
sg296
g303
sVX
L3L
sg292
g333
sg300
g301
sg302
g323
sg304
g305
stRp1688
ag1
(g1562
g1509
(dp1689
g287
g288
sVY
L3L
sg289
L4L
sg290
g291
sg298
L8L
sg295
L8L
sg296
g297
sVX
L3L
sg292
g293
sg300
g301
sg302
g303
sg304
g305
stRp1690
ag1
(g1562
g1509
(dp1691
g287
g392
sVY
L4L
sg289
L4L
sg290
g393
sg298
L3L
sg295
L3L
sg296
g312
sVX
L3L
sg292
g323
sg300
g369
sg302
g333
sg304
g396
stRp1692
ag1
(g1562
g1509
(dp1693
g287
g401
sVY
L2L
sg289
L4L
sg290
g402
sg298
L1L
sg295
L1L
sg296
g312
sVX
L7L
sg292
g369
sg300
g323
sg302
g293
sg304
g396
stRp1694
asg1575
Nsg1576
I1
sg1577
I18
sg1578
I0
sg1579
I18
sbag1
(g1497
g3
NtRp1695
(dp1696
g1500
Nsg1501
(lp1697
sg1503
I327541712
sg10
g1583
sg6
g1505
sg1506
I1
sg24
I01
sg25
g26
sg1507
g1
(g1508
g1509
(dp1698
g22
g1526
(g1527
g1512
g1528
S'b'
tRp1699
(I1
(I18
I1
tg1530
I00
S'\x00\x00\x80?\x00\x00\x80?\x00\x00\x80?\x00\x00\x80?\x00\x00\x80?\x00\x00\x80?\x00\x00\x80?\x00\x00\x80?\x00\x00\x80?\x00\x00\x80?\x00\x00\x80?\x00\x00\x80?\x00\x00\x80?\x00\x00\x80?\x00\x00\x80?\x00\x00\x80?\x00\x00\x80?\x00\x00\x80?'
S'\x00\x00\x00\x00\x00\x00\x00\x00\x00\x00\x00\x00\x00\x00\x00\x00\x00\x00'
Ntbsg19
g1511
(g1512
(I0
tS'b'
tRp1700
(I1
(I18
I1
tg1515
I00
(lp1701
g485
ag586
ag619
ag577
ag497
ag569
ag602
ag611
ag527
ag627
ag536
ag561
ag545
ag507
ag467
ag553
ag517
ag594
atbsg23
g1526
(g1527
g1512
g1528
S'b'
tRp1702
(I1
(I18
I1
tg1530
I00
S'\xbb\x9b\x00@eu2@\xaf\x95\xd1?@O\x03@\x92E\x9b@+\xdbi@o\xd9;@LR_@\x95\x14H@\x94<J@\xd2\x87\xa3@KO\x9f@\x01\x1ft@\x08\x11\xa5@\x7f\xdf=@\xbfc\xdf@Dm\x7f@\x8cn\rA'
S'\x00\x00\x00\x00\x00\x00\x00\x00\x00\x00\x00\x00\x00\x00\x00\x00\x00\x00'
Ntbsg1525
g1526
(g1527
g1512
g1528
S'b'
tRp1703
(I1
(I18
I1
tg1530
I00
S'\x00\x00\x80?\x00\x00\x80?\x00\x00\x80?\x00\x00\x80?\x00\x00\x80?\x00\x00\x80?\x00\x00\x80?\x00\x00\x80?\x00\x00\x80?\x00\x00\x80?\x00\x00\x80?\x00\x00\x80?\x00\x00\x80?\x00\x00\x80?\x00\x00\x80?\x00\x00\x80?\x00\x00\x80?\x00\x00\x80?'
S'\x00\x00\x00\x00\x00\x00\x00\x00\x00\x00\x00\x00\x00\x00\x00\x00\x00\x00'
Ntbsg21
g1511
(g1512
(I0
tS'b'
tRp1704
(I1
(I18
I1
tg1515
I00
(lp1705
S'7'
aS'9'
aS'2'
aS'5'
aS'9'
aS'3'
aS'8'
aS'3'
aS'9'
aS'6'
aS'5'
aS'9'
aS'5'
aS'7'
aS'6'
aS'9'
aS'5'
aS'5'
atbsg1540
g1526
(g1527
g1512
g1528
S'b'
tRp1706
(I1
(I18
I1
tg1530
I00
S'\x00\x00\x80?\x00\x00@A\x00\x00\x80A\x00\x000A\x00\x00\x00@\x00\x00 A\x00\x00`A\x00\x00pA\x00\x00\xa0@\x00\x00\x88A\x00\x00\xc0@\x00\x00\x10A\x00\x00\xe0@\x00\x00@@\x00\x00\x00\x00\x00\x00\x00A\x00\x00\x80@\x00\x00PA'
S'\x00\x00\x00\x00\x00\x00\x00\x00\x00\x00\x00\x00\x00\x00\x00\x00\x00\x00'
Ntbsg20
g1526
(g1527
g1512
g1528
S'b'
tRp1707
(I1
(I18
I1
tg1530
I00
S'\xcf\x90\xd9?\x8d/\x8e?\xea\xc3\xaa?\xa4\x9b7@\xe6L\xd9?\xff_\xf6@\xc0z\xa6?\xa0\x8f/@\x98\x18#@\xdb#x@\xc8\xda\xb4@YM!@To\x06A2\xdco@\xd4\x1e\xbb@\xa7\x9c\xd3@\np2@\xcey\x03@'
S'\x00\x00\x00\x00\x00\x00\x00\x00\x00\x00\x00\x00\x00\x00\x00\x00\x00\x00'
NtbstRp1708
(dp1709
g1545
(dp1710
g1525
I01
sg21
I00
sg20
I01
sg22
I01
sg19
I00
sg23
I01
sg1540
I01
ssg1547
g1695
sg1548
(lp1711
g1525
ag1540
ag19
ag20
ag21
ag22
ag23
asg1550
(lp1712
I18
aI1
asbsg1552
g1553
sg1554
g1511
(g1512
(I0
tS'b'
tRp1713
(I1
(I18
I1
tg1515
I00
(lp1714
I14
aI0
aI4
aI13
aI16
aI8
aI10
aI12
aI15
aI11
aI5
aI3
aI1
aI17
aI6
aI7
aI2
aI9
atbsg1557
I01
sg1558
I1
sg1559
I-1
sg1560
(lp1715
g1
(g1562
g1509
(dp1716
g460
g483
sVY
L5L
sg462
L2L
sg463
g484
sg471
L7L
sg468
L7L
sg469
g486
sVX
L4L
sg465
L0L
sg473
g488
sg475
L0L
sg477
g489
stRp1717
ag1
(g1562
g1509
(dp1718
g460
g584
sVY
L3L
sg462
L2L
sg463
g585
sg471
L9L
sg468
L9L
sg469
g474
sVX
L4L
sg465
L0L
sg473
g466
sg475
L0L
sg477
g489
stRp1719
ag1
(g1562
g1509
(dp1720
g460
g617
sVY
L8L
sg462
L2L
sg463
g618
sg471
L2L
sg468
L2L
sg469
g499
sVX
L8L
sg465
L0L
sg473
g470
sg475
L0L
sg477
g579
stRp1721
ag1
(g1562
g1509
(dp1722
g460
g575
sVY
L2L
sg462
L2L
sg463
g576
sg471
L5L
sg468
L5L
sg469
g499
sVX
L8L
sg465
L0L
sg473
g476
sg475
L0L
sg477
g579
stRp1723
ag1
(g1562
g1509
(dp1724
g460
g494
sVY
L2L
sg462
L3L
sg463
g495
sg471
L9L
sg468
L9L
sg469
g474
sVX
L7L
sg465
g496
sg473
g499
sg475
L0L
sg477
g500
stRp1725
ag1
(g1562
g1509
(dp1726
g460
g567
sVY
L2L
sg462
L3L
sg463
g568
sg471
L3L
sg468
L3L
sg469
g476
sVX
L8L
sg465
g486
sg473
g466
sg475
L0L
sg477
g500
stRp1727
ag1
(g1562
g1509
(dp1728
g460
g600
sVY
L2L
sg462
L3L
sg463
g601
sg471
L8L
sg468
L8L
sg469
g508
sVX
L9L
sg465
g496
sg473
g486
sg475
L0L
sg477
g604
stRp1729
ag1
(g1562
g1509
(dp1730
g460
g609
sVY
L3L
sg462
L3L
sg463
g610
sg471
L3L
sg468
L3L
sg469
g499
sVX
L2L
sg465
g474
sg473
g476
sg475
L0L
sg477
g604
stRp1731
ag1
(g1562
g1509
(dp1732
g460
g525
sVY
L3L
sg462
L3L
sg463
g526
sg471
L9L
sg468
L9L
sg469
g486
sVX
L3L
sg465
g488
sg473
g474
sg475
L0L
sg477
g529
stRp1733
ag1
(g1562
g1509
(dp1734
g460
g625
sVY
L2L
sg462
L3L
sg463
g626
sg471
L6L
sg468
L6L
sg469
g476
sVX
L3L
sg465
g466
sg473
g474
sg475
L0L
sg477
g529
stRp1735
ag1
(g1562
g1509
(dp1736
g460
g534
sVY
L4L
sg462
L4L
sg463
g535
sg471
L5L
sg468
L5L
sg469
g470
sVX
L3L
sg465
g476
sg473
g499
sg475
g474
sg477
g538
stRp1737
ag1
(g1562
g1509
(dp1738
g460
g559
sVY
L9L
sg462
L4L
sg463
g560
sg471
L9L
sg468
L9L
sg469
g486
sVX
L3L
sg465
g476
sg473
g508
sg475
g518
sg477
g538
stRp1739
ag1
(g1562
g1509
(dp1740
g460
g543
sVY
L4L
sg462
L4L
sg463
g544
sg471
L5L
sg468
L5L
sg469
g466
sVX
L5L
sg465
g496
sg473
g486
sg475
g474
sg477
g510
stRp1741
ag1
(g1562
g1509
(dp1742
g460
g505
sVY
L2L
sg462
L4L
sg463
g506
sg471
L7L
sg468
L7L
sg469
g508
sVX
L2L
sg465
g474
sg473
g476
sg475
g486
sg477
g510
stRp1743
ag1
(g1562
g1509
(dp1744
g460
g461
sVY
L4L
sg462
L4L
sg463
g464
sg471
L6L
sg468
L6L
sg469
g470
sVX
L4L
sg465
g466
sg473
g474
sg475
g476
sg477
g478
stRp1745
ag1
(g1562
g1509
(dp1746
g460
g551
sVY
L8L
sg462
L4L
sg463
g552
sg471
L9L
sg468
L9L
sg469
g476
sVX
L8L
sg465
g499
sg473
g474
sg475
g470
sg477
g478
stRp1747
ag1
(g1562
g1509
(dp1748
g460
g515
sVY
L4L
sg462
L4L
sg463
g516
sg471
L5L
sg468
L5L
sg469
g518
sVX
L5L
sg465
g470
sg473
g496
sg475
g488
sg477
g520
stRp1749
ag1
(g1562
g1509
(dp1750
g460
g592
sVY
L4L
sg462
L4L
sg463
g593
sg471
L5L
sg468
L5L
sg469
g476
sVX
L7L
sg465
g486
sg473
g518
sg475
g508
sg477
g520
stRp1751
asg1575
Nsg1576
I9
sg1577
I18
sg1578
I0
sg1579
I18
sbag1
(g1497
g3
NtRp1752
(dp1753
g1500
Nsg1501
(lp1754
sg1503
I327541712
sg10
g1583
sg6
g1505
sg1506
I1
sg24
I01
sg25
g26
sg1507
g1
(g1508
g1509
(dp1755
g22
g1526
(g1527
g1512
g1528
S'b'
tRp1756
(I1
(I18
I1
tg1530
I00
S'\x00\x00\x80?\x00\x00\x80?\x00\x00\x80?\x00\x00\x80?\x00\x00\x80?\x00\x00\x80?\x00\x00\x80?\x00\x00\x80?\x00\x00\x80?\x00\x00\x80?\x00\x00\x80?\x00\x00\x80?\x00\x00\x80?\x00\x00\x80?\x00\x00\x80?\x00\x00\x80?\x00\x00\x80?\x00\x00\x00\x00'
S'\x00\x00\x00\x00\x00\x00\x00\x00\x00\x00\x00\x00\x00\x00\x00\x00\x00\x00'
Ntbsg19
g1511
(g1512
(I0
tS'b'
tRp1757
(I1
(I18
I1
tg1515
I00
(lp1758
g690
ag768
ag699
ag658
ag792
ag680
ag741
ag759
ag750
ag784
ag724
ag733
ag640
ag716
ag707
ag776
ag669
ag800
atbsg23
g1526
(g1527
g1512
g1528
S'b'
tRp1759
(I1
(I18
I1
tg1530
I00
S"\xf7\x03\x1a@5\xad\xf8?\xdc\xb9\x18@h\xff\xbe?\xf5N\xaf@6^\x9e@\xaa'J@k]u@)\xff\x91@\xd2 *@\x8dV~@\xa5o\xa3@\x15/\x81@*\x13\tAw;\x98@'1\x96@\xfbHM@\xd0^OA"
S'\x00\x00\x00\x00\x00\x00\x00\x00\x00\x00\x00\x00\x00\x00\x00\x00\x00\x00'
Ntbsg1525
g1526
(g1527
g1512
g1528
S'b'
tRp1760
(I1
(I18
I1
tg1530
I00
S'\x00\x00\x80?\x00\x00\x80?\x00\x00\x80?\x00\x00\x80?\x00\x00\x80?\x00\x00\x80?\x00\x00\x80?\x00\x00\x80?\x00\x00\x80?\x00\x00\x80?\x00\x00\x80?\x00\x00\x80?\x00\x00\x80?\x00\x00\x80?\x00\x00\x80?\x00\x00\x80?\x00\x00\x80?\x00\x00\x80?'
S'\x00\x00\x00\x00\x00\x00\x00\x00\x00\x00\x00\x00\x00\x00\x00\x00\x00\x00'
Ntbsg21
g1511
(g1512
(I0
tS'b'
tRp1761
(I1
(I18
I1
tg1515
I00
(lp1762
S'7'
aS'2'
aS'8'
aS'8'
aS'4'
aS'4'
aS'9'
aS'2'
aS'5'
aS'1'
aS'2'
aS'8'
aS'3'
aS'4'
aS'7'
aS'6'
aS'8'
aS'2'
atbsg1540
g1526
(g1527
g1512
g1528
S'b'
tRp1763
(I1
(I18
I1
tg1530
I00
S'\x00\x00\x80@\x00\x00PA\x00\x00\xa0@\x00\x00\x80?\x00\x00\x80A\x00\x00@@\x00\x00 A\x00\x00@A\x00\x000A\x00\x00pA\x00\x00\x00A\x00\x00\x10A\x00\x00\x00\x00\x00\x00\xe0@\x00\x00\xc0@\x00\x00`A\x00\x00\x00@\x00\x00\x88A'
S'\x00\x00\x00\x00\x00\x00\x00\x00\x00\x00\x00\x00\x00\x00\x00\x00\x00\x00'
Ntbsg20
g1526
(g1527
g1512
g1528
S'b'
tRp1764
(I1
(I18
I1
tg1530
I00
S'\xa7@^?\xd2T/@\xaf\xfd\x93?\xbbp\x81?\xac\xee\xcc@\x04m\x81?\x02\x80\x02@\x9b\x01T@\t\xf9\x18@E\xd78@\x83Sb@@\x11\xe8@\xb4W\x95@T\xea\x9e@\xdaG\xf6?+\x8fj@(%O@x\xb3\x98@'
S'\x00\x00\x00\x00\x00\x00\x00\x00\x00\x00\x00\x00\x00\x00\x00\x00\x00\x00'
NtbstRp1765
(dp1766
g1545
(dp1767
g1525
I01
sg21
I00
sg20
I01
sg22
I01
sg19
I00
sg23
I01
sg1540
I01
ssg1547
g1752
sg1548
(lp1768
g1525
ag1540
ag19
ag20
ag21
ag22
ag23
asg1550
(lp1769
I18
aI1
asbsg1552
g1553
sg1554
g1511
(g1512
(I0
tS'b'
tRp1770
(I1
(I18
I1
tg1515
I00
(lp1771
I12
aI3
aI16
aI5
aI0
aI2
aI14
aI13
aI10
aI11
aI6
aI8
aI7
aI1
aI15
aI9
aI4
aI17
atbsg1557
I01
sg1558
I1
sg1559
I-1
sg1560
(lp1772
g1
(g1562
g1509
(dp1773
g633
g688
sVY
L6L
sg635
L2L
sg636
g689
sg644
L7L
sg641
L7L
sg642
g681
sVX
L3L
sg638
L0L
sg646
g672
sg648
L0L
sg650
g692
stRp1774
ag1
(g1562
g1509
(dp1775
g633
g766
sVY
L4L
sg635
L2L
sg636
g767
sg644
L2L
sg641
L2L
sg642
g647
sVX
L5L
sg638
L0L
sg646
g760
sg648
L0L
sg650
g692
stRp1776
ag1
(g1562
g1509
(dp1777
g633
g697
sVY
L2L
sg635
L2L
sg636
g698
sg644
L8L
sg641
L8L
sg642
g672
sVX
L2L
sg638
L0L
sg646
g661
sg648
L0L
sg650
g662
stRp1778
ag1
(g1562
g1509
(dp1779
g633
g656
sVY
L2L
sg635
L2L
sg636
g657
sg644
L8L
sg641
L8L
sg642
g659
sVX
L2L
sg638
L0L
sg646
g661
sg648
L0L
sg650
g662
stRp1780
ag1
(g1562
g1509
(dp1781
g633
g790
sVY
L3L
sg635
L3L
sg636
g791
sg644
L4L
sg641
L4L
sg642
g639
sVX
L8L
sg638
g649
sg646
g643
sg648
L0L
sg650
g683
stRp1782
ag1
(g1562
g1509
(dp1783
g633
g678
sVY
L2L
sg635
L3L
sg636
g679
sg644
L4L
sg641
L4L
sg642
g681
sVX
L3L
sg638
g661
sg646
g659
sg648
L0L
sg650
g683
stRp1784
ag1
(g1562
g1509
(dp1785
g633
g739
sVY
L2L
sg635
L3L
sg636
g740
sg644
L9L
sg641
L9L
sg642
g672
sVX
L2L
sg638
g639
sg646
g647
sg648
L0L
sg650
g743
stRp1786
ag1
(g1562
g1509
(dp1787
g633
g757
sVY
L2L
sg635
L3L
sg636
g758
sg644
L2L
sg641
L2L
sg642
g760
sVX
L9L
sg638
g681
sg646
g647
sg648
L0L
sg650
g743
stRp1788
ag1
(g1562
g1509
(dp1789
g633
g748
sVY
L4L
sg635
L3L
sg636
g749
sg644
L5L
sg641
L5L
sg642
g639
sVX
L8L
sg638
g643
sg646
g671
sg648
L0L
sg650
g752
stRp1790
ag1
(g1562
g1509
(dp1791
g633
g782
sVY
L6L
sg635
L3L
sg636
g783
sg644
L1L
sg641
L1L
sg642
g647
sVX
L8L
sg638
g760
sg646
g681
sg648
L0L
sg650
g752
stRp1792
ag1
(g1562
g1509
(dp1793
g633
g722
sVY
L3L
sg635
L4L
sg636
g723
sg644
L2L
sg641
L2L
sg642
g661
sVX
L6L
sg638
g647
sg646
g643
sg648
g681
sg650
g726
stRp1794
ag1
(g1562
g1509
(dp1795
g633
g731
sVY
L2L
sg635
L4L
sg636
g732
sg644
L8L
sg641
L8L
sg642
g647
sVX
L2L
sg638
g649
sg646
g659
sg648
g639
sg650
g726
stRp1796
ag1
(g1562
g1509
(dp1797
g633
g634
sVY
L3L
sg635
L4L
sg636
g637
sg644
L3L
sg641
L3L
sg642
g643
sVX
L4L
sg638
g639
sg646
g647
sg648
g649
sg650
g651
stRp1798
ag1
(g1562
g1509
(dp1799
g633
g714
sVY
L3L
sg635
L4L
sg636
g715
sg644
L4L
sg641
L4L
sg642
g659
sVX
L7L
sg638
g649
sg646
g681
sg648
g647
sg650
g651
stRp1800
ag1
(g1562
g1509
(dp1801
g633
g705
sVY
L4L
sg635
L4L
sg636
g706
sg644
L7L
sg641
L7L
sg642
g647
sVX
L8L
sg638
g672
sg646
g681
sg648
g661
sg650
g709
stRp1802
ag1
(g1562
g1509
(dp1803
g633
g774
sVY
L3L
sg635
L4L
sg636
g775
sg644
L6L
sg641
L6L
sg642
g661
sVX
L5L
sg638
g760
sg646
g639
sg648
g671
sg650
g709
stRp1804
ag1
(g1562
g1509
(dp1805
g633
g667
sVY
L2L
sg635
L4L
sg636
g668
sg644
L8L
sg641
L8L
sg642
g639
sVX
L4L
sg638
g649
sg646
g671
sg648
g672
sg650
g673
stRp1806
ag1
(g1562
g1509
(dp1807
g633
g798
sVY
L5L
sg635
L4L
sg636
g799
sg644
L3L
sg641
L3L
sg642
g671
sVX
L9L
sg638
g649
sg646
g639
sg648
g760
sg650
g673
stRp1808
asg1575
Nsg1576
I17
sg1577
I18
sg1578
I0
sg1579
I18
sbag1
(g1497
g3
NtRp1809
(dp1810
g1500
Nsg1501
(lp1811
sg1503
I327541712
sg10
g1583
sg6
g1505
sg1506
I1
sg24
I01
sg25
g26
sg1507
g1
(g1508
g1509
(dp1812
g22
g1526
(g1527
g1512
g1528
S'b'
tRp1813
(I1
(I18
I1
tg1530
I00
S'\x00\x00\x80?\x00\x00\x80?\x00\x00\x80?\x00\x00\x80?\x00\x00\x80?\x00\x00\x80?\x00\x00\x80?\x00\x00\x80?\x00\x00\x80?\x00\x00\x80?\x00\x00\x80?\x00\x00\x00\x00\x00\x00\x80?\x00\x00\x80?\x00\x00\x80?\x00\x00\x80?\x00\x00\x80?\x00\x00\x80?'
S'\x00\x00\x00\x00\x00\x00\x00\x00\x00\x00\x00\x00\x00\x00\x00\x00\x00\x00'
Ntbsg19
g1511
(g1512
(I0
tS'b'
tRp1814
(I1
(I18
I1
tg1515
I00
(lp1815
g829
ag812
ag931
ag940
ag839
ag898
ag948
ag973
ag860
ag957
ag922
ag965
ag879
ag889
ag849
ag914
ag906
ag869
atbsg23
g1526
(g1527
g1512
g1528
S'b'
tRp1816
(I1
(I18
I1
tg1530
I00
S'K\\\xd7?\x0f2\xbf?{3\xc3?\x14\x94\xd1?^\xa2\x0e@\xfb\x15\x8b@\xa6&&@k\xecE@sHG@\xfeS,@\xc7\x97f@\x00\x00\x00\x00{\xdeg@\x9cY\x8b@G)\x0eA\x86\xcdj@\x07\x1du@Z\r\xa8@'
S'\x00\x00\x00\x00\x00\x00\x00\x00\x00\x00\x00\x01\x00\x00\x00\x00\x00\x00'
Ntbsg1525
g1526
(g1527
g1512
g1528
S'b'
tRp1817
(I1
(I18
I1
tg1530
I00
S'\x00\x00\x80?\x00\x00\x80?\x00\x00\x80?\x00\x00\x80?\x00\x00\x80?\x00\x00\x80?\x00\x00\x80?\x00\x00\x80?\x00\x00\x80?\x00\x00\x80?\x00\x00\x80?\x00\x00\x80?\x00\x00\x80?\x00\x00\x80?\x00\x00\x80?\x00\x00\x80?\x00\x00\x80?\x00\x00\x80?'
S'\x00\x00\x00\x00\x00\x00\x00\x00\x00\x00\x00\x00\x00\x00\x00\x00\x00\x00'
Ntbsg21
g1511
(g1512
(I0
tS'b'
tRp1818
(I1
(I18
I1
tg1515
I00
(lp1819
S'4'
aS'6'
aS'3'
aS'1'
aS'9'
aS'5'
aS'5'
aS'5'
aS'8'
aS'3'
aS'3'
aNaS'4'
aS'3'
aS'8'
aS'6'
aS'1'
aS'6'
atbsg1540
g1526
(g1527
g1512
g1528
S'b'
tRp1820
(I1
(I18
I1
tg1530
I00
S'\x00\x00\x80?\x00\x00\x00\x00\x00\x00@A\x00\x00PA\x00\x00\x00@\x00\x00\x00A\x00\x00`A\x00\x00\x88A\x00\x00\x80@\x00\x00pA\x00\x000A\x00\x00\x80A\x00\x00\xc0@\x00\x00\xe0@\x00\x00@@\x00\x00 A\x00\x00\x10A\x00\x00\xa0@'
S'\x00\x00\x00\x00\x00\x00\x00\x00\x00\x00\x00\x00\x00\x00\x00\x00\x00\x00'
Ntbsg20
g1526
(g1527
g1512
g1528
S'b'
tRp1821
(I1
(I18
I1
tg1530
I00
S'\xd8\xa9\xac?X\xb6\xad?\xe2\xdd{?\x1cu7@\xfcc+@\x14\t\xe2?g\x98\xcd@7\x19\xef?e\xd1?@\x06\xd3\xb0?\xe1\x95\x80@`\xfe\xeb?0\x91\x0b@\xfa\xe4-AI5\xf6?\xba\xa8\xe5@\xe21\x12A\xbd-\xd1?'
S'\x00\x00\x00\x00\x00\x00\x00\x00\x00\x00\x00\x00\x00\x00\x00\x00\x00\x00'
NtbstRp1822
(dp1823
g1545
(dp1824
g1525
I01
sg21
I00
sg20
I01
sg22
I01
sg19
I00
sg23
I01
sg1540
I01
ssg1547
g1809
sg1548
(lp1825
g1525
ag1540
ag19
ag20
ag21
ag22
ag23
asg1550
(lp1826
I18
aI1
asbsg1552
g1553
sg1554
g1511
(g1512
(I0
tS'b'
tRp1827
(I1
(I18
I1
tg1515
I00
(lp1828
I1
aI0
aI4
aI14
aI8
aI17
aI12
aI13
aI5
aI16
aI15
aI10
aI2
aI3
aI6
aI9
aI11
aI7
atbsg1557
I01
sg1558
I1
sg1559
I-1
sg1560
(lp1829
g1
(g1562
g1509
(dp1830
g806
g827
sVY
L2L
sg808
L2L
sg809
g828
sg816
L4L
sg813
L4L
sg814
g830
sVX
L3L
sg811
L0L
sg818
g819
sg820
L0L
sg821
g822
stRp1831
ag1
(g1562
g1509
(dp1832
g806
g807
sVY
L2L
sg808
L2L
sg809
g810
sg816
L6L
sg813
L6L
sg814
g815
sVX
L2L
sg811
L0L
sg818
g819
sg820
L0L
sg821
g822
stRp1833
ag1
(g1562
g1509
(dp1834
g806
g929
sVY
L5L
sg808
L2L
sg809
g930
sg816
L3L
sg813
L3L
sg814
g848
sVX
L4L
sg811
L0L
sg818
g852
sg820
L0L
sg821
g933
stRp1835
ag1
(g1562
g1509
(dp1836
g806
g938
sVY
L2L
sg808
L2L
sg809
g939
sg816
L1L
sg813
L1L
sg814
g890
sVX
L5L
sg811
L0L
sg818
g852
sg820
L0L
sg821
g933
stRp1837
ag1
(g1562
g1509
(dp1838
g806
g836
sVY
L3L
sg808
L3L
sg809
g837
sg816
L9L
sg813
L9L
sg814
g830
sVX
L8L
sg811
g838
sg818
g819
sg820
L0L
sg821
g841
stRp1839
ag1
(g1562
g1509
(dp1840
g806
g896
sVY
L5L
sg808
L3L
sg809
g897
sg816
L5L
sg813
L5L
sg814
g852
sVX
L6L
sg811
g838
sg818
g819
sg820
L0L
sg821
g841
stRp1841
ag1
(g1562
g1509
(dp1842
g806
g946
sVY
L7L
sg808
L3L
sg809
g947
sg816
L5L
sg813
L5L
sg814
g848
sVX
L7L
sg811
g815
sg818
g852
sg820
L0L
sg821
g950
stRp1843
ag1
(g1562
g1509
(dp1844
g806
g971
sVY
L5L
sg808
L3L
sg809
g972
sg816
L5L
sg813
L5L
sg814
g819
sVX
L4L
sg811
g830
sg818
g852
sg820
L0L
sg821
g950
stRp1845
ag1
(g1562
g1509
(dp1846
g806
g858
sVY
L5L
sg808
L3L
sg809
g859
sg816
L8L
sg813
L8L
sg814
g830
sVX
L5L
sg811
g819
sg818
g852
sg820
L0L
sg821
g862
stRp1847
ag1
(g1562
g1509
(dp1848
g806
g955
sVY
L2L
sg808
L3L
sg809
g956
sg816
L3L
sg813
L3L
sg814
g838
sVX
L4L
sg811
g880
sg818
g871
sg820
L0L
sg821
g862
stRp1849
ag1
(g1562
g1509
(dp1850
g806
g920
sVY
L5L
sg808
L4L
sg809
g921
sg816
L3L
sg813
L3L
sg814
g838
sVX
L5L
sg811
g815
sg818
g890
sg820
g871
sg821
g924
stRp1851
ag1
(g1562
g1509
(dp1852
g806
g963
sVY
L3L
sg808
L4L
sg809
g964
sg816
L9L
sg813
L9L
sg814
g815
sVX
L3L
sg811
g852
sg818
g819
sg820
g850
sg821
g924
stRp1853
ag1
(g1562
g1509
(dp1854
g806
g877
sVY
L6L
sg808
L4L
sg809
g878
sg816
L4L
sg813
L4L
sg814
g880
sVX
L3L
sg811
g871
sg818
g815
sg820
g850
sg821
g882
stRp1855
ag1
(g1562
g1509
(dp1856
g806
g887
sVY
L3L
sg808
L4L
sg809
g888
sg816
L3L
sg813
L3L
sg814
g890
sVX
L3L
sg811
g850
sg818
g871
sg820
g830
sg821
g882
stRp1857
ag1
(g1562
g1509
(dp1858
g806
g846
sVY
L2L
sg808
L4L
sg809
g847
sg816
L8L
sg813
L8L
sg814
g850
sVX
L9L
sg811
g848
sg818
g852
sg820
g815
sg821
g853
stRp1859
ag1
(g1562
g1509
(dp1860
g806
g912
sVY
L3L
sg808
L4L
sg809
g913
sg816
L6L
sg813
L6L
sg814
g838
sVX
L2L
sg811
g848
sg818
g871
sg820
g830
sg821
g853
stRp1861
ag1
(g1562
g1509
(dp1862
g806
g904
sVY
L2L
sg808
L4L
sg809
g905
sg816
L1L
sg813
L1L
sg814
g815
sVX
L8L
sg811
g838
sg818
g852
sg820
g880
sg821
g872
stRp1863
ag1
(g1562
g1509
(dp1864
g806
g867
sVY
L2L
sg808
L4L
sg809
g868
sg816
L6L
sg813
L6L
sg814
g830
sVX
L3L
sg811
g838
sg818
g871
sg820
g819
sg821
g872
stRp1865
asg1575
Nsg1576
I7
sg1577
I18
sg1578
I0
sg1579
I18
sbag1
(g1497
g3
NtRp1866
(dp1867
g1500
Nsg1501
(lp1868
sg1503
I327541712
sg10
g1583
sg6
g1505
sg1506
I1
sg24
I01
sg25
g26
sg1507
g1
(g1508
g1509
(dp1869
g22
g1526
(g1527
g1512
g1528
S'b'
tRp1870
(I1
(I18
I1
tg1530
I00
S'\x00\x00\x80?\x00\x00\x80?\x00\x00\x80?\x00\x00\x80?\x00\x00\x80?\x00\x00\x80?\x00\x00\x80?\x00\x00\x80?\x00\x00\x80?\x00\x00\x80?\x00\x00\x80?\x00\x00\x80?\x00\x00\x80?\x00\x00\x80?\x00\x00\x80?\x00\x00\x80?\x00\x00\x80?\x00\x00\x80?'
S'\x00\x00\x00\x00\x00\x00\x00\x00\x00\x00\x00\x00\x00\x00\x00\x00\x00\x00'
Ntbsg19
g1511
(g1512
(I0
tS'b'
tRp1871
(I1
(I18
I1
tg1515
I00
(lp1872
g1131
ag1014
ag985
ag1123
ag1139
ag1106
ag1115
ag1073
ag1098
ag1024
ag1054
ag1090
ag1002
ag1064
ag1082
ag1034
ag1147
ag1044
atbsg23
g1526
(g1527
g1512
g1528
S'b'
tRp1873
(I1
(I18
I1
tg1530
I00
S'\xdf\xf2\xdf?T\xa9\x11@\xd5\x83\x8e@G\x9b\x0c@ksY@1Z_@\x91\x15"@W\xe6;@\xbd\x0cM@\xd9\x1f\x80@\xb6]\x85@\x90\xe8\x8c@\x80W A\xb60\x87@\xe0\x84\x13AQ\xba\x13@|\xda\x86@\xb1Az@'
S'\x00\x00\x00\x00\x00\x00\x00\x00\x00\x00\x00\x00\x00\x00\x00\x00\x00\x00'
Ntbsg1525
g1526
(g1527
g1512
g1528
S'b'
tRp1874
(I1
(I18
I1
tg1530
I00
S'\x00\x00\x80?\x00\x00\x80?\x00\x00\x80?\x00\x00\x80?\x00\x00\x80?\x00\x00\x80?\x00\x00\x80?\x00\x00\x80?\x00\x00\x80?\x00\x00\x80?\x00\x00\x80?\x00\x00\x80?\x00\x00\x80?\x00\x00\x80?\x00\x00\x80?\x00\x00\x80?\x00\x00\x80?\x00\x00\x80?'
S'\x00\x00\x00\x00\x00\x00\x00\x00\x00\x00\x00\x00\x00\x00\x00\x00\x00\x00'
Ntbsg21
g1511
(g1512
(I0
tS'b'
tRp1875
(I1
(I18
I1
tg1515
I00
(lp1876
S'8'
aS'2'
aS'2'
aS'8'
aS'1'
aS'2'
aS'1'
aS'2'
aS'8'
aS'6'
aS'7'
aS'1'
aS'9'
aS'7'
aS'3'
aS'6'
aS'5'
aS'4'
atbsg1540
g1526
(g1527
g1512
g1528
S'b'
tRp1877
(I1
(I18
I1
tg1530
I00
S'\x00\x00pA\x00\x00\x00@\x00\x00\x00\x00\x00\x00`A\x00\x00\x80A\x00\x00@A\x00\x00PA\x00\x00\x00A\x00\x000A\x00\x00@@\x00\x00\xc0@\x00\x00 A\x00\x00\x80?\x00\x00\xe0@\x00\x00\x10A\x00\x00\x80@\x00\x00\x88A\x00\x00\xa0@'
S'\x00\x00\x00\x00\x00\x00\x00\x00\x00\x00\x00\x00\x00\x00\x00\x00\x00\x00'
Ntbsg20
g1526
(g1527
g1512
g1528
S'b'
tRp1878
(I1
(I18
I1
tg1530
I00
S'a\x9a\xb6?6/\xbd?o\x0c\xd3?\x0fD{?\x97|\xdd?h\x14\xb3?$\xad\xa6?\x916 @\xb0\x8a\x07@=\xa5\x82@\xf0\xc2\x9d@\xeff\xa0@\x0c\x0b\xd3@\xabYV@\x18r6@\xdd\x86\x01@\xb4\xeaC@\x0b\xfeH@'
S'\x00\x00\x00\x00\x00\x00\x00\x00\x00\x00\x00\x00\x00\x00\x00\x00\x00\x00'
NtbstRp1879
(dp1880
g1545
(dp1881
g1525
I01
sg21
I00
sg20
I01
sg22
I01
sg19
I00
sg23
I01
sg1540
I01
ssg1547
g1866
sg1548
(lp1882
g1525
ag1540
ag19
ag20
ag21
ag22
ag23
asg1550
(lp1883
I18
aI1
asbsg1552
g1553
sg1554
g1511
(g1512
(I0
tS'b'
tRp1884
(I1
(I18
I1
tg1515
I00
(lp1885
I2
aI12
aI1
aI9
aI15
aI17
aI10
aI13
aI7
aI14
aI11
aI8
aI5
aI6
aI3
aI0
aI4
aI16
atbsg1557
I01
sg1558
I1
sg1559
I-1
sg1560
(lp1886
g1
(g1562
g1509
(dp1887
g979
g1129
sVY
L4L
sg981
L2L
sg982
g1130
sg989
L8L
sg986
L8L
sg987
g992
sVX
L2L
sg984
L0L
sg991
g1003
sg993
L0L
sg994
g1017
stRp1888
ag1
(g1562
g1509
(dp1889
g979
g1012
sVY
L6L
sg981
L2L
sg982
g1013
sg989
L2L
sg986
L2L
sg987
g992
sVX
L6L
sg984
L0L
sg991
g1016
sg993
L0L
sg994
g1017
stRp1890
ag1
(g1562
g1509
(dp1891
g979
g980
sVY
L7L
sg981
L2L
sg982
g983
sg989
L2L
sg986
L2L
sg987
g988
sVX
L8L
sg984
L0L
sg991
g992
sg993
L0L
sg994
g995
stRp1892
ag1
(g1562
g1509
(dp1893
g979
g1121
sVY
L4L
sg981
L2L
sg982
g1122
sg989
L8L
sg986
L8L
sg987
g1065
sVX
L4L
sg984
L0L
sg991
g1056
sg993
L0L
sg994
g995
stRp1894
ag1
(g1562
g1509
(dp1895
g979
g1137
sVY
L4L
sg981
L3L
sg982
g1138
sg989
L1L
sg986
L1L
sg987
g992
sVX
L6L
sg984
g1006
sg991
g1016
sg993
L0L
sg994
g1108
stRp1896
ag1
(g1562
g1509
(dp1897
g979
g1104
sVY
L4L
sg981
L3L
sg982
g1105
sg989
L2L
sg986
L2L
sg987
g1056
sVX
L4L
sg984
g1025
sg991
g988
sg993
L0L
sg994
g1108
stRp1898
ag1
(g1562
g1509
(dp1899
g979
g1113
sVY
L7L
sg981
L3L
sg982
g1114
sg989
L1L
sg986
L1L
sg987
g988
sVX
L3L
sg984
g1025
sg991
g1056
sg993
L0L
sg994
g1075
stRp1900
ag1
(g1562
g1509
(dp1901
g979
g1071
sVY
L3L
sg981
L3L
sg982
g1072
sg989
L2L
sg986
L2L
sg987
g1016
sVX
L9L
sg984
g1006
sg991
g1053
sg993
L0L
sg994
g1075
stRp1902
ag1
(g1562
g1509
(dp1903
g979
g1096
sVY
L2L
sg981
L3L
sg982
g1097
sg989
L8L
sg986
L8L
sg987
g1036
sVX
L7L
sg984
g988
sg991
g992
sg993
L0L
sg994
g1027
stRp1904
ag1
(g1562
g1509
(dp1905
g979
g1022
sVY
L3L
sg981
L3L
sg982
g1023
sg989
L6L
sg986
L6L
sg987
g1025
sVX
L4L
sg984
g988
sg991
g992
sg993
L0L
sg994
g1027
stRp1906
ag1
(g1562
g1509
(dp1907
g979
g1051
sVY
L6L
sg981
L4L
sg982
g1052
sg989
L7L
sg986
L7L
sg987
g1006
sVX
L4L
sg984
g1053
sg991
g1003
sg993
g1056
sg994
g1057
stRp1908
ag1
(g1562
g1509
(dp1909
g979
g1088
sVY
L5L
sg981
L4L
sg982
g1089
sg989
L1L
sg986
L1L
sg987
g1053
sVX
L6L
sg984
g992
sg991
g1016
sg993
g1006
sg994
g1057
stRp1910
ag1
(g1562
g1509
(dp1911
g979
g1000
sVY
L4L
sg981
L4L
sg982
g1001
sg989
L9L
sg986
L9L
sg987
g1003
sVX
L9L
sg984
g992
sg991
g1005
sg993
g1006
sg994
g1007
stRp1912
ag1
(g1562
g1509
(dp1913
g979
g1062
sVY
L4L
sg981
L4L
sg982
g1063
sg989
L7L
sg986
L7L
sg987
g1065
sVX
L3L
sg984
g992
sg991
g1036
sg993
g1006
sg994
g1007
stRp1914
ag1
(g1562
g1509
(dp1915
g979
g1080
sVY
L6L
sg981
L4L
sg982
g1081
sg989
L3L
sg986
L3L
sg987
g1006
sVX
L4L
sg984
g1065
sg991
g1036
sg993
g1056
sg994
g1037
stRp1916
ag1
(g1562
g1509
(dp1917
g979
g1032
sVY
L8L
sg981
L4L
sg982
g1033
sg989
L6L
sg986
L6L
sg987
g1025
sVX
L9L
sg984
g1016
sg991
g992
sg993
g1036
sg994
g1037
stRp1918
ag1
(g1562
g1509
(dp1919
g979
g1145
sVY
L2L
sg981
L4L
sg982
g1146
sg989
L5L
sg986
L5L
sg987
g1056
sVX
L8L
sg984
g1025
sg991
g1036
sg993
g1016
sg994
g1046
stRp1920
ag1
(g1562
g1509
(dp1921
g979
g1042
sVY
L4L
sg981
L4L
sg982
g1043
sg989
L4L
sg986
L4L
sg987
g1036
sVX
L4L
sg984
g1025
sg991
g992
sg993
g1016
sg994
g1046
stRp1922
asg1575
Nsg1576
I16
sg1577
I18
sg1578
I0
sg1579
I18
sbag1
(g1497
g3
NtRp1923
(dp1924
g1500
Nsg1501
(lp1925
sg1503
I327541712
sg10
g1583
sg6
g1505
sg1506
I1
sg24
I01
sg25
g26
sg1507
g1
(g1508
g1509
(dp1926
g22
g1526
(g1527
g1512
g1528
S'b'
tRp1927
(I1
(I18
I1
tg1530
I00
S'\x00\x00\x80?\x00\x00\x80?\x00\x00\x80?\x00\x00\x80?\x00\x00\x80?\x00\x00\x80?\x00\x00\x80?\x00\x00\x80?\x00\x00\x80?\x00\x00\x80?\x00\x00\x80?\x00\x00\x80?\x00\x00\x80?\x00\x00\x80?\x00\x00\x80?\x00\x00\x80?\x00\x00\x80?\x00\x00\x80?'
S'\x00\x00\x00\x00\x00\x00\x00\x00\x00\x00\x00\x00\x00\x00\x00\x00\x00\x00'
Ntbsg19
g1511
(g1512
(I0
tS'b'
tRp1928
(I1
(I18
I1
tg1515
I00
(lp1929
g1312
ag1279
ag1189
ag1288
ag1228
ag1210
ag1254
ag1179
ag1320
ag1245
ag1304
ag1160
ag1199
ag1296
ag1262
ag1271
ag1219
ag1236
atbsg23
g1526
(g1527
g1512
g1528
S'b'
tRp1930
(I1
(I18
I1
tg1530
I00
S"y'\x03@\x1d\xc4\x14@\xce\xb9\x19@:\xfc\xf3?@>E@o@\xda@\\\x8d3@$\xb5o@eF\xac@\xe9k\x8c@\t=\x9a@\xfan2A)$U@\x0e\x0c\x8a@l\xec\x8a@Ra\x88@Y\xdf\x8a@\xfa\x94`@"
S'\x00\x00\x00\x00\x00\x00\x00\x00\x00\x00\x00\x00\x00\x00\x00\x00\x00\x00'
Ntbsg1525
g1526
(g1527
g1512
g1528
S'b'
tRp1931
(I1
(I18
I1
tg1530
I00
S'\x00\x00\x80?\x00\x00\x80?\x00\x00\x80?\x00\x00\x80?\x00\x00\x80?\x00\x00\x80?\x00\x00\x80?\x00\x00\x80?\x00\x00\x80?\x00\x00\x80?\x00\x00\x80?\x00\x00\x80?\x00\x00\x80?\x00\x00\x80?\x00\x00\x80?\x00\x00\x80?\x00\x00\x80?\x00\x00\x80?'
S'\x00\x00\x00\x00\x00\x00\x00\x00\x00\x00\x00\x00\x00\x00\x00\x00\x00\x00'
Ntbsg21
g1511
(g1512
(I0
tS'b'
tRp1932
(I1
(I18
I1
tg1515
I00
(lp1933
S'2'
aS'3'
aS'1'
aS'6'
aS'9'
aS'4'
aS'6'
aS'3'
aS'7'
aS'1'
aS'8'
aS'8'
aS'8'
aS'2'
aS'8'
aS'1'
aS'6'
aS'6'
atbsg1540
g1526
(g1527
g1512
g1528
S'b'
tRp1934
(I1
(I18
I1
tg1530
I00
S'\x00\x00\x80A\x00\x00@A\x00\x00\x00@\x00\x00PA\x00\x00\xc0@\x00\x00\x80@\x00\x00\x10A\x00\x00\x80?\x00\x00\x88A\x00\x00\x00A\x00\x00pA\x00\x00\x00\x00\x00\x00@@\x00\x00`A\x00\x00 A\x00\x000A\x00\x00\xa0@\x00\x00\xe0@'
S'\x00\x00\x00\x00\x00\x00\x00\x00\x00\x00\x00\x00\x00\x00\x00\x00\x00\x00'
Ntbsg20
g1526
(g1527
g1512
g1528
S'b'
tRp1935
(I1
(I18
I1
tg1530
I00
S'\xe6\xaf\r@}\x17\xa2?W\x86.@5T\x1f@\x10\xcd\xdf?\xbf\x87_@\xfb\x86\xac?z\xd6\x0b@\x90\xc9\xd1?\xc0P\x04@Q\xdd\xed?mB\xfe?\x8b\xbe\x18@\xeb\xd7\xcb@\x10\xf7\x1e@\xb0v\x10@\x0f\xfc\xb9@jc\xa2@'
S'\x00\x00\x00\x00\x00\x00\x00\x00\x00\x00\x00\x00\x00\x00\x00\x00\x00\x00'
NtbstRp1936
(dp1937
g1545
(dp1938
g1525
I01
sg21
I00
sg20
I01
sg22
I01
sg19
I00
sg23
I01
sg1540
I01
ssg1547
g1923
sg1548
(lp1939
g1525
ag1540
ag19
ag20
ag21
ag22
ag23
asg1550
(lp1940
I18
aI1
asbsg1552
g1553
sg1554
g1511
(g1512
(I0
tS'b'
tRp1941
(I1
(I18
I1
tg1515
I00
(lp1942
I11
aI7
aI2
aI12
aI5
aI16
aI4
aI17
aI9
aI6
aI14
aI15
aI1
aI3
aI13
aI10
aI0
aI8
atbsg1557
I01
sg1558
I1
sg1559
I-1
sg1560
(lp1943
g1
(g1562
g1509
(dp1944
g1153
g1310
sVY
L2L
sg1155
L2L
sg1156
g1311
sg1164
L2L
sg1161
L2L
sg1162
g1181
sVX
L3L
sg1158
L0L
sg1166
g1190
sg1168
L0L
sg1170
g1281
stRp1945
ag1
(g1562
g1509
(dp1946
g1153
g1277
sVY
L2L
sg1155
L2L
sg1156
g1278
sg1164
L3L
sg1161
L3L
sg1162
g1163
sVX
L6L
sg1158
L0L
sg1166
g1167
sg1168
L0L
sg1170
g1281
stRp1947
ag1
(g1562
g1509
(dp1948
g1153
g1187
sVY
L4L
sg1155
L2L
sg1156
g1188
sg1164
L1L
sg1161
L1L
sg1162
g1190
sVX
L8L
sg1158
L0L
sg1166
g1163
sg1168
L0L
sg1170
g1192
stRp1949
ag1
(g1562
g1509
(dp1950
g1153
g1286
sVY
L2L
sg1155
L2L
sg1156
g1287
sg1164
L6L
sg1161
L6L
sg1162
g1200
sVX
L3L
sg1158
L0L
sg1166
g1181
sg1168
L0L
sg1170
g1192
stRp1951
ag1
(g1562
g1509
(dp1952
g1153
g1226
sVY
L8L
sg1155
L3L
sg1156
g1227
sg1164
L9L
sg1161
L9L
sg1162
g1178
sVX
L6L
sg1158
g1202
sg1166
g1200
sg1168
L0L
sg1170
g1212
stRp1953
ag1
(g1562
g1509
(dp1954
g1153
g1208
sVY
L2L
sg1155
L3L
sg1156
g1209
sg1164
L4L
sg1161
L4L
sg1162
g1163
sVX
L3L
sg1158
g1159
sg1166
g1190
sg1168
L0L
sg1170
g1212
stRp1955
ag1
(g1562
g1509
(dp1956
g1153
g1252
sVY
L3L
sg1155
L3L
sg1156
g1253
sg1164
L6L
sg1161
L6L
sg1162
g1200
sVX
L3L
sg1158
g1159
sg1166
g1178
sg1168
L0L
sg1170
g1182
stRp1957
ag1
(g1562
g1509
(dp1958
g1153
g1176
sVY
L2L
sg1155
L3L
sg1156
g1177
sg1164
L3L
sg1161
L3L
sg1162
g1167
sVX
L8L
sg1158
g1178
sg1166
g1181
sg1168
L0L
sg1170
g1182
stRp1959
ag1
(g1562
g1509
(dp1960
g1153
g1318
sVY
L3L
sg1155
L3L
sg1156
g1319
sg1164
L7L
sg1161
L7L
sg1162
g1159
sVX
L6L
sg1158
g1190
sg1166
g1181
sg1168
L0L
sg1170
g1247
stRp1961
ag1
(g1562
g1509
(dp1962
g1153
g1243
sVY
L3L
sg1155
L3L
sg1156
g1244
sg1164
L1L
sg1161
L1L
sg1162
g1178
sVX
L3L
sg1158
g1200
sg1166
g1202
sg1168
L0L
sg1170
g1247
stRp1963
ag1
(g1562
g1509
(dp1964
g1153
g1302
sVY
L6L
sg1155
L4L
sg1156
g1303
sg1164
L8L
sg1161
L8L
sg1162
g1169
sVX
L6L
sg1158
g1163
sg1166
g1200
sg1168
g1202
sg1170
g1171
stRp1965
ag1
(g1562
g1509
(dp1966
g1153
g1154
sVY
L9L
sg1155
L4L
sg1156
g1157
sg1164
L8L
sg1161
L8L
sg1162
g1163
sVX
L3L
sg1158
g1159
sg1166
g1167
sg1168
g1169
sg1170
g1171
stRp1967
ag1
(g1562
g1509
(dp1968
g1153
g1197
sVY
L2L
sg1155
L4L
sg1156
g1198
sg1164
L8L
sg1161
L8L
sg1162
g1200
sVX
L3L
sg1158
g1181
sg1166
g1169
sg1168
g1202
sg1170
g1203
stRp1969
ag1
(g1562
g1509
(dp1970
g1153
g1294
sVY
L3L
sg1155
L4L
sg1156
g1295
sg1164
L2L
sg1161
L2L
sg1162
g1238
sVX
L2L
sg1158
g1169
sg1166
g1202
sg1168
g1163
sg1170
g1203
stRp1971
ag1
(g1562
g1509
(dp1972
g1153
g1260
sVY
L7L
sg1155
L4L
sg1156
g1261
sg1164
L8L
sg1161
L8L
sg1162
g1169
sVX
L6L
sg1158
g1200
sg1166
g1202
sg1168
g1163
sg1170
g1264
stRp1973
ag1
(g1562
g1509
(dp1974
g1153
g1269
sVY
L9L
sg1155
L4L
sg1156
g1270
sg1164
L1L
sg1161
L1L
sg1162
g1181
sVX
L9L
sg1158
g1190
sg1166
g1202
sg1168
g1169
sg1170
g1264
stRp1975
ag1
(g1562
g1509
(dp1976
g1153
g1217
sVY
L3L
sg1155
L4L
sg1156
g1218
sg1164
L6L
sg1161
L6L
sg1162
g1159
sVX
L9L
sg1158
g1181
sg1166
g1178
sg1168
g1190
sg1170
g1221
stRp1977
ag1
(g1562
g1509
(dp1978
g1153
g1234
sVY
L4L
sg1155
L4L
sg1156
g1235
sg1164
L6L
sg1161
L6L
sg1162
g1169
sVX
L2L
sg1158
g1181
sg1166
g1202
sg1168
g1238
sg1170
g1221
stRp1979
asg1575
Nsg1576
I8
sg1577
I18
sg1578
I0
sg1579
I18
sbag1
(g1497
g3
NtRp1980
(dp1981
g1500
Nsg1501
(lp1982
sg1503
I327541712
sg10
g1583
sg6
g1505
sg1506
I1
sg24
I01
sg25
g26
sg1507
g1
(g1508
g1509
(dp1983
g22
g1526
(g1527
g1512
g1528
S'b'
tRp1984
(I1
(I18
I1
tg1530
I00
S'\x00\x00\x80?\x00\x00\x80?\x00\x00\x80?\x00\x00\x80?\x00\x00\x80?\x00\x00\x80?\x00\x00\x80?\x00\x00\x80?\x00\x00\x80?\x00\x00\x80?\x00\x00\x80?\x00\x00\x80?\x00\x00\x80?\x00\x00\x80?\x00\x00\x80?\x00\x00\x80?\x00\x00\x80?\x00\x00\x80?'
S'\x00\x00\x00\x00\x00\x00\x00\x00\x00\x00\x00\x00\x00\x00\x00\x00\x00\x00'
Ntbsg19
g1511
(g1512
(I0
tS'b'
tRp1985
(I1
(I18
I1
tg1515
I00
(lp1986
g1477
ag1436
ag1401
ag1445
ag1461
ag1392
ag1485
ag1410
ag1374
ag1364
ag1382
ag1493
ag1352
ag1428
ag1469
ag1333
ag1453
ag1419
atbsg23
g1526
(g1527
g1512
g1528
S'b'
tRp1987
(I1
(I18
I1
tg1530
I00
S'\x16|\xc9?eN\xb7?\x15\x9b\r@\xa54$@B\rF@\x8b\x97\x0e@f\x10v@\xd9j\xdd@\x19\x16y@\x0f\xea\xa3@W\xd3\x13A\xcb\x10m@c\x89\xa7@\xee(\x8cA\xb9-z@\x9a\xae;A\xb6\xde\xdd@l/\xbf@'
S'\x00\x00\x00\x00\x00\x00\x00\x00\x00\x00\x00\x00\x00\x00\x00\x00\x00\x00'
Ntbsg1525
g1526
(g1527
g1512
g1528
S'b'
tRp1988
(I1
(I18
I1
tg1530
I00
S'\x00\x00\x80?\x00\x00\x80?\x00\x00\x80?\x00\x00\x80?\x00\x00\x80?\x00\x00\x80?\x00\x00\x80?\x00\x00\x80?\x00\x00\x80?\x00\x00\x80?\x00\x00\x80?\x00\x00\x80?\x00\x00\x80?\x00\x00\x80?\x00\x00\x80?\x00\x00\x80?\x00\x00\x80?\x00\x00\x80?'
S'\x00\x00\x00\x00\x00\x00\x00\x00\x00\x00\x00\x00\x00\x00\x00\x00\x00\x00'
Ntbsg21
g1511
(g1512
(I0
tS'b'
tRp1989
(I1
(I18
I1
tg1515
I00
(lp1990
S'1'
aS'8'
aS'4'
aS'1'
aS'3'
aS'9'
aS'1'
aS'6'
aS'6'
aS'8'
aS'8'
aS'1'
aS'6'
aS'7'
aS'5'
aS'5'
aS'5'
aS'3'
atbsg1540
g1526
(g1527
g1512
g1528
S'b'
tRp1991
(I1
(I18
I1
tg1530
I00
S'\x00\x00pA\x00\x00 A\x00\x00\xc0@\x00\x000A\x00\x00PA\x00\x00\xa0@\x00\x00\x80A\x00\x00\xe0@\x00\x00@@\x00\x00\x00@\x00\x00\x80@\x00\x00\x88A\x00\x00\x80?\x00\x00\x10A\x00\x00`A\x00\x00\x00\x00\x00\x00@A\x00\x00\x00A'
S'\x00\x00\x00\x00\x00\x00\x00\x00\x00\x00\x00\x00\x00\x00\x00\x00\x00\x00'
Ntbsg20
g1526
(g1527
g1512
g1528
S'b'
tRp1992
(I1
(I18
I1
tg1530
I00
S"\xfc\xb7E?\x85\xc2\x97?\xb7\xbf\x10@\xe8kf?`\t\xea?\x00\xc6\x15@\x85\xe4\x8b@\xad\xd0\x8d?\x8c\xf6\xb8?c\x91_@\xa1=Z@\xb7\xd0@@\x16|\x02@\xfaG\xb3?t\xb4\x97@\xdbG\xf7?\xcf)'@\xf5\xf8E@"
S'\x00\x00\x00\x00\x00\x00\x00\x00\x00\x00\x00\x00\x00\x00\x00\x00\x00\x00'
NtbstRp1993
(dp1994
g1545
(dp1995
g1525
I01
sg21
I00
sg20
I01
sg22
I01
sg19
I00
sg23
I01
sg1540
I01
ssg1547
g1980
sg1548
(lp1996
g1525
ag1540
ag19
ag20
ag21
ag22
ag23
asg1550
(lp1997
I18
aI1
asbsg1552
g1553
sg1554
g1511
(g1512
(I0
tS'b'
tRp1998
(I1
(I18
I1
tg1515
I00
(lp1999
I15
aI12
aI9
aI8
aI10
aI5
aI2
aI7
aI17
aI13
aI1
aI3
aI16
aI4
aI14
aI0
aI6
aI11
atbsg1557
I01
sg1558
I1
sg1559
I-1
sg1560
(lp2000
g1
(g1562
g1509
(dp2001
g1326
g1475
sVY
L3L
sg1328
L2L
sg1329
g1476
sg1337
L1L
sg1334
L1L
sg1335
g1340
sVX
L9L
sg1331
L0L
sg1339
g1353
sg1341
L0L
sg1343
g1438
stRp2002
ag1
(g1562
g1509
(dp2003
g1326
g1434
sVY
L2L
sg1328
L2L
sg1329
g1435
sg1337
L8L
sg1334
L8L
sg1335
g1355
sVX
L2L
sg1331
L0L
sg1339
g1332
sg1341
L0L
sg1343
g1438
stRp2004
ag1
(g1562
g1509
(dp2005
g1326
g1399
sVY
L3L
sg1328
L2L
sg1329
g1400
sg1337
L4L
sg1334
L4L
sg1335
g1384
sVX
L6L
sg1331
L0L
sg1339
g1356
sg1341
L0L
sg1343
g1403
stRp2006
ag1
(g1562
g1509
(dp2007
g1326
g1443
sVY
L2L
sg1328
L2L
sg1329
g1444
sg1337
L1L
sg1334
L1L
sg1335
g1353
sVX
L6L
sg1331
L0L
sg1339
g1340
sg1341
L0L
sg1343
g1403
stRp2008
ag1
(g1562
g1509
(dp2009
g1326
g1459
sVY
L9L
sg1328
L3L
sg1329
g1460
sg1337
L3L
sg1334
L3L
sg1335
g1351
sVX
L5L
sg1331
g1336
sg1339
g1384
sg1341
L0L
sg1343
g1394
stRp2010
ag1
(g1562
g1509
(dp2011
g1326
g1390
sVY
L3L
sg1328
L3L
sg1329
g1391
sg1337
L9L
sg1334
L9L
sg1335
g1342
sVX
L5L
sg1331
g1356
sg1339
g1332
sg1341
L0L
sg1343
g1394
stRp2012
ag1
(g1562
g1509
(dp2013
g1326
g1483
sVY
L2L
sg1328
L3L
sg1329
g1484
sg1337
L1L
sg1334
L1L
sg1335
g1353
sVX
L7L
sg1331
g1336
sg1339
g1340
sg1341
L0L
sg1343
g1412
stRp2014
ag1
(g1562
g1509
(dp2015
g1326
g1408
sVY
L6L
sg1328
L3L
sg1329
g1409
sg1337
L6L
sg1334
L6L
sg1335
g1332
sVX
L6L
sg1331
g1342
sg1339
g1340
sg1341
L0L
sg1343
g1412
stRp2016
ag1
(g1562
g1509
(dp2017
g1326
g1371
sVY
L2L
sg1328
L3L
sg1329
g1372
sg1337
L6L
sg1334
L6L
sg1335
g1336
sVX
L2L
sg1331
g1373
sg1339
g1355
sg1341
L0L
sg1343
g1366
stRp2018
ag1
(g1562
g1509
(dp2019
g1326
g1362
sVY
L6L
sg1328
L3L
sg1329
g1363
sg1337
L8L
sg1334
L8L
sg1335
g1340
sVX
L2L
sg1331
g1332
sg1339
g1355
sg1341
L0L
sg1343
g1366
stRp2020
ag1
(g1562
g1509
(dp2021
g1326
g1380
sVY
L4L
sg1328
L4L
sg1329
g1381
sg1337
L8L
sg1334
L8L
sg1335
g1355
sVX
L3L
sg1331
g1351
sg1339
g1384
sg1341
g1336
sg1343
g1385
stRp2022
ag1
(g1562
g1509
(dp2023
g1326
g1491
sVY
L8L
sg1328
L4L
sg1329
g1492
sg1337
L1L
sg1334
L1L
sg1335
g1351
sVX
L2L
sg1331
g1336
sg1339
g1384
sg1341
g1355
sg1343
g1385
stRp2024
ag1
(g1562
g1509
(dp2025
g1326
g1349
sVY
L5L
sg1328
L4L
sg1329
g1350
sg1337
L6L
sg1334
L6L
sg1335
g1353
sVX
L4L
sg1331
g1351
sg1339
g1355
sg1341
g1356
sg1343
g1357
stRp2026
ag1
(g1562
g1509
(dp2027
g1326
g1426
sVY
L3L
sg1328
L4L
sg1329
g1427
sg1337
L7L
sg1334
L7L
sg1335
g1373
sVX
L2L
sg1331
g1342
sg1339
g1356
sg1341
g1351
sg1343
g1357
stRp2028
ag1
(g1562
g1509
(dp2029
g1326
g1467
sVY
L3L
sg1328
L4L
sg1329
g1468
sg1337
L5L
sg1334
L5L
sg1335
g1351
sVX
L3L
sg1331
g1353
sg1339
g1336
sg1341
g1355
sg1343
g1344
stRp2030
ag1
(g1562
g1509
(dp2031
g1326
g1327
sVY
L4L
sg1328
L4L
sg1329
g1330
sg1337
L5L
sg1334
L5L
sg1335
g1336
sVX
L8L
sg1331
g1332
sg1339
g1340
sg1341
g1342
sg1343
g1344
stRp2032
ag1
(g1562
g1509
(dp2033
g1326
g1451
sVY
L2L
sg1328
L4L
sg1329
g1452
sg1337
L5L
sg1334
L5L
sg1335
g1351
sVX
L6L
sg1331
g1342
sg1339
g1336
sg1341
g1384
sg1343
g1421
stRp2034
ag1
(g1562
g1509
(dp2035
g1326
g1417
sVY
L2L
sg1328
L4L
sg1329
g1418
sg1337
L3L
sg1334
L3L
sg1335
g1351
sVX
L3L
sg1331
g1356
sg1339
g1342
sg1341
g1384
sg1343
g1421
stRp2036
asg1575
Nsg1576
I11
sg1577
I18
sg1578
I0
sg1579
I18
sbasS'savePickle'
p2037
I00
sb.