ccopy_reg
_reconstructor
p1
(cpsychopy.data
ExperimentHandler
p2
c__builtin__
object
p3
NtRp4
(dp5
S'originPath'
p6
NsS'dataFileName'
p7
VC:\u005cUsers\u005cexperimenter\u005cDesktop\u005cExperiments\u005cKRITL\u005cdata/31054_KRITL_2017_May_26_0911
p8
sS'runtimeInfo'
p9
NsS'name'
p10
S'KRITL'
p11
sS'dataNames'
p12
(lp13
S'practice_encoding.keys'
p14
aS'practice_encoding.rt'
p15
aS'practice_execution.keys'
p16
aS'practice_execution.corr'
p17
aS'practice_execution.rt'
p18
aS'encoding.keys'
p19
aS'encoding.rt'
p20
aS'execution.keys'
p21
aS'execution.corr'
p22
aS'execution.rt'
p23
asS'autoLog'
p24
I01
sS'extraInfo'
p25
(dp26
S'date'
p27
V2017_May_26_0911
p28
sS'frameRate'
p29
cnumpy.core.multiarray
scalar
p30
(cnumpy
dtype
p31
(S'f8'
I0
I1
tRp32
(I3
S'<'
NNNI-1
I-1
I0
tbS'\x1f\xa2\xd0\xd5\xa5\x00N@'
tRp33
sS'expName'
p34
g11
sVsession
p35
V002
p36
sVparticipant
p37
V31054
p38
ssS'loopsUnfinished'
p39
(lp40
sS'saveWideText'
p41
I00
sS'thisEntry'
p42
(dp43
sS'version'
p44
S''
sS'_paramNamesSoFar'
p45
(lp46
Voperationc
p47
aVoperationb
p48
aVoperationa
p49
aVcorrectresponse
p50
aVvaluey
p51
aVoperationd
p52
aVcondition
p53
aVvaluex
p54
aVRule
p55
aVOperatora
p56
aVLength
p57
aVIntermediate
p58
aVCorrectResponse
p59
aVResult
p60
aVY
aVX
aVOperatorc
p61
aVOperatorb
p62
aVOperatord
p63
aVStructure
p64
asS'entries'
p65
(lp66
(dp67
g18
F4.3164625272620469
sg29
g33
sg17
I1
sg47
L0L
sg48
Vdecrease
p68
sg49
VTIMES
p69
sg35
g36
sg50
L8L
sS'practice_trials.thisTrialN'
p70
I0
sg52
L0L
sS'practice_trials.thisRepN'
p71
I0
sg37
g38
sg53
L2L
sg27
g28
sg16
S'8'
sg14
(lp72
S'space'
p73
asS'practice_trials.thisIndex'
p74
I1
sS'practice_trials.thisN'
p75
I0
sg34
g11
sg15
(lp76
F2.8665561247617006
asg51
L3L
sg54
L3L
sa(dp77
g18
F9.3827116640750319
sg29
g33
sg17
I1
sg47
VADD
p78
sg48
Vtriple 
p79
sg49
Vhalf
p80
sg35
g36
sg50
L8L
sS'practice_trials.thisTrialN'
p81
I1
sg52
L0L
sS'practice_trials.thisRepN'
p82
I0
sg37
g38
sg53
L3L
sg27
g28
sg16
S'8'
sg14
(lp83
S'space'
p84
asS'practice_trials.thisIndex'
p85
I3
sS'practice_trials.thisN'
p86
I1
sg34
g11
sg15
(lp87
F3.8831321452744305
asg51
L2L
sg54
L4L
sa(dp88
g18
F1.7500207354314625
sg29
g33
sg17
I1
sg47
L0L
sg48
g78
sg49
g80
sg35
g36
sg50
L7L
sS'practice_trials.thisTrialN'
p89
I2
sg52
L0L
sS'practice_trials.thisRepN'
p90
I0
sg37
g38
sg53
L2L
sg27
g28
sg16
S'7'
sg14
(lp91
S'space'
p92
asS'practice_trials.thisIndex'
p93
I2
sS'practice_trials.thisN'
p94
I2
sg34
g11
sg15
(lp95
F1.8499776548705995
asg51
L5L
sg54
L4L
sa(dp96
g18
F4.3831302204634994
sg29
g33
sg17
I1
sg47
Vincrease
p97
sg48
VDIVIDE
p98
sg49
Vtriple
p99
sg35
g36
sg50
L3L
sS'practice_trials.thisTrialN'
p100
I3
sg52
L0L
sS'practice_trials.thisRepN'
p101
I0
sg37
g38
sg53
L3L
sg27
g28
sg16
S'3'
sg14
(lp102
S'space'
p103
asS'practice_trials.thisIndex'
p104
I4
sS'practice_trials.thisN'
p105
I3
sg34
g11
sg15
(lp106
F4.4997415519319475
asg51
L3L
sg54
L2L
sa(dp107
g18
F4.2831386546604335
sg29
g33
sg17
I1
sg47
g97
sg48
g98
sg49
Vdouble
p108
sg35
g36
sg50
L9L
sS'practice_trials.thisTrialN'
p109
I4
sg52
g99
sS'practice_trials.thisRepN'
p110
I0
sg37
g38
sg53
L4L
sg27
g28
sg16
S'9'
sg14
(lp111
S'space'
p112
asS'practice_trials.thisIndex'
p113
I5
sS'practice_trials.thisN'
p114
I4
sg34
g11
sg15
(lp115
F10.682548475917429
asg51
L8L
sg54
L8L
sa(dp116
g18
F1.6000480849761516
sg29
g33
sg17
I1
sg47
L0L
sg48
g78
sg49
g68
sg35
g36
sg50
L7L
sS'practice_trials.thisTrialN'
p117
I5
sg52
L0L
sS'practice_trials.thisRepN'
p118
I0
sg37
g38
sg53
L2L
sg27
g28
sg16
S'7'
sg14
(lp119
S'space'
p120
asS'practice_trials.thisIndex'
p121
I0
sS'practice_trials.thisN'
p122
I5
sg34
g11
sg15
(lp123
F2.7665596595034003
asg51
L5L
sg54
L3L
sa(dp124
S'block.thisTrialN'
p125
I0
sS'block.thisRepN'
p126
I0
sg29
g33
sS'block.thisN'
p127
I0
sg55
(S'DOUBLE'
S'TIMES'
S'x'
S'y'
tp128
sg27
g28
sg57
L2L
sg58
(I4
I8
tp129
sg22
I1
sg20
F3.0665550050325692
sg23
F1.866705909371376
sVY
L2L
sVX
L2L
sg61
L0L
sg35
g36
sg37
g38
sg21
S'8'
sg19
S'space'
p130
sg34
g11
sg60
L8L
sg56
VTIMES
p131
sg59
L8L
sS'block.thisIndex'
p132
I3
sg62
Vdouble
p133
sg63
L0L
sg64
VUBxy
p134
sa(dp135
S'block.thisTrialN'
p136
I1
sS'block.thisRepN'
p137
I0
sg29
g33
sS'block.thisN'
p138
I1
sg55
(S'DECREASE'
S'TRIPLE'
S'HALF'
S'ADD'
S'x'
S'y'
tp139
sg27
g28
sg57
L4L
sg58
(I6
I3
I9
I8
tp140
sg22
I1
sg20
F9.3993436784949154
sg23
F4.6331332826521248
sVY
L2L
sVX
L4L
sg61
Vhalf
p141
sg35
g36
sg37
g38
sg21
S'8'
sg19
S'space'
p142
sg34
g11
sg60
L8L
sg56
Vtriple
p143
sg59
L8L
sS'block.thisIndex'
p144
I16
sg62
Vdecrease
p145
sg63
VADD
p146
sg64
VUUUBxy
p147
sa(dp148
S'block.thisTrialN'
p149
I2
sS'block.thisRepN'
p150
I0
sg29
g33
sS'block.thisN'
p151
I2
sg55
(S'INCREASE'
S'ADD'
S'TRIPLE'
S'x'
S'y'
tp152
sg27
g28
sg57
L3L
sg58
(I6
I8
I9
tp153
sg22
I1
sg20
F10.315968728624284
sg23
F9.1327530471608043
sVY
L2L
sVX
L2L
sg61
g143
sg35
g36
sg37
g38
sg21
S'9'
sg19
S'space'
p154
sg34
g11
sg60
L9L
sg56
g146
sg59
L9L
sS'block.thisIndex'
p155
I6
sg62
Vincrease
p156
sg63
L0L
sg64
VUBUxy
p157
sa(dp158
S'block.thisTrialN'
p159
I3
sS'block.thisRepN'
p160
I0
sg29
g33
sS'block.thisN'
p161
I3
sg55
(S'DOUBLE'
S'ADD'
S'x'
S'y'
tp162
sg27
g28
sg57
L2L
sg58
(I4
I8
tp163
sg22
I1
sg20
F2.8832490327768028
sg23
F5.9830414694733918
sVY
L2L
sVX
L2L
sg61
L0L
sg35
g36
sg37
g38
sg21
S'8'
sg19
S'space'
p164
sg34
g11
sg60
L8L
sg56
g146
sg59
L8L
sS'block.thisIndex'
p165
I2
sg62
g133
sg63
L0L
sg64
g134
sa(dp166
S'block.thisTrialN'
p167
I4
sS'block.thisRepN'
p168
I0
sg29
g33
sS'block.thisN'
p169
I4
sg55
(S'INCREASE'
S'SUBTRACT'
S'THIRD'
S'x'
S'y'
tp170
sg27
g28
sg57
L3L
sg58
(I3
I1
I2
tp171
sg22
I1
sg20
F8.9328171606175601
sg23
F3.949749443680048
sVY
L2L
sVX
L9L
sg61
Vthird
p172
sg35
g36
sg37
g38
sg21
S'2'
sg19
S'space'
p173
sg34
g11
sg60
L2L
sg56
VSUBTRACT
p174
sg59
L2L
sS'block.thisIndex'
p175
I7
sg62
g156
sg63
L0L
sg64
g157
sa(dp176
S'block.thisTrialN'
p177
I5
sS'block.thisRepN'
p178
I0
sg29
g33
sS'block.thisN'
p179
I5
sg55
(S'TIMES'
S'INCREASE'
S'HALF'
S'TRIPLE'
S'x'
S'y'
tp180
sg27
g28
sg57
L4L
sg58
(I6
I3
I4
I8
tp181
sg22
I1
sg20
F9.5326836144085974
sg23
F5.3164205315988511
sVY
L2L
sVX
L2L
sg61
g141
sg35
g36
sg37
g38
sg21
S'8'
sg19
S'space'
p182
sg34
g11
sg60
L8L
sg56
g156
sg59
L8L
sS'block.thisIndex'
p183
I11
sg62
g131
sg63
g143
sg64
VBUUUxy
p184
sa(dp185
S'block.thisTrialN'
p186
I6
sS'block.thisRepN'
p187
I0
sg29
g33
sS'block.thisN'
p188
I6
sg55
(S'DIVIDE'
S'DOUBLE'
S'INCREASE'
S'THIRD'
S'x'
S'y'
tp189
sg27
g28
sg57
L4L
sg58
(I2
I3
I6
I2
tp190
sg22
I1
sg20
F12.315771699184552
sg23
F6.4830244965851307
sVY
L3L
sVX
L6L
sg61
g156
sg35
g36
sg37
g38
sg21
S'2'
sg19
S'space'
p191
sg34
g11
sg60
L2L
sg56
g133
sg59
L2L
sS'block.thisIndex'
p192
I10
sg62
VDIVIDE
p193
sg63
g172
sg64
g184
sa(dp194
S'block.thisTrialN'
p195
I7
sS'block.thisRepN'
p196
I0
sg29
g33
sS'block.thisN'
p197
I7
sg55
(S'DECREASE'
S'TRIPLE'
S'DIVIDE'
S'x'
S'y'
tp198
sg27
g28
sg57
L3L
sg58
(I2
I6
I5
tp199
sg22
I1
sg20
F6.5829299711622298
sg23
F4.1165413388516754
sVY
L4L
sVX
L8L
sg61
g193
sg35
g36
sg37
g38
sg21
S'5'
sg19
S'space'
p200
sg34
g11
sg60
L5L
sg56
g143
sg59
L5L
sS'block.thisIndex'
p201
I8
sg62
g145
sg63
L0L
sg64
VUUBxy
p202
sa(dp203
S'block.thisTrialN'
p204
I8
sS'block.thisRepN'
p205
I0
sg29
g33
sS'block.thisN'
p206
I8
sg55
(S'TRIPLE'
S'DECREASE'
S'HALF'
S'SUBTRACT'
S'x'
S'y'
tp207
sg27
g28
sg57
L4L
sg58
(I4
I2
I1
I3
tp208
sg22
I1
sg20
F15.748793063452467
sg23
F3.6167066965717822
sVY
L5L
sVX
L9L
sg61
g141
sg35
g36
sg37
g38
sg21
S'3'
sg19
S'space'
p209
sg34
g11
sg60
L3L
sg56
g145
sg59
L3L
sS'block.thisIndex'
p210
I17
sg62
g143
sg63
g174
sg64
g147
sa(dp211
S'block.thisTrialN'
p212
I9
sS'block.thisRepN'
p213
I0
sg29
g33
sS'block.thisN'
p214
I9
sg55
(S'INCREASE'
S'DIVIDE'
S'TRIPLE'
S'HALF'
S'x'
S'y'
tp215
sg27
g28
sg57
L4L
sg58
(I2
I6
I2
I3
tp216
sg22
I0
sg20
F4.883058302802965
sg23
F9.199220561189577
sVY
L3L
sVX
L4L
sg61
g143
sg35
g36
sg37
g38
sg21
S'1'
sg19
S'space'
p217
sg34
g11
sg60
L3L
sg56
g193
sg59
L3L
sS'block.thisIndex'
p218
I12
sg62
g156
sg63
g141
sg64
VUBUUxy
p219
sa(dp220
S'block.thisTrialN'
p221
I10
sS'block.thisRepN'
p222
I0
sg29
g33
sS'block.thisN'
p223
I10
sg55
(S'TRIPLE'
S'DOUBLE'
S'SUBTRACT'
S'DECREASE'
S'x'
S'y'
tp224
sg27
g28
sg57
L4L
sg58
(I4
I1
I2
I6
tp225
sg22
I1
sg20
F6.6329159550368786
sg23
F5.0164234363473952
sVY
L3L
sVX
L5L
sg61
g174
sg35
g36
sg37
g38
sg21
S'6'
sg19
S'space'
p226
sg34
g11
sg60
L6L
sg56
g133
sg59
L6L
sS'block.thisIndex'
p227
I15
sg62
g143
sg63
g145
sg64
VUUBUxy
p228
sa(dp229
S'block.thisTrialN'
p230
I11
sS'block.thisRepN'
p231
I0
sg29
g33
sS'block.thisN'
p232
I11
sg55
(S'SUBTRACT'
S'INCREASE'
S'x'
S'y'
tp233
sg27
g28
sg57
L2L
sg58
(I6
I2
tp234
sg22
I1
sg20
F2.4166392236948013
sg23
F2.1667180529329926
sVY
L4L
sVX
L5L
sg61
L0L
sg35
g36
sg37
g38
sg21
S'2'
sg19
S'space'
p235
sg34
g11
sg60
L2L
sg56
g156
sg59
L2L
sS'block.thisIndex'
p236
I1
sg62
g174
sg63
L0L
sg64
VBUxy
p237
sa(dp238
S'block.thisTrialN'
p239
I12
sS'block.thisRepN'
p240
I0
sg29
g33
sS'block.thisN'
p241
I12
sg55
(S'TIMES'
S'THIRD'
S'DOUBLE'
S'x'
S'y'
tp242
sg27
g28
sg57
L3L
sg58
(I6
I2
I4
tp243
sg22
I1
sg20
F6.0995947073679417
sg23
F4.8496878850273788
sVY
L2L
sVX
L3L
sg61
g133
sg35
g36
sg37
g38
sg21
S'4'
sg19
S'space'
p244
sg34
g11
sg60
L4L
sg56
g172
sg59
L4L
sS'block.thisIndex'
p245
I5
sg62
g131
sg63
L0L
sg64
VBUUxy
p246
sa(dp247
S'block.thisTrialN'
p248
I13
sS'block.thisRepN'
p249
I0
sg29
g33
sS'block.thisN'
p250
I13
sg55
(S'THIRD'
S'TIMES'
S'HALF'
S'INCREASE'
S'x'
S'y'
tp251
sg27
g28
sg57
L4L
sg58
(I8
I4
I12
I4
tp252
sg22
I1
sg20
F12.365848673740402
sg23
F12.065866976743564
sVY
L3L
sVX
L7L
sg61
g141
sg35
g36
sg37
g38
sg21
S'4'
sg19
S'space'
p253
sg34
g11
sg60
L4L
sg56
g131
sg59
L4L
sS'block.thisIndex'
p254
I13
sg62
g172
sg63
g156
sg64
g219
sa(dp255
S'block.thisTrialN'
p256
I14
sS'block.thisRepN'
p257
I0
sg29
g33
sS'block.thisN'
p258
I14
sg55
(S'ADD'
S'THIRD'
S'x'
S'y'
tp259
sg27
g28
sg57
L2L
sg58
(I1
I7
tp260
sg22
I1
sg20
F1.8664637345355004
sg23
F1.8167643705382943
sVY
L6L
sVX
L3L
sg61
L0L
sg35
g36
sg37
g38
sg21
S'7'
sg19
S'space'
p261
sg34
g11
sg60
L7L
sg56
g172
sg59
L7L
sS'block.thisIndex'
p262
I0
sg62
g146
sg63
L0L
sg64
g237
sa(dp263
S'block.thisTrialN'
p264
I15
sS'block.thisRepN'
p265
I0
sg29
g33
sS'block.thisN'
p266
I15
sg55
(S'THIRD'
S'INCREASE'
S'ADD'
S'DOUBLE'
S'x'
S'y'
tp267
sg27
g28
sg57
L4L
sg58
(I16
I20
I21
I7
tp268
sg22
I0
sg20
F9.5827584890648723
sVY
L4L
sVX
L8L
sg61
g146
sg35
g36
sg37
g38
sg21
Nsg19
S'space'
p269
sg34
g11
sg60
L7L
sg56
g156
sg59
L7L
sS'block.thisIndex'
p270
I14
sg62
g172
sg63
g133
sg64
g228
sa(dp271
S'block.thisTrialN'
p272
I16
sS'block.thisRepN'
p273
I0
sg29
g33
sS'block.thisN'
p274
I16
sg55
(S'THIRD'
S'INCREASE'
S'SUBTRACT'
S'x'
S'y'
tp275
sg27
g28
sg57
L3L
sg58
(I2
I3
I1
tp276
sg22
I1
sg20
F6.4329993163701147
sg23
F3.3830042337067425
sVY
L6L
sVX
L8L
sg61
g174
sg35
g36
sg37
g38
sg21
S'1'
sg19
S'space'
p277
sg34
g11
sg60
L1L
sg56
g156
sg59
L1L
sS'block.thisIndex'
p278
I9
sg62
g172
sg63
L0L
sg64
g202
sa(dp279
S'block.thisTrialN'
p280
I17
sS'block.thisRepN'
p281
I0
sg29
g33
sS'block.thisN'
p282
I17
sg55
(S'DIVIDE'
S'TRIPLE'
S'HALF'
S'x'
S'y'
tp283
sg27
g28
sg57
L3L
sg58
(I4
I12
I4
tp284
sg22
I1
sg20
F4.9663993061985821
sg23
F4.5998188590165228
sVY
L3L
sVX
L8L
sg61
g141
sg35
g36
sg37
g38
sg21
S'4'
sg19
S'space'
p285
sg34
g11
sg60
L4L
sg56
g143
sg59
L4L
sS'block.thisIndex'
p286
I4
sg62
g193
sg63
L0L
sg64
g246
sa(dp287
S'block.thisTrialN'
p288
I0
sS'block.thisRepN'
p289
I0
sg29
g33
sS'block.thisN'
p290
I0
sVRule
p291
(S'TRIPLE'
S'DECREASE'
S'HALF'
S'TIMES'
S'x'
S'y'
tp292
sg27
g28
sVLength
p293
L4L
sVIntermediate
p294
(I6
I3
I2
I6
tp295
sg22
I1
sg20
F6.1996436673216522
sg23
F7.0329357630107552
sVY
L2L
sVX
L3L
sVOperatorc
p296
Vhalf
p297
sg35
g36
sg37
g38
sg21
S'6'
sg19
S'space'
p298
sg34
g11
sVResult
p299
L6L
sVOperatora
p300
Vdecrease
p301
sVCorrectResponse
p302
L6L
sS'block.thisIndex'
p303
I17
sVOperatorb
p304
Vtriple
p305
sVOperatord
p306
VTIMES
p307
sVStructure
p308
VUUUBxy
p309
sa(dp310
S'block.thisTrialN'
p311
I1
sS'block.thisRepN'
p312
I0
sg29
g33
sS'block.thisN'
p313
I1
sg291
(S'TIMES'
S'DECREASE'
S'HALF'
S'x'
S'y'
tp314
sg27
g28
sg293
L3L
sg294
(I4
I3
I9
tp315
sg22
I1
sg20
F3.2665311375167221
sg23
F3.5165586969815195
sVY
L3L
sVX
L8L
sg296
g297
sg35
g36
sg37
g38
sg21
S'9'
sg19
S'space'
p316
sg34
g11
sg299
L9L
sg300
g301
sg302
L9L
sS'block.thisIndex'
p317
I4
sg304
g307
sg306
L0L
sg308
VBUUxy
p318
sa(dp319
S'block.thisTrialN'
p320
I2
sS'block.thisRepN'
p321
I0
sg29
g33
sS'block.thisN'
p322
I2
sg291
(S'THIRD'
S'DECREASE'
S'TIMES'
S'x'
S'y'
tp323
sg27
g28
sg293
L3L
sg294
(I25
I24
I8
tp324
sg22
I1
sg20
F4.1664706289302558
sg23
F4.7831244808621705
sVY
L5L
sVX
L5L
sg296
g307
sg35
g36
sg37
g38
sg21
S'8'
sg19
S'space'
p325
sg34
g11
sg299
L8L
sg300
g301
sg302
L8L
sS'block.thisIndex'
p326
I8
sg304
Vthird
p327
sg306
L0L
sg308
VUUBxy
p328
sa(dp329
S'block.thisTrialN'
p330
I3
sS'block.thisRepN'
p331
I0
sg29
g33
sS'block.thisN'
p332
I3
sg291
(S'TRIPLE'
S'SUBTRACT'
S'DOUBLE'
S'DECREASE'
S'x'
S'y'
tp333
sg27
g28
sg293
L4L
sg294
(I2
I4
I1
I3
tp334
sg22
I1
sg20
F9.3662206849548966
sg23
F5.3636015583761036
sVY
L3L
sVX
L3L
sg296
Vdouble
p335
sg35
g36
sg37
g38
sg21
S'3'
sg19
S'space'
p336
sg34
g11
sg299
L3L
sg300
VSUBTRACT
p337
sg302
L3L
sS'block.thisIndex'
p338
I13
sg304
g305
sg306
g301
sg308
VUBUUxy
p339
sa(dp340
S'block.thisTrialN'
p341
I4
sS'block.thisRepN'
p342
I0
sg29
g33
sS'block.thisN'
p343
I4
sg291
(S'TRIPLE'
S'HALF'
S'ADD'
S'DECREASE'
S'x'
S'y'
tp344
sg27
g28
sg293
L4L
sg294
(I1
I4
I2
I6
tp345
sg22
I1
sg20
F10.149332217173651
sg23
F4.5665142340585589
sVY
L3L
sVX
L2L
sg296
VADD
p346
sg35
g36
sg37
g38
sg21
S'6'
sg19
S'space'
p347
sg34
g11
sg299
L6L
sg300
g297
sg302
L6L
sS'block.thisIndex'
p348
I15
sg304
g305
sg306
g301
sg308
VUUBUxy
p349
sa(dp350
S'block.thisTrialN'
p351
I5
sS'block.thisRepN'
p352
I0
sg29
g33
sS'block.thisN'
p353
I5
sg291
(S'THIRD'
S'DOUBLE'
S'ADD'
S'INCREASE'
S'x'
S'y'
tp354
sg27
g28
sg293
L4L
sg294
(I10
I12
I24
I8
tp355
sg22
I1
sg20
F9.5492102899588645
sg23
F5.6830517235212028
sVY
L2L
sVX
L9L
sg296
g346
sg35
g36
sg37
g38
sg21
S'8'
sg19
S'space'
p356
sg34
g11
sg299
L8L
sg300
g335
sg302
L8L
sS'block.thisIndex'
p357
I14
sg304
g327
sg306
Vincrease
p358
sg308
g349
sa(dp359
S'block.thisTrialN'
p360
I6
sS'block.thisRepN'
p361
I0
sg29
g33
sS'block.thisN'
p362
I6
sg291
(S'TIMES'
S'INCREASE'
S'THIRD'
S'DOUBLE'
S'x'
S'y'
tp363
sg27
g28
sg293
L4L
sg294
(I6
I2
I3
I9
tp364
sg22
I1
sg20
F4.8664192892611027
sg23
F6.5663200044073164
sVY
L3L
sVX
L3L
sg296
g327
sg35
g36
sg37
g38
sg21
S'9'
sg19
S'space'
p365
sg34
g11
sg299
L9L
sg300
g358
sg302
L9L
sS'block.thisIndex'
p366
I11
sg304
g307
sg306
g335
sg308
VBUUUxy
p367
sa(dp368
S'block.thisTrialN'
p369
I7
sS'block.thisRepN'
p370
I0
sg29
g33
sS'block.thisN'
p371
I7
sg291
(S'THIRD'
S'TIMES'
S'DECREASE'
S'x'
S'y'
tp372
sg27
g28
sg293
L3L
sg294
(I3
I15
I5
tp373
sg22
I1
sg20
F4.999734727665782
sg23
F2.9497637921012938
sVY
L5L
sVX
L4L
sg296
g301
sg35
g36
sg37
g38
sg21
S'5'
sg19
S'space'
p374
sg34
g11
sg299
L5L
sg300
g307
sg302
L5L
sS'block.thisIndex'
p375
I7
sg304
g327
sg306
L0L
sg308
VUBUxy
p376
sa(dp377
S'block.thisTrialN'
p378
I8
sS'block.thisRepN'
p379
I0
sg29
g33
sS'block.thisN'
p380
I8
sg291
(S'TIMES'
S'INCREASE'
S'x'
S'y'
tp381
sg27
g28
sg293
L2L
sg294
(I3
I6
tp382
sg22
I1
sg20
F3.9997123300563544
sg23
F2.2499285200610757
sVY
L2L
sVX
L2L
sg296
L0L
sg35
g36
sg37
g38
sg21
S'6'
sg19
S'space'
p383
sg34
g11
sg299
L6L
sg300
g358
sg302
L6L
sS'block.thisIndex'
p384
I1
sg304
g307
sg306
L0L
sg308
VBUxy
p385
sa(dp386
S'block.thisTrialN'
p387
I9
sS'block.thisRepN'
p388
I0
sg29
g33
sS'block.thisN'
p389
I9
sg291
(S'THIRD'
S'INCREASE'
S'HALF'
S'DIVIDE'
S'x'
S'y'
tp390
sg27
g28
sg293
L4L
sg294
(I4
I2
I3
I1
tp391
sg22
I1
sg20
F6.6162723919842392
sg23
F4.7665026155300438
sVY
L2L
sVX
L8L
sg296
g297
sg35
g36
sg37
g38
sg21
S'1'
sg19
S'space'
p392
sg34
g11
sg299
L1L
sg300
g358
sg302
L1L
sS'block.thisIndex'
p393
I16
sg304
g327
sg306
VDIVIDE
p394
sg308
g309
sa(dp395
S'block.thisTrialN'
p396
I10
sS'block.thisRepN'
p397
I0
sg29
g33
sS'block.thisN'
p398
I10
sg291
(S'TIMES'
S'THIRD'
S'HALF'
S'x'
S'y'
tp399
sg27
g28
sg293
L3L
sg294
(I3
I1
I5
tp400
sg22
I1
sg20
F3.7497554628644139
sg23
F3.8832154364790767
sVY
L5L
sVX
L6L
sg296
g297
sg35
g36
sg37
g38
sg21
S'5'
sg19
S'space'
p401
sg34
g11
sg299
L5L
sg300
g327
sg302
L5L
sS'block.thisIndex'
p402
I5
sg304
g307
sg306
L0L
sg308
g318
sa(dp403
S'block.thisTrialN'
p404
I11
sS'block.thisRepN'
p405
I0
sg29
g33
sS'block.thisN'
p406
I11
sg291
(S'TRIPLE'
S'HALF'
S'DIVIDE'
S'x'
S'y'
tp407
sg27
g28
sg293
L3L
sg294
(I2
I1
I3
tp408
sg22
I1
sg20
F4.9330785830970854
sg23
F2.3499942780472338
sVY
L2L
sVX
L4L
sg296
g394
sg35
g36
sg37
g38
sg21
S'3'
sg19
S'space'
p409
sg34
g11
sg299
L3L
sg300
g297
sg302
L3L
sS'block.thisIndex'
p410
I9
sg304
g305
sg306
L0L
sg308
g328
sa(dp411
S'block.thisTrialN'
p412
I12
sS'block.thisRepN'
p413
I0
sg29
g33
sS'block.thisN'
p414
I12
sg291
(S'SUBTRACT'
S'HALF'
S'INCREASE'
S'TRIPLE'
S'x'
S'y'
tp415
sg27
g28
sg293
L4L
sg294
(I15
I16
I8
I3
tp416
sg22
I1
sg20
F7.5827119438908994
sg23
F5.0830960290040821
sVY
L5L
sVX
L5L
sg296
g358
sg35
g36
sg37
g38
sg21
S'3'
sg19
S'space'
p417
sg34
g11
sg299
L3L
sg300
g297
sg302
L3L
sS'block.thisIndex'
p418
I10
sg304
g337
sg306
g305
sg308
g367
sa(dp419
S'block.thisTrialN'
p420
I13
sS'block.thisRepN'
p421
I0
sg29
g33
sS'block.thisN'
p422
I13
sg291
(S'THIRD'
S'ADD'
S'INCREASE'
S'x'
S'y'
tp423
sg27
g28
sg293
L3L
sg294
(I8
I15
I5
tp424
sg22
I1
sg20
F2.04997618496418
sg23
F4.7331395468208939
sVY
L7L
sVX
L7L
sg296
g358
sg35
g36
sg37
g38
sg21
S'5'
sg19
S'space'
p425
sg34
g11
sg299
L5L
sg300
g346
sg302
L5L
sS'block.thisIndex'
p426
I6
sg304
g327
sg306
L0L
sg308
g376
sa(dp427
S'block.thisTrialN'
p428
I14
sS'block.thisRepN'
p429
I0
sg29
g33
sS'block.thisN'
p430
I14
sg291
(S'INCREASE'
S'DIVIDE'
S'TRIPLE'
S'DOUBLE'
S'x'
S'y'
tp431
sg27
g28
sg293
L4L
sg294
(I6
I18
I3
I4
tp432
sg22
I1
sg20
F9.6826860117726028
sg23
F6.7496427746955305
sVY
L6L
sVX
L3L
sg296
g305
sg35
g36
sg37
g38
sg21
S'4'
sg19
S'space'
p433
sg34
g11
sg299
L4L
sg300
g394
sg302
L4L
sS'block.thisIndex'
p434
I12
sg304
g358
sg306
g335
sg308
g339
sa(dp435
S'block.thisTrialN'
p436
I15
sS'block.thisRepN'
p437
I0
sg29
g33
sS'block.thisN'
p438
I15
sg291
(S'THIRD'
S'ADD'
S'x'
S'y'
tp439
sg27
g28
sg293
L2L
sg294
(I9
I3
tp440
sg22
I1
sg20
F2.2666375264525414
sg23
F3.283263941295445
sVY
L5L
sVX
L4L
sg296
L0L
sg35
g36
sg37
g38
sg21
S'3'
sg19
S'space'
p441
sg34
g11
sg299
L3L
sg300
g346
sg302
L3L
sS'block.thisIndex'
p442
I2
sg304
g327
sg306
L0L
sg308
VUBxy
p443
sa(dp444
S'block.thisTrialN'
p445
I16
sS'block.thisRepN'
p446
I0
sg29
g33
sS'block.thisN'
p447
I16
sg291
(S'THIRD'
S'SUBTRACT'
S'x'
S'y'
tp448
sg27
g28
sg293
L2L
sg294
(I3
I1
tp449
sg22
I1
sg20
F1.2667271171230823
sg23
F1.4667270469944924
sVY
L2L
sVX
L5L
sg296
L0L
sg35
g36
sg37
g38
sg21
S'1'
sg19
S'space'
p450
sg34
g11
sg299
L1L
sg300
g337
sg302
L1L
sS'block.thisIndex'
p451
I3
sg304
g327
sg306
L0L
sg308
g443
sa(dp452
S'block.thisTrialN'
p453
I17
sS'block.thisRepN'
p454
I0
sg29
g33
sS'block.thisN'
p455
I17
sg291
(S'TIMES'
S'DECREASE'
S'x'
S'y'
tp456
sg27
g28
sg293
L2L
sg294
(I2
I4
tp457
sg22
I1
sg20
F1.4667028996627778
sg23
F1.6667161283548921
sVY
L2L
sVX
L3L
sg296
L0L
sg35
g36
sg37
g38
sg21
S'4'
sg19
S'space'
p458
sg34
g11
sg299
L4L
sg300
g301
sg302
L4L
sS'block.thisIndex'
p459
I0
sg304
g307
sg306
L0L
sg308
g385
sa(dp460
S'block.thisTrialN'
p461
I0
sS'block.thisRepN'
p462
I0
sg29
g33
sS'block.thisN'
p463
I0
sVRule
p464
(S'ADD'
S'TRIPLE'
S'DOUBLE'
S'DECREASE'
S'x'
S'y'
tp465
sg27
g28
sVLength
p466
L4L
sVIntermediate
p467
(I1
I2
I6
I8
tp468
sg22
I1
sg20
F4.9664066552650183
sg23
F6.6996889873407781
sVY
L2L
sVX
L2L
sVOperatorc
p469
Vdouble
p470
sg35
g36
sg37
g38
sg21
S'8'
sg19
S'space'
p471
sg34
g11
sVResult
p472
L8L
sVOperatora
p473
Vtriple
p474
sVCorrectResponse
p475
L8L
sS'block.thisIndex'
p476
I11
sVOperatorb
p477
VADD
p478
sVOperatord
p479
Vdecrease
p480
sVStructure
p481
VBUUUxy
p482
sa(dp483
S'block.thisTrialN'
p484
I1
sS'block.thisRepN'
p485
I0
sg29
g33
sS'block.thisN'
p486
I1
sg464
(S'DECREASE'
S'SUBTRACT'
S'DOUBLE'
S'THIRD'
S'x'
S'y'
tp487
sg27
g28
sg466
L4L
sg467
(I3
I6
I4
I3
tp488
sg22
I0
sg20
F11.299228225369006
sg23
F7.0662764341104776
sVY
L2L
sVX
L9L
sg469
g470
sg35
g36
sg37
g38
sg21
S'2'
sg19
S'space'
p489
sg34
g11
sg472
L3L
sg473
VSUBTRACT
p490
sg475
L3L
sS'block.thisIndex'
p491
I13
sg477
g480
sg479
Vthird
p492
sg481
VUBUUxy
p493
sa(dp494
S'block.thisTrialN'
p495
I2
sS'block.thisRepN'
p496
I0
sg29
g33
sS'block.thisN'
p497
I2
sg464
(S'ADD'
S'DECREASE'
S'THIRD'
S'DOUBLE'
S'x'
S'y'
tp498
sg27
g28
sg466
L4L
sg467
(I18
I6
I5
I9
tp499
sg22
I1
sg20
F14.365613498259336
sg23
F5.6663749138824642
sVY
L4L
sVX
L9L
sg469
g492
sg35
g36
sg37
g38
sg21
S'9'
sg19
S'space'
p500
sg34
g11
sg472
L9L
sg473
g480
sg475
L9L
sS'block.thisIndex'
p501
I10
sg477
g478
sg479
g470
sg481
g482
sa(dp502
S'block.thisTrialN'
p503
I3
sS'block.thisRepN'
p504
I0
sg29
g33
sS'block.thisN'
p505
I3
sg464
(S'DECREASE'
S'TIMES'
S'x'
S'y'
tp506
sg27
g28
sg466
L2L
sg467
(I9
I8
tp507
sg22
I1
sg20
F1.3667053843382746
sg23
F3.3999113193713129
sVY
L3L
sVX
L3L
sg469
L0L
sg35
g36
sg37
g38
sg21
S'8'
sg19
S'space'
p508
sg34
g11
sg472
L8L
sg473
VTIMES
p509
sg475
L8L
sS'block.thisIndex'
p510
I2
sg477
g480
sg479
L0L
sg481
VUBxy
p511
sa(dp512
S'block.thisTrialN'
p513
I4
sS'block.thisRepN'
p514
I0
sg29
g33
sS'block.thisN'
p515
I4
sg464
(S'DECREASE'
S'DOUBLE'
S'TIMES'
S'THIRD'
S'x'
S'y'
tp516
sg27
g28
sg466
L4L
sg467
(I1
I3
I6
I5
tp517
sg22
I1
sg20
F9.2660373391117901
sg23
F4.8497956737410277
sVY
L3L
sVX
L3L
sg469
g509
sg35
g36
sg37
g38
sg21
S'5'
sg19
S'space'
p518
sg34
g11
sg472
L5L
sg473
g470
sg475
L5L
sS'block.thisIndex'
p519
I14
sg477
g480
sg479
g492
sg481
VUUBUxy
p520
sa(dp521
S'block.thisTrialN'
p522
I5
sS'block.thisRepN'
p523
I0
sg29
g33
sS'block.thisN'
p524
I5
sg464
(S'DECREASE'
S'TRIPLE'
S'SUBTRACT'
S'DOUBLE'
S'x'
S'y'
tp525
sg27
g28
sg466
L4L
sg467
(I6
I3
I9
I8
tp526
sg22
I1
sg20
F8.3327813243959099
sg23
F5.1997598549351096
sVY
L3L
sVX
L3L
sg469
g490
sg35
g36
sg37
g38
sg21
S'8'
sg19
S'space'
p527
sg34
g11
sg472
L8L
sg473
g474
sg475
L8L
sS'block.thisIndex'
p528
I15
sg477
g480
sg479
g470
sg481
g520
sa(dp529
S'block.thisTrialN'
p530
I6
sS'block.thisRepN'
p531
I0
sg29
g33
sS'block.thisN'
p532
I6
sg464
(S'THIRD'
S'HALF'
S'INCREASE'
S'SUBTRACT'
S'x'
S'y'
tp533
sg27
g28
sg466
L4L
sg467
(I5
I6
I3
I1
tp534
sg22
I1
sg20
F7.4495053440332413
sg23
F4.7164746357593685
sVY
L2L
sVX
L7L
sg469
Vincrease
p535
sg35
g36
sg37
g38
sg21
S'1'
sg19
S'space'
p536
sg34
g11
sg472
L1L
sg473
Vhalf
p537
sg475
L1L
sS'block.thisIndex'
p538
I17
sg477
g492
sg479
g490
sg481
VUUUBxy
p539
sa(dp540
S'block.thisTrialN'
p541
I7
sS'block.thisRepN'
p542
I0
sg29
g33
sS'block.thisN'
p543
I7
sg464
(S'ADD'
S'DECREASE'
S'x'
S'y'
tp544
sg27
g28
sg466
L2L
sg467
(I2
I7
tp545
sg22
I1
sg20
F1.4167246147990227
sg23
F1.3167270994745195
sVY
L5L
sVX
L3L
sg469
L0L
sg35
g36
sg37
g38
sg21
S'7'
sg19
S'space'
p546
sg34
g11
sg472
L7L
sg473
g480
sg475
L7L
sS'block.thisIndex'
p547
I0
sg477
g478
sg479
L0L
sg481
VBUxy
p548
sa(dp549
S'block.thisTrialN'
p550
I8
sS'block.thisRepN'
p551
I0
sg29
g33
sS'block.thisN'
p552
I8
sg464
(S'HALF'
S'ADD'
S'x'
S'y'
tp553
sg27
g28
sg466
L2L
sg467
(I12
I6
tp554
sg22
I1
sg20
F1.5833716250490397
sg23
F2.1500058968085796
sVY
L8L
sVX
L4L
sg469
L0L
sg35
g36
sg37
g38
sg21
S'6'
sg19
S'space'
p555
sg34
g11
sg472
L6L
sg473
g478
sg475
L6L
sS'block.thisIndex'
p556
I3
sg477
g537
sg479
L0L
sg481
g511
sa(dp557
S'block.thisTrialN'
p558
I9
sS'block.thisRepN'
p559
I0
sg29
g33
sS'block.thisN'
p560
I9
sg464
(S'INCREASE'
S'HALF'
S'THIRD'
S'TIMES'
S'x'
S'y'
tp561
sg27
g28
sg466
L4L
sg467
(I12
I4
I2
I3
tp562
sg22
I1
sg20
F2.9332070196978748
sg23
F5.9497196967713535
sVY
L4L
sVX
L3L
sg469
g492
sg35
g36
sg37
g38
sg21
S'3'
sg19
S'space'
p563
sg34
g11
sg472
L3L
sg473
g537
sg475
L3L
sS'block.thisIndex'
p564
I16
sg477
g535
sg479
g509
sg481
g539
sa(dp565
S'block.thisTrialN'
p566
I10
sS'block.thisRepN'
p567
I0
sg29
g33
sS'block.thisN'
p568
I10
sg464
(S'DIVIDE'
S'DECREASE'
S'x'
S'y'
tp569
sg27
g28
sg466
L2L
sg467
(I8
I2
tp570
sg22
I1
sg20
F1.3333692629821599
sg23
F1.3832786048296839
sVY
L4L
sVX
L9L
sg469
L0L
sg35
g36
sg37
g38
sg21
S'2'
sg19
S'space'
p571
sg34
g11
sg472
L2L
sg473
g480
sg475
L2L
sS'block.thisIndex'
p572
I1
sg477
VDIVIDE
p573
sg479
L0L
sg481
g548
sa(dp574
S'block.thisTrialN'
p575
I11
sS'block.thisRepN'
p576
I0
sg29
g33
sS'block.thisN'
p577
I11
sg464
(S'DOUBLE'
S'SUBTRACT'
S'INCREASE'
S'x'
S'y'
tp578
sg27
g28
sg466
L3L
sg467
(I4
I1
I2
tp579
sg22
I1
sg20
F2.4333093841560185
sg23
F3.633221123367548
sVY
L3L
sVX
L3L
sg469
g535
sg35
g36
sg37
g38
sg21
S'2'
sg19
S'space'
p580
sg34
g11
sg472
L2L
sg473
g490
sg475
L2L
sS'block.thisIndex'
p581
I6
sg477
g470
sg479
L0L
sg481
VUBUxy
p582
sa(dp583
S'block.thisTrialN'
p584
I12
sS'block.thisRepN'
p585
I0
sg29
g33
sS'block.thisN'
p586
I12
sg464
(S'DECREASE'
S'ADD'
S'THIRD'
S'HALF'
S'x'
S'y'
tp587
sg27
g28
sg466
L4L
sg467
(I3
I1
I7
I6
tp588
sg22
I1
sg20
F3.2497167920228094
sg23
F4.4165433337911963
sVY
L6L
sVX
L6L
sg469
g492
sg35
g36
sg37
g38
sg21
S'6'
sg19
S'space'
p589
sg34
g11
sg472
L6L
sg473
g478
sg475
L6L
sS'block.thisIndex'
p590
I12
sg477
g480
sg479
g537
sg481
g493
sa(dp591
S'block.thisTrialN'
p592
I13
sS'block.thisRepN'
p593
I0
sg29
g33
sS'block.thisN'
p594
I13
sg464
(S'ADD'
S'TRIPLE'
S'HALF'
S'x'
S'y'
tp595
sg27
g28
sg466
L3L
sg467
(I2
I6
I8
tp596
sg22
I1
sg20
F2.3499438832513988
sg23
F3.4832449734676629
sVY
L2L
sVX
L4L
sg469
g537
sg35
g36
sg37
g38
sg21
S'8'
sg19
S'space'
p597
sg34
g11
sg472
L8L
sg473
g474
sg475
L8L
sS'block.thisIndex'
p598
I5
sg477
g478
sg479
L0L
sg481
VBUUxy
p599
sa(dp600
S'block.thisTrialN'
p601
I14
sS'block.thisRepN'
p602
I0
sg29
g33
sS'block.thisN'
p603
I14
sg464
(S'ADD'
S'DOUBLE'
S'DECREASE'
S'x'
S'y'
tp604
sg27
g28
sg466
L3L
sg467
(I1
I2
I7
tp605
sg22
I1
sg20
F2.3499648810829967
sg23
F3.783218271099031
sVY
L5L
sVX
L2L
sg469
g480
sg35
g36
sg37
g38
sg21
S'7'
sg19
S'space'
p606
sg34
g11
sg472
L7L
sg473
g470
sg475
L7L
sS'block.thisIndex'
p607
I4
sg477
g478
sg479
L0L
sg481
g599
sa(dp608
S'block.thisTrialN'
p609
I15
sS'block.thisRepN'
p610
I0
sg29
g33
sS'block.thisN'
p611
I15
sg464
(S'INCREASE'
S'ADD'
S'HALF'
S'x'
S'y'
tp612
sg27
g28
sg466
L3L
sg467
(I1
I4
I5
tp613
sg22
I1
sg20
F2.7332609840668738
sg23
F2.683311746455729
sVY
L3L
sVX
L2L
sg469
g537
sg35
g36
sg37
g38
sg21
S'5'
sg19
S'space'
p614
sg34
g11
sg472
L5L
sg473
g478
sg475
L5L
sS'block.thisIndex'
p615
I7
sg477
g535
sg479
L0L
sg481
g582
sa(dp616
S'block.thisTrialN'
p617
I16
sS'block.thisRepN'
p618
I0
sg29
g33
sS'block.thisN'
p619
I16
sg464
(S'DOUBLE'
S'THIRD'
S'ADD'
S'x'
S'y'
tp620
sg27
g28
sg466
L3L
sg467
(I9
I3
I6
tp621
sg22
I1
sg20
F2.649956027045846
sg23
F4.0331856370903552
sVY
L4L
sVX
L5L
sg469
g478
sg35
g36
sg37
g38
sg21
S'6'
sg19
S'space'
p622
sg34
g11
sg472
L6L
sg473
g492
sg475
L6L
sS'block.thisIndex'
p623
I8
sg477
g470
sg479
L0L
sg481
VUUBxy
p624
sa(dp625
S'block.thisTrialN'
p626
I17
sS'block.thisRepN'
p627
I0
sg29
g33
sS'block.thisN'
p628
I17
sg464
(S'HALF'
S'INCREASE'
S'TIMES'
S'x'
S'y'
tp629
sg27
g28
sg466
L3L
sg467
(I9
I10
I5
tp630
sg22
I1
sg20
F5.1830910944845527
sg23
F3.0165998178999871
sVY
L3L
sVX
L3L
sg469
g509
sg35
g36
sg37
g38
sg21
S'5'
sg19
S'space'
p631
sg34
g11
sg472
L5L
sg473
g535
sg475
L5L
sS'block.thisIndex'
p632
I9
sg477
g537
sg479
L0L
sg481
g624
sa(dp633
S'block.thisTrialN'
p634
I0
sS'block.thisRepN'
p635
I0
sg29
g33
sS'block.thisN'
p636
I0
sVRule
p637
(S'INCREASE'
S'DIVIDE'
S'TRIPLE'
S'x'
S'y'
tp638
sg27
g28
sVLength
p639
L3L
sVIntermediate
p640
(I6
I2
I3
tp641
sg22
I1
sg20
F4.4831060378346592
sg23
F3.383349297568202
sVY
L3L
sVX
L2L
sVOperatorc
p642
Vtriple
p643
sg35
g36
sg37
g38
sg21
S'3'
sg19
S'space'
p644
sg34
g11
sVResult
p645
L3L
sVOperatora
p646
VDIVIDE
p647
sVCorrectResponse
p648
L3L
sS'block.thisIndex'
p649
I7
sVOperatorb
p650
Vincrease
p651
sVOperatord
p652
L0L
sVStructure
p653
VUBUxy
p654
sa(dp655
S'block.thisTrialN'
p656
I1
sS'block.thisRepN'
p657
I0
sg29
g33
sS'block.thisN'
p658
I1
sg637
(S'INCREASE'
S'DIVIDE'
S'x'
S'y'
tp659
sg27
g28
sg639
L2L
sg640
(I4
I5
tp660
sg22
I1
sg20
F1.7166996623855084
sg23
F2.7333075294736773
sVY
L2L
sVX
L8L
sg642
L0L
sg35
g36
sg37
g38
sg21
S'5'
sg19
S'space'
p661
sg34
g11
sg645
L5L
sg646
g647
sg648
L5L
sS'block.thisIndex'
p662
I3
sg650
g651
sg652
L0L
sg653
VUBxy
p663
sa(dp664
S'block.thisTrialN'
p665
I2
sS'block.thisRepN'
p666
I0
sg29
g33
sS'block.thisN'
p667
I2
sg637
(S'DOUBLE'
S'DIVIDE'
S'x'
S'y'
tp668
sg27
g28
sg639
L2L
sg640
(I1
I2
tp669
sg22
I1
sg20
F2.3666339919436723
sg23
F1.7667129435576499
sVY
L8L
sVX
L8L
sg642
L0L
sg35
g36
sg37
g38
sg21
S'2'
sg19
S'space'
p670
sg34
g11
sg645
L2L
sg646
g647
sg648
L2L
sS'block.thisIndex'
p671
I2
sg650
Vdouble
p672
sg652
L0L
sg653
g663
sa(dp673
S'block.thisTrialN'
p674
I3
sS'block.thisRepN'
p675
I0
sg29
g33
sS'block.thisN'
p676
I3
sg637
(S'TRIPLE'
S'INCREASE'
S'DIVIDE'
S'DOUBLE'
S'x'
S'y'
tp677
sg27
g28
sg639
L4L
sg640
(I16
I2
I3
I9
tp678
sg22
I1
sg20
F3.2165469033643603
sg23
F5.3830700265243649
sVY
L8L
sVX
L8L
sg642
g647
sg35
g36
sg37
g38
sg21
S'9'
sg19
S'space'
p679
sg34
g11
sg645
L9L
sg646
g651
sg648
L9L
sS'block.thisIndex'
p680
I15
sg650
g643
sg652
g672
sg653
VUUBUxy
p681
sa(dp682
S'block.thisTrialN'
p683
I4
sS'block.thisRepN'
p684
I0
sg29
g33
sS'block.thisN'
p685
I4
sg637
(S'SUBTRACT'
S'INCREASE'
S'HALF'
S'x'
S'y'
tp686
sg27
g28
sg639
L3L
sg640
(I4
I5
I3
tp687
sg22
I1
sg20
F2.6832823494914919
sg23
F2.7999636738095433
sVY
L2L
sVX
L8L
sg642
Vhalf
p688
sg35
g36
sg37
g38
sg21
S'3'
sg19
S'space'
p689
sg34
g11
sg645
L3L
sg646
g651
sg648
L3L
sS'block.thisIndex'
p690
I5
sg650
VSUBTRACT
p691
sg652
L0L
sg653
VBUUxy
p692
sa(dp693
S'block.thisTrialN'
p694
I5
sS'block.thisRepN'
p695
I0
sg29
g33
sS'block.thisN'
p696
I5
sg637
(S'DIVIDE'
S'DOUBLE'
S'INCREASE'
S'TRIPLE'
S'x'
S'y'
tp697
sg27
g28
sg639
L4L
sg640
(I9
I10
I20
I5
tp698
sg22
I1
sg20
F2.6832648513372988
sg23
F6.3330042511224747
sVY
L4L
sVX
L3L
sg642
g651
sg35
g36
sg37
g38
sg21
S'5'
sg19
S'space'
p699
sg34
g11
sg645
L5L
sg646
g672
sg648
L5L
sS'block.thisIndex'
p700
I10
sg650
g647
sg652
g643
sg653
VBUUUxy
p701
sa(dp702
S'block.thisTrialN'
p703
I6
sS'block.thisRepN'
p704
I0
sg29
g33
sS'block.thisN'
p705
I6
sg637
(S'THIRD'
S'INCREASE'
S'HALF'
S'TIMES'
S'x'
S'y'
tp706
sg27
g28
sg639
L4L
sg640
(I28
I14
I15
I5
tp707
sg22
I1
sg20
F4.5164575576782227
sg23
F6.6663028213661164
sVY
L4L
sVX
L7L
sg642
g688
sg35
g36
sg37
g38
sg21
S'5'
sg19
S'space'
p708
sg34
g11
sg645
L5L
sg646
g651
sg648
L5L
sS'block.thisIndex'
p709
I17
sg650
Vthird
p710
sg652
VTIMES
p711
sg653
VUUUBxy
p712
sa(dp713
S'block.thisTrialN'
p714
I7
sS'block.thisRepN'
p715
I0
sg29
g33
sS'block.thisN'
p716
I7
sg637
(S'ADD'
S'HALF'
S'x'
S'y'
tp717
sg27
g28
sg639
L2L
sg640
(I2
I7
tp718
sg22
I1
sg20
F1.3333703128155321
sg23
F2.1666792072355747
sVY
L5L
sVX
L4L
sg642
L0L
sg35
g36
sg37
g38
sg21
S'7'
sg19
S'space'
p719
sg34
g11
sg645
L7L
sg646
g688
sg648
L7L
sS'block.thisIndex'
p720
I0
sg650
VADD
p721
sg652
L0L
sg653
VBUxy
p722
sa(dp723
S'block.thisTrialN'
p724
I8
sS'block.thisRepN'
p725
I0
sg29
g33
sS'block.thisN'
p726
I8
sg637
(S'INCREASE'
S'TIMES'
S'TRIPLE'
S'HALF'
S'x'
S'y'
tp727
sg27
g28
sg639
L4L
sg640
(I1
I3
I6
I7
tp728
sg22
I1
sg20
F3.466543666087091
sg23
F3.999867363832891
sVY
L2L
sVX
L2L
sg642
g643
sg35
g36
sg37
g38
sg21
S'7'
sg19
S'space'
p729
sg34
g11
sg645
L7L
sg646
g711
sg648
L7L
sS'block.thisIndex'
p730
I13
sg650
g651
sg652
g688
sg653
VUBUUxy
p731
sa(dp732
S'block.thisTrialN'
p733
I9
sS'block.thisRepN'
p734
I0
sg29
g33
sS'block.thisN'
p735
I9
sg637
(S'TIMES'
S'HALF'
S'INCREASE'
S'THIRD'
S'x'
S'y'
tp736
sg27
g28
sg639
L4L
sg640
(I1
I2
I1
I9
tp737
sg22
I1
sg20
F4.8497498284559697
sg23
F5.2331061253789812
sVY
L9L
sVX
L3L
sg642
g651
sg35
g36
sg37
g38
sg21
S'9'
sg19
S'space'
p738
sg34
g11
sg645
L9L
sg646
g688
sg648
L9L
sS'block.thisIndex'
p739
I11
sg650
g711
sg652
g710
sg653
g701
sa(dp740
S'block.thisTrialN'
p741
I10
sS'block.thisRepN'
p742
I0
sg29
g33
sS'block.thisN'
p743
I10
sg637
(S'HALF'
S'TIMES'
S'DECREASE'
S'x'
S'y'
tp744
sg27
g28
sg639
L3L
sg640
(I8
I16
I8
tp745
sg22
I1
sg20
F4.8330478216521442
sg23
F5.2664257984142751
sVY
L2L
sVX
L9L
sg642
Vdecrease
p746
sg35
g36
sg37
g38
sg21
S'8'
sg19
S'space'
p747
sg34
g11
sg645
L8L
sg646
g711
sg648
L8L
sS'block.thisIndex'
p748
I6
sg650
g688
sg652
L0L
sg653
g654
sa(dp749
S'block.thisTrialN'
p750
I11
sS'block.thisRepN'
p751
I0
sg29
g33
sS'block.thisN'
p752
I11
sg637
(S'TRIPLE'
S'INCREASE'
S'SUBTRACT'
S'x'
S'y'
tp753
sg27
g28
sg639
L3L
sg640
(I1
I2
I6
tp754
sg22
I0
sg20
F3.1165619867388159
sg23
F3.0332545798737556
sVY
L2L
sVX
L3L
sg642
g691
sg35
g36
sg37
g38
sg21
S'9'
sg19
S'space'
p755
sg34
g11
sg645
L6L
sg646
g651
sg648
L6L
sS'block.thisIndex'
p756
I9
sg650
g643
sg652
L0L
sg653
VUUBxy
p757
sa(dp758
S'block.thisTrialN'
p759
I12
sS'block.thisRepN'
p760
I0
sg29
g33
sS'block.thisN'
p761
I12
sg637
(S'TRIPLE'
S'HALF'
S'ADD'
S'x'
S'y'
tp762
sg27
g28
sg639
L3L
sg640
(I6
I3
I9
tp763
sg22
I1
sg20
F4.899759610183537
sg23
F3.866512029664591
sVY
L3L
sVX
L3L
sg642
g721
sg35
g36
sg37
g38
sg21
S'9'
sg19
S'space'
p764
sg34
g11
sg645
L9L
sg646
g688
sg648
L9L
sS'block.thisIndex'
p765
I8
sg650
g643
sg652
L0L
sg653
g757
sa(dp766
S'block.thisTrialN'
p767
I13
sS'block.thisRepN'
p768
I0
sg29
g33
sS'block.thisN'
p769
I13
sg637
(S'SUBTRACT'
S'TRIPLE'
S'x'
S'y'
tp770
sg27
g28
sg639
L2L
sg640
(I12
I9
tp771
sg22
I1
sg20
F1.8166859787888825
sg23
F3.1832454283721745
sVY
L3L
sVX
L4L
sg642
L0L
sg35
g36
sg37
g38
sg21
S'9'
sg19
S'space'
p772
sg34
g11
sg645
L9L
sg646
g643
sg648
L9L
sS'block.thisIndex'
p773
I1
sg650
g691
sg652
L0L
sg653
g722
sa(dp774
S'block.thisTrialN'
p775
I14
sS'block.thisRepN'
p776
I0
sg29
g33
sS'block.thisN'
p777
I14
sg637
(S'HALF'
S'SUBTRACT'
S'DECREASE'
S'TRIPLE'
S'x'
S'y'
tp778
sg27
g28
sg639
L4L
sg640
(I15
I14
I10
I5
tp779
sg22
I1
sg20
F5.3330465967301279
sg23
F10.882614199072123
sVY
L4L
sVX
L5L
sg642
g746
sg35
g36
sg37
g38
sg21
S'5'
sg19
S'space'
p780
sg34
g11
sg645
L5L
sg646
g691
sg648
L5L
sS'block.thisIndex'
p781
I12
sg650
g688
sg652
g643
sg653
g731
sa(dp782
S'block.thisTrialN'
p783
I15
sS'block.thisRepN'
p784
I0
sg29
g33
sS'block.thisN'
p785
I15
sg637
(S'DECREASE'
S'THIRD'
S'DOUBLE'
S'ADD'
S'x'
S'y'
tp786
sg27
g28
sg639
L4L
sg640
(I9
I18
I6
I5
tp787
sg22
I0
sg20
F4.6496078134514391
sg23
F16.448783369269222
sVY
L4L
sVX
L5L
sg642
g672
sg35
g36
sg37
g38
sg21
S'7'
sg19
S'space'
p788
sg34
g11
sg645
L5L
sg646
g710
sg648
L5L
sS'block.thisIndex'
p789
I16
sg650
g746
sg652
g721
sg653
g712
sa(dp790
S'block.thisTrialN'
p791
I16
sS'block.thisRepN'
p792
I0
sg29
g33
sS'block.thisN'
p793
I16
sg637
(S'TRIPLE'
S'DOUBLE'
S'SUBTRACT'
S'INCREASE'
S'x'
S'y'
tp794
sg27
g28
sg639
L4L
sg640
(I5
I1
I2
I6
tp795
sg22
I1
sg20
F6.5662664601113647
sg23
F4.2831610522698611
sVY
L4L
sVX
L4L
sg642
g691
sg35
g36
sg37
g38
sg21
S'6'
sg19
S'space'
p796
sg34
g11
sg645
L6L
sg646
g672
sg648
L6L
sS'block.thisIndex'
p797
I14
sg650
g643
sg652
g651
sg653
g681
sa(dp798
S'block.thisTrialN'
p799
I17
sS'block.thisRepN'
p800
I0
sg29
g33
sS'block.thisN'
p801
I17
sg637
(S'DIVIDE'
S'TRIPLE'
S'DECREASE'
S'x'
S'y'
tp802
sg27
g28
sg639
L3L
sg640
(I6
I18
I9
tp803
sg22
I1
sg20
F3.5165282504167408
sg23
F7.1662487520370632
sVY
L2L
sVX
L7L
sg642
g746
sg35
g36
sg37
g38
sg21
S'9'
sg19
S'space'
p804
sg34
g11
sg645
L9L
sg646
g643
sg648
L9L
sS'block.thisIndex'
p805
I4
sg650
g647
sg652
L0L
sg653
g692
sa(dp806
S'block.thisTrialN'
p807
I0
sS'block.thisRepN'
p808
I0
sg29
g33
sS'block.thisN'
p809
I0
sVRule
p810
(S'DOUBLE'
S'TRIPLE'
S'SUBTRACT'
S'x'
S'y'
tp811
sg27
g28
sVLength
p812
L3L
sVIntermediate
p813
(I1
I3
I6
tp814
sg22
I1
sg20
F3.7998432863969356
sg23
F10.782434003194794
sVY
L3L
sVX
L4L
sVOperatorc
p815
VSUBTRACT
p816
sg35
g36
sg37
g38
sg21
S'6'
sg19
S'space'
p817
sg34
g11
sVResult
p818
L6L
sVOperatora
p819
Vtriple
p820
sVCorrectResponse
p821
L6L
sS'block.thisIndex'
p822
I9
sVOperatorb
p823
Vdouble
p824
sVOperatord
p825
L0L
sVStructure
p826
VUUBxy
p827
sa(dp828
S'block.thisTrialN'
p829
I1
sS'block.thisRepN'
p830
I0
sg29
g33
sS'block.thisN'
p831
I1
sg810
(S'DECREASE'
S'THIRD'
S'TIMES'
S'HALF'
S'x'
S'y'
tp832
sg27
g28
sg812
L4L
sg813
(I2
I12
I4
I3
tp833
sg22
I1
sg20
F8.7992700461763889
sg23
F4.7996294586919248
sVY
L6L
sVX
L4L
sg815
VTIMES
p834
sg35
g36
sg37
g38
sg21
S'3'
sg19
S'space'
p835
sg34
g11
sg818
L3L
sg819
Vthird
p836
sg821
L3L
sS'block.thisIndex'
p837
I14
sg823
Vdecrease
p838
sg825
Vhalf
p839
sg826
VUUBUxy
p840
sa(dp841
S'block.thisTrialN'
p842
I2
sS'block.thisRepN'
p843
I0
sg29
g33
sS'block.thisN'
p844
I2
sg810
(S'ADD'
S'DOUBLE'
S'x'
S'y'
tp845
sg27
g28
sg812
L2L
sg813
(I4
I8
tp846
sg22
I1
sg20
F1.3834294390399009
sg23
F1.3999932105652988
sVY
L4L
sVX
L2L
sg815
L0L
sg35
g36
sg37
g38
sg21
S'8'
sg19
S'space'
p847
sg34
g11
sg818
L8L
sg819
g824
sg821
L8L
sS'block.thisIndex'
p848
I0
sg823
VADD
p849
sg825
L0L
sg826
VBUxy
p850
sa(dp851
S'block.thisTrialN'
p852
I3
sS'block.thisRepN'
p853
I0
sg29
g33
sS'block.thisN'
p854
I3
sg810
(S'DOUBLE'
S'DECREASE'
S'SUBTRACT'
S'x'
S'y'
tp855
sg27
g28
sg812
L3L
sg813
(I5
I4
I8
tp856
sg22
I1
sg20
F2.9165239108260721
sg23
F3.1999442856758833
sVY
L2L
sVX
L7L
sg815
g816
sg35
g36
sg37
g38
sg21
S'8'
sg19
S'space'
p857
sg34
g11
sg818
L8L
sg819
g838
sg821
L8L
sS'block.thisIndex'
p858
I8
sg823
g824
sg825
L0L
sg826
g827
sa(dp859
S'block.thisTrialN'
p860
I4
sS'block.thisRepN'
p861
I0
sg29
g33
sS'block.thisN'
p862
I4
sg810
(S'DOUBLE'
S'DECREASE'
S'TRIPLE'
S'DIVIDE'
S'x'
S'y'
tp863
sg27
g28
sg812
L4L
sg813
(I1
I3
I2
I4
tp864
sg22
I1
sg20
F7.5495354060549289
sg23
F5.4330567105207592
sVY
L4L
sVX
L4L
sg815
g820
sg35
g36
sg37
g38
sg21
S'4'
sg19
S'space'
p865
sg34
g11
sg818
L4L
sg819
g838
sg821
L4L
sS'block.thisIndex'
p866
I17
sg823
g824
sg825
VDIVIDE
p867
sg826
VUUUBxy
p868
sa(dp869
S'block.thisTrialN'
p870
I5
sS'block.thisRepN'
p871
I0
sg29
g33
sS'block.thisN'
p872
I5
sg810
(S'HALF'
S'SUBTRACT'
S'TRIPLE'
S'x'
S'y'
tp873
sg27
g28
sg812
L3L
sg813
(I9
I2
I1
tp874
sg22
I1
sg20
F5.3163883348461241
sg23
F3.9832105019595474
sVY
L7L
sVX
L3L
sg815
g820
sg35
g36
sg37
g38
sg21
S'1'
sg19
S'space'
p875
sg34
g11
sg818
L1L
sg819
g816
sg821
L1L
sS'block.thisIndex'
p876
I6
sg823
g839
sg825
L0L
sg826
VUBUxy
p877
sa(dp878
S'block.thisTrialN'
p879
I6
sS'block.thisRepN'
p880
I0
sg29
g33
sS'block.thisN'
p881
I6
sg810
(S'DIVIDE'
S'DOUBLE'
S'x'
S'y'
tp882
sg27
g28
sg812
L2L
sg813
(I12
I2
tp883
sg22
I1
sg20
F1.7666660484392196
sg23
F2.2665825819130987
sVY
L6L
sVX
L6L
sg815
L0L
sg35
g36
sg37
g38
sg21
S'2'
sg19
S'space'
p884
sg34
g11
sg818
L2L
sg819
g824
sg821
L2L
sS'block.thisIndex'
p885
I1
sg823
g867
sg825
L0L
sg826
g850
sa(dp886
S'block.thisTrialN'
p887
I7
sS'block.thisRepN'
p888
I0
sg29
g33
sS'block.thisN'
p889
I7
sg810
(S'DOUBLE'
S'TRIPLE'
S'DIVIDE'
S'DECREASE'
S'x'
S'y'
tp890
sg27
g28
sg812
L4L
sg813
(I8
I1
I3
I6
tp891
sg22
I0
sVY
L8L
sVX
L9L
sg815
g867
sg35
g36
sg37
g38
sg21
Nsg19
Nsg34
g11
sg818
L6L
sg819
g820
sg821
L6L
sS'block.thisIndex'
p892
I15
sg823
g824
sg825
g838
sg826
g840
sa(dp893
S'block.thisTrialN'
p894
I8
sS'block.thisRepN'
p895
I0
sg29
g33
sS'block.thisN'
p896
I8
sg810
(S'DIVIDE'
S'DOUBLE'
S'THIRD'
S'x'
S'y'
tp897
sg27
g28
sg812
L3L
sg813
(I2
I4
I1
tp898
sg22
I1
sg20
F4.1164832450449467
sg23
F3.6665411463472992
sVY
L4L
sVX
L6L
sg815
g836
sg35
g36
sg37
g38
sg21
S'1'
sg19
S'space'
p899
sg34
g11
sg818
L1L
sg819
g824
sg821
L1L
sS'block.thisIndex'
p900
I4
sg823
g867
sg825
L0L
sg826
VBUUxy
p901
sa(dp902
S'block.thisTrialN'
p903
I9
sS'block.thisRepN'
p904
I0
sg29
g33
sS'block.thisN'
p905
I9
sg810
(S'ADD'
S'THIRD'
S'INCREASE'
S'HALF'
S'x'
S'y'
tp906
sg27
g28
sg812
L4L
sg813
(I2
I3
I1
I7
tp907
sg22
I1
sg20
F8.0495110834017396
sg23
F4.2164699113927782
sVY
L6L
sVX
L4L
sg815
Vincrease
p908
sg35
g36
sg37
g38
sg21
S'7'
sg19
S'space'
p909
sg34
g11
sg818
L7L
sg819
g836
sg821
L7L
sS'block.thisIndex'
p910
I10
sg823
g849
sg825
g839
sg826
VBUUUxy
p911
sa(dp912
S'block.thisTrialN'
p913
I10
sS'block.thisRepN'
p914
I0
sg29
g33
sS'block.thisN'
p915
I10
sg810
(S'SUBTRACT'
S'HALF'
S'TRIPLE'
S'x'
S'y'
tp916
sg27
g28
sg812
L3L
sg813
(I12
I6
I2
tp917
sg22
I1
sg20
F2.9498939786572009
sg23
F6.8496539385523647
sVY
L4L
sVX
L4L
sg815
g820
sg35
g36
sg37
g38
sg21
S'2'
sg19
S'space'
p918
sg34
g11
sg818
L2L
sg819
g839
sg821
L2L
sS'block.thisIndex'
p919
I5
sg823
g816
sg825
L0L
sg826
g901
sa(dp920
S'block.thisTrialN'
p921
I11
sS'block.thisRepN'
p922
I0
sg29
g33
sS'block.thisN'
p923
I11
sg810
(S'DIVIDE'
S'INCREASE'
S'DOUBLE'
S'THIRD'
S'x'
S'y'
tp924
sg27
g28
sg812
L4L
sg813
(I2
I4
I5
I1
tp925
sg22
I1
sg20
F5.1996503164991736
sg23
F17.515438463771716
sVY
L5L
sVX
L6L
sg815
g824
sg35
g36
sg37
g38
sg21
S'1'
sg19
S'space'
p926
sg34
g11
sg818
L1L
sg819
g908
sg821
L1L
sS'block.thisIndex'
p927
I11
sg823
g867
sg825
g836
sg826
g911
sa(dp928
S'block.thisTrialN'
p929
I12
sS'block.thisRepN'
p930
I0
sg29
g33
sS'block.thisN'
p931
I12
sg810
(S'INCREASE'
S'DIVIDE'
S'THIRD'
S'x'
S'y'
tp932
sg27
g28
sg812
L3L
sg813
(I3
I1
I2
tp933
sg22
I1
sg20
F3.816509947180748
sg23
F3.1332223480567336
sVY
L3L
sVX
L9L
sg815
g836
sg35
g36
sg37
g38
sg21
S'2'
sg19
S'space'
p934
sg34
g11
sg818
L2L
sg819
g867
sg821
L2L
sS'block.thisIndex'
p935
I7
sg823
g908
sg825
L0L
sg826
g877
sa(dp936
S'block.thisTrialN'
p937
I13
sS'block.thisRepN'
p938
I0
sg29
g33
sS'block.thisN'
p939
I13
sg810
(S'HALF'
S'TIMES'
S'x'
S'y'
tp940
sg27
g28
sg812
L2L
sg813
(I16
I8
tp941
sg22
I1
sg20
F0.98340088222175837
sg23
F2.7333663231693208
sVY
L4L
sVX
L4L
sg815
L0L
sg35
g36
sg37
g38
sg21
S'8'
sg19
S'space'
p942
sg34
g11
sg818
L8L
sg819
g834
sg821
L8L
sS'block.thisIndex'
p943
I3
sg823
g839
sg825
L0L
sg826
VUBxy
p944
sa(dp945
S'block.thisTrialN'
p946
I14
sS'block.thisRepN'
p947
I0
sg29
g33
sS'block.thisN'
p948
I14
sg810
(S'DECREASE'
S'ADD'
S'DOUBLE'
S'THIRD'
S'x'
S'y'
tp949
sg27
g28
sg812
L4L
sg813
(I3
I6
I10
I9
tp950
sg22
I1
sg20
F4.8163825606461614
sg23
F5.599742216989398
sVY
L4L
sVX
L9L
sg815
g824
sg35
g36
sg37
g38
sg21
S'9'
sg19
S'space'
p951
sg34
g11
sg818
L9L
sg819
g849
sg821
L9L
sS'block.thisIndex'
p952
I12
sg823
Vdecrease 
p953
sg825
g836
sg826
VUBUUxy
p954
sa(dp955
S'block.thisTrialN'
p956
I15
sS'block.thisRepN'
p957
I0
sg29
g33
sS'block.thisN'
p958
I15
sg810
(S'DECREASE'
S'TIMES'
S'DOUBLE'
S'THIRD'
S'x'
S'y'
tp959
sg27
g28
sg812
L4L
sg813
(I1
I2
I8
I7
tp960
sg22
I1
sg20
F3.0165704207029194
sg23
F4.4165184861049056
sVY
L4L
sVX
L3L
sg815
g824
sg35
g36
sg37
g38
sg21
S'7'
sg19
S'space'
p961
sg34
g11
sg818
L7L
sg819
g834
sg821
L7L
sS'block.thisIndex'
p962
I13
sg823
g838
sg825
g836
sg826
g954
sa(dp963
S'block.thisTrialN'
p964
I16
sS'block.thisRepN'
p965
I0
sg29
g33
sS'block.thisN'
p966
I16
sg810
(S'DECREASE'
S'HALF'
S'TRIPLE'
S'DIVIDE'
S'x'
S'y'
tp967
sg27
g28
sg812
L4L
sg813
(I4
I12
I6
I5
tp968
sg22
I1
sg20
F5.3664075655397028
sg23
F4.4831522330641747
sVY
L2L
sVX
L8L
sg815
g820
sg35
g36
sg37
g38
sg21
S'5'
sg19
S'space'
p969
sg34
g11
sg818
L5L
sg819
g839
sg821
L5L
sS'block.thisIndex'
p970
I16
sg823
g838
sg825
g867
sg826
g868
sa(dp971
S'block.thisTrialN'
p972
I17
sS'block.thisRepN'
p973
I0
sg29
g33
sS'block.thisN'
p974
I17
sg810
(S'DOUBLE'
S'SUBTRACT'
S'x'
S'y'
tp975
sg27
g28
sg812
L2L
sg813
(I1
I2
tp976
sg22
I1
sg20
F1.8666597141418606
sg23
F1.6000743322074413
sVY
L7L
sVX
L8L
sg815
L0L
sg35
g36
sg37
g38
sg21
S'2'
sg19
S'space'
p977
sg34
g11
sg818
L2L
sg819
g816
sg821
L2L
sS'block.thisIndex'
p978
I2
sg823
g824
sg825
L0L
sg826
g944
sa(dp979
S'block.thisTrialN'
p980
I0
sS'block.thisRepN'
p981
I0
sg29
g33
sS'block.thisN'
p982
I0
sVRule
p983
(S'DIVIDE'
S'THIRD'
S'x'
S'y'
tp984
sg27
g28
sVLength
p985
L2L
sVIntermediate
p986
(I3
I1
tp987
sg22
I1
sg20
F1.4166581216268241
sg23
F2.2333580991253257
sVY
L3L
sVX
L9L
sVOperatorc
p988
L0L
sg35
g36
sg37
g38
sg21
S'1'
sg19
S'space'
p989
sg34
g11
sVResult
p990
L1L
sVOperatora
p991
Vthird
p992
sVCorrectResponse
p993
L1L
sS'block.thisIndex'
p994
I0
sVOperatorb
p995
VDIVIDE
p996
sVOperatord
p997
L0L
sVStructure
p998
VBUxy
p999
sa(dp1000
S'block.thisTrialN'
p1001
I1
sS'block.thisRepN'
p1002
I0
sg29
g33
sS'block.thisN'
p1003
I1
sg983
(S'DOUBLE'
S'THIRD'
S'TIMES'
S'x'
S'y'
tp1004
sg27
g28
sg985
L3L
sg986
(I12
I4
I8
tp1005
sg22
I1
sg20
F3.7165075324010104
sg23
F5.649732050485909
sVY
L6L
sVX
L2L
sg988
VTIMES
p1006
sg35
g36
sg37
g38
sg21
S'8'
sg19
S'space'
p1007
sg34
g11
sg990
L8L
sg991
g992
sg993
L8L
sS'block.thisIndex'
p1008
I9
sg995
Vdouble
p1009
sg997
L0L
sg998
VUUBxy
p1010
sa(dp1011
S'block.thisTrialN'
p1012
I2
sS'block.thisRepN'
p1013
I0
sg29
g33
sS'block.thisN'
p1014
I2
sg983
(S'TIMES'
S'DOUBLE'
S'x'
S'y'
tp1015
sg27
g28
sg985
L2L
sg986
(I4
I8
tp1016
sg22
I1
sg20
F1.3000422406475991
sg23
F1.8000473149586469
sVY
L2L
sVX
L2L
sg988
L0L
sg35
g36
sg37
g38
sg21
S'8'
sg19
S'space'
p1017
sg34
g11
sg990
L8L
sg991
g1009
sg993
L8L
sS'block.thisIndex'
p1018
I1
sg995
g1006
sg997
L0L
sg998
g999
sa(dp1019
S'block.thisTrialN'
p1020
I3
sS'block.thisRepN'
p1021
I0
sg29
g33
sS'block.thisN'
p1022
I3
sg983
(S'DECREASE'
S'TRIPLE'
S'HALF'
S'SUBTRACT'
S'x'
S'y'
tp1023
sg27
g28
sg985
L4L
sg986
(I4
I2
I6
I5
tp1024
sg22
I1
sg20
F5.0497662068810314
sg23
F3.4498983530793339
sVY
L2L
sVX
L6L
sg988
Vhalf
p1025
sg35
g36
sg37
g38
sg21
S'5'
sg19
S'space'
p1026
sg34
g11
sg990
L5L
sg991
Vtriple
p1027
sg993
L5L
sS'block.thisIndex'
p1028
I16
sg995
Vdecrease
p1029
sg997
VSUBTRACT
p1030
sg998
VUUUBxy
p1031
sa(dp1032
S'block.thisTrialN'
p1033
I4
sS'block.thisRepN'
p1034
I0
sg29
g33
sS'block.thisN'
p1035
I4
sg983
(S'INCREASE'
S'SUBTRACT'
S'x'
S'y'
tp1036
sg27
g28
sg985
L2L
sg986
(I3
I4
tp1037
sg22
I1
sg20
F0.8500847436953336
sg23
F1.2334308915305883
sVY
L3L
sVX
L6L
sg988
L0L
sg35
g36
sg37
g38
sg21
S'4'
sg19
S'space'
p1038
sg34
g11
sg990
L4L
sg991
g1030
sg993
L4L
sS'block.thisIndex'
p1039
I2
sg995
Vincrease
p1040
sg997
L0L
sg998
VUBxy
p1041
sa(dp1042
S'block.thisTrialN'
p1043
I5
sS'block.thisRepN'
p1044
I0
sg29
g33
sS'block.thisN'
p1045
I5
sg983
(S'DECREASE'
S'TRIPLE'
S'DIVIDE'
S'DOUBLE'
S'x'
S'y'
tp1046
sg27
g28
sg985
L4L
sg986
(I6
I2
I6
I5
tp1047
sg22
I1
sg20
F2.1667163032107055
sg23
F5.6330723888240755
sVY
L3L
sVX
L3L
sg988
g996
sg35
g36
sg37
g38
sg21
S'5'
sg19
S'space'
p1048
sg34
g11
sg990
L5L
sg991
g1027
sg993
L5L
sS'block.thisIndex'
p1049
I14
sg995
g1029
sg997
g1009
sg998
VUUBUxy
p1050
sa(dp1051
S'block.thisTrialN'
p1052
I6
sS'block.thisRepN'
p1053
I0
sg29
g33
sS'block.thisN'
p1054
I6
sg983
(S'THIRD'
S'TIMES'
S'HALF'
S'x'
S'y'
tp1055
sg27
g28
sg985
L3L
sg986
(I3
I18
I6
tp1056
sg22
I1
sg20
F2.6332813170738518
sg23
F4.2498466284014285
sVY
L6L
sVX
L6L
sg988
g1025
sg35
g36
sg37
g38
sg21
S'6'
sg19
S'space'
p1057
sg34
g11
sg990
L6L
sg991
g1006
sg993
L6L
sS'block.thisIndex'
p1058
I7
sg995
g992
sg997
L0L
sg998
VUBUxy
p1059
sa(dp1060
S'block.thisTrialN'
p1061
I7
sS'block.thisRepN'
p1062
I0
sg29
g33
sS'block.thisN'
p1063
I7
sg983
(S'SUBTRACT'
S'TRIPLE'
S'DECREASE'
S'x'
S'y'
tp1064
sg27
g28
sg985
L3L
sg986
(I4
I12
I3
tp1065
sg22
I1
sg20
F4.6331147344317287
sg23
F4.3163123927079141
sVY
L9L
sVX
L5L
sg988
g1029
sg35
g36
sg37
g38
sg21
S'3'
sg19
S'space'
p1066
sg34
g11
sg990
L3L
sg991
g1027
sg993
L3L
sS'block.thisIndex'
p1067
I4
sg995
g1030
sg997
L0L
sg998
VBUUxy
p1068
sa(dp1069
S'block.thisTrialN'
p1070
I8
sS'block.thisRepN'
p1071
I0
sg29
g33
sS'block.thisN'
p1072
I8
sg983
(S'THIRD'
S'DIVIDE'
S'x'
S'y'
tp1073
sg27
g28
sg985
L2L
sg986
(I3
I1
tp1074
sg22
I1
sg20
F1.0167387533001602
sg23
F2.0333665681537241
sVY
L2L
sVX
L6L
sg988
L0L
sg35
g36
sg37
g38
sg21
S'1'
sg19
S'space'
p1075
sg34
g11
sg990
L1L
sg991
g996
sg993
L1L
sS'block.thisIndex'
p1076
I3
sg995
g992
sg997
L0L
sg998
g1041
sa(dp1077
S'block.thisTrialN'
p1078
I9
sS'block.thisRepN'
p1079
I0
sg29
g33
sS'block.thisN'
p1080
I9
sg983
(S'DOUBLE'
S'DECREASE'
S'ADD'
S'x'
S'y'
tp1081
sg27
g28
sg985
L3L
sg986
(I4
I3
I6
tp1082
sg22
I1
sg20
F2.2997857173904777
sg23
F2.3997979310806841
sVY
L2L
sVX
L2L
sg988
VADD
p1083
sg35
g36
sg37
g38
sg21
S'6'
sg19
S'space'
p1084
sg34
g11
sg990
L6L
sg991
g1029
sg993
L6L
sS'block.thisIndex'
p1085
I8
sg995
g1009
sg997
L0L
sg998
g1010
sa(dp1086
S'block.thisTrialN'
p1087
I10
sS'block.thisRepN'
p1088
I0
sg29
g33
sS'block.thisN'
p1089
I10
sg983
(S'TIMES'
S'HALF'
S'INCREASE'
S'x'
S'y'
tp1090
sg27
g28
sg985
L3L
sg986
(I6
I3
I9
tp1091
sg22
I1
sg20
F2.8499395088292658
sg23
F13.065792084671557
sVY
L3L
sVX
L5L
sg988
g1040
sg35
g36
sg37
g38
sg21
S'9'
sg19
S'space'
p1092
sg34
g11
sg990
L9L
sg991
g1025
sg993
L9L
sS'block.thisIndex'
p1093
I5
sg995
g1006
sg997
L0L
sg998
g1068
sa(dp1094
S'block.thisTrialN'
p1095
I11
sS'block.thisRepN'
p1096
I0
sg29
g33
sS'block.thisN'
p1097
I11
sg983
(S'THIRD'
S'DIVIDE'
S'DECREASE'
S'x'
S'y'
tp1098
sg27
g28
sg985
L3L
sg986
(I6
I3
I1
tp1099
sg22
I1
sg20
F2.6830632723867893
sg23
F4.666480602696538
sVY
L2L
sVX
L7L
sg988
g1029
sg35
g36
sg37
g38
sg21
S'1'
sg19
S'space'
p1100
sg34
g11
sg990
L1L
sg991
g996
sg993
L1L
sS'block.thisIndex'
p1101
I6
sg995
g992
sg997
L0L
sg998
g1059
sa(dp1102
S'block.thisTrialN'
p1103
I12
sS'block.thisRepN'
p1104
I0
sg29
g33
sS'block.thisN'
p1105
I12
sg983
(S'DOUBLE'
S'DIVIDE'
S'TRIPLE'
S'INCREASE'
S'x'
S'y'
tp1106
sg27
g28
sg985
L4L
sg986
(I5
I15
I3
I6
tp1107
sg22
I1
sg20
F5.4496985238511115
sg23
F5.7663731290958822
sVY
L5L
sVX
L4L
sg988
g1027
sg35
g36
sg37
g38
sg21
S'6'
sg19
S'space'
p1108
sg34
g11
sg990
L6L
sg991
g996
sg993
L6L
sS'block.thisIndex'
p1109
I12
sg995
g1009
sg997
g1040
sg998
VUBUUxy
p1110
sa(dp1111
S'block.thisTrialN'
p1112
I13
sS'block.thisRepN'
p1113
I0
sg29
g33
sS'block.thisN'
p1114
I13
sg983
(S'SUBTRACT'
S'DOUBLE'
S'TRIPLE'
S'DECREASE'
S'x'
S'y'
tp1115
sg27
g28
sg985
L4L
sg986
(I2
I6
I12
I8
tp1116
sg22
I0
sg20
F6.749606728553772
sVY
L4L
sVX
L3L
sg988
g1027
sg35
g36
sg37
g38
sg21
Nsg19
S'space'
p1117
sg34
g11
sg990
L8L
sg991
g1009
sg993
L8L
sS'block.thisIndex'
p1118
I10
sg995
g1030
sg997
g1029
sg998
VBUUUxy
p1119
sa(dp1120
S'block.thisTrialN'
p1121
I14
sS'block.thisRepN'
p1122
I0
sg29
g33
sS'block.thisN'
p1123
I14
sg983
(S'THIRD'
S'DECREASE'
S'TIMES'
S'HALF'
S'x'
S'y'
tp1124
sg27
g28
sg985
L4L
sg986
(I4
I16
I15
I5
tp1125
sg22
I1
sg20
F4.6830884697847068
sg23
F5.0164510833565146
sVY
L4L
sVX
L8L
sg988
g1006
sg35
g36
sg37
g38
sg21
S'5'
sg19
S'space'
p1126
sg34
g11
sg990
L5L
sg991
g1029
sg993
L5L
sS'block.thisIndex'
p1127
I15
sg995
g992
sg997
g1025
sg998
g1050
sa(dp1128
S'block.thisTrialN'
p1129
I15
sS'block.thisRepN'
p1130
I0
sg29
g33
sS'block.thisN'
p1131
I15
sg983
(S'SUBTRACT'
S'TRIPLE'
S'DECREASE'
S'DOUBLE'
S'x'
S'y'
tp1132
sg27
g28
sg985
L4L
sg986
(I4
I3
I9
I1
tp1133
sg22
I1
sg20
F4.9497420943807811
sg23
F4.8999965353868902
sVY
L8L
sVX
L2L
sg988
g1029
sg35
g36
sg37
g38
sg21
S'1'
sg19
S'space'
p1134
sg34
g11
sg990
L1L
sg991
g1027
sg993
L1L
sS'block.thisIndex'
p1135
I11
sg995
g1030
sg997
g1009
sg998
g1119
sa(dp1136
S'block.thisTrialN'
p1137
I16
sS'block.thisRepN'
p1138
I0
sg29
g33
sS'block.thisN'
p1139
I16
sg983
(S'HALF'
S'TRIPLE'
S'INCREASE'
S'SUBTRACT'
S'x'
S'y'
tp1140
sg27
g28
sg985
L4L
sg986
(I1
I2
I6
I3
tp1141
sg22
I1
sg20
F3.2497489885427058
sg23
F12.282515719532967
sVY
L2L
sVX
L3L
sg988
g1040
sg35
g36
sg37
g38
sg21
S'3'
sg19
S'space'
p1142
sg34
g11
sg990
L3L
sg991
g1027
sg993
L3L
sS'block.thisIndex'
p1143
I17
sg995
g1025
sg997
g1030
sg998
g1031
sa(dp1144
S'block.thisTrialN'
p1145
I17
sS'block.thisRepN'
p1146
I0
sg29
g33
sS'block.thisN'
p1147
I17
sg983
(S'INCREASE'
S'ADD'
S'HALF'
S'TRIPLE'
S'x'
S'y'
tp1148
sg27
g28
sg985
L4L
sg986
(I6
I3
I6
I7
tp1149
sg22
I0
sg20
F5.2663922018837184
sg23
F15.315519025782123
sVY
L3L
sVX
L2L
sg988
g1025
sg35
g36
sg37
g38
sg21
S'4'
sg19
S'space'
p1150
sg34
g11
sg990
L7L
sg991
g1083
sg993
L7L
sS'block.thisIndex'
p1151
I13
sg995
g1040
sg997
g1027
sg998
g1110
sa(dp1152
S'block.thisTrialN'
p1153
I0
sS'block.thisRepN'
p1154
I0
sg29
g33
sS'block.thisN'
p1155
I0
sVRule
p1156
(S'SUBTRACT'
S'DOUBLE'
S'DECREASE'
S'x'
S'y'
tp1157
sg27
g28
sVLength
p1158
L3L
sVIntermediate
p1159
(I8
I16
I7
tp1160
sg22
I1
sg20
F2.2499673659913242
sg23
F10.899291008943692
sVY
L9L
sVX
L9L
sVOperatorc
p1161
Vdecrease
p1162
sg35
g36
sg37
g38
sg21
S'7'
sg19
S'space'
p1163
sg34
g11
sVResult
p1164
L7L
sVOperatora
p1165
Vdouble
p1166
sVCorrectResponse
p1167
L7L
sS'block.thisIndex'
p1168
I5
sVOperatorb
p1169
VSUBTRACT
p1170
sVOperatord
p1171
L0L
sVStructure
p1172
VBUUxy
p1173
sa(dp1174
S'block.thisTrialN'
p1175
I1
sS'block.thisRepN'
p1176
I0
sg29
g33
sS'block.thisN'
p1177
I1
sg1156
(S'INCREASE'
S'DIVIDE'
S'HALF'
S'x'
S'y'
tp1178
sg27
g28
sg1158
L3L
sg1159
(I2
I1
I2
tp1179
sg22
I1
sg20
F5.7163378000259399
sg23
F5.733040857128799
sVY
L2L
sVX
L4L
sg1161
Vhalf
p1180
sg35
g36
sg37
g38
sg21
S'2'
sg19
S'space'
p1181
sg34
g11
sg1164
L2L
sg1165
VDIVIDE
p1182
sg1167
L2L
sS'block.thisIndex'
p1183
I7
sg1169
Vincrease
p1184
sg1171
L0L
sg1172
VUBUxy
p1185
sa(dp1186
S'block.thisTrialN'
p1187
I2
sS'block.thisRepN'
p1188
I0
sg29
g33
sS'block.thisN'
p1189
I2
sg1156
(S'TIMES'
S'THIRD'
S'x'
S'y'
tp1190
sg27
g28
sg1158
L2L
sg1159
(I1
I4
tp1191
sg22
I1
sg20
F1.3000380410812795
sg23
F1.7332928308751434
sVY
L4L
sVX
L3L
sg1161
L0L
sg35
g36
sg37
g38
sg21
S'4'
sg19
S'space'
p1192
sg34
g11
sg1164
L4L
sg1165
Vthird
p1193
sg1167
L4L
sS'block.thisIndex'
p1194
I1
sg1169
VTIMES
p1195
sg1171
L0L
sg1172
VBUxy
p1196
sa(dp1197
S'block.thisTrialN'
p1198
I3
sS'block.thisRepN'
p1199
I0
sg29
g33
sS'block.thisN'
p1200
I3
sg1156
(S'TIMES'
S'DECREASE'
S'THIRD'
S'DOUBLE'
S'x'
S'y'
tp1201
sg27
g28
sg1158
L4L
sg1159
(I6
I2
I1
I2
tp1202
sg22
I0
sg20
F8.4661090115550905
sg23
F10.349333197111264
sVY
L2L
sVX
L3L
sg1161
g1193
sg35
g36
sg37
g38
sg21
S'9'
sg19
S'space'
p1203
sg34
g11
sg1164
L2L
sg1165
g1162
sg1167
L2L
sS'block.thisIndex'
p1204
I11
sg1169
g1195
sg1171
g1166
sg1172
VBUUUxy
p1205
sa(dp1206
S'block.thisTrialN'
p1207
I4
sS'block.thisRepN'
p1208
I0
sg29
g33
sS'block.thisN'
p1209
I4
sg1156
(S'SUBTRACT'
S'THIRD'
S'x'
S'y'
tp1210
sg27
g28
sg1158
L2L
sg1159
(I3
I1
tp1211
sg22
I1
sg20
F3.4331872470211238
sg23
F1.9667104238178581
sVY
L2L
sVX
L9L
sg1161
L0L
sg35
g36
sg37
g38
sg21
S'1'
sg19
S'space'
p1212
sg34
g11
sg1164
L1L
sg1165
g1193
sg1167
L1L
sS'block.thisIndex'
p1213
I0
sg1169
g1170
sg1171
L0L
sg1172
g1196
sa(dp1214
S'block.thisTrialN'
p1215
I5
sS'block.thisRepN'
p1216
I0
sg29
g33
sS'block.thisN'
p1217
I5
sg1156
(S'DOUBLE'
S'TIMES'
S'THIRD'
S'x'
S'y'
tp1218
sg27
g28
sg1158
L3L
sg1159
(I1
I4
I8
tp1219
sg22
I1
sg20
F4.1831463887356222
sg23
F6.832970479503274
sVY
L4L
sVX
L3L
sg1161
g1193
sg35
g36
sg37
g38
sg21
S'8'
sg19
S'space'
p1220
sg34
g11
sg1164
L8L
sg1165
g1195
sg1167
L8L
sS'block.thisIndex'
p1221
I6
sg1169
g1166
sg1171
L0L
sg1172
g1185
sa(dp1222
S'block.thisTrialN'
p1223
I6
sS'block.thisRepN'
p1224
I0
sg29
g33
sS'block.thisN'
p1225
I6
sg1156
(S'TRIPLE'
S'SUBTRACT'
S'INCREASE'
S'HALF'
S'x'
S'y'
tp1226
sg27
g28
sg1158
L4L
sg1159
(I3
I4
I1
I3
tp1227
sg22
I1
sg20
F8.3161416104994714
sg23
F3.899878247641027
sVY
L3L
sVX
L6L
sg1161
g1184
sg35
g36
sg37
g38
sg21
S'3'
sg19
S'space'
p1228
sg34
g11
sg1164
L3L
sg1165
g1170
sg1167
L3L
sS'block.thisIndex'
p1229
I13
sg1169
Vtriple
p1230
sg1171
g1180
sg1172
VUBUUxy
p1231
sa(dp1232
S'block.thisTrialN'
p1233
I7
sS'block.thisRepN'
p1234
I0
sg29
g33
sS'block.thisN'
p1235
I7
sg1156
(S'DECREASE'
S'HALF'
S'DIVIDE'
S'x'
S'y'
tp1236
sg27
g28
sg1158
L3L
sg1159
(I4
I2
I1
tp1237
sg22
I1
sg20
F2.016460532322526
sg23
F3.583281334489584
sVY
L2L
sVX
L8L
sg1161
g1182
sg35
g36
sg37
g38
sg21
S'1'
sg19
S'space'
p1238
sg34
g11
sg1164
L1L
sg1165
g1180
sg1167
L1L
sS'block.thisIndex'
p1239
I8
sg1169
g1162
sg1171
L0L
sg1172
VUUBxy
p1240
sa(dp1241
S'block.thisTrialN'
p1242
I8
sS'block.thisRepN'
p1243
I0
sg29
g33
sS'block.thisN'
p1244
I8
sg1156
(S'TRIPLE'
S'HALF'
S'TIMES'
S'x'
S'y'
tp1245
sg27
g28
sg1158
L3L
sg1159
(I6
I3
I9
tp1246
sg22
I1
sg20
F2.9832342993468046
sg23
F6.766259390860796
sVY
L3L
sVX
L2L
sg1161
g1195
sg35
g36
sg37
g38
sg21
S'9'
sg19
S'space'
p1247
sg34
g11
sg1164
L9L
sg1165
g1180
sg1167
L9L
sS'block.thisIndex'
p1248
I9
sg1169
g1230
sg1171
L0L
sg1172
g1240
sa(dp1249
S'block.thisTrialN'
p1250
I9
sS'block.thisRepN'
p1251
I0
sg29
g33
sS'block.thisN'
p1252
I9
sg1156
(S'THIRD'
S'INCREASE'
S'SUBTRACT'
S'HALF'
S'x'
S'y'
tp1253
sg27
g28
sg1158
L4L
sg1159
(I4
I2
I3
I1
tp1254
sg22
I1
sg20
F17.5653590047732
sg23
F4.1331712536048144
sVY
L2L
sVX
L8L
sg1161
g1170
sg35
g36
sg37
g38
sg21
S'1'
sg19
S'space'
p1255
sg34
g11
sg1164
L1L
sg1165
g1184
sg1167
L1L
sS'block.thisIndex'
p1256
I15
sg1169
g1193
sg1171
g1180
sg1172
VUUBUxy
p1257
sa(dp1258
S'block.thisTrialN'
p1259
I10
sS'block.thisRepN'
p1260
I0
sg29
g33
sS'block.thisN'
p1261
I10
sg1156
(S'INCREASE'
S'HALF'
S'TIMES'
S'TRIPLE'
S'x'
S'y'
tp1262
sg27
g28
sg1158
L4L
sg1159
(I6
I12
I6
I7
tp1263
sg22
I1
sg20
F4.3831365196965635
sg23
F6.0330348028801382
sVY
L2L
sVX
L2L
sg1161
g1195
sg35
g36
sg37
g38
sg21
S'7'
sg19
S'space'
p1264
sg34
g11
sg1164
L7L
sg1165
g1180
sg1167
L7L
sS'block.thisIndex'
p1265
I14
sg1169
g1184
sg1171
g1230
sg1172
g1257
sa(dp1266
S'block.thisTrialN'
p1267
I11
sS'block.thisRepN'
p1268
I0
sg29
g33
sS'block.thisN'
p1269
I11
sg1156
(S'ADD'
S'DECREASE'
S'HALF'
S'x'
S'y'
tp1270
sg27
g28
sg1158
L3L
sg1159
(I3
I2
I6
tp1271
sg22
I1
sg20
F2.5666293720714748
sg23
F3.5498899188823998
sVY
L4L
sVX
L6L
sg1161
g1180
sg35
g36
sg37
g38
sg21
S'6'
sg19
S'space'
p1272
sg34
g11
sg1164
L6L
sg1165
g1162
sg1167
L6L
sS'block.thisIndex'
p1273
I4
sg1169
VADD
p1274
sg1171
L0L
sg1172
g1173
sa(dp1275
S'block.thisTrialN'
p1276
I12
sS'block.thisRepN'
p1277
I0
sg29
g33
sS'block.thisN'
p1278
I12
sg1156
(S'INCREASE'
S'TIMES'
S'x'
S'y'
tp1279
sg27
g28
sg1158
L2L
sg1159
(I8
I9
tp1280
sg22
I1
sg20
F1.1002533384598792
sg23
F2.2000174282584339
sVY
L4L
sVX
L2L
sg1161
L0L
sg35
g36
sg37
g38
sg21
S'9'
sg19
S'space'
p1281
sg34
g11
sg1164
L9L
sg1165
g1195
sg1167
L9L
sS'block.thisIndex'
p1282
I2
sg1169
g1184
sg1171
L0L
sg1172
VUBxy
p1283
sa(dp1284
S'block.thisTrialN'
p1285
I13
sS'block.thisRepN'
p1286
I0
sg29
g33
sS'block.thisN'
p1287
I13
sg1156
(S'DECREASE'
S'HALF'
S'TRIPLE'
S'ADD'
S'x'
S'y'
tp1288
sg27
g28
sg1158
L4L
sg1159
(I4
I12
I6
I5
tp1289
sg22
I1
sg20
F11.032562702195719
sg23
F5.4497366698924452
sVY
L2L
sVX
L2L
sg1161
g1230
sg35
g36
sg37
g38
sg21
S'5'
sg19
S'space'
p1290
sg34
g11
sg1164
L5L
sg1165
g1180
sg1167
L5L
sS'block.thisIndex'
p1291
I16
sg1169
g1162
sg1171
g1274
sg1172
VUUUBxy
p1292
sa(dp1293
S'block.thisTrialN'
p1294
I14
sS'block.thisRepN'
p1295
I0
sg29
g33
sS'block.thisN'
p1296
I14
sg1156
(S'DIVIDE'
S'DECREASE'
S'THIRD'
S'DOUBLE'
S'x'
S'y'
tp1297
sg27
g28
sg1158
L4L
sg1159
(I12
I4
I3
I1
tp1298
sg22
I1
sg20
F7.2162207374349236
sg23
F5.1330988111440092
sVY
L3L
sVX
L6L
sg1161
g1193
sg35
g36
sg37
g38
sg21
S'1'
sg19
S'space'
p1299
sg34
g11
sg1164
L1L
sg1165
g1162
sg1167
L1L
sS'block.thisIndex'
p1300
I10
sg1169
g1182
sg1171
g1166
sg1172
g1205
sa(dp1301
S'block.thisTrialN'
p1302
I15
sS'block.thisRepN'
p1303
I0
sg29
g33
sS'block.thisN'
p1304
I15
sg1156
(S'DECREASE'
S'DIVIDE'
S'TRIPLE'
S'DOUBLE'
S'x'
S'y'
tp1305
sg27
g28
sg1158
L4L
sg1159
(I6
I18
I2
I1
tp1306
sg22
I1
sg20
F4.6164354749489576
sg23
F6.3829975840635598
sVY
L9L
sVX
L3L
sg1161
g1230
sg35
g36
sg37
g38
sg21
S'1'
sg19
S'space'
p1307
sg34
g11
sg1164
L1L
sg1165
g1182
sg1167
L1L
sS'block.thisIndex'
p1308
I12
sg1169
g1162
sg1171
g1166
sg1172
g1231
sa(dp1309
S'block.thisTrialN'
p1310
I16
sS'block.thisRepN'
p1311
I0
sg29
g33
sS'block.thisN'
p1312
I16
sg1156
(S'INCREASE'
S'TRIPLE'
S'HALF'
S'ADD'
S'x'
S'y'
tp1313
sg27
g28
sg1158
L4L
sg1159
(I4
I2
I6
I7
tp1314
sg22
I1
sg20
F4.9164056230802089
sg23
F7.4995616707019508
sVY
L2L
sVX
L2L
sg1161
g1180
sg35
g36
sg37
g38
sg21
S'7'
sg19
S'space'
p1315
sg34
g11
sg1164
L7L
sg1165
g1230
sg1167
L7L
sS'block.thisIndex'
p1316
I17
sg1169
g1184
sg1171
g1274
sg1172
g1292
sa(dp1317
S'block.thisTrialN'
p1318
I17
sS'block.thisRepN'
p1319
I0
sg29
g33
sS'block.thisN'
p1320
I17
sg1156
(S'TRIPLE'
S'SUBTRACT'
S'x'
S'y'
tp1321
sg27
g28
sg1158
L2L
sg1159
(I2
I6
tp1322
sg22
I0
sg20
F1.7666691981721669
sg23
F7.4329034264665097
sVY
L6L
sVX
L8L
sg1161
L0L
sg35
g36
sg37
g38
sg21
S'3'
sg19
S'space'
p1323
sg34
g11
sg1164
L6L
sg1165
g1170
sg1167
L6L
sS'block.thisIndex'
p1324
I3
sg1169
g1230
sg1171
L0L
sg1172
g1283
sa(dp1325
S'block.thisTrialN'
p1326
I0
sS'block.thisRepN'
p1327
I0
sg29
g33
sS'block.thisN'
p1328
I0
sVRule
p1329
(S'INCREASE'
S'TRIPLE'
S'DIVIDE'
S'x'
S'y'
tp1330
sg27
g28
sVLength
p1331
L3L
sVIntermediate
p1332
(I2
I6
I7
tp1333
sg22
I1
sg20
F6.249443820444867
sg23
F3.3165850143413991
sVY
L3L
sVX
L6L
sVOperatorc
p1334
VDIVIDE
p1335
sg35
g36
sg37
g38
sg21
S'7'
sg19
S'space'
p1336
sg34
g11
sVResult
p1337
L7L
sVOperatora
p1338
Vtriple
p1339
sVCorrectResponse
p1340
L7L
sS'block.thisIndex'
p1341
I8
sVOperatorb
p1342
Vincrease
p1343
sVOperatord
p1344
L0L
sVStructure
p1345
VUUBxy
p1346
sa(dp1347
S'block.thisTrialN'
p1348
I1
sS'block.thisRepN'
p1349
I0
sg29
g33
sS'block.thisN'
p1350
I1
sg1329
(S'THIRD'
S'DOUBLE'
S'ADD'
S'DECREASE'
S'x'
S'y'
tp1351
sg27
g28
sg1331
L4L
sg1332
(I5
I12
I24
I8
tp1352
sg22
I1
sg20
F8.216136746108532
sg23
F6.2663397074211389
sVY
L7L
sVX
L6L
sg1334
VADD
p1353
sg35
g36
sg37
g38
sg21
S'8'
sg19
S'space'
p1354
sg34
g11
sg1337
L8L
sg1338
Vdouble
p1355
sg1340
L8L
sS'block.thisIndex'
p1356
I14
sg1342
Vthird
p1357
sg1344
Vdecrease
p1358
sg1345
VUUBUxy
p1359
sa(dp1360
S'block.thisTrialN'
p1361
I2
sS'block.thisRepN'
p1362
I0
sg29
g33
sS'block.thisN'
p1363
I2
sg1329
(S'HALF'
S'TRIPLE'
S'INCREASE'
S'DIVIDE'
S'x'
S'y'
tp1364
sg27
g28
sg1331
L4L
sg1332
(I3
I4
I12
I6
tp1365
sg22
I1
sg20
F11.932471046689898
sg23
F3.883230485022068
sVY
L3L
sVX
L9L
sg1334
g1343
sg35
g36
sg37
g38
sg21
S'6'
sg19
S'space'
p1366
sg34
g11
sg1337
L6L
sg1338
g1339
sg1340
L6L
sS'block.thisIndex'
p1367
I16
sg1342
Vhalf
p1368
sg1344
g1335
sg1345
VUUUBxy
p1369
sa(dp1370
S'block.thisTrialN'
p1371
I3
sS'block.thisRepN'
p1372
I0
sg29
g33
sS'block.thisN'
p1373
I3
sg1329
(S'DIVIDE'
S'INCREASE'
S'x'
S'y'
tp1374
sg27
g28
sg1331
L2L
sg1332
(I4
I2
tp1375
sg22
I1
sg20
F1.5166598365176469
sg23
F2.599993840791285
sVY
L2L
sVX
L3L
sg1334
L0L
sg35
g36
sg37
g38
sg21
S'2'
sg19
S'space'
p1376
sg34
g11
sg1337
L2L
sg1338
g1343
sg1340
L2L
sS'block.thisIndex'
p1377
I0
sg1342
g1335
sg1344
L0L
sg1345
VBUxy
p1378
sa(dp1379
S'block.thisTrialN'
p1380
I4
sS'block.thisRepN'
p1381
I0
sg29
g33
sS'block.thisN'
p1382
I4
sg1329
(S'DECREASE'
S'DIVIDE'
S'x'
S'y'
tp1383
sg27
g28
sg1331
L2L
sg1332
(I2
I1
tp1384
sg22
I1
sg20
F2.266662023961544
sg23
F2.0999905159696937
sVY
L4L
sVX
L8L
sg1334
L0L
sg35
g36
sg37
g38
sg21
S'1'
sg19
S'space'
p1385
sg34
g11
sg1337
L1L
sg1338
g1335
sg1340
L1L
sS'block.thisIndex'
p1386
I2
sg1342
g1358
sg1344
L0L
sg1345
VUBxy
p1387
sa(dp1388
S'block.thisTrialN'
p1389
I5
sS'block.thisRepN'
p1390
I0
sg29
g33
sS'block.thisN'
p1391
I5
sg1329
(S'THIRD'
S'HALF'
S'ADD'
S'x'
S'y'
tp1392
sg27
g28
sg1331
L3L
sg1332
(I6
I3
I1
tp1393
sg22
I1
sg20
F3.7165502281859517
sg23
F3.3998794725630432
sVY
L3L
sVX
L3L
sg1334
g1353
sg35
g36
sg37
g38
sg21
S'1'
sg19
S'space'
p1394
sg34
g11
sg1337
L1L
sg1338
g1368
sg1340
L1L
sS'block.thisIndex'
p1395
I9
sg1342
g1357
sg1344
L0L
sg1345
g1346
sa(dp1396
S'block.thisTrialN'
p1397
I6
sS'block.thisRepN'
p1398
I0
sg29
g33
sS'block.thisN'
p1399
I6
sg1329
(S'SUBTRACT'
S'DECREASE'
S'x'
S'y'
tp1400
sg27
g28
sg1331
L2L
sg1332
(I5
I3
tp1401
sg22
I1
sg20
F1.2000517246779054
sg23
F5.1331002111546695
sVY
L2L
sVX
L6L
sg1334
L0L
sg35
g36
sg37
g38
sg21
S'3'
sg19
S'space'
p1402
sg34
g11
sg1337
L3L
sg1338
g1358
sg1340
L3L
sS'block.thisIndex'
p1403
I1
sg1342
VSUBTRACT
p1404
sg1344
L0L
sg1345
g1378
sa(dp1405
S'block.thisTrialN'
p1406
I7
sS'block.thisRepN'
p1407
I0
sg29
g33
sS'block.thisN'
p1408
I7
sg1329
(S'THIRD'
S'DOUBLE'
S'INCREASE'
S'TIMES'
S'x'
S'y'
tp1409
sg27
g28
sg1331
L4L
sg1332
(I8
I9
I18
I6
tp1410
sg22
I1
sg20
F6.2496254516299814
sg23
F11.582554110325873
sVY
L4L
sVX
L2L
sg1334
g1343
sg35
g36
sg37
g38
sg21
S'6'
sg19
S'space'
p1411
sg34
g11
sg1337
L6L
sg1338
g1355
sg1340
L6L
sS'block.thisIndex'
p1412
I17
sg1342
g1357
sg1344
VTIMES
p1413
sg1345
g1369
sa(dp1414
S'block.thisTrialN'
p1415
I8
sS'block.thisRepN'
p1416
I0
sg29
g33
sS'block.thisN'
p1417
I8
sg1329
(S'ADD'
S'HALF'
S'THIRD'
S'x'
S'y'
tp1418
sg27
g28
sg1331
L3L
sg1332
(I2
I1
I9
tp1419
sg22
I1
sg20
F1.766666398383677
sg23
F3.499899385496974
sVY
L8L
sVX
L6L
sg1334
g1357
sg35
g36
sg37
g38
sg21
S'9'
sg19
S'space'
p1420
sg34
g11
sg1337
L9L
sg1338
g1368
sg1340
L9L
sS'block.thisIndex'
p1421
I4
sg1342
g1353
sg1344
L0L
sg1345
VBUUxy
p1422
sa(dp1423
S'block.thisTrialN'
p1424
I9
sS'block.thisRepN'
p1425
I0
sg29
g33
sS'block.thisN'
p1426
I9
sg1329
(S'INCREASE'
S'ADD'
S'x'
S'y'
tp1427
sg27
g28
sg1331
L2L
sg1332
(I5
I6
tp1428
sg22
I1
sg20
F2.7332896811421961
sg23
F4.5162864255253226
sVY
L2L
sVX
L3L
sg1334
L0L
sg35
g36
sg37
g38
sg21
S'6'
sg19
S'space'
p1429
sg34
g11
sg1337
L6L
sg1338
g1353
sg1340
L6L
sS'block.thisIndex'
p1430
I3
sg1342
g1343
sg1344
L0L
sg1345
g1387
sa(dp1431
S'block.thisTrialN'
p1432
I10
sS'block.thisRepN'
p1433
I0
sg29
g33
sS'block.thisN'
p1434
I10
sg1329
(S'HALF'
S'ADD'
S'TRIPLE'
S'x'
S'y'
tp1435
sg27
g28
sg1331
L3L
sg1332
(I9
I12
I6
tp1436
sg22
I1
sg20
F4.9164360698778182
sg23
F11.41591479931958
sVY
L3L
sVX
L3L
sg1334
g1339
sg35
g36
sg37
g38
sg21
S'6'
sg19
S'space'
p1437
sg34
g11
sg1337
L6L
sg1338
g1353
sg1340
L6L
sS'block.thisIndex'
p1438
I6
sg1342
g1368
sg1344
L0L
sg1345
VUBUxy
p1439
sa(dp1440
S'block.thisTrialN'
p1441
I11
sS'block.thisRepN'
p1442
I0
sg29
g33
sS'block.thisN'
p1443
I11
sg1329
(S'THIRD'
S'TIMES'
S'DOUBLE'
S'DECREASE'
S'x'
S'y'
tp1444
sg27
g28
sg1331
L4L
sg1332
(I1
I2
I6
I2
tp1445
sg22
I1
sg20
F8.0163254463113844
sg23
F6.1163411596789956
sVY
L3L
sVX
L2L
sg1334
g1355
sg35
g36
sg37
g38
sg21
S'2'
sg19
S'space'
p1446
sg34
g11
sg1337
L2L
sg1338
g1413
sg1340
L2L
sS'block.thisIndex'
p1447
I13
sg1342
g1357
sg1344
g1358
sg1345
VUBUUxy
p1448
sa(dp1449
S'block.thisTrialN'
p1450
I12
sS'block.thisRepN'
p1451
I0
sg29
g33
sS'block.thisN'
p1452
I12
sg1329
(S'ADD'
S'DOUBLE'
S'DECREASE'
S'THIRD'
S'x'
S'y'
tp1453
sg27
g28
sg1331
L4L
sg1332
(I2
I1
I2
I8
tp1454
sg22
I1
sg20
F5.3997097401879728
sg23
F6.93294139765203
sVY
L6L
sVX
L6L
sg1334
g1358
sg35
g36
sg37
g38
sg21
S'8'
sg19
S'space'
p1455
sg34
g11
sg1337
L8L
sg1338
g1355
sg1340
L8L
sS'block.thisIndex'
p1456
I10
sg1342
g1353
sg1344
g1357
sg1345
VBUUUxy
p1457
sa(dp1458
S'block.thisTrialN'
p1459
I13
sS'block.thisRepN'
p1460
I0
sg29
g33
sS'block.thisN'
p1461
I13
sg1329
(S'THIRD'
S'INCREASE'
S'DIVIDE'
S'DOUBLE'
S'x'
S'y'
tp1462
sg27
g28
sg1331
L4L
sg1332
(I18
I2
I3
I1
tp1463
sg22
I1
sg20
F6.3329937520902604
sg23
F7.2329535412136465
sVY
L9L
sVX
L9L
sg1334
g1335
sg35
g36
sg37
g38
sg21
S'1'
sg19
S'space'
p1464
sg34
g11
sg1337
L1L
sg1338
g1343
sg1340
L1L
sS'block.thisIndex'
p1465
I15
sg1342
g1357
sg1344
g1355
sg1345
g1359
sa(dp1466
S'block.thisTrialN'
p1467
I14
sS'block.thisRepN'
p1468
I0
sg29
g33
sS'block.thisN'
p1469
I14
sg1329
(S'INCREASE'
S'SUBTRACT'
S'HALF'
S'x'
S'y'
tp1470
sg27
g28
sg1331
L3L
sg1332
(I4
I2
I3
tp1471
sg22
I1
sg20
F5.3497549029998481
sg23
F2.8666282172780484
sVY
L2L
sVX
L8L
sg1334
g1368
sg35
g36
sg37
g38
sg21
S'3'
sg19
S'space'
p1472
sg34
g11
sg1337
L3L
sg1338
g1404
sg1340
L3L
sS'block.thisIndex'
p1473
I7
sg1342
g1343
sg1344
L0L
sg1345
g1439
sa(dp1474
S'block.thisTrialN'
p1475
I15
sS'block.thisRepN'
p1476
I0
sg29
g33
sS'block.thisN'
p1477
I15
sg1329
(S'DIVIDE'
S'DECREASE'
S'TRIPLE'
S'x'
S'y'
tp1478
sg27
g28
sg1331
L3L
sg1332
(I9
I8
I4
tp1479
sg22
I1
sg20
F4.7331024506129324
sg23
F3.7665509104263037
sVY
L2L
sVX
L3L
sg1334
g1339
sg35
g36
sg37
g38
sg21
S'4'
sg19
S'space'
p1480
sg34
g11
sg1337
L4L
sg1338
g1358
sg1340
L4L
sS'block.thisIndex'
p1481
I5
sg1342
g1335
sg1344
L0L
sg1345
g1422
sa(dp1482
S'block.thisTrialN'
p1483
I16
sS'block.thisRepN'
p1484
I0
sg29
g33
sS'block.thisN'
p1485
I16
sg1329
(S'SUBTRACT'
S'DECREASE'
S'TRIPLE'
S'DOUBLE'
S'x'
S'y'
tp1486
sg27
g28
sg1331
L4L
sg1332
(I6
I18
I17
I8
tp1487
sg22
I0
sg20
F5.7996249091811478
sg23
F14.398976216791198
sVY
L9L
sVX
L3L
sg1334
g1339
sg35
g36
sg37
g38
sg21
S'1'
sg19
S'space'
p1488
sg34
g11
sg1337
L8L
sg1338
g1358
sg1340
L8L
sS'block.thisIndex'
p1489
I11
sg1342
g1404
sg1344
g1355
sg1345
g1457
sa(dp1490
S'block.thisTrialN'
p1491
I17
sS'block.thisRepN'
p1492
I0
sg29
g33
sS'block.thisN'
p1493
I17
sg1329
(S'DOUBLE'
S'ADD'
S'INCREASE'
S'THIRD'
S'x'
S'y'
tp1494
sg27
g28
sg1331
L4L
sg1332
(I1
I2
I4
I8
tp1495
sg22
I1
sg20
F7.249547409825027
sg23
F6.5998503556475043
sVY
L2L
sVX
L3L
sg1334
g1343
sg35
g36
sg37
g38
sg21
S'8'
sg19
S'space'
p1496
sg34
g11
sg1337
L8L
sg1338
g1353
sg1340
L8L
sS'block.thisIndex'
p1497
I12
sg1342
g1355
sg1344
g1357
sg1345
g1448
sasS'loops'
p1498
(lp1499
g1
(cpsychopy.data
TrialHandler
p1500
g3
NtRp1501
(dp1502
S'origin'
p1503
NsS'thisTrial'
p1504
(lp1505
sS'_exp'
p1506
I341337072
sg10
S'practice_trials'
p1507
sg6
S'C:\\Users\\experimenter\\Desktop\\Experiments\\KRITL\\2. kritl_experimenter.py'
p1508
sS'thisRepN'
p1509
I1
sg24
I01
sg25
g26
sS'data'
p1510
g1
(cpsychopy.data
DataHandler
p1511
c__builtin__
dict
p1512
(dp1513
g15
cnumpy.core.multiarray
_reconstruct
p1514
(cnumpy
ndarray
p1515
(I0
tS'b'
tRp1516
(I1
(I6
I1
tg31
(S'O4'
I0
I1
tRp1517
(I3
S'|'
NNNI-1
I-1
I63
tbI00
(lp1518
(lp1519
F2.7665596595034003
aa(lp1520
F2.8665561247617006
aa(lp1521
F1.8499776548705995
aa(lp1522
F3.8831321452744305
aa(lp1523
F4.4997415519319475
aa(lp1524
F10.682548475917429
aatbsg16
g1514
(g1515
(I0
tS'b'
tRp1525
(I1
(I6
I1
tg1517
I00
(lp1526
S'7'
aS'8'
aS'7'
aS'8'
aS'3'
aS'9'
atbsS'ran'
p1527
cnumpy.ma.core
_mareconstruct
p1528
(cnumpy.ma.core
MaskedArray
p1529
g1515
(I0
tp1530
S'b'
tRp1531
(I1
(I6
I1
tg31
(S'f4'
I0
I1
tRp1532
(I3
S'<'
NNNI-1
I-1
I0
tbI00
S'\x00\x00\x80?\x00\x00\x80?\x00\x00\x80?\x00\x00\x80?\x00\x00\x80?\x00\x00\x80?'
S'\x00\x00\x00\x00\x00\x00'
Ntbsg18
g1528
(g1529
g1515
g1530
S'b'
tRp1533
(I1
(I6
I1
tg1532
I00
S'`\xce\xcc?v \x8a@\xae\x00\xe0?\x96\x1f\x16A\x9aB\x8c@y\x0f\x89@'
S'\x00\x00\x00\x00\x00\x00'
Ntbsg14
g1514
(g1515
(I0
tS'b'
tRp1534
(I1
(I6
I1
tg1517
I00
(lp1535
(lp1536
g120
aa(lp1537
g73
aa(lp1538
g92
aa(lp1539
g84
aa(lp1540
g103
aa(lp1541
g112
aatbsS'order'
p1542
g1528
(g1529
g1515
g1530
S'b'
tRp1543
(I1
(I6
I1
tg1532
I00
S'\x00\x00\xa0@\x00\x00\x00\x00\x00\x00\x00@\x00\x00\x80?\x00\x00@@\x00\x00\x80@'
S'\x00\x00\x00\x00\x00\x00'
Ntbsg17
g1528
(g1529
g1515
g1530
S'b'
tRp1544
(I1
(I6
I1
tg1532
I00
S'\x00\x00\x80?\x00\x00\x80?\x00\x00\x80?\x00\x00\x80?\x00\x00\x80?\x00\x00\x80?'
S'\x00\x00\x00\x00\x00\x00'
NtbstRp1545
(dp1546
S'isNumeric'
p1547
(dp1548
g16
I00
sg1527
I01
sg18
I01
sg14
I00
sg17
I01
sg1542
I01
sg15
I00
ssS'trials'
p1549
g1501
sS'dataTypes'
p1550
(lp1551
g1527
ag1542
ag14
ag15
ag16
ag17
ag18
asS'dataShape'
p1552
(lp1553
I6
aI1
asbsS'method'
p1554
S'fullRandom'
p1555
sS'sequenceIndices'
p1556
g1514
(g1515
(I0
tS'b'
tRp1557
(I1
(I6
I1
tg1517
I00
(lp1558
I1
aI3
aI2
aI4
aI5
aI0
atbsS'finished'
p1559
I01
sS'nReps'
p1560
I1
sS'nRemaining'
p1561
I-1
sS'trialList'
p1562
(lp1563
g1
(cpsychopy.data
TrialType
p1564
g1512
(dp1565
g47
L0L
sg48
g78
sg49
g68
sg50
L7L
sg53
L2L
sg52
L0L
sg51
L5L
sg54
L3L
stRp1566
ag1
(g1564
g1512
(dp1567
g47
L0L
sg48
g68
sg49
g69
sg50
L8L
sg53
L2L
sg52
L0L
sg51
L3L
sg54
L3L
stRp1568
ag1
(g1564
g1512
(dp1569
g47
L0L
sg48
g78
sg49
g80
sg50
L7L
sg53
L2L
sg52
L0L
sg51
L5L
sg54
L4L
stRp1570
ag1
(g1564
g1512
(dp1571
g47
g78
sg48
g79
sg49
g80
sg50
L8L
sg53
L3L
sg52
L0L
sg51
L2L
sg54
L4L
stRp1572
ag1
(g1564
g1512
(dp1573
g47
g97
sg48
g98
sg49
g99
sg50
L3L
sg53
L3L
sg52
L0L
sg51
L3L
sg54
L2L
stRp1574
ag1
(g1564
g1512
(dp1575
g47
g97
sg48
g98
sg49
g108
sg50
L9L
sg53
L4L
sg52
g99
sg51
L8L
sg54
L8L
stRp1576
asS'seed'
p1577
NsS'thisIndex'
p1578
I0
sS'thisN'
p1579
I6
sS'thisTrialN'
p1580
I0
sS'nTotal'
p1581
I6
sbag1
(g1500
g3
NtRp1582
(dp1583
g1503
Nsg1504
(lp1584
sg1506
I341337072
sg10
S'block'
p1585
sg6
g1508
sg1509
I1
sg24
I01
sg25
g26
sg1510
g1
(g1511
g1512
(dp1586
g22
g1528
(g1529
g1515
g1530
S'b'
tRp1587
(I1
(I18
I1
tg1532
I00
S'\x00\x00\x80?\x00\x00\x80?\x00\x00\x80?\x00\x00\x80?\x00\x00\x80?\x00\x00\x80?\x00\x00\x80?\x00\x00\x80?\x00\x00\x80?\x00\x00\x80?\x00\x00\x80?\x00\x00\x80?\x00\x00\x00\x00\x00\x00\x80?\x00\x00\x00\x00\x00\x00\x80?\x00\x00\x80?\x00\x00\x80?'
S'\x00\x00\x00\x00\x00\x00\x00\x00\x00\x00\x00\x00\x00\x00\x00\x00\x00\x00'
Ntbsg19
g1514
(g1515
(I0
tS'b'
tRp1588
(I1
(I18
I1
tg1517
I00
(lp1589
g261
ag235
ag164
ag130
ag285
ag244
ag154
ag173
ag200
ag277
ag191
ag182
ag217
ag253
ag269
ag226
ag142
ag209
atbsg23
g1528
(g1529
g1515
g1530
S'b'
tRp1590
(I1
(I18
I1
tg1532
I00
S'\xbc\x8b\xe8?\x82\xab\n@\x13u\xbf@8\xf0\xee?\xb71\x93@\xa50\x9b@\xc2\x1f\x12A\xb2\xc8|@\xb5\xba\x83@$\x83X@\xf0t\xcf@\x1e \xaa@\x020\x13A\xcb\rAA\x00\x00\x00\x00\x8a\x86\xa0@\xa1B\x94@\x1fxg@'
S'\x00\x00\x00\x00\x00\x00\x00\x00\x00\x00\x00\x00\x00\x00\x01\x00\x00\x00'
Ntbsg1527
g1528
(g1529
g1515
g1530
S'b'
tRp1591
(I1
(I18
I1
tg1532
I00
S'\x00\x00\x80?\x00\x00\x80?\x00\x00\x80?\x00\x00\x80?\x00\x00\x80?\x00\x00\x80?\x00\x00\x80?\x00\x00\x80?\x00\x00\x80?\x00\x00\x80?\x00\x00\x80?\x00\x00\x80?\x00\x00\x80?\x00\x00\x80?\x00\x00\x80?\x00\x00\x80?\x00\x00\x80?\x00\x00\x80?'
S'\x00\x00\x00\x00\x00\x00\x00\x00\x00\x00\x00\x00\x00\x00\x00\x00\x00\x00'
Ntbsg21
g1514
(g1515
(I0
tS'b'
tRp1592
(I1
(I18
I1
tg1517
I00
(lp1593
S'7'
aS'2'
aS'8'
aS'8'
aS'4'
aS'4'
aS'9'
aS'2'
aS'5'
aS'1'
aS'2'
aS'8'
aS'1'
aS'4'
aNaS'6'
aS'8'
aS'3'
atbsg1542
g1528
(g1529
g1515
g1530
S'b'
tRp1594
(I1
(I18
I1
tg1532
I00
S'\x00\x00`A\x00\x000A\x00\x00@@\x00\x00\x00\x00\x00\x00\x88A\x00\x00@A\x00\x00\x00@\x00\x00\x80@\x00\x00\xe0@\x00\x00\x80A\x00\x00\xc0@\x00\x00\xa0@\x00\x00\x10A\x00\x00PA\x00\x00pA\x00\x00 A\x00\x00\x80?\x00\x00\x00A'
S'\x00\x00\x00\x00\x00\x00\x00\x00\x00\x00\x00\x00\x00\x00\x00\x00\x00\x00'
Ntbsg20
g1528
(g1529
g1515
g1530
S'b'
tRp1595
(I1
(I18
I1
tg1532
I00
S"I\xe8\xee?8\xaa\x1a@'\x878@pBD@\xbe\xec\x9e@\xe1/\xc3@5\x0e%A\xd2\xec\x0eA]\xa7\xd2@!\xdb\xcd@g\rEA\xdf\x85\x18A\x03B\x9c@\x84\xdaEA\xfbR\x19A\xd9@\xd4@\xb6c\x16A\x0e\xfb{A"
S'\x00\x00\x00\x00\x00\x00\x00\x00\x00\x00\x00\x00\x00\x00\x00\x00\x00\x00'
NtbstRp1596
(dp1597
g1547
(dp1598
g1527
I01
sg21
I00
sg20
I01
sg22
I01
sg19
I00
sg23
I01
sg1542
I01
ssg1549
g1582
sg1550
(lp1599
g1527
ag1542
ag19
ag20
ag21
ag22
ag23
asg1552
(lp1600
I18
aI1
asbsg1554
g1555
sg1556
g1514
(g1515
(I0
tS'b'
tRp1601
(I1
(I18
I1
tg1517
I00
(lp1602
I3
aI16
aI6
aI2
aI7
aI11
aI10
aI8
aI17
aI12
aI15
aI1
aI5
aI13
aI0
aI14
aI9
aI4
atbsg1559
I01
sg1560
I1
sg1561
I-1
sg1562
(lp1603
g1
(g1564
g1512
(dp1604
g55
g259
sVY
L6L
sg57
L2L
sg58
g260
sg59
L7L
sg60
L7L
sg56
g172
sVX
L3L
sg61
L0L
sg62
g146
sg63
L0L
sg64
g237
stRp1605
ag1
(g1564
g1512
(dp1606
g55
g233
sVY
L4L
sg57
L2L
sg58
g234
sg59
L2L
sg60
L2L
sg56
g156
sVX
L5L
sg61
L0L
sg62
g174
sg63
L0L
sg64
g237
stRp1607
ag1
(g1564
g1512
(dp1608
g55
g162
sVY
L2L
sg57
L2L
sg58
g163
sg59
L8L
sg60
L8L
sg56
g146
sVX
L2L
sg61
L0L
sg62
g133
sg63
L0L
sg64
g134
stRp1609
ag1
(g1564
g1512
(dp1610
g55
g128
sVY
L2L
sg57
L2L
sg58
g129
sg59
L8L
sg60
L8L
sg56
g131
sVX
L2L
sg61
L0L
sg62
g133
sg63
L0L
sg64
g134
stRp1611
ag1
(g1564
g1512
(dp1612
g55
g283
sVY
L3L
sg57
L3L
sg58
g284
sg59
L4L
sg60
L4L
sg56
g143
sVX
L8L
sg61
g141
sg62
g193
sg63
L0L
sg64
g246
stRp1613
ag1
(g1564
g1512
(dp1614
g55
g242
sVY
L2L
sg57
L3L
sg58
g243
sg59
L4L
sg60
L4L
sg56
g172
sVX
L3L
sg61
g133
sg62
g131
sg63
L0L
sg64
g246
stRp1615
ag1
(g1564
g1512
(dp1616
g55
g152
sVY
L2L
sg57
L3L
sg58
g153
sg59
L9L
sg60
L9L
sg56
g146
sVX
L2L
sg61
g143
sg62
g156
sg63
L0L
sg64
g157
stRp1617
ag1
(g1564
g1512
(dp1618
g55
g170
sVY
L2L
sg57
L3L
sg58
g171
sg59
L2L
sg60
L2L
sg56
g174
sVX
L9L
sg61
g172
sg62
g156
sg63
L0L
sg64
g157
stRp1619
ag1
(g1564
g1512
(dp1620
g55
g198
sVY
L4L
sg57
L3L
sg58
g199
sg59
L5L
sg60
L5L
sg56
g143
sVX
L8L
sg61
g193
sg62
g145
sg63
L0L
sg64
g202
stRp1621
ag1
(g1564
g1512
(dp1622
g55
g275
sVY
L6L
sg57
L3L
sg58
g276
sg59
L1L
sg60
L1L
sg56
g156
sVX
L8L
sg61
g174
sg62
g172
sg63
L0L
sg64
g202
stRp1623
ag1
(g1564
g1512
(dp1624
g55
g189
sVY
L3L
sg57
L4L
sg58
g190
sg59
L2L
sg60
L2L
sg56
g133
sVX
L6L
sg61
g156
sg62
g193
sg63
g172
sg64
g184
stRp1625
ag1
(g1564
g1512
(dp1626
g55
g180
sVY
L2L
sg57
L4L
sg58
g181
sg59
L8L
sg60
L8L
sg56
g156
sVX
L2L
sg61
g141
sg62
g131
sg63
g143
sg64
g184
stRp1627
ag1
(g1564
g1512
(dp1628
g55
g215
sVY
L3L
sg57
L4L
sg58
g216
sg59
L3L
sg60
L3L
sg56
g193
sVX
L4L
sg61
g143
sg62
g156
sg63
g141
sg64
g219
stRp1629
ag1
(g1564
g1512
(dp1630
g55
g251
sVY
L3L
sg57
L4L
sg58
g252
sg59
L4L
sg60
L4L
sg56
g131
sVX
L7L
sg61
g141
sg62
g172
sg63
g156
sg64
g219
stRp1631
ag1
(g1564
g1512
(dp1632
g55
g267
sVY
L4L
sg57
L4L
sg58
g268
sg59
L7L
sg60
L7L
sg56
g156
sVX
L8L
sg61
g146
sg62
g172
sg63
g133
sg64
g228
stRp1633
ag1
(g1564
g1512
(dp1634
g55
g224
sVY
L3L
sg57
L4L
sg58
g225
sg59
L6L
sg60
L6L
sg56
g133
sVX
L5L
sg61
g174
sg62
g143
sg63
g145
sg64
g228
stRp1635
ag1
(g1564
g1512
(dp1636
g55
g139
sVY
L2L
sg57
L4L
sg58
g140
sg59
L8L
sg60
L8L
sg56
g143
sVX
L4L
sg61
g141
sg62
g145
sg63
g146
sg64
g147
stRp1637
ag1
(g1564
g1512
(dp1638
g55
g207
sVY
L5L
sg57
L4L
sg58
g208
sg59
L3L
sg60
L3L
sg56
g145
sVX
L9L
sg61
g141
sg62
g143
sg63
g174
sg64
g147
stRp1639
asg1577
Nsg1578
I4
sg1579
I18
sg1580
I0
sg1581
I18
sbag1
(g1500
g3
NtRp1640
(dp1641
g1503
Nsg1504
(lp1642
sg1506
I341337072
sg10
g1585
sg6
g1508
sg1509
I1
sg24
I01
sg25
g26
sg1510
g1
(g1511
g1512
(dp1643
g22
g1528
(g1529
g1515
g1530
S'b'
tRp1644
(I1
(I18
I1
tg1532
I00
S'\x00\x00\x80?\x00\x00\x80?\x00\x00\x80?\x00\x00\x80?\x00\x00\x80?\x00\x00\x80?\x00\x00\x80?\x00\x00\x80?\x00\x00\x80?\x00\x00\x80?\x00\x00\x80?\x00\x00\x80?\x00\x00\x80?\x00\x00\x80?\x00\x00\x80?\x00\x00\x80?\x00\x00\x80?\x00\x00\x80?'
S'\x00\x00\x00\x00\x00\x00\x00\x00\x00\x00\x00\x00\x00\x00\x00\x00\x00\x00'
Ntbsg19
g1514
(g1515
(I0
tS'b'
tRp1645
(I1
(I18
I1
tg1517
I00
(lp1646
g458
ag383
ag441
ag450
ag316
ag401
ag425
ag374
ag325
ag409
ag417
ag365
ag433
ag336
ag356
ag347
ag392
ag298
atbsg23
g1528
(g1529
g1515
g1530
S'b'
tRp1647
(I1
(I18
I1
tg1532
I00
S'\xf4V\xd5?\xd4\xfe\x0f@\xff R@\xb6\xbd\xbb?L\x0fa@\x9a\x86x@\xe1u\x97@\xee\xc8<@[\x0f\x99@Nf\x16@\xb9\xa8\xa2@K\x1f\xd2@\x13\xfd\xd7@\xa0\xa2\xab@\x8f\xdb\xb5@\xe2 \x92@0\x87\x98@\xcf\r\xe1@'
S'\x00\x00\x00\x00\x00\x00\x00\x00\x00\x00\x00\x00\x00\x00\x00\x00\x00\x00'
Ntbsg1527
g1528
(g1529
g1515
g1530
S'b'
tRp1648
(I1
(I18
I1
tg1532
I00
S'\x00\x00\x80?\x00\x00\x80?\x00\x00\x80?\x00\x00\x80?\x00\x00\x80?\x00\x00\x80?\x00\x00\x80?\x00\x00\x80?\x00\x00\x80?\x00\x00\x80?\x00\x00\x80?\x00\x00\x80?\x00\x00\x80?\x00\x00\x80?\x00\x00\x80?\x00\x00\x80?\x00\x00\x80?\x00\x00\x80?'
S'\x00\x00\x00\x00\x00\x00\x00\x00\x00\x00\x00\x00\x00\x00\x00\x00\x00\x00'
Ntbsg21
g1514
(g1515
(I0
tS'b'
tRp1649
(I1
(I18
I1
tg1517
I00
(lp1650
S'4'
aS'6'
aS'3'
aS'1'
aS'9'
aS'5'
aS'5'
aS'5'
aS'8'
aS'3'
aS'3'
aS'9'
aS'4'
aS'3'
aS'8'
aS'6'
aS'1'
aS'6'
atbsg1542
g1528
(g1529
g1515
g1530
S'b'
tRp1651
(I1
(I18
I1
tg1532
I00
S'\x00\x00\x88A\x00\x00\x00A\x00\x00pA\x00\x00\x80A\x00\x00\x80?\x00\x00 A\x00\x00PA\x00\x00\xe0@\x00\x00\x00@\x00\x000A\x00\x00@A\x00\x00\xc0@\x00\x00`A\x00\x00@@\x00\x00\xa0@\x00\x00\x80@\x00\x00\x10A\x00\x00\x00\x00'
S'\x00\x00\x00\x00\x00\x00\x00\x00\x00\x00\x00\x00\x00\x00\x00\x00\x00\x00'
Ntbsg20
g1528
(g1529
g1515
g1530
S'b'
tRp1652
(I1
(I18
I1
tg1532
I00
S'\xec\xbc\xbb?I\xfb\x7f@\x97\x10\x11@\x1d$\xa2?\xd9\x0eQ@\xfe\xfbo@\xcf2\x03@\xd4\xfd\x9f@\xbaS\x85@\xc8\xdb\x9d@\x94\xa5\xf2@\xb5\xb9\x9b@H\xec\x1aA\n\xdc\x15A\x91\xc9\x18A\xaac"A\x81\xb8\xd3@{c\xc6@'
S'\x00\x00\x00\x00\x00\x00\x00\x00\x00\x00\x00\x00\x00\x00\x00\x00\x00\x00'
NtbstRp1653
(dp1654
g1547
(dp1655
g1527
I01
sg21
I00
sg20
I01
sg22
I01
sg19
I00
sg23
I01
sg1542
I01
ssg1549
g1640
sg1550
(lp1656
g1527
ag1542
ag19
ag20
ag21
ag22
ag23
asg1552
(lp1657
I18
aI1
asbsg1554
g1555
sg1556
g1514
(g1515
(I0
tS'b'
tRp1658
(I1
(I18
I1
tg1517
I00
(lp1659
I17
aI4
aI8
aI13
aI15
aI14
aI11
aI7
aI1
aI16
aI5
aI9
aI10
aI6
aI12
aI2
aI3
aI0
atbsg1559
I01
sg1560
I1
sg1561
I-1
sg1562
(lp1660
g1
(g1564
g1512
(dp1661
g291
g456
sVY
L2L
sg293
L2L
sg294
g457
sg302
L4L
sg299
L4L
sg300
g301
sVX
L3L
sg296
L0L
sg304
g307
sg306
L0L
sg308
g385
stRp1662
ag1
(g1564
g1512
(dp1663
g291
g381
sVY
L2L
sg293
L2L
sg294
g382
sg302
L6L
sg299
L6L
sg300
g358
sVX
L2L
sg296
L0L
sg304
g307
sg306
L0L
sg308
g385
stRp1664
ag1
(g1564
g1512
(dp1665
g291
g439
sVY
L5L
sg293
L2L
sg294
g440
sg302
L3L
sg299
L3L
sg300
g346
sVX
L4L
sg296
L0L
sg304
g327
sg306
L0L
sg308
g443
stRp1666
ag1
(g1564
g1512
(dp1667
g291
g448
sVY
L2L
sg293
L2L
sg294
g449
sg302
L1L
sg299
L1L
sg300
g337
sVX
L5L
sg296
L0L
sg304
g327
sg306
L0L
sg308
g443
stRp1668
ag1
(g1564
g1512
(dp1669
g291
g314
sVY
L3L
sg293
L3L
sg294
g315
sg302
L9L
sg299
L9L
sg300
g301
sVX
L8L
sg296
g297
sg304
g307
sg306
L0L
sg308
g318
stRp1670
ag1
(g1564
g1512
(dp1671
g291
g399
sVY
L5L
sg293
L3L
sg294
g400
sg302
L5L
sg299
L5L
sg300
g327
sVX
L6L
sg296
g297
sg304
g307
sg306
L0L
sg308
g318
stRp1672
ag1
(g1564
g1512
(dp1673
g291
g423
sVY
L7L
sg293
L3L
sg294
g424
sg302
L5L
sg299
L5L
sg300
g346
sVX
L7L
sg296
g358
sg304
g327
sg306
L0L
sg308
g376
stRp1674
ag1
(g1564
g1512
(dp1675
g291
g372
sVY
L5L
sg293
L3L
sg294
g373
sg302
L5L
sg299
L5L
sg300
g307
sVX
L4L
sg296
g301
sg304
g327
sg306
L0L
sg308
g376
stRp1676
ag1
(g1564
g1512
(dp1677
g291
g323
sVY
L5L
sg293
L3L
sg294
g324
sg302
L8L
sg299
L8L
sg300
g301
sVX
L5L
sg296
g307
sg304
g327
sg306
L0L
sg308
g328
stRp1678
ag1
(g1564
g1512
(dp1679
g291
g407
sVY
L2L
sg293
L3L
sg294
g408
sg302
L3L
sg299
L3L
sg300
g297
sVX
L4L
sg296
g394
sg304
g305
sg306
L0L
sg308
g328
stRp1680
ag1
(g1564
g1512
(dp1681
g291
g415
sVY
L5L
sg293
L4L
sg294
g416
sg302
L3L
sg299
L3L
sg300
g297
sVX
L5L
sg296
g358
sg304
g337
sg306
g305
sg308
g367
stRp1682
ag1
(g1564
g1512
(dp1683
g291
g363
sVY
L3L
sg293
L4L
sg294
g364
sg302
L9L
sg299
L9L
sg300
g358
sVX
L3L
sg296
g327
sg304
g307
sg306
g335
sg308
g367
stRp1684
ag1
(g1564
g1512
(dp1685
g291
g431
sVY
L6L
sg293
L4L
sg294
g432
sg302
L4L
sg299
L4L
sg300
g394
sVX
L3L
sg296
g305
sg304
g358
sg306
g335
sg308
g339
stRp1686
ag1
(g1564
g1512
(dp1687
g291
g333
sVY
L3L
sg293
L4L
sg294
g334
sg302
L3L
sg299
L3L
sg300
g337
sVX
L3L
sg296
g335
sg304
g305
sg306
g301
sg308
g339
stRp1688
ag1
(g1564
g1512
(dp1689
g291
g354
sVY
L2L
sg293
L4L
sg294
g355
sg302
L8L
sg299
L8L
sg300
g335
sVX
L9L
sg296
g346
sg304
g327
sg306
g358
sg308
g349
stRp1690
ag1
(g1564
g1512
(dp1691
g291
g344
sVY
L3L
sg293
L4L
sg294
g345
sg302
L6L
sg299
L6L
sg300
g297
sVX
L2L
sg296
g346
sg304
g305
sg306
g301
sg308
g349
stRp1692
ag1
(g1564
g1512
(dp1693
g291
g390
sVY
L2L
sg293
L4L
sg294
g391
sg302
L1L
sg299
L1L
sg300
g358
sVX
L8L
sg296
g297
sg304
g327
sg306
g394
sg308
g309
stRp1694
ag1
(g1564
g1512
(dp1695
g291
g292
sVY
L2L
sg293
L4L
sg294
g295
sg302
L6L
sg299
L6L
sg300
g301
sVX
L3L
sg296
g297
sg304
g305
sg306
g307
sg308
g309
stRp1696
asg1577
Nsg1578
I0
sg1579
I18
sg1580
I0
sg1581
I18
sbag1
(g1500
g3
NtRp1697
(dp1698
g1503
Nsg1504
(lp1699
sg1506
I341337072
sg10
g1585
sg6
g1508
sg1509
I1
sg24
I01
sg25
g26
sg1510
g1
(g1511
g1512
(dp1700
g22
g1528
(g1529
g1515
g1530
S'b'
tRp1701
(I1
(I18
I1
tg1532
I00
S'\x00\x00\x80?\x00\x00\x80?\x00\x00\x80?\x00\x00\x80?\x00\x00\x80?\x00\x00\x80?\x00\x00\x80?\x00\x00\x80?\x00\x00\x80?\x00\x00\x80?\x00\x00\x80?\x00\x00\x80?\x00\x00\x80?\x00\x00\x00\x00\x00\x00\x80?\x00\x00\x80?\x00\x00\x80?\x00\x00\x80?'
S'\x00\x00\x00\x00\x00\x00\x00\x00\x00\x00\x00\x00\x00\x00\x00\x00\x00\x00'
Ntbsg19
g1514
(g1515
(I0
tS'b'
tRp1702
(I1
(I18
I1
tg1517
I00
(lp1703
g546
ag571
ag508
ag555
ag606
ag597
ag580
ag614
ag622
ag631
ag500
ag471
ag589
ag489
ag518
ag527
ag563
ag536
atbsg23
g1528
(g1529
g1515
g1530
S'b'
tRp1704
(I1
(I18
I1
tg1532
I00
S'\x83\x8a\xa8?F\x0f\xb1?&\x98Y@\xb2\x99\t@@ r@|\xed^@\xb2\x86h@a\xbb+@\xdb\x0f\x81@\xf9\x0fA@\xf1R\xb5@\xdac\xd6@ST\x8d@\xf0\x1e\xe2@\x871\x9b@od\xa6@\x1bd\xbe@\\\xed\x96@'
S'\x00\x00\x00\x00\x00\x00\x00\x00\x00\x00\x00\x00\x00\x00\x00\x00\x00\x00'
Ntbsg1527
g1528
(g1529
g1515
g1530
S'b'
tRp1705
(I1
(I18
I1
tg1532
I00
S'\x00\x00\x80?\x00\x00\x80?\x00\x00\x80?\x00\x00\x80?\x00\x00\x80?\x00\x00\x80?\x00\x00\x80?\x00\x00\x80?\x00\x00\x80?\x00\x00\x80?\x00\x00\x80?\x00\x00\x80?\x00\x00\x80?\x00\x00\x80?\x00\x00\x80?\x00\x00\x80?\x00\x00\x80?\x00\x00\x80?'
S'\x00\x00\x00\x00\x00\x00\x00\x00\x00\x00\x00\x00\x00\x00\x00\x00\x00\x00'
Ntbsg21
g1514
(g1515
(I0
tS'b'
tRp1706
(I1
(I18
I1
tg1517
I00
(lp1707
S'7'
aS'2'
aS'8'
aS'6'
aS'7'
aS'8'
aS'2'
aS'5'
aS'6'
aS'5'
aS'9'
aS'8'
aS'6'
aS'2'
aS'5'
aS'8'
aS'3'
aS'1'
atbsg1542
g1528
(g1529
g1515
g1530
S'b'
tRp1708
(I1
(I18
I1
tg1532
I00
S'\x00\x00\xe0@\x00\x00 A\x00\x00@@\x00\x00\x00A\x00\x00`A\x00\x00PA\x00\x000A\x00\x00pA\x00\x00\x80A\x00\x00\x88A\x00\x00\x00@\x00\x00\x00\x00\x00\x00@A\x00\x00\x80?\x00\x00\x80@\x00\x00\xa0@\x00\x00\x10A\x00\x00\xc0@'
S'\x00\x00\x00\x00\x00\x00\x00\x00\x00\x00\x00\x00\x00\x00\x00\x00\x00\x00'
Ntbsg20
g1528
(g1529
g1515
g1530
S'b'
tRp1709
(I1
(I18
I1
tg1532
I00
S';W\xb5?\xd8\xab\xaa?4\xf0\xae?\xec\xab\xca?\xd3e\x16@{e\x16@W\xbb\x1b@\xbf\xed.@\xe1\x98)@\xe2\xdb\xa5@\x8e\xd9eA\xce\xec\x9e@\\\xfbO@\xa4\xc94A\xb0A\x14A\x13S\x05A\xaa\xb9;@Yb\xee@'
S'\x00\x00\x00\x00\x00\x00\x00\x00\x00\x00\x00\x00\x00\x00\x00\x00\x00\x00'
NtbstRp1710
(dp1711
g1547
(dp1712
g1527
I01
sg21
I00
sg20
I01
sg22
I01
sg19
I00
sg23
I01
sg1542
I01
ssg1549
g1697
sg1550
(lp1713
g1527
ag1542
ag19
ag20
ag21
ag22
ag23
asg1552
(lp1714
I18
aI1
asbsg1554
g1555
sg1556
g1514
(g1515
(I0
tS'b'
tRp1715
(I1
(I18
I1
tg1517
I00
(lp1716
I11
aI13
aI10
aI2
aI14
aI15
aI17
aI0
aI3
aI16
aI1
aI6
aI12
aI5
aI4
aI7
aI8
aI9
atbsg1559
I01
sg1560
I1
sg1561
I-1
sg1562
(lp1717
g1
(g1564
g1512
(dp1718
g464
g544
sVY
L5L
sg466
L2L
sg467
g545
sg475
L7L
sg472
L7L
sg473
g480
sVX
L3L
sg469
L0L
sg477
g478
sg479
L0L
sg481
g548
stRp1719
ag1
(g1564
g1512
(dp1720
g464
g569
sVY
L4L
sg466
L2L
sg467
g570
sg475
L2L
sg472
L2L
sg473
g480
sVX
L9L
sg469
L0L
sg477
g573
sg479
L0L
sg481
g548
stRp1721
ag1
(g1564
g1512
(dp1722
g464
g506
sVY
L3L
sg466
L2L
sg467
g507
sg475
L8L
sg472
L8L
sg473
g509
sVX
L3L
sg469
L0L
sg477
g480
sg479
L0L
sg481
g511
stRp1723
ag1
(g1564
g1512
(dp1724
g464
g553
sVY
L8L
sg466
L2L
sg467
g554
sg475
L6L
sg472
L6L
sg473
g478
sVX
L4L
sg469
L0L
sg477
g537
sg479
L0L
sg481
g511
stRp1725
ag1
(g1564
g1512
(dp1726
g464
g604
sVY
L5L
sg466
L3L
sg467
g605
sg475
L7L
sg472
L7L
sg473
g470
sVX
L2L
sg469
g480
sg477
g478
sg479
L0L
sg481
g599
stRp1727
ag1
(g1564
g1512
(dp1728
g464
g595
sVY
L2L
sg466
L3L
sg467
g596
sg475
L8L
sg472
L8L
sg473
g474
sVX
L4L
sg469
g537
sg477
g478
sg479
L0L
sg481
g599
stRp1729
ag1
(g1564
g1512
(dp1730
g464
g578
sVY
L3L
sg466
L3L
sg467
g579
sg475
L2L
sg472
L2L
sg473
g490
sVX
L3L
sg469
g535
sg477
g470
sg479
L0L
sg481
g582
stRp1731
ag1
(g1564
g1512
(dp1732
g464
g612
sVY
L3L
sg466
L3L
sg467
g613
sg475
L5L
sg472
L5L
sg473
g478
sVX
L2L
sg469
g537
sg477
g535
sg479
L0L
sg481
g582
stRp1733
ag1
(g1564
g1512
(dp1734
g464
g620
sVY
L4L
sg466
L3L
sg467
g621
sg475
L6L
sg472
L6L
sg473
g492
sVX
L5L
sg469
g478
sg477
g470
sg479
L0L
sg481
g624
stRp1735
ag1
(g1564
g1512
(dp1736
g464
g629
sVY
L3L
sg466
L3L
sg467
g630
sg475
L5L
sg472
L5L
sg473
g535
sVX
L3L
sg469
g509
sg477
g537
sg479
L0L
sg481
g624
stRp1737
ag1
(g1564
g1512
(dp1738
g464
g498
sVY
L4L
sg466
L4L
sg467
g499
sg475
L9L
sg472
L9L
sg473
g480
sVX
L9L
sg469
g492
sg477
g478
sg479
g470
sg481
g482
stRp1739
ag1
(g1564
g1512
(dp1740
g464
g465
sVY
L2L
sg466
L4L
sg467
g468
sg475
L8L
sg472
L8L
sg473
g474
sVX
L2L
sg469
g470
sg477
g478
sg479
g480
sg481
g482
stRp1741
ag1
(g1564
g1512
(dp1742
g464
g587
sVY
L6L
sg466
L4L
sg467
g588
sg475
L6L
sg472
L6L
sg473
g478
sVX
L6L
sg469
g492
sg477
g480
sg479
g537
sg481
g493
stRp1743
ag1
(g1564
g1512
(dp1744
g464
g487
sVY
L2L
sg466
L4L
sg467
g488
sg475
L3L
sg472
L3L
sg473
g490
sVX
L9L
sg469
g470
sg477
g480
sg479
g492
sg481
g493
stRp1745
ag1
(g1564
g1512
(dp1746
g464
g516
sVY
L3L
sg466
L4L
sg467
g517
sg475
L5L
sg472
L5L
sg473
g470
sVX
L3L
sg469
g509
sg477
g480
sg479
g492
sg481
g520
stRp1747
ag1
(g1564
g1512
(dp1748
g464
g525
sVY
L3L
sg466
L4L
sg467
g526
sg475
L8L
sg472
L8L
sg473
g474
sVX
L3L
sg469
g490
sg477
g480
sg479
g470
sg481
g520
stRp1749
ag1
(g1564
g1512
(dp1750
g464
g561
sVY
L4L
sg466
L4L
sg467
g562
sg475
L3L
sg472
L3L
sg473
g537
sVX
L3L
sg469
g492
sg477
g535
sg479
g509
sg481
g539
stRp1751
ag1
(g1564
g1512
(dp1752
g464
g533
sVY
L2L
sg466
L4L
sg467
g534
sg475
L1L
sg472
L1L
sg473
g537
sVX
L7L
sg469
g535
sg477
g492
sg479
g490
sg481
g539
stRp1753
asg1577
Nsg1578
I9
sg1579
I18
sg1580
I0
sg1581
I18
sbag1
(g1500
g3
NtRp1754
(dp1755
g1503
Nsg1504
(lp1756
sg1506
I341337072
sg10
g1585
sg6
g1508
sg1509
I1
sg24
I01
sg25
g26
sg1510
g1
(g1511
g1512
(dp1757
g22
g1528
(g1529
g1515
g1530
S'b'
tRp1758
(I1
(I18
I1
tg1532
I00
S'\x00\x00\x80?\x00\x00\x80?\x00\x00\x80?\x00\x00\x80?\x00\x00\x80?\x00\x00\x80?\x00\x00\x80?\x00\x00\x80?\x00\x00\x80?\x00\x00\x00\x00\x00\x00\x80?\x00\x00\x80?\x00\x00\x80?\x00\x00\x80?\x00\x00\x80?\x00\x00\x80?\x00\x00\x00\x00\x00\x00\x80?'
S'\x00\x00\x00\x00\x00\x00\x00\x00\x00\x00\x00\x00\x00\x00\x00\x00\x00\x00'
Ntbsg19
g1514
(g1515
(I0
tS'b'
tRp1759
(I1
(I18
I1
tg1517
I00
(lp1760
g719
ag772
ag670
ag661
ag804
ag689
ag747
ag644
ag764
ag755
ag699
ag738
ag780
ag729
ag796
ag679
ag788
ag708
atbsg23
g1528
(g1529
g1515
g1530
S'b'
tRp1761
(I1
(I18
I1
tg1532
I00
S'\xdf\xaa\n@K\xbaK@\xa6#\xe2?\x83\xee.@\xe9Q\xe5@\x9b23@\x8f\x86\xa8@\xcb\x88X@\xeftw@\xd8 B@\xf9\xa7\xca@\x9bu\xa7@0\x1f.A\xd4\xfd\x7f@\xa8\x0f\x89@\x1cB\xac@\x1c\x97\x83AZR\xd5@'
S'\x00\x00\x00\x00\x00\x00\x00\x00\x00\x00\x00\x00\x00\x00\x00\x00\x00\x00'
Ntbsg1527
g1528
(g1529
g1515
g1530
S'b'
tRp1762
(I1
(I18
I1
tg1532
I00
S'\x00\x00\x80?\x00\x00\x80?\x00\x00\x80?\x00\x00\x80?\x00\x00\x80?\x00\x00\x80?\x00\x00\x80?\x00\x00\x80?\x00\x00\x80?\x00\x00\x80?\x00\x00\x80?\x00\x00\x80?\x00\x00\x80?\x00\x00\x80?\x00\x00\x80?\x00\x00\x80?\x00\x00\x80?\x00\x00\x80?'
S'\x00\x00\x00\x00\x00\x00\x00\x00\x00\x00\x00\x00\x00\x00\x00\x00\x00\x00'
Ntbsg21
g1514
(g1515
(I0
tS'b'
tRp1763
(I1
(I18
I1
tg1517
I00
(lp1764
S'7'
aS'9'
aS'2'
aS'5'
aS'9'
aS'3'
aS'8'
aS'3'
aS'9'
aS'9'
aS'5'
aS'9'
aS'5'
aS'7'
aS'6'
aS'9'
aS'7'
aS'5'
atbsg1542
g1528
(g1529
g1515
g1530
S'b'
tRp1765
(I1
(I18
I1
tg1532
I00
S'\x00\x00\xe0@\x00\x00PA\x00\x00\x00@\x00\x00\x80?\x00\x00\x88A\x00\x00\x80@\x00\x00 A\x00\x00\x00\x00\x00\x00@A\x00\x000A\x00\x00\xa0@\x00\x00\x10A\x00\x00`A\x00\x00\x00A\x00\x00\x80A\x00\x00@@\x00\x00pA\x00\x00\xc0@'
S'\x00\x00\x00\x00\x00\x00\x00\x00\x00\x00\x00\x00\x00\x00\x00\x00\x00\x00'
Ntbsg20
g1528
(g1529
g1515
g1530
S'b'
tRp1766
(I1
(I18
I1
tg1532
I00
S"\xe1\xab\xaa?+\x89\xe8?\xeev\x17@\xd1\xbc\xdb?\xcd\x0ea@\xe6\xba+@T\xa8\x9a@\x9bu\x8f@\xd5\xca\x9c@\xc0uG@\x9c\xba+@'1\x9b@Q\xa8\xaa@\xda\xdb]@\xdb\x1e\xd2@\xe8\xdbM@\x96\xc9\x94@\xd2\x86\x90@"
S'\x00\x00\x00\x00\x00\x00\x00\x00\x00\x00\x00\x00\x00\x00\x00\x00\x00\x00'
NtbstRp1767
(dp1768
g1547
(dp1769
g1527
I01
sg21
I00
sg20
I01
sg22
I01
sg19
I00
sg23
I01
sg1542
I01
ssg1549
g1754
sg1550
(lp1770
g1527
ag1542
ag19
ag20
ag21
ag22
ag23
asg1552
(lp1771
I18
aI1
asbsg1554
g1555
sg1556
g1514
(g1515
(I0
tS'b'
tRp1772
(I1
(I18
I1
tg1517
I00
(lp1773
I7
aI3
aI2
aI15
aI5
aI10
aI17
aI0
aI13
aI11
aI6
aI9
aI8
aI1
aI12
aI16
aI14
aI4
atbsg1559
I01
sg1560
I1
sg1561
I-1
sg1562
(lp1774
g1
(g1564
g1512
(dp1775
g637
g717
sVY
L5L
sg639
L2L
sg640
g718
sg648
L7L
sg645
L7L
sg646
g688
sVX
L4L
sg642
L0L
sg650
g721
sg652
L0L
sg653
g722
stRp1776
ag1
(g1564
g1512
(dp1777
g637
g770
sVY
L3L
sg639
L2L
sg640
g771
sg648
L9L
sg645
L9L
sg646
g643
sVX
L4L
sg642
L0L
sg650
g691
sg652
L0L
sg653
g722
stRp1778
ag1
(g1564
g1512
(dp1779
g637
g668
sVY
L8L
sg639
L2L
sg640
g669
sg648
L2L
sg645
L2L
sg646
g647
sVX
L8L
sg642
L0L
sg650
g672
sg652
L0L
sg653
g663
stRp1780
ag1
(g1564
g1512
(dp1781
g637
g659
sVY
L2L
sg639
L2L
sg640
g660
sg648
L5L
sg645
L5L
sg646
g647
sVX
L8L
sg642
L0L
sg650
g651
sg652
L0L
sg653
g663
stRp1782
ag1
(g1564
g1512
(dp1783
g637
g802
sVY
L2L
sg639
L3L
sg640
g803
sg648
L9L
sg645
L9L
sg646
g643
sVX
L7L
sg642
g746
sg650
g647
sg652
L0L
sg653
g692
stRp1784
ag1
(g1564
g1512
(dp1785
g637
g686
sVY
L2L
sg639
L3L
sg640
g687
sg648
L3L
sg645
L3L
sg646
g651
sVX
L8L
sg642
g688
sg650
g691
sg652
L0L
sg653
g692
stRp1786
ag1
(g1564
g1512
(dp1787
g637
g744
sVY
L2L
sg639
L3L
sg640
g745
sg648
L8L
sg645
L8L
sg646
g711
sVX
L9L
sg642
g746
sg650
g688
sg652
L0L
sg653
g654
stRp1788
ag1
(g1564
g1512
(dp1789
g637
g638
sVY
L3L
sg639
L3L
sg640
g641
sg648
L3L
sg645
L3L
sg646
g647
sVX
L2L
sg642
g643
sg650
g651
sg652
L0L
sg653
g654
stRp1790
ag1
(g1564
g1512
(dp1791
g637
g762
sVY
L3L
sg639
L3L
sg640
g763
sg648
L9L
sg645
L9L
sg646
g688
sVX
L3L
sg642
g721
sg650
g643
sg652
L0L
sg653
g757
stRp1792
ag1
(g1564
g1512
(dp1793
g637
g753
sVY
L2L
sg639
L3L
sg640
g754
sg648
L6L
sg645
L6L
sg646
g651
sVX
L3L
sg642
g691
sg650
g643
sg652
L0L
sg653
g757
stRp1794
ag1
(g1564
g1512
(dp1795
g637
g697
sVY
L4L
sg639
L4L
sg640
g698
sg648
L5L
sg645
L5L
sg646
g672
sVX
L3L
sg642
g651
sg650
g647
sg652
g643
sg653
g701
stRp1796
ag1
(g1564
g1512
(dp1797
g637
g736
sVY
L9L
sg639
L4L
sg640
g737
sg648
L9L
sg645
L9L
sg646
g688
sVX
L3L
sg642
g651
sg650
g711
sg652
g710
sg653
g701
stRp1798
ag1
(g1564
g1512
(dp1799
g637
g778
sVY
L4L
sg639
L4L
sg640
g779
sg648
L5L
sg645
L5L
sg646
g691
sVX
L5L
sg642
g746
sg650
g688
sg652
g643
sg653
g731
stRp1800
ag1
(g1564
g1512
(dp1801
g637
g727
sVY
L2L
sg639
L4L
sg640
g728
sg648
L7L
sg645
L7L
sg646
g711
sVX
L2L
sg642
g643
sg650
g651
sg652
g688
sg653
g731
stRp1802
ag1
(g1564
g1512
(dp1803
g637
g794
sVY
L4L
sg639
L4L
sg640
g795
sg648
L6L
sg645
L6L
sg646
g672
sVX
L4L
sg642
g691
sg650
g643
sg652
g651
sg653
g681
stRp1804
ag1
(g1564
g1512
(dp1805
g637
g677
sVY
L8L
sg639
L4L
sg640
g678
sg648
L9L
sg645
L9L
sg646
g651
sVX
L8L
sg642
g647
sg650
g643
sg652
g672
sg653
g681
stRp1806
ag1
(g1564
g1512
(dp1807
g637
g786
sVY
L4L
sg639
L4L
sg640
g787
sg648
L5L
sg645
L5L
sg646
g710
sVX
L5L
sg642
g672
sg650
g746
sg652
g721
sg653
g712
stRp1808
ag1
(g1564
g1512
(dp1809
g637
g706
sVY
L4L
sg639
L4L
sg640
g707
sg648
L5L
sg645
L5L
sg646
g651
sVX
L7L
sg642
g688
sg650
g710
sg652
g711
sg653
g712
stRp1810
asg1577
Nsg1578
I4
sg1579
I18
sg1580
I0
sg1581
I18
sbag1
(g1500
g3
NtRp1811
(dp1812
g1503
Nsg1504
(lp1813
sg1506
I341337072
sg10
g1585
sg6
g1508
sg1509
I1
sg24
I01
sg25
g26
sg1510
g1
(g1511
g1512
(dp1814
g22
g1528
(g1529
g1515
g1530
S'b'
tRp1815
(I1
(I18
I1
tg1532
I00
S'\x00\x00\x80?\x00\x00\x80?\x00\x00\x80?\x00\x00\x80?\x00\x00\x80?\x00\x00\x80?\x00\x00\x80?\x00\x00\x80?\x00\x00\x80?\x00\x00\x80?\x00\x00\x80?\x00\x00\x80?\x00\x00\x80?\x00\x00\x80?\x00\x00\x80?\x00\x00\x00\x00\x00\x00\x80?\x00\x00\x80?'
S'\x00\x00\x00\x00\x00\x00\x00\x00\x00\x00\x00\x00\x00\x00\x00\x00\x00\x00'
Ntbsg19
g1514
(g1515
(I0
tS'b'
tRp1816
(I1
(I18
I1
tg1517
I00
(lp1817
g847
ag884
ag977
ag942
ag899
ag918
ag875
ag934
ag857
ag817
ag909
ag926
ag951
ag961
ag835
aNag969
ag865
atbsg23
g1528
(g1529
g1515
g1530
S'b'
tRp1818
(I1
(I18
I1
tg1532
I00
S'\xfa2\xb3?\xb0\x0f\x11@<\xcf\xcc?y\xef.@\x9c\xa8j@]0\xdb@\xec\xec~@\xb7\x86H@\xe3\xcbL@\xda\x84,AR\xed\x86@\x9e\x1f\x8cA\x171\xb3@\x1fT\x8d@\x91\x96\x99@\x00\x00\x00\x00\xfcu\x8f@\x9a\xdb\xad@'
S'\x00\x00\x00\x00\x00\x00\x00\x00\x00\x00\x00\x00\x00\x00\x00\x01\x00\x00'
Ntbsg1527
g1528
(g1529
g1515
g1530
S'b'
tRp1819
(I1
(I18
I1
tg1532
I00
S'\x00\x00\x80?\x00\x00\x80?\x00\x00\x80?\x00\x00\x80?\x00\x00\x80?\x00\x00\x80?\x00\x00\x80?\x00\x00\x80?\x00\x00\x80?\x00\x00\x80?\x00\x00\x80?\x00\x00\x80?\x00\x00\x80?\x00\x00\x80?\x00\x00\x80?\x00\x00\x80?\x00\x00\x80?\x00\x00\x80?'
S'\x00\x00\x00\x00\x00\x00\x00\x00\x00\x00\x00\x00\x00\x00\x00\x00\x00\x00'
Ntbsg21
g1514
(g1515
(I0
tS'b'
tRp1820
(I1
(I18
I1
tg1517
I00
(lp1821
S'8'
aS'2'
aS'2'
aS'8'
aS'1'
aS'2'
aS'1'
aS'2'
aS'8'
aS'6'
aS'7'
aS'1'
aS'9'
aS'7'
aS'3'
aNaS'5'
aS'4'
atbsg1542
g1528
(g1529
g1515
g1530
S'b'
tRp1822
(I1
(I18
I1
tg1532
I00
S'\x00\x00\x00@\x00\x00\xc0@\x00\x00\x88A\x00\x00PA\x00\x00\x00A\x00\x00 A\x00\x00\xa0@\x00\x00@A\x00\x00@@\x00\x00\x00\x00\x00\x00\x10A\x00\x000A\x00\x00`A\x00\x00pA\x00\x00\x80?\x00\x00\xe0@\x00\x00\x80A\x00\x00\x80@'
S'\x00\x00\x00\x00\x00\x00\x00\x00\x00\x00\x00\x00\x00\x00\x00\x00\x00\x00'
Ntbsg20
g1528
(g1529
g1515
g1530
S'b'
tRp1823
(I1
(I18
I1
tg1532
I00
S'7\x14\xb1?\x1d"\xe2?\xb5\xee\xee?)\xc0{?;\xba\x83@\x10\xcb<@\xda\x1f\xaa@\xb3At@T\xa8:@\xa20s@\xcc\xca\x00A\x89c\xa6@\xce\x1f\x9a@}\x0fA@\xcf\xc9\x0cA\x00\x00\x00\x00\x9c\xb9\xab@\xcb\x95\xf1@'
S'\x00\x00\x00\x00\x00\x00\x00\x00\x00\x00\x00\x00\x00\x00\x00\x01\x00\x00'
NtbstRp1824
(dp1825
g1547
(dp1826
g1527
I01
sg21
I00
sg20
I01
sg22
I01
sg19
I00
sg23
I01
sg1542
I01
ssg1549
g1811
sg1550
(lp1827
g1527
ag1542
ag19
ag20
ag21
ag22
ag23
asg1552
(lp1828
I18
aI1
asbsg1554
g1555
sg1556
g1514
(g1515
(I0
tS'b'
tRp1829
(I1
(I18
I1
tg1517
I00
(lp1830
I9
aI14
aI0
aI8
aI17
aI6
aI1
aI15
aI4
aI10
aI5
aI11
aI7
aI3
aI12
aI13
aI16
aI2
atbsg1559
I01
sg1560
I1
sg1561
I-1
sg1562
(lp1831
g1
(g1564
g1512
(dp1832
g810
g845
sVY
L4L
sg812
L2L
sg813
g846
sg821
L8L
sg818
L8L
sg819
g824
sVX
L2L
sg815
L0L
sg823
g849
sg825
L0L
sg826
g850
stRp1833
ag1
(g1564
g1512
(dp1834
g810
g882
sVY
L6L
sg812
L2L
sg813
g883
sg821
L2L
sg818
L2L
sg819
g824
sVX
L6L
sg815
L0L
sg823
g867
sg825
L0L
sg826
g850
stRp1835
ag1
(g1564
g1512
(dp1836
g810
g975
sVY
L7L
sg812
L2L
sg813
g976
sg821
L2L
sg818
L2L
sg819
g816
sVX
L8L
sg815
L0L
sg823
g824
sg825
L0L
sg826
g944
stRp1837
ag1
(g1564
g1512
(dp1838
g810
g940
sVY
L4L
sg812
L2L
sg813
g941
sg821
L8L
sg818
L8L
sg819
g834
sVX
L4L
sg815
L0L
sg823
g839
sg825
L0L
sg826
g944
stRp1839
ag1
(g1564
g1512
(dp1840
g810
g897
sVY
L4L
sg812
L3L
sg813
g898
sg821
L1L
sg818
L1L
sg819
g824
sVX
L6L
sg815
g836
sg823
g867
sg825
L0L
sg826
g901
stRp1841
ag1
(g1564
g1512
(dp1842
g810
g916
sVY
L4L
sg812
L3L
sg813
g917
sg821
L2L
sg818
L2L
sg819
g839
sVX
L4L
sg815
g820
sg823
g816
sg825
L0L
sg826
g901
stRp1843
ag1
(g1564
g1512
(dp1844
g810
g873
sVY
L7L
sg812
L3L
sg813
g874
sg821
L1L
sg818
L1L
sg819
g816
sVX
L3L
sg815
g820
sg823
g839
sg825
L0L
sg826
g877
stRp1845
ag1
(g1564
g1512
(dp1846
g810
g932
sVY
L3L
sg812
L3L
sg813
g933
sg821
L2L
sg818
L2L
sg819
g867
sVX
L9L
sg815
g836
sg823
g908
sg825
L0L
sg826
g877
stRp1847
ag1
(g1564
g1512
(dp1848
g810
g855
sVY
L2L
sg812
L3L
sg813
g856
sg821
L8L
sg818
L8L
sg819
g838
sVX
L7L
sg815
g816
sg823
g824
sg825
L0L
sg826
g827
stRp1849
ag1
(g1564
g1512
(dp1850
g810
g811
sVY
L3L
sg812
L3L
sg813
g814
sg821
L6L
sg818
L6L
sg819
g820
sVX
L4L
sg815
g816
sg823
g824
sg825
L0L
sg826
g827
stRp1851
ag1
(g1564
g1512
(dp1852
g810
g906
sVY
L6L
sg812
L4L
sg813
g907
sg821
L7L
sg818
L7L
sg819
g836
sVX
L4L
sg815
g908
sg823
g849
sg825
g839
sg826
g911
stRp1853
ag1
(g1564
g1512
(dp1854
g810
g924
sVY
L5L
sg812
L4L
sg813
g925
sg821
L1L
sg818
L1L
sg819
g908
sVX
L6L
sg815
g824
sg823
g867
sg825
g836
sg826
g911
stRp1855
ag1
(g1564
g1512
(dp1856
g810
g949
sVY
L4L
sg812
L4L
sg813
g950
sg821
L9L
sg818
L9L
sg819
g849
sVX
L9L
sg815
g824
sg823
g953
sg825
g836
sg826
g954
stRp1857
ag1
(g1564
g1512
(dp1858
g810
g959
sVY
L4L
sg812
L4L
sg813
g960
sg821
L7L
sg818
L7L
sg819
g834
sVX
L3L
sg815
g824
sg823
g838
sg825
g836
sg826
g954
stRp1859
ag1
(g1564
g1512
(dp1860
g810
g832
sVY
L6L
sg812
L4L
sg813
g833
sg821
L3L
sg818
L3L
sg819
g836
sVX
L4L
sg815
g834
sg823
g838
sg825
g839
sg826
g840
stRp1861
ag1
(g1564
g1512
(dp1862
g810
g890
sVY
L8L
sg812
L4L
sg813
g891
sg821
L6L
sg818
L6L
sg819
g820
sVX
L9L
sg815
g867
sg823
g824
sg825
g838
sg826
g840
stRp1863
ag1
(g1564
g1512
(dp1864
g810
g967
sVY
L2L
sg812
L4L
sg813
g968
sg821
L5L
sg818
L5L
sg819
g839
sVX
L8L
sg815
g820
sg823
g838
sg825
g867
sg826
g868
stRp1865
ag1
(g1564
g1512
(dp1866
g810
g863
sVY
L4L
sg812
L4L
sg813
g864
sg821
L4L
sg818
L4L
sg819
g838
sVX
L4L
sg815
g820
sg823
g824
sg825
g867
sg826
g868
stRp1867
asg1577
Nsg1578
I2
sg1579
I18
sg1580
I0
sg1581
I18
sbag1
(g1500
g3
NtRp1868
(dp1869
g1503
Nsg1504
(lp1870
sg1506
I341337072
sg10
g1585
sg6
g1508
sg1509
I1
sg24
I01
sg25
g26
sg1510
g1
(g1511
g1512
(dp1871
g22
g1528
(g1529
g1515
g1530
S'b'
tRp1872
(I1
(I18
I1
tg1532
I00
S'\x00\x00\x80?\x00\x00\x80?\x00\x00\x80?\x00\x00\x80?\x00\x00\x80?\x00\x00\x80?\x00\x00\x80?\x00\x00\x80?\x00\x00\x80?\x00\x00\x80?\x00\x00\x00\x00\x00\x00\x80?\x00\x00\x80?\x00\x00\x00\x00\x00\x00\x80?\x00\x00\x80?\x00\x00\x80?\x00\x00\x80?'
S'\x00\x00\x00\x00\x00\x00\x00\x00\x00\x00\x00\x00\x00\x00\x00\x00\x00\x00'
Ntbsg19
g1514
(g1515
(I0
tS'b'
tRp1873
(I1
(I18
I1
tg1517
I00
(lp1874
g989
ag1017
ag1038
ag1075
ag1066
ag1092
ag1100
ag1057
ag1084
ag1007
ag1117
ag1134
ag1108
ag1150
ag1048
ag1126
ag1026
ag1142
atbsg23
g1528
(g1529
g1515
g1530
S'b'
tRp1875
(I1
(I18
I1
tg1532
I00
S'W\xef\x0e@\xf3g\xe6?\x10\xe1\x9d?\xae"\x02@;\x1f\x8a@|\rQA\xcfS\x95@\xbe\xfe\x87@J\x96\x19@\x9b\xca\xb4@\x00\x00\x00\x00\xc6\xcc\x9c@!\x86\xb8@^\x0cuA!B\xb4@\xc4\x86\xa0@"\xcb\\@/\x85DA'
S'\x00\x00\x00\x00\x00\x00\x00\x00\x00\x00\x01\x00\x00\x00\x00\x00\x00\x00'
Ntbsg1527
g1528
(g1529
g1515
g1530
S'b'
tRp1876
(I1
(I18
I1
tg1532
I00
S'\x00\x00\x80?\x00\x00\x80?\x00\x00\x80?\x00\x00\x80?\x00\x00\x80?\x00\x00\x80?\x00\x00\x80?\x00\x00\x80?\x00\x00\x80?\x00\x00\x80?\x00\x00\x80?\x00\x00\x80?\x00\x00\x80?\x00\x00\x80?\x00\x00\x80?\x00\x00\x80?\x00\x00\x80?\x00\x00\x80?'
S'\x00\x00\x00\x00\x00\x00\x00\x00\x00\x00\x00\x00\x00\x00\x00\x00\x00\x00'
Ntbsg21
g1514
(g1515
(I0
tS'b'
tRp1877
(I1
(I18
I1
tg1517
I00
(lp1878
S'1'
aS'8'
aS'4'
aS'1'
aS'3'
aS'9'
aS'1'
aS'6'
aS'6'
aS'8'
aNaS'1'
aS'6'
aS'4'
aS'5'
aS'5'
aS'5'
aS'3'
atbsg1542
g1528
(g1529
g1515
g1530
S'b'
tRp1879
(I1
(I18
I1
tg1532
I00
S'\x00\x00\x00\x00\x00\x00\x00@\x00\x00\x80@\x00\x00\x00A\x00\x00\xe0@\x00\x00 A\x00\x000A\x00\x00\xc0@\x00\x00\x10A\x00\x00\x80?\x00\x00PA\x00\x00pA\x00\x00@A\x00\x00\x88A\x00\x00\xa0@\x00\x00`A\x00\x00@@\x00\x00\x80A'
S'\x00\x00\x00\x00\x00\x00\x00\x00\x00\x00\x00\x00\x00\x00\x00\x00\x00\x00'
Ntbsg20
g1528
(g1529
g1515
g1530
S'b'
tRp1880
(I1
(I18
I1
tg1532
I00
S"\x0eU\xb5?\xc9g\xa6?'\x9fY?\x7f$\x82?zB\x94@ie6@O\xb7+@\xae\x87(@\xb0/\x13@B\xdbm@\xc7\xfc\xd7@Jd\x9e@\xeec\xae@I\x86\xa8@{\xab\n@\xdc\xdb\x95@\xaf\x97\xa1@\xe3\xfbO@"
S'\x00\x00\x00\x00\x00\x00\x00\x00\x00\x00\x00\x00\x00\x00\x00\x00\x00\x00'
NtbstRp1881
(dp1882
g1547
(dp1883
g1527
I01
sg21
I00
sg20
I01
sg22
I01
sg19
I00
sg23
I01
sg1542
I01
ssg1549
g1868
sg1550
(lp1884
g1527
ag1542
ag19
ag20
ag21
ag22
ag23
asg1552
(lp1885
I18
aI1
asbsg1554
g1555
sg1556
g1514
(g1515
(I0
tS'b'
tRp1886
(I1
(I18
I1
tg1517
I00
(lp1887
I0
aI9
aI1
aI16
aI2
aI14
aI7
aI4
aI3
aI8
aI5
aI6
aI12
aI10
aI15
aI11
aI17
aI13
atbsg1559
I01
sg1560
I1
sg1561
I-1
sg1562
(lp1888
g1
(g1564
g1512
(dp1889
g983
g984
sVY
L3L
sg985
L2L
sg986
g987
sg993
L1L
sg990
L1L
sg991
g992
sVX
L9L
sg988
L0L
sg995
g996
sg997
L0L
sg998
g999
stRp1890
ag1
(g1564
g1512
(dp1891
g983
g1015
sVY
L2L
sg985
L2L
sg986
g1016
sg993
L8L
sg990
L8L
sg991
g1009
sVX
L2L
sg988
L0L
sg995
g1006
sg997
L0L
sg998
g999
stRp1892
ag1
(g1564
g1512
(dp1893
g983
g1036
sVY
L3L
sg985
L2L
sg986
g1037
sg993
L4L
sg990
L4L
sg991
g1030
sVX
L6L
sg988
L0L
sg995
g1040
sg997
L0L
sg998
g1041
stRp1894
ag1
(g1564
g1512
(dp1895
g983
g1073
sVY
L2L
sg985
L2L
sg986
g1074
sg993
L1L
sg990
L1L
sg991
g996
sVX
L6L
sg988
L0L
sg995
g992
sg997
L0L
sg998
g1041
stRp1896
ag1
(g1564
g1512
(dp1897
g983
g1064
sVY
L9L
sg985
L3L
sg986
g1065
sg993
L3L
sg990
L3L
sg991
g1027
sVX
L5L
sg988
g1029
sg995
g1030
sg997
L0L
sg998
g1068
stRp1898
ag1
(g1564
g1512
(dp1899
g983
g1090
sVY
L3L
sg985
L3L
sg986
g1091
sg993
L9L
sg990
L9L
sg991
g1025
sVX
L5L
sg988
g1040
sg995
g1006
sg997
L0L
sg998
g1068
stRp1900
ag1
(g1564
g1512
(dp1901
g983
g1098
sVY
L2L
sg985
L3L
sg986
g1099
sg993
L1L
sg990
L1L
sg991
g996
sVX
L7L
sg988
g1029
sg995
g992
sg997
L0L
sg998
g1059
stRp1902
ag1
(g1564
g1512
(dp1903
g983
g1055
sVY
L6L
sg985
L3L
sg986
g1056
sg993
L6L
sg990
L6L
sg991
g1006
sVX
L6L
sg988
g1025
sg995
g992
sg997
L0L
sg998
g1059
stRp1904
ag1
(g1564
g1512
(dp1905
g983
g1081
sVY
L2L
sg985
L3L
sg986
g1082
sg993
L6L
sg990
L6L
sg991
g1029
sVX
L2L
sg988
g1083
sg995
g1009
sg997
L0L
sg998
g1010
stRp1906
ag1
(g1564
g1512
(dp1907
g983
g1004
sVY
L6L
sg985
L3L
sg986
g1005
sg993
L8L
sg990
L8L
sg991
g992
sVX
L2L
sg988
g1006
sg995
g1009
sg997
L0L
sg998
g1010
stRp1908
ag1
(g1564
g1512
(dp1909
g983
g1115
sVY
L4L
sg985
L4L
sg986
g1116
sg993
L8L
sg990
L8L
sg991
g1009
sVX
L3L
sg988
g1027
sg995
g1030
sg997
g1029
sg998
g1119
stRp1910
ag1
(g1564
g1512
(dp1911
g983
g1132
sVY
L8L
sg985
L4L
sg986
g1133
sg993
L1L
sg990
L1L
sg991
g1027
sVX
L2L
sg988
g1029
sg995
g1030
sg997
g1009
sg998
g1119
stRp1912
ag1
(g1564
g1512
(dp1913
g983
g1106
sVY
L5L
sg985
L4L
sg986
g1107
sg993
L6L
sg990
L6L
sg991
g996
sVX
L4L
sg988
g1027
sg995
g1009
sg997
g1040
sg998
g1110
stRp1914
ag1
(g1564
g1512
(dp1915
g983
g1148
sVY
L3L
sg985
L4L
sg986
g1149
sg993
L7L
sg990
L7L
sg991
g1083
sVX
L2L
sg988
g1025
sg995
g1040
sg997
g1027
sg998
g1110
stRp1916
ag1
(g1564
g1512
(dp1917
g983
g1046
sVY
L3L
sg985
L4L
sg986
g1047
sg993
L5L
sg990
L5L
sg991
g1027
sVX
L3L
sg988
g996
sg995
g1029
sg997
g1009
sg998
g1050
stRp1918
ag1
(g1564
g1512
(dp1919
g983
g1124
sVY
L4L
sg985
L4L
sg986
g1125
sg993
L5L
sg990
L5L
sg991
g1029
sVX
L8L
sg988
g1006
sg995
g992
sg997
g1025
sg998
g1050
stRp1920
ag1
(g1564
g1512
(dp1921
g983
g1023
sVY
L2L
sg985
L4L
sg986
g1024
sg993
L5L
sg990
L5L
sg991
g1027
sVX
L6L
sg988
g1025
sg995
g1029
sg997
g1030
sg998
g1031
stRp1922
ag1
(g1564
g1512
(dp1923
g983
g1140
sVY
L2L
sg985
L4L
sg986
g1141
sg993
L3L
sg990
L3L
sg991
g1027
sVX
L3L
sg988
g1040
sg995
g1025
sg997
g1030
sg998
g1031
stRp1924
asg1577
Nsg1578
I13
sg1579
I18
sg1580
I0
sg1581
I18
sbag1
(g1500
g3
NtRp1925
(dp1926
g1503
Nsg1504
(lp1927
sg1506
I341337072
sg10
g1585
sg6
g1508
sg1509
I1
sg24
I01
sg25
g26
sg1510
g1
(g1511
g1512
(dp1928
g22
g1528
(g1529
g1515
g1530
S'b'
tRp1929
(I1
(I18
I1
tg1532
I00
S'\x00\x00\x80?\x00\x00\x80?\x00\x00\x80?\x00\x00\x00\x00\x00\x00\x80?\x00\x00\x80?\x00\x00\x80?\x00\x00\x80?\x00\x00\x80?\x00\x00\x80?\x00\x00\x80?\x00\x00\x00\x00\x00\x00\x80?\x00\x00\x80?\x00\x00\x80?\x00\x00\x80?\x00\x00\x80?\x00\x00\x80?'
S'\x00\x00\x00\x00\x00\x00\x00\x00\x00\x00\x00\x00\x00\x00\x00\x00\x00\x00'
Ntbsg19
g1514
(g1515
(I0
tS'b'
tRp1930
(I1
(I18
I1
tg1517
I00
(lp1931
g1212
ag1192
ag1281
ag1323
ag1272
ag1163
ag1220
ag1181
ag1238
ag1247
ag1299
ag1203
ag1307
ag1228
ag1264
ag1255
ag1290
ag1315
atbsg23
g1528
(g1529
g1515
g1530
S'b'
tRp1932
(I1
(I18
I1
tg1532
I00
S'+\xbd\xfb?\x8a\xdc\xdd?\x16\xcd\x0c@X\xda\xed@e1c@\x7fc.A\xb2\xa7\xda@\x12u\xb7@{Te@2\x85\xd8@XB\xa4@\xde\x96%A\x84A\xcc@\x9b\x97y@\x9f\x0e\xc1@\xf0B\x84@>d\xae@i\xfc\xef@'
S'\x00\x00\x00\x00\x00\x00\x00\x00\x00\x00\x00\x00\x00\x00\x00\x00\x00\x00'
Ntbsg1527
g1528
(g1529
g1515
g1530
S'b'
tRp1933
(I1
(I18
I1
tg1532
I00
S'\x00\x00\x80?\x00\x00\x80?\x00\x00\x80?\x00\x00\x80?\x00\x00\x80?\x00\x00\x80?\x00\x00\x80?\x00\x00\x80?\x00\x00\x80?\x00\x00\x80?\x00\x00\x80?\x00\x00\x80?\x00\x00\x80?\x00\x00\x80?\x00\x00\x80?\x00\x00\x80?\x00\x00\x80?\x00\x00\x80?'
S'\x00\x00\x00\x00\x00\x00\x00\x00\x00\x00\x00\x00\x00\x00\x00\x00\x00\x00'
Ntbsg21
g1514
(g1515
(I0
tS'b'
tRp1934
(I1
(I18
I1
tg1517
I00
(lp1935
S'1'
aS'4'
aS'9'
aS'3'
aS'6'
aS'7'
aS'8'
aS'2'
aS'1'
aS'9'
aS'1'
aS'9'
aS'1'
aS'3'
aS'7'
aS'1'
aS'5'
aS'7'
atbsg1542
g1528
(g1529
g1515
g1530
S'b'
tRp1936
(I1
(I18
I1
tg1532
I00
S'\x00\x00\x80@\x00\x00\x00@\x00\x00@A\x00\x00\x88A\x00\x000A\x00\x00\x00\x00\x00\x00\xa0@\x00\x00\x80?\x00\x00\xe0@\x00\x00\x00A\x00\x00`A\x00\x00@@\x00\x00pA\x00\x00\xc0@\x00\x00 A\x00\x00\x10A\x00\x00PA\x00\x00\x80A'
S'\x00\x00\x00\x00\x00\x00\x00\x00\x00\x00\x00\x00\x00\x00\x00\x00\x00\x00'
Ntbsg20
g1528
(g1529
g1515
g1530
S'b'
tRp1937
(I1
(I18
I1
tg1532
I00
S'W\xb9[@\xa6g\xa6?\x1a\xd5\x8c?7"\xe2?\xa8C$@w\xff\x0f@V\xdc\x85@=\xec\xb6@\xb0\r\x01@P\xed>@H\xeb\xe6@/u\x07A\xd7\xb9\x93@\xeb\x0e\x05A\xa8B\x8c@\xdb\x85\x8cA`\x850A2S\x9d@'
S'\x00\x00\x00\x00\x00\x00\x00\x00\x00\x00\x00\x00\x00\x00\x00\x00\x00\x00'
NtbstRp1938
(dp1939
g1547
(dp1940
g1527
I01
sg21
I00
sg20
I01
sg22
I01
sg19
I00
sg23
I01
sg1542
I01
ssg1549
g1925
sg1550
(lp1941
g1527
ag1542
ag19
ag20
ag21
ag22
ag23
asg1552
(lp1942
I18
aI1
asbsg1554
g1555
sg1556
g1514
(g1515
(I0
tS'b'
tRp1943
(I1
(I18
I1
tg1517
I00
(lp1944
I5
aI7
aI1
aI11
aI0
aI6
aI13
aI8
aI9
aI15
aI14
aI4
aI2
aI16
aI10
aI12
aI17
aI3
atbsg1559
I01
sg1560
I1
sg1561
I-1
sg1562
(lp1945
g1
(g1564
g1512
(dp1946
g1156
g1210
sVY
L2L
sg1158
L2L
sg1159
g1211
sg1167
L1L
sg1164
L1L
sg1165
g1193
sVX
L9L
sg1161
L0L
sg1169
g1170
sg1171
L0L
sg1172
g1196
stRp1947
ag1
(g1564
g1512
(dp1948
g1156
g1190
sVY
L4L
sg1158
L2L
sg1159
g1191
sg1167
L4L
sg1164
L4L
sg1165
g1193
sVX
L3L
sg1161
L0L
sg1169
g1195
sg1171
L0L
sg1172
g1196
stRp1949
ag1
(g1564
g1512
(dp1950
g1156
g1279
sVY
L4L
sg1158
L2L
sg1159
g1280
sg1167
L9L
sg1164
L9L
sg1165
g1195
sVX
L2L
sg1161
L0L
sg1169
g1184
sg1171
L0L
sg1172
g1283
stRp1951
ag1
(g1564
g1512
(dp1952
g1156
g1321
sVY
L6L
sg1158
L2L
sg1159
g1322
sg1167
L6L
sg1164
L6L
sg1165
g1170
sVX
L8L
sg1161
L0L
sg1169
g1230
sg1171
L0L
sg1172
g1283
stRp1953
ag1
(g1564
g1512
(dp1954
g1156
g1270
sVY
L4L
sg1158
L3L
sg1159
g1271
sg1167
L6L
sg1164
L6L
sg1165
g1162
sVX
L6L
sg1161
g1180
sg1169
g1274
sg1171
L0L
sg1172
g1173
stRp1955
ag1
(g1564
g1512
(dp1956
g1156
g1157
sVY
L9L
sg1158
L3L
sg1159
g1160
sg1167
L7L
sg1164
L7L
sg1165
g1166
sVX
L9L
sg1161
g1162
sg1169
g1170
sg1171
L0L
sg1172
g1173
stRp1957
ag1
(g1564
g1512
(dp1958
g1156
g1218
sVY
L4L
sg1158
L3L
sg1159
g1219
sg1167
L8L
sg1164
L8L
sg1165
g1195
sVX
L3L
sg1161
g1193
sg1169
g1166
sg1171
L0L
sg1172
g1185
stRp1959
ag1
(g1564
g1512
(dp1960
g1156
g1178
sVY
L2L
sg1158
L3L
sg1159
g1179
sg1167
L2L
sg1164
L2L
sg1165
g1182
sVX
L4L
sg1161
g1180
sg1169
g1184
sg1171
L0L
sg1172
g1185
stRp1961
ag1
(g1564
g1512
(dp1962
g1156
g1236
sVY
L2L
sg1158
L3L
sg1159
g1237
sg1167
L1L
sg1164
L1L
sg1165
g1180
sVX
L8L
sg1161
g1182
sg1169
g1162
sg1171
L0L
sg1172
g1240
stRp1963
ag1
(g1564
g1512
(dp1964
g1156
g1245
sVY
L3L
sg1158
L3L
sg1159
g1246
sg1167
L9L
sg1164
L9L
sg1165
g1180
sVX
L2L
sg1161
g1195
sg1169
g1230
sg1171
L0L
sg1172
g1240
stRp1965
ag1
(g1564
g1512
(dp1966
g1156
g1297
sVY
L3L
sg1158
L4L
sg1159
g1298
sg1167
L1L
sg1164
L1L
sg1165
g1162
sVX
L6L
sg1161
g1193
sg1169
g1182
sg1171
g1166
sg1172
g1205
stRp1967
ag1
(g1564
g1512
(dp1968
g1156
g1201
sVY
L2L
sg1158
L4L
sg1159
g1202
sg1167
L2L
sg1164
L2L
sg1165
g1162
sVX
L3L
sg1161
g1193
sg1169
g1195
sg1171
g1166
sg1172
g1205
stRp1969
ag1
(g1564
g1512
(dp1970
g1156
g1305
sVY
L9L
sg1158
L4L
sg1159
g1306
sg1167
L1L
sg1164
L1L
sg1165
g1182
sVX
L3L
sg1161
g1230
sg1169
g1162
sg1171
g1166
sg1172
g1231
stRp1971
ag1
(g1564
g1512
(dp1972
g1156
g1226
sVY
L3L
sg1158
L4L
sg1159
g1227
sg1167
L3L
sg1164
L3L
sg1165
g1170
sVX
L6L
sg1161
g1184
sg1169
g1230
sg1171
g1180
sg1172
g1231
stRp1973
ag1
(g1564
g1512
(dp1974
g1156
g1262
sVY
L2L
sg1158
L4L
sg1159
g1263
sg1167
L7L
sg1164
L7L
sg1165
g1180
sVX
L2L
sg1161
g1195
sg1169
g1184
sg1171
g1230
sg1172
g1257
stRp1975
ag1
(g1564
g1512
(dp1976
g1156
g1253
sVY
L2L
sg1158
L4L
sg1159
g1254
sg1167
L1L
sg1164
L1L
sg1165
g1184
sVX
L8L
sg1161
g1170
sg1169
g1193
sg1171
g1180
sg1172
g1257
stRp1977
ag1
(g1564
g1512
(dp1978
g1156
g1288
sVY
L2L
sg1158
L4L
sg1159
g1289
sg1167
L5L
sg1164
L5L
sg1165
g1180
sVX
L2L
sg1161
g1230
sg1169
g1162
sg1171
g1274
sg1172
g1292
stRp1979
ag1
(g1564
g1512
(dp1980
g1156
g1313
sVY
L2L
sg1158
L4L
sg1159
g1314
sg1167
L7L
sg1164
L7L
sg1165
g1230
sVX
L2L
sg1161
g1180
sg1169
g1184
sg1171
g1274
sg1172
g1292
stRp1981
asg1577
Nsg1578
I3
sg1579
I18
sg1580
I0
sg1581
I18
sbag1
(g1500
g3
NtRp1982
(dp1983
g1503
Nsg1504
(lp1984
sg1506
I341337072
sg10
g1585
sg6
g1508
sg1509
I1
sg24
I01
sg25
g26
sg1510
g1
(g1511
g1512
(dp1985
g22
g1528
(g1529
g1515
g1530
S'b'
tRp1986
(I1
(I18
I1
tg1532
I00
S'\x00\x00\x80?\x00\x00\x80?\x00\x00\x80?\x00\x00\x80?\x00\x00\x80?\x00\x00\x80?\x00\x00\x80?\x00\x00\x80?\x00\x00\x80?\x00\x00\x80?\x00\x00\x80?\x00\x00\x00\x00\x00\x00\x80?\x00\x00\x80?\x00\x00\x80?\x00\x00\x80?\x00\x00\x80?\x00\x00\x80?'
S'\x00\x00\x00\x00\x00\x00\x00\x00\x00\x00\x00\x00\x00\x00\x00\x00\x00\x00'
Ntbsg19
g1514
(g1515
(I0
tS'b'
tRp1987
(I1
(I18
I1
tg1517
I00
(lp1988
g1376
ag1402
ag1385
ag1429
ag1420
ag1480
ag1437
ag1472
ag1336
ag1394
ag1455
ag1488
ag1496
ag1446
ag1354
ag1464
ag1366
ag1411
atbsg23
g1528
(g1529
g1515
g1530
S'b'
tRp1989
(I1
(I18
I1
tg1532
I00
S'Mf&@[B\xa4@?f\x06@k\x85\x90@Z\xfe_@,\x0fq@\x96\xa76A\xd6v7@\xeeBT@\xa0\x97Y@\xa8\xda\xdd@5bfA\xf91\xd3@\x11\xb9\xc3@\xdb\x85\xc8@[t\xe7@\xd9\x86x@$R9A'
S'\x00\x00\x00\x00\x00\x00\x00\x00\x00\x00\x00\x00\x00\x00\x00\x00\x00\x00'
Ntbsg1527
g1528
(g1529
g1515
g1530
S'b'
tRp1990
(I1
(I18
I1
tg1532
I00
S'\x00\x00\x80?\x00\x00\x80?\x00\x00\x80?\x00\x00\x80?\x00\x00\x80?\x00\x00\x80?\x00\x00\x80?\x00\x00\x80?\x00\x00\x80?\x00\x00\x80?\x00\x00\x80?\x00\x00\x80?\x00\x00\x80?\x00\x00\x80?\x00\x00\x80?\x00\x00\x80?\x00\x00\x80?\x00\x00\x80?'
S'\x00\x00\x00\x00\x00\x00\x00\x00\x00\x00\x00\x00\x00\x00\x00\x00\x00\x00'
Ntbsg21
g1514
(g1515
(I0
tS'b'
tRp1991
(I1
(I18
I1
tg1517
I00
(lp1992
S'2'
aS'3'
aS'1'
aS'6'
aS'9'
aS'4'
aS'6'
aS'3'
aS'7'
aS'1'
aS'8'
aS'1'
aS'8'
aS'2'
aS'8'
aS'1'
aS'6'
aS'6'
atbsg1542
g1528
(g1529
g1515
g1530
S'b'
tRp1993
(I1
(I18
I1
tg1532
I00
S'\x00\x00@@\x00\x00\xc0@\x00\x00\x80@\x00\x00\x10A\x00\x00\x00A\x00\x00pA\x00\x00 A\x00\x00`A\x00\x00\x00\x00\x00\x00\xa0@\x00\x00@A\x00\x00\x80A\x00\x00\x88A\x00\x000A\x00\x00\x80?\x00\x00PA\x00\x00\x00@\x00\x00\xe0@'
S'\x00\x00\x00\x00\x00\x00\x00\x00\x00\x00\x00\x00\x00\x00\x00\x00\x00\x00'
Ntbsg20
g1528
(g1529
g1515
g1530
S'b'
tRp1994
(I1
(I18
I1
tg1532
I00
S'\xe9!\xc2?K\x9b\x99?\xfe\x10\x11@8\xee.@ "\xe2?\x93u\x97@rS\x9d@11\xab@r\xfb\xc7@\xf5\xdbm@l\xca\xac@\x87\x96\xb9@K\xfc\xe7@\xdeB\x00ALu\x03A\xe3\xa7\xca@g\xeb>A\xef\xfc\xc7@'
S'\x00\x00\x00\x00\x00\x00\x00\x00\x00\x00\x00\x00\x00\x00\x00\x00\x00\x00'
NtbstRp1995
(dp1996
g1547
(dp1997
g1527
I01
sg21
I00
sg20
I01
sg22
I01
sg19
I00
sg23
I01
sg1542
I01
ssg1549
g1982
sg1550
(lp1998
g1527
ag1542
ag19
ag20
ag21
ag22
ag23
asg1552
(lp1999
I18
aI1
asbsg1554
g1555
sg1556
g1514
(g1515
(I0
tS'b'
tRp2000
(I1
(I18
I1
tg1517
I00
(lp2001
I8
aI14
aI16
aI0
aI2
aI9
aI1
aI17
aI4
aI3
aI6
aI13
aI10
aI15
aI7
aI5
aI11
aI12
atbsg1559
I01
sg1560
I1
sg1561
I-1
sg1562
(lp2002
g1
(g1564
g1512
(dp2003
g1329
g1374
sVY
L2L
sg1331
L2L
sg1332
g1375
sg1340
L2L
sg1337
L2L
sg1338
g1343
sVX
L3L
sg1334
L0L
sg1342
g1335
sg1344
L0L
sg1345
g1378
stRp2004
ag1
(g1564
g1512
(dp2005
g1329
g1400
sVY
L2L
sg1331
L2L
sg1332
g1401
sg1340
L3L
sg1337
L3L
sg1338
g1358
sVX
L6L
sg1334
L0L
sg1342
g1404
sg1344
L0L
sg1345
g1378
stRp2006
ag1
(g1564
g1512
(dp2007
g1329
g1383
sVY
L4L
sg1331
L2L
sg1332
g1384
sg1340
L1L
sg1337
L1L
sg1338
g1335
sVX
L8L
sg1334
L0L
sg1342
g1358
sg1344
L0L
sg1345
g1387
stRp2008
ag1
(g1564
g1512
(dp2009
g1329
g1427
sVY
L2L
sg1331
L2L
sg1332
g1428
sg1340
L6L
sg1337
L6L
sg1338
g1353
sVX
L3L
sg1334
L0L
sg1342
g1343
sg1344
L0L
sg1345
g1387
stRp2010
ag1
(g1564
g1512
(dp2011
g1329
g1418
sVY
L8L
sg1331
L3L
sg1332
g1419
sg1340
L9L
sg1337
L9L
sg1338
g1368
sVX
L6L
sg1334
g1357
sg1342
g1353
sg1344
L0L
sg1345
g1422
stRp2012
ag1
(g1564
g1512
(dp2013
g1329
g1478
sVY
L2L
sg1331
L3L
sg1332
g1479
sg1340
L4L
sg1337
L4L
sg1338
g1358
sVX
L3L
sg1334
g1339
sg1342
g1335
sg1344
L0L
sg1345
g1422
stRp2014
ag1
(g1564
g1512
(dp2015
g1329
g1435
sVY
L3L
sg1331
L3L
sg1332
g1436
sg1340
L6L
sg1337
L6L
sg1338
g1353
sVX
L3L
sg1334
g1339
sg1342
g1368
sg1344
L0L
sg1345
g1439
stRp2016
ag1
(g1564
g1512
(dp2017
g1329
g1470
sVY
L2L
sg1331
L3L
sg1332
g1471
sg1340
L3L
sg1337
L3L
sg1338
g1404
sVX
L8L
sg1334
g1368
sg1342
g1343
sg1344
L0L
sg1345
g1439
stRp2018
ag1
(g1564
g1512
(dp2019
g1329
g1330
sVY
L3L
sg1331
L3L
sg1332
g1333
sg1340
L7L
sg1337
L7L
sg1338
g1339
sVX
L6L
sg1334
g1335
sg1342
g1343
sg1344
L0L
sg1345
g1346
stRp2020
ag1
(g1564
g1512
(dp2021
g1329
g1392
sVY
L3L
sg1331
L3L
sg1332
g1393
sg1340
L1L
sg1337
L1L
sg1338
g1368
sVX
L3L
sg1334
g1353
sg1342
g1357
sg1344
L0L
sg1345
g1346
stRp2022
ag1
(g1564
g1512
(dp2023
g1329
g1453
sVY
L6L
sg1331
L4L
sg1332
g1454
sg1340
L8L
sg1337
L8L
sg1338
g1355
sVX
L6L
sg1334
g1358
sg1342
g1353
sg1344
g1357
sg1345
g1457
stRp2024
ag1
(g1564
g1512
(dp2025
g1329
g1486
sVY
L9L
sg1331
L4L
sg1332
g1487
sg1340
L8L
sg1337
L8L
sg1338
g1358
sVX
L3L
sg1334
g1339
sg1342
g1404
sg1344
g1355
sg1345
g1457
stRp2026
ag1
(g1564
g1512
(dp2027
g1329
g1494
sVY
L2L
sg1331
L4L
sg1332
g1495
sg1340
L8L
sg1337
L8L
sg1338
g1353
sVX
L3L
sg1334
g1343
sg1342
g1355
sg1344
g1357
sg1345
g1448
stRp2028
ag1
(g1564
g1512
(dp2029
g1329
g1444
sVY
L3L
sg1331
L4L
sg1332
g1445
sg1340
L2L
sg1337
L2L
sg1338
g1413
sVX
L2L
sg1334
g1355
sg1342
g1357
sg1344
g1358
sg1345
g1448
stRp2030
ag1
(g1564
g1512
(dp2031
g1329
g1351
sVY
L7L
sg1331
L4L
sg1332
g1352
sg1340
L8L
sg1337
L8L
sg1338
g1355
sVX
L6L
sg1334
g1353
sg1342
g1357
sg1344
g1358
sg1345
g1359
stRp2032
ag1
(g1564
g1512
(dp2033
g1329
g1462
sVY
L9L
sg1331
L4L
sg1332
g1463
sg1340
L1L
sg1337
L1L
sg1338
g1343
sVX
L9L
sg1334
g1335
sg1342
g1357
sg1344
g1355
sg1345
g1359
stRp2034
ag1
(g1564
g1512
(dp2035
g1329
g1364
sVY
L3L
sg1331
L4L
sg1332
g1365
sg1340
L6L
sg1337
L6L
sg1338
g1339
sVX
L9L
sg1334
g1343
sg1342
g1368
sg1344
g1335
sg1345
g1369
stRp2036
ag1
(g1564
g1512
(dp2037
g1329
g1409
sVY
L4L
sg1331
L4L
sg1332
g1410
sg1340
L6L
sg1337
L6L
sg1338
g1355
sVX
L2L
sg1334
g1343
sg1342
g1357
sg1344
g1413
sg1345
g1369
stRp2038
asg1577
Nsg1578
I12
sg1579
I18
sg1580
I0
sg1581
I18
sbasS'savePickle'
p2039
I00
sb.