ccopy_reg
_reconstructor
p1
(cpsychopy.data
ExperimentHandler
p2
c__builtin__
object
p3
NtRp4
(dp5
S'originPath'
p6
NsS'dataFileName'
p7
VC:\u005cUsers\u005cexperimenter\u005cDesktop\u005cExperiments\u005cKRITL\u005cdata/31055_KRITL_2017_May_26_0911
p8
sS'runtimeInfo'
p9
NsS'name'
p10
S'KRITL'
p11
sS'dataNames'
p12
(lp13
S'practice_encoding.keys'
p14
aS'practice_encoding.rt'
p15
aS'practice_execution.keys'
p16
aS'practice_execution.corr'
p17
aS'practice_execution.rt'
p18
aS'encoding.keys'
p19
aS'encoding.rt'
p20
aS'execution.keys'
p21
aS'execution.corr'
p22
aS'execution.rt'
p23
asS'autoLog'
p24
I01
sS'extraInfo'
p25
(dp26
S'date'
p27
V2017_May_26_0911
p28
sS'frameRate'
p29
NsS'expName'
p30
g11
sVsession
p31
V001
p32
sVparticipant
p33
V31055
p34
ssS'loopsUnfinished'
p35
(lp36
sS'saveWideText'
p37
I00
sS'thisEntry'
p38
(dp39
sS'version'
p40
S''
sS'_paramNamesSoFar'
p41
(lp42
Voperationc
p43
aVoperationb
p44
aVoperationa
p45
aVcorrectresponse
p46
aVvaluey
p47
aVoperationd
p48
aVcondition
p49
aVvaluex
p50
aVRule
p51
aVOperatora
p52
aVLength
p53
aVIntermediate
p54
aVCorrectResponse
p55
aVResult
p56
aVY
aVX
aVOperatorc
p57
aVOperatorb
p58
aVOperatord
p59
aVStructure
p60
asS'entries'
p61
(lp62
(dp63
g31
g32
sg43
VADD
p64
sg27
g28
sg16
Nsg29
Nsg14
(lp65
S'space'
p66
asg49
L3L
sg45
Vhalf
p67
sg17
I0
sS'practice_trials.thisN'
p68
I0
sg44
Vtriple 
p69
sS'practice_trials.thisIndex'
p70
I3
sg30
g11
sg46
L8L
sS'practice_trials.thisTrialN'
p71
I0
sg48
L0L
sS'practice_trials.thisRepN'
p72
I0
sg33
g34
sg50
L4L
sg47
L2L
sg15
(lp73
F6.6335850853938609
asa(dp74
g18
F4.116905300936196
sg29
Nsg17
I1
sg43
L0L
sg44
Vdecrease
p75
sg45
VTIMES
p76
sg31
g32
sg46
L8L
sS'practice_trials.thisTrialN'
p77
I1
sg48
L0L
sS'practice_trials.thisRepN'
p78
I0
sg33
g34
sg49
L2L
sg27
g28
sg16
S'8'
sg14
(lp79
S'space'
p80
asS'practice_trials.thisIndex'
p81
I1
sS'practice_trials.thisN'
p82
I1
sg30
g11
sg15
(lp83
F6.7960265846340917
asg47
L3L
sg50
L3L
sa(dp84
g18
F1.8625574421312194
sg29
Nsg17
I1
sg43
L0L
sg44
g64
sg45
g67
sg31
g32
sg46
L7L
sS'practice_trials.thisTrialN'
p85
I2
sg48
L0L
sS'practice_trials.thisRepN'
p86
I0
sg33
g34
sg49
L2L
sg27
g28
sg16
S'7'
sg14
(lp87
S'space'
p88
asS'practice_trials.thisIndex'
p89
I2
sS'practice_trials.thisN'
p90
I2
sg30
g11
sg15
(lp91
F2.1723083696269896
asg47
L5L
sg50
L4L
sa(dp92
g18
F5.5889171464950778
sg29
Nsg17
I1
sg43
Vincrease
p93
sg44
VDIVIDE
p94
sg45
Vdouble
p95
sg31
g32
sg46
L9L
sS'practice_trials.thisTrialN'
p96
I3
sg48
Vtriple
p97
sS'practice_trials.thisRepN'
p98
I0
sg33
g34
sg49
L4L
sg27
g28
sg16
S'9'
sg14
(lp99
S'space'
p100
asS'practice_trials.thisIndex'
p101
I5
sS'practice_trials.thisN'
p102
I3
sg30
g11
sg15
(lp103
F13.145762589672813
asg47
L8L
sg50
L8L
sa(dp104
g18
F1.9529729572532233
sg29
Nsg17
I1
sg43
L0L
sg44
g64
sg45
g75
sg31
g32
sg46
L7L
sS'practice_trials.thisTrialN'
p105
I4
sg48
L0L
sS'practice_trials.thisRepN'
p106
I0
sg33
g34
sg49
L2L
sg27
g28
sg16
S'7'
sg14
(lp107
S'space'
p108
asS'practice_trials.thisIndex'
p109
I0
sS'practice_trials.thisN'
p110
I4
sg30
g11
sg15
(lp111
F1.7365481911983807
asg47
L5L
sg50
L3L
sa(dp112
g18
F3.7985627699817996
sg29
Nsg17
I1
sg43
g93
sg44
g94
sg45
g97
sg31
g32
sg46
L3L
sS'practice_trials.thisTrialN'
p113
I5
sg48
L0L
sS'practice_trials.thisRepN'
p114
I0
sg33
g34
sg49
L3L
sg27
g28
sg16
S'3'
sg14
(lp115
S'space'
p116
asS'practice_trials.thisIndex'
p117
I4
sS'practice_trials.thisN'
p118
I5
sg30
g11
sg15
(lp119
F10.617497614119202
asg47
L3L
sg50
L2L
sa(dp120
S'block.thisTrialN'
p121
I0
sS'block.thisRepN'
p122
I0
sg29
NsS'block.thisN'
p123
I0
sg51
(S'THIRD'
S'INCREASE'
S'SUBTRACT'
S'HALF'
S'x'
S'y'
tp124
sg27
g28
sg53
L4L
sg54
(I4
I2
I3
I1
tp125
sg22
I1
sg20
F5.1626294296293054
sg23
F11.493121992738452
sVY
L2L
sVX
L8L
sg57
VSUBTRACT
p126
sg31
g32
sg33
g34
sg21
S'1'
sg19
S'space'
p127
sg30
g11
sg56
L1L
sg52
Vincrease
p128
sg55
L1L
sS'block.thisIndex'
p129
I15
sg58
Vthird
p130
sg59
Vhalf
p131
sg60
VUUBUxy
p132
sa(dp133
S'block.thisTrialN'
p134
I1
sS'block.thisRepN'
p135
I0
sg29
NsS'block.thisN'
p136
I1
sg51
(S'INCREASE'
S'TIMES'
S'x'
S'y'
tp137
sg27
g28
sg53
L2L
sg54
(I8
I9
tp138
sg22
I1
sg20
F4.7740919234929606
sg23
F4.4874410355114378
sVY
L4L
sVX
L2L
sg57
L0L
sg31
g32
sg33
g34
sg21
S'9'
sg19
S'space'
p139
sg30
g11
sg56
L9L
sg52
VTIMES
p140
sg55
L9L
sS'block.thisIndex'
p141
I2
sg58
g128
sg59
L0L
sg60
VUBxy
p142
sa(dp143
S'block.thisTrialN'
p144
I2
sS'block.thisRepN'
p145
I0
sg29
NsS'block.thisN'
p146
I2
sg51
(S'TIMES'
S'THIRD'
S'x'
S'y'
tp147
sg27
g28
sg53
L2L
sg54
(I1
I4
tp148
sg22
I1
sg20
F2.4078848872159142
sg23
F3.8115306667750701
sVY
L4L
sVX
L3L
sg57
L0L
sg31
g32
sg33
g34
sg21
S'4'
sg19
S'space'
p149
sg30
g11
sg56
L4L
sg52
g130
sg55
L4L
sS'block.thisIndex'
p150
I1
sg58
g140
sg59
L0L
sg60
VBUxy
p151
sa(dp152
S'block.thisTrialN'
p153
I3
sS'block.thisRepN'
p154
I0
sg29
NsS'block.thisN'
p155
I3
sg51
(S'TRIPLE'
S'SUBTRACT'
S'x'
S'y'
tp156
sg27
g28
sg53
L2L
sg54
(I2
I6
tp157
sg22
I1
sg20
F2.1001829958986491
sg23
F6.4227908817701973
sVY
L6L
sVX
L8L
sg57
L0L
sg31
g32
sg33
g34
sg21
S'6'
sg19
S'space'
p158
sg30
g11
sg56
L6L
sg52
g126
sg55
L6L
sS'block.thisIndex'
p159
I3
sg58
Vtriple
p160
sg59
L0L
sg60
g142
sa(dp161
S'block.thisTrialN'
p162
I4
sS'block.thisRepN'
p163
I0
sg29
NsS'block.thisN'
p164
I4
sg51
(S'DOUBLE'
S'TIMES'
S'THIRD'
S'x'
S'y'
tp165
sg27
g28
sg53
L3L
sg54
(I1
I4
I8
tp166
sg22
I1
sg20
F2.4513101057964377
sg23
F3.5765735845488962
sVY
L4L
sVX
L3L
sg57
g130
sg31
g32
sg33
g34
sg21
S'8'
sg19
S'space'
p167
sg30
g11
sg56
L8L
sg52
g140
sg55
L8L
sS'block.thisIndex'
p168
I6
sg58
Vdouble
p169
sg59
L0L
sg60
VUBUxy
p170
sa(dp171
S'block.thisTrialN'
p172
I5
sS'block.thisRepN'
p173
I0
sg29
NsS'block.thisN'
p174
I5
sg51
(S'DIVIDE'
S'DECREASE'
S'THIRD'
S'DOUBLE'
S'x'
S'y'
tp175
sg27
g28
sg53
L4L
sg54
(I12
I4
I3
I1
tp176
sg22
I1
sg20
F4.8517859161365777
sg23
F15.016449333488708
sVY
L3L
sVX
L6L
sg57
g130
sg31
g32
sg33
g34
sg21
S'1'
sg19
S'space'
p177
sg30
g11
sg56
L1L
sg52
Vdecrease
p178
sg55
L1L
sS'block.thisIndex'
p179
I10
sg58
VDIVIDE
p180
sg59
g169
sg60
VBUUUxy
p181
sa(dp182
S'block.thisTrialN'
p183
I6
sS'block.thisRepN'
p184
I0
sg29
NsS'block.thisN'
p185
I6
sg51
(S'INCREASE'
S'TRIPLE'
S'HALF'
S'ADD'
S'x'
S'y'
tp186
sg27
g28
sg53
L4L
sg54
(I4
I2
I6
I7
tp187
sg22
I1
sg20
F6.116995941469213
sg23
F5.8606200442882255
sVY
L2L
sVX
L2L
sg57
g131
sg31
g32
sg33
g34
sg21
S'7'
sg19
S'space'
p188
sg30
g11
sg56
L7L
sg52
g160
sg55
L7L
sS'block.thisIndex'
p189
I17
sg58
g128
sg59
VADD
p190
sg60
VUUUBxy
p191
sa(dp192
S'block.thisTrialN'
p193
I7
sS'block.thisRepN'
p194
I0
sg29
NsS'block.thisN'
p195
I7
sg51
(S'TRIPLE'
S'SUBTRACT'
S'INCREASE'
S'HALF'
S'x'
S'y'
tp196
sg27
g28
sg53
L4L
sg54
(I3
I4
I1
I3
tp197
sg22
I1
sg20
F8.5328508969978429
sg23
F5.5128119880682789
sVY
L3L
sVX
L6L
sg57
g128
sg31
g32
sg33
g34
sg21
S'3'
sg19
S'space'
p198
sg30
g11
sg56
L3L
sg52
g126
sg55
L3L
sS'block.thisIndex'
p199
I13
sg58
g160
sg59
g131
sg60
VUBUUxy
p200
sa(dp201
S'block.thisTrialN'
p202
I8
sS'block.thisRepN'
p203
I0
sg29
NsS'block.thisN'
p204
I8
sg51
(S'TRIPLE'
S'HALF'
S'TIMES'
S'x'
S'y'
tp205
sg27
g28
sg53
L3L
sg54
(I6
I3
I9
tp206
sg22
I1
sg20
F2.3873563793604262
sg23
F5.2216150744643528
sVY
L3L
sVX
L2L
sg57
g140
sg31
g32
sg33
g34
sg21
S'9'
sg19
S'space'
p207
sg30
g11
sg56
L9L
sg52
g131
sg55
L9L
sS'block.thisIndex'
p208
I9
sg58
g160
sg59
L0L
sg60
VUUBxy
p209
sa(dp210
S'block.thisTrialN'
p211
I9
sS'block.thisRepN'
p212
I0
sg29
NsS'block.thisN'
p213
I9
sg51
(S'ADD'
S'DECREASE'
S'HALF'
S'x'
S'y'
tp214
sg27
g28
sg53
L3L
sg54
(I3
I2
I6
tp215
sg22
I1
sg20
F7.6036866553185973
sg23
F3.0919011101068463
sVY
L4L
sVX
L6L
sg57
g131
sg31
g32
sg33
g34
sg21
S'6'
sg19
S'space'
p216
sg30
g11
sg56
L6L
sg52
g178
sg55
L6L
sS'block.thisIndex'
p217
I4
sg58
g190
sg59
L0L
sg60
VBUUxy
p218
sa(dp219
S'block.thisTrialN'
p220
I10
sS'block.thisRepN'
p221
I0
sg29
NsS'block.thisN'
p222
I10
sg51
(S'INCREASE'
S'HALF'
S'TIMES'
S'TRIPLE'
S'x'
S'y'
tp223
sg27
g28
sg53
L4L
sg54
(I6
I12
I6
I7
tp224
sg22
I1
sg20
F5.7655717126035597
sg23
F5.7614984876418021
sVY
L2L
sVX
L2L
sg57
g140
sg31
g32
sg33
g34
sg21
S'7'
sg19
S'space'
p225
sg30
g11
sg56
L7L
sg52
g131
sg55
L7L
sS'block.thisIndex'
p226
I14
sg58
g128
sg59
g160
sg60
g132
sa(dp227
S'block.thisTrialN'
p228
I11
sS'block.thisRepN'
p229
I0
sg29
NsS'block.thisN'
p230
I11
sg51
(S'SUBTRACT'
S'DOUBLE'
S'DECREASE'
S'x'
S'y'
tp231
sg27
g28
sg53
L3L
sg54
(I8
I16
I7
tp232
sg22
I1
sg20
F4.2427217219665181
sg23
F11.060672468825942
sVY
L9L
sVX
L9L
sg57
g178
sg31
g32
sg33
g34
sg21
S'7'
sg19
S'space'
p233
sg30
g11
sg56
L7L
sg52
g169
sg55
L7L
sS'block.thisIndex'
p234
I5
sg58
g126
sg59
L0L
sg60
g218
sa(dp235
S'block.thisTrialN'
p236
I12
sS'block.thisRepN'
p237
I0
sg29
NsS'block.thisN'
p238
I12
sg51
(S'INCREASE'
S'DIVIDE'
S'HALF'
S'x'
S'y'
tp239
sg27
g28
sg53
L3L
sg54
(I2
I1
I2
tp240
sg22
I1
sg20
F8.0375209846824873
sg23
F5.7504886365204584
sVY
L2L
sVX
L4L
sg57
g131
sg31
g32
sg33
g34
sg21
S'2'
sg19
S'space'
p241
sg30
g11
sg56
L2L
sg52
g180
sg55
L2L
sS'block.thisIndex'
p242
I7
sg58
g128
sg59
L0L
sg60
g170
sa(dp243
S'block.thisTrialN'
p244
I13
sS'block.thisRepN'
p245
I0
sg29
NsS'block.thisN'
p246
I13
sg51
(S'DECREASE'
S'HALF'
S'DIVIDE'
S'x'
S'y'
tp247
sg27
g28
sg53
L3L
sg54
(I4
I2
I1
tp248
sg22
I1
sg20
F4.0025529835838825
sg23
F3.207585038500838
sVY
L2L
sVX
L8L
sg57
g180
sg31
g32
sg33
g34
sg21
S'1'
sg19
S'space'
p249
sg30
g11
sg56
L1L
sg52
g131
sg55
L1L
sS'block.thisIndex'
p250
I8
sg58
g178
sg59
L0L
sg60
g209
sa(dp251
S'block.thisTrialN'
p252
I14
sS'block.thisRepN'
p253
I0
sg29
NsS'block.thisN'
p254
I14
sg51
(S'TIMES'
S'DECREASE'
S'THIRD'
S'DOUBLE'
S'x'
S'y'
tp255
sg27
g28
sg53
L4L
sg54
(I6
I2
I1
I2
tp256
sg22
I1
sg20
F8.1931959399953485
sg23
F4.3884220181498677
sVY
L2L
sVX
L3L
sg57
g130
sg31
g32
sg33
g34
sg21
S'2'
sg19
S'space'
p257
sg30
g11
sg56
L2L
sg52
g178
sg55
L2L
sS'block.thisIndex'
p258
I11
sg58
g140
sg59
g169
sg60
g181
sa(dp259
S'block.thisTrialN'
p260
I15
sS'block.thisRepN'
p261
I0
sg29
NsS'block.thisN'
p262
I15
sg51
(S'DECREASE'
S'DIVIDE'
S'TRIPLE'
S'DOUBLE'
S'x'
S'y'
tp263
sg27
g28
sg53
L4L
sg54
(I6
I18
I2
I1
tp264
sg22
I1
sg20
F3.9899172021250706
sg23
F9.6543746659881435
sVY
L9L
sVX
L3L
sg57
g160
sg31
g32
sg33
g34
sg21
S'1'
sg19
S'space'
p265
sg30
g11
sg56
L1L
sg52
g180
sg55
L1L
sS'block.thisIndex'
p266
I12
sg58
g178
sg59
g169
sg60
g200
sa(dp267
S'block.thisTrialN'
p268
I16
sS'block.thisRepN'
p269
I0
sg29
NsS'block.thisN'
p270
I16
sg51
(S'SUBTRACT'
S'THIRD'
S'x'
S'y'
tp271
sg27
g28
sg53
L2L
sg54
(I3
I1
tp272
sg22
I1
sg20
F1.3147109599085525
sg23
F4.7434463213721756
sVY
L2L
sVX
L9L
sg57
L0L
sg31
g32
sg33
g34
sg21
S'1'
sg19
S'space'
p273
sg30
g11
sg56
L1L
sg52
g130
sg55
L1L
sS'block.thisIndex'
p274
I0
sg58
g126
sg59
L0L
sg60
g151
sa(dp275
S'block.thisTrialN'
p276
I17
sS'block.thisRepN'
p277
I0
sg29
NsS'block.thisN'
p278
I17
sg51
(S'DECREASE'
S'HALF'
S'TRIPLE'
S'ADD'
S'x'
S'y'
tp279
sg27
g28
sg53
L4L
sg54
(I4
I12
I6
I5
tp280
sg22
I1
sg20
F8.184545892640017
sg23
F7.2021889515744988
sVY
L2L
sVX
L2L
sg57
g160
sg31
g32
sg33
g34
sg21
S'5'
sg19
S'space'
p281
sg30
g11
sg56
L5L
sg52
g131
sg55
L5L
sS'block.thisIndex'
p282
I16
sg58
g178
sg59
g190
sg60
g191
sa(dp283
S'block.thisTrialN'
p284
I0
sS'block.thisRepN'
p285
I0
sg29
NsS'block.thisN'
p286
I0
sVRule
p287
(S'TIMES'
S'THIRD'
S'HALF'
S'x'
S'y'
tp288
sg27
g28
sVLength
p289
L3L
sVIntermediate
p290
(I3
I1
I5
tp291
sg22
I1
sg20
F2.3141660667897668
sg23
F4.4997961462941021
sVY
L5L
sVX
L6L
sVOperatorc
p292
Vhalf
p293
sg31
g32
sg33
g34
sg21
S'5'
sg19
S'space'
p294
sg30
g11
sVResult
p295
L5L
sVOperatora
p296
Vthird
p297
sVCorrectResponse
p298
L5L
sS'block.thisIndex'
p299
I5
sVOperatorb
p300
VTIMES
p301
sVOperatord
p302
L0L
sVStructure
p303
VBUUxy
p304
sa(dp305
S'block.thisTrialN'
p306
I1
sS'block.thisRepN'
p307
I0
sg29
NsS'block.thisN'
p308
I1
sg287
(S'TRIPLE'
S'SUBTRACT'
S'DOUBLE'
S'DECREASE'
S'x'
S'y'
tp309
sg27
g28
sg289
L4L
sg290
(I2
I4
I1
I3
tp310
sg22
I1
sg20
F13.009758381696884
sg23
F4.6168120356742293
sVY
L3L
sVX
L3L
sg292
Vdouble
p311
sg31
g32
sg33
g34
sg21
S'3'
sg19
S'space'
p312
sg30
g11
sg295
L3L
sg296
VSUBTRACT
p313
sg298
L3L
sS'block.thisIndex'
p314
I13
sg300
Vtriple
p315
sg302
Vdecrease
p316
sg303
VUBUUxy
p317
sa(dp318
S'block.thisTrialN'
p319
I2
sS'block.thisRepN'
p320
I0
sg29
NsS'block.thisN'
p321
I2
sg287
(S'SUBTRACT'
S'HALF'
S'INCREASE'
S'TRIPLE'
S'x'
S'y'
tp322
sg27
g28
sg289
L4L
sg290
(I15
I16
I8
I3
tp323
sg22
I1
sg20
F5.9873201231530402
sg23
F9.5411432817054447
sVY
L5L
sVX
L5L
sg292
Vincrease
p324
sg31
g32
sg33
g34
sg21
S'3'
sg19
S'space'
p325
sg30
g11
sg295
L3L
sg296
g293
sg298
L3L
sS'block.thisIndex'
p326
I10
sg300
g313
sg302
g315
sg303
VBUUUxy
p327
sa(dp328
S'block.thisTrialN'
p329
I3
sS'block.thisRepN'
p330
I0
sg29
NsS'block.thisN'
p331
I3
sg287
(S'THIRD'
S'ADD'
S'INCREASE'
S'x'
S'y'
tp332
sg27
g28
sg289
L3L
sg290
(I8
I15
I5
tp333
sg22
I1
sg20
F1.9876032435859088
sg23
F5.1925159609527327
sVY
L7L
sVX
L7L
sg292
g324
sg31
g32
sg33
g34
sg21
S'5'
sg19
S'space'
p334
sg30
g11
sg295
L5L
sg296
VADD
p335
sg298
L5L
sS'block.thisIndex'
p336
I6
sg300
g297
sg302
L0L
sg303
VUBUxy
p337
sa(dp338
S'block.thisTrialN'
p339
I4
sS'block.thisRepN'
p340
I0
sg29
NsS'block.thisN'
p341
I4
sg287
(S'TIMES'
S'INCREASE'
S'THIRD'
S'DOUBLE'
S'x'
S'y'
tp342
sg27
g28
sg289
L4L
sg290
(I6
I2
I3
I9
tp343
sg22
I1
sg20
F9.3659473633742891
sg23
F4.6103184632665943
sVY
L3L
sVX
L3L
sg292
g297
sg31
g32
sg33
g34
sg21
S'9'
sg19
S'space'
p344
sg30
g11
sg295
L9L
sg296
g324
sg298
L9L
sS'block.thisIndex'
p345
I11
sg300
g301
sg302
g311
sg303
g327
sa(dp346
S'block.thisTrialN'
p347
I5
sS'block.thisRepN'
p348
I0
sg29
NsS'block.thisN'
p349
I5
sg287
(S'THIRD'
S'ADD'
S'x'
S'y'
tp350
sg27
g28
sg289
L2L
sg290
(I9
I3
tp351
sg22
I1
sg20
F3.4450482091924641
sg23
F1.7003556679119356
sVY
L5L
sVX
L4L
sg292
L0L
sg31
g32
sg33
g34
sg21
S'3'
sg19
S'space'
p352
sg30
g11
sg295
L3L
sg296
g335
sg298
L3L
sS'block.thisIndex'
p353
I2
sg300
g297
sg302
L0L
sg303
VUBxy
p354
sa(dp355
S'block.thisTrialN'
p356
I6
sS'block.thisRepN'
p357
I0
sg29
NsS'block.thisN'
p358
I6
sg287
(S'TIMES'
S'INCREASE'
S'x'
S'y'
tp359
sg27
g28
sg289
L2L
sg290
(I3
I6
tp360
sg22
I1
sg20
F1.9884900510660373
sg23
F1.7506240723887458
sVY
L2L
sVX
L2L
sg292
L0L
sg31
g32
sg33
g34
sg21
S'6'
sg19
S'space'
p361
sg30
g11
sg295
L6L
sg296
g324
sg298
L6L
sS'block.thisIndex'
p362
I1
sg300
g301
sg302
L0L
sg303
VBUxy
p363
sa(dp364
S'block.thisTrialN'
p365
I7
sS'block.thisRepN'
p366
I0
sg29
NsS'block.thisN'
p367
I7
sg287
(S'TIMES'
S'DECREASE'
S'x'
S'y'
tp368
sg27
g28
sg289
L2L
sg290
(I2
I4
tp369
sg22
I1
sg20
F1.2486875494651031
sg23
F1.3977208978030831
sVY
L2L
sVX
L3L
sg292
L0L
sg31
g32
sg33
g34
sg21
S'4'
sg19
S'space'
p370
sg30
g11
sg295
L4L
sg296
g316
sg298
L4L
sS'block.thisIndex'
p371
I0
sg300
g301
sg302
L0L
sg303
g363
sa(dp372
S'block.thisTrialN'
p373
I8
sS'block.thisRepN'
p374
I0
sg29
NsS'block.thisN'
p375
I8
sg287
(S'THIRD'
S'SUBTRACT'
S'x'
S'y'
tp376
sg27
g28
sg289
L2L
sg290
(I3
I1
tp377
sg22
I1
sg20
F1.224494573980337
sg23
F2.0218807667552028
sVY
L2L
sVX
L5L
sg292
L0L
sg31
g32
sg33
g34
sg21
S'1'
sg19
S'space'
p378
sg30
g11
sg295
L1L
sg296
g313
sg298
L1L
sS'block.thisIndex'
p379
I3
sg300
g297
sg302
L0L
sg303
g354
sa(dp380
S'block.thisTrialN'
p381
I9
sS'block.thisRepN'
p382
I0
sg29
NsS'block.thisN'
p383
I9
sg287
(S'THIRD'
S'DECREASE'
S'TIMES'
S'x'
S'y'
tp384
sg27
g28
sg289
L3L
sg290
(I25
I24
I8
tp385
sg22
I1
sg20
F4.4999693782010581
sg23
F8.6288920750957914
sVY
L5L
sVX
L5L
sg292
g301
sg31
g32
sg33
g34
sg21
S'8'
sg19
S'space'
p386
sg30
g11
sg295
L8L
sg296
g316
sg298
L8L
sS'block.thisIndex'
p387
I8
sg300
g297
sg302
L0L
sg303
VUUBxy
p388
sa(dp389
S'block.thisTrialN'
p390
I10
sS'block.thisRepN'
p391
I0
sg29
NsS'block.thisN'
p392
I10
sg287
(S'TRIPLE'
S'HALF'
S'DIVIDE'
S'x'
S'y'
tp393
sg27
g28
sg289
L3L
sg290
(I2
I1
I3
tp394
sg22
I1
sg20
F2.0987204984994605
sg23
F3.6216450313513633
sVY
L2L
sVX
L4L
sg292
VDIVIDE
p395
sg31
g32
sg33
g34
sg21
S'3'
sg19
S'space'
p396
sg30
g11
sg295
L3L
sg296
g293
sg298
L3L
sS'block.thisIndex'
p397
I9
sg300
g315
sg302
L0L
sg303
g388
sa(dp398
S'block.thisTrialN'
p399
I11
sS'block.thisRepN'
p400
I0
sg29
NsS'block.thisN'
p401
I11
sg287
(S'THIRD'
S'DOUBLE'
S'ADD'
S'INCREASE'
S'x'
S'y'
tp402
sg27
g28
sg289
L4L
sg290
(I10
I12
I24
I8
tp403
sg22
I1
sg20
F6.2292656261415686
sg23
F7.1563598338689189
sVY
L2L
sVX
L9L
sg292
g335
sg31
g32
sg33
g34
sg21
S'8'
sg19
S'space'
p404
sg30
g11
sg295
L8L
sg296
g311
sg298
L8L
sS'block.thisIndex'
p405
I14
sg300
g297
sg302
g324
sg303
VUUBUxy
p406
sa(dp407
S'block.thisTrialN'
p408
I12
sS'block.thisRepN'
p409
I0
sg29
NsS'block.thisN'
p410
I12
sg287
(S'TRIPLE'
S'HALF'
S'ADD'
S'DECREASE'
S'x'
S'y'
tp411
sg27
g28
sg289
L4L
sg290
(I1
I4
I2
I6
tp412
sg22
I1
sg20
F5.8323261967743747
sg23
F5.3294951671850868
sVY
L3L
sVX
L2L
sg292
g335
sg31
g32
sg33
g34
sg21
S'6'
sg19
S'space'
p413
sg30
g11
sg295
L6L
sg296
g293
sg298
L6L
sS'block.thisIndex'
p414
I15
sg300
g315
sg302
g316
sg303
g406
sa(dp415
S'block.thisTrialN'
p416
I13
sS'block.thisRepN'
p417
I0
sg29
NsS'block.thisN'
p418
I13
sg287
(S'THIRD'
S'INCREASE'
S'HALF'
S'DIVIDE'
S'x'
S'y'
tp419
sg27
g28
sg289
L4L
sg290
(I4
I2
I3
I1
tp420
sg22
I1
sg20
F6.710564802546287
sg23
F8.9488654358719941
sVY
L2L
sVX
L8L
sg292
g293
sg31
g32
sg33
g34
sg21
S'1'
sg19
S'space'
p421
sg30
g11
sg295
L1L
sg296
g324
sg298
L1L
sS'block.thisIndex'
p422
I16
sg300
g297
sg302
g395
sg303
VUUUBxy
p423
sa(dp424
S'block.thisTrialN'
p425
I14
sS'block.thisRepN'
p426
I0
sg29
NsS'block.thisN'
p427
I14
sg287
(S'INCREASE'
S'DIVIDE'
S'TRIPLE'
S'DOUBLE'
S'x'
S'y'
tp428
sg27
g28
sg289
L4L
sg290
(I6
I18
I3
I4
tp429
sg22
I1
sg20
F9.6018706948088948
sg23
F3.6076643402338959
sVY
L6L
sVX
L3L
sg292
g315
sg31
g32
sg33
g34
sg21
S'4'
sg19
S'space'
p430
sg30
g11
sg295
L4L
sg296
g395
sg298
L4L
sS'block.thisIndex'
p431
I12
sg300
g324
sg302
g311
sg303
g317
sa(dp432
S'block.thisTrialN'
p433
I15
sS'block.thisRepN'
p434
I0
sg29
NsS'block.thisN'
p435
I15
sg287
(S'TIMES'
S'DECREASE'
S'HALF'
S'x'
S'y'
tp436
sg27
g28
sg289
L3L
sg290
(I4
I3
I9
tp437
sg22
I1
sg20
F5.1683751300734002
sg23
F3.2549637945485301
sVY
L3L
sVX
L8L
sg292
g293
sg31
g32
sg33
g34
sg21
S'9'
sg19
S'space'
p438
sg30
g11
sg295
L9L
sg296
g316
sg298
L9L
sS'block.thisIndex'
p439
I4
sg300
g301
sg302
L0L
sg303
g304
sa(dp440
S'block.thisTrialN'
p441
I16
sS'block.thisRepN'
p442
I0
sg29
NsS'block.thisN'
p443
I16
sg287
(S'THIRD'
S'TIMES'
S'DECREASE'
S'x'
S'y'
tp444
sg27
g28
sg289
L3L
sg290
(I3
I15
I5
tp445
sg22
I1
sg20
F4.1320275729231071
sg23
F3.3302594874403439
sVY
L5L
sVX
L4L
sg292
g316
sg31
g32
sg33
g34
sg21
S'5'
sg19
S'space'
p446
sg30
g11
sg295
L5L
sg296
g301
sg298
L5L
sS'block.thisIndex'
p447
I7
sg300
g297
sg302
L0L
sg303
g337
sa(dp448
S'block.thisTrialN'
p449
I17
sS'block.thisRepN'
p450
I0
sg29
NsS'block.thisN'
p451
I17
sg287
(S'TRIPLE'
S'DECREASE'
S'HALF'
S'TIMES'
S'x'
S'y'
tp452
sg27
g28
sg289
L4L
sg290
(I6
I3
I2
I6
tp453
sg22
I1
sg20
F14.420283043466043
sg23
F9.8469900165800937
sVY
L2L
sVX
L3L
sg292
g293
sg31
g32
sg33
g34
sg21
S'6'
sg19
S'space'
p454
sg30
g11
sg295
L6L
sg296
g316
sg298
L6L
sS'block.thisIndex'
p455
I17
sg300
g315
sg302
g301
sg303
g423
sa(dp456
S'block.thisTrialN'
p457
I0
sS'block.thisRepN'
p458
I0
sg29
NsS'block.thisN'
p459
I0
sVRule
p460
(S'DOUBLE'
S'THIRD'
S'ADD'
S'x'
S'y'
tp461
sg27
g28
sVLength
p462
L3L
sVIntermediate
p463
(I9
I3
I6
tp464
sg22
I1
sg20
F2.4061410191934556
sg23
F2.6138908904977143
sVY
L4L
sVX
L5L
sVOperatorc
p465
VADD
p466
sg31
g32
sg33
g34
sg21
S'6'
sg19
S'space'
p467
sg30
g11
sVResult
p468
L6L
sVOperatora
p469
Vthird
p470
sVCorrectResponse
p471
L6L
sS'block.thisIndex'
p472
I8
sVOperatorb
p473
Vdouble
p474
sVOperatord
p475
L0L
sVStructure
p476
VUUBxy
p477
sa(dp478
S'block.thisTrialN'
p479
I1
sS'block.thisRepN'
p480
I0
sg29
NsS'block.thisN'
p481
I1
sg460
(S'THIRD'
S'HALF'
S'INCREASE'
S'SUBTRACT'
S'x'
S'y'
tp482
sg27
g28
sg462
L4L
sg463
(I5
I6
I3
I1
tp483
sg22
I1
sg20
F5.3629604250891134
sg23
F5.0769300223328173
sVY
L2L
sVX
L7L
sg465
Vincrease
p484
sg31
g32
sg33
g34
sg21
S'1'
sg19
S'space'
p485
sg30
g11
sg468
L1L
sg469
Vhalf
p486
sg471
L1L
sS'block.thisIndex'
p487
I17
sg473
g470
sg475
VSUBTRACT
p488
sg476
VUUUBxy
p489
sa(dp490
S'block.thisTrialN'
p491
I2
sS'block.thisRepN'
p492
I0
sg29
NsS'block.thisN'
p493
I2
sg460
(S'DECREASE'
S'TRIPLE'
S'SUBTRACT'
S'DOUBLE'
S'x'
S'y'
tp494
sg27
g28
sg462
L4L
sg463
(I6
I3
I9
I8
tp495
sg22
I0
sVY
L3L
sVX
L3L
sg465
g488
sg31
g32
sg33
g34
sg21
Nsg19
Nsg30
g11
sg468
L8L
sg469
Vtriple
p496
sg471
L8L
sS'block.thisIndex'
p497
I15
sg473
Vdecrease
p498
sg475
g474
sg476
VUUBUxy
p499
sa(dp500
S'block.thisTrialN'
p501
I3
sS'block.thisRepN'
p502
I0
sg29
NsS'block.thisN'
p503
I3
sg460
(S'DECREASE'
S'TIMES'
S'x'
S'y'
tp504
sg27
g28
sg462
L2L
sg463
(I9
I8
tp505
sg22
I1
sg20
F1.8086228202155326
sg23
F1.9580351790355053
sVY
L3L
sVX
L3L
sg465
L0L
sg31
g32
sg33
g34
sg21
S'8'
sg19
S'space'
p506
sg30
g11
sg468
L8L
sg469
VTIMES
p507
sg471
L8L
sS'block.thisIndex'
p508
I2
sg473
g498
sg475
L0L
sg476
VUBxy
p509
sa(dp510
S'block.thisTrialN'
p511
I4
sS'block.thisRepN'
p512
I0
sg29
NsS'block.thisN'
p513
I4
sg460
(S'ADD'
S'TRIPLE'
S'HALF'
S'x'
S'y'
tp514
sg27
g28
sg462
L3L
sg463
(I2
I6
I8
tp515
sg22
I1
sg20
F3.5262953810743056
sg23
F2.4696005971927661
sVY
L2L
sVX
L4L
sg465
g486
sg31
g32
sg33
g34
sg21
S'8'
sg19
S'space'
p516
sg30
g11
sg468
L8L
sg469
g496
sg471
L8L
sS'block.thisIndex'
p517
I5
sg473
g466
sg475
L0L
sg476
VBUUxy
p518
sa(dp519
S'block.thisTrialN'
p520
I5
sS'block.thisRepN'
p521
I0
sg29
NsS'block.thisN'
p522
I5
sg460
(S'DECREASE'
S'ADD'
S'THIRD'
S'HALF'
S'x'
S'y'
tp523
sg27
g28
sg462
L4L
sg463
(I3
I1
I7
I6
tp524
sg22
I1
sg20
F10.307714839960681
sg23
F5.8793115938315168
sVY
L6L
sVX
L6L
sg465
g470
sg31
g32
sg33
g34
sg21
S'6'
sg19
S'space'
p525
sg30
g11
sg468
L6L
sg469
g466
sg471
L6L
sS'block.thisIndex'
p526
I12
sg473
g498
sg475
g486
sg476
VUBUUxy
p527
sa(dp528
S'block.thisTrialN'
p529
I6
sS'block.thisRepN'
p530
I0
sg29
NsS'block.thisN'
p531
I6
sg460
(S'DIVIDE'
S'DECREASE'
S'x'
S'y'
tp532
sg27
g28
sg462
L2L
sg463
(I8
I2
tp533
sg22
I1
sg20
F2.8982211706170347
sg23
F4.2450437296938617
sVY
L4L
sVX
L9L
sg465
L0L
sg31
g32
sg33
g34
sg21
S'2'
sg19
S'space'
p534
sg30
g11
sg468
L2L
sg469
g498
sg471
L2L
sS'block.thisIndex'
p535
I1
sg473
VDIVIDE
p536
sg475
L0L
sg476
VBUxy
p537
sa(dp538
S'block.thisTrialN'
p539
I7
sS'block.thisRepN'
p540
I0
sg29
NsS'block.thisN'
p541
I7
sg460
(S'ADD'
S'DECREASE'
S'THIRD'
S'DOUBLE'
S'x'
S'y'
tp542
sg27
g28
sg462
L4L
sg463
(I18
I6
I5
I9
tp543
sg22
I1
sg20
F3.0287313018925488
sg23
F6.2323421550972853
sVY
L4L
sVX
L9L
sg465
g470
sg31
g32
sg33
g34
sg21
S'9'
sg19
S'space'
p544
sg30
g11
sg468
L9L
sg469
g498
sg471
L9L
sS'block.thisIndex'
p545
I10
sg473
g466
sg475
g474
sg476
VBUUUxy
p546
sa(dp547
S'block.thisTrialN'
p548
I8
sS'block.thisRepN'
p549
I0
sg29
NsS'block.thisN'
p550
I8
sg460
(S'DECREASE'
S'DOUBLE'
S'TIMES'
S'THIRD'
S'x'
S'y'
tp551
sg27
g28
sg462
L4L
sg463
(I1
I3
I6
I5
tp552
sg22
I1
sg20
F4.9820090773573611
sg23
F3.8774277404299937
sVY
L3L
sVX
L3L
sg465
g507
sg31
g32
sg33
g34
sg21
S'5'
sg19
S'space'
p553
sg30
g11
sg468
L5L
sg469
g474
sg471
L5L
sS'block.thisIndex'
p554
I14
sg473
g498
sg475
g470
sg476
g499
sa(dp555
S'block.thisTrialN'
p556
I9
sS'block.thisRepN'
p557
I0
sg29
NsS'block.thisN'
p558
I9
sg460
(S'INCREASE'
S'ADD'
S'HALF'
S'x'
S'y'
tp559
sg27
g28
sg462
L3L
sg463
(I1
I4
I5
tp560
sg22
I1
sg20
F0.78629864973481745
sg23
F2.996592755545862
sVY
L3L
sVX
L2L
sg465
g486
sg31
g32
sg33
g34
sg21
S'5'
sg19
S'space'
p561
sg30
g11
sg468
L5L
sg469
g466
sg471
L5L
sS'block.thisIndex'
p562
I7
sg473
g484
sg475
L0L
sg476
VUBUxy
p563
sa(dp564
S'block.thisTrialN'
p565
I10
sS'block.thisRepN'
p566
I0
sg29
NsS'block.thisN'
p567
I10
sg460
(S'DECREASE'
S'SUBTRACT'
S'DOUBLE'
S'THIRD'
S'x'
S'y'
tp568
sg27
g28
sg462
L4L
sg463
(I3
I6
I4
I3
tp569
sg22
I1
sg20
F4.0863996841944754
sg23
F4.9803922460705508
sVY
L2L
sVX
L9L
sg465
g474
sg31
g32
sg33
g34
sg21
S'3'
sg19
S'space'
p570
sg30
g11
sg468
L3L
sg469
g488
sg471
L3L
sS'block.thisIndex'
p571
I13
sg473
g498
sg475
g470
sg476
g527
sa(dp572
S'block.thisTrialN'
p573
I11
sS'block.thisRepN'
p574
I0
sg29
NsS'block.thisN'
p575
I11
sg460
(S'ADD'
S'TRIPLE'
S'DOUBLE'
S'DECREASE'
S'x'
S'y'
tp576
sg27
g28
sg462
L4L
sg463
(I1
I2
I6
I8
tp577
sg22
I1
sg20
F7.4886225122318137
sg23
F2.4685752041696105
sVY
L2L
sVX
L2L
sg465
g474
sg31
g32
sg33
g34
sg21
S'8'
sg19
S'space'
p578
sg30
g11
sg468
L8L
sg469
g496
sg471
L8L
sS'block.thisIndex'
p579
I11
sg473
g466
sg475
g498
sg476
g546
sa(dp580
S'block.thisTrialN'
p581
I12
sS'block.thisRepN'
p582
I0
sg29
NsS'block.thisN'
p583
I12
sg460
(S'HALF'
S'ADD'
S'x'
S'y'
tp584
sg27
g28
sg462
L2L
sg463
(I12
I6
tp585
sg22
I1
sg20
F1.5098775442747865
sg23
F1.6265021745057311
sVY
L8L
sVX
L4L
sg465
L0L
sg31
g32
sg33
g34
sg21
S'6'
sg19
S'space'
p586
sg30
g11
sg468
L6L
sg469
g466
sg471
L6L
sS'block.thisIndex'
p587
I3
sg473
g486
sg475
L0L
sg476
g509
sa(dp588
S'block.thisTrialN'
p589
I13
sS'block.thisRepN'
p590
I0
sg29
NsS'block.thisN'
p591
I13
sg460
(S'ADD'
S'DOUBLE'
S'DECREASE'
S'x'
S'y'
tp592
sg27
g28
sg462
L3L
sg463
(I1
I2
I7
tp593
sg22
I1
sg20
F1.9087323237909004
sg23
F3.8438592432648875
sVY
L5L
sVX
L2L
sg465
g498
sg31
g32
sg33
g34
sg21
S'7'
sg19
S'space'
p594
sg30
g11
sg468
L7L
sg469
g474
sg471
L7L
sS'block.thisIndex'
p595
I4
sg473
g466
sg475
L0L
sg476
g518
sa(dp596
S'block.thisTrialN'
p597
I14
sS'block.thisRepN'
p598
I0
sg29
NsS'block.thisN'
p599
I14
sg460
(S'HALF'
S'INCREASE'
S'TIMES'
S'x'
S'y'
tp600
sg27
g28
sg462
L3L
sg463
(I9
I10
I5
tp601
sg22
I1
sg20
F3.1409862880827859
sg23
F3.6205027505347971
sVY
L3L
sVX
L3L
sg465
g507
sg31
g32
sg33
g34
sg21
S'5'
sg19
S'space'
p602
sg30
g11
sg468
L5L
sg469
g484
sg471
L5L
sS'block.thisIndex'
p603
I9
sg473
g486
sg475
L0L
sg476
g477
sa(dp604
S'block.thisTrialN'
p605
I15
sS'block.thisRepN'
p606
I0
sg29
NsS'block.thisN'
p607
I15
sg460
(S'DOUBLE'
S'SUBTRACT'
S'INCREASE'
S'x'
S'y'
tp608
sg27
g28
sg462
L3L
sg463
(I4
I1
I2
tp609
sg22
I1
sg20
F5.6384103818854783
sg23
F3.1714170126360841
sVY
L3L
sVX
L3L
sg465
g484
sg31
g32
sg33
g34
sg21
S'2'
sg19
S'space'
p610
sg30
g11
sg468
L2L
sg469
g488
sg471
L2L
sS'block.thisIndex'
p611
I6
sg473
g474
sg475
L0L
sg476
g563
sa(dp612
S'block.thisTrialN'
p613
I16
sS'block.thisRepN'
p614
I0
sg29
NsS'block.thisN'
p615
I16
sg460
(S'ADD'
S'DECREASE'
S'x'
S'y'
tp616
sg27
g28
sg462
L2L
sg463
(I2
I7
tp617
sg22
I1
sg20
F1.0310809566872194
sg23
F2.0045194283884484
sVY
L5L
sVX
L3L
sg465
L0L
sg31
g32
sg33
g34
sg21
S'7'
sg19
S'space'
p618
sg30
g11
sg468
L7L
sg469
g498
sg471
L7L
sS'block.thisIndex'
p619
I0
sg473
g466
sg475
L0L
sg476
g537
sa(dp620
S'block.thisTrialN'
p621
I17
sS'block.thisRepN'
p622
I0
sg29
NsS'block.thisN'
p623
I17
sg460
(S'INCREASE'
S'HALF'
S'THIRD'
S'TIMES'
S'x'
S'y'
tp624
sg27
g28
sg462
L4L
sg463
(I12
I4
I2
I3
tp625
sg22
I1
sg20
F7.9105020891001914
sg23
F2.2616008519544266
sVY
L4L
sVX
L3L
sg465
g470
sg31
g32
sg33
g34
sg21
S'3'
sg19
S'space'
p626
sg30
g11
sg468
L3L
sg469
g486
sg471
L3L
sS'block.thisIndex'
p627
I16
sg473
g484
sg475
g507
sg476
g489
sa(dp628
S'block.thisTrialN'
p629
I0
sS'block.thisRepN'
p630
I0
sg29
NsS'block.thisN'
p631
I0
sVRule
p632
(S'HALF'
S'SUBTRACT'
S'TRIPLE'
S'x'
S'y'
tp633
sg27
g28
sVLength
p634
L3L
sVIntermediate
p635
(I9
I2
I1
tp636
sg22
I1
sg20
F4.9833907331631053
sg23
F4.9655530945456121
sVY
L7L
sVX
L3L
sVOperatorc
p637
Vtriple
p638
sg31
g32
sg33
g34
sg21
S'1'
sg19
S'space'
p639
sg30
g11
sVResult
p640
L1L
sVOperatora
p641
VSUBTRACT
p642
sVCorrectResponse
p643
L1L
sS'block.thisIndex'
p644
I6
sVOperatorb
p645
Vhalf
p646
sVOperatord
p647
L0L
sVStructure
p648
VUBUxy
p649
sa(dp650
S'block.thisTrialN'
p651
I1
sS'block.thisRepN'
p652
I0
sg29
NsS'block.thisN'
p653
I1
sg632
(S'DIVIDE'
S'INCREASE'
S'DOUBLE'
S'THIRD'
S'x'
S'y'
tp654
sg27
g28
sg634
L4L
sg635
(I2
I4
I5
I1
tp655
sg22
I1
sg20
F6.0672668307088315
sg23
F6.8035511494381353
sVY
L5L
sVX
L6L
sg637
Vdouble
p656
sg31
g32
sg33
g34
sg21
S'1'
sg19
S'space'
p657
sg30
g11
sg640
L1L
sg641
Vincrease
p658
sg643
L1L
sS'block.thisIndex'
p659
I11
sg645
VDIVIDE
p660
sg647
Vthird
p661
sg648
VBUUUxy
p662
sa(dp663
S'block.thisTrialN'
p664
I2
sS'block.thisRepN'
p665
I0
sg29
NsS'block.thisN'
p666
I2
sg632
(S'DECREASE'
S'HALF'
S'TRIPLE'
S'DIVIDE'
S'x'
S'y'
tp667
sg27
g28
sg634
L4L
sg635
(I4
I12
I6
I5
tp668
sg22
I0
sg20
F3.6222620169573929
sVY
L2L
sVX
L8L
sg637
g638
sg31
g32
sg33
g34
sg21
Nsg19
S'space'
p669
sg30
g11
sg640
L5L
sg641
g646
sg643
L5L
sS'block.thisIndex'
p670
I16
sg645
Vdecrease
p671
sg647
g660
sg648
VUUUBxy
p672
sa(dp673
S'block.thisTrialN'
p674
I3
sS'block.thisRepN'
p675
I0
sg29
NsS'block.thisN'
p676
I3
sg632
(S'DECREASE'
S'THIRD'
S'TIMES'
S'HALF'
S'x'
S'y'
tp677
sg27
g28
sg634
L4L
sg635
(I2
I12
I4
I3
tp678
sg22
I1
sg20
F9.0912886740115937
sg23
F6.6982796845259145
sVY
L6L
sVX
L4L
sg637
VTIMES
p679
sg31
g32
sg33
g34
sg21
S'3'
sg19
S'space'
p680
sg30
g11
sg640
L3L
sg641
g661
sg643
L3L
sS'block.thisIndex'
p681
I14
sg645
g671
sg647
g646
sg648
VUUBUxy
p682
sa(dp683
S'block.thisTrialN'
p684
I4
sS'block.thisRepN'
p685
I0
sg29
NsS'block.thisN'
p686
I4
sg632
(S'DIVIDE'
S'DOUBLE'
S'x'
S'y'
tp687
sg27
g28
sg634
L2L
sg635
(I12
I2
tp688
sg22
I1
sg20
F1.0102189336612355
sg23
F2.5825548104185145
sVY
L6L
sVX
L6L
sg637
L0L
sg31
g32
sg33
g34
sg21
S'2'
sg19
S'space'
p689
sg30
g11
sg640
L2L
sg641
g656
sg643
L2L
sS'block.thisIndex'
p690
I1
sg645
g660
sg647
L0L
sg648
VBUxy
p691
sa(dp692
S'block.thisTrialN'
p693
I5
sS'block.thisRepN'
p694
I0
sg29
NsS'block.thisN'
p695
I5
sg632
(S'DOUBLE'
S'SUBTRACT'
S'x'
S'y'
tp696
sg27
g28
sg634
L2L
sg635
(I1
I2
tp697
sg22
I1
sg20
F1.8251673437771387
sg23
F1.7823398628388532
sVY
L7L
sVX
L8L
sg637
L0L
sg31
g32
sg33
g34
sg21
S'2'
sg19
S'space'
p698
sg30
g11
sg640
L2L
sg641
g642
sg643
L2L
sS'block.thisIndex'
p699
I2
sg645
g656
sg647
L0L
sg648
VUBxy
p700
sa(dp701
S'block.thisTrialN'
p702
I6
sS'block.thisRepN'
p703
I0
sg29
NsS'block.thisN'
p704
I6
sg632
(S'DOUBLE'
S'DECREASE'
S'SUBTRACT'
S'x'
S'y'
tp705
sg27
g28
sg634
L3L
sg635
(I5
I4
I8
tp706
sg22
I1
sg20
F3.1721932316140737
sg23
F2.5636410340666771
sVY
L2L
sVX
L7L
sg637
g642
sg31
g32
sg33
g34
sg21
S'8'
sg19
S'space'
p707
sg30
g11
sg640
L8L
sg641
g671
sg643
L8L
sS'block.thisIndex'
p708
I8
sg645
g656
sg647
L0L
sg648
VUUBxy
p709
sa(dp710
S'block.thisTrialN'
p711
I7
sS'block.thisRepN'
p712
I0
sg29
NsS'block.thisN'
p713
I7
sg632
(S'DOUBLE'
S'DECREASE'
S'TRIPLE'
S'DIVIDE'
S'x'
S'y'
tp714
sg27
g28
sg634
L4L
sg635
(I1
I3
I2
I4
tp715
sg22
I1
sg20
F8.4672075468697585
sg23
F4.0872133492957801
sVY
L4L
sVX
L4L
sg637
g638
sg31
g32
sg33
g34
sg21
S'4'
sg19
S'space'
p716
sg30
g11
sg640
L4L
sg641
g671
sg643
L4L
sS'block.thisIndex'
p717
I17
sg645
g656
sg647
g660
sg648
g672
sa(dp718
S'block.thisTrialN'
p719
I8
sS'block.thisRepN'
p720
I0
sg29
NsS'block.thisN'
p721
I8
sg632
(S'DIVIDE'
S'DOUBLE'
S'THIRD'
S'x'
S'y'
tp722
sg27
g28
sg634
L3L
sg635
(I2
I4
I1
tp723
sg22
I1
sg20
F4.3706148263299838
sg23
F3.143236553267343
sVY
L4L
sVX
L6L
sg637
g661
sg31
g32
sg33
g34
sg21
S'1'
sg19
S'space'
p724
sg30
g11
sg640
L1L
sg641
g656
sg643
L1L
sS'block.thisIndex'
p725
I4
sg645
g660
sg647
L0L
sg648
VBUUxy
p726
sa(dp727
S'block.thisTrialN'
p728
I9
sS'block.thisRepN'
p729
I0
sg29
NsS'block.thisN'
p730
I9
sg632
(S'ADD'
S'THIRD'
S'INCREASE'
S'HALF'
S'x'
S'y'
tp731
sg27
g28
sg634
L4L
sg635
(I2
I3
I1
I7
tp732
sg22
I1
sg20
F3.3841027688758913
sg23
F4.7380680825735908
sVY
L6L
sVX
L4L
sg637
g658
sg31
g32
sg33
g34
sg21
S'7'
sg19
S'space'
p733
sg30
g11
sg640
L7L
sg641
g661
sg643
L7L
sS'block.thisIndex'
p734
I10
sg645
VADD
p735
sg647
g646
sg648
g662
sa(dp736
S'block.thisTrialN'
p737
I10
sS'block.thisRepN'
p738
I0
sg29
NsS'block.thisN'
p739
I10
sg632
(S'SUBTRACT'
S'HALF'
S'TRIPLE'
S'x'
S'y'
tp740
sg27
g28
sg634
L3L
sg635
(I12
I6
I2
tp741
sg22
I1
sg20
F3.0952660089824349
sg23
F6.4525654247845523
sVY
L4L
sVX
L4L
sg637
g638
sg31
g32
sg33
g34
sg21
S'2'
sg19
S'space'
p742
sg30
g11
sg640
L2L
sg641
g646
sg643
L2L
sS'block.thisIndex'
p743
I5
sg645
g642
sg647
L0L
sg648
g726
sa(dp744
S'block.thisTrialN'
p745
I11
sS'block.thisRepN'
p746
I0
sg29
NsS'block.thisN'
p747
I11
sg632
(S'ADD'
S'DOUBLE'
S'x'
S'y'
tp748
sg27
g28
sg634
L2L
sg635
(I4
I8
tp749
sg22
I1
sg20
F1.1113622293341905
sg23
F2.3691218821331859
sVY
L4L
sVX
L2L
sg637
L0L
sg31
g32
sg33
g34
sg21
S'8'
sg19
S'space'
p750
sg30
g11
sg640
L8L
sg641
g656
sg643
L8L
sS'block.thisIndex'
p751
I0
sg645
g735
sg647
L0L
sg648
g691
sa(dp752
S'block.thisTrialN'
p753
I12
sS'block.thisRepN'
p754
I0
sg29
NsS'block.thisN'
p755
I12
sg632
(S'INCREASE'
S'DIVIDE'
S'THIRD'
S'x'
S'y'
tp756
sg27
g28
sg634
L3L
sg635
(I3
I1
I2
tp757
sg22
I1
sg20
F1.9728718808037229
sg23
F3.7175976686703507
sVY
L3L
sVX
L9L
sg637
g661
sg31
g32
sg33
g34
sg21
S'2'
sg19
S'space'
p758
sg30
g11
sg640
L2L
sg641
g660
sg643
L2L
sS'block.thisIndex'
p759
I7
sg645
g658
sg647
L0L
sg648
g649
sa(dp760
S'block.thisTrialN'
p761
I13
sS'block.thisRepN'
p762
I0
sg29
NsS'block.thisN'
p763
I13
sg632
(S'DOUBLE'
S'TRIPLE'
S'SUBTRACT'
S'x'
S'y'
tp764
sg27
g28
sg634
L3L
sg635
(I1
I3
I6
tp765
sg22
I1
sg20
F2.579245555709349
sg23
F4.8869253993325401
sVY
L3L
sVX
L4L
sg637
g642
sg31
g32
sg33
g34
sg21
S'6'
sg19
S'space'
p766
sg30
g11
sg640
L6L
sg641
g638
sg643
L6L
sS'block.thisIndex'
p767
I9
sg645
g656
sg647
L0L
sg648
g709
sa(dp768
S'block.thisTrialN'
p769
I14
sS'block.thisRepN'
p770
I0
sg29
NsS'block.thisN'
p771
I14
sg632
(S'DOUBLE'
S'TRIPLE'
S'DIVIDE'
S'DECREASE'
S'x'
S'y'
tp772
sg27
g28
sg634
L4L
sg635
(I8
I1
I3
I6
tp773
sg22
I1
sg20
F5.9213453576085158
sg23
F2.500395983690396
sVY
L8L
sVX
L9L
sg637
g660
sg31
g32
sg33
g34
sg21
S'6'
sg19
S'space'
p774
sg30
g11
sg640
L6L
sg641
g638
sg643
L6L
sS'block.thisIndex'
p775
I15
sg645
g656
sg647
g671
sg648
g682
sa(dp776
S'block.thisTrialN'
p777
I15
sS'block.thisRepN'
p778
I0
sg29
NsS'block.thisN'
p779
I15
sg632
(S'DECREASE'
S'ADD'
S'DOUBLE'
S'THIRD'
S'x'
S'y'
tp780
sg27
g28
sg634
L4L
sg635
(I3
I6
I10
I9
tp781
sg22
I1
sg20
F6.665598344814498
sg23
F3.9062955280824099
sVY
L4L
sVX
L9L
sg637
g656
sg31
g32
sg33
g34
sg21
S'9'
sg19
S'space'
p782
sg30
g11
sg640
L9L
sg641
g735
sg643
L9L
sS'block.thisIndex'
p783
I12
sg645
Vdecrease 
p784
sg647
g661
sg648
VUBUUxy
p785
sa(dp786
S'block.thisTrialN'
p787
I16
sS'block.thisRepN'
p788
I0
sg29
NsS'block.thisN'
p789
I16
sg632
(S'DECREASE'
S'TIMES'
S'DOUBLE'
S'THIRD'
S'x'
S'y'
tp790
sg27
g28
sg634
L4L
sg635
(I1
I2
I8
I7
tp791
sg22
I1
sg20
F4.740207059396198
sg23
F5.5569525320024695
sVY
L4L
sVX
L3L
sg637
g656
sg31
g32
sg33
g34
sg21
S'7'
sg19
S'space'
p792
sg30
g11
sg640
L7L
sg641
g679
sg643
L7L
sS'block.thisIndex'
p793
I13
sg645
g671
sg647
g661
sg648
g785
sa(dp794
S'block.thisTrialN'
p795
I17
sS'block.thisRepN'
p796
I0
sg29
NsS'block.thisN'
p797
I17
sg632
(S'HALF'
S'TIMES'
S'x'
S'y'
tp798
sg27
g28
sg634
L2L
sg635
(I16
I8
tp799
sg22
I0
sg20
F0.86847672445583157
sg23
F2.007404177391436
sVY
L4L
sVX
L4L
sg637
L0L
sg31
g32
sg33
g34
sg21
S'4'
sg19
S'space'
p800
sg30
g11
sg640
L8L
sg641
g679
sg643
L8L
sS'block.thisIndex'
p801
I3
sg645
g646
sg647
L0L
sg648
g700
sa(dp802
S'block.thisTrialN'
p803
I0
sS'block.thisRepN'
p804
I0
sg29
NsS'block.thisN'
p805
I0
sVRule
p806
(S'SUBTRACT'
S'DOUBLE'
S'TRIPLE'
S'DECREASE'
S'x'
S'y'
tp807
sg27
g28
sVLength
p808
L4L
sVIntermediate
p809
(I2
I6
I12
I8
tp810
sg22
I1
sg20
F8.2797828546608798
sg23
F3.7675140099017881
sVY
L4L
sVX
L3L
sVOperatorc
p811
Vtriple
p812
sg31
g32
sg33
g34
sg21
S'8'
sg19
S'space'
p813
sg30
g11
sVResult
p814
L8L
sVOperatora
p815
Vdouble
p816
sVCorrectResponse
p817
L8L
sS'block.thisIndex'
p818
I10
sVOperatorb
p819
VSUBTRACT
p820
sVOperatord
p821
Vdecrease
p822
sVStructure
p823
VBUUUxy
p824
sa(dp825
S'block.thisTrialN'
p826
I1
sS'block.thisRepN'
p827
I0
sg29
NsS'block.thisN'
p828
I1
sg806
(S'INCREASE'
S'SUBTRACT'
S'x'
S'y'
tp829
sg27
g28
sg808
L2L
sg809
(I3
I4
tp830
sg22
I1
sg20
F1.5902680055296514
sg23
F1.7450232568371575
sVY
L3L
sVX
L6L
sg811
L0L
sg31
g32
sg33
g34
sg21
S'4'
sg19
S'space'
p831
sg30
g11
sg814
L4L
sg815
g820
sg817
L4L
sS'block.thisIndex'
p832
I2
sg819
Vincrease
p833
sg821
L0L
sg823
VUBxy
p834
sa(dp835
S'block.thisTrialN'
p836
I2
sS'block.thisRepN'
p837
I0
sg29
NsS'block.thisN'
p838
I2
sg806
(S'SUBTRACT'
S'TRIPLE'
S'DECREASE'
S'DOUBLE'
S'x'
S'y'
tp839
sg27
g28
sg808
L4L
sg809
(I4
I3
I9
I1
tp840
sg22
I0
sg20
F5.7658495836076327
sg23
F9.2524234096345026
sVY
L8L
sVX
L2L
sg811
g822
sg31
g32
sg33
g34
sg21
S'3'
sg19
S'space'
p841
sg30
g11
sg814
L1L
sg815
g812
sg817
L1L
sS'block.thisIndex'
p842
I11
sg819
g820
sg821
g816
sg823
g824
sa(dp843
S'block.thisTrialN'
p844
I3
sS'block.thisRepN'
p845
I0
sg29
NsS'block.thisN'
p846
I3
sg806
(S'INCREASE'
S'ADD'
S'HALF'
S'TRIPLE'
S'x'
S'y'
tp847
sg27
g28
sg808
L4L
sg809
(I6
I3
I6
I7
tp848
sg22
I0
sg20
F9.4640816730679944
sg23
F5.5377696337236557
sVY
L3L
sVX
L2L
sg811
Vhalf
p849
sg31
g32
sg33
g34
sg21
S'8'
sg19
S'space'
p850
sg30
g11
sg814
L7L
sg815
VADD
p851
sg817
L7L
sS'block.thisIndex'
p852
I13
sg819
g833
sg821
g812
sg823
VUBUUxy
p853
sa(dp854
S'block.thisTrialN'
p855
I4
sS'block.thisRepN'
p856
I0
sg29
NsS'block.thisN'
p857
I4
sg806
(S'THIRD'
S'DIVIDE'
S'x'
S'y'
tp858
sg27
g28
sg808
L2L
sg809
(I3
I1
tp859
sg22
I1
sg20
F1.8480826025770511
sg23
F3.5719106711330824
sVY
L2L
sVX
L6L
sg811
L0L
sg31
g32
sg33
g34
sg21
S'1'
sg19
S'space'
p860
sg30
g11
sg814
L1L
sg815
VDIVIDE
p861
sg817
L1L
sS'block.thisIndex'
p862
I3
sg819
Vthird
p863
sg821
L0L
sg823
g834
sa(dp864
S'block.thisTrialN'
p865
I5
sS'block.thisRepN'
p866
I0
sg29
NsS'block.thisN'
p867
I5
sg806
(S'SUBTRACT'
S'TRIPLE'
S'DECREASE'
S'x'
S'y'
tp868
sg27
g28
sg808
L3L
sg809
(I4
I12
I3
tp869
sg22
I1
sg20
F12.065974765515421
sg23
F5.6531893397041131
sVY
L9L
sVX
L5L
sg811
g822
sg31
g32
sg33
g34
sg21
S'3'
sg19
S'space'
p870
sg30
g11
sg814
L3L
sg815
g812
sg817
L3L
sS'block.thisIndex'
p871
I4
sg819
g820
sg821
L0L
sg823
VBUUxy
p872
sa(dp873
S'block.thisTrialN'
p874
I6
sS'block.thisRepN'
p875
I0
sg29
NsS'block.thisN'
p876
I6
sg806
(S'TIMES'
S'DOUBLE'
S'x'
S'y'
tp877
sg27
g28
sg808
L2L
sg809
(I4
I8
tp878
sg22
I1
sg20
F0.78721415420295671
sg23
F1.9924243405403104
sVY
L2L
sVX
L2L
sg811
L0L
sg31
g32
sg33
g34
sg21
S'8'
sg19
S'space'
p879
sg30
g11
sg814
L8L
sg815
g816
sg817
L8L
sS'block.thisIndex'
p880
I1
sg819
VTIMES
p881
sg821
L0L
sg823
VBUxy
p882
sa(dp883
S'block.thisTrialN'
p884
I7
sS'block.thisRepN'
p885
I0
sg29
NsS'block.thisN'
p886
I7
sg806
(S'DOUBLE'
S'DIVIDE'
S'TRIPLE'
S'INCREASE'
S'x'
S'y'
tp887
sg27
g28
sg808
L4L
sg809
(I5
I15
I3
I6
tp888
sg22
I1
sg20
F12.421252792264568
sg23
F6.8859972961654421
sVY
L5L
sVX
L4L
sg811
g812
sg31
g32
sg33
g34
sg21
S'6'
sg19
S'space'
p889
sg30
g11
sg814
L6L
sg815
g861
sg817
L6L
sS'block.thisIndex'
p890
I12
sg819
g816
sg821
g833
sg823
g853
sa(dp891
S'block.thisTrialN'
p892
I8
sS'block.thisRepN'
p893
I0
sg29
NsS'block.thisN'
p894
I8
sg806
(S'DOUBLE'
S'DECREASE'
S'ADD'
S'x'
S'y'
tp895
sg27
g28
sg808
L3L
sg809
(I4
I3
I6
tp896
sg22
I1
sg20
F1.5232485989981797
sg23
F2.2126038647838868
sVY
L2L
sVX
L2L
sg811
g851
sg31
g32
sg33
g34
sg21
S'6'
sg19
S'space'
p897
sg30
g11
sg814
L6L
sg815
g822
sg817
L6L
sS'block.thisIndex'
p898
I8
sg819
g816
sg821
L0L
sg823
VUUBxy
p899
sa(dp900
S'block.thisTrialN'
p901
I9
sS'block.thisRepN'
p902
I0
sg29
NsS'block.thisN'
p903
I9
sg806
(S'DECREASE'
S'TRIPLE'
S'HALF'
S'SUBTRACT'
S'x'
S'y'
tp904
sg27
g28
sg808
L4L
sg809
(I4
I2
I6
I5
tp905
sg22
I1
sg20
F2.3065547110163607
sg23
F4.9363080462499056
sVY
L2L
sVX
L6L
sg811
g849
sg31
g32
sg33
g34
sg21
S'5'
sg19
S'space'
p906
sg30
g11
sg814
L5L
sg815
g812
sg817
L5L
sS'block.thisIndex'
p907
I16
sg819
g822
sg821
g820
sg823
VUUUBxy
p908
sa(dp909
S'block.thisTrialN'
p910
I10
sS'block.thisRepN'
p911
I0
sg29
NsS'block.thisN'
p912
I10
sg806
(S'THIRD'
S'DECREASE'
S'TIMES'
S'HALF'
S'x'
S'y'
tp913
sg27
g28
sg808
L4L
sg809
(I4
I16
I15
I5
tp914
sg22
I1
sg20
F3.9078913615376223
sg23
F6.2798262501310091
sVY
L4L
sVX
L8L
sg811
g881
sg31
g32
sg33
g34
sg21
S'5'
sg19
S'space'
p915
sg30
g11
sg814
L5L
sg815
g822
sg817
L5L
sS'block.thisIndex'
p916
I15
sg819
g863
sg821
g849
sg823
VUUBUxy
p917
sa(dp918
S'block.thisTrialN'
p919
I11
sS'block.thisRepN'
p920
I0
sg29
NsS'block.thisN'
p921
I11
sg806
(S'THIRD'
S'TIMES'
S'HALF'
S'x'
S'y'
tp922
sg27
g28
sg808
L3L
sg809
(I3
I18
I6
tp923
sg22
I1
sg20
F2.0524899726733565
sg23
F5.7619660388445482
sVY
L6L
sVX
L6L
sg811
g849
sg31
g32
sg33
g34
sg21
S'6'
sg19
S'space'
p924
sg30
g11
sg814
L6L
sg815
g881
sg817
L6L
sS'block.thisIndex'
p925
I7
sg819
g863
sg821
L0L
sg823
VUBUxy
p926
sa(dp927
S'block.thisTrialN'
p928
I12
sS'block.thisRepN'
p929
I0
sg29
NsS'block.thisN'
p930
I12
sg806
(S'HALF'
S'TRIPLE'
S'INCREASE'
S'SUBTRACT'
S'x'
S'y'
tp931
sg27
g28
sg808
L4L
sg809
(I1
I2
I6
I3
tp932
sg22
I1
sg20
F3.6326265354000498
sg23
F5.0775102617917582
sVY
L2L
sVX
L3L
sg811
g833
sg31
g32
sg33
g34
sg21
S'3'
sg19
S'space'
p933
sg30
g11
sg814
L3L
sg815
g812
sg817
L3L
sS'block.thisIndex'
p934
I17
sg819
g849
sg821
g820
sg823
g908
sa(dp935
S'block.thisTrialN'
p936
I13
sS'block.thisRepN'
p937
I0
sg29
NsS'block.thisN'
p938
I13
sg806
(S'DECREASE'
S'TRIPLE'
S'DIVIDE'
S'DOUBLE'
S'x'
S'y'
tp939
sg27
g28
sg808
L4L
sg809
(I6
I2
I6
I5
tp940
sg22
I1
sg20
F4.2125478706439026
sg23
F8.9935610219254158
sVY
L3L
sVX
L3L
sg811
g861
sg31
g32
sg33
g34
sg21
S'5'
sg19
S'space'
p941
sg30
g11
sg814
L5L
sg815
g812
sg817
L5L
sS'block.thisIndex'
p942
I14
sg819
g822
sg821
g816
sg823
g917
sa(dp943
S'block.thisTrialN'
p944
I14
sS'block.thisRepN'
p945
I0
sg29
NsS'block.thisN'
p946
I14
sg806
(S'DIVIDE'
S'THIRD'
S'x'
S'y'
tp947
sg27
g28
sg808
L2L
sg809
(I3
I1
tp948
sg22
I1
sg20
F1.7207753371039871
sg23
F2.9662313237495255
sVY
L3L
sVX
L9L
sg811
L0L
sg31
g32
sg33
g34
sg21
S'1'
sg19
S'space'
p949
sg30
g11
sg814
L1L
sg815
g863
sg817
L1L
sS'block.thisIndex'
p950
I0
sg819
g861
sg821
L0L
sg823
g882
sa(dp951
S'block.thisTrialN'
p952
I15
sS'block.thisRepN'
p953
I0
sg29
NsS'block.thisN'
p954
I15
sg806
(S'DOUBLE'
S'THIRD'
S'TIMES'
S'x'
S'y'
tp955
sg27
g28
sg808
L3L
sg809
(I12
I4
I8
tp956
sg22
I1
sg20
F3.7624209913774393
sg23
F8.9334740419872105
sVY
L6L
sVX
L2L
sg811
g881
sg31
g32
sg33
g34
sg21
S'8'
sg19
S'space'
p957
sg30
g11
sg814
L8L
sg815
g863
sg817
L8L
sS'block.thisIndex'
p958
I9
sg819
g816
sg821
L0L
sg823
g899
sa(dp959
S'block.thisTrialN'
p960
I16
sS'block.thisRepN'
p961
I0
sg29
NsS'block.thisN'
p962
I16
sg806
(S'THIRD'
S'DIVIDE'
S'DECREASE'
S'x'
S'y'
tp963
sg27
g28
sg808
L3L
sg809
(I6
I3
I1
tp964
sg22
I1
sg20
F2.7908229776367079
sg23
F5.8250749534345232
sVY
L2L
sVX
L7L
sg811
g822
sg31
g32
sg33
g34
sg21
S'1'
sg19
S'space'
p965
sg30
g11
sg814
L1L
sg815
g861
sg817
L1L
sS'block.thisIndex'
p966
I6
sg819
g863
sg821
L0L
sg823
g926
sa(dp967
S'block.thisTrialN'
p968
I17
sS'block.thisRepN'
p969
I0
sg29
NsS'block.thisN'
p970
I17
sg806
(S'TIMES'
S'HALF'
S'INCREASE'
S'x'
S'y'
tp971
sg27
g28
sg808
L3L
sg809
(I6
I3
I9
tp972
sg22
I1
sg20
F4.115223726403201
sg23
F3.0655492099467665
sVY
L3L
sVX
L5L
sg811
g833
sg31
g32
sg33
g34
sg21
S'9'
sg19
S'space'
p973
sg30
g11
sg814
L9L
sg815
g849
sg817
L9L
sS'block.thisIndex'
p974
I5
sg819
g881
sg821
L0L
sg823
g872
sa(dp975
S'block.thisTrialN'
p976
I0
sS'block.thisRepN'
p977
I0
sg29
NsS'block.thisN'
p978
I0
sVRule
p979
(S'HALF'
S'TRIPLE'
S'INCREASE'
S'DIVIDE'
S'x'
S'y'
tp980
sg27
g28
sVLength
p981
L4L
sVIntermediate
p982
(I3
I4
I12
I6
tp983
sg22
I1
sg20
F2.9173655728809536
sg23
F8.7723354567715432
sVY
L3L
sVX
L9L
sVOperatorc
p984
Vincrease
p985
sg31
g32
sg33
g34
sg21
S'6'
sg19
S'space'
p986
sg30
g11
sVResult
p987
L6L
sVOperatora
p988
Vtriple
p989
sVCorrectResponse
p990
L6L
sS'block.thisIndex'
p991
I16
sVOperatorb
p992
Vhalf
p993
sVOperatord
p994
VDIVIDE
p995
sVStructure
p996
VUUUBxy
p997
sa(dp998
S'block.thisTrialN'
p999
I1
sS'block.thisRepN'
p1000
I0
sg29
NsS'block.thisN'
p1001
I1
sg979
(S'THIRD'
S'DOUBLE'
S'INCREASE'
S'TIMES'
S'x'
S'y'
tp1002
sg27
g28
sg981
L4L
sg982
(I8
I9
I18
I6
tp1003
sg22
I1
sg20
F1.8401174337486736
sg23
F5.474169370427262
sVY
L4L
sVX
L2L
sg984
g985
sg31
g32
sg33
g34
sg21
S'6'
sg19
S'space'
p1004
sg30
g11
sg987
L6L
sg988
Vdouble
p1005
sg990
L6L
sS'block.thisIndex'
p1006
I17
sg992
Vthird
p1007
sg994
VTIMES
p1008
sg996
g997
sa(dp1009
S'block.thisTrialN'
p1010
I2
sS'block.thisRepN'
p1011
I0
sg29
NsS'block.thisN'
p1012
I2
sg979
(S'DIVIDE'
S'INCREASE'
S'x'
S'y'
tp1013
sg27
g28
sg981
L2L
sg982
(I4
I2
tp1014
sg22
I1
sg20
F1.1236676452972461
sg23
F3.2571556158072781
sVY
L2L
sVX
L3L
sg984
L0L
sg31
g32
sg33
g34
sg21
S'2'
sg19
S'space'
p1015
sg30
g11
sg987
L2L
sg988
g985
sg990
L2L
sS'block.thisIndex'
p1016
I0
sg992
g995
sg994
L0L
sg996
VBUxy
p1017
sa(dp1018
S'block.thisTrialN'
p1019
I3
sS'block.thisRepN'
p1020
I0
sg29
NsS'block.thisN'
p1021
I3
sg979
(S'SUBTRACT'
S'DECREASE'
S'TRIPLE'
S'DOUBLE'
S'x'
S'y'
tp1022
sg27
g28
sg981
L4L
sg982
(I6
I18
I17
I8
tp1023
sg22
I1
sg20
F2.8644395457522478
sg23
F18.163957541051786
sVY
L9L
sVX
L3L
sg984
g989
sg31
g32
sg33
g34
sg21
S'8'
sg19
S'space'
p1024
sg30
g11
sg987
L8L
sg988
Vdecrease
p1025
sg990
L8L
sS'block.thisIndex'
p1026
I11
sg992
VSUBTRACT
p1027
sg994
g1005
sg996
VBUUUxy
p1028
sa(dp1029
S'block.thisTrialN'
p1030
I4
sS'block.thisRepN'
p1031
I0
sg29
NsS'block.thisN'
p1032
I4
sg979
(S'DIVIDE'
S'DECREASE'
S'TRIPLE'
S'x'
S'y'
tp1033
sg27
g28
sg981
L3L
sg982
(I9
I8
I4
tp1034
sg22
I1
sg20
F8.5495000596856698
sg23
F4.6000144885038026
sVY
L2L
sVX
L3L
sg984
g989
sg31
g32
sg33
g34
sg21
S'4'
sg19
S'space'
p1035
sg30
g11
sg987
L4L
sg988
g1025
sg990
L4L
sS'block.thisIndex'
p1036
I5
sg992
g995
sg994
L0L
sg996
VBUUxy
p1037
sa(dp1038
S'block.thisTrialN'
p1039
I5
sS'block.thisRepN'
p1040
I0
sg29
NsS'block.thisN'
p1041
I5
sg979
(S'INCREASE'
S'ADD'
S'x'
S'y'
tp1042
sg27
g28
sg981
L2L
sg982
(I5
I6
tp1043
sg22
I1
sg20
F1.2523002224625088
sg23
F2.9838789322238881
sVY
L2L
sVX
L3L
sg984
L0L
sg31
g32
sg33
g34
sg21
S'6'
sg19
S'space'
p1044
sg30
g11
sg987
L6L
sg988
VADD
p1045
sg990
L6L
sS'block.thisIndex'
p1046
I3
sg992
g985
sg994
L0L
sg996
VUBxy
p1047
sa(dp1048
S'block.thisTrialN'
p1049
I6
sS'block.thisRepN'
p1050
I0
sg29
NsS'block.thisN'
p1051
I6
sg979
(S'SUBTRACT'
S'DECREASE'
S'x'
S'y'
tp1052
sg27
g28
sg981
L2L
sg982
(I5
I3
tp1053
sg22
I1
sg20
F1.381700969504891
sg23
F3.8744799980195239
sVY
L2L
sVX
L6L
sg984
L0L
sg31
g32
sg33
g34
sg21
S'3'
sg19
S'space'
p1054
sg30
g11
sg987
L3L
sg988
g1025
sg990
L3L
sS'block.thisIndex'
p1055
I1
sg992
g1027
sg994
L0L
sg996
g1017
sa(dp1056
S'block.thisTrialN'
p1057
I7
sS'block.thisRepN'
p1058
I0
sg29
NsS'block.thisN'
p1059
I7
sg979
(S'ADD'
S'HALF'
S'THIRD'
S'x'
S'y'
tp1060
sg27
g28
sg981
L3L
sg982
(I2
I1
I9
tp1061
sg22
I1
sg20
F8.6134348880732432
sg23
F1.5749445045366883
sVY
L8L
sVX
L6L
sg984
g1007
sg31
g32
sg33
g34
sg21
S'9'
sg19
S'space'
p1062
sg30
g11
sg987
L9L
sg988
g993
sg990
L9L
sS'block.thisIndex'
p1063
I4
sg992
g1045
sg994
L0L
sg996
g1037
sa(dp1064
S'block.thisTrialN'
p1065
I8
sS'block.thisRepN'
p1066
I0
sg29
NsS'block.thisN'
p1067
I8
sg979
(S'HALF'
S'ADD'
S'TRIPLE'
S'x'
S'y'
tp1068
sg27
g28
sg981
L3L
sg982
(I9
I12
I6
tp1069
sg22
I1
sg20
F8.9623869749193545
sg23
F2.8212376038718503
sVY
L3L
sVX
L3L
sg984
g989
sg31
g32
sg33
g34
sg21
S'6'
sg19
S'space'
p1070
sg30
g11
sg987
L6L
sg988
g1045
sg990
L6L
sS'block.thisIndex'
p1071
I6
sg992
g993
sg994
L0L
sg996
VUBUxy
p1072
sa(dp1073
S'block.thisTrialN'
p1074
I9
sS'block.thisRepN'
p1075
I0
sg29
NsS'block.thisN'
p1076
I9
sg979
(S'THIRD'
S'INCREASE'
S'DIVIDE'
S'DOUBLE'
S'x'
S'y'
tp1077
sg27
g28
sg981
L4L
sg982
(I18
I2
I3
I1
tp1078
sg22
I1
sg20
F5.3825090351747349
sg23
F3.7670541578845587
sVY
L9L
sVX
L9L
sg984
g995
sg31
g32
sg33
g34
sg21
S'1'
sg19
S'space'
p1079
sg30
g11
sg987
L1L
sg988
g985
sg990
L1L
sS'block.thisIndex'
p1080
I15
sg992
g1007
sg994
g1005
sg996
VUUBUxy
p1081
sa(dp1082
S'block.thisTrialN'
p1083
I10
sS'block.thisRepN'
p1084
I0
sg29
NsS'block.thisN'
p1085
I10
sg979
(S'INCREASE'
S'TRIPLE'
S'DIVIDE'
S'x'
S'y'
tp1086
sg27
g28
sg981
L3L
sg982
(I2
I6
I7
tp1087
sg22
I1
sg20
F2.0358250616700388
sg23
F3.4164344950695522
sVY
L3L
sVX
L6L
sg984
g995
sg31
g32
sg33
g34
sg21
S'7'
sg19
S'space'
p1088
sg30
g11
sg987
L7L
sg988
g989
sg990
L7L
sS'block.thisIndex'
p1089
I8
sg992
g985
sg994
L0L
sg996
VUUBxy
p1090
sa(dp1091
S'block.thisTrialN'
p1092
I11
sS'block.thisRepN'
p1093
I0
sg29
NsS'block.thisN'
p1094
I11
sg979
(S'THIRD'
S'HALF'
S'ADD'
S'x'
S'y'
tp1095
sg27
g28
sg981
L3L
sg982
(I6
I3
I1
tp1096
sg22
I1
sg20
F3.139915399835445
sg23
F1.9583200493070763
sVY
L3L
sVX
L3L
sg984
g1045
sg31
g32
sg33
g34
sg21
S'1'
sg19
S'space'
p1097
sg30
g11
sg987
L1L
sg988
g993
sg990
L1L
sS'block.thisIndex'
p1098
I9
sg992
g1007
sg994
L0L
sg996
g1090
sa(dp1099
S'block.thisTrialN'
p1100
I12
sS'block.thisRepN'
p1101
I0
sg29
NsS'block.thisN'
p1102
I12
sg979
(S'ADD'
S'DOUBLE'
S'DECREASE'
S'THIRD'
S'x'
S'y'
tp1103
sg27
g28
sg981
L4L
sg982
(I2
I1
I2
I8
tp1104
sg22
I1
sg20
F7.5121365585364401
sg23
F6.2431049319857266
sVY
L6L
sVX
L6L
sg984
g1025
sg31
g32
sg33
g34
sg21
S'8'
sg19
S'space'
p1105
sg30
g11
sg987
L8L
sg988
g1005
sg990
L8L
sS'block.thisIndex'
p1106
I10
sg992
g1045
sg994
g1007
sg996
g1028
sa(dp1107
S'block.thisTrialN'
p1108
I13
sS'block.thisRepN'
p1109
I0
sg29
NsS'block.thisN'
p1110
I13
sg979
(S'DECREASE'
S'DIVIDE'
S'x'
S'y'
tp1111
sg27
g28
sg981
L2L
sg982
(I2
I1
tp1112
sg22
I1
sg20
F1.5051782346563414
sg23
F1.7188795849215239
sVY
L4L
sVX
L8L
sg984
L0L
sg31
g32
sg33
g34
sg21
S'1'
sg19
S'space'
p1113
sg30
g11
sg987
L1L
sg988
g995
sg990
L1L
sS'block.thisIndex'
p1114
I2
sg992
g1025
sg994
L0L
sg996
g1047
sa(dp1115
S'block.thisTrialN'
p1116
I14
sS'block.thisRepN'
p1117
I0
sg29
NsS'block.thisN'
p1118
I14
sg979
(S'THIRD'
S'TIMES'
S'DOUBLE'
S'DECREASE'
S'x'
S'y'
tp1119
sg27
g28
sg981
L4L
sg982
(I1
I2
I6
I2
tp1120
sg22
I0
sg20
F17.013442097319057
sg23
F5.6526388471538667
sVY
L3L
sVX
L2L
sg984
g1005
sg31
g32
sg33
g34
sg21
S'5'
sg19
S'space'
p1121
sg30
g11
sg987
L2L
sg988
g1008
sg990
L2L
sS'block.thisIndex'
p1122
I13
sg992
g1007
sg994
g1025
sg996
VUBUUxy
p1123
sa(dp1124
S'block.thisTrialN'
p1125
I15
sS'block.thisRepN'
p1126
I0
sg29
NsS'block.thisN'
p1127
I15
sg979
(S'DOUBLE'
S'ADD'
S'INCREASE'
S'THIRD'
S'x'
S'y'
tp1128
sg27
g28
sg981
L4L
sg982
(I1
I2
I4
I8
tp1129
sg22
I1
sg20
F5.5756983258761466
sg23
F5.0431102514266968
sVY
L2L
sVX
L3L
sg984
g985
sg31
g32
sg33
g34
sg21
S'8'
sg19
S'space'
p1130
sg30
g11
sg987
L8L
sg988
g1045
sg990
L8L
sS'block.thisIndex'
p1131
I12
sg992
g1005
sg994
g1007
sg996
g1123
sa(dp1132
S'block.thisTrialN'
p1133
I16
sS'block.thisRepN'
p1134
I0
sg29
NsS'block.thisN'
p1135
I16
sg979
(S'INCREASE'
S'SUBTRACT'
S'HALF'
S'x'
S'y'
tp1136
sg27
g28
sg981
L3L
sg982
(I4
I2
I3
tp1137
sg22
I1
sg20
F2.7428289857925847
sg23
F2.5144869132782333
sVY
L2L
sVX
L8L
sg984
g993
sg31
g32
sg33
g34
sg21
S'3'
sg19
S'space'
p1138
sg30
g11
sg987
L3L
sg988
g1027
sg990
L3L
sS'block.thisIndex'
p1139
I7
sg992
g985
sg994
L0L
sg996
g1072
sa(dp1140
S'block.thisTrialN'
p1141
I17
sS'block.thisRepN'
p1142
I0
sg29
NsS'block.thisN'
p1143
I17
sg979
(S'THIRD'
S'DOUBLE'
S'ADD'
S'DECREASE'
S'x'
S'y'
tp1144
sg27
g28
sg981
L4L
sg982
(I5
I12
I24
I8
tp1145
sg22
I1
sg20
F11.459434857970336
sg23
F6.7922270311100874
sVY
L7L
sVX
L6L
sg984
g1045
sg31
g32
sg33
g34
sg21
S'8'
sg19
S'space'
p1146
sg30
g11
sg987
L8L
sg988
g1005
sg990
L8L
sS'block.thisIndex'
p1147
I14
sg992
g1007
sg994
g1025
sg996
g1081
sa(dp1148
S'block.thisTrialN'
p1149
I0
sS'block.thisRepN'
p1150
I0
sg29
NsS'block.thisN'
p1151
I0
sVRule
p1152
(S'TRIPLE'
S'INCREASE'
S'DIVIDE'
S'DOUBLE'
S'x'
S'y'
tp1153
sg27
g28
sVLength
p1154
L4L
sVIntermediate
p1155
(I16
I2
I3
I9
tp1156
sg22
I1
sg20
F2.9923151519324165
sg23
F4.8665260279958602
sVY
L8L
sVX
L8L
sVOperatorc
p1157
VDIVIDE
p1158
sg31
g32
sg33
g34
sg21
S'9'
sg19
S'space'
p1159
sg30
g11
sVResult
p1160
L9L
sVOperatora
p1161
Vincrease
p1162
sVCorrectResponse
p1163
L9L
sS'block.thisIndex'
p1164
I15
sVOperatorb
p1165
Vtriple
p1166
sVOperatord
p1167
Vdouble
p1168
sVStructure
p1169
VUUBUxy
p1170
sa(dp1171
S'block.thisTrialN'
p1172
I1
sS'block.thisRepN'
p1173
I0
sg29
NsS'block.thisN'
p1174
I1
sg1152
(S'INCREASE'
S'DIVIDE'
S'TRIPLE'
S'x'
S'y'
tp1175
sg27
g28
sg1154
L3L
sg1155
(I6
I2
I3
tp1176
sg22
I1
sg20
F1.2841423497302458
sg23
F3.142465583718149
sVY
L3L
sVX
L2L
sg1157
g1166
sg31
g32
sg33
g34
sg21
S'3'
sg19
S'space'
p1177
sg30
g11
sg1160
L3L
sg1161
g1158
sg1163
L3L
sS'block.thisIndex'
p1178
I7
sg1165
g1162
sg1167
L0L
sg1169
VUBUxy
p1179
sa(dp1180
S'block.thisTrialN'
p1181
I2
sS'block.thisRepN'
p1182
I0
sg29
NsS'block.thisN'
p1183
I2
sg1152
(S'TIMES'
S'HALF'
S'INCREASE'
S'THIRD'
S'x'
S'y'
tp1184
sg27
g28
sg1154
L4L
sg1155
(I1
I2
I1
I9
tp1185
sg22
I1
sg20
F3.6985264087852556
sg23
F9.6377188540354837
sVY
L9L
sVX
L3L
sg1157
g1162
sg31
g32
sg33
g34
sg21
S'9'
sg19
S'space'
p1186
sg30
g11
sg1160
L9L
sg1161
Vhalf
p1187
sg1163
L9L
sS'block.thisIndex'
p1188
I11
sg1165
VTIMES
p1189
sg1167
Vthird
p1190
sg1169
VBUUUxy
p1191
sa(dp1192
S'block.thisTrialN'
p1193
I3
sS'block.thisRepN'
p1194
I0
sg29
NsS'block.thisN'
p1195
I3
sg1152
(S'SUBTRACT'
S'TRIPLE'
S'x'
S'y'
tp1196
sg27
g28
sg1154
L2L
sg1155
(I12
I9
tp1197
sg22
I1
sg20
F2.246748751756968
sg23
F2.4898627828224562
sVY
L3L
sVX
L4L
sg1157
L0L
sg31
g32
sg33
g34
sg21
S'9'
sg19
S'space'
p1198
sg30
g11
sg1160
L9L
sg1161
g1166
sg1163
L9L
sS'block.thisIndex'
p1199
I1
sg1165
VSUBTRACT
p1200
sg1167
L0L
sg1169
VBUxy
p1201
sa(dp1202
S'block.thisTrialN'
p1203
I4
sS'block.thisRepN'
p1204
I0
sg29
NsS'block.thisN'
p1205
I4
sg1152
(S'INCREASE'
S'TIMES'
S'TRIPLE'
S'HALF'
S'x'
S'y'
tp1206
sg27
g28
sg1154
L4L
sg1155
(I1
I3
I6
I7
tp1207
sg22
I1
sg20
F5.8891669154400006
sg23
F4.8564544289838523
sVY
L2L
sVX
L2L
sg1157
g1166
sg31
g32
sg33
g34
sg21
S'7'
sg19
S'space'
p1208
sg30
g11
sg1160
L7L
sg1161
g1189
sg1163
L7L
sS'block.thisIndex'
p1209
I13
sg1165
g1162
sg1167
g1187
sg1169
VUBUUxy
p1210
sa(dp1211
S'block.thisTrialN'
p1212
I5
sS'block.thisRepN'
p1213
I0
sg29
NsS'block.thisN'
p1214
I5
sg1152
(S'INCREASE'
S'DIVIDE'
S'x'
S'y'
tp1215
sg27
g28
sg1154
L2L
sg1155
(I4
I5
tp1216
sg22
I1
sg20
F1.4118286256853025
sg23
F3.1111323033401277
sVY
L2L
sVX
L8L
sg1157
L0L
sg31
g32
sg33
g34
sg21
S'5'
sg19
S'space'
p1217
sg30
g11
sg1160
L5L
sg1161
g1158
sg1163
L5L
sS'block.thisIndex'
p1218
I3
sg1165
g1162
sg1167
L0L
sg1169
VUBxy
p1219
sa(dp1220
S'block.thisTrialN'
p1221
I6
sS'block.thisRepN'
p1222
I0
sg29
NsS'block.thisN'
p1223
I6
sg1152
(S'DOUBLE'
S'DIVIDE'
S'x'
S'y'
tp1224
sg27
g28
sg1154
L2L
sg1155
(I1
I2
tp1225
sg22
I1
sg20
F1.1536143703560811
sg23
F1.4806478943792172
sVY
L8L
sVX
L8L
sg1157
L0L
sg31
g32
sg33
g34
sg21
S'2'
sg19
S'space'
p1226
sg30
g11
sg1160
L2L
sg1161
g1158
sg1163
L2L
sS'block.thisIndex'
p1227
I2
sg1165
g1168
sg1167
L0L
sg1169
g1219
sa(dp1228
S'block.thisTrialN'
p1229
I7
sS'block.thisRepN'
p1230
I0
sg29
NsS'block.thisN'
p1231
I7
sg1152
(S'DIVIDE'
S'DOUBLE'
S'INCREASE'
S'TRIPLE'
S'x'
S'y'
tp1232
sg27
g28
sg1154
L4L
sg1155
(I9
I10
I20
I5
tp1233
sg22
I1
sg20
F3.7322810864716303
sg23
F12.274820372491376
sVY
L4L
sVX
L3L
sg1157
g1162
sg31
g32
sg33
g34
sg21
S'5'
sg19
S'space'
p1234
sg30
g11
sg1160
L5L
sg1161
g1168
sg1163
L5L
sS'block.thisIndex'
p1235
I10
sg1165
g1158
sg1167
g1166
sg1169
g1191
sa(dp1236
S'block.thisTrialN'
p1237
I8
sS'block.thisRepN'
p1238
I0
sg29
NsS'block.thisN'
p1239
I8
sg1152
(S'TRIPLE'
S'DOUBLE'
S'SUBTRACT'
S'INCREASE'
S'x'
S'y'
tp1240
sg27
g28
sg1154
L4L
sg1155
(I5
I1
I2
I6
tp1241
sg22
I1
sg20
F5.1412718582723755
sg23
F4.3752882386615966
sVY
L4L
sVX
L4L
sg1157
g1200
sg31
g32
sg33
g34
sg21
S'6'
sg19
S'space'
p1242
sg30
g11
sg1160
L6L
sg1161
g1168
sg1163
L6L
sS'block.thisIndex'
p1243
I14
sg1165
g1166
sg1167
g1162
sg1169
g1170
sa(dp1244
S'block.thisTrialN'
p1245
I9
sS'block.thisRepN'
p1246
I0
sg29
NsS'block.thisN'
p1247
I9
sg1152
(S'DECREASE'
S'THIRD'
S'DOUBLE'
S'ADD'
S'x'
S'y'
tp1248
sg27
g28
sg1154
L4L
sg1155
(I9
I18
I6
I5
tp1249
sg22
I1
sg20
F4.4328862783149816
sg23
F11.203783735167235
sVY
L4L
sVX
L5L
sg1157
g1168
sg31
g32
sg33
g34
sg21
S'5'
sg19
S'space'
p1250
sg30
g11
sg1160
L5L
sg1161
g1190
sg1163
L5L
sS'block.thisIndex'
p1251
I16
sg1165
Vdecrease
p1252
sg1167
VADD
p1253
sg1169
VUUUBxy
p1254
sa(dp1255
S'block.thisTrialN'
p1256
I10
sS'block.thisRepN'
p1257
I0
sg29
NsS'block.thisN'
p1258
I10
sg1152
(S'THIRD'
S'INCREASE'
S'HALF'
S'TIMES'
S'x'
S'y'
tp1259
sg27
g28
sg1154
L4L
sg1155
(I28
I14
I15
I5
tp1260
sg22
I0
sg20
F4.7555389594926964
sVY
L4L
sVX
L7L
sg1157
g1187
sg31
g32
sg33
g34
sg21
Nsg19
S'space'
p1261
sg30
g11
sg1160
L5L
sg1161
g1162
sg1163
L5L
sS'block.thisIndex'
p1262
I17
sg1165
g1190
sg1167
g1189
sg1169
g1254
sa(dp1263
S'block.thisTrialN'
p1264
I11
sS'block.thisRepN'
p1265
I0
sg29
NsS'block.thisN'
p1266
I11
sg1152
(S'TRIPLE'
S'INCREASE'
S'SUBTRACT'
S'x'
S'y'
tp1267
sg27
g28
sg1154
L3L
sg1155
(I1
I2
I6
tp1268
sg22
I1
sg20
F3.6579078973154537
sg23
F4.4363120708148926
sVY
L2L
sVX
L3L
sg1157
g1200
sg31
g32
sg33
g34
sg21
S'6'
sg19
S'space'
p1269
sg30
g11
sg1160
L6L
sg1161
g1162
sg1163
L6L
sS'block.thisIndex'
p1270
I9
sg1165
g1166
sg1167
L0L
sg1169
VUUBxy
p1271
sa(dp1272
S'block.thisTrialN'
p1273
I12
sS'block.thisRepN'
p1274
I0
sg29
NsS'block.thisN'
p1275
I12
sg1152
(S'ADD'
S'HALF'
S'x'
S'y'
tp1276
sg27
g28
sg1154
L2L
sg1155
(I2
I7
tp1277
sg22
I1
sg20
F1.5542718117358163
sg23
F3.1463039831724018
sVY
L5L
sVX
L4L
sg1157
L0L
sg31
g32
sg33
g34
sg21
S'7'
sg19
S'space'
p1278
sg30
g11
sg1160
L7L
sg1161
g1187
sg1163
L7L
sS'block.thisIndex'
p1279
I0
sg1165
g1253
sg1167
L0L
sg1169
g1201
sa(dp1280
S'block.thisTrialN'
p1281
I13
sS'block.thisRepN'
p1282
I0
sg29
NsS'block.thisN'
p1283
I13
sg1152
(S'HALF'
S'SUBTRACT'
S'DECREASE'
S'TRIPLE'
S'x'
S'y'
tp1284
sg27
g28
sg1154
L4L
sg1155
(I15
I14
I10
I5
tp1285
sg22
I1
sg20
F7.2022806419990957
sg23
F5.2708692847809289
sVY
L4L
sVX
L5L
sg1157
g1252
sg31
g32
sg33
g34
sg21
S'5'
sg19
S'space'
p1286
sg30
g11
sg1160
L5L
sg1161
g1200
sg1163
L5L
sS'block.thisIndex'
p1287
I12
sg1165
g1187
sg1167
g1166
sg1169
g1210
sa(dp1288
S'block.thisTrialN'
p1289
I14
sS'block.thisRepN'
p1290
I0
sg29
NsS'block.thisN'
p1291
I14
sg1152
(S'HALF'
S'TIMES'
S'DECREASE'
S'x'
S'y'
tp1292
sg27
g28
sg1154
L3L
sg1155
(I8
I16
I8
tp1293
sg22
I1
sg20
F3.9240740228851791
sg23
F3.5892632603936363
sVY
L2L
sVX
L9L
sg1157
g1252
sg31
g32
sg33
g34
sg21
S'8'
sg19
S'space'
p1294
sg30
g11
sg1160
L8L
sg1161
g1189
sg1163
L8L
sS'block.thisIndex'
p1295
I6
sg1165
g1187
sg1167
L0L
sg1169
g1179
sa(dp1296
S'block.thisTrialN'
p1297
I15
sS'block.thisRepN'
p1298
I0
sg29
NsS'block.thisN'
p1299
I15
sg1152
(S'TRIPLE'
S'HALF'
S'ADD'
S'x'
S'y'
tp1300
sg27
g28
sg1154
L3L
sg1155
(I6
I3
I9
tp1301
sg22
I1
sg20
F1.2340205799555406
sg23
F5.3160807169915643
sVY
L3L
sVX
L3L
sg1157
g1253
sg31
g32
sg33
g34
sg21
S'9'
sg19
S'space'
p1302
sg30
g11
sg1160
L9L
sg1161
g1187
sg1163
L9L
sS'block.thisIndex'
p1303
I8
sg1165
g1166
sg1167
L0L
sg1169
g1271
sa(dp1304
S'block.thisTrialN'
p1305
I16
sS'block.thisRepN'
p1306
I0
sg29
NsS'block.thisN'
p1307
I16
sg1152
(S'DIVIDE'
S'TRIPLE'
S'DECREASE'
S'x'
S'y'
tp1308
sg27
g28
sg1154
L3L
sg1155
(I6
I18
I9
tp1309
sg22
I1
sg20
F4.5605064111587126
sg23
F5.5921039139502682
sVY
L2L
sVX
L7L
sg1157
g1252
sg31
g32
sg33
g34
sg21
S'9'
sg19
S'space'
p1310
sg30
g11
sg1160
L9L
sg1161
g1166
sg1163
L9L
sS'block.thisIndex'
p1311
I4
sg1165
g1158
sg1167
L0L
sg1169
VBUUxy
p1312
sa(dp1313
S'block.thisTrialN'
p1314
I17
sS'block.thisRepN'
p1315
I0
sg29
NsS'block.thisN'
p1316
I17
sg1152
(S'SUBTRACT'
S'INCREASE'
S'HALF'
S'x'
S'y'
tp1317
sg27
g28
sg1154
L3L
sg1155
(I4
I5
I3
tp1318
sg22
I1
sg20
F1.7620650785102043
sg23
F3.3483847960596904
sVY
L2L
sVX
L8L
sg1157
g1187
sg31
g32
sg33
g34
sg21
S'3'
sg19
S'space'
p1319
sg30
g11
sg1160
L3L
sg1161
g1162
sg1163
L3L
sS'block.thisIndex'
p1320
I5
sg1165
g1200
sg1167
L0L
sg1169
g1312
sa(dp1321
S'block.thisTrialN'
p1322
I0
sS'block.thisRepN'
p1323
I0
sg29
NsS'block.thisN'
p1324
I0
sVRule
p1325
(S'ADD'
S'THIRD'
S'x'
S'y'
tp1326
sg27
g28
sVLength
p1327
L2L
sVIntermediate
p1328
(I1
I7
tp1329
sg22
I1
sg20
F1.2067087299365085
sg23
F1.5571331131795887
sVY
L6L
sVX
L3L
sVOperatorc
p1330
L0L
sg31
g32
sg33
g34
sg21
S'7'
sg19
S'space'
p1331
sg30
g11
sVResult
p1332
L7L
sVOperatora
p1333
Vthird
p1334
sVCorrectResponse
p1335
L7L
sS'block.thisIndex'
p1336
I0
sVOperatorb
p1337
VADD
p1338
sVOperatord
p1339
L0L
sVStructure
p1340
VBUxy
p1341
sa(dp1342
S'block.thisTrialN'
p1343
I1
sS'block.thisRepN'
p1344
I0
sg29
NsS'block.thisN'
p1345
I1
sg1325
(S'TIMES'
S'THIRD'
S'DOUBLE'
S'x'
S'y'
tp1346
sg27
g28
sg1327
L3L
sg1328
(I6
I2
I4
tp1347
sg22
I1
sg20
F1.095264959090855
sg23
F3.7336966887523886
sVY
L2L
sVX
L3L
sg1330
Vdouble
p1348
sg31
g32
sg33
g34
sg21
S'4'
sg19
S'space'
p1349
sg30
g11
sg1332
L4L
sg1333
g1334
sg1335
L4L
sS'block.thisIndex'
p1350
I5
sg1337
VTIMES
p1351
sg1339
L0L
sg1340
VBUUxy
p1352
sa(dp1353
S'block.thisTrialN'
p1354
I2
sS'block.thisRepN'
p1355
I0
sg29
NsS'block.thisN'
p1356
I2
sg1325
(S'DECREASE'
S'TRIPLE'
S'HALF'
S'ADD'
S'x'
S'y'
tp1357
sg27
g28
sg1327
L4L
sg1328
(I6
I3
I9
I8
tp1358
sg22
I1
sg20
F1.7971002725826111
sg23
F4.3252889560826588
sVY
L2L
sVX
L4L
sg1330
Vhalf
p1359
sg31
g32
sg33
g34
sg21
S'8'
sg19
S'space'
p1360
sg30
g11
sg1332
L8L
sg1333
Vtriple
p1361
sg1335
L8L
sS'block.thisIndex'
p1362
I16
sg1337
Vdecrease
p1363
sg1339
g1338
sg1340
VUUUBxy
p1364
sa(dp1365
S'block.thisTrialN'
p1366
I3
sS'block.thisRepN'
p1367
I0
sg29
NsS'block.thisN'
p1368
I3
sg1325
(S'INCREASE'
S'SUBTRACT'
S'THIRD'
S'x'
S'y'
tp1369
sg27
g28
sg1327
L3L
sg1328
(I3
I1
I2
tp1370
sg22
I1
sg20
F2.2475610170222353
sg23
F6.8826561948226299
sVY
L2L
sVX
L9L
sg1330
g1334
sg31
g32
sg33
g34
sg21
S'2'
sg19
S'space'
p1371
sg30
g11
sg1332
L2L
sg1333
VSUBTRACT
p1372
sg1335
L2L
sS'block.thisIndex'
p1373
I7
sg1337
Vincrease
p1374
sg1339
L0L
sg1340
VUBUxy
p1375
sa(dp1376
S'block.thisTrialN'
p1377
I4
sS'block.thisRepN'
p1378
I0
sg29
NsS'block.thisN'
p1379
I4
sg1325
(S'THIRD'
S'TIMES'
S'HALF'
S'INCREASE'
S'x'
S'y'
tp1380
sg27
g28
sg1327
L4L
sg1328
(I8
I4
I12
I4
tp1381
sg22
I1
sg20
F1.4950943869189359
sg23
F5.0169193344481755
sVY
L3L
sVX
L7L
sg1330
g1359
sg31
g32
sg33
g34
sg21
S'4'
sg19
S'space'
p1382
sg30
g11
sg1332
L4L
sg1333
g1351
sg1335
L4L
sS'block.thisIndex'
p1383
I13
sg1337
g1334
sg1339
g1374
sg1340
VUBUUxy
p1384
sa(dp1385
S'block.thisTrialN'
p1386
I5
sS'block.thisRepN'
p1387
I0
sg29
NsS'block.thisN'
p1388
I5
sg1325
(S'DIVIDE'
S'DOUBLE'
S'INCREASE'
S'THIRD'
S'x'
S'y'
tp1389
sg27
g28
sg1327
L4L
sg1328
(I2
I3
I6
I2
tp1390
sg22
I1
sg20
F2.9294550613558386
sg23
F5.5219316864386201
sVY
L3L
sVX
L6L
sg1330
g1374
sg31
g32
sg33
g34
sg21
S'2'
sg19
S'space'
p1391
sg30
g11
sg1332
L2L
sg1333
g1348
sg1335
L2L
sS'block.thisIndex'
p1392
I10
sg1337
VDIVIDE
p1393
sg1339
g1334
sg1340
VBUUUxy
p1394
sa(dp1395
S'block.thisTrialN'
p1396
I6
sS'block.thisRepN'
p1397
I0
sg29
NsS'block.thisN'
p1398
I6
sg1325
(S'TRIPLE'
S'DECREASE'
S'HALF'
S'SUBTRACT'
S'x'
S'y'
tp1399
sg27
g28
sg1327
L4L
sg1328
(I4
I2
I1
I3
tp1400
sg22
I1
sg20
F2.2128656374698039
sg23
F4.8860417415271513
sVY
L5L
sVX
L9L
sg1330
g1359
sg31
g32
sg33
g34
sg21
S'3'
sg19
S'space'
p1401
sg30
g11
sg1332
L3L
sg1333
g1363
sg1335
L3L
sS'block.thisIndex'
p1402
I17
sg1337
g1361
sg1339
g1372
sg1340
g1364
sa(dp1403
S'block.thisTrialN'
p1404
I7
sS'block.thisRepN'
p1405
I0
sg29
NsS'block.thisN'
p1406
I7
sg1325
(S'DOUBLE'
S'TIMES'
S'x'
S'y'
tp1407
sg27
g28
sg1327
L2L
sg1328
(I4
I8
tp1408
sg22
I1
sg20
F0.70868829835671932
sg23
F2.3872279427596368
sVY
L2L
sVX
L2L
sg1330
L0L
sg31
g32
sg33
g34
sg21
S'8'
sg19
S'space'
p1409
sg30
g11
sg1332
L8L
sg1333
g1351
sg1335
L8L
sS'block.thisIndex'
p1410
I3
sg1337
g1348
sg1339
L0L
sg1340
VUBxy
p1411
sa(dp1412
S'block.thisTrialN'
p1413
I8
sS'block.thisRepN'
p1414
I0
sg29
NsS'block.thisN'
p1415
I8
sg1325
(S'INCREASE'
S'ADD'
S'TRIPLE'
S'x'
S'y'
tp1416
sg27
g28
sg1327
L3L
sg1328
(I6
I8
I9
tp1417
sg22
I1
sg20
F1.8779306379437912
sg23
F3.7490138904249761
sVY
L2L
sVX
L2L
sg1330
g1361
sg31
g32
sg33
g34
sg21
S'9'
sg19
S'space'
p1418
sg30
g11
sg1332
L9L
sg1333
g1338
sg1335
L9L
sS'block.thisIndex'
p1419
I6
sg1337
g1374
sg1339
L0L
sg1340
g1375
sa(dp1420
S'block.thisTrialN'
p1421
I9
sS'block.thisRepN'
p1422
I0
sg29
NsS'block.thisN'
p1423
I9
sg1325
(S'DECREASE'
S'TRIPLE'
S'DIVIDE'
S'x'
S'y'
tp1424
sg27
g28
sg1327
L3L
sg1328
(I2
I6
I5
tp1425
sg22
I1
sg20
F1.5265512043843046
sg23
F4.3568994075467344
sVY
L4L
sVX
L8L
sg1330
g1393
sg31
g32
sg33
g34
sg21
S'5'
sg19
S'space'
p1426
sg30
g11
sg1332
L5L
sg1333
g1361
sg1335
L5L
sS'block.thisIndex'
p1427
I8
sg1337
g1363
sg1339
L0L
sg1340
VUUBxy
p1428
sa(dp1429
S'block.thisTrialN'
p1430
I10
sS'block.thisRepN'
p1431
I0
sg29
NsS'block.thisN'
p1432
I10
sg1325
(S'THIRD'
S'INCREASE'
S'ADD'
S'DOUBLE'
S'x'
S'y'
tp1433
sg27
g28
sg1327
L4L
sg1328
(I16
I20
I21
I7
tp1434
sg22
I1
sg20
F2.5541647229110822
sg23
F8.112472313514445
sVY
L4L
sVX
L8L
sg1330
g1338
sg31
g32
sg33
g34
sg21
S'7'
sg19
S'space'
p1435
sg30
g11
sg1332
L7L
sg1333
g1374
sg1335
L7L
sS'block.thisIndex'
p1436
I14
sg1337
g1334
sg1339
g1348
sg1340
VUUBUxy
p1437
sa(dp1438
S'block.thisTrialN'
p1439
I11
sS'block.thisRepN'
p1440
I0
sg29
NsS'block.thisN'
p1441
I11
sg1325
(S'INCREASE'
S'DIVIDE'
S'TRIPLE'
S'HALF'
S'x'
S'y'
tp1442
sg27
g28
sg1327
L4L
sg1328
(I2
I6
I2
I3
tp1443
sg22
I1
sg20
F1.8796797553950455
sg23
F5.2683089519559871
sVY
L3L
sVX
L4L
sg1330
g1361
sg31
g32
sg33
g34
sg21
S'3'
sg19
S'space'
p1444
sg30
g11
sg1332
L3L
sg1333
g1393
sg1335
L3L
sS'block.thisIndex'
p1445
I12
sg1337
g1374
sg1339
g1359
sg1340
g1384
sa(dp1446
S'block.thisTrialN'
p1447
I12
sS'block.thisRepN'
p1448
I0
sg29
NsS'block.thisN'
p1449
I12
sg1325
(S'TIMES'
S'INCREASE'
S'HALF'
S'TRIPLE'
S'x'
S'y'
tp1450
sg27
g28
sg1327
L4L
sg1328
(I6
I3
I4
I8
tp1451
sg22
I1
sg20
F1.7009765031107236
sg23
F9.5262477860378567
sVY
L2L
sVX
L2L
sg1330
g1359
sg31
g32
sg33
g34
sg21
S'8'
sg19
S'space'
p1452
sg30
g11
sg1332
L8L
sg1333
g1374
sg1335
L8L
sS'block.thisIndex'
p1453
I11
sg1337
g1351
sg1339
g1361
sg1340
g1394
sa(dp1454
S'block.thisTrialN'
p1455
I13
sS'block.thisRepN'
p1456
I0
sg29
NsS'block.thisN'
p1457
I13
sg1325
(S'SUBTRACT'
S'INCREASE'
S'x'
S'y'
tp1458
sg27
g28
sg1327
L2L
sg1328
(I6
I2
tp1459
sg22
I1
sg20
F0.66197482292773202
sg23
F1.876960539171705
sVY
L4L
sVX
L5L
sg1330
L0L
sg31
g32
sg33
g34
sg21
S'2'
sg19
S'space'
p1460
sg30
g11
sg1332
L2L
sg1333
g1374
sg1335
L2L
sS'block.thisIndex'
p1461
I1
sg1337
g1372
sg1339
L0L
sg1340
g1341
sa(dp1462
S'block.thisTrialN'
p1463
I14
sS'block.thisRepN'
p1464
I0
sg29
NsS'block.thisN'
p1465
I14
sg1325
(S'DIVIDE'
S'TRIPLE'
S'HALF'
S'x'
S'y'
tp1466
sg27
g28
sg1327
L3L
sg1328
(I4
I12
I4
tp1467
sg22
I1
sg20
F1.4273355075274594
sg23
F5.9717838443466462
sVY
L3L
sVX
L8L
sg1330
g1359
sg31
g32
sg33
g34
sg21
S'4'
sg19
S'space'
p1468
sg30
g11
sg1332
L4L
sg1333
g1361
sg1335
L4L
sS'block.thisIndex'
p1469
I4
sg1337
g1393
sg1339
L0L
sg1340
g1352
sa(dp1470
S'block.thisTrialN'
p1471
I15
sS'block.thisRepN'
p1472
I0
sg29
NsS'block.thisN'
p1473
I15
sg1325
(S'DOUBLE'
S'ADD'
S'x'
S'y'
tp1474
sg27
g28
sg1327
L2L
sg1328
(I4
I8
tp1475
sg22
I1
sg20
F0.65980259960633703
sg23
F4.0701550793310162
sVY
L2L
sVX
L2L
sg1330
L0L
sg31
g32
sg33
g34
sg21
S'8'
sg19
S'space'
p1476
sg30
g11
sg1332
L8L
sg1333
g1338
sg1335
L8L
sS'block.thisIndex'
p1477
I2
sg1337
g1348
sg1339
L0L
sg1340
g1411
sa(dp1478
S'block.thisTrialN'
p1479
I16
sS'block.thisRepN'
p1480
I0
sg29
NsS'block.thisN'
p1481
I16
sg1325
(S'TRIPLE'
S'DOUBLE'
S'SUBTRACT'
S'DECREASE'
S'x'
S'y'
tp1482
sg27
g28
sg1327
L4L
sg1328
(I4
I1
I2
I6
tp1483
sg22
I1
sg20
F5.2986367872508708
sg23
F4.9791491757787298
sVY
L3L
sVX
L5L
sg1330
g1372
sg31
g32
sg33
g34
sg21
S'6'
sg19
S'space'
p1484
sg30
g11
sg1332
L6L
sg1333
g1348
sg1335
L6L
sS'block.thisIndex'
p1485
I15
sg1337
g1361
sg1339
g1363
sg1340
g1437
sa(dp1486
S'block.thisTrialN'
p1487
I17
sS'block.thisRepN'
p1488
I0
sg29
NsS'block.thisN'
p1489
I17
sg1325
(S'THIRD'
S'INCREASE'
S'SUBTRACT'
S'x'
S'y'
tp1490
sg27
g28
sg1327
L3L
sg1328
(I2
I3
I1
tp1491
sg22
I1
sg20
F3.8656682675355114
sg23
F4.4208174376981333
sVY
L6L
sVX
L8L
sg1330
g1372
sg31
g32
sg33
g34
sg21
S'1'
sg19
S'space'
p1492
sg30
g11
sg1332
L1L
sg1333
g1374
sg1335
L1L
sS'block.thisIndex'
p1493
I9
sg1337
g1334
sg1339
L0L
sg1340
g1428
sasS'loops'
p1494
(lp1495
g1
(cpsychopy.data
TrialHandler
p1496
g3
NtRp1497
(dp1498
S'origin'
p1499
NsS'thisTrial'
p1500
(lp1501
sS'_exp'
p1502
I327812048
sg10
S'practice_trials'
p1503
sg6
S'C:\\Users\\experimenter\\Desktop\\Experiments\\KRITL\\2. kritl_experimenter.py'
p1504
sS'thisRepN'
p1505
I1
sg24
I01
sg25
g26
sS'data'
p1506
g1
(cpsychopy.data
DataHandler
p1507
c__builtin__
dict
p1508
(dp1509
g15
cnumpy.core.multiarray
_reconstruct
p1510
(cnumpy
ndarray
p1511
(I0
tS'b'
tRp1512
(I1
(I6
I1
tcnumpy
dtype
p1513
(S'O4'
I0
I1
tRp1514
(I3
S'|'
NNNI-1
I-1
I63
tbI00
(lp1515
(lp1516
F1.7365481911983807
aa(lp1517
F6.7960265846340917
aa(lp1518
F2.1723083696269896
aa(lp1519
F6.6335850853938609
aa(lp1520
F10.617497614119202
aa(lp1521
F13.145762589672813
aatbsg16
g1510
(g1511
(I0
tS'b'
tRp1522
(I1
(I6
I1
tg1514
I00
(lp1523
S'7'
aS'8'
aS'7'
aNaS'3'
aS'9'
atbsS'ran'
p1524
cnumpy.ma.core
_mareconstruct
p1525
(cnumpy.ma.core
MaskedArray
p1526
g1511
(I0
tp1527
S'b'
tRp1528
(I1
(I6
I1
tg1513
(S'f4'
I0
I1
tRp1529
(I3
S'<'
NNNI-1
I-1
I0
tbI00
S'\x00\x00\x80?\x00\x00\x80?\x00\x00\x80?\x00\x00\x80?\x00\x00\x80?\x00\x00\x80?'
S'\x00\x00\x00\x00\x00\x00'
Ntbsg18
g1525
(g1526
g1511
g1527
S'b'
tRp1530
(I1
(I6
I1
tg1529
I00
S'\x05\xfb\xf9?\xb0\xbd\x83@Hh\xee?\x00\x00\x00\x00\xa7\x1bs@i\xd8\xb2@'
S'\x00\x00\x00\x01\x00\x00'
Ntbsg14
g1510
(g1511
(I0
tS'b'
tRp1531
(I1
(I6
I1
tg1514
I00
(lp1532
(lp1533
g108
aa(lp1534
g80
aa(lp1535
g88
aa(lp1536
g66
aa(lp1537
g116
aa(lp1538
g100
aatbsS'order'
p1539
g1525
(g1526
g1511
g1527
S'b'
tRp1540
(I1
(I6
I1
tg1529
I00
S'\x00\x00\x80@\x00\x00\x80?\x00\x00\x00@\x00\x00\x00\x00\x00\x00\xa0@\x00\x00@@'
S'\x00\x00\x00\x00\x00\x00'
Ntbsg17
g1525
(g1526
g1511
g1527
S'b'
tRp1541
(I1
(I6
I1
tg1529
I00
S'\x00\x00\x80?\x00\x00\x80?\x00\x00\x80?\x00\x00\x00\x00\x00\x00\x80?\x00\x00\x80?'
S'\x00\x00\x00\x00\x00\x00'
NtbstRp1542
(dp1543
S'isNumeric'
p1544
(dp1545
g16
I00
sg1524
I01
sg18
I01
sg14
I00
sg17
I01
sg1539
I01
sg15
I00
ssS'trials'
p1546
g1497
sS'dataTypes'
p1547
(lp1548
g1524
ag1539
ag14
ag15
ag16
ag17
ag18
asS'dataShape'
p1549
(lp1550
I6
aI1
asbsS'method'
p1551
S'fullRandom'
p1552
sS'sequenceIndices'
p1553
g1510
(g1511
(I0
tS'b'
tRp1554
(I1
(I6
I1
tg1514
I00
(lp1555
I3
aI1
aI2
aI5
aI0
aI4
atbsS'finished'
p1556
I01
sS'nReps'
p1557
I1
sS'nRemaining'
p1558
I-1
sS'trialList'
p1559
(lp1560
g1
(cpsychopy.data
TrialType
p1561
g1508
(dp1562
g43
L0L
sg44
g64
sg45
g75
sg46
L7L
sg49
L2L
sg48
L0L
sg47
L5L
sg50
L3L
stRp1563
ag1
(g1561
g1508
(dp1564
g43
L0L
sg44
g75
sg45
g76
sg46
L8L
sg49
L2L
sg48
L0L
sg47
L3L
sg50
L3L
stRp1565
ag1
(g1561
g1508
(dp1566
g43
L0L
sg44
g64
sg45
g67
sg46
L7L
sg49
L2L
sg48
L0L
sg47
L5L
sg50
L4L
stRp1567
ag1
(g1561
g1508
(dp1568
g43
g64
sg44
g69
sg45
g67
sg46
L8L
sg49
L3L
sg48
L0L
sg47
L2L
sg50
L4L
stRp1569
ag1
(g1561
g1508
(dp1570
g43
g93
sg44
g94
sg45
g97
sg46
L3L
sg49
L3L
sg48
L0L
sg47
L3L
sg50
L2L
stRp1571
ag1
(g1561
g1508
(dp1572
g43
g93
sg44
g94
sg45
g95
sg46
L9L
sg49
L4L
sg48
g97
sg47
L8L
sg50
L8L
stRp1573
asS'seed'
p1574
NsS'thisIndex'
p1575
I4
sS'thisN'
p1576
I6
sS'thisTrialN'
p1577
I0
sS'nTotal'
p1578
I6
sbag1
(g1496
g3
NtRp1579
(dp1580
g1499
Nsg1500
(lp1581
sg1502
I327812048
sg10
S'block'
p1582
sg6
g1504
sg1505
I1
sg24
I01
sg25
g26
sg1506
g1
(g1507
g1508
(dp1583
g22
g1525
(g1526
g1511
g1527
S'b'
tRp1584
(I1
(I18
I1
tg1529
I00
S'\x00\x00\x80?\x00\x00\x80?\x00\x00\x80?\x00\x00\x80?\x00\x00\x80?\x00\x00\x80?\x00\x00\x80?\x00\x00\x80?\x00\x00\x80?\x00\x00\x80?\x00\x00\x80?\x00\x00\x80?\x00\x00\x80?\x00\x00\x80?\x00\x00\x80?\x00\x00\x80?\x00\x00\x80?\x00\x00\x80?'
S'\x00\x00\x00\x00\x00\x00\x00\x00\x00\x00\x00\x00\x00\x00\x00\x00\x00\x00'
Ntbsg19
g1510
(g1511
(I0
tS'b'
tRp1585
(I1
(I18
I1
tg1514
I00
(lp1586
g273
ag149
ag139
ag158
ag216
ag233
ag167
ag241
ag249
ag207
ag177
ag257
ag265
ag198
ag225
ag127
ag281
ag188
atbsg23
g1525
(g1526
g1511
g1527
S'b'
tRp1587
(I1
(I18
I1
tg1529
I00
S'P\xca\x97@\x1e\xf0s@\x1e\x99\x8f@\x81\x87\xcd@\xb5\xe1E@\x84\xf80A\x95\xe6d@\x01\x04\xb8@\x13IM@x\x17\xa7@`CpA\xf4m\x8c@Rx\x1aA\xf5h\xb0@2^\xb8@\xd4\xe37AUx\xe6@3\x8a\xbb@'
S'\x00\x00\x00\x00\x00\x00\x00\x00\x00\x00\x00\x00\x00\x00\x00\x00\x00\x00'
Ntbsg1524
g1525
(g1526
g1511
g1527
S'b'
tRp1588
(I1
(I18
I1
tg1529
I00
S'\x00\x00\x80?\x00\x00\x80?\x00\x00\x80?\x00\x00\x80?\x00\x00\x80?\x00\x00\x80?\x00\x00\x80?\x00\x00\x80?\x00\x00\x80?\x00\x00\x80?\x00\x00\x80?\x00\x00\x80?\x00\x00\x80?\x00\x00\x80?\x00\x00\x80?\x00\x00\x80?\x00\x00\x80?\x00\x00\x80?'
S'\x00\x00\x00\x00\x00\x00\x00\x00\x00\x00\x00\x00\x00\x00\x00\x00\x00\x00'
Ntbsg21
g1510
(g1511
(I0
tS'b'
tRp1589
(I1
(I18
I1
tg1514
I00
(lp1590
S'1'
aS'4'
aS'9'
aS'6'
aS'6'
aS'7'
aS'8'
aS'2'
aS'1'
aS'9'
aS'1'
aS'2'
aS'1'
aS'3'
aS'7'
aS'1'
aS'5'
aS'7'
atbsg1539
g1525
(g1526
g1511
g1527
S'b'
tRp1591
(I1
(I18
I1
tg1529
I00
S'\x00\x00\x80A\x00\x00\x00@\x00\x00\x80?\x00\x00@@\x00\x00\x10A\x00\x000A\x00\x00\x80@\x00\x00@A\x00\x00PA\x00\x00\x00A\x00\x00\xa0@\x00\x00`A\x00\x00pA\x00\x00\xe0@\x00\x00 A\x00\x00\x00\x00\x00\x00\x88A\x00\x00\xc0@'
S'\x00\x00\x00\x00\x00\x00\x00\x00\x00\x00\x00\x00\x00\x00\x00\x00\x00\x00'
Ntbsg20
g1525
(g1526
g1511
g1527
S'b'
tRp1592
(I1
(I18
I1
tg1529
I00
S'sH\xa8?\xc9\x1a\x1a@\\\xc5\x98@fi\x06@gQ\xf3@`\xc4\x87@D\xe2\x1c@\xb0\x99\x00A\xea\x14\x80@r\xca\x18@\xd5A\x9b@U\x17\x03A\xceZ\x7f@\x8f\x86\x08A\x90\x7f\xb8@C4\xa5@\xe6\xf3\x02An\xbe\xc3@'
S'\x00\x00\x00\x00\x00\x00\x00\x00\x00\x00\x00\x00\x00\x00\x00\x00\x00\x00'
NtbstRp1593
(dp1594
g1544
(dp1595
g1524
I01
sg21
I00
sg20
I01
sg22
I01
sg19
I00
sg23
I01
sg1539
I01
ssg1546
g1579
sg1547
(lp1596
g1524
ag1539
ag19
ag20
ag21
ag22
ag23
asg1549
(lp1597
I18
aI1
asbsg1551
g1552
sg1553
g1510
(g1511
(I0
tS'b'
tRp1598
(I1
(I18
I1
tg1514
I00
(lp1599
I15
aI2
aI1
aI3
aI6
aI10
aI17
aI13
aI9
aI4
aI14
aI5
aI7
aI8
aI11
aI12
aI0
aI16
atbsg1556
I01
sg1557
I1
sg1558
I-1
sg1559
(lp1600
g1
(g1561
g1508
(dp1601
g51
g271
sVY
L2L
sg53
L2L
sg54
g272
sg55
L1L
sg56
L1L
sg52
g130
sVX
L9L
sg57
L0L
sg58
g126
sg59
L0L
sg60
g151
stRp1602
ag1
(g1561
g1508
(dp1603
g51
g147
sVY
L4L
sg53
L2L
sg54
g148
sg55
L4L
sg56
L4L
sg52
g130
sVX
L3L
sg57
L0L
sg58
g140
sg59
L0L
sg60
g151
stRp1604
ag1
(g1561
g1508
(dp1605
g51
g137
sVY
L4L
sg53
L2L
sg54
g138
sg55
L9L
sg56
L9L
sg52
g140
sVX
L2L
sg57
L0L
sg58
g128
sg59
L0L
sg60
g142
stRp1606
ag1
(g1561
g1508
(dp1607
g51
g156
sVY
L6L
sg53
L2L
sg54
g157
sg55
L6L
sg56
L6L
sg52
g126
sVX
L8L
sg57
L0L
sg58
g160
sg59
L0L
sg60
g142
stRp1608
ag1
(g1561
g1508
(dp1609
g51
g214
sVY
L4L
sg53
L3L
sg54
g215
sg55
L6L
sg56
L6L
sg52
g178
sVX
L6L
sg57
g131
sg58
g190
sg59
L0L
sg60
g218
stRp1610
ag1
(g1561
g1508
(dp1611
g51
g231
sVY
L9L
sg53
L3L
sg54
g232
sg55
L7L
sg56
L7L
sg52
g169
sVX
L9L
sg57
g178
sg58
g126
sg59
L0L
sg60
g218
stRp1612
ag1
(g1561
g1508
(dp1613
g51
g165
sVY
L4L
sg53
L3L
sg54
g166
sg55
L8L
sg56
L8L
sg52
g140
sVX
L3L
sg57
g130
sg58
g169
sg59
L0L
sg60
g170
stRp1614
ag1
(g1561
g1508
(dp1615
g51
g239
sVY
L2L
sg53
L3L
sg54
g240
sg55
L2L
sg56
L2L
sg52
g180
sVX
L4L
sg57
g131
sg58
g128
sg59
L0L
sg60
g170
stRp1616
ag1
(g1561
g1508
(dp1617
g51
g247
sVY
L2L
sg53
L3L
sg54
g248
sg55
L1L
sg56
L1L
sg52
g131
sVX
L8L
sg57
g180
sg58
g178
sg59
L0L
sg60
g209
stRp1618
ag1
(g1561
g1508
(dp1619
g51
g205
sVY
L3L
sg53
L3L
sg54
g206
sg55
L9L
sg56
L9L
sg52
g131
sVX
L2L
sg57
g140
sg58
g160
sg59
L0L
sg60
g209
stRp1620
ag1
(g1561
g1508
(dp1621
g51
g175
sVY
L3L
sg53
L4L
sg54
g176
sg55
L1L
sg56
L1L
sg52
g178
sVX
L6L
sg57
g130
sg58
g180
sg59
g169
sg60
g181
stRp1622
ag1
(g1561
g1508
(dp1623
g51
g255
sVY
L2L
sg53
L4L
sg54
g256
sg55
L2L
sg56
L2L
sg52
g178
sVX
L3L
sg57
g130
sg58
g140
sg59
g169
sg60
g181
stRp1624
ag1
(g1561
g1508
(dp1625
g51
g263
sVY
L9L
sg53
L4L
sg54
g264
sg55
L1L
sg56
L1L
sg52
g180
sVX
L3L
sg57
g160
sg58
g178
sg59
g169
sg60
g200
stRp1626
ag1
(g1561
g1508
(dp1627
g51
g196
sVY
L3L
sg53
L4L
sg54
g197
sg55
L3L
sg56
L3L
sg52
g126
sVX
L6L
sg57
g128
sg58
g160
sg59
g131
sg60
g200
stRp1628
ag1
(g1561
g1508
(dp1629
g51
g223
sVY
L2L
sg53
L4L
sg54
g224
sg55
L7L
sg56
L7L
sg52
g131
sVX
L2L
sg57
g140
sg58
g128
sg59
g160
sg60
g132
stRp1630
ag1
(g1561
g1508
(dp1631
g51
g124
sVY
L2L
sg53
L4L
sg54
g125
sg55
L1L
sg56
L1L
sg52
g128
sVX
L8L
sg57
g126
sg58
g130
sg59
g131
sg60
g132
stRp1632
ag1
(g1561
g1508
(dp1633
g51
g279
sVY
L2L
sg53
L4L
sg54
g280
sg55
L5L
sg56
L5L
sg52
g131
sVX
L2L
sg57
g160
sg58
g178
sg59
g190
sg60
g191
stRp1634
ag1
(g1561
g1508
(dp1635
g51
g186
sVY
L2L
sg53
L4L
sg54
g187
sg55
L7L
sg56
L7L
sg52
g160
sVX
L2L
sg57
g131
sg58
g128
sg59
g190
sg60
g191
stRp1636
asg1574
Nsg1575
I16
sg1576
I18
sg1577
I0
sg1578
I18
sbag1
(g1496
g3
NtRp1637
(dp1638
g1499
Nsg1500
(lp1639
sg1502
I327812048
sg10
g1582
sg6
g1504
sg1505
I1
sg24
I01
sg25
g26
sg1506
g1
(g1507
g1508
(dp1640
g22
g1525
(g1526
g1511
g1527
S'b'
tRp1641
(I1
(I18
I1
tg1529
I00
S'\x00\x00\x80?\x00\x00\x80?\x00\x00\x80?\x00\x00\x80?\x00\x00\x80?\x00\x00\x80?\x00\x00\x80?\x00\x00\x80?\x00\x00\x80?\x00\x00\x80?\x00\x00\x80?\x00\x00\x80?\x00\x00\x80?\x00\x00\x80?\x00\x00\x80?\x00\x00\x80?\x00\x00\x80?\x00\x00\x80?'
S'\x00\x00\x00\x00\x00\x00\x00\x00\x00\x00\x00\x00\x00\x00\x00\x00\x00\x00'
Ntbsg19
g1510
(g1511
(I0
tS'b'
tRp1642
(I1
(I18
I1
tg1514
I00
(lp1643
g370
ag361
ag352
ag378
ag438
ag294
ag334
ag446
ag386
ag396
ag325
ag344
ag430
ag312
ag404
ag413
ag421
ag454
atbsg23
g1525
(g1526
g1511
g1527
S'b'
tRp1644
(I1
(I18
I1
tg1529
I00
S'\x85\xe8\xb2?s\x14\xe0?A\xa5\xd9?\x7ff\x01@TQP@T\xfe\x8f@\x17)\xa6@\xf9"U@\xf1\x0f\nA\x08\xc9g@\x86\xa8\x18A\xbb\x87\x93@\xf9\xe3f@\xed\xbc\x93@\xe6\x00\xe5@9\x8b\xaa@\x8e.\x0fAE\x8d\x1dA'
S'\x00\x00\x00\x00\x00\x00\x00\x00\x00\x00\x00\x00\x00\x00\x00\x00\x00\x00'
Ntbsg1524
g1525
(g1526
g1511
g1527
S'b'
tRp1645
(I1
(I18
I1
tg1529
I00
S'\x00\x00\x80?\x00\x00\x80?\x00\x00\x80?\x00\x00\x80?\x00\x00\x80?\x00\x00\x80?\x00\x00\x80?\x00\x00\x80?\x00\x00\x80?\x00\x00\x80?\x00\x00\x80?\x00\x00\x80?\x00\x00\x80?\x00\x00\x80?\x00\x00\x80?\x00\x00\x80?\x00\x00\x80?\x00\x00\x80?'
S'\x00\x00\x00\x00\x00\x00\x00\x00\x00\x00\x00\x00\x00\x00\x00\x00\x00\x00'
Ntbsg21
g1510
(g1511
(I0
tS'b'
tRp1646
(I1
(I18
I1
tg1514
I00
(lp1647
S'4'
aS'6'
aS'3'
aS'1'
aS'9'
aS'5'
aS'5'
aS'5'
aS'8'
aS'3'
aS'3'
aS'9'
aS'4'
aS'3'
aS'8'
aS'6'
aS'1'
aS'6'
atbsg1539
g1525
(g1526
g1511
g1527
S'b'
tRp1648
(I1
(I18
I1
tg1529
I00
S'\x00\x00\xe0@\x00\x00\xc0@\x00\x00\xa0@\x00\x00\x00A\x00\x00pA\x00\x00\x00\x00\x00\x00@@\x00\x00\x80A\x00\x00\x10A\x00\x00 A\x00\x00\x00@\x00\x00\x80@\x00\x00`A\x00\x00\x80?\x00\x000A\x00\x00@A\x00\x00PA\x00\x00\x88A'
S'\x00\x00\x00\x00\x00\x00\x00\x00\x00\x00\x00\x00\x00\x00\x00\x00\x00\x00'
Ntbsg20
g1525
(g1526
g1511
g1527
S'b'
tRp1649
(I1
(I18
I1
tg1529
I00
S"\xfe\xd4\x9f?\xd8\x86\xfe?\xab{\\@=\xbc\x9c?Tc\xa5@L\x1b\x14@\xc8i\xfe?\x929\x84@\xc0\xff\x8f@pQ\x06@ \x98\xbf@\xec\xda\x15AC\xa1\x19A\xf8'PA%V\xc7@k\xa2\xba@\xf2\xbc\xd6@{\xb9fA"
S'\x00\x00\x00\x00\x00\x00\x00\x00\x00\x00\x00\x00\x00\x00\x00\x00\x00\x00'
NtbstRp1650
(dp1651
g1544
(dp1652
g1524
I01
sg21
I00
sg20
I01
sg22
I01
sg19
I00
sg23
I01
sg1539
I01
ssg1546
g1637
sg1547
(lp1653
g1524
ag1539
ag19
ag20
ag21
ag22
ag23
asg1549
(lp1654
I18
aI1
asbsg1551
g1552
sg1553
g1510
(g1511
(I0
tS'b'
tRp1655
(I1
(I18
I1
tg1514
I00
(lp1656
I5
aI13
aI10
aI6
aI11
aI2
aI1
aI0
aI3
aI8
aI9
aI14
aI15
aI16
aI12
aI4
aI7
aI17
atbsg1556
I01
sg1557
I1
sg1558
I-1
sg1559
(lp1657
g1
(g1561
g1508
(dp1658
g287
g368
sVY
L2L
sg289
L2L
sg290
g369
sg298
L4L
sg295
L4L
sg296
g316
sVX
L3L
sg292
L0L
sg300
g301
sg302
L0L
sg303
g363
stRp1659
ag1
(g1561
g1508
(dp1660
g287
g359
sVY
L2L
sg289
L2L
sg290
g360
sg298
L6L
sg295
L6L
sg296
g324
sVX
L2L
sg292
L0L
sg300
g301
sg302
L0L
sg303
g363
stRp1661
ag1
(g1561
g1508
(dp1662
g287
g350
sVY
L5L
sg289
L2L
sg290
g351
sg298
L3L
sg295
L3L
sg296
g335
sVX
L4L
sg292
L0L
sg300
g297
sg302
L0L
sg303
g354
stRp1663
ag1
(g1561
g1508
(dp1664
g287
g376
sVY
L2L
sg289
L2L
sg290
g377
sg298
L1L
sg295
L1L
sg296
g313
sVX
L5L
sg292
L0L
sg300
g297
sg302
L0L
sg303
g354
stRp1665
ag1
(g1561
g1508
(dp1666
g287
g436
sVY
L3L
sg289
L3L
sg290
g437
sg298
L9L
sg295
L9L
sg296
g316
sVX
L8L
sg292
g293
sg300
g301
sg302
L0L
sg303
g304
stRp1667
ag1
(g1561
g1508
(dp1668
g287
g288
sVY
L5L
sg289
L3L
sg290
g291
sg298
L5L
sg295
L5L
sg296
g297
sVX
L6L
sg292
g293
sg300
g301
sg302
L0L
sg303
g304
stRp1669
ag1
(g1561
g1508
(dp1670
g287
g332
sVY
L7L
sg289
L3L
sg290
g333
sg298
L5L
sg295
L5L
sg296
g335
sVX
L7L
sg292
g324
sg300
g297
sg302
L0L
sg303
g337
stRp1671
ag1
(g1561
g1508
(dp1672
g287
g444
sVY
L5L
sg289
L3L
sg290
g445
sg298
L5L
sg295
L5L
sg296
g301
sVX
L4L
sg292
g316
sg300
g297
sg302
L0L
sg303
g337
stRp1673
ag1
(g1561
g1508
(dp1674
g287
g384
sVY
L5L
sg289
L3L
sg290
g385
sg298
L8L
sg295
L8L
sg296
g316
sVX
L5L
sg292
g301
sg300
g297
sg302
L0L
sg303
g388
stRp1675
ag1
(g1561
g1508
(dp1676
g287
g393
sVY
L2L
sg289
L3L
sg290
g394
sg298
L3L
sg295
L3L
sg296
g293
sVX
L4L
sg292
g395
sg300
g315
sg302
L0L
sg303
g388
stRp1677
ag1
(g1561
g1508
(dp1678
g287
g322
sVY
L5L
sg289
L4L
sg290
g323
sg298
L3L
sg295
L3L
sg296
g293
sVX
L5L
sg292
g324
sg300
g313
sg302
g315
sg303
g327
stRp1679
ag1
(g1561
g1508
(dp1680
g287
g342
sVY
L3L
sg289
L4L
sg290
g343
sg298
L9L
sg295
L9L
sg296
g324
sVX
L3L
sg292
g297
sg300
g301
sg302
g311
sg303
g327
stRp1681
ag1
(g1561
g1508
(dp1682
g287
g428
sVY
L6L
sg289
L4L
sg290
g429
sg298
L4L
sg295
L4L
sg296
g395
sVX
L3L
sg292
g315
sg300
g324
sg302
g311
sg303
g317
stRp1683
ag1
(g1561
g1508
(dp1684
g287
g309
sVY
L3L
sg289
L4L
sg290
g310
sg298
L3L
sg295
L3L
sg296
g313
sVX
L3L
sg292
g311
sg300
g315
sg302
g316
sg303
g317
stRp1685
ag1
(g1561
g1508
(dp1686
g287
g402
sVY
L2L
sg289
L4L
sg290
g403
sg298
L8L
sg295
L8L
sg296
g311
sVX
L9L
sg292
g335
sg300
g297
sg302
g324
sg303
g406
stRp1687
ag1
(g1561
g1508
(dp1688
g287
g411
sVY
L3L
sg289
L4L
sg290
g412
sg298
L6L
sg295
L6L
sg296
g293
sVX
L2L
sg292
g335
sg300
g315
sg302
g316
sg303
g406
stRp1689
ag1
(g1561
g1508
(dp1690
g287
g419
sVY
L2L
sg289
L4L
sg290
g420
sg298
L1L
sg295
L1L
sg296
g324
sVX
L8L
sg292
g293
sg300
g297
sg302
g395
sg303
g423
stRp1691
ag1
(g1561
g1508
(dp1692
g287
g452
sVY
L2L
sg289
L4L
sg290
g453
sg298
L6L
sg295
L6L
sg296
g316
sVX
L3L
sg292
g293
sg300
g315
sg302
g301
sg303
g423
stRp1693
asg1574
Nsg1575
I17
sg1576
I18
sg1577
I0
sg1578
I18
sbag1
(g1496
g3
NtRp1694
(dp1695
g1499
Nsg1500
(lp1696
sg1502
I327812048
sg10
g1582
sg6
g1504
sg1505
I1
sg24
I01
sg25
g26
sg1506
g1
(g1507
g1508
(dp1697
g22
g1525
(g1526
g1511
g1527
S'b'
tRp1698
(I1
(I18
I1
tg1529
I00
S'\x00\x00\x80?\x00\x00\x80?\x00\x00\x80?\x00\x00\x80?\x00\x00\x80?\x00\x00\x80?\x00\x00\x80?\x00\x00\x80?\x00\x00\x80?\x00\x00\x80?\x00\x00\x80?\x00\x00\x80?\x00\x00\x80?\x00\x00\x80?\x00\x00\x80?\x00\x00\x00\x00\x00\x00\x80?\x00\x00\x80?'
S'\x00\x00\x00\x00\x00\x00\x00\x00\x00\x00\x00\x00\x00\x00\x00\x00\x00\x00'
Ntbsg19
g1510
(g1511
(I0
tS'b'
tRp1699
(I1
(I18
I1
tg1514
I00
(lp1700
g618
ag534
ag506
ag586
ag594
ag516
ag610
ag561
ag467
ag602
ag544
ag578
ag525
ag570
ag553
aNag626
ag485
atbsg23
g1525
(g1526
g1511
g1527
S'b'
tRp1701
(I1
(I18
I1
tg1529
I00
S"\x0cJ\x00@f\xd7\x87@\xe6\xa0\xfa?91\xd0?\xca\x01v@\xf0\r\x1e@\x7f\xf8J@-\xc8?@\xfdI'@Q\xb6g@Yo\xc7@#\xfd\x1d@R#\xbc@`_\x9f@\xc7'x@\x00\x00\x00\x00\x11\xbe\x10@6v\xa2@"
S'\x00\x00\x00\x00\x00\x00\x00\x00\x00\x00\x00\x00\x00\x00\x00\x01\x00\x00'
Ntbsg1524
g1525
(g1526
g1511
g1527
S'b'
tRp1702
(I1
(I18
I1
tg1529
I00
S'\x00\x00\x80?\x00\x00\x80?\x00\x00\x80?\x00\x00\x80?\x00\x00\x80?\x00\x00\x80?\x00\x00\x80?\x00\x00\x80?\x00\x00\x80?\x00\x00\x80?\x00\x00\x80?\x00\x00\x80?\x00\x00\x80?\x00\x00\x80?\x00\x00\x80?\x00\x00\x80?\x00\x00\x80?\x00\x00\x80?'
S'\x00\x00\x00\x00\x00\x00\x00\x00\x00\x00\x00\x00\x00\x00\x00\x00\x00\x00'
Ntbsg21
g1510
(g1511
(I0
tS'b'
tRp1703
(I1
(I18
I1
tg1514
I00
(lp1704
S'7'
aS'2'
aS'8'
aS'6'
aS'7'
aS'8'
aS'2'
aS'5'
aS'6'
aS'5'
aS'9'
aS'8'
aS'6'
aS'3'
aS'5'
aNaS'3'
aS'1'
atbsg1539
g1525
(g1526
g1511
g1527
S'b'
tRp1705
(I1
(I18
I1
tg1529
I00
S'\x00\x00\x80A\x00\x00\xc0@\x00\x00@@\x00\x00@A\x00\x00PA\x00\x00\x80@\x00\x00pA\x00\x00\x10A\x00\x00\x00\x00\x00\x00`A\x00\x00\xe0@\x00\x000A\x00\x00\xa0@\x00\x00 A\x00\x00\x00A\x00\x00\x00@\x00\x00\x88A\x00\x00\x80?'
S'\x00\x00\x00\x00\x00\x00\x00\x00\x00\x00\x00\x00\x00\x00\x00\x00\x00\x00'
Ntbsg20
g1525
(g1526
g1511
g1527
S'b'
tRp1706
(I1
(I18
I1
tg1529
I00
S'v\xfa\x83?u|9@\xf4\x80\xe7?\xabC\xc1?WQ\xf4?\xd3\xaea@\xdcm\xb4@\xdeJI?7\xfe\x19@\xeb\x05I@\xbc\xd6A@\xcc\xa2\xef@f\xec$A\xc9\xc3\x82@\x9el\x9f@\x00\x00\x00\x00\xd5"\xfd@_\x9d\xab@'
S'\x00\x00\x00\x00\x00\x00\x00\x00\x00\x00\x00\x00\x00\x00\x00\x01\x00\x00'
NtbstRp1707
(dp1708
g1544
(dp1709
g1524
I01
sg21
I00
sg20
I01
sg22
I01
sg19
I00
sg23
I01
sg1539
I01
ssg1546
g1694
sg1547
(lp1710
g1524
ag1539
ag19
ag20
ag21
ag22
ag23
asg1549
(lp1711
I18
aI1
asbsg1551
g1552
sg1553
g1510
(g1511
(I0
tS'b'
tRp1712
(I1
(I18
I1
tg1514
I00
(lp1713
I8
aI17
aI15
aI2
aI5
aI12
aI1
aI10
aI14
aI7
aI13
aI11
aI3
aI4
aI9
aI6
aI0
aI16
atbsg1556
I01
sg1557
I1
sg1558
I-1
sg1559
(lp1714
g1
(g1561
g1508
(dp1715
g460
g616
sVY
L5L
sg462
L2L
sg463
g617
sg471
L7L
sg468
L7L
sg469
g498
sVX
L3L
sg465
L0L
sg473
g466
sg475
L0L
sg476
g537
stRp1716
ag1
(g1561
g1508
(dp1717
g460
g532
sVY
L4L
sg462
L2L
sg463
g533
sg471
L2L
sg468
L2L
sg469
g498
sVX
L9L
sg465
L0L
sg473
g536
sg475
L0L
sg476
g537
stRp1718
ag1
(g1561
g1508
(dp1719
g460
g504
sVY
L3L
sg462
L2L
sg463
g505
sg471
L8L
sg468
L8L
sg469
g507
sVX
L3L
sg465
L0L
sg473
g498
sg475
L0L
sg476
g509
stRp1720
ag1
(g1561
g1508
(dp1721
g460
g584
sVY
L8L
sg462
L2L
sg463
g585
sg471
L6L
sg468
L6L
sg469
g466
sVX
L4L
sg465
L0L
sg473
g486
sg475
L0L
sg476
g509
stRp1722
ag1
(g1561
g1508
(dp1723
g460
g592
sVY
L5L
sg462
L3L
sg463
g593
sg471
L7L
sg468
L7L
sg469
g474
sVX
L2L
sg465
g498
sg473
g466
sg475
L0L
sg476
g518
stRp1724
ag1
(g1561
g1508
(dp1725
g460
g514
sVY
L2L
sg462
L3L
sg463
g515
sg471
L8L
sg468
L8L
sg469
g496
sVX
L4L
sg465
g486
sg473
g466
sg475
L0L
sg476
g518
stRp1726
ag1
(g1561
g1508
(dp1727
g460
g608
sVY
L3L
sg462
L3L
sg463
g609
sg471
L2L
sg468
L2L
sg469
g488
sVX
L3L
sg465
g484
sg473
g474
sg475
L0L
sg476
g563
stRp1728
ag1
(g1561
g1508
(dp1729
g460
g559
sVY
L3L
sg462
L3L
sg463
g560
sg471
L5L
sg468
L5L
sg469
g466
sVX
L2L
sg465
g486
sg473
g484
sg475
L0L
sg476
g563
stRp1730
ag1
(g1561
g1508
(dp1731
g460
g461
sVY
L4L
sg462
L3L
sg463
g464
sg471
L6L
sg468
L6L
sg469
g470
sVX
L5L
sg465
g466
sg473
g474
sg475
L0L
sg476
g477
stRp1732
ag1
(g1561
g1508
(dp1733
g460
g600
sVY
L3L
sg462
L3L
sg463
g601
sg471
L5L
sg468
L5L
sg469
g484
sVX
L3L
sg465
g507
sg473
g486
sg475
L0L
sg476
g477
stRp1734
ag1
(g1561
g1508
(dp1735
g460
g542
sVY
L4L
sg462
L4L
sg463
g543
sg471
L9L
sg468
L9L
sg469
g498
sVX
L9L
sg465
g470
sg473
g466
sg475
g474
sg476
g546
stRp1736
ag1
(g1561
g1508
(dp1737
g460
g576
sVY
L2L
sg462
L4L
sg463
g577
sg471
L8L
sg468
L8L
sg469
g496
sVX
L2L
sg465
g474
sg473
g466
sg475
g498
sg476
g546
stRp1738
ag1
(g1561
g1508
(dp1739
g460
g523
sVY
L6L
sg462
L4L
sg463
g524
sg471
L6L
sg468
L6L
sg469
g466
sVX
L6L
sg465
g470
sg473
g498
sg475
g486
sg476
g527
stRp1740
ag1
(g1561
g1508
(dp1741
g460
g568
sVY
L2L
sg462
L4L
sg463
g569
sg471
L3L
sg468
L3L
sg469
g488
sVX
L9L
sg465
g474
sg473
g498
sg475
g470
sg476
g527
stRp1742
ag1
(g1561
g1508
(dp1743
g460
g551
sVY
L3L
sg462
L4L
sg463
g552
sg471
L5L
sg468
L5L
sg469
g474
sVX
L3L
sg465
g507
sg473
g498
sg475
g470
sg476
g499
stRp1744
ag1
(g1561
g1508
(dp1745
g460
g494
sVY
L3L
sg462
L4L
sg463
g495
sg471
L8L
sg468
L8L
sg469
g496
sVX
L3L
sg465
g488
sg473
g498
sg475
g474
sg476
g499
stRp1746
ag1
(g1561
g1508
(dp1747
g460
g624
sVY
L4L
sg462
L4L
sg463
g625
sg471
L3L
sg468
L3L
sg469
g486
sVX
L3L
sg465
g470
sg473
g484
sg475
g507
sg476
g489
stRp1748
ag1
(g1561
g1508
(dp1749
g460
g482
sVY
L2L
sg462
L4L
sg463
g483
sg471
L1L
sg468
L1L
sg469
g486
sVX
L7L
sg465
g484
sg473
g470
sg475
g488
sg476
g489
stRp1750
asg1574
Nsg1575
I16
sg1576
I18
sg1577
I0
sg1578
I18
sbag1
(g1496
g3
NtRp1751
(dp1752
g1499
Nsg1500
(lp1753
sg1502
I327812048
sg10
g1582
sg6
g1504
sg1505
I1
sg24
I01
sg25
g26
sg1506
g1
(g1507
g1508
(dp1754
g22
g1525
(g1526
g1511
g1527
S'b'
tRp1755
(I1
(I18
I1
tg1529
I00
S'\x00\x00\x80?\x00\x00\x80?\x00\x00\x80?\x00\x00\x00\x00\x00\x00\x80?\x00\x00\x80?\x00\x00\x80?\x00\x00\x80?\x00\x00\x80?\x00\x00\x80?\x00\x00\x80?\x00\x00\x80?\x00\x00\x80?\x00\x00\x80?\x00\x00\x80?\x00\x00\x80?\x00\x00\x00\x00\x00\x00\x80?'
S'\x00\x00\x00\x00\x00\x00\x00\x00\x00\x00\x00\x00\x00\x00\x00\x00\x00\x00'
Ntbsg19
g1510
(g1511
(I0
tS'b'
tRp1756
(I1
(I18
I1
tg1514
I00
(lp1757
g750
ag689
ag698
ag800
ag724
ag742
ag639
ag758
ag707
ag766
ag733
ag657
ag782
ag792
ag680
ag774
ag669
ag716
atbsg23
g1525
(g1526
g1511
g1527
S'b'
tRp1758
(I1
(I18
I1
tg1529
I00
S'\xb1\x9f\x17@\x94H%@\xb6#\xe4?Oy\x00@\xca*I@j{\xce@\xd0\xe5\x9e@\x1f\xedm@\xb2\x12$@\xb1a\x9c@A\x9e\x97@\xb1\xb6\xd9@\xbf\x00z@\x8e\xd2\xb1@OX\xd6@}\x06 @\x00\x00\x00\x00t\xca\x82@'
S'\x00\x00\x00\x00\x00\x00\x00\x00\x00\x00\x00\x00\x00\x00\x00\x00\x01\x00'
Ntbsg1524
g1525
(g1526
g1511
g1527
S'b'
tRp1759
(I1
(I18
I1
tg1529
I00
S'\x00\x00\x80?\x00\x00\x80?\x00\x00\x80?\x00\x00\x80?\x00\x00\x80?\x00\x00\x80?\x00\x00\x80?\x00\x00\x80?\x00\x00\x80?\x00\x00\x80?\x00\x00\x80?\x00\x00\x80?\x00\x00\x80?\x00\x00\x80?\x00\x00\x80?\x00\x00\x80?\x00\x00\x80?\x00\x00\x80?'
S'\x00\x00\x00\x00\x00\x00\x00\x00\x00\x00\x00\x00\x00\x00\x00\x00\x00\x00'
Ntbsg21
g1510
(g1511
(I0
tS'b'
tRp1760
(I1
(I18
I1
tg1514
I00
(lp1761
S'8'
aS'2'
aS'2'
aS'4'
aS'1'
aS'2'
aS'1'
aS'2'
aS'8'
aS'6'
aS'7'
aS'1'
aS'9'
aS'7'
aS'3'
aS'6'
aNaS'4'
atbsg1539
g1525
(g1526
g1511
g1527
S'b'
tRp1762
(I1
(I18
I1
tg1529
I00
S'\x00\x000A\x00\x00\x80@\x00\x00\xa0@\x00\x00\x88A\x00\x00\x00A\x00\x00 A\x00\x00\x00\x00\x00\x00@A\x00\x00\xc0@\x00\x00PA\x00\x00\x10A\x00\x00\x80?\x00\x00pA\x00\x00\x80A\x00\x00@@\x00\x00`A\x00\x00\x00@\x00\x00\xe0@'
S'\x00\x00\x00\x00\x00\x00\x00\x00\x00\x00\x00\x00\x00\x00\x00\x00\x00\x00'
Ntbsg20
g1525
(g1526
g1511
g1527
S'b'
tRp1763
(I1
(I18
I1
tg1529
I00
S"\x1eA\x8e?\xdbN\x81?\x15\x9f\xe9?~T^?\x14\xdc\x8b@\xd7\x18F@\xf0w\x9f@\x11\x87\xfc?7\x05K@\\\x12%@$\x95X@\r'\xc2@\x95L\xd5@\xc7\xaf\x97@\xebu\x11A\xa9{\xbd@$\xd3g@\xafy\x07A"
S'\x00\x00\x00\x00\x00\x00\x00\x00\x00\x00\x00\x00\x00\x00\x00\x00\x00\x00'
NtbstRp1764
(dp1765
g1544
(dp1766
g1524
I01
sg21
I00
sg20
I01
sg22
I01
sg19
I00
sg23
I01
sg1539
I01
ssg1546
g1751
sg1547
(lp1767
g1524
ag1539
ag19
ag20
ag21
ag22
ag23
asg1549
(lp1768
I18
aI1
asbsg1551
g1552
sg1553
g1510
(g1511
(I0
tS'b'
tRp1769
(I1
(I18
I1
tg1514
I00
(lp1770
I6
aI11
aI16
aI14
aI1
aI2
aI8
aI17
aI4
aI10
aI5
aI0
aI7
aI9
aI15
aI12
aI13
aI3
atbsg1556
I01
sg1557
I1
sg1558
I-1
sg1559
(lp1771
g1
(g1561
g1508
(dp1772
g632
g748
sVY
L4L
sg634
L2L
sg635
g749
sg643
L8L
sg640
L8L
sg641
g656
sVX
L2L
sg637
L0L
sg645
g735
sg647
L0L
sg648
g691
stRp1773
ag1
(g1561
g1508
(dp1774
g632
g687
sVY
L6L
sg634
L2L
sg635
g688
sg643
L2L
sg640
L2L
sg641
g656
sVX
L6L
sg637
L0L
sg645
g660
sg647
L0L
sg648
g691
stRp1775
ag1
(g1561
g1508
(dp1776
g632
g696
sVY
L7L
sg634
L2L
sg635
g697
sg643
L2L
sg640
L2L
sg641
g642
sVX
L8L
sg637
L0L
sg645
g656
sg647
L0L
sg648
g700
stRp1777
ag1
(g1561
g1508
(dp1778
g632
g798
sVY
L4L
sg634
L2L
sg635
g799
sg643
L8L
sg640
L8L
sg641
g679
sVX
L4L
sg637
L0L
sg645
g646
sg647
L0L
sg648
g700
stRp1779
ag1
(g1561
g1508
(dp1780
g632
g722
sVY
L4L
sg634
L3L
sg635
g723
sg643
L1L
sg640
L1L
sg641
g656
sVX
L6L
sg637
g661
sg645
g660
sg647
L0L
sg648
g726
stRp1781
ag1
(g1561
g1508
(dp1782
g632
g740
sVY
L4L
sg634
L3L
sg635
g741
sg643
L2L
sg640
L2L
sg641
g646
sVX
L4L
sg637
g638
sg645
g642
sg647
L0L
sg648
g726
stRp1783
ag1
(g1561
g1508
(dp1784
g632
g633
sVY
L7L
sg634
L3L
sg635
g636
sg643
L1L
sg640
L1L
sg641
g642
sVX
L3L
sg637
g638
sg645
g646
sg647
L0L
sg648
g649
stRp1785
ag1
(g1561
g1508
(dp1786
g632
g756
sVY
L3L
sg634
L3L
sg635
g757
sg643
L2L
sg640
L2L
sg641
g660
sVX
L9L
sg637
g661
sg645
g658
sg647
L0L
sg648
g649
stRp1787
ag1
(g1561
g1508
(dp1788
g632
g705
sVY
L2L
sg634
L3L
sg635
g706
sg643
L8L
sg640
L8L
sg641
g671
sVX
L7L
sg637
g642
sg645
g656
sg647
L0L
sg648
g709
stRp1789
ag1
(g1561
g1508
(dp1790
g632
g764
sVY
L3L
sg634
L3L
sg635
g765
sg643
L6L
sg640
L6L
sg641
g638
sVX
L4L
sg637
g642
sg645
g656
sg647
L0L
sg648
g709
stRp1791
ag1
(g1561
g1508
(dp1792
g632
g731
sVY
L6L
sg634
L4L
sg635
g732
sg643
L7L
sg640
L7L
sg641
g661
sVX
L4L
sg637
g658
sg645
g735
sg647
g646
sg648
g662
stRp1793
ag1
(g1561
g1508
(dp1794
g632
g654
sVY
L5L
sg634
L4L
sg635
g655
sg643
L1L
sg640
L1L
sg641
g658
sVX
L6L
sg637
g656
sg645
g660
sg647
g661
sg648
g662
stRp1795
ag1
(g1561
g1508
(dp1796
g632
g780
sVY
L4L
sg634
L4L
sg635
g781
sg643
L9L
sg640
L9L
sg641
g735
sVX
L9L
sg637
g656
sg645
g784
sg647
g661
sg648
g785
stRp1797
ag1
(g1561
g1508
(dp1798
g632
g790
sVY
L4L
sg634
L4L
sg635
g791
sg643
L7L
sg640
L7L
sg641
g679
sVX
L3L
sg637
g656
sg645
g671
sg647
g661
sg648
g785
stRp1799
ag1
(g1561
g1508
(dp1800
g632
g677
sVY
L6L
sg634
L4L
sg635
g678
sg643
L3L
sg640
L3L
sg641
g661
sVX
L4L
sg637
g679
sg645
g671
sg647
g646
sg648
g682
stRp1801
ag1
(g1561
g1508
(dp1802
g632
g772
sVY
L8L
sg634
L4L
sg635
g773
sg643
L6L
sg640
L6L
sg641
g638
sVX
L9L
sg637
g660
sg645
g656
sg647
g671
sg648
g682
stRp1803
ag1
(g1561
g1508
(dp1804
g632
g667
sVY
L2L
sg634
L4L
sg635
g668
sg643
L5L
sg640
L5L
sg641
g646
sVX
L8L
sg637
g638
sg645
g671
sg647
g660
sg648
g672
stRp1805
ag1
(g1561
g1508
(dp1806
g632
g714
sVY
L4L
sg634
L4L
sg635
g715
sg643
L4L
sg640
L4L
sg641
g671
sVX
L4L
sg637
g638
sg645
g656
sg647
g660
sg648
g672
stRp1807
asg1574
Nsg1575
I3
sg1576
I18
sg1577
I0
sg1578
I18
sbag1
(g1496
g3
NtRp1808
(dp1809
g1499
Nsg1500
(lp1810
sg1502
I327812048
sg10
g1582
sg6
g1504
sg1505
I1
sg24
I01
sg25
g26
sg1506
g1
(g1507
g1508
(dp1811
g22
g1525
(g1526
g1511
g1527
S'b'
tRp1812
(I1
(I18
I1
tg1529
I00
S'\x00\x00\x80?\x00\x00\x80?\x00\x00\x80?\x00\x00\x80?\x00\x00\x80?\x00\x00\x80?\x00\x00\x80?\x00\x00\x80?\x00\x00\x80?\x00\x00\x80?\x00\x00\x80?\x00\x00\x00\x00\x00\x00\x80?\x00\x00\x00\x00\x00\x00\x80?\x00\x00\x80?\x00\x00\x80?\x00\x00\x80?'
S'\x00\x00\x00\x00\x00\x00\x00\x00\x00\x00\x00\x00\x00\x00\x00\x00\x00\x00'
Ntbsg19
g1510
(g1511
(I0
tS'b'
tRp1813
(I1
(I18
I1
tg1514
I00
(lp1814
g949
ag879
ag831
ag860
ag870
ag973
ag965
ag924
ag897
ag957
ag813
ag841
ag889
ag850
ag941
ag915
ag906
ag933
atbsg23
g1525
(g1526
g1511
g1527
S'b'
tRp1815
(I1
(I18
I1
tg1529
I00
S'\xbc\xd6=@\xc3\x07\xff?\xec\\\xdf?/\x9ad@\xed\xe6\xb4@\xf51D@\x04g\xba@\x07b\xb8@M\x9b\r@\x82\xef\x0eA\xf3\x1eq@\xed\t\x14A\x17Z\xdc@i5\xb1@\xa0\xe5\x0fAV\xf4\xc8@<\xf6\x9d@\xf7z\xa2@'
S'\x00\x00\x00\x00\x00\x00\x00\x00\x00\x00\x00\x00\x00\x00\x00\x00\x00\x00'
Ntbsg1524
g1525
(g1526
g1511
g1527
S'b'
tRp1816
(I1
(I18
I1
tg1529
I00
S'\x00\x00\x80?\x00\x00\x80?\x00\x00\x80?\x00\x00\x80?\x00\x00\x80?\x00\x00\x80?\x00\x00\x80?\x00\x00\x80?\x00\x00\x80?\x00\x00\x80?\x00\x00\x80?\x00\x00\x80?\x00\x00\x80?\x00\x00\x80?\x00\x00\x80?\x00\x00\x80?\x00\x00\x80?\x00\x00\x80?'
S'\x00\x00\x00\x00\x00\x00\x00\x00\x00\x00\x00\x00\x00\x00\x00\x00\x00\x00'
Ntbsg21
g1510
(g1511
(I0
tS'b'
tRp1817
(I1
(I18
I1
tg1514
I00
(lp1818
S'1'
aS'8'
aS'4'
aS'1'
aS'3'
aS'9'
aS'1'
aS'6'
aS'6'
aS'8'
aS'8'
aS'3'
aS'6'
aS'8'
aS'5'
aS'5'
aS'5'
aS'3'
atbsg1539
g1525
(g1526
g1511
g1527
S'b'
tRp1819
(I1
(I18
I1
tg1529
I00
S'\x00\x00`A\x00\x00\xc0@\x00\x00\x80?\x00\x00\x80@\x00\x00\xa0@\x00\x00\x88A\x00\x00\x80A\x00\x000A\x00\x00\x00A\x00\x00pA\x00\x00\x00\x00\x00\x00\x00@\x00\x00\xe0@\x00\x00@@\x00\x00PA\x00\x00 A\x00\x00\x10A\x00\x00@A'
S'\x00\x00\x00\x00\x00\x00\x00\x00\x00\x00\x00\x00\x00\x00\x00\x00\x00\x00'
Ntbsg20
g1525
(g1526
g1511
g1527
S'b'
tRp1820
(I1
(I18
I1
tg1529
I00
S'^B\xdc?\xde\x86I?\xe7\x8d\xcb?\xf9\x8d\xec?<\x0eAA\xea\xaf\x83@\xd8\x9c2@\xff[\x03@\xcf\xf9\xc2?\x81\xcbp@\xfey\x04A\xd7\x81\xb8@t\xbdFA\xe1l\x17A1\xcd\x86@\xe4\x1az@\x98\x9e\x13@\xf4|h@'
S'\x00\x00\x00\x00\x00\x00\x00\x00\x00\x00\x00\x00\x00\x00\x00\x00\x00\x00'
NtbstRp1821
(dp1822
g1544
(dp1823
g1524
I01
sg21
I00
sg20
I01
sg22
I01
sg19
I00
sg23
I01
sg1539
I01
ssg1546
g1808
sg1547
(lp1824
g1524
ag1539
ag19
ag20
ag21
ag22
ag23
asg1549
(lp1825
I18
aI1
asbsg1551
g1552
sg1553
g1510
(g1511
(I0
tS'b'
tRp1826
(I1
(I18
I1
tg1514
I00
(lp1827
I10
aI2
aI11
aI13
aI3
aI4
aI1
aI12
aI8
aI16
aI15
aI7
aI17
aI14
aI0
aI9
aI6
aI5
atbsg1556
I01
sg1557
I1
sg1558
I-1
sg1559
(lp1828
g1
(g1561
g1508
(dp1829
g806
g947
sVY
L3L
sg808
L2L
sg809
g948
sg817
L1L
sg814
L1L
sg815
g863
sVX
L9L
sg811
L0L
sg819
g861
sg821
L0L
sg823
g882
stRp1830
ag1
(g1561
g1508
(dp1831
g806
g877
sVY
L2L
sg808
L2L
sg809
g878
sg817
L8L
sg814
L8L
sg815
g816
sVX
L2L
sg811
L0L
sg819
g881
sg821
L0L
sg823
g882
stRp1832
ag1
(g1561
g1508
(dp1833
g806
g829
sVY
L3L
sg808
L2L
sg809
g830
sg817
L4L
sg814
L4L
sg815
g820
sVX
L6L
sg811
L0L
sg819
g833
sg821
L0L
sg823
g834
stRp1834
ag1
(g1561
g1508
(dp1835
g806
g858
sVY
L2L
sg808
L2L
sg809
g859
sg817
L1L
sg814
L1L
sg815
g861
sVX
L6L
sg811
L0L
sg819
g863
sg821
L0L
sg823
g834
stRp1836
ag1
(g1561
g1508
(dp1837
g806
g868
sVY
L9L
sg808
L3L
sg809
g869
sg817
L3L
sg814
L3L
sg815
g812
sVX
L5L
sg811
g822
sg819
g820
sg821
L0L
sg823
g872
stRp1838
ag1
(g1561
g1508
(dp1839
g806
g971
sVY
L3L
sg808
L3L
sg809
g972
sg817
L9L
sg814
L9L
sg815
g849
sVX
L5L
sg811
g833
sg819
g881
sg821
L0L
sg823
g872
stRp1840
ag1
(g1561
g1508
(dp1841
g806
g963
sVY
L2L
sg808
L3L
sg809
g964
sg817
L1L
sg814
L1L
sg815
g861
sVX
L7L
sg811
g822
sg819
g863
sg821
L0L
sg823
g926
stRp1842
ag1
(g1561
g1508
(dp1843
g806
g922
sVY
L6L
sg808
L3L
sg809
g923
sg817
L6L
sg814
L6L
sg815
g881
sVX
L6L
sg811
g849
sg819
g863
sg821
L0L
sg823
g926
stRp1844
ag1
(g1561
g1508
(dp1845
g806
g895
sVY
L2L
sg808
L3L
sg809
g896
sg817
L6L
sg814
L6L
sg815
g822
sVX
L2L
sg811
g851
sg819
g816
sg821
L0L
sg823
g899
stRp1846
ag1
(g1561
g1508
(dp1847
g806
g955
sVY
L6L
sg808
L3L
sg809
g956
sg817
L8L
sg814
L8L
sg815
g863
sVX
L2L
sg811
g881
sg819
g816
sg821
L0L
sg823
g899
stRp1848
ag1
(g1561
g1508
(dp1849
g806
g807
sVY
L4L
sg808
L4L
sg809
g810
sg817
L8L
sg814
L8L
sg815
g816
sVX
L3L
sg811
g812
sg819
g820
sg821
g822
sg823
g824
stRp1850
ag1
(g1561
g1508
(dp1851
g806
g839
sVY
L8L
sg808
L4L
sg809
g840
sg817
L1L
sg814
L1L
sg815
g812
sVX
L2L
sg811
g822
sg819
g820
sg821
g816
sg823
g824
stRp1852
ag1
(g1561
g1508
(dp1853
g806
g887
sVY
L5L
sg808
L4L
sg809
g888
sg817
L6L
sg814
L6L
sg815
g861
sVX
L4L
sg811
g812
sg819
g816
sg821
g833
sg823
g853
stRp1854
ag1
(g1561
g1508
(dp1855
g806
g847
sVY
L3L
sg808
L4L
sg809
g848
sg817
L7L
sg814
L7L
sg815
g851
sVX
L2L
sg811
g849
sg819
g833
sg821
g812
sg823
g853
stRp1856
ag1
(g1561
g1508
(dp1857
g806
g939
sVY
L3L
sg808
L4L
sg809
g940
sg817
L5L
sg814
L5L
sg815
g812
sVX
L3L
sg811
g861
sg819
g822
sg821
g816
sg823
g917
stRp1858
ag1
(g1561
g1508
(dp1859
g806
g913
sVY
L4L
sg808
L4L
sg809
g914
sg817
L5L
sg814
L5L
sg815
g822
sVX
L8L
sg811
g881
sg819
g863
sg821
g849
sg823
g917
stRp1860
ag1
(g1561
g1508
(dp1861
g806
g904
sVY
L2L
sg808
L4L
sg809
g905
sg817
L5L
sg814
L5L
sg815
g812
sVX
L6L
sg811
g849
sg819
g822
sg821
g820
sg823
g908
stRp1862
ag1
(g1561
g1508
(dp1863
g806
g931
sVY
L2L
sg808
L4L
sg809
g932
sg817
L3L
sg814
L3L
sg815
g812
sVX
L3L
sg811
g833
sg819
g849
sg821
g820
sg823
g908
stRp1864
asg1574
Nsg1575
I5
sg1576
I18
sg1577
I0
sg1578
I18
sbag1
(g1496
g3
NtRp1865
(dp1866
g1499
Nsg1500
(lp1867
sg1502
I327812048
sg10
g1582
sg6
g1504
sg1505
I1
sg24
I01
sg25
g26
sg1506
g1
(g1507
g1508
(dp1868
g22
g1525
(g1526
g1511
g1527
S'b'
tRp1869
(I1
(I18
I1
tg1529
I00
S'\x00\x00\x80?\x00\x00\x80?\x00\x00\x80?\x00\x00\x80?\x00\x00\x80?\x00\x00\x80?\x00\x00\x80?\x00\x00\x80?\x00\x00\x80?\x00\x00\x80?\x00\x00\x80?\x00\x00\x80?\x00\x00\x80?\x00\x00\x00\x00\x00\x00\x80?\x00\x00\x80?\x00\x00\x80?\x00\x00\x80?'
S'\x00\x00\x00\x00\x00\x00\x00\x00\x00\x00\x00\x00\x00\x00\x00\x00\x00\x00'
Ntbsg19
g1510
(g1511
(I0
tS'b'
tRp1870
(I1
(I18
I1
tg1514
I00
(lp1871
g1015
ag1054
ag1113
ag1044
ag1062
ag1035
ag1070
ag1138
ag1088
ag1097
ag1105
ag1024
ag1130
ag1121
ag1146
ag1079
ag986
ag1004
atbsg23
g1525
(g1526
g1511
g1527
S'b'
tRp1872
(I1
(I18
I1
tg1529
I00
S'=uP@{\xf7w@?\x04\xdc?\xdf\xf7>@\xc8\x97\xc9?R3\x93@(\x8f4@[\xed @\xdd\xa6Z@;\xaa\xfa?\x84\xc7\xc7@\xc9O\x91A)a\xa1@k\xe2\xb4@\xedY\xd9@j\x17q@|[\x0cAe,\xaf@'
S'\x00\x00\x00\x00\x00\x00\x00\x00\x00\x00\x00\x00\x00\x00\x00\x00\x00\x00'
Ntbsg1524
g1525
(g1526
g1511
g1527
S'b'
tRp1873
(I1
(I18
I1
tg1529
I00
S'\x00\x00\x80?\x00\x00\x80?\x00\x00\x80?\x00\x00\x80?\x00\x00\x80?\x00\x00\x80?\x00\x00\x80?\x00\x00\x80?\x00\x00\x80?\x00\x00\x80?\x00\x00\x80?\x00\x00\x80?\x00\x00\x80?\x00\x00\x80?\x00\x00\x80?\x00\x00\x80?\x00\x00\x80?\x00\x00\x80?'
S'\x00\x00\x00\x00\x00\x00\x00\x00\x00\x00\x00\x00\x00\x00\x00\x00\x00\x00'
Ntbsg21
g1510
(g1511
(I0
tS'b'
tRp1874
(I1
(I18
I1
tg1514
I00
(lp1875
S'2'
aS'3'
aS'1'
aS'6'
aS'9'
aS'4'
aS'6'
aS'3'
aS'7'
aS'1'
aS'8'
aS'8'
aS'8'
aS'5'
aS'8'
aS'1'
aS'6'
aS'6'
atbsg1539
g1525
(g1526
g1511
g1527
S'b'
tRp1876
(I1
(I18
I1
tg1529
I00
S'\x00\x00\x00@\x00\x00\xc0@\x00\x00PA\x00\x00\xa0@\x00\x00\xe0@\x00\x00\x80@\x00\x00\x00A\x00\x00\x80A\x00\x00 A\x00\x000A\x00\x00@A\x00\x00@@\x00\x00pA\x00\x00`A\x00\x00\x88A\x00\x00\x10A\x00\x00\x00\x00\x00\x00\x80?'
S'\x00\x00\x00\x00\x00\x00\x00\x00\x00\x00\x00\x00\x00\x00\x00\x00\x00\x00'
Ntbsg20
g1525
(g1526
g1511
g1527
S'b'
tRp1877
(I1
(I18
I1
tg1529
I00
S'W\xd4\x8f?\x94\xdb\xb0?\xae\xa9\xc0?`K\xa0?\xa1\xd0\tA\xc1\xca\x08A\xf0e\x0fA\x83\x8a/@\xf5J\x02@`\xf4H@lc\xf0@\xfaR7@\x1fl\xb2@\x88\x1b\x88A\xd8Y7A\x84=\xac@\x1e\xb6:@\xf8\x88\xeb?'
S'\x00\x00\x00\x00\x00\x00\x00\x00\x00\x00\x00\x00\x00\x00\x00\x00\x00\x00'
NtbstRp1878
(dp1879
g1544
(dp1880
g1524
I01
sg21
I00
sg20
I01
sg22
I01
sg19
I00
sg23
I01
sg1539
I01
ssg1546
g1865
sg1547
(lp1881
g1524
ag1539
ag19
ag20
ag21
ag22
ag23
asg1549
(lp1882
I18
aI1
asbsg1551
g1552
sg1553
g1510
(g1511
(I0
tS'b'
tRp1883
(I1
(I18
I1
tg1514
I00
(lp1884
I16
aI17
aI0
aI11
aI5
aI3
aI1
aI4
aI6
aI15
aI8
aI9
aI10
aI2
aI13
aI12
aI7
aI14
atbsg1556
I01
sg1557
I1
sg1558
I-1
sg1559
(lp1885
g1
(g1561
g1508
(dp1886
g979
g1013
sVY
L2L
sg981
L2L
sg982
g1014
sg990
L2L
sg987
L2L
sg988
g985
sVX
L3L
sg984
L0L
sg992
g995
sg994
L0L
sg996
g1017
stRp1887
ag1
(g1561
g1508
(dp1888
g979
g1052
sVY
L2L
sg981
L2L
sg982
g1053
sg990
L3L
sg987
L3L
sg988
g1025
sVX
L6L
sg984
L0L
sg992
g1027
sg994
L0L
sg996
g1017
stRp1889
ag1
(g1561
g1508
(dp1890
g979
g1111
sVY
L4L
sg981
L2L
sg982
g1112
sg990
L1L
sg987
L1L
sg988
g995
sVX
L8L
sg984
L0L
sg992
g1025
sg994
L0L
sg996
g1047
stRp1891
ag1
(g1561
g1508
(dp1892
g979
g1042
sVY
L2L
sg981
L2L
sg982
g1043
sg990
L6L
sg987
L6L
sg988
g1045
sVX
L3L
sg984
L0L
sg992
g985
sg994
L0L
sg996
g1047
stRp1893
ag1
(g1561
g1508
(dp1894
g979
g1060
sVY
L8L
sg981
L3L
sg982
g1061
sg990
L9L
sg987
L9L
sg988
g993
sVX
L6L
sg984
g1007
sg992
g1045
sg994
L0L
sg996
g1037
stRp1895
ag1
(g1561
g1508
(dp1896
g979
g1033
sVY
L2L
sg981
L3L
sg982
g1034
sg990
L4L
sg987
L4L
sg988
g1025
sVX
L3L
sg984
g989
sg992
g995
sg994
L0L
sg996
g1037
stRp1897
ag1
(g1561
g1508
(dp1898
g979
g1068
sVY
L3L
sg981
L3L
sg982
g1069
sg990
L6L
sg987
L6L
sg988
g1045
sVX
L3L
sg984
g989
sg992
g993
sg994
L0L
sg996
g1072
stRp1899
ag1
(g1561
g1508
(dp1900
g979
g1136
sVY
L2L
sg981
L3L
sg982
g1137
sg990
L3L
sg987
L3L
sg988
g1027
sVX
L8L
sg984
g993
sg992
g985
sg994
L0L
sg996
g1072
stRp1901
ag1
(g1561
g1508
(dp1902
g979
g1086
sVY
L3L
sg981
L3L
sg982
g1087
sg990
L7L
sg987
L7L
sg988
g989
sVX
L6L
sg984
g995
sg992
g985
sg994
L0L
sg996
g1090
stRp1903
ag1
(g1561
g1508
(dp1904
g979
g1095
sVY
L3L
sg981
L3L
sg982
g1096
sg990
L1L
sg987
L1L
sg988
g993
sVX
L3L
sg984
g1045
sg992
g1007
sg994
L0L
sg996
g1090
stRp1905
ag1
(g1561
g1508
(dp1906
g979
g1103
sVY
L6L
sg981
L4L
sg982
g1104
sg990
L8L
sg987
L8L
sg988
g1005
sVX
L6L
sg984
g1025
sg992
g1045
sg994
g1007
sg996
g1028
stRp1907
ag1
(g1561
g1508
(dp1908
g979
g1022
sVY
L9L
sg981
L4L
sg982
g1023
sg990
L8L
sg987
L8L
sg988
g1025
sVX
L3L
sg984
g989
sg992
g1027
sg994
g1005
sg996
g1028
stRp1909
ag1
(g1561
g1508
(dp1910
g979
g1128
sVY
L2L
sg981
L4L
sg982
g1129
sg990
L8L
sg987
L8L
sg988
g1045
sVX
L3L
sg984
g985
sg992
g1005
sg994
g1007
sg996
g1123
stRp1911
ag1
(g1561
g1508
(dp1912
g979
g1119
sVY
L3L
sg981
L4L
sg982
g1120
sg990
L2L
sg987
L2L
sg988
g1008
sVX
L2L
sg984
g1005
sg992
g1007
sg994
g1025
sg996
g1123
stRp1913
ag1
(g1561
g1508
(dp1914
g979
g1144
sVY
L7L
sg981
L4L
sg982
g1145
sg990
L8L
sg987
L8L
sg988
g1005
sVX
L6L
sg984
g1045
sg992
g1007
sg994
g1025
sg996
g1081
stRp1915
ag1
(g1561
g1508
(dp1916
g979
g1077
sVY
L9L
sg981
L4L
sg982
g1078
sg990
L1L
sg987
L1L
sg988
g985
sVX
L9L
sg984
g995
sg992
g1007
sg994
g1005
sg996
g1081
stRp1917
ag1
(g1561
g1508
(dp1918
g979
g980
sVY
L3L
sg981
L4L
sg982
g983
sg990
L6L
sg987
L6L
sg988
g989
sVX
L9L
sg984
g985
sg992
g993
sg994
g995
sg996
g997
stRp1919
ag1
(g1561
g1508
(dp1920
g979
g1002
sVY
L4L
sg981
L4L
sg982
g1003
sg990
L6L
sg987
L6L
sg988
g1005
sVX
L2L
sg984
g985
sg992
g1007
sg994
g1008
sg996
g997
stRp1921
asg1574
Nsg1575
I14
sg1576
I18
sg1577
I0
sg1578
I18
sbag1
(g1496
g3
NtRp1922
(dp1923
g1499
Nsg1500
(lp1924
sg1502
I327812048
sg10
g1582
sg6
g1504
sg1505
I1
sg24
I01
sg25
g26
sg1506
g1
(g1507
g1508
(dp1925
g22
g1525
(g1526
g1511
g1527
S'b'
tRp1926
(I1
(I18
I1
tg1529
I00
S'\x00\x00\x80?\x00\x00\x80?\x00\x00\x80?\x00\x00\x80?\x00\x00\x80?\x00\x00\x80?\x00\x00\x80?\x00\x00\x80?\x00\x00\x80?\x00\x00\x80?\x00\x00\x80?\x00\x00\x80?\x00\x00\x80?\x00\x00\x80?\x00\x00\x80?\x00\x00\x80?\x00\x00\x80?\x00\x00\x00\x00'
S'\x00\x00\x00\x00\x00\x00\x00\x00\x00\x00\x00\x00\x00\x00\x00\x00\x00\x00'
Ntbsg19
g1510
(g1511
(I0
tS'b'
tRp1927
(I1
(I18
I1
tg1514
I00
(lp1928
g1278
ag1198
ag1226
ag1217
ag1310
ag1319
ag1294
ag1177
ag1302
ag1269
ag1234
ag1186
ag1286
ag1208
ag1242
ag1159
ag1250
ag1261
atbsg23
g1525
(g1526
g1511
g1527
S'b'
tRp1929
(I1
(I18
I1
tg1529
I00
S'\x0b]I@\xe9Y\x1f@\xdf\x85\xbd?\xcb\x1cG@\x84\xf2\xb2@\xf0KV@}\xb6e@(\x1eI@U\x1d\xaa@E\xf6\x8d@\xaaeDA\x194\x1aA\xf6\xaa\xa8@\x13h\x9b@\\\x02\x8c@\x95\xba\x9b@\xb3B3A\x00\x00\x00\x00'
S'\x00\x00\x00\x00\x00\x00\x00\x00\x00\x00\x00\x00\x00\x00\x00\x00\x00\x01'
Ntbsg1524
g1525
(g1526
g1511
g1527
S'b'
tRp1930
(I1
(I18
I1
tg1529
I00
S'\x00\x00\x80?\x00\x00\x80?\x00\x00\x80?\x00\x00\x80?\x00\x00\x80?\x00\x00\x80?\x00\x00\x80?\x00\x00\x80?\x00\x00\x80?\x00\x00\x80?\x00\x00\x80?\x00\x00\x80?\x00\x00\x80?\x00\x00\x80?\x00\x00\x80?\x00\x00\x80?\x00\x00\x80?\x00\x00\x80?'
S'\x00\x00\x00\x00\x00\x00\x00\x00\x00\x00\x00\x00\x00\x00\x00\x00\x00\x00'
Ntbsg21
g1510
(g1511
(I0
tS'b'
tRp1931
(I1
(I18
I1
tg1514
I00
(lp1932
S'7'
aS'9'
aS'2'
aS'5'
aS'9'
aS'3'
aS'8'
aS'3'
aS'9'
aS'6'
aS'5'
aS'9'
aS'5'
aS'7'
aS'6'
aS'9'
aS'5'
aNatbsg1539
g1525
(g1526
g1511
g1527
S'b'
tRp1933
(I1
(I18
I1
tg1529
I00
S'\x00\x00@A\x00\x00@@\x00\x00\xc0@\x00\x00\xa0@\x00\x00\x80A\x00\x00\x88A\x00\x00`A\x00\x00\x80?\x00\x00pA\x00\x000A\x00\x00\xe0@\x00\x00\x00@\x00\x00PA\x00\x00\x80@\x00\x00\x00A\x00\x00\x00\x00\x00\x00\x10A\x00\x00 A'
S'\x00\x00\x00\x00\x00\x00\x00\x00\x00\x00\x00\x00\x00\x00\x00\x00\x00\x00'
Ntbsg20
g1525
(g1526
g1511
g1527
S'b'
tRp1934
(I1
(I18
I1
tg1529
I00
S'a\xf2\xc6?\xbb\xca\x0f@\xa3\xa9\x93?\xcd\xb6\xb4?\xab\xef\x91@Y\x8b\xe1?\x07${@\xc7^\xa4?c\xf4\x9d?*\x1bj@\xb1\xddn@\xa8\xb4l@\x15y\xe6@\x0et\xbc@M\x85\xa4@\x17\x82?@4\xda\x8d@`-\x98@'
S'\x00\x00\x00\x00\x00\x00\x00\x00\x00\x00\x00\x00\x00\x00\x00\x00\x00\x00'
NtbstRp1935
(dp1936
g1544
(dp1937
g1524
I01
sg21
I00
sg20
I01
sg22
I01
sg19
I00
sg23
I01
sg1539
I01
ssg1546
g1922
sg1547
(lp1938
g1524
ag1539
ag19
ag20
ag21
ag22
ag23
asg1549
(lp1939
I18
aI1
asbsg1551
g1552
sg1553
g1510
(g1511
(I0
tS'b'
tRp1940
(I1
(I18
I1
tg1514
I00
(lp1941
I15
aI7
aI11
aI1
aI13
aI3
aI2
aI10
aI14
aI16
aI17
aI9
aI0
aI12
aI6
aI8
aI4
aI5
atbsg1556
I01
sg1557
I1
sg1558
I-1
sg1559
(lp1942
g1
(g1561
g1508
(dp1943
g1152
g1276
sVY
L5L
sg1154
L2L
sg1155
g1277
sg1163
L7L
sg1160
L7L
sg1161
g1187
sVX
L4L
sg1157
L0L
sg1165
g1253
sg1167
L0L
sg1169
g1201
stRp1944
ag1
(g1561
g1508
(dp1945
g1152
g1196
sVY
L3L
sg1154
L2L
sg1155
g1197
sg1163
L9L
sg1160
L9L
sg1161
g1166
sVX
L4L
sg1157
L0L
sg1165
g1200
sg1167
L0L
sg1169
g1201
stRp1946
ag1
(g1561
g1508
(dp1947
g1152
g1224
sVY
L8L
sg1154
L2L
sg1155
g1225
sg1163
L2L
sg1160
L2L
sg1161
g1158
sVX
L8L
sg1157
L0L
sg1165
g1168
sg1167
L0L
sg1169
g1219
stRp1948
ag1
(g1561
g1508
(dp1949
g1152
g1215
sVY
L2L
sg1154
L2L
sg1155
g1216
sg1163
L5L
sg1160
L5L
sg1161
g1158
sVX
L8L
sg1157
L0L
sg1165
g1162
sg1167
L0L
sg1169
g1219
stRp1950
ag1
(g1561
g1508
(dp1951
g1152
g1308
sVY
L2L
sg1154
L3L
sg1155
g1309
sg1163
L9L
sg1160
L9L
sg1161
g1166
sVX
L7L
sg1157
g1252
sg1165
g1158
sg1167
L0L
sg1169
g1312
stRp1952
ag1
(g1561
g1508
(dp1953
g1152
g1317
sVY
L2L
sg1154
L3L
sg1155
g1318
sg1163
L3L
sg1160
L3L
sg1161
g1162
sVX
L8L
sg1157
g1187
sg1165
g1200
sg1167
L0L
sg1169
g1312
stRp1954
ag1
(g1561
g1508
(dp1955
g1152
g1292
sVY
L2L
sg1154
L3L
sg1155
g1293
sg1163
L8L
sg1160
L8L
sg1161
g1189
sVX
L9L
sg1157
g1252
sg1165
g1187
sg1167
L0L
sg1169
g1179
stRp1956
ag1
(g1561
g1508
(dp1957
g1152
g1175
sVY
L3L
sg1154
L3L
sg1155
g1176
sg1163
L3L
sg1160
L3L
sg1161
g1158
sVX
L2L
sg1157
g1166
sg1165
g1162
sg1167
L0L
sg1169
g1179
stRp1958
ag1
(g1561
g1508
(dp1959
g1152
g1300
sVY
L3L
sg1154
L3L
sg1155
g1301
sg1163
L9L
sg1160
L9L
sg1161
g1187
sVX
L3L
sg1157
g1253
sg1165
g1166
sg1167
L0L
sg1169
g1271
stRp1960
ag1
(g1561
g1508
(dp1961
g1152
g1267
sVY
L2L
sg1154
L3L
sg1155
g1268
sg1163
L6L
sg1160
L6L
sg1161
g1162
sVX
L3L
sg1157
g1200
sg1165
g1166
sg1167
L0L
sg1169
g1271
stRp1962
ag1
(g1561
g1508
(dp1963
g1152
g1232
sVY
L4L
sg1154
L4L
sg1155
g1233
sg1163
L5L
sg1160
L5L
sg1161
g1168
sVX
L3L
sg1157
g1162
sg1165
g1158
sg1167
g1166
sg1169
g1191
stRp1964
ag1
(g1561
g1508
(dp1965
g1152
g1184
sVY
L9L
sg1154
L4L
sg1155
g1185
sg1163
L9L
sg1160
L9L
sg1161
g1187
sVX
L3L
sg1157
g1162
sg1165
g1189
sg1167
g1190
sg1169
g1191
stRp1966
ag1
(g1561
g1508
(dp1967
g1152
g1284
sVY
L4L
sg1154
L4L
sg1155
g1285
sg1163
L5L
sg1160
L5L
sg1161
g1200
sVX
L5L
sg1157
g1252
sg1165
g1187
sg1167
g1166
sg1169
g1210
stRp1968
ag1
(g1561
g1508
(dp1969
g1152
g1206
sVY
L2L
sg1154
L4L
sg1155
g1207
sg1163
L7L
sg1160
L7L
sg1161
g1189
sVX
L2L
sg1157
g1166
sg1165
g1162
sg1167
g1187
sg1169
g1210
stRp1970
ag1
(g1561
g1508
(dp1971
g1152
g1240
sVY
L4L
sg1154
L4L
sg1155
g1241
sg1163
L6L
sg1160
L6L
sg1161
g1168
sVX
L4L
sg1157
g1200
sg1165
g1166
sg1167
g1162
sg1169
g1170
stRp1972
ag1
(g1561
g1508
(dp1973
g1152
g1153
sVY
L8L
sg1154
L4L
sg1155
g1156
sg1163
L9L
sg1160
L9L
sg1161
g1162
sVX
L8L
sg1157
g1158
sg1165
g1166
sg1167
g1168
sg1169
g1170
stRp1974
ag1
(g1561
g1508
(dp1975
g1152
g1248
sVY
L4L
sg1154
L4L
sg1155
g1249
sg1163
L5L
sg1160
L5L
sg1161
g1190
sVX
L5L
sg1157
g1168
sg1165
g1252
sg1167
g1253
sg1169
g1254
stRp1976
ag1
(g1561
g1508
(dp1977
g1152
g1259
sVY
L4L
sg1154
L4L
sg1155
g1260
sg1163
L5L
sg1160
L5L
sg1161
g1162
sVX
L7L
sg1157
g1187
sg1165
g1190
sg1167
g1189
sg1169
g1254
stRp1978
asg1574
Nsg1575
I5
sg1576
I18
sg1577
I0
sg1578
I18
sbag1
(g1496
g3
NtRp1979
(dp1980
g1499
Nsg1500
(lp1981
sg1502
I327812048
sg10
g1582
sg6
g1504
sg1505
I1
sg24
I01
sg25
g26
sg1506
g1
(g1507
g1508
(dp1982
g22
g1525
(g1526
g1511
g1527
S'b'
tRp1983
(I1
(I18
I1
tg1529
I00
S'\x00\x00\x80?\x00\x00\x80?\x00\x00\x80?\x00\x00\x80?\x00\x00\x80?\x00\x00\x80?\x00\x00\x80?\x00\x00\x80?\x00\x00\x80?\x00\x00\x80?\x00\x00\x80?\x00\x00\x80?\x00\x00\x80?\x00\x00\x80?\x00\x00\x80?\x00\x00\x80?\x00\x00\x80?\x00\x00\x80?'
S'\x00\x00\x00\x00\x00\x00\x00\x00\x00\x00\x00\x00\x00\x00\x00\x00\x00\x00'
Ntbsg19
g1510
(g1511
(I0
tS'b'
tRp1984
(I1
(I18
I1
tg1514
I00
(lp1985
g1331
ag1460
ag1476
ag1409
ag1468
ag1349
ag1418
ag1371
ag1426
ag1492
ag1391
ag1452
ag1444
ag1382
ag1435
ag1484
ag1360
ag1401
atbsg23
g1525
(g1526
g1511
g1527
S'b'
tRp1986
(I1
(I18
I1
tg1529
I00
S'#P\xc7?>@\xf0?\xb6>\x82@X\xc8\x18@\xda\x18\xbf@\xe3\xf4n@\xd8\xefo@\xb8>\xdc@\xb8k\x8b@Vw\x8d@\xaa\xb3\xb0@\x83k\x18A\xfd\x95\xa8@\x9a\x8a\xa0@\xb0\xcc\x01A1U\x9f@\xc4h\x8a@tZ\x9c@'
S'\x00\x00\x00\x00\x00\x00\x00\x00\x00\x00\x00\x00\x00\x00\x00\x00\x00\x00'
Ntbsg1524
g1525
(g1526
g1511
g1527
S'b'
tRp1987
(I1
(I18
I1
tg1529
I00
S'\x00\x00\x80?\x00\x00\x80?\x00\x00\x80?\x00\x00\x80?\x00\x00\x80?\x00\x00\x80?\x00\x00\x80?\x00\x00\x80?\x00\x00\x80?\x00\x00\x80?\x00\x00\x80?\x00\x00\x80?\x00\x00\x80?\x00\x00\x80?\x00\x00\x80?\x00\x00\x80?\x00\x00\x80?\x00\x00\x80?'
S'\x00\x00\x00\x00\x00\x00\x00\x00\x00\x00\x00\x00\x00\x00\x00\x00\x00\x00'
Ntbsg21
g1510
(g1511
(I0
tS'b'
tRp1988
(I1
(I18
I1
tg1514
I00
(lp1989
S'7'
aS'2'
aS'8'
aS'8'
aS'4'
aS'4'
aS'9'
aS'2'
aS'5'
aS'1'
aS'2'
aS'8'
aS'3'
aS'4'
aS'7'
aS'6'
aS'8'
aS'3'
atbsg1539
g1525
(g1526
g1511
g1527
S'b'
tRp1990
(I1
(I18
I1
tg1529
I00
S'\x00\x00\x00\x00\x00\x00PA\x00\x00pA\x00\x00\xe0@\x00\x00`A\x00\x00\x80?\x00\x00\x00A\x00\x00@@\x00\x00\x10A\x00\x00\x88A\x00\x00\xa0@\x00\x00@A\x00\x000A\x00\x00\x80@\x00\x00 A\x00\x00\x80A\x00\x00\x00@\x00\x00\xc0@'
S'\x00\x00\x00\x00\x00\x00\x00\x00\x00\x00\x00\x00\x00\x00\x00\x00\x00\x00'
Ntbsg20
g1525
(g1526
g1511
g1527
S'b'
tRp1991
(I1
(I18
I1
tg1529
I00
S'ou\x9a?/w)?\xd3\xe8(?\x99l5?\xee\xb2\xb6?\xa41\x8c?\x08`\xf0?\n\xd8\x0f@\x08f\xc3?\x1cgw@1|;@\x99\xb9\xd9?Y\x99\xf0?A_\xbf?ow#@o\x8e\xa9@b\x07\xe6?\x97\x9f\r@'
S'\x00\x00\x00\x00\x00\x00\x00\x00\x00\x00\x00\x00\x00\x00\x00\x00\x00\x00'
NtbstRp1992
(dp1993
g1544
(dp1994
g1524
I01
sg21
I00
sg20
I01
sg22
I01
sg19
I00
sg23
I01
sg1539
I01
ssg1546
g1979
sg1547
(lp1995
g1524
ag1539
ag19
ag20
ag21
ag22
ag23
asg1549
(lp1996
I18
aI1
asbsg1551
g1552
sg1553
g1510
(g1511
(I0
tS'b'
tRp1997
(I1
(I18
I1
tg1514
I00
(lp1998
I0
aI5
aI16
aI7
aI13
aI10
aI17
aI3
aI6
aI8
aI14
aI12
aI11
aI1
aI4
aI2
aI15
aI9
atbsg1556
I01
sg1557
I1
sg1558
I-1
sg1559
(lp1999
g1
(g1561
g1508
(dp2000
g1325
g1326
sVY
L6L
sg1327
L2L
sg1328
g1329
sg1335
L7L
sg1332
L7L
sg1333
g1334
sVX
L3L
sg1330
L0L
sg1337
g1338
sg1339
L0L
sg1340
g1341
stRp2001
ag1
(g1561
g1508
(dp2002
g1325
g1458
sVY
L4L
sg1327
L2L
sg1328
g1459
sg1335
L2L
sg1332
L2L
sg1333
g1374
sVX
L5L
sg1330
L0L
sg1337
g1372
sg1339
L0L
sg1340
g1341
stRp2003
ag1
(g1561
g1508
(dp2004
g1325
g1474
sVY
L2L
sg1327
L2L
sg1328
g1475
sg1335
L8L
sg1332
L8L
sg1333
g1338
sVX
L2L
sg1330
L0L
sg1337
g1348
sg1339
L0L
sg1340
g1411
stRp2005
ag1
(g1561
g1508
(dp2006
g1325
g1407
sVY
L2L
sg1327
L2L
sg1328
g1408
sg1335
L8L
sg1332
L8L
sg1333
g1351
sVX
L2L
sg1330
L0L
sg1337
g1348
sg1339
L0L
sg1340
g1411
stRp2007
ag1
(g1561
g1508
(dp2008
g1325
g1466
sVY
L3L
sg1327
L3L
sg1328
g1467
sg1335
L4L
sg1332
L4L
sg1333
g1361
sVX
L8L
sg1330
g1359
sg1337
g1393
sg1339
L0L
sg1340
g1352
stRp2009
ag1
(g1561
g1508
(dp2010
g1325
g1346
sVY
L2L
sg1327
L3L
sg1328
g1347
sg1335
L4L
sg1332
L4L
sg1333
g1334
sVX
L3L
sg1330
g1348
sg1337
g1351
sg1339
L0L
sg1340
g1352
stRp2011
ag1
(g1561
g1508
(dp2012
g1325
g1416
sVY
L2L
sg1327
L3L
sg1328
g1417
sg1335
L9L
sg1332
L9L
sg1333
g1338
sVX
L2L
sg1330
g1361
sg1337
g1374
sg1339
L0L
sg1340
g1375
stRp2013
ag1
(g1561
g1508
(dp2014
g1325
g1369
sVY
L2L
sg1327
L3L
sg1328
g1370
sg1335
L2L
sg1332
L2L
sg1333
g1372
sVX
L9L
sg1330
g1334
sg1337
g1374
sg1339
L0L
sg1340
g1375
stRp2015
ag1
(g1561
g1508
(dp2016
g1325
g1424
sVY
L4L
sg1327
L3L
sg1328
g1425
sg1335
L5L
sg1332
L5L
sg1333
g1361
sVX
L8L
sg1330
g1393
sg1337
g1363
sg1339
L0L
sg1340
g1428
stRp2017
ag1
(g1561
g1508
(dp2018
g1325
g1490
sVY
L6L
sg1327
L3L
sg1328
g1491
sg1335
L1L
sg1332
L1L
sg1333
g1374
sVX
L8L
sg1330
g1372
sg1337
g1334
sg1339
L0L
sg1340
g1428
stRp2019
ag1
(g1561
g1508
(dp2020
g1325
g1389
sVY
L3L
sg1327
L4L
sg1328
g1390
sg1335
L2L
sg1332
L2L
sg1333
g1348
sVX
L6L
sg1330
g1374
sg1337
g1393
sg1339
g1334
sg1340
g1394
stRp2021
ag1
(g1561
g1508
(dp2022
g1325
g1450
sVY
L2L
sg1327
L4L
sg1328
g1451
sg1335
L8L
sg1332
L8L
sg1333
g1374
sVX
L2L
sg1330
g1359
sg1337
g1351
sg1339
g1361
sg1340
g1394
stRp2023
ag1
(g1561
g1508
(dp2024
g1325
g1442
sVY
L3L
sg1327
L4L
sg1328
g1443
sg1335
L3L
sg1332
L3L
sg1333
g1393
sVX
L4L
sg1330
g1361
sg1337
g1374
sg1339
g1359
sg1340
g1384
stRp2025
ag1
(g1561
g1508
(dp2026
g1325
g1380
sVY
L3L
sg1327
L4L
sg1328
g1381
sg1335
L4L
sg1332
L4L
sg1333
g1351
sVX
L7L
sg1330
g1359
sg1337
g1334
sg1339
g1374
sg1340
g1384
stRp2027
ag1
(g1561
g1508
(dp2028
g1325
g1433
sVY
L4L
sg1327
L4L
sg1328
g1434
sg1335
L7L
sg1332
L7L
sg1333
g1374
sVX
L8L
sg1330
g1338
sg1337
g1334
sg1339
g1348
sg1340
g1437
stRp2029
ag1
(g1561
g1508
(dp2030
g1325
g1482
sVY
L3L
sg1327
L4L
sg1328
g1483
sg1335
L6L
sg1332
L6L
sg1333
g1348
sVX
L5L
sg1330
g1372
sg1337
g1361
sg1339
g1363
sg1340
g1437
stRp2031
ag1
(g1561
g1508
(dp2032
g1325
g1357
sVY
L2L
sg1327
L4L
sg1328
g1358
sg1335
L8L
sg1332
L8L
sg1333
g1361
sVX
L4L
sg1330
g1359
sg1337
g1363
sg1339
g1338
sg1340
g1364
stRp2033
ag1
(g1561
g1508
(dp2034
g1325
g1399
sVY
L5L
sg1327
L4L
sg1328
g1400
sg1335
L3L
sg1332
L3L
sg1333
g1363
sVX
L9L
sg1330
g1359
sg1337
g1361
sg1339
g1372
sg1340
g1364
stRp2035
asg1574
Nsg1575
I9
sg1576
I18
sg1577
I0
sg1578
I18
sbasS'savePickle'
p2036
I00
sb.