ccopy_reg
_reconstructor
p1
(cpsychopy.data
ExperimentHandler
p2
c__builtin__
object
p3
NtRp4
(dp5
S'originPath'
p6
NsS'dataFileName'
p7
VC:\u005cUsers\u005cexperimenter\u005cDesktop\u005cExperiments\u005cKRITL\u005cdata/31050_KRITL_2017_May_12_0908
p8
sS'runtimeInfo'
p9
NsS'name'
p10
S'KRITL'
p11
sS'dataNames'
p12
(lp13
S'practice_encoding.keys'
p14
aS'practice_encoding.rt'
p15
aS'practice_execution.keys'
p16
aS'practice_execution.corr'
p17
aS'practice_execution.rt'
p18
aS'encoding.keys'
p19
aS'encoding.rt'
p20
aS'execution.keys'
p21
aS'execution.corr'
p22
aS'execution.rt'
p23
asS'autoLog'
p24
I01
sS'extraInfo'
p25
(dp26
S'date'
p27
V2017_May_12_0908
p28
sS'frameRate'
p29
cnumpy.core.multiarray
scalar
p30
(cnumpy
dtype
p31
(S'f8'
I0
I1
tRp32
(I3
S'<'
NNNI-1
I-1
I0
tbS'\x18#\xe7\xd5\xa5\x00N@'
tRp33
sS'expName'
p34
g11
sVsession
p35
V001
p36
sVparticipant
p37
V31050
p38
ssS'loopsUnfinished'
p39
(lp40
sS'saveWideText'
p41
I00
sS'thisEntry'
p42
(dp43
sS'version'
p44
S''
sS'_paramNamesSoFar'
p45
(lp46
Voperationc
p47
aVoperationb
p48
aVoperationa
p49
aVcorrectresponse
p50
aVvaluey
p51
aVoperationd
p52
aVcondition
p53
aVvaluex
p54
aVRule
p55
aVOperatora
p56
aVLength
p57
aVIntermediate
p58
aVCorrectResponse
p59
aVResult
p60
aVY
aVX
aVOperatorc
p61
aVOperatorb
p62
aVOperatord
p63
aVStructure
p64
asS'entries'
p65
(lp66
(dp67
g18
F5.2328027070325334
sg29
g33
sg17
I0
sg47
L0L
sg48
VADD
p68
sg49
Vdecrease
p69
sg35
g36
sg50
L7L
sS'practice_trials.thisTrialN'
p70
I0
sg52
L0L
sS'practice_trials.thisRepN'
p71
I0
sg37
g38
sg53
L2L
sg27
g28
sg16
S'2'
sg14
(lp72
S'space'
p73
asS'practice_trials.thisIndex'
p74
I0
sS'practice_trials.thisN'
p75
I0
sg34
g11
sg15
(lp76
F4.0997549905587221
asg51
L5L
sg54
L3L
sa(dp77
g35
g36
sg47
Vincrease
p78
sg27
g28
sg16
Nsg29
g33
sg14
(lp79
S'space'
p80
asg53
L4L
sg49
Vdouble
p81
sg17
I0
sS'practice_trials.thisN'
p82
I1
sg48
VDIVIDE
p83
sS'practice_trials.thisIndex'
p84
I5
sg34
g11
sg50
L9L
sS'practice_trials.thisTrialN'
p85
I1
sg52
Vtriple
p86
sS'practice_trials.thisRepN'
p87
I0
sg37
g38
sg54
L8L
sg51
L8L
sg15
(lp88
F12.64908881757583
asa(dp89
g18
F8.0827926105848746
sg29
g33
sg17
I1
sg47
g78
sg48
g83
sg49
g86
sg35
g36
sg50
L3L
sS'practice_trials.thisTrialN'
p90
I2
sg52
L0L
sS'practice_trials.thisRepN'
p91
I0
sg37
g38
sg53
L3L
sg27
g28
sg16
S'3'
sg14
(lp92
S'space'
p93
asS'practice_trials.thisIndex'
p94
I4
sS'practice_trials.thisN'
p95
I2
sg34
g11
sg15
(lp96
F9.3993041326175444
asg51
L3L
sg54
L2L
sa(dp97
g18
F2.4998640391859226
sg29
g33
sg17
I1
sg47
L0L
sg48
g68
sg49
Vhalf
p98
sg35
g36
sg50
L7L
sS'practice_trials.thisTrialN'
p99
I3
sg52
L0L
sS'practice_trials.thisRepN'
p100
I0
sg37
g38
sg53
L2L
sg27
g28
sg16
S'7'
sg14
(lp101
S'space'
p102
asS'practice_trials.thisIndex'
p103
I2
sS'practice_trials.thisN'
p104
I3
sg34
g11
sg15
(lp105
F4.0164300855249166
asg51
L5L
sg54
L4L
sa(dp106
g18
F6.9661259847489418
sg29
g33
sg17
I1
sg47
g68
sg48
Vtriple 
p107
sg49
g98
sg35
g36
sg50
L8L
sS'practice_trials.thisTrialN'
p108
I4
sg52
L0L
sS'practice_trials.thisRepN'
p109
I0
sg37
g38
sg53
L3L
sg27
g28
sg16
S'8'
sg14
(lp110
S'space'
p111
asS'practice_trials.thisIndex'
p112
I3
sS'practice_trials.thisN'
p113
I4
sg34
g11
sg15
(lp114
F5.9329847930348478
asg51
L2L
sg54
L4L
sa(dp115
g18
F1.4165660813305294
sg29
g33
sg17
I1
sg47
L0L
sg48
g69
sg49
VTIMES
p116
sg35
g36
sg50
L8L
sS'practice_trials.thisTrialN'
p117
I5
sg52
L0L
sS'practice_trials.thisRepN'
p118
I0
sg37
g38
sg53
L2L
sg27
g28
sg16
S'8'
sg14
(lp119
S'space'
p120
asS'practice_trials.thisIndex'
p121
I1
sS'practice_trials.thisN'
p122
I5
sg34
g11
sg15
(lp123
F3.2331855670781806
asg51
L3L
sg54
L3L
sa(dp124
S'block.thisTrialN'
p125
I0
sS'block.thisRepN'
p126
I0
sg29
g33
sS'block.thisN'
p127
I0
sg55
(S'THIRD'
S'DOUBLE'
S'ADD'
S'DECREASE'
S'x'
S'y'
tp128
sg27
g28
sg57
L4L
sg58
(I5
I12
I24
I8
tp129
sg22
I0
sg20
F8.6827444556256523
sg23
F14.082167575819767
sVY
L7L
sVX
L6L
sg61
VADD
p130
sg35
g36
sg37
g38
sg21
S'5'
sg19
S'space'
p131
sg34
g11
sg60
L8L
sg56
Vdouble
p132
sg59
L8L
sS'block.thisIndex'
p133
I14
sg62
Vthird
p134
sg63
Vdecrease
p135
sg64
VUUBUxy
p136
sa(dp137
S'block.thisTrialN'
p138
I1
sS'block.thisRepN'
p139
I0
sg29
g33
sS'block.thisN'
p140
I1
sg55
(S'ADD'
S'HALF'
S'THIRD'
S'x'
S'y'
tp141
sg27
g28
sg57
L3L
sg58
(I2
I1
I9
tp142
sg22
I1
sg20
F6.266293512264383
sg23
F5.3331708336190786
sVY
L8L
sVX
L6L
sg61
g134
sg35
g36
sg37
g38
sg21
S'9'
sg19
S'space'
p143
sg34
g11
sg60
L9L
sg56
Vhalf
p144
sg59
L9L
sS'block.thisIndex'
p145
I4
sg62
g130
sg63
L0L
sg64
VBUUxy
p146
sa(dp147
S'block.thisTrialN'
p148
I2
sS'block.thisRepN'
p149
I0
sg29
g33
sS'block.thisN'
p150
I2
sg55
(S'SUBTRACT'
S'DECREASE'
S'x'
S'y'
tp151
sg27
g28
sg57
L2L
sg58
(I5
I3
tp152
sg22
I1
sg20
F3.7664865171245765
sg23
F2.099979317150428
sVY
L2L
sVX
L6L
sg61
L0L
sg35
g36
sg37
g38
sg21
S'3'
sg19
S'space'
p153
sg34
g11
sg60
L3L
sg56
g135
sg59
L3L
sS'block.thisIndex'
p154
I1
sg62
VSUBTRACT
p155
sg63
L0L
sg64
VBUxy
p156
sa(dp157
S'block.thisTrialN'
p158
I3
sS'block.thisRepN'
p159
I0
sg29
g33
sS'block.thisN'
p160
I3
sg55
(S'THIRD'
S'DOUBLE'
S'INCREASE'
S'TIMES'
S'x'
S'y'
tp161
sg27
g28
sg57
L4L
sg58
(I8
I9
I18
I6
tp162
sg22
I1
sg20
F7.0995936574036023
sg23
F10.849232932552695
sVY
L4L
sVX
L2L
sg61
Vincrease
p163
sg35
g36
sg37
g38
sg21
S'6'
sg19
S'space'
p164
sg34
g11
sg60
L6L
sg56
g132
sg59
L6L
sS'block.thisIndex'
p165
I17
sg62
g134
sg63
VTIMES
p166
sg64
VUUUBxy
p167
sa(dp168
S'block.thisTrialN'
p169
I4
sS'block.thisRepN'
p170
I0
sg29
g33
sS'block.thisN'
p171
I4
sg55
(S'THIRD'
S'TIMES'
S'DOUBLE'
S'DECREASE'
S'x'
S'y'
tp172
sg27
g28
sg57
L4L
sg58
(I1
I2
I6
I2
tp173
sg22
I1
sg20
F5.7496931695204694
sg23
F6.4328393832111033
sVY
L3L
sVX
L2L
sg61
g132
sg35
g36
sg37
g38
sg21
S'2'
sg19
S'space'
p174
sg34
g11
sg60
L2L
sg56
g166
sg59
L2L
sS'block.thisIndex'
p175
I13
sg62
g134
sg63
g135
sg64
VUBUUxy
p176
sa(dp177
S'block.thisTrialN'
p178
I5
sS'block.thisRepN'
p179
I0
sg29
g33
sS'block.thisN'
p180
I5
sg55
(S'THIRD'
S'HALF'
S'ADD'
S'x'
S'y'
tp181
sg27
g28
sg57
L3L
sg58
(I6
I3
I1
tp182
sg22
I1
sg20
F3.6332375716592651
sg23
F4.433057760426891
sVY
L3L
sVX
L3L
sg61
g130
sg35
g36
sg37
g38
sg21
S'1'
sg19
S'space'
p183
sg34
g11
sg60
L1L
sg56
g144
sg59
L1L
sS'block.thisIndex'
p184
I9
sg62
g134
sg63
L0L
sg64
VUUBxy
p185
sa(dp186
S'block.thisTrialN'
p187
I6
sS'block.thisRepN'
p188
I0
sg29
g33
sS'block.thisN'
p189
I6
sg55
(S'ADD'
S'DOUBLE'
S'DECREASE'
S'THIRD'
S'x'
S'y'
tp190
sg27
g28
sg57
L4L
sg58
(I2
I1
I2
I8
tp191
sg22
I1
sg20
F7.4661716549890116
sg23
F5.8829659125040052
sVY
L6L
sVX
L6L
sg61
g135
sg35
g36
sg37
g38
sg21
S'8'
sg19
S'space'
p192
sg34
g11
sg60
L8L
sg56
g132
sg59
L8L
sS'block.thisIndex'
p193
I10
sg62
g130
sg63
g134
sg64
VBUUUxy
p194
sa(dp195
S'block.thisTrialN'
p196
I7
sS'block.thisRepN'
p197
I0
sg29
g33
sS'block.thisN'
p198
I7
sg55
(S'DOUBLE'
S'ADD'
S'INCREASE'
S'THIRD'
S'x'
S'y'
tp199
sg27
g28
sg57
L4L
sg58
(I1
I2
I4
I8
tp200
sg22
I0
sg20
F6.5995658353058388
sg23
F7.4995907177071786
sVY
L2L
sVX
L3L
sg61
g163
sg35
g36
sg37
g38
sg21
S'2'
sg19
S'space'
p201
sg34
g11
sg60
L8L
sg56
g130
sg59
L8L
sS'block.thisIndex'
p202
I12
sg62
g132
sg63
g134
sg64
g176
sa(dp203
S'block.thisTrialN'
p204
I8
sS'block.thisRepN'
p205
I0
sg29
g33
sS'block.thisN'
p206
I8
sg55
(S'DIVIDE'
S'INCREASE'
S'x'
S'y'
tp207
sg27
g28
sg57
L2L
sg58
(I4
I2
tp208
sg22
I1
sg20
F2.6832564521755558
sg23
F2.2833587815111969
sVY
L2L
sVX
L3L
sg61
L0L
sg35
g36
sg37
g38
sg21
S'2'
sg19
S'space'
p209
sg34
g11
sg60
L2L
sg56
g163
sg59
L2L
sS'block.thisIndex'
p210
I0
sg62
VDIVIDE
p211
sg63
L0L
sg64
g156
sa(dp212
S'block.thisTrialN'
p213
I9
sS'block.thisRepN'
p214
I0
sg29
g33
sS'block.thisN'
p215
I9
sg55
(S'SUBTRACT'
S'DECREASE'
S'TRIPLE'
S'DOUBLE'
S'x'
S'y'
tp216
sg27
g28
sg57
L4L
sg58
(I6
I18
I17
I8
tp217
sg22
I0
sg20
F7.0328195752808824
sg23
F10.482627637815312
sVY
L9L
sVX
L3L
sg61
Vtriple
p218
sg35
g36
sg37
g38
sg21
S'2'
sg19
S'space'
p219
sg34
g11
sg60
L8L
sg56
g135
sg59
L8L
sS'block.thisIndex'
p220
I11
sg62
g155
sg63
g132
sg64
g194
sa(dp221
S'block.thisTrialN'
p222
I10
sS'block.thisRepN'
p223
I0
sg29
g33
sS'block.thisN'
p224
I10
sg55
(S'HALF'
S'ADD'
S'TRIPLE'
S'x'
S'y'
tp225
sg27
g28
sg57
L3L
sg58
(I9
I12
I6
tp226
sg22
I1
sg20
F4.1498480633599684
sg23
F4.8905958163377363
sVY
L3L
sVX
L3L
sg61
g218
sg35
g36
sg37
g38
sg21
S'6'
sg19
S'space'
p227
sg34
g11
sg60
L6L
sg56
g130
sg59
L6L
sS'block.thisIndex'
p228
I6
sg62
g144
sg63
L0L
sg64
VUBUxy
p229
sa(dp230
S'block.thisTrialN'
p231
I11
sS'block.thisRepN'
p232
I0
sg29
g33
sS'block.thisN'
p233
I11
sg55
(S'DECREASE'
S'DIVIDE'
S'x'
S'y'
tp234
sg27
g28
sg57
L2L
sg58
(I2
I1
tp235
sg22
I1
sg20
F2.1999915308842901
sg23
F2.8332109044422396
sVY
L4L
sVX
L8L
sg61
L0L
sg35
g36
sg37
g38
sg21
S'1'
sg19
S'space'
p236
sg34
g11
sg60
L1L
sg56
g211
sg59
L1L
sS'block.thisIndex'
p237
I2
sg62
g135
sg63
L0L
sg64
VUBxy
p238
sa(dp239
S'block.thisTrialN'
p240
I12
sS'block.thisRepN'
p241
I0
sg29
g33
sS'block.thisN'
p242
I12
sg55
(S'INCREASE'
S'SUBTRACT'
S'HALF'
S'x'
S'y'
tp243
sg27
g28
sg57
L3L
sg58
(I4
I2
I3
tp244
sg22
I0
sg20
F4.9662421726388857
sg23
F9.1994231901917374
sVY
L2L
sVX
L8L
sg61
g144
sg35
g36
sg37
g38
sg21
S'4'
sg19
S'space'
p245
sg34
g11
sg60
L3L
sg56
g155
sg59
L3L
sS'block.thisIndex'
p246
I7
sg62
g163
sg63
L0L
sg64
g229
sa(dp247
S'block.thisTrialN'
p248
I13
sS'block.thisRepN'
p249
I0
sg29
g33
sS'block.thisN'
p250
I13
sg55
(S'THIRD'
S'INCREASE'
S'DIVIDE'
S'DOUBLE'
S'x'
S'y'
tp251
sg27
g28
sg57
L4L
sg58
(I18
I2
I3
I1
tp252
sg22
I1
sg20
F5.1661672104528407
sg23
F5.5996879725571489
sVY
L9L
sVX
L9L
sg61
g211
sg35
g36
sg37
g38
sg21
S'1'
sg19
S'space'
p253
sg34
g11
sg60
L1L
sg56
g163
sg59
L1L
sS'block.thisIndex'
p254
I15
sg62
g134
sg63
g132
sg64
g136
sa(dp255
S'block.thisTrialN'
p256
I14
sS'block.thisRepN'
p257
I0
sg29
g33
sS'block.thisN'
p258
I14
sg55
(S'DIVIDE'
S'DECREASE'
S'TRIPLE'
S'x'
S'y'
tp259
sg27
g28
sg57
L3L
sg58
(I9
I8
I4
tp260
sg22
I1
sg20
F6.3829944345343392
sg23
F6.4163176072470378
sVY
L2L
sVX
L3L
sg61
g218
sg35
g36
sg37
g38
sg21
S'4'
sg19
S'space'
p261
sg34
g11
sg60
L4L
sg56
g135
sg59
L4L
sS'block.thisIndex'
p262
I5
sg62
g211
sg63
L0L
sg64
g146
sa(dp263
S'block.thisTrialN'
p264
I15
sS'block.thisRepN'
p265
I0
sg29
g33
sS'block.thisN'
p266
I15
sg55
(S'INCREASE'
S'ADD'
S'x'
S'y'
tp267
sg27
g28
sg57
L2L
sg58
(I5
I6
tp268
sg22
I1
sg20
F1.7664816176402383
sg23
F5.183101593342144
sVY
L2L
sVX
L3L
sg61
L0L
sg35
g36
sg37
g38
sg21
S'6'
sg19
S'space'
p269
sg34
g11
sg60
L6L
sg56
g130
sg59
L6L
sS'block.thisIndex'
p270
I3
sg62
g163
sg63
L0L
sg64
g238
sa(dp271
S'block.thisTrialN'
p272
I16
sS'block.thisRepN'
p273
I0
sg29
g33
sS'block.thisN'
p274
I16
sg55
(S'INCREASE'
S'TRIPLE'
S'DIVIDE'
S'x'
S'y'
tp275
sg27
g28
sg57
L3L
sg58
(I2
I6
I7
tp276
sg22
I1
sg20
F4.516481005208334
sg23
F3.6999532098852796
sVY
L3L
sVX
L6L
sg61
g211
sg35
g36
sg37
g38
sg21
S'7'
sg19
S'space'
p277
sg34
g11
sg60
L7L
sg56
g218
sg59
L7L
sS'block.thisIndex'
p278
I8
sg62
g163
sg63
L0L
sg64
g185
sa(dp279
S'block.thisTrialN'
p280
I17
sS'block.thisRepN'
p281
I0
sg29
g33
sS'block.thisN'
p282
I17
sg55
(S'HALF'
S'TRIPLE'
S'INCREASE'
S'DIVIDE'
S'x'
S'y'
tp283
sg27
g28
sg57
L4L
sg58
(I3
I4
I12
I6
tp284
sg22
I1
sg20
F6.049685715304804
sg23
F5.3329356581671163
sVY
L3L
sVX
L9L
sg61
g163
sg35
g36
sg37
g38
sg21
S'6'
sg19
S'space'
p285
sg34
g11
sg60
L6L
sg56
g218
sg59
L6L
sS'block.thisIndex'
p286
I16
sg62
g144
sg63
g211
sg64
g167
sa(dp287
S'block.thisTrialN'
p288
I0
sS'block.thisRepN'
p289
I0
sg29
g33
sS'block.thisN'
p290
I0
sVRule
p291
(S'DIVIDE'
S'DOUBLE'
S'INCREASE'
S'TRIPLE'
S'x'
S'y'
tp292
sg27
g28
sVLength
p293
L4L
sVIntermediate
p294
(I9
I10
I20
I5
tp295
sg22
I1
sg20
F5.9996080409036949
sg23
F7.1829385103628738
sVY
L4L
sVX
L3L
sVOperatorc
p296
Vincrease
p297
sg35
g36
sg37
g38
sg21
S'5'
sg19
S'space'
p298
sg34
g11
sVResult
p299
L5L
sVOperatora
p300
Vdouble
p301
sVCorrectResponse
p302
L5L
sS'block.thisIndex'
p303
I10
sVOperatorb
p304
VDIVIDE
p305
sVOperatord
p306
Vtriple
p307
sVStructure
p308
VBUUUxy
p309
sa(dp310
S'block.thisTrialN'
p311
I1
sS'block.thisRepN'
p312
I0
sg29
g33
sS'block.thisN'
p313
I1
sg291
(S'TIMES'
S'HALF'
S'INCREASE'
S'THIRD'
S'x'
S'y'
tp314
sg27
g28
sg293
L4L
sg294
(I1
I2
I1
I9
tp315
sg22
I0
sg20
F7.2161913404270308
sg23
F10.482711979013402
sVY
L9L
sVX
L3L
sg296
g297
sg35
g36
sg37
g38
sg21
S'4'
sg19
S'space'
p316
sg34
g11
sg299
L9L
sg300
Vhalf
p317
sg302
L9L
sS'block.thisIndex'
p318
I11
sg304
VTIMES
p319
sg306
Vthird
p320
sg308
g309
sa(dp321
S'block.thisTrialN'
p322
I2
sS'block.thisRepN'
p323
I0
sg29
g33
sS'block.thisN'
p324
I2
sg291
(S'TRIPLE'
S'INCREASE'
S'DIVIDE'
S'DOUBLE'
S'x'
S'y'
tp325
sg27
g28
sg293
L4L
sg294
(I16
I2
I3
I9
tp326
sg22
I1
sg20
F7.7828224624681752
sg23
F10.34937134309439
sVY
L8L
sVX
L8L
sg296
g305
sg35
g36
sg37
g38
sg21
S'9'
sg19
S'space'
p327
sg34
g11
sg299
L9L
sg300
g297
sg302
L9L
sS'block.thisIndex'
p328
I15
sg304
g307
sg306
g301
sg308
VUUBUxy
p329
sa(dp330
S'block.thisTrialN'
p331
I3
sS'block.thisRepN'
p332
I0
sg29
g33
sS'block.thisN'
p333
I3
sg291
(S'INCREASE'
S'DIVIDE'
S'x'
S'y'
tp334
sg27
g28
sg293
L2L
sg294
(I4
I5
tp335
sg22
I1
sg20
F2.8332511502376292
sg23
F3.3832807046564994
sVY
L2L
sVX
L8L
sg296
L0L
sg35
g36
sg37
g38
sg21
S'5'
sg19
S'space'
p336
sg34
g11
sg299
L5L
sg300
g305
sg302
L5L
sS'block.thisIndex'
p337
I3
sg304
g297
sg306
L0L
sg308
VUBxy
p338
sa(dp339
S'block.thisTrialN'
p340
I4
sS'block.thisRepN'
p341
I0
sg29
g33
sS'block.thisN'
p342
I4
sg291
(S'TRIPLE'
S'INCREASE'
S'SUBTRACT'
S'x'
S'y'
tp343
sg27
g28
sg293
L3L
sg294
(I1
I2
I6
tp344
sg22
I1
sg20
F3.8164543029997731
sg23
F2.9999954504746711
sVY
L2L
sVX
L3L
sg296
VSUBTRACT
p345
sg35
g36
sg37
g38
sg21
S'6'
sg19
S'space'
p346
sg34
g11
sg299
L6L
sg300
g297
sg302
L6L
sS'block.thisIndex'
p347
I9
sg304
g307
sg306
L0L
sg308
VUUBxy
p348
sa(dp349
S'block.thisTrialN'
p350
I5
sS'block.thisRepN'
p351
I0
sg29
g33
sS'block.thisN'
p352
I5
sg291
(S'INCREASE'
S'TIMES'
S'TRIPLE'
S'HALF'
S'x'
S'y'
tp353
sg27
g28
sg293
L4L
sg294
(I1
I3
I6
I7
tp354
sg22
I1
sg20
F7.4328652805124875
sg23
F5.5497208866290748
sVY
L2L
sVX
L2L
sg296
g307
sg35
g36
sg37
g38
sg21
S'7'
sg19
S'space'
p355
sg34
g11
sg299
L7L
sg300
g319
sg302
L7L
sS'block.thisIndex'
p356
I13
sg304
g297
sg306
g317
sg308
VUBUUxy
p357
sa(dp358
S'block.thisTrialN'
p359
I6
sS'block.thisRepN'
p360
I0
sg29
g33
sS'block.thisN'
p361
I6
sg291
(S'ADD'
S'HALF'
S'x'
S'y'
tp362
sg27
g28
sg293
L2L
sg294
(I2
I7
tp363
sg22
I1
sg20
F1.6500407182611525
sg23
F3.7831538778991671
sVY
L5L
sVX
L4L
sg296
L0L
sg35
g36
sg37
g38
sg21
S'7'
sg19
S'space'
p364
sg34
g11
sg299
L7L
sg300
g317
sg302
L7L
sS'block.thisIndex'
p365
I0
sg304
VADD
p366
sg306
L0L
sg308
VBUxy
p367
sa(dp368
S'block.thisTrialN'
p369
I7
sS'block.thisRepN'
p370
I0
sg29
g33
sS'block.thisN'
p371
I7
sg291
(S'SUBTRACT'
S'INCREASE'
S'HALF'
S'x'
S'y'
tp372
sg27
g28
sg293
L3L
sg294
(I4
I5
I3
tp373
sg22
I1
sg20
F4.3330980412283679
sg23
F5.4663728839950636
sVY
L2L
sVX
L8L
sg296
g317
sg35
g36
sg37
g38
sg21
S'3'
sg19
S'space'
p374
sg34
g11
sg299
L3L
sg300
g297
sg302
L3L
sS'block.thisIndex'
p375
I5
sg304
g345
sg306
L0L
sg308
VBUUxy
p376
sa(dp377
S'block.thisTrialN'
p378
I8
sS'block.thisRepN'
p379
I0
sg29
g33
sS'block.thisN'
p380
I8
sg291
(S'THIRD'
S'INCREASE'
S'HALF'
S'TIMES'
S'x'
S'y'
tp381
sg27
g28
sg293
L4L
sg294
(I28
I14
I15
I5
tp382
sg22
I1
sg20
F3.4998629892943427
sg23
F13.099147803921369
sVY
L4L
sVX
L7L
sg296
g317
sg35
g36
sg37
g38
sg21
S'5'
sg19
S'space'
p383
sg34
g11
sg299
L5L
sg300
g297
sg302
L5L
sS'block.thisIndex'
p384
I17
sg304
g320
sg306
g319
sg308
VUUUBxy
p385
sa(dp386
S'block.thisTrialN'
p387
I9
sS'block.thisRepN'
p388
I0
sg29
g33
sS'block.thisN'
p389
I9
sg291
(S'DIVIDE'
S'TRIPLE'
S'DECREASE'
S'x'
S'y'
tp390
sg27
g28
sg293
L3L
sg294
(I6
I18
I9
tp391
sg22
I0
sg20
F4.5330514260858763
sg23
F5.3997076405212283
sVY
L2L
sVX
L7L
sg296
Vdecrease
p392
sg35
g36
sg37
g38
sg21
S'8'
sg19
S'space'
p393
sg34
g11
sg299
L9L
sg300
g307
sg302
L9L
sS'block.thisIndex'
p394
I4
sg304
g305
sg306
L0L
sg308
g376
sa(dp395
S'block.thisTrialN'
p396
I10
sS'block.thisRepN'
p397
I0
sg29
g33
sS'block.thisN'
p398
I10
sg291
(S'DOUBLE'
S'DIVIDE'
S'x'
S'y'
tp399
sg27
g28
sg293
L2L
sg294
(I1
I2
tp400
sg22
I1
sg20
F1.6000424855737947
sg23
F1.7333694729022682
sVY
L8L
sVX
L8L
sg296
L0L
sg35
g36
sg37
g38
sg21
S'2'
sg19
S'space'
p401
sg34
g11
sg299
L2L
sg300
g305
sg302
L2L
sS'block.thisIndex'
p402
I2
sg304
g301
sg306
L0L
sg308
g338
sa(dp403
S'block.thisTrialN'
p404
I11
sS'block.thisRepN'
p405
I0
sg29
g33
sS'block.thisN'
p406
I11
sg291
(S'TRIPLE'
S'HALF'
S'ADD'
S'x'
S'y'
tp407
sg27
g28
sg293
L3L
sg294
(I6
I3
I9
tp408
sg22
I1
sg20
F4.3997888320300262
sg23
F3.066605749700102
sVY
L3L
sVX
L3L
sg296
g366
sg35
g36
sg37
g38
sg21
S'9'
sg19
S'space'
p409
sg34
g11
sg299
L9L
sg300
g317
sg302
L9L
sS'block.thisIndex'
p410
I8
sg304
g307
sg306
L0L
sg308
g348
sa(dp411
S'block.thisTrialN'
p412
I12
sS'block.thisRepN'
p413
I0
sg29
g33
sS'block.thisN'
p414
I12
sg291
(S'INCREASE'
S'DIVIDE'
S'TRIPLE'
S'x'
S'y'
tp415
sg27
g28
sg293
L3L
sg294
(I6
I2
I3
tp416
sg22
I1
sg20
F5.7830051434139023
sg23
F3.7665428612526739
sVY
L3L
sVX
L2L
sg296
g307
sg35
g36
sg37
g38
sg21
S'3'
sg19
S'space'
p417
sg34
g11
sg299
L3L
sg300
g305
sg302
L3L
sS'block.thisIndex'
p418
I7
sg304
g297
sg306
L0L
sg308
VUBUxy
p419
sa(dp420
S'block.thisTrialN'
p421
I13
sS'block.thisRepN'
p422
I0
sg29
g33
sS'block.thisN'
p423
I13
sg291
(S'SUBTRACT'
S'TRIPLE'
S'x'
S'y'
tp424
sg27
g28
sg293
L2L
sg294
(I12
I9
tp425
sg22
I1
sg20
F4.349809847335564
sg23
F2.4666329068568302
sVY
L3L
sVX
L4L
sg296
L0L
sg35
g36
sg37
g38
sg21
S'9'
sg19
S'space'
p426
sg34
g11
sg299
L9L
sg300
g307
sg302
L9L
sS'block.thisIndex'
p427
I1
sg304
g345
sg306
L0L
sg308
g367
sa(dp428
S'block.thisTrialN'
p429
I14
sS'block.thisRepN'
p430
I0
sg29
g33
sS'block.thisN'
p431
I14
sg291
(S'HALF'
S'SUBTRACT'
S'DECREASE'
S'TRIPLE'
S'x'
S'y'
tp432
sg27
g28
sg293
L4L
sg294
(I15
I14
I10
I5
tp433
sg22
I1
sg20
F4.8330569204990752
sg23
F7.3995403579610866
sVY
L4L
sVX
L5L
sg296
g392
sg35
g36
sg37
g38
sg21
S'5'
sg19
S'space'
p434
sg34
g11
sg299
L5L
sg300
g345
sg302
L5L
sS'block.thisIndex'
p435
I12
sg304
g317
sg306
g307
sg308
g357
sa(dp436
S'block.thisTrialN'
p437
I15
sS'block.thisRepN'
p438
I0
sg29
g33
sS'block.thisN'
p439
I15
sg291
(S'TRIPLE'
S'DOUBLE'
S'SUBTRACT'
S'INCREASE'
S'x'
S'y'
tp440
sg27
g28
sg293
L4L
sg294
(I5
I1
I2
I6
tp441
sg22
I1
sg20
F5.8330201743519865
sg23
F6.5663658497360302
sVY
L4L
sVX
L4L
sg296
g345
sg35
g36
sg37
g38
sg21
S'6'
sg19
S'space'
p442
sg34
g11
sg299
L6L
sg300
g301
sg302
L6L
sS'block.thisIndex'
p443
I14
sg304
g307
sg306
g297
sg308
g329
sa(dp444
S'block.thisTrialN'
p445
I16
sS'block.thisRepN'
p446
I0
sg29
g33
sS'block.thisN'
p447
I16
sg291
(S'HALF'
S'TIMES'
S'DECREASE'
S'x'
S'y'
tp448
sg27
g28
sg293
L3L
sg294
(I8
I16
I8
tp449
sg22
I1
sg20
F4.516555547437747
sg23
F3.9498754304950126
sVY
L2L
sVX
L9L
sg296
g392
sg35
g36
sg37
g38
sg21
S'8'
sg19
S'space'
p450
sg34
g11
sg299
L8L
sg300
g319
sg302
L8L
sS'block.thisIndex'
p451
I6
sg304
g317
sg306
L0L
sg308
g419
sa(dp452
S'block.thisTrialN'
p453
I17
sS'block.thisRepN'
p454
I0
sg29
g33
sS'block.thisN'
p455
I17
sg291
(S'DECREASE'
S'THIRD'
S'DOUBLE'
S'ADD'
S'x'
S'y'
tp456
sg27
g28
sg293
L4L
sg294
(I9
I18
I6
I5
tp457
sg22
I0
sg20
F3.5163424196653068
sg23
F13.815706781009794
sVY
L4L
sVX
L5L
sg296
g301
sg35
g36
sg37
g38
sg21
S'8'
sg19
S'space'
p458
sg34
g11
sg299
L5L
sg300
g320
sg302
L5L
sS'block.thisIndex'
p459
I16
sg304
g392
sg306
g366
sg308
g385
sa(dp460
S'block.thisTrialN'
p461
I0
sS'block.thisRepN'
p462
I0
sg29
g33
sS'block.thisN'
p463
I0
sVRule
p464
(S'THIRD'
S'DOUBLE'
S'ADD'
S'INCREASE'
S'x'
S'y'
tp465
sg27
g28
sVLength
p466
L4L
sVIntermediate
p467
(I10
I12
I24
I8
tp468
sg22
I1
sg20
F7.1663176947477041
sg23
F12.732313633066951
sVY
L2L
sVX
L9L
sVOperatorc
p469
VADD
p470
sg35
g36
sg37
g38
sg21
S'8'
sg19
S'space'
p471
sg34
g11
sVResult
p472
L8L
sVOperatora
p473
Vdouble
p474
sVCorrectResponse
p475
L8L
sS'block.thisIndex'
p476
I14
sVOperatorb
p477
Vthird
p478
sVOperatord
p479
Vincrease
p480
sVStructure
p481
VUUBUxy
p482
sa(dp483
S'block.thisTrialN'
p484
I1
sS'block.thisRepN'
p485
I0
sg29
g33
sS'block.thisN'
p486
I1
sg464
(S'THIRD'
S'DECREASE'
S'TIMES'
S'x'
S'y'
tp487
sg27
g28
sg466
L3L
sg467
(I25
I24
I8
tp488
sg22
I1
sg20
F3.2329461920744507
sg23
F7.5829047738952795
sVY
L5L
sVX
L5L
sg469
VTIMES
p489
sg35
g36
sg37
g38
sg21
S'8'
sg19
S'space'
p490
sg34
g11
sg472
L8L
sg473
Vdecrease
p491
sg475
L8L
sS'block.thisIndex'
p492
I8
sg477
g478
sg479
L0L
sg481
VUUBxy
p493
sa(dp494
S'block.thisTrialN'
p495
I2
sS'block.thisRepN'
p496
I0
sg29
g33
sS'block.thisN'
p497
I2
sg464
(S'THIRD'
S'ADD'
S'x'
S'y'
tp498
sg27
g28
sg466
L2L
sg467
(I9
I3
tp499
sg22
I1
sg20
F1.4166511224611895
sg23
F1.4335242617526092
sVY
L5L
sVX
L4L
sg469
L0L
sg35
g36
sg37
g38
sg21
S'3'
sg19
S'space'
p500
sg34
g11
sg472
L3L
sg473
g470
sg475
L3L
sS'block.thisIndex'
p501
I2
sg477
g478
sg479
L0L
sg481
VUBxy
p502
sa(dp503
S'block.thisTrialN'
p504
I3
sS'block.thisRepN'
p505
I0
sg29
g33
sS'block.thisN'
p506
I3
sg464
(S'TIMES'
S'INCREASE'
S'x'
S'y'
tp507
sg27
g28
sg466
L2L
sg467
(I3
I6
tp508
sg22
I1
sg20
F1.3500551717443159
sg23
F2.5666416209423915
sVY
L2L
sVX
L2L
sg469
L0L
sg35
g36
sg37
g38
sg21
S'6'
sg19
S'space'
p509
sg34
g11
sg472
L6L
sg473
g480
sg475
L6L
sS'block.thisIndex'
p510
I1
sg477
g489
sg479
L0L
sg481
VBUxy
p511
sa(dp512
S'block.thisTrialN'
p513
I4
sS'block.thisRepN'
p514
I0
sg29
g33
sS'block.thisN'
p515
I4
sg464
(S'TIMES'
S'INCREASE'
S'THIRD'
S'DOUBLE'
S'x'
S'y'
tp516
sg27
g28
sg466
L4L
sg467
(I6
I2
I3
I9
tp517
sg22
I0
sg20
F4.616401178544038
sg23
F9.6494818265782669
sVY
L3L
sVX
L3L
sg469
g478
sg35
g36
sg37
g38
sg21
S'2'
sg19
S'space'
p518
sg34
g11
sg472
L9L
sg473
g480
sg475
L9L
sS'block.thisIndex'
p519
I11
sg477
g489
sg479
g474
sg481
VBUUUxy
p520
sa(dp521
S'block.thisTrialN'
p522
I5
sS'block.thisRepN'
p523
I0
sg29
g33
sS'block.thisN'
p524
I5
sg464
(S'THIRD'
S'TIMES'
S'DECREASE'
S'x'
S'y'
tp525
sg27
g28
sg466
L3L
sg467
(I3
I15
I5
tp526
sg22
I1
sg20
F2.1332860416005133
sg23
F3.7832207209139597
sVY
L5L
sVX
L4L
sg469
g491
sg35
g36
sg37
g38
sg21
S'5'
sg19
S'space'
p527
sg34
g11
sg472
L5L
sg473
g489
sg475
L5L
sS'block.thisIndex'
p528
I7
sg477
g478
sg479
L0L
sg481
VUBUxy
p529
sa(dp530
S'block.thisTrialN'
p531
I6
sS'block.thisRepN'
p532
I0
sg29
g33
sS'block.thisN'
p533
I6
sg464
(S'TRIPLE'
S'SUBTRACT'
S'DOUBLE'
S'DECREASE'
S'x'
S'y'
tp534
sg27
g28
sg466
L4L
sg467
(I2
I4
I1
I3
tp535
sg22
I0
sg20
F10.332623140770011
sg23
F9.2494228227296844
sVY
L3L
sVX
L3L
sg469
g474
sg35
g36
sg37
g38
sg21
S'9'
sg19
S'space'
p536
sg34
g11
sg472
L3L
sg473
VSUBTRACT
p537
sg475
L3L
sS'block.thisIndex'
p538
I13
sg477
Vtriple
p539
sg479
g491
sg481
VUBUUxy
p540
sa(dp541
S'block.thisTrialN'
p542
I7
sS'block.thisRepN'
p543
I0
sg29
g33
sS'block.thisN'
p544
I7
sg464
(S'TIMES'
S'DECREASE'
S'HALF'
S'x'
S'y'
tp545
sg27
g28
sg466
L3L
sg467
(I4
I3
I9
tp546
sg22
I1
sg20
F3.2999264026875608
sg23
F6.3327869236964034
sVY
L3L
sVX
L8L
sg469
Vhalf
p547
sg35
g36
sg37
g38
sg21
S'9'
sg19
S'space'
p548
sg34
g11
sg472
L9L
sg473
g491
sg475
L9L
sS'block.thisIndex'
p549
I4
sg477
g489
sg479
L0L
sg481
VBUUxy
p550
sa(dp551
S'block.thisTrialN'
p552
I8
sS'block.thisRepN'
p553
I0
sg29
g33
sS'block.thisN'
p554
I8
sg464
(S'THIRD'
S'SUBTRACT'
S'x'
S'y'
tp555
sg27
g28
sg466
L2L
sg467
(I3
I1
tp556
sg22
I1
sg20
F4.0831394244014518
sg23
F1.5667630582756829
sVY
L2L
sVX
L5L
sg469
L0L
sg35
g36
sg37
g38
sg21
S'1'
sg19
S'space'
p557
sg34
g11
sg472
L1L
sg473
g537
sg475
L1L
sS'block.thisIndex'
p558
I3
sg477
g478
sg479
L0L
sg481
g502
sa(dp559
S'block.thisTrialN'
p560
I9
sS'block.thisRepN'
p561
I0
sg29
g33
sS'block.thisN'
p562
I9
sg464
(S'TRIPLE'
S'HALF'
S'ADD'
S'DECREASE'
S'x'
S'y'
tp563
sg27
g28
sg466
L4L
sg467
(I1
I4
I2
I6
tp564
sg22
I1
sg20
F5.7496245766815264
sg23
F9.1825493509677472
sVY
L3L
sVX
L2L
sg469
g470
sg35
g36
sg37
g38
sg21
S'6'
sg19
S'space'
p565
sg34
g11
sg472
L6L
sg473
g547
sg475
L6L
sS'block.thisIndex'
p566
I15
sg477
g539
sg479
g491
sg481
g482
sa(dp567
S'block.thisTrialN'
p568
I10
sS'block.thisRepN'
p569
I0
sg29
g33
sS'block.thisN'
p570
I10
sg464
(S'TRIPLE'
S'DECREASE'
S'HALF'
S'TIMES'
S'x'
S'y'
tp571
sg27
g28
sg466
L4L
sg467
(I6
I3
I2
I6
tp572
sg22
I1
sg20
F6.3826857667299919
sg23
F7.2328793490451062
sVY
L2L
sVX
L3L
sg469
g547
sg35
g36
sg37
g38
sg21
S'6'
sg19
S'space'
p573
sg34
g11
sg472
L6L
sg473
g491
sg475
L6L
sS'block.thisIndex'
p574
I17
sg477
g539
sg479
g489
sg481
VUUUBxy
p575
sa(dp576
S'block.thisTrialN'
p577
I11
sS'block.thisRepN'
p578
I0
sg29
g33
sS'block.thisN'
p579
I11
sg464
(S'THIRD'
S'INCREASE'
S'HALF'
S'DIVIDE'
S'x'
S'y'
tp580
sg27
g28
sg466
L4L
sg467
(I4
I2
I3
I1
tp581
sg22
I1
sg20
F5.4664225788001204
sg23
F9.1993584469455527
sVY
L2L
sVX
L8L
sg469
g547
sg35
g36
sg37
g38
sg21
S'1'
sg19
S'space'
p582
sg34
g11
sg472
L1L
sg473
g480
sg475
L1L
sS'block.thisIndex'
p583
I16
sg477
g478
sg479
VDIVIDE
p584
sg481
g575
sa(dp585
S'block.thisTrialN'
p586
I12
sS'block.thisRepN'
p587
I0
sg29
g33
sS'block.thisN'
p588
I12
sg464
(S'THIRD'
S'ADD'
S'INCREASE'
S'x'
S'y'
tp589
sg27
g28
sg466
L3L
sg467
(I8
I15
I5
tp590
sg22
I1
sg20
F3.3498402941622771
sg23
F6.6996018465433735
sVY
L7L
sVX
L7L
sg469
g480
sg35
g36
sg37
g38
sg21
S'5'
sg19
S'space'
p591
sg34
g11
sg472
L5L
sg473
g470
sg475
L5L
sS'block.thisIndex'
p592
I6
sg477
g478
sg479
L0L
sg481
g529
sa(dp593
S'block.thisTrialN'
p594
I13
sS'block.thisRepN'
p595
I0
sg29
g33
sS'block.thisN'
p596
I13
sg464
(S'TIMES'
S'DECREASE'
S'x'
S'y'
tp597
sg27
g28
sg466
L2L
sg467
(I2
I4
tp598
sg22
I1
sg20
F3.8498289203562308
sg23
F1.516721780077205
sVY
L2L
sVX
L3L
sg469
L0L
sg35
g36
sg37
g38
sg21
S'4'
sg19
S'space'
p599
sg34
g11
sg472
L4L
sg473
g491
sg475
L4L
sS'block.thisIndex'
p600
I0
sg477
g489
sg479
L0L
sg481
g511
sa(dp601
S'block.thisTrialN'
p602
I14
sS'block.thisRepN'
p603
I0
sg29
g33
sS'block.thisN'
p604
I14
sg464
(S'INCREASE'
S'DIVIDE'
S'TRIPLE'
S'DOUBLE'
S'x'
S'y'
tp605
sg27
g28
sg466
L4L
sg467
(I6
I18
I3
I4
tp606
sg22
I1
sg20
F5.6662919724331005
sg23
F9.2661300793261034
sVY
L6L
sVX
L3L
sg469
g539
sg35
g36
sg37
g38
sg21
S'4'
sg19
S'space'
p607
sg34
g11
sg472
L4L
sg473
g584
sg475
L4L
sS'block.thisIndex'
p608
I12
sg477
g480
sg479
g474
sg481
g540
sa(dp609
S'block.thisTrialN'
p610
I15
sS'block.thisRepN'
p611
I0
sg29
g33
sS'block.thisN'
p612
I15
sg464
(S'TRIPLE'
S'HALF'
S'DIVIDE'
S'x'
S'y'
tp613
sg27
g28
sg466
L3L
sg467
(I2
I1
I3
tp614
sg22
I1
sg20
F5.0164325352670858
sg23
F5.2997307730984176
sVY
L2L
sVX
L4L
sg469
g584
sg35
g36
sg37
g38
sg21
S'3'
sg19
S'space'
p615
sg34
g11
sg472
L3L
sg473
g547
sg475
L3L
sS'block.thisIndex'
p616
I9
sg477
g539
sg479
L0L
sg481
g493
sa(dp617
S'block.thisTrialN'
p618
I16
sS'block.thisRepN'
p619
I0
sg29
g33
sS'block.thisN'
p620
I16
sg464
(S'TIMES'
S'THIRD'
S'HALF'
S'x'
S'y'
tp621
sg27
g28
sg466
L3L
sg467
(I3
I1
I5
tp622
sg22
I0
sg20
F5.4496460294467397
sg23
F12.965830265602563
sVY
L5L
sVX
L6L
sg469
g547
sg35
g36
sg37
g38
sg21
S'6'
sg19
S'space'
p623
sg34
g11
sg472
L5L
sg473
g478
sg475
L5L
sS'block.thisIndex'
p624
I5
sg477
g489
sg479
L0L
sg481
g550
sa(dp625
S'block.thisTrialN'
p626
I17
sS'block.thisRepN'
p627
I0
sg29
g33
sS'block.thisN'
p628
I17
sg464
(S'SUBTRACT'
S'HALF'
S'INCREASE'
S'TRIPLE'
S'x'
S'y'
tp629
sg27
g28
sg466
L4L
sg467
(I15
I16
I8
I3
tp630
sg22
I1
sg20
F3.1331894516770262
sg23
F4.9332063199108234
sVY
L5L
sVX
L5L
sg469
g480
sg35
g36
sg37
g38
sg21
S'3'
sg19
S'space'
p631
sg34
g11
sg472
L3L
sg473
g547
sg475
L3L
sS'block.thisIndex'
p632
I10
sg477
g537
sg479
g539
sg481
g520
sa(dp633
S'block.thisTrialN'
p634
I0
sS'block.thisRepN'
p635
I0
sg29
g33
sS'block.thisN'
p636
I0
sVRule
p637
(S'HALF'
S'TIMES'
S'x'
S'y'
tp638
sg27
g28
sVLength
p639
L2L
sVIntermediate
p640
(I16
I8
tp641
sg22
I1
sg20
F4.9664633495413
sg23
F2.2166816392709734
sVY
L4L
sVX
L4L
sVOperatorc
p642
L0L
sg35
g36
sg37
g38
sg21
S'8'
sg19
S'space'
p643
sg34
g11
sVResult
p644
L8L
sVOperatora
p645
VTIMES
p646
sVCorrectResponse
p647
L8L
sS'block.thisIndex'
p648
I3
sVOperatorb
p649
Vhalf
p650
sVOperatord
p651
L0L
sVStructure
p652
VUBxy
p653
sa(dp654
S'block.thisTrialN'
p655
I1
sS'block.thisRepN'
p656
I0
sg29
g33
sS'block.thisN'
p657
I1
sg637
(S'DIVIDE'
S'DOUBLE'
S'THIRD'
S'x'
S'y'
tp658
sg27
g28
sg639
L3L
sg640
(I2
I4
I1
tp659
sg22
I1
sg20
F4.6331311827525496
sg23
F7.6995598509238334
sVY
L4L
sVX
L6L
sg642
Vthird
p660
sg35
g36
sg37
g38
sg21
S'1'
sg19
S'space'
p661
sg34
g11
sg644
L1L
sg645
Vdouble
p662
sg647
L1L
sS'block.thisIndex'
p663
I4
sg649
VDIVIDE
p664
sg651
L0L
sg652
VBUUxy
p665
sa(dp666
S'block.thisTrialN'
p667
I2
sS'block.thisRepN'
p668
I0
sg29
g33
sS'block.thisN'
p669
I2
sg637
(S'DIVIDE'
S'DOUBLE'
S'x'
S'y'
tp670
sg27
g28
sg639
L2L
sg640
(I12
I2
tp671
sg22
I1
sg20
F1.949996867813752
sg23
F3.5663077557837823
sVY
L6L
sVX
L6L
sg642
L0L
sg35
g36
sg37
g38
sg21
S'2'
sg19
S'space'
p672
sg34
g11
sg644
L2L
sg645
g662
sg647
L2L
sS'block.thisIndex'
p673
I1
sg649
g664
sg651
L0L
sg652
VBUxy
p674
sa(dp675
S'block.thisTrialN'
p676
I3
sS'block.thisRepN'
p677
I0
sg29
g33
sS'block.thisN'
p678
I3
sg637
(S'HALF'
S'SUBTRACT'
S'TRIPLE'
S'x'
S'y'
tp679
sg27
g28
sg639
L3L
sg640
(I9
I2
I1
tp680
sg22
I1
sg20
F3.9331926713493885
sg23
F4.199880942425807
sVY
L7L
sVX
L3L
sg642
Vtriple
p681
sg35
g36
sg37
g38
sg21
S'1'
sg19
S'space'
p682
sg34
g11
sg644
L1L
sg645
VSUBTRACT
p683
sg647
L1L
sS'block.thisIndex'
p684
I6
sg649
g650
sg651
L0L
sg652
VUBUxy
p685
sa(dp686
S'block.thisTrialN'
p687
I4
sS'block.thisRepN'
p688
I0
sg29
g33
sS'block.thisN'
p689
I4
sg637
(S'ADD'
S'THIRD'
S'INCREASE'
S'HALF'
S'x'
S'y'
tp690
sg27
g28
sg639
L4L
sg640
(I2
I3
I1
I7
tp691
sg22
I1
sg20
F9.5660015377507079
sg23
F10.649262749429909
sVY
L6L
sVX
L4L
sg642
Vincrease
p692
sg35
g36
sg37
g38
sg21
S'7'
sg19
S'space'
p693
sg34
g11
sg644
L7L
sg645
g660
sg647
L7L
sS'block.thisIndex'
p694
I10
sg649
VADD
p695
sg651
g650
sg652
VBUUUxy
p696
sa(dp697
S'block.thisTrialN'
p698
I5
sS'block.thisRepN'
p699
I0
sg29
g33
sS'block.thisN'
p700
I5
sg637
(S'INCREASE'
S'DIVIDE'
S'THIRD'
S'x'
S'y'
tp701
sg27
g28
sg639
L3L
sg640
(I3
I1
I2
tp702
sg22
I1
sg20
F1.6833484925737139
sg23
F6.7329799635481322
sVY
L3L
sVX
L9L
sg642
g660
sg35
g36
sg37
g38
sg21
S'2'
sg19
S'space'
p703
sg34
g11
sg644
L2L
sg645
g664
sg647
L2L
sS'block.thisIndex'
p704
I7
sg649
g692
sg651
L0L
sg652
g685
sa(dp705
S'block.thisTrialN'
p706
I6
sS'block.thisRepN'
p707
I0
sg29
g33
sS'block.thisN'
p708
I6
sg637
(S'DECREASE'
S'THIRD'
S'TIMES'
S'HALF'
S'x'
S'y'
tp709
sg27
g28
sg639
L4L
sg640
(I2
I12
I4
I3
tp710
sg22
I0
sg20
F6.0335436497116461
sg23
F6.0830214867019095
sVY
L6L
sVX
L4L
sg642
g646
sg35
g36
sg37
g38
sg21
S'5'
sg19
S'space'
p711
sg34
g11
sg644
L3L
sg645
g660
sg647
L3L
sS'block.thisIndex'
p712
I14
sg649
Vdecrease
p713
sg651
g650
sg652
VUUBUxy
p714
sa(dp715
S'block.thisTrialN'
p716
I7
sS'block.thisRepN'
p717
I0
sg29
g33
sS'block.thisN'
p718
I7
sg637
(S'DECREASE'
S'TIMES'
S'DOUBLE'
S'THIRD'
S'x'
S'y'
tp719
sg27
g28
sg639
L4L
sg640
(I1
I2
I8
I7
tp720
sg22
I1
sg20
F5.0664101200964069
sg23
F6.816339165015961
sVY
L4L
sVX
L3L
sg642
g662
sg35
g36
sg37
g38
sg21
S'7'
sg19
S'space'
p721
sg34
g11
sg644
L7L
sg645
g646
sg647
L7L
sS'block.thisIndex'
p722
I13
sg649
g713
sg651
g660
sg652
VUBUUxy
p723
sa(dp724
S'block.thisTrialN'
p725
I8
sS'block.thisRepN'
p726
I0
sg29
g33
sS'block.thisN'
p727
I8
sg637
(S'DOUBLE'
S'DECREASE'
S'TRIPLE'
S'DIVIDE'
S'x'
S'y'
tp728
sg27
g28
sg639
L4L
sg640
(I1
I3
I2
I4
tp729
sg22
I1
sg20
F5.7994555268232943
sg23
F7.749534636066528
sVY
L4L
sVX
L4L
sg642
g681
sg35
g36
sg37
g38
sg21
S'4'
sg19
S'space'
p730
sg34
g11
sg644
L4L
sg645
g713
sg647
L4L
sS'block.thisIndex'
p731
I17
sg649
g662
sg651
g664
sg652
VUUUBxy
p732
sa(dp733
S'block.thisTrialN'
p734
I9
sS'block.thisRepN'
p735
I0
sg29
g33
sS'block.thisN'
p736
I9
sg637
(S'DIVIDE'
S'INCREASE'
S'DOUBLE'
S'THIRD'
S'x'
S'y'
tp737
sg27
g28
sg639
L4L
sg640
(I2
I4
I5
I1
tp738
sg22
I1
sg20
F5.666364764838363
sg23
F8.816149484802736
sVY
L5L
sVX
L6L
sg642
g662
sg35
g36
sg37
g38
sg21
S'1'
sg19
S'space'
p739
sg34
g11
sg644
L1L
sg645
g692
sg647
L1L
sS'block.thisIndex'
p740
I11
sg649
g664
sg651
g660
sg652
g696
sa(dp741
S'block.thisTrialN'
p742
I10
sS'block.thisRepN'
p743
I0
sg29
g33
sS'block.thisN'
p744
I10
sg637
(S'DOUBLE'
S'TRIPLE'
S'DIVIDE'
S'DECREASE'
S'x'
S'y'
tp745
sg27
g28
sg639
L4L
sg640
(I8
I1
I3
I6
tp746
sg22
I1
sg20
F6.5995906827156432
sg23
F9.5161121436976828
sVY
L8L
sVX
L9L
sg642
g664
sg35
g36
sg37
g38
sg21
S'6'
sg19
S'space'
p747
sg34
g11
sg644
L6L
sg645
g681
sg647
L6L
sS'block.thisIndex'
p748
I15
sg649
g662
sg651
g713
sg652
g714
sa(dp749
S'block.thisTrialN'
p750
I11
sS'block.thisRepN'
p751
I0
sg29
g33
sS'block.thisN'
p752
I11
sg637
(S'DOUBLE'
S'SUBTRACT'
S'x'
S'y'
tp753
sg27
g28
sg639
L2L
sg640
(I1
I2
tp754
sg22
I1
sg20
F6.1996755138534354
sg23
F1.6834146356704878
sVY
L7L
sVX
L8L
sg642
L0L
sg35
g36
sg37
g38
sg21
S'2'
sg19
S'space'
p755
sg34
g11
sg644
L2L
sg645
g683
sg647
L2L
sS'block.thisIndex'
p756
I2
sg649
g662
sg651
L0L
sg652
g653
sa(dp757
S'block.thisTrialN'
p758
I12
sS'block.thisRepN'
p759
I0
sg29
g33
sS'block.thisN'
p760
I12
sg637
(S'DECREASE'
S'HALF'
S'TRIPLE'
S'DIVIDE'
S'x'
S'y'
tp761
sg27
g28
sg639
L4L
sg640
(I4
I12
I6
I5
tp762
sg22
I1
sg20
F3.5332915010367287
sg23
F5.7163556482992135
sVY
L2L
sVX
L8L
sg642
g681
sg35
g36
sg37
g38
sg21
S'5'
sg19
S'space'
p763
sg34
g11
sg644
L5L
sg645
g650
sg647
L5L
sS'block.thisIndex'
p764
I16
sg649
g713
sg651
g664
sg652
g732
sa(dp765
S'block.thisTrialN'
p766
I13
sS'block.thisRepN'
p767
I0
sg29
g33
sS'block.thisN'
p768
I13
sg637
(S'DOUBLE'
S'DECREASE'
S'SUBTRACT'
S'x'
S'y'
tp769
sg27
g28
sg639
L3L
sg640
(I5
I4
I8
tp770
sg22
I1
sg20
F3.0166054172150325
sg23
F4.0331912364927121
sVY
L2L
sVX
L7L
sg642
g683
sg35
g36
sg37
g38
sg21
S'8'
sg19
S'space'
p771
sg34
g11
sg644
L8L
sg645
g713
sg647
L8L
sS'block.thisIndex'
p772
I8
sg649
g662
sg651
L0L
sg652
VUUBxy
p773
sa(dp774
S'block.thisTrialN'
p775
I14
sS'block.thisRepN'
p776
I0
sg29
g33
sS'block.thisN'
p777
I14
sg637
(S'DOUBLE'
S'TRIPLE'
S'SUBTRACT'
S'x'
S'y'
tp778
sg27
g28
sg639
L3L
sg640
(I1
I3
I6
tp779
sg22
I1
sg20
F2.399971163002192
sg23
F3.7999815219372977
sVY
L3L
sVX
L4L
sg642
g683
sg35
g36
sg37
g38
sg21
S'6'
sg19
S'space'
p780
sg34
g11
sg644
L6L
sg645
g681
sg647
L6L
sS'block.thisIndex'
p781
I9
sg649
g662
sg651
L0L
sg652
g773
sa(dp782
S'block.thisTrialN'
p783
I15
sS'block.thisRepN'
p784
I0
sg29
g33
sS'block.thisN'
p785
I15
sg637
(S'ADD'
S'DOUBLE'
S'x'
S'y'
tp786
sg27
g28
sg639
L2L
sg640
(I4
I8
tp787
sg22
I1
sg20
F2.2166231953597162
sg23
F2.4834713997552171
sVY
L4L
sVX
L2L
sg642
L0L
sg35
g36
sg37
g38
sg21
S'8'
sg19
S'space'
p788
sg34
g11
sg644
L8L
sg645
g662
sg647
L8L
sS'block.thisIndex'
p789
I0
sg649
g695
sg651
L0L
sg652
g674
sa(dp790
S'block.thisTrialN'
p791
I16
sS'block.thisRepN'
p792
I0
sg29
g33
sS'block.thisN'
p793
I16
sg637
(S'DECREASE'
S'ADD'
S'DOUBLE'
S'THIRD'
S'x'
S'y'
tp794
sg27
g28
sg639
L4L
sg640
(I3
I6
I10
I9
tp795
sg22
I0
sg20
F11.766231743720709
sg23
F9.2153689262486296
sVY
L4L
sVX
L9L
sg642
g662
sg35
g36
sg37
g38
sg21
S'6'
sg19
S'space'
p796
sg34
g11
sg644
L9L
sg645
g695
sg647
L9L
sS'block.thisIndex'
p797
I12
sg649
Vdecrease 
p798
sg651
g660
sg652
g723
sa(dp799
S'block.thisTrialN'
p800
I17
sS'block.thisRepN'
p801
I0
sg29
g33
sS'block.thisN'
p802
I17
sg637
(S'SUBTRACT'
S'HALF'
S'TRIPLE'
S'x'
S'y'
tp803
sg27
g28
sg639
L3L
sg640
(I12
I6
I2
tp804
sg22
I1
sg20
F3.0330124051542953
sg23
F6.3829877852258505
sVY
L4L
sVX
L4L
sg642
g681
sg35
g36
sg37
g38
sg21
S'2'
sg19
S'space'
p805
sg34
g11
sg644
L2L
sg645
g650
sg647
L2L
sS'block.thisIndex'
p806
I5
sg649
g683
sg651
L0L
sg652
g665
sa(dp807
S'block.thisTrialN'
p808
I0
sS'block.thisRepN'
p809
I0
sg29
g33
sS'block.thisN'
p810
I0
sVRule
p811
(S'DIVIDE'
S'DECREASE'
S'x'
S'y'
tp812
sg27
g28
sVLength
p813
L2L
sVIntermediate
p814
(I8
I2
tp815
sg22
I0
sg20
F3.2801716640969971
sg23
F3.3332359268242726
sVY
L4L
sVX
L9L
sVOperatorc
p816
L0L
sg35
g36
sg37
g38
sg21
S'4'
sg19
S'space'
p817
sg34
g11
sVResult
p818
L2L
sVOperatora
p819
Vdecrease
p820
sVCorrectResponse
p821
L2L
sS'block.thisIndex'
p822
I1
sVOperatorb
p823
VDIVIDE
p824
sVOperatord
p825
L0L
sVStructure
p826
VBUxy
p827
sa(dp828
S'block.thisTrialN'
p829
I1
sS'block.thisRepN'
p830
I0
sg29
g33
sS'block.thisN'
p831
I1
sg811
(S'ADD'
S'DECREASE'
S'THIRD'
S'DOUBLE'
S'x'
S'y'
tp832
sg27
g28
sg813
L4L
sg814
(I18
I6
I5
I9
tp833
sg22
I1
sg20
F4.9497627422533697
sg23
F9.0494235926453257
sVY
L4L
sVX
L9L
sg816
Vthird
p834
sg35
g36
sg37
g38
sg21
S'9'
sg19
S'space'
p835
sg34
g11
sg818
L9L
sg819
g820
sg821
L9L
sS'block.thisIndex'
p836
I10
sg823
VADD
p837
sg825
Vdouble
p838
sg826
VBUUUxy
p839
sa(dp840
S'block.thisTrialN'
p841
I2
sS'block.thisRepN'
p842
I0
sg29
g33
sS'block.thisN'
p843
I2
sg811
(S'ADD'
S'TRIPLE'
S'DOUBLE'
S'DECREASE'
S'x'
S'y'
tp844
sg27
g28
sg813
L4L
sg814
(I1
I2
I6
I8
tp845
sg22
I1
sg20
F3.2164926589903189
sg23
F5.3330836927052587
sVY
L2L
sVX
L2L
sg816
g838
sg35
g36
sg37
g38
sg21
S'8'
sg19
S'space'
p846
sg34
g11
sg818
L8L
sg819
Vtriple
p847
sg821
L8L
sS'block.thisIndex'
p848
I11
sg823
g837
sg825
g820
sg826
g839
sa(dp849
S'block.thisTrialN'
p850
I3
sS'block.thisRepN'
p851
I0
sg29
g33
sS'block.thisN'
p852
I3
sg811
(S'DOUBLE'
S'SUBTRACT'
S'INCREASE'
S'x'
S'y'
tp853
sg27
g28
sg813
L3L
sg814
(I4
I1
I2
tp854
sg22
I1
sg20
F2.900039230909897
sg23
F4.4165037878265139
sVY
L3L
sVX
L3L
sg816
Vincrease
p855
sg35
g36
sg37
g38
sg21
S'2'
sg19
S'space'
p856
sg34
g11
sg818
L2L
sg819
VSUBTRACT
p857
sg821
L2L
sS'block.thisIndex'
p858
I6
sg823
g838
sg825
L0L
sg826
VUBUxy
p859
sa(dp860
S'block.thisTrialN'
p861
I4
sS'block.thisRepN'
p862
I0
sg29
g33
sS'block.thisN'
p863
I4
sg811
(S'INCREASE'
S'ADD'
S'HALF'
S'x'
S'y'
tp864
sg27
g28
sg813
L3L
sg814
(I1
I4
I5
tp865
sg22
I1
sg20
F4.3997895319625968
sg23
F2.6499735252582468
sVY
L3L
sVX
L2L
sg816
Vhalf
p866
sg35
g36
sg37
g38
sg21
S'5'
sg19
S'space'
p867
sg34
g11
sg818
L5L
sg819
g837
sg821
L5L
sS'block.thisIndex'
p868
I7
sg823
g855
sg825
L0L
sg826
g859
sa(dp869
S'block.thisTrialN'
p870
I5
sS'block.thisRepN'
p871
I0
sg29
g33
sS'block.thisN'
p872
I5
sg811
(S'ADD'
S'TRIPLE'
S'HALF'
S'x'
S'y'
tp873
sg27
g28
sg813
L3L
sg814
(I2
I6
I8
tp874
sg22
I1
sg20
F3.7998229884688044
sg23
F6.5662062663759571
sVY
L2L
sVX
L4L
sg816
g866
sg35
g36
sg37
g38
sg21
S'8'
sg19
S'space'
p875
sg34
g11
sg818
L8L
sg819
g847
sg821
L8L
sS'block.thisIndex'
p876
I5
sg823
g837
sg825
L0L
sg826
VBUUxy
p877
sa(dp878
S'block.thisTrialN'
p879
I6
sS'block.thisRepN'
p880
I0
sg29
g33
sS'block.thisN'
p881
I6
sg811
(S'HALF'
S'INCREASE'
S'TIMES'
S'x'
S'y'
tp882
sg27
g28
sg813
L3L
sg814
(I9
I10
I5
tp883
sg22
I1
sg20
F4.8830803505697986
sg23
F3.7165932734933449
sVY
L3L
sVX
L3L
sg816
VTIMES
p884
sg35
g36
sg37
g38
sg21
S'5'
sg19
S'space'
p885
sg34
g11
sg818
L5L
sg819
g855
sg821
L5L
sS'block.thisIndex'
p886
I9
sg823
g866
sg825
L0L
sg826
VUUBxy
p887
sa(dp888
S'block.thisTrialN'
p889
I7
sS'block.thisRepN'
p890
I0
sg29
g33
sS'block.thisN'
p891
I7
sg811
(S'DECREASE'
S'SUBTRACT'
S'DOUBLE'
S'THIRD'
S'x'
S'y'
tp892
sg27
g28
sg813
L4L
sg814
(I3
I6
I4
I3
tp893
sg22
I0
sg20
F2.8999632888298947
sg23
F8.4326014080434106
sVY
L2L
sVX
L9L
sg816
g838
sg35
g36
sg37
g38
sg21
S'5'
sg19
S'space'
p894
sg34
g11
sg818
L3L
sg819
g857
sg821
L3L
sS'block.thisIndex'
p895
I13
sg823
g820
sg825
g834
sg826
VUBUUxy
p896
sa(dp897
S'block.thisTrialN'
p898
I8
sS'block.thisRepN'
p899
I0
sg29
g33
sS'block.thisN'
p900
I8
sg811
(S'DECREASE'
S'TIMES'
S'x'
S'y'
tp901
sg27
g28
sg813
L2L
sg814
(I9
I8
tp902
sg22
I1
sg20
F1.2167022871144582
sg23
F1.1334522742545232
sVY
L3L
sVX
L3L
sg816
L0L
sg35
g36
sg37
g38
sg21
S'8'
sg19
S'space'
p903
sg34
g11
sg818
L8L
sg819
g884
sg821
L8L
sS'block.thisIndex'
p904
I2
sg823
g820
sg825
L0L
sg826
VUBxy
p905
sa(dp906
S'block.thisTrialN'
p907
I9
sS'block.thisRepN'
p908
I0
sg29
g33
sS'block.thisN'
p909
I9
sg811
(S'DECREASE'
S'DOUBLE'
S'TIMES'
S'THIRD'
S'x'
S'y'
tp910
sg27
g28
sg813
L4L
sg814
(I1
I3
I6
I5
tp911
sg22
I1
sg20
F3.649815691736876
sg23
F6.1497430743038421
sVY
L3L
sVX
L3L
sg816
g884
sg35
g36
sg37
g38
sg21
S'5'
sg19
S'space'
p912
sg34
g11
sg818
L5L
sg819
g838
sg821
L5L
sS'block.thisIndex'
p913
I14
sg823
g820
sg825
g834
sg826
VUUBUxy
p914
sa(dp915
S'block.thisTrialN'
p916
I10
sS'block.thisRepN'
p917
I0
sg29
g33
sS'block.thisN'
p918
I10
sg811
(S'THIRD'
S'HALF'
S'INCREASE'
S'SUBTRACT'
S'x'
S'y'
tp919
sg27
g28
sg813
L4L
sg814
(I5
I6
I3
I1
tp920
sg22
I1
sg20
F6.7829218521073926
sg23
F5.599745016603265
sVY
L2L
sVX
L7L
sg816
g855
sg35
g36
sg37
g38
sg21
S'1'
sg19
S'space'
p921
sg34
g11
sg818
L1L
sg819
g866
sg821
L1L
sS'block.thisIndex'
p922
I17
sg823
g834
sg825
g857
sg826
VUUUBxy
p923
sa(dp924
S'block.thisTrialN'
p925
I11
sS'block.thisRepN'
p926
I0
sg29
g33
sS'block.thisN'
p927
I11
sg811
(S'DOUBLE'
S'THIRD'
S'ADD'
S'x'
S'y'
tp928
sg27
g28
sg813
L3L
sg814
(I9
I3
I6
tp929
sg22
I1
sg20
F3.9994551068521105
sg23
F10.415579184322269
sVY
L4L
sVX
L5L
sg816
g837
sg35
g36
sg37
g38
sg21
S'6'
sg19
S'space'
p930
sg34
g11
sg818
L6L
sg819
g834
sg821
L6L
sS'block.thisIndex'
p931
I8
sg823
g838
sg825
L0L
sg826
g887
sa(dp932
S'block.thisTrialN'
p933
I12
sS'block.thisRepN'
p934
I0
sg29
g33
sS'block.thisN'
p935
I12
sg811
(S'HALF'
S'ADD'
S'x'
S'y'
tp936
sg27
g28
sg813
L2L
sg814
(I12
I6
tp937
sg22
I1
sg20
F1.1501056364795659
sg23
F1.5401878814009251
sVY
L8L
sVX
L4L
sg816
L0L
sg35
g36
sg37
g38
sg21
S'6'
sg19
S'space'
p938
sg34
g11
sg818
L6L
sg819
g837
sg821
L6L
sS'block.thisIndex'
p939
I3
sg823
g866
sg825
L0L
sg826
g905
sa(dp940
S'block.thisTrialN'
p941
I13
sS'block.thisRepN'
p942
I0
sg29
g33
sS'block.thisN'
p943
I13
sg811
(S'ADD'
S'DOUBLE'
S'DECREASE'
S'x'
S'y'
tp944
sg27
g28
sg813
L3L
sg814
(I1
I2
I7
tp945
sg22
I1
sg20
F2.0291554576397175
sg23
F6.2831316552037606
sVY
L5L
sVX
L2L
sg816
g820
sg35
g36
sg37
g38
sg21
S'7'
sg19
S'space'
p946
sg34
g11
sg818
L7L
sg819
g838
sg821
L7L
sS'block.thisIndex'
p947
I4
sg823
g837
sg825
L0L
sg826
g877
sa(dp948
S'block.thisTrialN'
p949
I14
sS'block.thisRepN'
p950
I0
sg29
g33
sS'block.thisN'
p951
I14
sg811
(S'DECREASE'
S'ADD'
S'THIRD'
S'HALF'
S'x'
S'y'
tp952
sg27
g28
sg813
L4L
sg814
(I3
I1
I7
I6
tp953
sg22
I1
sg20
F5.1330746636522235
sg23
F7.9329169001284754
sVY
L6L
sVX
L6L
sg816
g834
sg35
g36
sg37
g38
sg21
S'6'
sg19
S'space'
p954
sg34
g11
sg818
L6L
sg819
g837
sg821
L6L
sS'block.thisIndex'
p955
I12
sg823
g820
sg825
g866
sg826
g896
sa(dp956
S'block.thisTrialN'
p957
I15
sS'block.thisRepN'
p958
I0
sg29
g33
sS'block.thisN'
p959
I15
sg811
(S'ADD'
S'DECREASE'
S'x'
S'y'
tp960
sg27
g28
sg813
L2L
sg814
(I2
I7
tp961
sg22
I1
sg20
F1.5833572766714497
sg23
F1.4334497195231961
sVY
L5L
sVX
L3L
sg816
L0L
sg35
g36
sg37
g38
sg21
S'7'
sg19
S'space'
p962
sg34
g11
sg818
L7L
sg819
g820
sg821
L7L
sS'block.thisIndex'
p963
I0
sg823
g837
sg825
L0L
sg826
g827
sa(dp964
S'block.thisTrialN'
p965
I16
sS'block.thisRepN'
p966
I0
sg29
g33
sS'block.thisN'
p967
I16
sg811
(S'INCREASE'
S'HALF'
S'THIRD'
S'TIMES'
S'x'
S'y'
tp968
sg27
g28
sg813
L4L
sg814
(I12
I4
I2
I3
tp969
sg22
I1
sg20
F6.5495948997704545
sg23
F8.0996066060470184
sVY
L4L
sVX
L3L
sg816
g834
sg35
g36
sg37
g38
sg21
S'3'
sg19
S'space'
p970
sg34
g11
sg818
L3L
sg819
g866
sg821
L3L
sS'block.thisIndex'
p971
I16
sg823
g855
sg825
g884
sg826
g923
sa(dp972
S'block.thisTrialN'
p973
I17
sS'block.thisRepN'
p974
I0
sg29
g33
sS'block.thisN'
p975
I17
sg811
(S'DECREASE'
S'TRIPLE'
S'SUBTRACT'
S'DOUBLE'
S'x'
S'y'
tp976
sg27
g28
sg813
L4L
sg814
(I6
I3
I9
I8
tp977
sg22
I0
sg20
F5.9994712051848182
sg23
F11.415896251230151
sVY
L3L
sVX
L3L
sg816
g857
sg35
g36
sg37
g38
sg21
S'1'
sg19
S'space'
p978
sg34
g11
sg818
L8L
sg819
g847
sg821
L8L
sS'block.thisIndex'
p979
I15
sg823
g820
sg825
g838
sg826
g914
sa(dp980
S'block.thisTrialN'
p981
I0
sS'block.thisRepN'
p982
I0
sg29
g33
sS'block.thisN'
p983
I0
sVRule
p984
(S'THIRD'
S'DECREASE'
S'TIMES'
S'HALF'
S'x'
S'y'
tp985
sg27
g28
sVLength
p986
L4L
sVIntermediate
p987
(I4
I16
I15
I5
tp988
sg22
I1
sg20
F3.0499065422627609
sg23
F6.0664825625426602
sVY
L4L
sVX
L8L
sVOperatorc
p989
VTIMES
p990
sg35
g36
sg37
g38
sg21
S'5'
sg19
S'space'
p991
sg34
g11
sVResult
p992
L5L
sVOperatora
p993
Vdecrease
p994
sVCorrectResponse
p995
L5L
sS'block.thisIndex'
p996
I15
sVOperatorb
p997
Vthird
p998
sVOperatord
p999
Vhalf
p1000
sVStructure
p1001
VUUBUxy
p1002
sa(dp1003
S'block.thisTrialN'
p1004
I1
sS'block.thisRepN'
p1005
I0
sg29
g33
sS'block.thisN'
p1006
I1
sg984
(S'DOUBLE'
S'THIRD'
S'TIMES'
S'x'
S'y'
tp1007
sg27
g28
sg986
L3L
sg987
(I12
I4
I8
tp1008
sg22
I1
sg20
F5.399773433644441
sg23
F7.1996016715565929
sVY
L6L
sVX
L2L
sg989
g990
sg35
g36
sg37
g38
sg21
S'8'
sg19
S'space'
p1009
sg34
g11
sg992
L8L
sg993
g998
sg995
L8L
sS'block.thisIndex'
p1010
I9
sg997
Vdouble
p1011
sg999
L0L
sg1001
VUUBxy
p1012
sa(dp1013
S'block.thisTrialN'
p1014
I2
sS'block.thisRepN'
p1015
I0
sg29
g33
sS'block.thisN'
p1016
I2
sg984
(S'SUBTRACT'
S'TRIPLE'
S'DECREASE'
S'x'
S'y'
tp1017
sg27
g28
sg986
L3L
sg987
(I4
I12
I3
tp1018
sg22
I1
sg20
F2.316192005368066
sg23
F7.6996053461771226
sVY
L9L
sVX
L5L
sg989
g994
sg35
g36
sg37
g38
sg21
S'3'
sg19
S'space'
p1019
sg34
g11
sg992
L3L
sg993
Vtriple
p1020
sg995
L3L
sS'block.thisIndex'
p1021
I4
sg997
VSUBTRACT
p1022
sg999
L0L
sg1001
VBUUxy
p1023
sa(dp1024
S'block.thisTrialN'
p1025
I3
sS'block.thisRepN'
p1026
I0
sg29
g33
sS'block.thisN'
p1027
I3
sg984
(S'DECREASE'
S'TRIPLE'
S'DIVIDE'
S'DOUBLE'
S'x'
S'y'
tp1028
sg27
g28
sg986
L4L
sg987
(I6
I2
I6
I5
tp1029
sg22
I0
sg20
F7.1495757917728042
sg23
F10.932428351108683
sVY
L3L
sVX
L3L
sg989
VDIVIDE
p1030
sg35
g36
sg37
g38
sg21
S'3'
sg19
S'space'
p1031
sg34
g11
sg992
L5L
sg993
g1020
sg995
L5L
sS'block.thisIndex'
p1032
I14
sg997
g994
sg999
g1011
sg1001
g1002
sa(dp1033
S'block.thisTrialN'
p1034
I4
sS'block.thisRepN'
p1035
I0
sg29
g33
sS'block.thisN'
p1036
I4
sg984
(S'HALF'
S'TRIPLE'
S'INCREASE'
S'SUBTRACT'
S'x'
S'y'
tp1037
sg27
g28
sg986
L4L
sg987
(I1
I2
I6
I3
tp1038
sg22
I1
sg20
F6.7996060111036059
sg23
F5.449804562900681
sVY
L2L
sVX
L3L
sg989
Vincrease
p1039
sg35
g36
sg37
g38
sg21
S'3'
sg19
S'space'
p1040
sg34
g11
sg992
L3L
sg993
g1020
sg995
L3L
sS'block.thisIndex'
p1041
I17
sg997
g1000
sg999
g1022
sg1001
VUUUBxy
p1042
sa(dp1043
S'block.thisTrialN'
p1044
I5
sS'block.thisRepN'
p1045
I0
sg29
g33
sS'block.thisN'
p1046
I5
sg984
(S'SUBTRACT'
S'DOUBLE'
S'TRIPLE'
S'DECREASE'
S'x'
S'y'
tp1047
sg27
g28
sg986
L4L
sg987
(I2
I6
I12
I8
tp1048
sg22
I0
sg20
F8.4660936131258495
sg23
F10.482687831521616
sVY
L4L
sVX
L3L
sg989
g1020
sg35
g36
sg37
g38
sg21
S'2'
sg19
S'space'
p1049
sg34
g11
sg992
L8L
sg993
g1011
sg995
L8L
sS'block.thisIndex'
p1050
I10
sg997
g1022
sg999
g994
sg1001
VBUUUxy
p1051
sa(dp1052
S'block.thisTrialN'
p1053
I6
sS'block.thisRepN'
p1054
I0
sg29
g33
sS'block.thisN'
p1055
I6
sg984
(S'DIVIDE'
S'THIRD'
S'x'
S'y'
tp1056
sg27
g28
sg986
L2L
sg987
(I3
I1
tp1057
sg22
I1
sg20
F1.8166772297263378
sg23
F3.5832491379551357
sVY
L3L
sVX
L9L
sg989
L0L
sg35
g36
sg37
g38
sg21
S'1'
sg19
S'space'
p1058
sg34
g11
sg992
L1L
sg993
g998
sg995
L1L
sS'block.thisIndex'
p1059
I0
sg997
g1030
sg999
L0L
sg1001
VBUxy
p1060
sa(dp1061
S'block.thisTrialN'
p1062
I7
sS'block.thisRepN'
p1063
I0
sg29
g33
sS'block.thisN'
p1064
I7
sg984
(S'SUBTRACT'
S'TRIPLE'
S'DECREASE'
S'DOUBLE'
S'x'
S'y'
tp1065
sg27
g28
sg986
L4L
sg987
(I4
I3
I9
I1
tp1066
sg22
I1
sg20
F3.8665533251623856
sg23
F7.3828761468757875
sVY
L8L
sVX
L2L
sg989
g994
sg35
g36
sg37
g38
sg21
S'1'
sg19
S'space'
p1067
sg34
g11
sg992
L1L
sg993
g1020
sg995
L1L
sS'block.thisIndex'
p1068
I11
sg997
g1022
sg999
g1011
sg1001
g1051
sa(dp1069
S'block.thisTrialN'
p1070
I8
sS'block.thisRepN'
p1071
I0
sg29
g33
sS'block.thisN'
p1072
I8
sg984
(S'INCREASE'
S'SUBTRACT'
S'x'
S'y'
tp1073
sg27
g28
sg986
L2L
sg987
(I3
I4
tp1074
sg22
I1
sg20
F1.733368073037127
sg23
F1.0834655903745443
sVY
L3L
sVX
L6L
sg989
L0L
sg35
g36
sg37
g38
sg21
S'4'
sg19
S'space'
p1075
sg34
g11
sg992
L4L
sg993
g1022
sg995
L4L
sS'block.thisIndex'
p1076
I2
sg997
g1039
sg999
L0L
sg1001
VUBxy
p1077
sa(dp1078
S'block.thisTrialN'
p1079
I9
sS'block.thisRepN'
p1080
I0
sg29
g33
sS'block.thisN'
p1081
I9
sg984
(S'DECREASE'
S'TRIPLE'
S'HALF'
S'SUBTRACT'
S'x'
S'y'
tp1082
sg27
g28
sg986
L4L
sg987
(I4
I2
I6
I5
tp1083
sg22
I1
sg20
F2.6999581093841698
sg23
F8.4496173324296251
sVY
L2L
sVX
L6L
sg989
g1000
sg35
g36
sg37
g38
sg21
S'5'
sg19
S'space'
p1084
sg34
g11
sg992
L5L
sg993
g1020
sg995
L5L
sS'block.thisIndex'
p1085
I16
sg997
g994
sg999
g1022
sg1001
g1042
sa(dp1086
S'block.thisTrialN'
p1087
I10
sS'block.thisRepN'
p1088
I0
sg29
g33
sS'block.thisN'
p1089
I10
sg984
(S'THIRD'
S'TIMES'
S'HALF'
S'x'
S'y'
tp1090
sg27
g28
sg986
L3L
sg987
(I3
I18
I6
tp1091
sg22
I1
sg20
F4.133122958621243
sg23
F4.1665406214888208
sVY
L6L
sVX
L6L
sg989
g1000
sg35
g36
sg37
g38
sg21
S'6'
sg19
S'space'
p1092
sg34
g11
sg992
L6L
sg993
g990
sg995
L6L
sS'block.thisIndex'
p1093
I7
sg997
g998
sg999
L0L
sg1001
VUBUxy
p1094
sa(dp1095
S'block.thisTrialN'
p1096
I11
sS'block.thisRepN'
p1097
I0
sg29
g33
sS'block.thisN'
p1098
I11
sg984
(S'TIMES'
S'HALF'
S'INCREASE'
S'x'
S'y'
tp1099
sg27
g28
sg986
L3L
sg987
(I6
I3
I9
tp1100
sg22
I1
sg20
F6.9996087408217136
sg23
F7.0996125554229366
sVY
L3L
sVX
L5L
sg989
g1039
sg35
g36
sg37
g38
sg21
S'9'
sg19
S'space'
p1101
sg34
g11
sg992
L9L
sg993
g1000
sg995
L9L
sS'block.thisIndex'
p1102
I5
sg997
g990
sg999
L0L
sg1001
g1023
sa(dp1103
S'block.thisTrialN'
p1104
I12
sS'block.thisRepN'
p1105
I0
sg29
g33
sS'block.thisN'
p1106
I12
sg984
(S'INCREASE'
S'ADD'
S'HALF'
S'TRIPLE'
S'x'
S'y'
tp1107
sg27
g28
sg986
L4L
sg987
(I6
I3
I6
I7
tp1108
sg22
I0
sg20
F5.9329991415434051
sg23
F9.2662224696832709
sVY
L3L
sVX
L2L
sg989
g1000
sg35
g36
sg37
g38
sg21
S'5'
sg19
S'space'
p1109
sg34
g11
sg992
L7L
sg993
VADD
p1110
sg995
L7L
sS'block.thisIndex'
p1111
I13
sg997
g1039
sg999
g1020
sg1001
VUBUUxy
p1112
sa(dp1113
S'block.thisTrialN'
p1114
I13
sS'block.thisRepN'
p1115
I0
sg29
g33
sS'block.thisN'
p1116
I13
sg984
(S'DOUBLE'
S'DECREASE'
S'ADD'
S'x'
S'y'
tp1117
sg27
g28
sg986
L3L
sg987
(I4
I3
I6
tp1118
sg22
I1
sg20
F6.0994680205185432
sg23
F7.4162521640828345
sVY
L2L
sVX
L2L
sg989
g1110
sg35
g36
sg37
g38
sg21
S'6'
sg19
S'space'
p1119
sg34
g11
sg992
L6L
sg993
g994
sg995
L6L
sS'block.thisIndex'
p1120
I8
sg997
g1011
sg999
L0L
sg1001
g1012
sa(dp1121
S'block.thisTrialN'
p1122
I14
sS'block.thisRepN'
p1123
I0
sg29
g33
sS'block.thisN'
p1124
I14
sg984
(S'DOUBLE'
S'DIVIDE'
S'TRIPLE'
S'INCREASE'
S'x'
S'y'
tp1125
sg27
g28
sg986
L4L
sg987
(I5
I15
I3
I6
tp1126
sg22
I0
sg20
F6.8829095683904598
sg23
F10.52046988895745
sVY
L5L
sVX
L4L
sg989
g1020
sg35
g36
sg37
g38
sg21
S'5'
sg19
S'space'
p1127
sg34
g11
sg992
L6L
sg993
g1030
sg995
L6L
sS'block.thisIndex'
p1128
I12
sg997
g1011
sg999
g1039
sg1001
g1112
sa(dp1129
S'block.thisTrialN'
p1130
I15
sS'block.thisRepN'
p1131
I0
sg29
g33
sS'block.thisN'
p1132
I15
sg984
(S'THIRD'
S'DIVIDE'
S'DECREASE'
S'x'
S'y'
tp1133
sg27
g28
sg986
L3L
sg987
(I6
I3
I1
tp1134
sg22
I0
sg20
F2.2831372546206694
sg23
F6.7663136351620778
sVY
L2L
sVX
L7L
sg989
g994
sg35
g36
sg37
g38
sg21
S'9'
sg19
S'space'
p1135
sg34
g11
sg992
L1L
sg993
g1030
sg995
L1L
sS'block.thisIndex'
p1136
I6
sg997
g998
sg999
L0L
sg1001
g1094
sa(dp1137
S'block.thisTrialN'
p1138
I16
sS'block.thisRepN'
p1139
I0
sg29
g33
sS'block.thisN'
p1140
I16
sg984
(S'TIMES'
S'DOUBLE'
S'x'
S'y'
tp1141
sg27
g28
sg986
L2L
sg987
(I4
I8
tp1142
sg22
I1
sg20
F2.7501824184728321
sg23
F2.3333199180633528
sVY
L2L
sVX
L2L
sg989
L0L
sg35
g36
sg37
g38
sg21
S'8'
sg19
S'space'
p1143
sg34
g11
sg992
L8L
sg993
g1011
sg995
L8L
sS'block.thisIndex'
p1144
I1
sg997
g990
sg999
L0L
sg1001
g1060
sa(dp1145
S'block.thisTrialN'
p1146
I17
sS'block.thisRepN'
p1147
I0
sg29
g33
sS'block.thisN'
p1148
I17
sg984
(S'THIRD'
S'DIVIDE'
S'x'
S'y'
tp1149
sg27
g28
sg986
L2L
sg987
(I3
I1
tp1150
sg22
I1
sg20
F1.6500088715838501
sg23
F2.1666428108146647
sVY
L2L
sVX
L6L
sg989
L0L
sg35
g36
sg37
g38
sg21
S'1'
sg19
S'space'
p1151
sg34
g11
sg992
L1L
sg993
g1030
sg995
L1L
sS'block.thisIndex'
p1152
I3
sg997
g998
sg999
L0L
sg1001
g1077
sa(dp1153
S'block.thisTrialN'
p1154
I0
sS'block.thisRepN'
p1155
I0
sg29
g33
sS'block.thisN'
p1156
I0
sVRule
p1157
(S'THIRD'
S'INCREASE'
S'SUBTRACT'
S'HALF'
S'x'
S'y'
tp1158
sg27
g28
sVLength
p1159
L4L
sVIntermediate
p1160
(I4
I2
I3
I1
tp1161
sg22
I0
sg20
F1.9481032154290006
sg23
F0.33352919622848276
sVY
L2L
sVX
L8L
sVOperatorc
p1162
VSUBTRACT
p1163
sg35
g36
sg37
g38
sg21
S'4'
sg19
S'space'
p1164
sg34
g11
sVResult
p1165
L1L
sVOperatora
p1166
Vincrease
p1167
sVCorrectResponse
p1168
L1L
sS'block.thisIndex'
p1169
I15
sVOperatorb
p1170
Vthird
p1171
sVOperatord
p1172
Vhalf
p1173
sVStructure
p1174
VUUBUxy
p1175
sa(dp1176
S'block.thisTrialN'
p1177
I1
sS'block.thisRepN'
p1178
I0
sg29
g33
sS'block.thisN'
p1179
I1
sg1157
(S'INCREASE'
S'TRIPLE'
S'HALF'
S'ADD'
S'x'
S'y'
tp1180
sg27
g28
sg1159
L4L
sg1160
(I4
I2
I6
I7
tp1181
sg22
I0
sg20
F3.9329529463575454
sg23
F0.65005996623949613
sVY
L2L
sVX
L2L
sg1162
g1173
sg35
g36
sg37
g38
sg21
S'6'
sg19
S'space'
p1182
sg34
g11
sg1165
L7L
sg1166
Vtriple
p1183
sg1168
L7L
sS'block.thisIndex'
p1184
I17
sg1170
g1167
sg1172
VADD
p1185
sg1174
VUUUBxy
p1186
sa(dp1187
S'block.thisTrialN'
p1188
I2
sS'block.thisRepN'
p1189
I0
sg29
g33
sS'block.thisN'
p1190
I2
sg1157
(S'TRIPLE'
S'SUBTRACT'
S'INCREASE'
S'HALF'
S'x'
S'y'
tp1191
sg27
g28
sg1159
L4L
sg1160
(I3
I4
I1
I3
tp1192
sg22
I0
sg20
F0.33334476547315717
sg23
F0.36691991191764828
sVY
L3L
sVX
L6L
sg1162
g1167
sg35
g36
sg37
g38
sg21
S'1'
sg19
S'space'
p1193
sg34
g11
sg1165
L3L
sg1166
g1163
sg1168
L3L
sS'block.thisIndex'
p1194
I13
sg1170
g1183
sg1172
g1173
sg1174
VUBUUxy
p1195
sa(dp1196
S'block.thisTrialN'
p1197
I3
sS'block.thisRepN'
p1198
I0
sg29
g33
sS'block.thisN'
p1199
I3
sg1157
(S'TRIPLE'
S'HALF'
S'TIMES'
S'x'
S'y'
tp1200
sg27
g28
sg1159
L3L
sg1160
(I6
I3
I9
tp1201
sg22
I1
sg20
F5.9162960845133057
sg23
F3.0498802949878154
sVY
L3L
sVX
L2L
sg1162
VTIMES
p1202
sg35
g36
sg37
g38
sg21
S'9'
sg19
S'space'
p1203
sg34
g11
sg1165
L9L
sg1166
g1173
sg1168
L9L
sS'block.thisIndex'
p1204
I9
sg1170
g1183
sg1172
L0L
sg1174
VUUBxy
p1205
sa(dp1206
S'block.thisTrialN'
p1207
I4
sS'block.thisRepN'
p1208
I0
sg29
g33
sS'block.thisN'
p1209
I4
sg1157
(S'SUBTRACT'
S'DOUBLE'
S'DECREASE'
S'x'
S'y'
tp1210
sg27
g28
sg1159
L3L
sg1160
(I8
I16
I7
tp1211
sg22
I0
sg20
F4.5975888916000258
sg23
F3.3833248000591993
sVY
L9L
sVX
L9L
sg1162
Vdecrease
p1212
sg35
g36
sg37
g38
sg21
S'2'
sg19
S'space'
p1213
sg34
g11
sg1165
L7L
sg1166
Vdouble
p1214
sg1168
L7L
sS'block.thisIndex'
p1215
I5
sg1170
g1163
sg1172
L0L
sg1174
VBUUxy
p1216
sa(dp1217
S'block.thisTrialN'
p1218
I5
sS'block.thisRepN'
p1219
I0
sg29
g33
sS'block.thisN'
p1220
I5
sg1157
(S'ADD'
S'DECREASE'
S'HALF'
S'x'
S'y'
tp1221
sg27
g28
sg1159
L3L
sg1160
(I3
I2
I6
tp1222
sg22
I1
sg20
F3.9331664240744431
sg23
F7.8303723506542156
sVY
L4L
sVX
L6L
sg1162
g1173
sg35
g36
sg37
g38
sg21
S'6'
sg19
S'space'
p1223
sg34
g11
sg1165
L6L
sg1166
g1212
sg1168
L6L
sS'block.thisIndex'
p1224
I4
sg1170
g1185
sg1172
L0L
sg1174
g1216
sa(dp1225
S'block.thisTrialN'
p1226
I6
sS'block.thisRepN'
p1227
I0
sg29
g33
sS'block.thisN'
p1228
I6
sg1157
(S'TIMES'
S'THIRD'
S'x'
S'y'
tp1229
sg27
g28
sg1159
L2L
sg1160
(I1
I4
tp1230
sg22
I1
sg20
F1.0501105709699914
sg23
F2.0666410960111534
sVY
L4L
sVX
L3L
sg1162
L0L
sg35
g36
sg37
g38
sg21
S'4'
sg19
S'space'
p1231
sg34
g11
sg1165
L4L
sg1166
g1171
sg1168
L4L
sS'block.thisIndex'
p1232
I1
sg1170
g1202
sg1172
L0L
sg1174
VBUxy
p1233
sa(dp1234
S'block.thisTrialN'
p1235
I7
sS'block.thisRepN'
p1236
I0
sg29
g33
sS'block.thisN'
p1237
I7
sg1157
(S'DECREASE'
S'DIVIDE'
S'TRIPLE'
S'DOUBLE'
S'x'
S'y'
tp1238
sg27
g28
sg1159
L4L
sg1160
(I6
I18
I2
I1
tp1239
sg22
I1
sg20
F6.7328448776388541
sg23
F6.1330435169074917
sVY
L9L
sVX
L3L
sg1162
g1183
sg35
g36
sg37
g38
sg21
S'1'
sg19
S'space'
p1240
sg34
g11
sg1165
L1L
sg1166
VDIVIDE
p1241
sg1168
L1L
sS'block.thisIndex'
p1242
I12
sg1170
g1212
sg1172
g1214
sg1174
g1195
sa(dp1243
S'block.thisTrialN'
p1244
I8
sS'block.thisRepN'
p1245
I0
sg29
g33
sS'block.thisN'
p1246
I8
sg1157
(S'INCREASE'
S'HALF'
S'TIMES'
S'TRIPLE'
S'x'
S'y'
tp1247
sg27
g28
sg1159
L4L
sg1160
(I6
I12
I6
I7
tp1248
sg22
I0
sg20
F0.6500995121023152
sg23
F0.80217894262750633
sVY
L2L
sVX
L2L
sg1162
g1202
sg35
g36
sg37
g38
sg21
S'4'
sg19
S'space'
p1249
sg34
g11
sg1165
L7L
sg1166
g1173
sg1168
L7L
sS'block.thisIndex'
p1250
I14
sg1170
g1167
sg1172
g1183
sg1174
g1175
sa(dp1251
S'block.thisTrialN'
p1252
I9
sS'block.thisRepN'
p1253
I0
sg29
g33
sS'block.thisN'
p1254
I9
sg1157
(S'INCREASE'
S'DIVIDE'
S'HALF'
S'x'
S'y'
tp1255
sg27
g28
sg1159
L3L
sg1160
(I2
I1
I2
tp1256
sg22
I1
sg20
F1.6334454499738058
sg23
F3.499874888046179
sVY
L2L
sVX
L4L
sg1162
g1173
sg35
g36
sg37
g38
sg21
S'2'
sg19
S'space'
p1257
sg34
g11
sg1165
L2L
sg1166
g1241
sg1168
L2L
sS'block.thisIndex'
p1258
I7
sg1170
g1167
sg1172
L0L
sg1174
VUBUxy
p1259
sa(dp1260
S'block.thisTrialN'
p1261
I10
sS'block.thisRepN'
p1262
I0
sg29
g33
sS'block.thisN'
p1263
I10
sg1157
(S'DOUBLE'
S'TIMES'
S'THIRD'
S'x'
S'y'
tp1264
sg27
g28
sg1159
L3L
sg1160
(I1
I4
I8
tp1265
sg22
I1
sg20
F5.2164828600216424
sg23
F4.0821206807158887
sVY
L4L
sVX
L3L
sg1162
g1171
sg35
g36
sg37
g38
sg21
S'8'
sg19
S'space'
p1266
sg34
g11
sg1165
L8L
sg1166
g1202
sg1168
L8L
sS'block.thisIndex'
p1267
I6
sg1170
g1214
sg1172
L0L
sg1174
g1259
sa(dp1268
S'block.thisTrialN'
p1269
I11
sS'block.thisRepN'
p1270
I0
sg29
g33
sS'block.thisN'
p1271
I11
sg1157
(S'INCREASE'
S'TIMES'
S'x'
S'y'
tp1272
sg27
g28
sg1159
L2L
sg1160
(I8
I9
tp1273
sg22
I1
sg20
F1.0334855557885021
sg23
F1.6501908525824547
sVY
L4L
sVX
L2L
sg1162
L0L
sg35
g36
sg37
g38
sg21
S'9'
sg19
S'space'
p1274
sg34
g11
sg1165
L9L
sg1166
g1202
sg1168
L9L
sS'block.thisIndex'
p1275
I2
sg1170
g1167
sg1172
L0L
sg1174
VUBxy
p1276
sa(dp1277
S'block.thisTrialN'
p1278
I12
sS'block.thisRepN'
p1279
I0
sg29
g33
sS'block.thisN'
p1280
I12
sg1157
(S'TIMES'
S'DECREASE'
S'THIRD'
S'DOUBLE'
S'x'
S'y'
tp1281
sg27
g28
sg1159
L4L
sg1160
(I6
I2
I1
I2
tp1282
sg22
I1
sg20
F3.9831443588918773
sg23
F6.8499461581232026
sVY
L2L
sVX
L3L
sg1162
g1171
sg35
g36
sg37
g38
sg21
S'2'
sg19
S'space'
p1283
sg34
g11
sg1165
L2L
sg1166
g1212
sg1168
L2L
sS'block.thisIndex'
p1284
I11
sg1170
g1202
sg1172
g1214
sg1174
VBUUUxy
p1285
sa(dp1286
S'block.thisTrialN'
p1287
I13
sS'block.thisRepN'
p1288
I0
sg29
g33
sS'block.thisN'
p1289
I13
sg1157
(S'SUBTRACT'
S'THIRD'
S'x'
S'y'
tp1290
sg27
g28
sg1159
L2L
sg1160
(I3
I1
tp1291
sg22
I1
sg20
F0.83339848485775292
sg23
F1.6667122785875108
sVY
L2L
sVX
L9L
sg1162
L0L
sg35
g36
sg37
g38
sg21
S'1'
sg19
S'space'
p1292
sg34
g11
sg1165
L1L
sg1166
g1171
sg1168
L1L
sS'block.thisIndex'
p1293
I0
sg1170
g1163
sg1172
L0L
sg1174
g1233
sa(dp1294
S'block.thisTrialN'
p1295
I14
sS'block.thisRepN'
p1296
I0
sg29
g33
sS'block.thisN'
p1297
I14
sg1157
(S'DECREASE'
S'HALF'
S'TRIPLE'
S'ADD'
S'x'
S'y'
tp1298
sg27
g28
sg1159
L4L
sg1160
(I4
I12
I6
I5
tp1299
sg22
I1
sg20
F2.2998697085859021
sg23
F4.3165083723433781
sVY
L2L
sVX
L2L
sg1162
g1183
sg35
g36
sg37
g38
sg21
S'5'
sg19
S'space'
p1300
sg34
g11
sg1165
L5L
sg1166
g1173
sg1168
L5L
sS'block.thisIndex'
p1301
I16
sg1170
g1212
sg1172
g1185
sg1174
g1186
sa(dp1302
S'block.thisTrialN'
p1303
I15
sS'block.thisRepN'
p1304
I0
sg29
g33
sS'block.thisN'
p1305
I15
sg1157
(S'DIVIDE'
S'DECREASE'
S'THIRD'
S'DOUBLE'
S'x'
S'y'
tp1306
sg27
g28
sg1159
L4L
sg1160
(I12
I4
I3
I1
tp1307
sg22
I1
sg20
F7.2496261515188962
sg23
F4.0498036529897945
sVY
L3L
sVX
L6L
sg1162
g1171
sg35
g36
sg37
g38
sg21
S'1'
sg19
S'space'
p1308
sg34
g11
sg1165
L1L
sg1166
g1212
sg1168
L1L
sS'block.thisIndex'
p1309
I10
sg1170
g1241
sg1172
g1214
sg1174
g1285
sa(dp1310
S'block.thisTrialN'
p1311
I16
sS'block.thisRepN'
p1312
I0
sg29
g33
sS'block.thisN'
p1313
I16
sg1157
(S'DECREASE'
S'HALF'
S'DIVIDE'
S'x'
S'y'
tp1314
sg27
g28
sg1159
L3L
sg1160
(I4
I2
I1
tp1315
sg22
I1
sg20
F3.849860417059972
sg23
F2.5334808312763926
sVY
L2L
sVX
L8L
sg1162
g1241
sg35
g36
sg37
g38
sg21
S'1'
sg19
S'space'
p1316
sg34
g11
sg1165
L1L
sg1166
g1173
sg1168
L1L
sS'block.thisIndex'
p1317
I8
sg1170
g1212
sg1172
L0L
sg1174
g1205
sa(dp1318
S'block.thisTrialN'
p1319
I17
sS'block.thisRepN'
p1320
I0
sg29
g33
sS'block.thisN'
p1321
I17
sg1157
(S'TRIPLE'
S'SUBTRACT'
S'x'
S'y'
tp1322
sg27
g28
sg1159
L2L
sg1160
(I2
I6
tp1323
sg22
I0
sg20
F0.83350697354762815
sg23
F2.2334228423278546
sVY
L6L
sVX
L8L
sg1162
L0L
sg35
g36
sg37
g38
sg21
S'5'
sg19
S'space'
p1324
sg34
g11
sg1165
L6L
sg1166
g1163
sg1168
L6L
sS'block.thisIndex'
p1325
I3
sg1170
g1183
sg1172
L0L
sg1174
g1276
sa(dp1326
S'block.thisTrialN'
p1327
I0
sS'block.thisRepN'
p1328
I0
sg29
g33
sS'block.thisN'
p1329
I0
sVRule
p1330
(S'THIRD'
S'INCREASE'
S'ADD'
S'DOUBLE'
S'x'
S'y'
tp1331
sg27
g28
sVLength
p1332
L4L
sVIntermediate
p1333
(I16
I20
I21
I7
tp1334
sg22
I0
sg20
F3.3331249884067802
sg23
F0.35033129293879028
sVY
L4L
sVX
L8L
sVOperatorc
p1335
VADD
p1336
sg35
g36
sg37
g38
sg21
S'6'
sg19
S'space'
p1337
sg34
g11
sVResult
p1338
L7L
sVOperatora
p1339
Vincrease
p1340
sVCorrectResponse
p1341
L7L
sS'block.thisIndex'
p1342
I14
sVOperatorb
p1343
Vthird
p1344
sVOperatord
p1345
Vdouble
p1346
sVStructure
p1347
VUUBUxy
p1348
sa(dp1349
S'block.thisTrialN'
p1350
I1
sS'block.thisRepN'
p1351
I0
sg29
g33
sS'block.thisN'
p1352
I1
sg1330
(S'TIMES'
S'THIRD'
S'DOUBLE'
S'x'
S'y'
tp1353
sg27
g28
sg1332
L3L
sg1333
(I6
I2
I4
tp1354
sg22
I0
sg20
F0.89999618539877702
sg23
F0.30014442992978729
sVY
L2L
sVX
L3L
sg1335
g1346
sg35
g36
sg37
g38
sg21
S'2'
sg19
S'space'
p1355
sg34
g11
sg1338
L4L
sg1339
g1344
sg1341
L4L
sS'block.thisIndex'
p1356
I5
sg1343
VTIMES
p1357
sg1345
L0L
sg1347
VBUUxy
p1358
sa(dp1359
S'block.thisTrialN'
p1360
I2
sS'block.thisRepN'
p1361
I0
sg29
g33
sS'block.thisN'
p1362
I2
sg1330
(S'INCREASE'
S'SUBTRACT'
S'THIRD'
S'x'
S'y'
tp1363
sg27
g28
sg1332
L3L
sg1333
(I3
I1
I2
tp1364
sg22
I0
sg20
F0.46686143301485572
sg23
F0.23350018424389418
sVY
L2L
sVX
L9L
sg1335
g1344
sg35
g36
sg37
g38
sg21
S'8'
sg19
S'space'
p1365
sg34
g11
sg1338
L2L
sg1339
VSUBTRACT
p1366
sg1341
L2L
sS'block.thisIndex'
p1367
I7
sg1343
g1340
sg1345
L0L
sg1347
VUBUxy
p1368
sa(dp1369
S'block.thisTrialN'
p1370
I3
sS'block.thisRepN'
p1371
I0
sg29
g33
sS'block.thisN'
p1372
I3
sg1330
(S'THIRD'
S'INCREASE'
S'SUBTRACT'
S'x'
S'y'
tp1373
sg27
g28
sg1332
L3L
sg1333
(I2
I3
I1
tp1374
sg22
I1
sg20
F1.2001826109481044
sg23
F4.3329556060780305
sVY
L6L
sVX
L8L
sg1335
g1366
sg35
g36
sg37
g38
sg21
S'1'
sg19
S'space'
p1375
sg34
g11
sg1338
L1L
sg1339
g1340
sg1341
L1L
sS'block.thisIndex'
p1376
I9
sg1343
g1344
sg1345
L0L
sg1347
VUUBxy
p1377
sa(dp1378
S'block.thisTrialN'
p1379
I4
sS'block.thisRepN'
p1380
I0
sg29
g33
sS'block.thisN'
p1381
I4
sg1330
(S'DIVIDE'
S'DOUBLE'
S'INCREASE'
S'THIRD'
S'x'
S'y'
tp1382
sg27
g28
sg1332
L4L
sg1333
(I2
I3
I6
I2
tp1383
sg22
I0
sg20
F0.78348774304322433
sg23
F0.96669117578130681
sVY
L3L
sVX
L6L
sg1335
g1340
sg35
g36
sg37
g38
sg21
S'5'
sg19
S'space'
p1384
sg34
g11
sg1338
L2L
sg1339
g1346
sg1341
L2L
sS'block.thisIndex'
p1385
I10
sg1343
VDIVIDE
p1386
sg1345
g1344
sg1347
VBUUUxy
p1387
sa(dp1388
S'block.thisTrialN'
p1389
I5
sS'block.thisRepN'
p1390
I0
sg29
g33
sS'block.thisN'
p1391
I5
sg1330
(S'INCREASE'
S'ADD'
S'TRIPLE'
S'x'
S'y'
tp1392
sg27
g28
sg1332
L3L
sg1333
(I6
I8
I9
tp1393
sg22
I1
sg20
F1.1835019515710883
sg23
F6.382823302395991
sVY
L2L
sVX
L2L
sg1335
Vtriple
p1394
sg35
g36
sg37
g38
sg21
S'9'
sg19
S'space'
p1395
sg34
g11
sg1338
L9L
sg1339
g1336
sg1341
L9L
sS'block.thisIndex'
p1396
I6
sg1343
g1340
sg1345
L0L
sg1347
g1368
sa(dp1397
S'block.thisTrialN'
p1398
I6
sS'block.thisRepN'
p1399
I0
sg29
g33
sS'block.thisN'
p1400
I6
sg1330
(S'SUBTRACT'
S'INCREASE'
S'x'
S'y'
tp1401
sg27
g28
sg1332
L2L
sg1333
(I6
I2
tp1402
sg22
I1
sg20
F1.5166951828578021
sg23
F1.8501060914422851
sVY
L4L
sVX
L5L
sg1335
L0L
sg35
g36
sg37
g38
sg21
S'2'
sg19
S'space'
p1403
sg34
g11
sg1338
L2L
sg1339
g1340
sg1341
L2L
sS'block.thisIndex'
p1404
I1
sg1343
g1366
sg1345
L0L
sg1347
VBUxy
p1405
sa(dp1406
S'block.thisTrialN'
p1407
I7
sS'block.thisRepN'
p1408
I0
sg29
g33
sS'block.thisN'
p1409
I7
sg1330
(S'TRIPLE'
S'DOUBLE'
S'SUBTRACT'
S'DECREASE'
S'x'
S'y'
tp1410
sg27
g28
sg1332
L4L
sg1333
(I4
I1
I2
I6
tp1411
sg22
I1
sg20
F2.7163965940271737
sg23
F4.683414985644049
sVY
L3L
sVX
L5L
sg1335
g1366
sg35
g36
sg37
g38
sg21
S'6'
sg19
S'space'
p1412
sg34
g11
sg1338
L6L
sg1339
g1346
sg1341
L6L
sS'block.thisIndex'
p1413
I15
sg1343
g1394
sg1345
Vdecrease
p1414
sg1347
g1348
sa(dp1415
S'block.thisTrialN'
p1416
I8
sS'block.thisRepN'
p1417
I0
sg29
g33
sS'block.thisN'
p1418
I8
sg1330
(S'DOUBLE'
S'ADD'
S'x'
S'y'
tp1419
sg27
g28
sg1332
L2L
sg1333
(I4
I8
tp1420
sg22
I1
sg20
F0.8002880899439333
sg23
F1.9334841909148963
sVY
L2L
sVX
L2L
sg1335
L0L
sg35
g36
sg37
g38
sg21
S'8'
sg19
S'space'
p1421
sg34
g11
sg1338
L8L
sg1339
g1336
sg1341
L8L
sS'block.thisIndex'
p1422
I2
sg1343
g1346
sg1345
L0L
sg1347
VUBxy
p1423
sa(dp1424
S'block.thisTrialN'
p1425
I9
sS'block.thisRepN'
p1426
I0
sg29
g33
sS'block.thisN'
p1427
I9
sg1330
(S'INCREASE'
S'DIVIDE'
S'TRIPLE'
S'HALF'
S'x'
S'y'
tp1428
sg27
g28
sg1332
L4L
sg1333
(I2
I6
I2
I3
tp1429
sg22
I1
sg20
F2.1166788745613303
sg23
F6.7662114458362339
sVY
L3L
sVX
L4L
sg1335
g1394
sg35
g36
sg37
g38
sg21
S'3'
sg19
S'space'
p1430
sg34
g11
sg1338
L3L
sg1339
g1386
sg1341
L3L
sS'block.thisIndex'
p1431
I12
sg1343
g1340
sg1345
Vhalf
p1432
sg1347
VUBUUxy
p1433
sa(dp1434
S'block.thisTrialN'
p1435
I10
sS'block.thisRepN'
p1436
I0
sg29
g33
sS'block.thisN'
p1437
I10
sg1330
(S'DECREASE'
S'TRIPLE'
S'HALF'
S'ADD'
S'x'
S'y'
tp1438
sg27
g28
sg1332
L4L
sg1333
(I6
I3
I9
I8
tp1439
sg22
I1
sg20
F2.1167401181737659
sg23
F5.8163622626016149
sVY
L2L
sVX
L4L
sg1335
g1432
sg35
g36
sg37
g38
sg21
S'8'
sg19
S'space'
p1440
sg34
g11
sg1338
L8L
sg1339
g1394
sg1341
L8L
sS'block.thisIndex'
p1441
I16
sg1343
g1414
sg1345
g1336
sg1347
VUUUBxy
p1442
sa(dp1443
S'block.thisTrialN'
p1444
I11
sS'block.thisRepN'
p1445
I0
sg29
g33
sS'block.thisN'
p1446
I11
sg1330
(S'DECREASE'
S'TRIPLE'
S'DIVIDE'
S'x'
S'y'
tp1447
sg27
g28
sg1332
L3L
sg1333
(I2
I6
I5
tp1448
sg22
I1
sg20
F2.9833070919121383
sg23
F3.5164936038927408
sVY
L4L
sVX
L8L
sg1335
g1386
sg35
g36
sg37
g38
sg21
S'5'
sg19
S'space'
p1449
sg34
g11
sg1338
L5L
sg1339
g1394
sg1341
L5L
sS'block.thisIndex'
p1450
I8
sg1343
g1414
sg1345
L0L
sg1347
g1377
sa(dp1451
S'block.thisTrialN'
p1452
I12
sS'block.thisRepN'
p1453
I0
sg29
g33
sS'block.thisN'
p1454
I12
sg1330
(S'ADD'
S'THIRD'
S'x'
S'y'
tp1455
sg27
g28
sg1332
L2L
sg1333
(I1
I7
tp1456
sg22
I1
sg20
F1.0167573013750371
sg23
F1.9501508517569164
sVY
L6L
sVX
L3L
sg1335
L0L
sg35
g36
sg37
g38
sg21
S'7'
sg19
S'space'
p1457
sg34
g11
sg1338
L7L
sg1339
g1344
sg1341
L7L
sS'block.thisIndex'
p1458
I0
sg1343
g1336
sg1345
L0L
sg1347
g1405
sa(dp1459
S'block.thisTrialN'
p1460
I13
sS'block.thisRepN'
p1461
I0
sg29
g33
sS'block.thisN'
p1462
I13
sg1330
(S'THIRD'
S'TIMES'
S'HALF'
S'INCREASE'
S'x'
S'y'
tp1463
sg27
g28
sg1332
L4L
sg1333
(I8
I4
I12
I4
tp1464
sg22
I1
sg20
F3.6665624941961141
sg23
F5.3163844852824695
sVY
L3L
sVX
L7L
sg1335
g1432
sg35
g36
sg37
g38
sg21
S'4'
sg19
S'space'
p1465
sg34
g11
sg1338
L4L
sg1339
g1357
sg1341
L4L
sS'block.thisIndex'
p1466
I13
sg1343
g1344
sg1345
g1340
sg1347
g1433
sa(dp1467
S'block.thisTrialN'
p1468
I14
sS'block.thisRepN'
p1469
I0
sg29
g33
sS'block.thisN'
p1470
I14
sg1330
(S'TRIPLE'
S'DECREASE'
S'HALF'
S'SUBTRACT'
S'x'
S'y'
tp1471
sg27
g28
sg1332
L4L
sg1333
(I4
I2
I1
I3
tp1472
sg22
I1
sg20
F6.6834811287408229
sg23
F4.9331569750793278
sVY
L5L
sVX
L9L
sg1335
g1432
sg35
g36
sg37
g38
sg21
S'3'
sg19
S'space'
p1473
sg34
g11
sg1338
L3L
sg1339
g1414
sg1341
L3L
sS'block.thisIndex'
p1474
I17
sg1343
g1394
sg1345
g1366
sg1347
g1442
sa(dp1475
S'block.thisTrialN'
p1476
I15
sS'block.thisRepN'
p1477
I0
sg29
g33
sS'block.thisN'
p1478
I15
sg1330
(S'DOUBLE'
S'TIMES'
S'x'
S'y'
tp1479
sg27
g28
sg1332
L2L
sg1333
(I4
I8
tp1480
sg22
I1
sg20
F3.350042573059909
sg23
F2.6830517235503066
sVY
L2L
sVX
L2L
sg1335
L0L
sg35
g36
sg37
g38
sg21
S'8'
sg19
S'space'
p1481
sg34
g11
sg1338
L8L
sg1339
g1357
sg1341
L8L
sS'block.thisIndex'
p1482
I3
sg1343
g1346
sg1345
L0L
sg1347
g1423
sa(dp1483
S'block.thisTrialN'
p1484
I16
sS'block.thisRepN'
p1485
I0
sg29
g33
sS'block.thisN'
p1486
I16
sg1330
(S'DIVIDE'
S'TRIPLE'
S'HALF'
S'x'
S'y'
tp1487
sg27
g28
sg1332
L3L
sg1333
(I4
I12
I4
tp1488
sg22
I1
sg20
F2.2166424433526117
sg23
F3.2666333268134622
sVY
L3L
sVX
L8L
sg1335
g1432
sg35
g36
sg37
g38
sg21
S'4'
sg19
S'space'
p1489
sg34
g11
sg1338
L4L
sg1339
g1394
sg1341
L4L
sS'block.thisIndex'
p1490
I4
sg1343
g1386
sg1345
L0L
sg1347
g1358
sa(dp1491
S'block.thisTrialN'
p1492
I17
sS'block.thisRepN'
p1493
I0
sg29
g33
sS'block.thisN'
p1494
I17
sg1330
(S'TIMES'
S'INCREASE'
S'HALF'
S'TRIPLE'
S'x'
S'y'
tp1495
sg27
g28
sg1332
L4L
sg1333
(I6
I3
I4
I8
tp1496
sg22
I0
sg20
F2.5334241371892858
sg23
F7.0662452873075381
sVY
L2L
sVX
L2L
sg1335
g1432
sg35
g36
sg37
g38
sg21
S'3'
sg19
S'space'
p1497
sg34
g11
sg1338
L8L
sg1339
g1340
sg1341
L8L
sS'block.thisIndex'
p1498
I11
sg1343
g1357
sg1345
g1394
sg1347
g1387
sasS'loops'
p1499
(lp1500
g1
(cpsychopy.data
TrialHandler
p1501
g3
NtRp1502
(dp1503
S'origin'
p1504
NsS'thisTrial'
p1505
(lp1506
sS'_exp'
p1507
I336065520
sg10
S'practice_trials'
p1508
sg6
S'C:\\Users\\experimenter\\Desktop\\Experiments\\KRITL\\2. kritl_experimenter.py'
p1509
sS'thisRepN'
p1510
I1
sg24
I01
sg25
g26
sS'data'
p1511
g1
(cpsychopy.data
DataHandler
p1512
c__builtin__
dict
p1513
(dp1514
g15
cnumpy.core.multiarray
_reconstruct
p1515
(cnumpy
ndarray
p1516
(I0
tS'b'
tRp1517
(I1
(I6
I1
tg31
(S'O4'
I0
I1
tRp1518
(I3
S'|'
NNNI-1
I-1
I63
tbI00
(lp1519
(lp1520
F4.0997549905587221
aa(lp1521
F3.2331855670781806
aa(lp1522
F4.0164300855249166
aa(lp1523
F5.9329847930348478
aa(lp1524
F9.3993041326175444
aa(lp1525
F12.64908881757583
aatbsg16
g1515
(g1516
(I0
tS'b'
tRp1526
(I1
(I6
I1
tg1518
I00
(lp1527
S'2'
aS'8'
aS'7'
aS'8'
aS'3'
aNatbsS'ran'
p1528
cnumpy.ma.core
_mareconstruct
p1529
(cnumpy.ma.core
MaskedArray
p1530
g1516
(I0
tp1531
S'b'
tRp1532
(I1
(I6
I1
tg31
(S'f4'
I0
I1
tRp1533
(I3
S'<'
NNNI-1
I-1
I0
tbI00
S'\x00\x00\x80?\x00\x00\x80?\x00\x00\x80?\x00\x00\x80?\x00\x00\x80?\x00\x00\x80?'
S'\x00\x00\x00\x00\x00\x00'
Ntbsg18
g1529
(g1530
g1516
g1531
S'b'
tRp1534
(I1
(I6
I1
tg1533
I00
S'\x1fs\xa7@\nR\xb5?\xc6\xfd\x1f@\x81\xea\xde@\x1eS\x01A\x00\x00\x00\x00'
S'\x00\x00\x00\x00\x00\x01'
Ntbsg14
g1515
(g1516
(I0
tS'b'
tRp1535
(I1
(I6
I1
tg1518
I00
(lp1536
(lp1537
g73
aa(lp1538
g120
aa(lp1539
g102
aa(lp1540
g111
aa(lp1541
g93
aa(lp1542
g80
aatbsS'order'
p1543
g1529
(g1530
g1516
g1531
S'b'
tRp1544
(I1
(I6
I1
tg1533
I00
S'\x00\x00\x00\x00\x00\x00\xa0@\x00\x00@@\x00\x00\x80@\x00\x00\x00@\x00\x00\x80?'
S'\x00\x00\x00\x00\x00\x00'
Ntbsg17
g1529
(g1530
g1516
g1531
S'b'
tRp1545
(I1
(I6
I1
tg1533
I00
S'\x00\x00\x00\x00\x00\x00\x80?\x00\x00\x80?\x00\x00\x80?\x00\x00\x80?\x00\x00\x00\x00'
S'\x00\x00\x00\x00\x00\x00'
NtbstRp1546
(dp1547
S'isNumeric'
p1548
(dp1549
g16
I00
sg1528
I01
sg18
I01
sg14
I00
sg17
I01
sg1543
I01
sg15
I00
ssS'trials'
p1550
g1502
sS'dataTypes'
p1551
(lp1552
g1528
ag1543
ag14
ag15
ag16
ag17
ag18
asS'dataShape'
p1553
(lp1554
I6
aI1
asbsS'method'
p1555
S'fullRandom'
p1556
sS'sequenceIndices'
p1557
g1515
(g1516
(I0
tS'b'
tRp1558
(I1
(I6
I1
tg1518
I00
(lp1559
I0
aI5
aI4
aI2
aI3
aI1
atbsS'finished'
p1560
I01
sS'nReps'
p1561
I1
sS'nRemaining'
p1562
I-1
sS'trialList'
p1563
(lp1564
g1
(cpsychopy.data
TrialType
p1565
g1513
(dp1566
g47
L0L
sg48
g68
sg49
g69
sg50
L7L
sg53
L2L
sg52
L0L
sg51
L5L
sg54
L3L
stRp1567
ag1
(g1565
g1513
(dp1568
g47
L0L
sg48
g69
sg49
g116
sg50
L8L
sg53
L2L
sg52
L0L
sg51
L3L
sg54
L3L
stRp1569
ag1
(g1565
g1513
(dp1570
g47
L0L
sg48
g68
sg49
g98
sg50
L7L
sg53
L2L
sg52
L0L
sg51
L5L
sg54
L4L
stRp1571
ag1
(g1565
g1513
(dp1572
g47
g68
sg48
g107
sg49
g98
sg50
L8L
sg53
L3L
sg52
L0L
sg51
L2L
sg54
L4L
stRp1573
ag1
(g1565
g1513
(dp1574
g47
g78
sg48
g83
sg49
g86
sg50
L3L
sg53
L3L
sg52
L0L
sg51
L3L
sg54
L2L
stRp1575
ag1
(g1565
g1513
(dp1576
g47
g78
sg48
g83
sg49
g81
sg50
L9L
sg53
L4L
sg52
g86
sg51
L8L
sg54
L8L
stRp1577
asS'seed'
p1578
NsS'thisIndex'
p1579
I1
sS'thisN'
p1580
I6
sS'thisTrialN'
p1581
I0
sS'nTotal'
p1582
I6
sbag1
(g1501
g3
NtRp1583
(dp1584
g1504
Nsg1505
(lp1585
sg1507
I336065520
sg10
S'block'
p1586
sg6
g1509
sg1510
I1
sg24
I01
sg25
g26
sg1511
g1
(g1512
g1513
(dp1587
g22
g1529
(g1530
g1516
g1531
S'b'
tRp1588
(I1
(I18
I1
tg1533
I00
S'\x00\x00\x80?\x00\x00\x80?\x00\x00\x80?\x00\x00\x80?\x00\x00\x80?\x00\x00\x80?\x00\x00\x80?\x00\x00\x00\x00\x00\x00\x80?\x00\x00\x80?\x00\x00\x80?\x00\x00\x00\x00\x00\x00\x00\x00\x00\x00\x80?\x00\x00\x00\x00\x00\x00\x80?\x00\x00\x80?\x00\x00\x80?'
S'\x00\x00\x00\x00\x00\x00\x00\x00\x00\x00\x00\x00\x00\x00\x00\x00\x00\x00'
Ntbsg19
g1515
(g1516
(I0
tS'b'
tRp1589
(I1
(I18
I1
tg1518
I00
(lp1590
g209
ag153
ag236
ag269
ag143
ag261
ag227
ag245
ag277
ag183
ag192
ag219
ag201
ag174
ag131
ag253
ag285
ag164
atbsg23
g1529
(g1530
g1516
g1531
S'b'
tRp1591
(I1
(I18
I1
tg1533
I00
S'\x8d"\x12@\x10f\x06@TS5@\xf8\xdb\xa5@V\xa9\xaa@yR\xcd@\xc3\x7f\x9c@\xd60\x13A\t\xccl@\x9c\xdb\x8d@BA\xbc@\xd8\xb8\'A\xa6\xfc\xef@\xd2\xd9\xcd@\x8fPaA\xa50\xb3@i\xa7\xaa@u\x96-A'
S'\x00\x00\x00\x00\x00\x00\x00\x00\x00\x00\x00\x00\x00\x00\x00\x00\x00\x00'
Ntbsg1528
g1529
(g1530
g1516
g1531
S'b'
tRp1592
(I1
(I18
I1
tg1533
I00
S'\x00\x00\x80?\x00\x00\x80?\x00\x00\x80?\x00\x00\x80?\x00\x00\x80?\x00\x00\x80?\x00\x00\x80?\x00\x00\x80?\x00\x00\x80?\x00\x00\x80?\x00\x00\x80?\x00\x00\x80?\x00\x00\x80?\x00\x00\x80?\x00\x00\x80?\x00\x00\x80?\x00\x00\x80?\x00\x00\x80?'
S'\x00\x00\x00\x00\x00\x00\x00\x00\x00\x00\x00\x00\x00\x00\x00\x00\x00\x00'
Ntbsg21
g1515
(g1516
(I0
tS'b'
tRp1593
(I1
(I18
I1
tg1518
I00
(lp1594
S'2'
aS'3'
aS'1'
aS'6'
aS'9'
aS'4'
aS'6'
aS'4'
aS'7'
aS'1'
aS'8'
aS'2'
aS'2'
aS'2'
aS'5'
aS'1'
aS'6'
aS'6'
atbsg1543
g1529
(g1530
g1516
g1531
S'b'
tRp1595
(I1
(I18
I1
tg1533
I00
S'\x00\x00\x00A\x00\x00\x00@\x00\x000A\x00\x00pA\x00\x00\x80?\x00\x00`A\x00\x00 A\x00\x00@A\x00\x00\x80A\x00\x00\xa0@\x00\x00\xc0@\x00\x00\x10A\x00\x00\xe0@\x00\x00\x80@\x00\x00\x00\x00\x00\x00PA\x00\x00\x88A\x00\x00@@'
S'\x00\x00\x00\x00\x00\x00\x00\x00\x00\x00\x00\x00\x00\x00\x00\x00\x00\x00'
Ntbsg20
g1529
(g1530
g1516
g1531
S'b'
tRp1596
(I1
(I18
I1
tg1533
I00
S'y\xba+@\x1d\x0eq@\xa9\xcc\x0c@\x12\x1c\xe2?z\x85\xc8@~A\xcc@\x8e\xcb\x84@u\xeb\x9e@\x03\x87\x90@\xf7\x86h@\xe1\xea\xee@\xdc\x0c\xe1@\xa5/\xd3@}\xfd\xb7@\x85\xec\nA>Q\xa5@\x06\x97\xc1@\xdf/\xe3@'
S'\x00\x00\x00\x00\x00\x00\x00\x00\x00\x00\x00\x00\x00\x00\x00\x00\x00\x00'
NtbstRp1597
(dp1598
g1548
(dp1599
g1528
I01
sg21
I00
sg20
I01
sg22
I01
sg19
I00
sg23
I01
sg1543
I01
ssg1550
g1583
sg1551
(lp1600
g1528
ag1543
ag19
ag20
ag21
ag22
ag23
asg1553
(lp1601
I18
aI1
asbsg1555
g1556
sg1557
g1515
(g1516
(I0
tS'b'
tRp1602
(I1
(I18
I1
tg1518
I00
(lp1603
I14
aI4
aI1
aI17
aI13
aI9
aI10
aI12
aI0
aI11
aI6
aI2
aI7
aI15
aI5
aI3
aI8
aI16
atbsg1560
I01
sg1561
I1
sg1562
I-1
sg1563
(lp1604
g1
(g1565
g1513
(dp1605
g55
g207
sVY
L2L
sg57
L2L
sg58
g208
sg59
L2L
sg60
L2L
sg56
g163
sVX
L3L
sg61
L0L
sg62
g211
sg63
L0L
sg64
g156
stRp1606
ag1
(g1565
g1513
(dp1607
g55
g151
sVY
L2L
sg57
L2L
sg58
g152
sg59
L3L
sg60
L3L
sg56
g135
sVX
L6L
sg61
L0L
sg62
g155
sg63
L0L
sg64
g156
stRp1608
ag1
(g1565
g1513
(dp1609
g55
g234
sVY
L4L
sg57
L2L
sg58
g235
sg59
L1L
sg60
L1L
sg56
g211
sVX
L8L
sg61
L0L
sg62
g135
sg63
L0L
sg64
g238
stRp1610
ag1
(g1565
g1513
(dp1611
g55
g267
sVY
L2L
sg57
L2L
sg58
g268
sg59
L6L
sg60
L6L
sg56
g130
sVX
L3L
sg61
L0L
sg62
g163
sg63
L0L
sg64
g238
stRp1612
ag1
(g1565
g1513
(dp1613
g55
g141
sVY
L8L
sg57
L3L
sg58
g142
sg59
L9L
sg60
L9L
sg56
g144
sVX
L6L
sg61
g134
sg62
g130
sg63
L0L
sg64
g146
stRp1614
ag1
(g1565
g1513
(dp1615
g55
g259
sVY
L2L
sg57
L3L
sg58
g260
sg59
L4L
sg60
L4L
sg56
g135
sVX
L3L
sg61
g218
sg62
g211
sg63
L0L
sg64
g146
stRp1616
ag1
(g1565
g1513
(dp1617
g55
g225
sVY
L3L
sg57
L3L
sg58
g226
sg59
L6L
sg60
L6L
sg56
g130
sVX
L3L
sg61
g218
sg62
g144
sg63
L0L
sg64
g229
stRp1618
ag1
(g1565
g1513
(dp1619
g55
g243
sVY
L2L
sg57
L3L
sg58
g244
sg59
L3L
sg60
L3L
sg56
g155
sVX
L8L
sg61
g144
sg62
g163
sg63
L0L
sg64
g229
stRp1620
ag1
(g1565
g1513
(dp1621
g55
g275
sVY
L3L
sg57
L3L
sg58
g276
sg59
L7L
sg60
L7L
sg56
g218
sVX
L6L
sg61
g211
sg62
g163
sg63
L0L
sg64
g185
stRp1622
ag1
(g1565
g1513
(dp1623
g55
g181
sVY
L3L
sg57
L3L
sg58
g182
sg59
L1L
sg60
L1L
sg56
g144
sVX
L3L
sg61
g130
sg62
g134
sg63
L0L
sg64
g185
stRp1624
ag1
(g1565
g1513
(dp1625
g55
g190
sVY
L6L
sg57
L4L
sg58
g191
sg59
L8L
sg60
L8L
sg56
g132
sVX
L6L
sg61
g135
sg62
g130
sg63
g134
sg64
g194
stRp1626
ag1
(g1565
g1513
(dp1627
g55
g216
sVY
L9L
sg57
L4L
sg58
g217
sg59
L8L
sg60
L8L
sg56
g135
sVX
L3L
sg61
g218
sg62
g155
sg63
g132
sg64
g194
stRp1628
ag1
(g1565
g1513
(dp1629
g55
g199
sVY
L2L
sg57
L4L
sg58
g200
sg59
L8L
sg60
L8L
sg56
g130
sVX
L3L
sg61
g163
sg62
g132
sg63
g134
sg64
g176
stRp1630
ag1
(g1565
g1513
(dp1631
g55
g172
sVY
L3L
sg57
L4L
sg58
g173
sg59
L2L
sg60
L2L
sg56
g166
sVX
L2L
sg61
g132
sg62
g134
sg63
g135
sg64
g176
stRp1632
ag1
(g1565
g1513
(dp1633
g55
g128
sVY
L7L
sg57
L4L
sg58
g129
sg59
L8L
sg60
L8L
sg56
g132
sVX
L6L
sg61
g130
sg62
g134
sg63
g135
sg64
g136
stRp1634
ag1
(g1565
g1513
(dp1635
g55
g251
sVY
L9L
sg57
L4L
sg58
g252
sg59
L1L
sg60
L1L
sg56
g163
sVX
L9L
sg61
g211
sg62
g134
sg63
g132
sg64
g136
stRp1636
ag1
(g1565
g1513
(dp1637
g55
g283
sVY
L3L
sg57
L4L
sg58
g284
sg59
L6L
sg60
L6L
sg56
g218
sVX
L9L
sg61
g163
sg62
g144
sg63
g211
sg64
g167
stRp1638
ag1
(g1565
g1513
(dp1639
g55
g161
sVY
L4L
sg57
L4L
sg58
g162
sg59
L6L
sg60
L6L
sg56
g132
sVX
L2L
sg61
g163
sg62
g134
sg63
g166
sg64
g167
stRp1640
asg1578
Nsg1579
I16
sg1580
I18
sg1581
I0
sg1582
I18
sbag1
(g1501
g3
NtRp1641
(dp1642
g1504
Nsg1505
(lp1643
sg1507
I336065520
sg10
g1586
sg6
g1509
sg1510
I1
sg24
I01
sg25
g26
sg1511
g1
(g1512
g1513
(dp1644
g22
g1529
(g1530
g1516
g1531
S'b'
tRp1645
(I1
(I18
I1
tg1533
I00
S'\x00\x00\x80?\x00\x00\x80?\x00\x00\x80?\x00\x00\x80?\x00\x00\x00\x00\x00\x00\x80?\x00\x00\x80?\x00\x00\x80?\x00\x00\x80?\x00\x00\x80?\x00\x00\x80?\x00\x00\x00\x00\x00\x00\x80?\x00\x00\x80?\x00\x00\x80?\x00\x00\x80?\x00\x00\x00\x00\x00\x00\x80?'
S'\x00\x00\x00\x00\x00\x00\x00\x00\x00\x00\x00\x00\x00\x00\x00\x00\x00\x00'
Ntbsg19
g1515
(g1516
(I0
tS'b'
tRp1646
(I1
(I18
I1
tg1518
I00
(lp1647
g364
ag426
ag401
ag336
ag393
ag374
ag450
ag417
ag409
ag346
ag298
ag316
ag434
ag355
ag442
ag327
ag458
ag383
atbsg23
g1529
(g1530
g1516
g1531
S'b'
tRp1648
(I1
(I18
I1
tg1533
I00
S"1\x1fr@P\xdd\x1d@\r\xdf\xdd?\xac\x87X@h\xca\xac@\x87\xec\xae@\xc2\xca|@\n\x0fq@ECD@\xed\xff?@\xa2\xda\xe5@0\xb9'A\t\xc9\xec@P\x97\xb1@\xab\x1f\xd2@\x06\x97%A#\r]A\x1c\x96QA"
S'\x00\x00\x00\x00\x00\x00\x00\x00\x00\x00\x00\x00\x00\x00\x00\x00\x00\x00'
Ntbsg1528
g1529
(g1530
g1516
g1531
S'b'
tRp1649
(I1
(I18
I1
tg1533
I00
S'\x00\x00\x80?\x00\x00\x80?\x00\x00\x80?\x00\x00\x80?\x00\x00\x80?\x00\x00\x80?\x00\x00\x80?\x00\x00\x80?\x00\x00\x80?\x00\x00\x80?\x00\x00\x80?\x00\x00\x80?\x00\x00\x80?\x00\x00\x80?\x00\x00\x80?\x00\x00\x80?\x00\x00\x80?\x00\x00\x80?'
S'\x00\x00\x00\x00\x00\x00\x00\x00\x00\x00\x00\x00\x00\x00\x00\x00\x00\x00'
Ntbsg21
g1515
(g1516
(I0
tS'b'
tRp1650
(I1
(I18
I1
tg1518
I00
(lp1651
S'7'
aS'9'
aS'2'
aS'5'
aS'8'
aS'3'
aS'8'
aS'3'
aS'9'
aS'6'
aS'5'
aS'4'
aS'5'
aS'7'
aS'6'
aS'9'
aS'8'
aS'5'
atbsg1543
g1529
(g1530
g1516
g1531
S'b'
tRp1652
(I1
(I18
I1
tg1533
I00
S'\x00\x00\xc0@\x00\x00PA\x00\x00 A\x00\x00@@\x00\x00\x10A\x00\x00\xe0@\x00\x00\x80A\x00\x00@A\x00\x000A\x00\x00\x80@\x00\x00\x00\x00\x00\x00\x80?\x00\x00`A\x00\x00\xa0@\x00\x00pA\x00\x00\x00@\x00\x00\x88A\x00\x00\x00A'
S'\x00\x00\x00\x00\x00\x00\x00\x00\x00\x00\x00\x00\x00\x00\x00\x00\x00\x00'
Ntbsg20
g1529
(g1530
g1516
g1531
S'b'
tRp1653
(I1
(I18
I1
tg1533
I00
S'\x894\xd3?\xa41\x8b@1\xce\xcc?\xfdS5@\xc2\x0e\x91@\xbd\xa8\x8a@\x9f\x87\x90@a\x0e\xb9@\x12\xcb\x8c@\xca@t@\xca\xfc\xbf@\n\xeb\xe6@g\xa8\x9a@\x08\xda\xed@\x1a\xa8\xba@\xe2\x0c\xf9@\xc1\x0ba@\xc1\xfd_@'
S'\x00\x00\x00\x00\x00\x00\x00\x00\x00\x00\x00\x00\x00\x00\x00\x00\x00\x00'
NtbstRp1654
(dp1655
g1548
(dp1656
g1528
I01
sg21
I00
sg20
I01
sg22
I01
sg19
I00
sg23
I01
sg1543
I01
ssg1550
g1641
sg1551
(lp1657
g1528
ag1543
ag19
ag20
ag21
ag22
ag23
asg1553
(lp1658
I18
aI1
asbsg1555
g1556
sg1557
g1515
(g1516
(I0
tS'b'
tRp1659
(I1
(I18
I1
tg1518
I00
(lp1660
I10
aI11
aI15
aI3
aI9
aI13
aI0
aI5
aI17
aI4
aI2
aI8
aI7
aI1
aI12
aI14
aI6
aI16
atbsg1560
I01
sg1561
I1
sg1562
I-1
sg1563
(lp1661
g1
(g1565
g1513
(dp1662
g291
g362
sVY
L5L
sg293
L2L
sg294
g363
sg302
L7L
sg299
L7L
sg300
g317
sVX
L4L
sg296
L0L
sg304
g366
sg306
L0L
sg308
g367
stRp1663
ag1
(g1565
g1513
(dp1664
g291
g424
sVY
L3L
sg293
L2L
sg294
g425
sg302
L9L
sg299
L9L
sg300
g307
sVX
L4L
sg296
L0L
sg304
g345
sg306
L0L
sg308
g367
stRp1665
ag1
(g1565
g1513
(dp1666
g291
g399
sVY
L8L
sg293
L2L
sg294
g400
sg302
L2L
sg299
L2L
sg300
g305
sVX
L8L
sg296
L0L
sg304
g301
sg306
L0L
sg308
g338
stRp1667
ag1
(g1565
g1513
(dp1668
g291
g334
sVY
L2L
sg293
L2L
sg294
g335
sg302
L5L
sg299
L5L
sg300
g305
sVX
L8L
sg296
L0L
sg304
g297
sg306
L0L
sg308
g338
stRp1669
ag1
(g1565
g1513
(dp1670
g291
g390
sVY
L2L
sg293
L3L
sg294
g391
sg302
L9L
sg299
L9L
sg300
g307
sVX
L7L
sg296
g392
sg304
g305
sg306
L0L
sg308
g376
stRp1671
ag1
(g1565
g1513
(dp1672
g291
g372
sVY
L2L
sg293
L3L
sg294
g373
sg302
L3L
sg299
L3L
sg300
g297
sVX
L8L
sg296
g317
sg304
g345
sg306
L0L
sg308
g376
stRp1673
ag1
(g1565
g1513
(dp1674
g291
g448
sVY
L2L
sg293
L3L
sg294
g449
sg302
L8L
sg299
L8L
sg300
g319
sVX
L9L
sg296
g392
sg304
g317
sg306
L0L
sg308
g419
stRp1675
ag1
(g1565
g1513
(dp1676
g291
g415
sVY
L3L
sg293
L3L
sg294
g416
sg302
L3L
sg299
L3L
sg300
g305
sVX
L2L
sg296
g307
sg304
g297
sg306
L0L
sg308
g419
stRp1677
ag1
(g1565
g1513
(dp1678
g291
g407
sVY
L3L
sg293
L3L
sg294
g408
sg302
L9L
sg299
L9L
sg300
g317
sVX
L3L
sg296
g366
sg304
g307
sg306
L0L
sg308
g348
stRp1679
ag1
(g1565
g1513
(dp1680
g291
g343
sVY
L2L
sg293
L3L
sg294
g344
sg302
L6L
sg299
L6L
sg300
g297
sVX
L3L
sg296
g345
sg304
g307
sg306
L0L
sg308
g348
stRp1681
ag1
(g1565
g1513
(dp1682
g291
g292
sVY
L4L
sg293
L4L
sg294
g295
sg302
L5L
sg299
L5L
sg300
g301
sVX
L3L
sg296
g297
sg304
g305
sg306
g307
sg308
g309
stRp1683
ag1
(g1565
g1513
(dp1684
g291
g314
sVY
L9L
sg293
L4L
sg294
g315
sg302
L9L
sg299
L9L
sg300
g317
sVX
L3L
sg296
g297
sg304
g319
sg306
g320
sg308
g309
stRp1685
ag1
(g1565
g1513
(dp1686
g291
g432
sVY
L4L
sg293
L4L
sg294
g433
sg302
L5L
sg299
L5L
sg300
g345
sVX
L5L
sg296
g392
sg304
g317
sg306
g307
sg308
g357
stRp1687
ag1
(g1565
g1513
(dp1688
g291
g353
sVY
L2L
sg293
L4L
sg294
g354
sg302
L7L
sg299
L7L
sg300
g319
sVX
L2L
sg296
g307
sg304
g297
sg306
g317
sg308
g357
stRp1689
ag1
(g1565
g1513
(dp1690
g291
g440
sVY
L4L
sg293
L4L
sg294
g441
sg302
L6L
sg299
L6L
sg300
g301
sVX
L4L
sg296
g345
sg304
g307
sg306
g297
sg308
g329
stRp1691
ag1
(g1565
g1513
(dp1692
g291
g325
sVY
L8L
sg293
L4L
sg294
g326
sg302
L9L
sg299
L9L
sg300
g297
sVX
L8L
sg296
g305
sg304
g307
sg306
g301
sg308
g329
stRp1693
ag1
(g1565
g1513
(dp1694
g291
g456
sVY
L4L
sg293
L4L
sg294
g457
sg302
L5L
sg299
L5L
sg300
g320
sVX
L5L
sg296
g301
sg304
g392
sg306
g366
sg308
g385
stRp1695
ag1
(g1565
g1513
(dp1696
g291
g381
sVY
L4L
sg293
L4L
sg294
g382
sg302
L5L
sg299
L5L
sg300
g297
sVX
L7L
sg296
g317
sg304
g320
sg306
g319
sg308
g385
stRp1697
asg1578
Nsg1579
I16
sg1580
I18
sg1581
I0
sg1582
I18
sbag1
(g1501
g3
NtRp1698
(dp1699
g1504
Nsg1505
(lp1700
sg1507
I336065520
sg10
g1586
sg6
g1509
sg1510
I1
sg24
I01
sg25
g26
sg1511
g1
(g1512
g1513
(dp1701
g22
g1529
(g1530
g1516
g1531
S'b'
tRp1702
(I1
(I18
I1
tg1533
I00
S'\x00\x00\x80?\x00\x00\x80?\x00\x00\x80?\x00\x00\x80?\x00\x00\x80?\x00\x00\x00\x00\x00\x00\x80?\x00\x00\x80?\x00\x00\x80?\x00\x00\x80?\x00\x00\x80?\x00\x00\x00\x00\x00\x00\x80?\x00\x00\x00\x00\x00\x00\x80?\x00\x00\x80?\x00\x00\x80?\x00\x00\x80?'
S'\x00\x00\x00\x00\x00\x00\x00\x00\x00\x00\x00\x00\x00\x00\x00\x00\x00\x00'
Ntbsg19
g1515
(g1516
(I0
tS'b'
tRp1703
(I1
(I18
I1
tg1518
I00
(lp1704
g599
ag509
ag500
ag557
ag548
ag623
ag591
ag527
ag490
ag615
ag631
ag518
ag607
ag536
ag471
ag565
ag582
ag573
atbsg23
g1529
(g1530
g1516
g1531
S'b'
tRp1705
(I1
(I18
I1
tg1533
I00
S'\xf0#\xc2?\xdbC$@\xb9}\xb7?\xb1\x8b\xc8?1\xa6\xca@\ntOA#c\xd6@J r@(\xa7\xf2@e\x97\xa9@\xd4\xdc\x9d@Gd\x1aA\x12B\x14A\xa3\xfd\x13A\x8f\xb7KA\xb9\xeb\x12A\x920\x13A\xbfs\xe7@'
S'\x00\x00\x00\x00\x00\x00\x00\x00\x00\x00\x00\x00\x00\x00\x00\x00\x00\x00'
Ntbsg1528
g1529
(g1530
g1516
g1531
S'b'
tRp1706
(I1
(I18
I1
tg1533
I00
S'\x00\x00\x80?\x00\x00\x80?\x00\x00\x80?\x00\x00\x80?\x00\x00\x80?\x00\x00\x80?\x00\x00\x80?\x00\x00\x80?\x00\x00\x80?\x00\x00\x80?\x00\x00\x80?\x00\x00\x80?\x00\x00\x80?\x00\x00\x80?\x00\x00\x80?\x00\x00\x80?\x00\x00\x80?\x00\x00\x80?'
S'\x00\x00\x00\x00\x00\x00\x00\x00\x00\x00\x00\x00\x00\x00\x00\x00\x00\x00'
Ntbsg21
g1515
(g1516
(I0
tS'b'
tRp1707
(I1
(I18
I1
tg1518
I00
(lp1708
S'4'
aS'6'
aS'3'
aS'1'
aS'9'
aS'6'
aS'5'
aS'5'
aS'8'
aS'3'
aS'3'
aS'2'
aS'4'
aS'9'
aS'8'
aS'6'
aS'1'
aS'6'
atbsg1543
g1529
(g1530
g1516
g1531
S'b'
tRp1709
(I1
(I18
I1
tg1533
I00
S'\x00\x00PA\x00\x00@@\x00\x00\x00@\x00\x00\x00A\x00\x00\xe0@\x00\x00\x80A\x00\x00@A\x00\x00\xa0@\x00\x00\x80?\x00\x00pA\x00\x00\x88A\x00\x00\x80@\x00\x00`A\x00\x00\xc0@\x00\x00\x00\x00\x00\x00\x10A\x00\x000A\x00\x00 A'
S'\x00\x00\x00\x00\x00\x00\x00\x00\x00\x00\x00\x00\x00\x00\x00\x00\x00\x00'
Ntbsg20
g1529
(g1530
g1516
g1531
S'b'
tRp1710
(I1
(I18
I1
tg1533
I00
S'\x99cv@\x9c\xce\xac?\xd3T\xb5?\x14\xa9\x82@\xff1S@\x80c\xae@\xc9cV@\xc2\x87\x08@\x97\xe8N@\x9e\x86\xa0@-\x86H@\x8f\xb9\x93@DR\xb5@mR%AyR\xe5@\xed\xfc\xb7@\xef\xec\xae@\xf6>\xcc@'
S'\x00\x00\x00\x00\x00\x00\x00\x00\x00\x00\x00\x00\x00\x00\x00\x00\x00\x00'
NtbstRp1711
(dp1712
g1548
(dp1713
g1528
I01
sg21
I00
sg20
I01
sg22
I01
sg19
I00
sg23
I01
sg1543
I01
ssg1550
g1698
sg1551
(lp1714
g1528
ag1543
ag19
ag20
ag21
ag22
ag23
asg1553
(lp1715
I18
aI1
asbsg1555
g1556
sg1557
g1515
(g1516
(I0
tS'b'
tRp1716
(I1
(I18
I1
tg1518
I00
(lp1717
I14
aI8
aI2
aI1
aI11
aI7
aI13
aI4
aI3
aI15
aI17
aI16
aI6
aI0
aI12
aI9
aI5
aI10
atbsg1560
I01
sg1561
I1
sg1562
I-1
sg1563
(lp1718
g1
(g1565
g1513
(dp1719
g464
g597
sVY
L2L
sg466
L2L
sg467
g598
sg475
L4L
sg472
L4L
sg473
g491
sVX
L3L
sg469
L0L
sg477
g489
sg479
L0L
sg481
g511
stRp1720
ag1
(g1565
g1513
(dp1721
g464
g507
sVY
L2L
sg466
L2L
sg467
g508
sg475
L6L
sg472
L6L
sg473
g480
sVX
L2L
sg469
L0L
sg477
g489
sg479
L0L
sg481
g511
stRp1722
ag1
(g1565
g1513
(dp1723
g464
g498
sVY
L5L
sg466
L2L
sg467
g499
sg475
L3L
sg472
L3L
sg473
g470
sVX
L4L
sg469
L0L
sg477
g478
sg479
L0L
sg481
g502
stRp1724
ag1
(g1565
g1513
(dp1725
g464
g555
sVY
L2L
sg466
L2L
sg467
g556
sg475
L1L
sg472
L1L
sg473
g537
sVX
L5L
sg469
L0L
sg477
g478
sg479
L0L
sg481
g502
stRp1726
ag1
(g1565
g1513
(dp1727
g464
g545
sVY
L3L
sg466
L3L
sg467
g546
sg475
L9L
sg472
L9L
sg473
g491
sVX
L8L
sg469
g547
sg477
g489
sg479
L0L
sg481
g550
stRp1728
ag1
(g1565
g1513
(dp1729
g464
g621
sVY
L5L
sg466
L3L
sg467
g622
sg475
L5L
sg472
L5L
sg473
g478
sVX
L6L
sg469
g547
sg477
g489
sg479
L0L
sg481
g550
stRp1730
ag1
(g1565
g1513
(dp1731
g464
g589
sVY
L7L
sg466
L3L
sg467
g590
sg475
L5L
sg472
L5L
sg473
g470
sVX
L7L
sg469
g480
sg477
g478
sg479
L0L
sg481
g529
stRp1732
ag1
(g1565
g1513
(dp1733
g464
g525
sVY
L5L
sg466
L3L
sg467
g526
sg475
L5L
sg472
L5L
sg473
g489
sVX
L4L
sg469
g491
sg477
g478
sg479
L0L
sg481
g529
stRp1734
ag1
(g1565
g1513
(dp1735
g464
g487
sVY
L5L
sg466
L3L
sg467
g488
sg475
L8L
sg472
L8L
sg473
g491
sVX
L5L
sg469
g489
sg477
g478
sg479
L0L
sg481
g493
stRp1736
ag1
(g1565
g1513
(dp1737
g464
g613
sVY
L2L
sg466
L3L
sg467
g614
sg475
L3L
sg472
L3L
sg473
g547
sVX
L4L
sg469
g584
sg477
g539
sg479
L0L
sg481
g493
stRp1738
ag1
(g1565
g1513
(dp1739
g464
g629
sVY
L5L
sg466
L4L
sg467
g630
sg475
L3L
sg472
L3L
sg473
g547
sVX
L5L
sg469
g480
sg477
g537
sg479
g539
sg481
g520
stRp1740
ag1
(g1565
g1513
(dp1741
g464
g516
sVY
L3L
sg466
L4L
sg467
g517
sg475
L9L
sg472
L9L
sg473
g480
sVX
L3L
sg469
g478
sg477
g489
sg479
g474
sg481
g520
stRp1742
ag1
(g1565
g1513
(dp1743
g464
g605
sVY
L6L
sg466
L4L
sg467
g606
sg475
L4L
sg472
L4L
sg473
g584
sVX
L3L
sg469
g539
sg477
g480
sg479
g474
sg481
g540
stRp1744
ag1
(g1565
g1513
(dp1745
g464
g534
sVY
L3L
sg466
L4L
sg467
g535
sg475
L3L
sg472
L3L
sg473
g537
sVX
L3L
sg469
g474
sg477
g539
sg479
g491
sg481
g540
stRp1746
ag1
(g1565
g1513
(dp1747
g464
g465
sVY
L2L
sg466
L4L
sg467
g468
sg475
L8L
sg472
L8L
sg473
g474
sVX
L9L
sg469
g470
sg477
g478
sg479
g480
sg481
g482
stRp1748
ag1
(g1565
g1513
(dp1749
g464
g563
sVY
L3L
sg466
L4L
sg467
g564
sg475
L6L
sg472
L6L
sg473
g547
sVX
L2L
sg469
g470
sg477
g539
sg479
g491
sg481
g482
stRp1750
ag1
(g1565
g1513
(dp1751
g464
g580
sVY
L2L
sg466
L4L
sg467
g581
sg475
L1L
sg472
L1L
sg473
g480
sVX
L8L
sg469
g547
sg477
g478
sg479
g584
sg481
g575
stRp1752
ag1
(g1565
g1513
(dp1753
g464
g571
sVY
L2L
sg466
L4L
sg467
g572
sg475
L6L
sg472
L6L
sg473
g491
sVX
L3L
sg469
g547
sg477
g539
sg479
g489
sg481
g575
stRp1754
asg1578
Nsg1579
I10
sg1580
I18
sg1581
I0
sg1582
I18
sbag1
(g1501
g3
NtRp1755
(dp1756
g1504
Nsg1505
(lp1757
sg1507
I336065520
sg10
g1586
sg6
g1509
sg1510
I1
sg24
I01
sg25
g26
sg1511
g1
(g1512
g1513
(dp1758
g22
g1529
(g1530
g1516
g1531
S'b'
tRp1759
(I1
(I18
I1
tg1533
I00
S'\x00\x00\x80?\x00\x00\x80?\x00\x00\x80?\x00\x00\x80?\x00\x00\x80?\x00\x00\x80?\x00\x00\x80?\x00\x00\x80?\x00\x00\x80?\x00\x00\x80?\x00\x00\x80?\x00\x00\x80?\x00\x00\x00\x00\x00\x00\x80?\x00\x00\x00\x00\x00\x00\x80?\x00\x00\x80?\x00\x00\x80?'
S'\x00\x00\x00\x00\x00\x00\x00\x00\x00\x00\x00\x00\x00\x00\x00\x00\x00\x00'
Ntbsg19
g1515
(g1516
(I0
tS'b'
tRp1760
(I1
(I18
I1
tg1518
I00
(lp1761
g788
ag672
ag755
ag643
ag661
ag805
ag682
ag703
ag771
ag780
ag693
ag739
ag796
ag721
ag711
ag747
ag763
ag730
atbsg23
g1529
(g1530
g1516
g1531
S'b'
tRp1762
(I1
(I18
I1
tg1533
I00
S"2\xf1\x1e@c>d@!z\xd7?\x1d\xde\r@\xcbb\xf6@pA\xcc@me\x86@\x92t\xd7@\xe7\x0f\x81@\xe62s@ac*A\xf3\x0e\rA'r\x13As\x1f\xda@\x1d\xa8\xc2@\xffA\x18Ac\xec\xb6@0\xfc\xf7@"
S'\x00\x00\x00\x00\x00\x00\x00\x00\x00\x00\x00\x00\x00\x00\x00\x00\x00\x00'
Ntbsg1528
g1529
(g1530
g1516
g1531
S'b'
tRp1763
(I1
(I18
I1
tg1533
I00
S'\x00\x00\x80?\x00\x00\x80?\x00\x00\x80?\x00\x00\x80?\x00\x00\x80?\x00\x00\x80?\x00\x00\x80?\x00\x00\x80?\x00\x00\x80?\x00\x00\x80?\x00\x00\x80?\x00\x00\x80?\x00\x00\x80?\x00\x00\x80?\x00\x00\x80?\x00\x00\x80?\x00\x00\x80?\x00\x00\x80?'
S'\x00\x00\x00\x00\x00\x00\x00\x00\x00\x00\x00\x00\x00\x00\x00\x00\x00\x00'
Ntbsg21
g1515
(g1516
(I0
tS'b'
tRp1764
(I1
(I18
I1
tg1518
I00
(lp1765
S'8'
aS'2'
aS'2'
aS'8'
aS'1'
aS'2'
aS'1'
aS'2'
aS'8'
aS'6'
aS'7'
aS'1'
aS'6'
aS'7'
aS'5'
aS'6'
aS'5'
aS'4'
atbsg1543
g1529
(g1530
g1516
g1531
S'b'
tRp1766
(I1
(I18
I1
tg1533
I00
S'\x00\x00pA\x00\x00\x00@\x00\x000A\x00\x00\x00\x00\x00\x00\x80?\x00\x00\x88A\x00\x00@@\x00\x00\xa0@\x00\x00PA\x00\x00`A\x00\x00\x80@\x00\x00\x10A\x00\x00\x80A\x00\x00\xe0@\x00\x00\xc0@\x00\x00 A\x00\x00@A\x00\x00\x00A'
S'\x00\x00\x00\x00\x00\x00\x00\x00\x00\x00\x00\x00\x00\x00\x00\x00\x00\x00'
Ntbsg20
g1529
(g1530
g1516
g1531
S'b'
tRp1767
(I1
(I18
I1
tg1533
I00
S'(\xdd\r@\x7f\x99\xf9?\xbec\xc6@E\xed\x9e@\x9cB\x94@\xe0\x1cB@n\xb9{@\xf7w\xd7?\x10\x10A@!\x99\x19@X\x0e\x19A\xdcR\xb5@|B<A\x08 \xa2@\xca\x12\xc1@\xd9/\xd3@s!b@$\x95\xb9@'
S'\x00\x00\x00\x00\x00\x00\x00\x00\x00\x00\x00\x00\x00\x00\x00\x00\x00\x00'
NtbstRp1768
(dp1769
g1548
(dp1770
g1528
I01
sg21
I00
sg20
I01
sg22
I01
sg19
I00
sg23
I01
sg1543
I01
ssg1550
g1755
sg1551
(lp1771
g1528
ag1543
ag19
ag20
ag21
ag22
ag23
asg1553
(lp1772
I18
aI1
asbsg1555
g1556
sg1557
g1515
(g1516
(I0
tS'b'
tRp1773
(I1
(I18
I1
tg1518
I00
(lp1774
I3
aI4
aI1
aI6
aI10
aI7
aI14
aI13
aI17
aI11
aI15
aI2
aI16
aI8
aI9
aI0
aI12
aI5
atbsg1560
I01
sg1561
I1
sg1562
I-1
sg1563
(lp1775
g1
(g1565
g1513
(dp1776
g637
g786
sVY
L4L
sg639
L2L
sg640
g787
sg647
L8L
sg644
L8L
sg645
g662
sVX
L2L
sg642
L0L
sg649
g695
sg651
L0L
sg652
g674
stRp1777
ag1
(g1565
g1513
(dp1778
g637
g670
sVY
L6L
sg639
L2L
sg640
g671
sg647
L2L
sg644
L2L
sg645
g662
sVX
L6L
sg642
L0L
sg649
g664
sg651
L0L
sg652
g674
stRp1779
ag1
(g1565
g1513
(dp1780
g637
g753
sVY
L7L
sg639
L2L
sg640
g754
sg647
L2L
sg644
L2L
sg645
g683
sVX
L8L
sg642
L0L
sg649
g662
sg651
L0L
sg652
g653
stRp1781
ag1
(g1565
g1513
(dp1782
g637
g638
sVY
L4L
sg639
L2L
sg640
g641
sg647
L8L
sg644
L8L
sg645
g646
sVX
L4L
sg642
L0L
sg649
g650
sg651
L0L
sg652
g653
stRp1783
ag1
(g1565
g1513
(dp1784
g637
g658
sVY
L4L
sg639
L3L
sg640
g659
sg647
L1L
sg644
L1L
sg645
g662
sVX
L6L
sg642
g660
sg649
g664
sg651
L0L
sg652
g665
stRp1785
ag1
(g1565
g1513
(dp1786
g637
g803
sVY
L4L
sg639
L3L
sg640
g804
sg647
L2L
sg644
L2L
sg645
g650
sVX
L4L
sg642
g681
sg649
g683
sg651
L0L
sg652
g665
stRp1787
ag1
(g1565
g1513
(dp1788
g637
g679
sVY
L7L
sg639
L3L
sg640
g680
sg647
L1L
sg644
L1L
sg645
g683
sVX
L3L
sg642
g681
sg649
g650
sg651
L0L
sg652
g685
stRp1789
ag1
(g1565
g1513
(dp1790
g637
g701
sVY
L3L
sg639
L3L
sg640
g702
sg647
L2L
sg644
L2L
sg645
g664
sVX
L9L
sg642
g660
sg649
g692
sg651
L0L
sg652
g685
stRp1791
ag1
(g1565
g1513
(dp1792
g637
g769
sVY
L2L
sg639
L3L
sg640
g770
sg647
L8L
sg644
L8L
sg645
g713
sVX
L7L
sg642
g683
sg649
g662
sg651
L0L
sg652
g773
stRp1793
ag1
(g1565
g1513
(dp1794
g637
g778
sVY
L3L
sg639
L3L
sg640
g779
sg647
L6L
sg644
L6L
sg645
g681
sVX
L4L
sg642
g683
sg649
g662
sg651
L0L
sg652
g773
stRp1795
ag1
(g1565
g1513
(dp1796
g637
g690
sVY
L6L
sg639
L4L
sg640
g691
sg647
L7L
sg644
L7L
sg645
g660
sVX
L4L
sg642
g692
sg649
g695
sg651
g650
sg652
g696
stRp1797
ag1
(g1565
g1513
(dp1798
g637
g737
sVY
L5L
sg639
L4L
sg640
g738
sg647
L1L
sg644
L1L
sg645
g692
sVX
L6L
sg642
g662
sg649
g664
sg651
g660
sg652
g696
stRp1799
ag1
(g1565
g1513
(dp1800
g637
g794
sVY
L4L
sg639
L4L
sg640
g795
sg647
L9L
sg644
L9L
sg645
g695
sVX
L9L
sg642
g662
sg649
g798
sg651
g660
sg652
g723
stRp1801
ag1
(g1565
g1513
(dp1802
g637
g719
sVY
L4L
sg639
L4L
sg640
g720
sg647
L7L
sg644
L7L
sg645
g646
sVX
L3L
sg642
g662
sg649
g713
sg651
g660
sg652
g723
stRp1803
ag1
(g1565
g1513
(dp1804
g637
g709
sVY
L6L
sg639
L4L
sg640
g710
sg647
L3L
sg644
L3L
sg645
g660
sVX
L4L
sg642
g646
sg649
g713
sg651
g650
sg652
g714
stRp1805
ag1
(g1565
g1513
(dp1806
g637
g745
sVY
L8L
sg639
L4L
sg640
g746
sg647
L6L
sg644
L6L
sg645
g681
sVX
L9L
sg642
g664
sg649
g662
sg651
g713
sg652
g714
stRp1807
ag1
(g1565
g1513
(dp1808
g637
g761
sVY
L2L
sg639
L4L
sg640
g762
sg647
L5L
sg644
L5L
sg645
g650
sVX
L8L
sg642
g681
sg649
g713
sg651
g664
sg652
g732
stRp1809
ag1
(g1565
g1513
(dp1810
g637
g728
sVY
L4L
sg639
L4L
sg640
g729
sg647
L4L
sg644
L4L
sg645
g713
sVX
L4L
sg642
g681
sg649
g662
sg651
g664
sg652
g732
stRp1811
asg1578
Nsg1579
I5
sg1580
I18
sg1581
I0
sg1582
I18
sbag1
(g1501
g3
NtRp1812
(dp1813
g1504
Nsg1505
(lp1814
sg1507
I336065520
sg10
g1586
sg6
g1509
sg1510
I1
sg24
I01
sg25
g26
sg1511
g1
(g1512
g1513
(dp1815
g22
g1529
(g1530
g1516
g1531
S'b'
tRp1816
(I1
(I18
I1
tg1533
I00
S'\x00\x00\x80?\x00\x00\x00\x00\x00\x00\x80?\x00\x00\x80?\x00\x00\x80?\x00\x00\x80?\x00\x00\x80?\x00\x00\x80?\x00\x00\x80?\x00\x00\x80?\x00\x00\x80?\x00\x00\x80?\x00\x00\x80?\x00\x00\x00\x00\x00\x00\x80?\x00\x00\x00\x00\x00\x00\x80?\x00\x00\x80?'
S'\x00\x00\x00\x00\x00\x00\x00\x00\x00\x00\x00\x00\x00\x00\x00\x00\x00\x00'
Ntbsg19
g1515
(g1516
(I0
tS'b'
tRp1817
(I1
(I18
I1
tg1518
I00
(lp1818
g962
ag817
ag903
ag938
ag946
ag875
ag856
ag867
ag930
ag885
ag835
ag846
ag954
ag894
ag912
ag978
ag970
ag921
atbsg23
g1529
(g1530
g1516
g1531
S'b'
tRp1819
(I1
(I18
I1
tg1533
I00
S'H{\xb7?\xbdSU@\xf7\x14\x91?\xe0$\xc5?j\x0f\xc9@]\x1e\xd2@\x00T\x8d@+\x99)@6\xa6&A\xaa\xdcm@p\xca\x10A\x9f\xa8\xaa@u\xda\xfd@\xef\xeb\x06A\xb2\xca\xc4@\x83\xa76A\xfd\x97\x01A\x1c1\xb3@'
S'\x00\x00\x00\x00\x00\x00\x00\x00\x00\x00\x00\x00\x00\x00\x00\x00\x00\x00'
Ntbsg1528
g1529
(g1530
g1516
g1531
S'b'
tRp1820
(I1
(I18
I1
tg1533
I00
S'\x00\x00\x80?\x00\x00\x80?\x00\x00\x80?\x00\x00\x80?\x00\x00\x80?\x00\x00\x80?\x00\x00\x80?\x00\x00\x80?\x00\x00\x80?\x00\x00\x80?\x00\x00\x80?\x00\x00\x80?\x00\x00\x80?\x00\x00\x80?\x00\x00\x80?\x00\x00\x80?\x00\x00\x80?\x00\x00\x80?'
S'\x00\x00\x00\x00\x00\x00\x00\x00\x00\x00\x00\x00\x00\x00\x00\x00\x00\x00'
Ntbsg21
g1515
(g1516
(I0
tS'b'
tRp1821
(I1
(I18
I1
tg1518
I00
(lp1822
S'7'
aS'4'
aS'8'
aS'6'
aS'7'
aS'8'
aS'2'
aS'5'
aS'6'
aS'5'
aS'9'
aS'8'
aS'6'
aS'5'
aS'5'
aS'1'
aS'3'
aS'1'
atbsg1543
g1529
(g1530
g1516
g1531
S'b'
tRp1823
(I1
(I18
I1
tg1533
I00
S'\x00\x00pA\x00\x00\x00\x00\x00\x00\x00A\x00\x00@A\x00\x00PA\x00\x00\xa0@\x00\x00@@\x00\x00\x80@\x00\x000A\x00\x00\xc0@\x00\x00\x80?\x00\x00\x00@\x00\x00`A\x00\x00\xe0@\x00\x00\x10A\x00\x00\x88A\x00\x00\x80A\x00\x00 A'
S'\x00\x00\x00\x00\x00\x00\x00\x00\x00\x00\x00\x00\x00\x00\x00\x00\x00\x00'
Ntbsg20
g1529
(g1530
g1516
g1531
S'b'
tRp1824
(I1
(I18
I1
tg1533
I00
S't\xab\xca?U\xeeQ@\xe7\xbc\x9b?\xa96\x93?\xaf\xdd\x01@M0s@>\x9a9@\x13\xcb\x8c@\x13\xf7\x7f@2B\x9c@ud\x9e@\x04\xdbM@&B\xa4@\x00\x999@\x95\x96i@\xab\xfb\xbf@H\x96\xd1@\xb2\r\xd9@'
S'\x00\x00\x00\x00\x00\x00\x00\x00\x00\x00\x00\x00\x00\x00\x00\x00\x00\x00'
NtbstRp1825
(dp1826
g1548
(dp1827
g1528
I01
sg21
I00
sg20
I01
sg22
I01
sg19
I00
sg23
I01
sg1543
I01
ssg1550
g1812
sg1551
(lp1828
g1528
ag1543
ag19
ag20
ag21
ag22
ag23
asg1553
(lp1829
I18
aI1
asbsg1555
g1556
sg1557
g1515
(g1516
(I0
tS'b'
tRp1830
(I1
(I18
I1
tg1518
I00
(lp1831
I1
aI10
aI11
aI6
aI7
aI5
aI9
aI13
aI2
aI14
aI17
aI8
aI3
aI4
aI12
aI0
aI16
aI15
atbsg1560
I01
sg1561
I1
sg1562
I-1
sg1563
(lp1832
g1
(g1565
g1513
(dp1833
g811
g960
sVY
L5L
sg813
L2L
sg814
g961
sg821
L7L
sg818
L7L
sg819
g820
sVX
L3L
sg816
L0L
sg823
g837
sg825
L0L
sg826
g827
stRp1834
ag1
(g1565
g1513
(dp1835
g811
g812
sVY
L4L
sg813
L2L
sg814
g815
sg821
L2L
sg818
L2L
sg819
g820
sVX
L9L
sg816
L0L
sg823
g824
sg825
L0L
sg826
g827
stRp1836
ag1
(g1565
g1513
(dp1837
g811
g901
sVY
L3L
sg813
L2L
sg814
g902
sg821
L8L
sg818
L8L
sg819
g884
sVX
L3L
sg816
L0L
sg823
g820
sg825
L0L
sg826
g905
stRp1838
ag1
(g1565
g1513
(dp1839
g811
g936
sVY
L8L
sg813
L2L
sg814
g937
sg821
L6L
sg818
L6L
sg819
g837
sVX
L4L
sg816
L0L
sg823
g866
sg825
L0L
sg826
g905
stRp1840
ag1
(g1565
g1513
(dp1841
g811
g944
sVY
L5L
sg813
L3L
sg814
g945
sg821
L7L
sg818
L7L
sg819
g838
sVX
L2L
sg816
g820
sg823
g837
sg825
L0L
sg826
g877
stRp1842
ag1
(g1565
g1513
(dp1843
g811
g873
sVY
L2L
sg813
L3L
sg814
g874
sg821
L8L
sg818
L8L
sg819
g847
sVX
L4L
sg816
g866
sg823
g837
sg825
L0L
sg826
g877
stRp1844
ag1
(g1565
g1513
(dp1845
g811
g853
sVY
L3L
sg813
L3L
sg814
g854
sg821
L2L
sg818
L2L
sg819
g857
sVX
L3L
sg816
g855
sg823
g838
sg825
L0L
sg826
g859
stRp1846
ag1
(g1565
g1513
(dp1847
g811
g864
sVY
L3L
sg813
L3L
sg814
g865
sg821
L5L
sg818
L5L
sg819
g837
sVX
L2L
sg816
g866
sg823
g855
sg825
L0L
sg826
g859
stRp1848
ag1
(g1565
g1513
(dp1849
g811
g928
sVY
L4L
sg813
L3L
sg814
g929
sg821
L6L
sg818
L6L
sg819
g834
sVX
L5L
sg816
g837
sg823
g838
sg825
L0L
sg826
g887
stRp1850
ag1
(g1565
g1513
(dp1851
g811
g882
sVY
L3L
sg813
L3L
sg814
g883
sg821
L5L
sg818
L5L
sg819
g855
sVX
L3L
sg816
g884
sg823
g866
sg825
L0L
sg826
g887
stRp1852
ag1
(g1565
g1513
(dp1853
g811
g832
sVY
L4L
sg813
L4L
sg814
g833
sg821
L9L
sg818
L9L
sg819
g820
sVX
L9L
sg816
g834
sg823
g837
sg825
g838
sg826
g839
stRp1854
ag1
(g1565
g1513
(dp1855
g811
g844
sVY
L2L
sg813
L4L
sg814
g845
sg821
L8L
sg818
L8L
sg819
g847
sVX
L2L
sg816
g838
sg823
g837
sg825
g820
sg826
g839
stRp1856
ag1
(g1565
g1513
(dp1857
g811
g952
sVY
L6L
sg813
L4L
sg814
g953
sg821
L6L
sg818
L6L
sg819
g837
sVX
L6L
sg816
g834
sg823
g820
sg825
g866
sg826
g896
stRp1858
ag1
(g1565
g1513
(dp1859
g811
g892
sVY
L2L
sg813
L4L
sg814
g893
sg821
L3L
sg818
L3L
sg819
g857
sVX
L9L
sg816
g838
sg823
g820
sg825
g834
sg826
g896
stRp1860
ag1
(g1565
g1513
(dp1861
g811
g910
sVY
L3L
sg813
L4L
sg814
g911
sg821
L5L
sg818
L5L
sg819
g838
sVX
L3L
sg816
g884
sg823
g820
sg825
g834
sg826
g914
stRp1862
ag1
(g1565
g1513
(dp1863
g811
g976
sVY
L3L
sg813
L4L
sg814
g977
sg821
L8L
sg818
L8L
sg819
g847
sVX
L3L
sg816
g857
sg823
g820
sg825
g838
sg826
g914
stRp1864
ag1
(g1565
g1513
(dp1865
g811
g968
sVY
L4L
sg813
L4L
sg814
g969
sg821
L3L
sg818
L3L
sg819
g866
sVX
L3L
sg816
g834
sg823
g855
sg825
g884
sg826
g923
stRp1866
ag1
(g1565
g1513
(dp1867
g811
g919
sVY
L2L
sg813
L4L
sg814
g920
sg821
L1L
sg818
L1L
sg819
g866
sVX
L7L
sg816
g855
sg823
g834
sg825
g857
sg826
g923
stRp1868
asg1578
Nsg1579
I15
sg1580
I18
sg1581
I0
sg1582
I18
sbag1
(g1501
g3
NtRp1869
(dp1870
g1504
Nsg1505
(lp1871
sg1507
I336065520
sg10
g1586
sg6
g1509
sg1510
I1
sg24
I01
sg25
g26
sg1511
g1
(g1512
g1513
(dp1872
g22
g1529
(g1530
g1516
g1531
S'b'
tRp1873
(I1
(I18
I1
tg1533
I00
S'\x00\x00\x80?\x00\x00\x80?\x00\x00\x80?\x00\x00\x80?\x00\x00\x80?\x00\x00\x80?\x00\x00\x00\x00\x00\x00\x80?\x00\x00\x80?\x00\x00\x80?\x00\x00\x00\x00\x00\x00\x80?\x00\x00\x00\x00\x00\x00\x00\x00\x00\x00\x00\x00\x00\x00\x80?\x00\x00\x80?\x00\x00\x80?'
S'\x00\x00\x00\x00\x00\x00\x00\x00\x00\x00\x00\x00\x00\x00\x00\x00\x00\x00'
Ntbsg19
g1515
(g1516
(I0
tS'b'
tRp1874
(I1
(I18
I1
tg1518
I00
(lp1875
g1058
ag1143
ag1075
ag1151
ag1019
ag1101
ag1135
ag1092
ag1119
ag1009
ag1049
ag1067
ag1127
ag1109
ag1031
ag991
ag1084
ag1040
atbsg23
g1529
(g1530
g1516
g1531
S'b'
tRp1876
(I1
(I18
I1
tg1533
I00
S"\xf4Se@\x1dU\x15@\x00\xaf\x8a?G\xaa\n@+c\xf6@\x070\xe3@\xa4\x85\xd8@MT\x85@\xf0Q\xed@#c\xe6@\x17\xb9'A\x85@\xec@\xd8S(ArB\x14A:\xeb.A\xa0 \xc2@\xa21\x07A\xcdd\xae@"
S'\x00\x00\x00\x00\x00\x00\x00\x00\x00\x00\x00\x00\x00\x00\x00\x00\x00\x00'
Ntbsg1528
g1529
(g1530
g1516
g1531
S'b'
tRp1877
(I1
(I18
I1
tg1533
I00
S'\x00\x00\x80?\x00\x00\x80?\x00\x00\x80?\x00\x00\x80?\x00\x00\x80?\x00\x00\x80?\x00\x00\x80?\x00\x00\x80?\x00\x00\x80?\x00\x00\x80?\x00\x00\x80?\x00\x00\x80?\x00\x00\x80?\x00\x00\x80?\x00\x00\x80?\x00\x00\x80?\x00\x00\x80?\x00\x00\x80?'
S'\x00\x00\x00\x00\x00\x00\x00\x00\x00\x00\x00\x00\x00\x00\x00\x00\x00\x00'
Ntbsg21
g1515
(g1516
(I0
tS'b'
tRp1878
(I1
(I18
I1
tg1518
I00
(lp1879
S'1'
aS'8'
aS'4'
aS'1'
aS'3'
aS'9'
aS'9'
aS'6'
aS'6'
aS'8'
aS'2'
aS'1'
aS'5'
aS'5'
aS'3'
aS'5'
aS'5'
aS'3'
atbsg1543
g1529
(g1530
g1516
g1531
S'b'
tRp1880
(I1
(I18
I1
tg1533
I00
S'\x00\x00\xc0@\x00\x00\x80A\x00\x00\x00A\x00\x00\x88A\x00\x00\x00@\x00\x000A\x00\x00pA\x00\x00 A\x00\x00PA\x00\x00\x80?\x00\x00\xa0@\x00\x00\xe0@\x00\x00`A\x00\x00@A\x00\x00@@\x00\x00\x00\x00\x00\x00\x10A\x00\x00\x80@'
S'\x00\x00\x00\x00\x00\x00\x00\x00\x00\x00\x00\x00\x00\x00\x00\x00\x00\x00'
Ntbsg20
g1529
(g1530
g1516
g1531
S'b'
tRp1881
(I1
(I18
I1
tg1533
I00
S'\xe1\x88\xe8?\xfd\x020@\x01\xdf\xdd?~3\xd3?}<\x14@\xcb\xfc\xdf@\xec\x1e\x12@\x8bB\x84@\xd8.\xc3@\xf2\xca\xac@\x1fu\x07A\x9cuw@\xcc@\xdc@!\xdb\xbd@S\xc9\xe4@\xab1C@\x1d\xcc,@_\x96\xd9@'
S'\x00\x00\x00\x00\x00\x00\x00\x00\x00\x00\x00\x00\x00\x00\x00\x00\x00\x00'
NtbstRp1882
(dp1883
g1548
(dp1884
g1528
I01
sg21
I00
sg20
I01
sg22
I01
sg19
I00
sg23
I01
sg1543
I01
ssg1550
g1869
sg1551
(lp1885
g1528
ag1543
ag19
ag20
ag21
ag22
ag23
asg1553
(lp1886
I18
aI1
asbsg1555
g1556
sg1557
g1515
(g1516
(I0
tS'b'
tRp1887
(I1
(I18
I1
tg1518
I00
(lp1888
I15
aI9
aI4
aI14
aI17
aI10
aI0
aI11
aI2
aI16
aI7
aI5
aI13
aI8
aI12
aI6
aI1
aI3
atbsg1560
I01
sg1561
I1
sg1562
I-1
sg1563
(lp1889
g1
(g1565
g1513
(dp1890
g984
g1056
sVY
L3L
sg986
L2L
sg987
g1057
sg995
L1L
sg992
L1L
sg993
g998
sVX
L9L
sg989
L0L
sg997
g1030
sg999
L0L
sg1001
g1060
stRp1891
ag1
(g1565
g1513
(dp1892
g984
g1141
sVY
L2L
sg986
L2L
sg987
g1142
sg995
L8L
sg992
L8L
sg993
g1011
sVX
L2L
sg989
L0L
sg997
g990
sg999
L0L
sg1001
g1060
stRp1893
ag1
(g1565
g1513
(dp1894
g984
g1073
sVY
L3L
sg986
L2L
sg987
g1074
sg995
L4L
sg992
L4L
sg993
g1022
sVX
L6L
sg989
L0L
sg997
g1039
sg999
L0L
sg1001
g1077
stRp1895
ag1
(g1565
g1513
(dp1896
g984
g1149
sVY
L2L
sg986
L2L
sg987
g1150
sg995
L1L
sg992
L1L
sg993
g1030
sVX
L6L
sg989
L0L
sg997
g998
sg999
L0L
sg1001
g1077
stRp1897
ag1
(g1565
g1513
(dp1898
g984
g1017
sVY
L9L
sg986
L3L
sg987
g1018
sg995
L3L
sg992
L3L
sg993
g1020
sVX
L5L
sg989
g994
sg997
g1022
sg999
L0L
sg1001
g1023
stRp1899
ag1
(g1565
g1513
(dp1900
g984
g1099
sVY
L3L
sg986
L3L
sg987
g1100
sg995
L9L
sg992
L9L
sg993
g1000
sVX
L5L
sg989
g1039
sg997
g990
sg999
L0L
sg1001
g1023
stRp1901
ag1
(g1565
g1513
(dp1902
g984
g1133
sVY
L2L
sg986
L3L
sg987
g1134
sg995
L1L
sg992
L1L
sg993
g1030
sVX
L7L
sg989
g994
sg997
g998
sg999
L0L
sg1001
g1094
stRp1903
ag1
(g1565
g1513
(dp1904
g984
g1090
sVY
L6L
sg986
L3L
sg987
g1091
sg995
L6L
sg992
L6L
sg993
g990
sVX
L6L
sg989
g1000
sg997
g998
sg999
L0L
sg1001
g1094
stRp1905
ag1
(g1565
g1513
(dp1906
g984
g1117
sVY
L2L
sg986
L3L
sg987
g1118
sg995
L6L
sg992
L6L
sg993
g994
sVX
L2L
sg989
g1110
sg997
g1011
sg999
L0L
sg1001
g1012
stRp1907
ag1
(g1565
g1513
(dp1908
g984
g1007
sVY
L6L
sg986
L3L
sg987
g1008
sg995
L8L
sg992
L8L
sg993
g998
sVX
L2L
sg989
g990
sg997
g1011
sg999
L0L
sg1001
g1012
stRp1909
ag1
(g1565
g1513
(dp1910
g984
g1047
sVY
L4L
sg986
L4L
sg987
g1048
sg995
L8L
sg992
L8L
sg993
g1011
sVX
L3L
sg989
g1020
sg997
g1022
sg999
g994
sg1001
g1051
stRp1911
ag1
(g1565
g1513
(dp1912
g984
g1065
sVY
L8L
sg986
L4L
sg987
g1066
sg995
L1L
sg992
L1L
sg993
g1020
sVX
L2L
sg989
g994
sg997
g1022
sg999
g1011
sg1001
g1051
stRp1913
ag1
(g1565
g1513
(dp1914
g984
g1125
sVY
L5L
sg986
L4L
sg987
g1126
sg995
L6L
sg992
L6L
sg993
g1030
sVX
L4L
sg989
g1020
sg997
g1011
sg999
g1039
sg1001
g1112
stRp1915
ag1
(g1565
g1513
(dp1916
g984
g1107
sVY
L3L
sg986
L4L
sg987
g1108
sg995
L7L
sg992
L7L
sg993
g1110
sVX
L2L
sg989
g1000
sg997
g1039
sg999
g1020
sg1001
g1112
stRp1917
ag1
(g1565
g1513
(dp1918
g984
g1028
sVY
L3L
sg986
L4L
sg987
g1029
sg995
L5L
sg992
L5L
sg993
g1020
sVX
L3L
sg989
g1030
sg997
g994
sg999
g1011
sg1001
g1002
stRp1919
ag1
(g1565
g1513
(dp1920
g984
g985
sVY
L4L
sg986
L4L
sg987
g988
sg995
L5L
sg992
L5L
sg993
g994
sVX
L8L
sg989
g990
sg997
g998
sg999
g1000
sg1001
g1002
stRp1921
ag1
(g1565
g1513
(dp1922
g984
g1082
sVY
L2L
sg986
L4L
sg987
g1083
sg995
L5L
sg992
L5L
sg993
g1020
sVX
L6L
sg989
g1000
sg997
g994
sg999
g1022
sg1001
g1042
stRp1923
ag1
(g1565
g1513
(dp1924
g984
g1037
sVY
L2L
sg986
L4L
sg987
g1038
sg995
L3L
sg992
L3L
sg993
g1020
sVX
L3L
sg989
g1039
sg997
g1000
sg999
g1022
sg1001
g1042
stRp1925
asg1578
Nsg1579
I3
sg1580
I18
sg1581
I0
sg1582
I18
sbag1
(g1501
g3
NtRp1926
(dp1927
g1504
Nsg1505
(lp1928
sg1507
I336065520
sg10
g1586
sg6
g1509
sg1510
I1
sg24
I01
sg25
g26
sg1511
g1
(g1512
g1513
(dp1929
g22
g1529
(g1530
g1516
g1531
S'b'
tRp1930
(I1
(I18
I1
tg1533
I00
S'\x00\x00\x80?\x00\x00\x80?\x00\x00\x80?\x00\x00\x00\x00\x00\x00\x80?\x00\x00\x00\x00\x00\x00\x80?\x00\x00\x80?\x00\x00\x80?\x00\x00\x80?\x00\x00\x80?\x00\x00\x80?\x00\x00\x80?\x00\x00\x00\x00\x00\x00\x00\x00\x00\x00\x00\x00\x00\x00\x80?\x00\x00\x00\x00'
S'\x00\x00\x00\x00\x00\x00\x00\x00\x00\x00\x00\x00\x00\x00\x00\x00\x00\x00'
Ntbsg19
g1515
(g1516
(I0
tS'b'
tRp1931
(I1
(I18
I1
tg1518
I00
(lp1932
g1292
ag1231
ag1274
ag1324
ag1223
ag1213
ag1266
ag1257
ag1316
ag1203
ag1308
ag1283
ag1240
ag1193
ag1249
ag1164
ag1300
ag1182
atbsg23
g1529
(g1530
g1516
g1531
S'b'
tRp1933
(I1
(I18
I1
tg1533
I00
S'\xd4V\xd5?\xd9C\x04@t9\xd3?f\xf0\x0e@i\x92\xfa@e\x88X@\xbc\xa0\x82@\xf3\xfd_@\x8d$"@=1C@\xfe\x97\x81@\xc22\xdb@\xe4A\xc4@\xed\xdc\xbb>\x99[M?W\xc4\xaa>\xd6 \x8a@Tj&?'
S'\x00\x00\x00\x00\x00\x00\x00\x00\x00\x00\x00\x00\x00\x00\x00\x00\x00\x00'
Ntbsg1528
g1529
(g1530
g1516
g1531
S'b'
tRp1934
(I1
(I18
I1
tg1533
I00
S'\x00\x00\x80?\x00\x00\x80?\x00\x00\x80?\x00\x00\x80?\x00\x00\x80?\x00\x00\x80?\x00\x00\x80?\x00\x00\x80?\x00\x00\x80?\x00\x00\x80?\x00\x00\x80?\x00\x00\x80?\x00\x00\x80?\x00\x00\x80?\x00\x00\x80?\x00\x00\x80?\x00\x00\x80?\x00\x00\x80?'
S'\x00\x00\x00\x00\x00\x00\x00\x00\x00\x00\x00\x00\x00\x00\x00\x00\x00\x00'
Ntbsg21
g1515
(g1516
(I0
tS'b'
tRp1935
(I1
(I18
I1
tg1518
I00
(lp1936
S'1'
aS'4'
aS'9'
aS'5'
aS'6'
aS'2'
aS'8'
aS'2'
aS'1'
aS'9'
aS'1'
aS'2'
aS'1'
aS'1'
aS'4'
aS'4'
aS'5'
aS'6'
atbsg1543
g1529
(g1530
g1516
g1531
S'b'
tRp1937
(I1
(I18
I1
tg1533
I00
S'\x00\x00PA\x00\x00\xc0@\x00\x000A\x00\x00\x88A\x00\x00\xa0@\x00\x00\x80@\x00\x00 A\x00\x00\x10A\x00\x00\x80A\x00\x00@@\x00\x00pA\x00\x00@A\x00\x00\xe0@\x00\x00\x00@\x00\x00\x00A\x00\x00\x00\x00\x00\x00`A\x00\x00\x80?'
S'\x00\x00\x00\x00\x00\x00\x00\x00\x00\x00\x00\x00\x00\x00\x00\x00\x00\x00'
Ntbsg20
g1529
(g1530
g1516
g1531
S'b'
tRp1938
(I1
(I18
I1
tg1533
I00
S'\x9aYU?\x06j\x86?AI\x84?\xb7`U?\x00\xb9{@s\x1f\x93@m\xed\xa6@\xbe\x14\xd1?\x1ddv@LR\xbd@\xf0\xfc\xe7@\xd6\xeb~@ws\xd7@*\xac\xaa>\xecl&?r[\xf9?\x111\x13@\x80\xb5{@'
S'\x00\x00\x00\x00\x00\x00\x00\x00\x00\x00\x00\x00\x00\x00\x00\x00\x00\x00'
NtbstRp1939
(dp1940
g1548
(dp1941
g1528
I01
sg21
I00
sg20
I01
sg22
I01
sg19
I00
sg23
I01
sg1543
I01
ssg1550
g1926
sg1551
(lp1942
g1528
ag1543
ag19
ag20
ag21
ag22
ag23
asg1553
(lp1943
I18
aI1
asbsg1555
g1556
sg1557
g1515
(g1516
(I0
tS'b'
tRp1944
(I1
(I18
I1
tg1518
I00
(lp1945
I15
aI17
aI13
aI9
aI5
aI4
aI1
aI12
aI14
aI7
aI6
aI2
aI11
aI0
aI16
aI10
aI8
aI3
atbsg1560
I01
sg1561
I1
sg1562
I-1
sg1563
(lp1946
g1
(g1565
g1513
(dp1947
g1157
g1290
sVY
L2L
sg1159
L2L
sg1160
g1291
sg1168
L1L
sg1165
L1L
sg1166
g1171
sVX
L9L
sg1162
L0L
sg1170
g1163
sg1172
L0L
sg1174
g1233
stRp1948
ag1
(g1565
g1513
(dp1949
g1157
g1229
sVY
L4L
sg1159
L2L
sg1160
g1230
sg1168
L4L
sg1165
L4L
sg1166
g1171
sVX
L3L
sg1162
L0L
sg1170
g1202
sg1172
L0L
sg1174
g1233
stRp1950
ag1
(g1565
g1513
(dp1951
g1157
g1272
sVY
L4L
sg1159
L2L
sg1160
g1273
sg1168
L9L
sg1165
L9L
sg1166
g1202
sVX
L2L
sg1162
L0L
sg1170
g1167
sg1172
L0L
sg1174
g1276
stRp1952
ag1
(g1565
g1513
(dp1953
g1157
g1322
sVY
L6L
sg1159
L2L
sg1160
g1323
sg1168
L6L
sg1165
L6L
sg1166
g1163
sVX
L8L
sg1162
L0L
sg1170
g1183
sg1172
L0L
sg1174
g1276
stRp1954
ag1
(g1565
g1513
(dp1955
g1157
g1221
sVY
L4L
sg1159
L3L
sg1160
g1222
sg1168
L6L
sg1165
L6L
sg1166
g1212
sVX
L6L
sg1162
g1173
sg1170
g1185
sg1172
L0L
sg1174
g1216
stRp1956
ag1
(g1565
g1513
(dp1957
g1157
g1210
sVY
L9L
sg1159
L3L
sg1160
g1211
sg1168
L7L
sg1165
L7L
sg1166
g1214
sVX
L9L
sg1162
g1212
sg1170
g1163
sg1172
L0L
sg1174
g1216
stRp1958
ag1
(g1565
g1513
(dp1959
g1157
g1264
sVY
L4L
sg1159
L3L
sg1160
g1265
sg1168
L8L
sg1165
L8L
sg1166
g1202
sVX
L3L
sg1162
g1171
sg1170
g1214
sg1172
L0L
sg1174
g1259
stRp1960
ag1
(g1565
g1513
(dp1961
g1157
g1255
sVY
L2L
sg1159
L3L
sg1160
g1256
sg1168
L2L
sg1165
L2L
sg1166
g1241
sVX
L4L
sg1162
g1173
sg1170
g1167
sg1172
L0L
sg1174
g1259
stRp1962
ag1
(g1565
g1513
(dp1963
g1157
g1314
sVY
L2L
sg1159
L3L
sg1160
g1315
sg1168
L1L
sg1165
L1L
sg1166
g1173
sVX
L8L
sg1162
g1241
sg1170
g1212
sg1172
L0L
sg1174
g1205
stRp1964
ag1
(g1565
g1513
(dp1965
g1157
g1200
sVY
L3L
sg1159
L3L
sg1160
g1201
sg1168
L9L
sg1165
L9L
sg1166
g1173
sVX
L2L
sg1162
g1202
sg1170
g1183
sg1172
L0L
sg1174
g1205
stRp1966
ag1
(g1565
g1513
(dp1967
g1157
g1306
sVY
L3L
sg1159
L4L
sg1160
g1307
sg1168
L1L
sg1165
L1L
sg1166
g1212
sVX
L6L
sg1162
g1171
sg1170
g1241
sg1172
g1214
sg1174
g1285
stRp1968
ag1
(g1565
g1513
(dp1969
g1157
g1281
sVY
L2L
sg1159
L4L
sg1160
g1282
sg1168
L2L
sg1165
L2L
sg1166
g1212
sVX
L3L
sg1162
g1171
sg1170
g1202
sg1172
g1214
sg1174
g1285
stRp1970
ag1
(g1565
g1513
(dp1971
g1157
g1238
sVY
L9L
sg1159
L4L
sg1160
g1239
sg1168
L1L
sg1165
L1L
sg1166
g1241
sVX
L3L
sg1162
g1183
sg1170
g1212
sg1172
g1214
sg1174
g1195
stRp1972
ag1
(g1565
g1513
(dp1973
g1157
g1191
sVY
L3L
sg1159
L4L
sg1160
g1192
sg1168
L3L
sg1165
L3L
sg1166
g1163
sVX
L6L
sg1162
g1167
sg1170
g1183
sg1172
g1173
sg1174
g1195
stRp1974
ag1
(g1565
g1513
(dp1975
g1157
g1247
sVY
L2L
sg1159
L4L
sg1160
g1248
sg1168
L7L
sg1165
L7L
sg1166
g1173
sVX
L2L
sg1162
g1202
sg1170
g1167
sg1172
g1183
sg1174
g1175
stRp1976
ag1
(g1565
g1513
(dp1977
g1157
g1158
sVY
L2L
sg1159
L4L
sg1160
g1161
sg1168
L1L
sg1165
L1L
sg1166
g1167
sVX
L8L
sg1162
g1163
sg1170
g1171
sg1172
g1173
sg1174
g1175
stRp1978
ag1
(g1565
g1513
(dp1979
g1157
g1298
sVY
L2L
sg1159
L4L
sg1160
g1299
sg1168
L5L
sg1165
L5L
sg1166
g1173
sVX
L2L
sg1162
g1183
sg1170
g1212
sg1172
g1185
sg1174
g1186
stRp1980
ag1
(g1565
g1513
(dp1981
g1157
g1180
sVY
L2L
sg1159
L4L
sg1160
g1181
sg1168
L7L
sg1165
L7L
sg1166
g1183
sVX
L2L
sg1162
g1173
sg1170
g1167
sg1172
g1185
sg1174
g1186
stRp1982
asg1578
Nsg1579
I3
sg1580
I18
sg1581
I0
sg1582
I18
sbag1
(g1501
g3
NtRp1983
(dp1984
g1504
Nsg1505
(lp1985
sg1507
I336065520
sg10
g1586
sg6
g1509
sg1510
I1
sg24
I01
sg25
g26
sg1511
g1
(g1512
g1513
(dp1986
g22
g1529
(g1530
g1516
g1531
S'b'
tRp1987
(I1
(I18
I1
tg1533
I00
S'\x00\x00\x80?\x00\x00\x80?\x00\x00\x80?\x00\x00\x80?\x00\x00\x80?\x00\x00\x00\x00\x00\x00\x80?\x00\x00\x00\x00\x00\x00\x80?\x00\x00\x80?\x00\x00\x00\x00\x00\x00\x00\x00\x00\x00\x80?\x00\x00\x80?\x00\x00\x00\x00\x00\x00\x80?\x00\x00\x80?\x00\x00\x80?'
S'\x00\x00\x00\x00\x00\x00\x00\x00\x00\x00\x00\x00\x00\x00\x00\x00\x00\x00'
Ntbsg19
g1515
(g1516
(I0
tS'b'
tRp1988
(I1
(I18
I1
tg1518
I00
(lp1989
g1457
ag1403
ag1421
ag1481
ag1489
ag1355
ag1395
ag1365
ag1449
ag1375
ag1384
ag1497
ag1430
ag1465
ag1337
ag1412
ag1440
ag1473
atbsg23
g1529
(g1530
g1516
g1531
S'b'
tRp1990
(I1
(I18
I1
tg1533
I00
S'\x8b\x9e\xf9?G\xd0\xec?i|\xf7?\x1f\xb7+@\x85\x10Q@\x88\xac\x99>\x17@\xcc@\xac\x1ao>;\x0ea@\x93\xa7\x8a@\x13yw?\xae\x1e\xe2@\xce\x84\xd8@\xd2\x1f\xaa@\xa0^\xb3>\x89\xde\x95@\xa4\x1f\xba@l\xdc\x9d@'
S'\x00\x00\x00\x00\x00\x00\x00\x00\x00\x00\x00\x00\x00\x00\x00\x00\x00\x00'
Ntbsg1528
g1529
(g1530
g1516
g1531
S'b'
tRp1991
(I1
(I18
I1
tg1533
I00
S'\x00\x00\x80?\x00\x00\x80?\x00\x00\x80?\x00\x00\x80?\x00\x00\x80?\x00\x00\x80?\x00\x00\x80?\x00\x00\x80?\x00\x00\x80?\x00\x00\x80?\x00\x00\x80?\x00\x00\x80?\x00\x00\x80?\x00\x00\x80?\x00\x00\x80?\x00\x00\x80?\x00\x00\x80?\x00\x00\x80?'
S'\x00\x00\x00\x00\x00\x00\x00\x00\x00\x00\x00\x00\x00\x00\x00\x00\x00\x00'
Ntbsg21
g1515
(g1516
(I0
tS'b'
tRp1992
(I1
(I18
I1
tg1518
I00
(lp1993
S'7'
aS'2'
aS'8'
aS'8'
aS'4'
aS'2'
aS'9'
aS'8'
aS'5'
aS'1'
aS'5'
aS'3'
aS'3'
aS'4'
aS'6'
aS'6'
aS'8'
aS'3'
atbsg1543
g1529
(g1530
g1516
g1531
S'b'
tRp1994
(I1
(I18
I1
tg1533
I00
S'\x00\x00@A\x00\x00\xc0@\x00\x00\x00A\x00\x00pA\x00\x00\x80A\x00\x00\x80?\x00\x00\xa0@\x00\x00\x00@\x00\x000A\x00\x00@@\x00\x00\x80@\x00\x00\x88A\x00\x00\x10A\x00\x00PA\x00\x00\x00\x00\x00\x00\xe0@\x00\x00 A\x00\x00`A'
S'\x00\x00\x00\x00\x00\x00\x00\x00\x00\x00\x00\x00\x00\x00\x00\x00\x00\x00'
Ntbsg20
g1529
(g1530
g1516
g1531
S'b'
tRp1995
(I1
(I18
I1
tg1533
I00
S'\x1a%\x82?\x11#\xc2?\xae\xdfL?\x19gV@x\xdd\r@&ff?\xfe|\x97?v\x08\xef>\x81\xee>@\x95\x9f\x99?\xa7\x92H?\x9f#"@\xabw\x07@\xf6\xa8j@\xebQU@q\xd9-@\xacx\x07@\x14\xdf\xd5@'
S'\x00\x00\x00\x00\x00\x00\x00\x00\x00\x00\x00\x00\x00\x00\x00\x00\x00\x00'
NtbstRp1996
(dp1997
g1548
(dp1998
g1528
I01
sg21
I00
sg20
I01
sg22
I01
sg19
I00
sg23
I01
sg1543
I01
ssg1550
g1983
sg1551
(lp1999
g1528
ag1543
ag19
ag20
ag21
ag22
ag23
asg1553
(lp2000
I18
aI1
asbsg1555
g1556
sg1557
g1515
(g1516
(I0
tS'b'
tRp2001
(I1
(I18
I1
tg1518
I00
(lp2002
I14
aI5
aI7
aI9
aI10
aI6
aI1
aI15
aI2
aI12
aI16
aI8
aI0
aI13
aI17
aI3
aI4
aI11
atbsg1560
I01
sg1561
I1
sg1562
I-1
sg1563
(lp2003
g1
(g1565
g1513
(dp2004
g1330
g1455
sVY
L6L
sg1332
L2L
sg1333
g1456
sg1341
L7L
sg1338
L7L
sg1339
g1344
sVX
L3L
sg1335
L0L
sg1343
g1336
sg1345
L0L
sg1347
g1405
stRp2005
ag1
(g1565
g1513
(dp2006
g1330
g1401
sVY
L4L
sg1332
L2L
sg1333
g1402
sg1341
L2L
sg1338
L2L
sg1339
g1340
sVX
L5L
sg1335
L0L
sg1343
g1366
sg1345
L0L
sg1347
g1405
stRp2007
ag1
(g1565
g1513
(dp2008
g1330
g1419
sVY
L2L
sg1332
L2L
sg1333
g1420
sg1341
L8L
sg1338
L8L
sg1339
g1336
sVX
L2L
sg1335
L0L
sg1343
g1346
sg1345
L0L
sg1347
g1423
stRp2009
ag1
(g1565
g1513
(dp2010
g1330
g1479
sVY
L2L
sg1332
L2L
sg1333
g1480
sg1341
L8L
sg1338
L8L
sg1339
g1357
sVX
L2L
sg1335
L0L
sg1343
g1346
sg1345
L0L
sg1347
g1423
stRp2011
ag1
(g1565
g1513
(dp2012
g1330
g1487
sVY
L3L
sg1332
L3L
sg1333
g1488
sg1341
L4L
sg1338
L4L
sg1339
g1394
sVX
L8L
sg1335
g1432
sg1343
g1386
sg1345
L0L
sg1347
g1358
stRp2013
ag1
(g1565
g1513
(dp2014
g1330
g1353
sVY
L2L
sg1332
L3L
sg1333
g1354
sg1341
L4L
sg1338
L4L
sg1339
g1344
sVX
L3L
sg1335
g1346
sg1343
g1357
sg1345
L0L
sg1347
g1358
stRp2015
ag1
(g1565
g1513
(dp2016
g1330
g1392
sVY
L2L
sg1332
L3L
sg1333
g1393
sg1341
L9L
sg1338
L9L
sg1339
g1336
sVX
L2L
sg1335
g1394
sg1343
g1340
sg1345
L0L
sg1347
g1368
stRp2017
ag1
(g1565
g1513
(dp2018
g1330
g1363
sVY
L2L
sg1332
L3L
sg1333
g1364
sg1341
L2L
sg1338
L2L
sg1339
g1366
sVX
L9L
sg1335
g1344
sg1343
g1340
sg1345
L0L
sg1347
g1368
stRp2019
ag1
(g1565
g1513
(dp2020
g1330
g1447
sVY
L4L
sg1332
L3L
sg1333
g1448
sg1341
L5L
sg1338
L5L
sg1339
g1394
sVX
L8L
sg1335
g1386
sg1343
g1414
sg1345
L0L
sg1347
g1377
stRp2021
ag1
(g1565
g1513
(dp2022
g1330
g1373
sVY
L6L
sg1332
L3L
sg1333
g1374
sg1341
L1L
sg1338
L1L
sg1339
g1340
sVX
L8L
sg1335
g1366
sg1343
g1344
sg1345
L0L
sg1347
g1377
stRp2023
ag1
(g1565
g1513
(dp2024
g1330
g1382
sVY
L3L
sg1332
L4L
sg1333
g1383
sg1341
L2L
sg1338
L2L
sg1339
g1346
sVX
L6L
sg1335
g1340
sg1343
g1386
sg1345
g1344
sg1347
g1387
stRp2025
ag1
(g1565
g1513
(dp2026
g1330
g1495
sVY
L2L
sg1332
L4L
sg1333
g1496
sg1341
L8L
sg1338
L8L
sg1339
g1340
sVX
L2L
sg1335
g1432
sg1343
g1357
sg1345
g1394
sg1347
g1387
stRp2027
ag1
(g1565
g1513
(dp2028
g1330
g1428
sVY
L3L
sg1332
L4L
sg1333
g1429
sg1341
L3L
sg1338
L3L
sg1339
g1386
sVX
L4L
sg1335
g1394
sg1343
g1340
sg1345
g1432
sg1347
g1433
stRp2029
ag1
(g1565
g1513
(dp2030
g1330
g1463
sVY
L3L
sg1332
L4L
sg1333
g1464
sg1341
L4L
sg1338
L4L
sg1339
g1357
sVX
L7L
sg1335
g1432
sg1343
g1344
sg1345
g1340
sg1347
g1433
stRp2031
ag1
(g1565
g1513
(dp2032
g1330
g1331
sVY
L4L
sg1332
L4L
sg1333
g1334
sg1341
L7L
sg1338
L7L
sg1339
g1340
sVX
L8L
sg1335
g1336
sg1343
g1344
sg1345
g1346
sg1347
g1348
stRp2033
ag1
(g1565
g1513
(dp2034
g1330
g1410
sVY
L3L
sg1332
L4L
sg1333
g1411
sg1341
L6L
sg1338
L6L
sg1339
g1346
sVX
L5L
sg1335
g1366
sg1343
g1394
sg1345
g1414
sg1347
g1348
stRp2035
ag1
(g1565
g1513
(dp2036
g1330
g1438
sVY
L2L
sg1332
L4L
sg1333
g1439
sg1341
L8L
sg1338
L8L
sg1339
g1394
sVX
L4L
sg1335
g1432
sg1343
g1414
sg1345
g1336
sg1347
g1442
stRp2037
ag1
(g1565
g1513
(dp2038
g1330
g1471
sVY
L5L
sg1332
L4L
sg1333
g1472
sg1341
L3L
sg1338
L3L
sg1339
g1414
sVX
L9L
sg1335
g1432
sg1343
g1394
sg1345
g1366
sg1347
g1442
stRp2039
asg1578
Nsg1579
I11
sg1580
I18
sg1581
I0
sg1582
I18
sbasS'savePickle'
p2040
I00
sb.