ccopy_reg
_reconstructor
p1
(cpsychopy.data
ExperimentHandler
p2
c__builtin__
object
p3
NtRp4
(dp5
S'originPath'
p6
NsS'dataFileName'
p7
VC:\u005cUsers\u005cexperimenter\u005cDesktop\u005cExperiments\u005cKRITL\u005cdata/31058_KRITL_2017_Jun_02_0912
p8
sS'runtimeInfo'
p9
NsS'name'
p10
S'KRITL'
p11
sS'dataNames'
p12
(lp13
S'practice_encoding.keys'
p14
aS'practice_encoding.rt'
p15
aS'practice_execution.keys'
p16
aS'practice_execution.corr'
p17
aS'practice_execution.rt'
p18
aS'encoding.keys'
p19
aS'encoding.rt'
p20
aS'execution.keys'
p21
aS'execution.corr'
p22
aS'execution.rt'
p23
asS'autoLog'
p24
I01
sS'extraInfo'
p25
(dp26
S'date'
p27
V2017_Jun_02_0912
p28
sS'frameRate'
p29
cnumpy.core.multiarray
scalar
p30
(cnumpy
dtype
p31
(S'f8'
I0
I1
tRp32
(I3
S'<'
NNNI-1
I-1
I0
tbS'\xbe\x9f\xdf\x93\x9d\x00N@'
tRp33
sS'expName'
p34
g11
sVsession
p35
V001
p36
sVparticipant
p37
V31058
p38
ssS'loopsUnfinished'
p39
(lp40
sS'saveWideText'
p41
I00
sS'thisEntry'
p42
(dp43
sS'version'
p44
S''
sS'_paramNamesSoFar'
p45
(lp46
Voperationc
p47
aVoperationb
p48
aVoperationa
p49
aVcorrectresponse
p50
aVvaluey
p51
aVoperationd
p52
aVcondition
p53
aVvaluex
p54
aVRule
p55
aVOperatora
p56
aVLength
p57
aVIntermediate
p58
aVCorrectResponse
p59
aVResult
p60
aVY
aVX
aVOperatorc
p61
aVOperatorb
p62
aVOperatord
p63
aVStructure
p64
asS'entries'
p65
(lp66
(dp67
g18
F3.2832415436860174
sg29
g33
sg17
I1
sg47
L0L
sg48
VADD
p68
sg49
Vhalf
p69
sg35
g36
sg50
L7L
sS'practice_trials.thisTrialN'
p70
I0
sg52
L0L
sS'practice_trials.thisRepN'
p71
I0
sg37
g38
sg53
L2L
sg27
g28
sg16
S'7'
sg14
(lp72
S'space'
p73
asS'practice_trials.thisIndex'
p74
I2
sS'practice_trials.thisN'
p75
I0
sg34
g11
sg15
(lp76
F2.0999513200949878
asg51
L5L
sg54
L4L
sa(dp77
g18
F5.9829980742651969
sg29
g33
sg17
I1
sg47
Vincrease
p78
sg48
VDIVIDE
p79
sg49
Vtriple
p80
sg35
g36
sg50
L3L
sS'practice_trials.thisTrialN'
p81
I1
sg52
L0L
sS'practice_trials.thisRepN'
p82
I0
sg37
g38
sg53
L3L
sg27
g28
sg16
S'3'
sg14
(lp83
S'space'
p84
asS'practice_trials.thisIndex'
p85
I4
sS'practice_trials.thisN'
p86
I1
sg34
g11
sg15
(lp87
F2.2332611591555178
asg51
L3L
sg54
L2L
sa(dp88
g18
F2.1666606590151787
sg29
g33
sg17
I1
sg47
L0L
sg48
g68
sg49
Vdecrease
p89
sg35
g36
sg50
L7L
sS'practice_trials.thisTrialN'
p90
I2
sg52
L0L
sS'practice_trials.thisRepN'
p91
I0
sg37
g38
sg53
L2L
sg27
g28
sg16
S'7'
sg14
(lp92
S'space'
p93
asS'practice_trials.thisIndex'
p94
I0
sS'practice_trials.thisN'
p95
I2
sg34
g11
sg15
(lp96
F1.4999872264452279
asg51
L5L
sg54
L3L
sa(dp97
g18
F3.3665465009398758
sg29
g33
sg17
I1
sg47
g68
sg48
Vtriple 
p98
sg49
g69
sg35
g36
sg50
L8L
sS'practice_trials.thisTrialN'
p99
I3
sg52
L0L
sS'practice_trials.thisRepN'
p100
I0
sg37
g38
sg53
L3L
sg27
g28
sg16
S'8'
sg14
(lp101
S'space'
p102
asS'practice_trials.thisIndex'
p103
I3
sS'practice_trials.thisN'
p104
I3
sg34
g11
sg15
(lp105
F1.6833008974790573
asg51
L2L
sg54
L4L
sa(dp106
g18
F2.9999139090068638
sg29
g33
sg17
I1
sg47
L0L
sg48
g89
sg49
VTIMES
p107
sg35
g36
sg50
L8L
sS'practice_trials.thisTrialN'
p108
I4
sg52
L0L
sS'practice_trials.thisRepN'
p109
I0
sg37
g38
sg53
L2L
sg27
g28
sg16
S'8'
sg14
(lp110
S'space'
p111
asS'practice_trials.thisIndex'
p112
I1
sS'practice_trials.thisN'
p113
I4
sg34
g11
sg15
(lp114
F1.5166699853725731
asg51
L3L
sg54
L3L
sa(dp115
g18
F4.4997926466166973
sg29
g33
sg17
I1
sg47
g78
sg48
g79
sg49
Vdouble
p116
sg35
g36
sg50
L9L
sS'practice_trials.thisTrialN'
p117
I5
sg52
g80
sS'practice_trials.thisRepN'
p118
I0
sg37
g38
sg53
L4L
sg27
g28
sg16
S'9'
sg14
(lp119
S'space'
p120
asS'practice_trials.thisIndex'
p121
I5
sS'practice_trials.thisN'
p122
I5
sg34
g11
sg15
(lp123
F2.7665547600481659
asg51
L8L
sg54
L8L
sa(dp124
S'block.thisTrialN'
p125
I0
sS'block.thisRepN'
p126
I0
sg29
g33
sS'block.thisN'
p127
I0
sg55
(S'ADD'
S'THIRD'
S'x'
S'y'
tp128
sg27
g28
sg57
L2L
sg58
(I1
I7
tp129
sg22
I1
sg20
F2.5499942081514746
sg23
F2.2499904634896666
sVY
L6L
sVX
L3L
sg61
L0L
sg35
g36
sg37
g38
sg21
S'7'
sg19
S'space'
p130
sg34
g11
sg60
L7L
sg56
Vthird
p131
sg59
L7L
sS'block.thisIndex'
p132
I0
sg62
VADD
p133
sg63
L0L
sg64
VBUxy
p134
sa(dp135
S'block.thisTrialN'
p136
I1
sS'block.thisRepN'
p137
I0
sg29
g33
sS'block.thisN'
p138
I1
sg55
(S'DECREASE'
S'TRIPLE'
S'HALF'
S'ADD'
S'x'
S'y'
tp139
sg27
g28
sg57
L4L
sg58
(I6
I3
I9
I8
tp140
sg22
I1
sg20
F1.8166856288444251
sg23
F7.1162379204761237
sVY
L2L
sVX
L4L
sg61
Vhalf
p141
sg35
g36
sg37
g38
sg21
S'8'
sg19
S'space'
p142
sg34
g11
sg60
L8L
sg56
Vtriple
p143
sg59
L8L
sS'block.thisIndex'
p144
I16
sg62
Vdecrease
p145
sg63
g133
sg64
VUUUBxy
p146
sa(dp147
S'block.thisTrialN'
p148
I2
sS'block.thisRepN'
p149
I0
sg29
g33
sS'block.thisN'
p150
I2
sg55
(S'INCREASE'
S'ADD'
S'TRIPLE'
S'x'
S'y'
tp151
sg27
g28
sg57
L3L
sg58
(I6
I8
I9
tp152
sg22
I1
sg20
F1.7000018549151719
sg23
F5.8161925303284079
sVY
L2L
sVX
L2L
sg61
g143
sg35
g36
sg37
g38
sg21
S'9'
sg19
S'space'
p153
sg34
g11
sg60
L9L
sg56
g133
sg59
L9L
sS'block.thisIndex'
p154
I6
sg62
Vincrease
p155
sg63
L0L
sg64
VUBUxy
p156
sa(dp157
S'block.thisTrialN'
p158
I3
sS'block.thisRepN'
p159
I0
sg29
g33
sS'block.thisN'
p160
I3
sg55
(S'DOUBLE'
S'TIMES'
S'x'
S'y'
tp161
sg27
g28
sg57
L2L
sg58
(I4
I8
tp162
sg22
I1
sg20
F1.6500435180496424
sg23
F1.5332071599550545
sVY
L2L
sVX
L2L
sg61
L0L
sg35
g36
sg37
g38
sg21
S'8'
sg19
S'space'
p163
sg34
g11
sg60
L8L
sg56
VTIMES
p164
sg59
L8L
sS'block.thisIndex'
p165
I3
sg62
Vdouble
p166
sg63
L0L
sg64
VUBxy
p167
sa(dp168
S'block.thisTrialN'
p169
I4
sS'block.thisRepN'
p170
I0
sg29
g33
sS'block.thisN'
p171
I4
sg55
(S'SUBTRACT'
S'INCREASE'
S'x'
S'y'
tp172
sg27
g28
sg57
L2L
sg58
(I6
I2
tp173
sg22
I1
sg20
F2.0666414459701627
sg23
F1.8333666380494833
sVY
L4L
sVX
L5L
sg61
L0L
sg35
g36
sg37
g38
sg21
S'2'
sg19
S'space'
p174
sg34
g11
sg60
L2L
sg56
g155
sg59
L2L
sS'block.thisIndex'
p175
I1
sg62
VSUBTRACT
p176
sg63
L0L
sg64
g134
sa(dp177
S'block.thisTrialN'
p178
I5
sS'block.thisRepN'
p179
I0
sg29
g33
sS'block.thisN'
p180
I5
sg55
(S'THIRD'
S'TIMES'
S'HALF'
S'INCREASE'
S'x'
S'y'
tp181
sg27
g28
sg57
L4L
sg58
(I8
I4
I12
I4
tp182
sg22
I1
sg20
F2.4832656213548034
sg23
F5.1164573475252837
sVY
L3L
sVX
L7L
sg61
g141
sg35
g36
sg37
g38
sg21
S'4'
sg19
S'space'
p183
sg34
g11
sg60
L4L
sg56
g164
sg59
L4L
sS'block.thisIndex'
p184
I13
sg62
g131
sg63
g155
sg64
VUBUUxy
p185
sa(dp186
S'block.thisTrialN'
p187
I6
sS'block.thisRepN'
p188
I0
sg29
g33
sS'block.thisN'
p189
I6
sg55
(S'DIVIDE'
S'TRIPLE'
S'HALF'
S'x'
S'y'
tp190
sg27
g28
sg57
L3L
sg58
(I4
I12
I4
tp191
sg22
I1
sg20
F1.3167040019761771
sg23
F4.699808674864471
sVY
L3L
sVX
L8L
sg61
g141
sg35
g36
sg37
g38
sg21
S'4'
sg19
S'space'
p192
sg34
g11
sg60
L4L
sg56
g143
sg59
L4L
sS'block.thisIndex'
p193
I4
sg62
VDIVIDE
p194
sg63
L0L
sg64
VBUUxy
p195
sa(dp196
S'block.thisTrialN'
p197
I7
sS'block.thisRepN'
p198
I0
sg29
g33
sS'block.thisN'
p199
I7
sg55
(S'INCREASE'
S'SUBTRACT'
S'THIRD'
S'x'
S'y'
tp200
sg27
g28
sg57
L3L
sg58
(I3
I1
I2
tp201
sg22
I1
sg20
F1.7665411115158349
sg23
F7.1162603183183819
sVY
L2L
sVX
L9L
sg61
g131
sg35
g36
sg37
g38
sg21
S'2'
sg19
S'space'
p202
sg34
g11
sg60
L2L
sg56
g176
sg59
L2L
sS'block.thisIndex'
p203
I7
sg62
g155
sg63
L0L
sg64
g156
sa(dp204
S'block.thisTrialN'
p205
I8
sS'block.thisRepN'
p206
I0
sg29
g33
sS'block.thisN'
p207
I8
sg55
(S'INCREASE'
S'DIVIDE'
S'TRIPLE'
S'HALF'
S'x'
S'y'
tp208
sg27
g28
sg57
L4L
sg58
(I2
I6
I2
I3
tp209
sg22
I1
sg20
F1.5666293720714748
sg23
F3.7165253807324916
sVY
L3L
sVX
L4L
sg61
g143
sg35
g36
sg37
g38
sg21
S'3'
sg19
S'space'
p210
sg34
g11
sg60
L3L
sg56
g194
sg59
L3L
sS'block.thisIndex'
p211
I12
sg62
g155
sg63
g141
sg64
g185
sa(dp212
S'block.thisTrialN'
p213
I9
sS'block.thisRepN'
p214
I0
sg29
g33
sS'block.thisN'
p215
I9
sg55
(S'THIRD'
S'INCREASE'
S'ADD'
S'DOUBLE'
S'x'
S'y'
tp216
sg27
g28
sg57
L4L
sg58
(I16
I20
I21
I7
tp217
sg22
I1
sg20
F2.2499719155021012
sg23
F4.899782357737422
sVY
L4L
sVX
L8L
sg61
g133
sg35
g36
sg37
g38
sg21
S'7'
sg19
S'space'
p218
sg34
g11
sg60
L7L
sg56
g155
sg59
L7L
sS'block.thisIndex'
p219
I14
sg62
g131
sg63
g166
sg64
VUUBUxy
p220
sa(dp221
S'block.thisTrialN'
p222
I10
sS'block.thisRepN'
p223
I0
sg29
g33
sS'block.thisN'
p224
I10
sg55
(S'TRIPLE'
S'DECREASE'
S'HALF'
S'SUBTRACT'
S'x'
S'y'
tp225
sg27
g28
sg57
L4L
sg58
(I4
I2
I1
I3
tp226
sg22
I1
sg20
F4.2331502207089216
sg23
F5.8496759864501655
sVY
L5L
sVX
L9L
sg61
g141
sg35
g36
sg37
g38
sg21
S'3'
sg19
S'space'
p227
sg34
g11
sg60
L3L
sg56
g145
sg59
L3L
sS'block.thisIndex'
p228
I17
sg62
g143
sg63
g176
sg64
g146
sa(dp229
S'block.thisTrialN'
p230
I11
sS'block.thisRepN'
p231
I0
sg29
g33
sS'block.thisN'
p232
I11
sg55
(S'TRIPLE'
S'DOUBLE'
S'SUBTRACT'
S'DECREASE'
S'x'
S'y'
tp233
sg27
g28
sg57
L4L
sg58
(I4
I1
I2
I6
tp234
sg22
I1
sg20
F3.7664385722018778
sg23
F3.8498730158898979
sVY
L3L
sVX
L5L
sg61
g176
sg35
g36
sg37
g38
sg21
S'6'
sg19
S'space'
p235
sg34
g11
sg60
L6L
sg56
g166
sg59
L6L
sS'block.thisIndex'
p236
I15
sg62
g143
sg63
g145
sg64
g220
sa(dp237
S'block.thisTrialN'
p238
I12
sS'block.thisRepN'
p239
I0
sg29
g33
sS'block.thisN'
p240
I12
sg55
(S'DOUBLE'
S'ADD'
S'x'
S'y'
tp241
sg27
g28
sg57
L2L
sg58
(I4
I8
tp242
sg22
I1
sg20
F1.5165167015511543
sg23
F3.2665671836584806
sVY
L2L
sVX
L2L
sg61
L0L
sg35
g36
sg37
g38
sg21
S'8'
sg19
S'space'
p243
sg34
g11
sg60
L8L
sg56
g133
sg59
L8L
sS'block.thisIndex'
p244
I2
sg62
g166
sg63
L0L
sg64
g167
sa(dp245
S'block.thisTrialN'
p246
I13
sS'block.thisRepN'
p247
I0
sg29
g33
sS'block.thisN'
p248
I13
sg55
(S'THIRD'
S'INCREASE'
S'SUBTRACT'
S'x'
S'y'
tp249
sg27
g28
sg57
L3L
sg58
(I2
I3
I1
tp250
sg22
I1
sg20
F1.8666835115291178
sg23
F7.8329666298814118
sVY
L6L
sVX
L8L
sg61
g176
sg35
g36
sg37
g38
sg21
S'1'
sg19
S'space'
p251
sg34
g11
sg60
L1L
sg56
g155
sg59
L1L
sS'block.thisIndex'
p252
I9
sg62
g131
sg63
L0L
sg64
VUUBxy
p253
sa(dp254
S'block.thisTrialN'
p255
I14
sS'block.thisRepN'
p256
I0
sg29
g33
sS'block.thisN'
p257
I14
sg55
(S'DECREASE'
S'TRIPLE'
S'DIVIDE'
S'x'
S'y'
tp258
sg27
g28
sg57
L3L
sg58
(I2
I6
I5
tp259
sg22
I1
sg20
F1.8999695882666856
sg23
F2.750009186565876
sVY
L4L
sVX
L8L
sg61
g194
sg35
g36
sg37
g38
sg21
S'5'
sg19
S'space'
p260
sg34
g11
sg60
L5L
sg56
g143
sg59
L5L
sS'block.thisIndex'
p261
I8
sg62
g145
sg63
L0L
sg64
g253
sa(dp262
S'block.thisTrialN'
p263
I15
sS'block.thisRepN'
p264
I0
sg29
g33
sS'block.thisN'
p265
I15
sg55
(S'TIMES'
S'THIRD'
S'DOUBLE'
S'x'
S'y'
tp266
sg27
g28
sg57
L3L
sg58
(I6
I2
I4
tp267
sg22
I1
sg20
F2.3332761726342142
sg23
F4.7996158101595938
sVY
L2L
sVX
L3L
sg61
g166
sg35
g36
sg37
g38
sg21
S'4'
sg19
S'space'
p268
sg34
g11
sg60
L4L
sg56
g131
sg59
L4L
sS'block.thisIndex'
p269
I5
sg62
g164
sg63
L0L
sg64
g195
sa(dp270
S'block.thisTrialN'
p271
I16
sS'block.thisRepN'
p272
I0
sg29
g33
sS'block.thisN'
p273
I16
sg55
(S'TIMES'
S'INCREASE'
S'HALF'
S'TRIPLE'
S'x'
S'y'
tp274
sg27
g28
sg57
L4L
sg58
(I6
I3
I4
I8
tp275
sg22
I1
sg20
F2.6499336294364184
sg23
F4.6998944161459804
sVY
L2L
sVX
L2L
sg61
g141
sg35
g36
sg37
g38
sg21
S'8'
sg19
S'space'
p276
sg34
g11
sg60
L8L
sg56
g155
sg59
L8L
sS'block.thisIndex'
p277
I11
sg62
g164
sg63
g143
sg64
VBUUUxy
p278
sa(dp279
S'block.thisTrialN'
p280
I17
sS'block.thisRepN'
p281
I0
sg29
g33
sS'block.thisN'
p282
I17
sg55
(S'DIVIDE'
S'DOUBLE'
S'INCREASE'
S'THIRD'
S'x'
S'y'
tp283
sg27
g28
sg57
L4L
sg58
(I2
I3
I6
I2
tp284
sg22
I1
sg20
F2.7832539675291628
sg23
F4.8329029364977032
sVY
L3L
sVX
L6L
sg61
g155
sg35
g36
sg37
g38
sg21
S'2'
sg19
S'space'
p285
sg34
g11
sg60
L2L
sg56
g166
sg59
L2L
sS'block.thisIndex'
p286
I10
sg62
g194
sg63
g131
sg64
g278
sa(dp287
S'block.thisTrialN'
p288
I0
sS'block.thisRepN'
p289
I0
sg29
g33
sS'block.thisN'
p290
I0
sVRule
p291
(S'INCREASE'
S'ADD'
S'x'
S'y'
tp292
sg27
g28
sVLength
p293
L2L
sVIntermediate
p294
(I5
I6
tp295
sg22
I1
sg20
F2.1000402108766139
sg23
F3.9998211686033756
sVY
L2L
sVX
L3L
sVOperatorc
p296
L0L
sg35
g36
sg37
g38
sg21
S'6'
sg19
S'space'
p297
sg34
g11
sVResult
p298
L6L
sVOperatora
p299
VADD
p300
sVCorrectResponse
p301
L6L
sS'block.thisIndex'
p302
I3
sVOperatorb
p303
Vincrease
p304
sVOperatord
p305
L0L
sVStructure
p306
VUBxy
p307
sa(dp308
S'block.thisTrialN'
p309
I1
sS'block.thisRepN'
p310
I0
sg29
g33
sS'block.thisN'
p311
I1
sg291
(S'SUBTRACT'
S'DECREASE'
S'x'
S'y'
tp312
sg27
g28
sg293
L2L
sg294
(I5
I3
tp313
sg22
I1
sg20
F0.83343628095462918
sg23
F3.3332667236682028
sVY
L2L
sVX
L6L
sg296
L0L
sg35
g36
sg37
g38
sg21
S'3'
sg19
S'space'
p314
sg34
g11
sg298
L3L
sg299
Vdecrease
p315
sg301
L3L
sS'block.thisIndex'
p316
I1
sg303
VSUBTRACT
p317
sg305
L0L
sg306
VBUxy
p318
sa(dp319
S'block.thisTrialN'
p320
I2
sS'block.thisRepN'
p321
I0
sg29
g33
sS'block.thisN'
p322
I2
sg291
(S'SUBTRACT'
S'DECREASE'
S'TRIPLE'
S'DOUBLE'
S'x'
S'y'
tp323
sg27
g28
sg293
L4L
sg294
(I6
I18
I17
I8
tp324
sg22
I1
sg20
F3.2665405864827335
sg23
F5.5997730137314647
sVY
L9L
sVX
L3L
sg296
Vtriple
p325
sg35
g36
sg37
g38
sg21
S'8'
sg19
S'space'
p326
sg34
g11
sg298
L8L
sg299
g315
sg301
L8L
sS'block.thisIndex'
p327
I11
sg303
g317
sg305
Vdouble
p328
sg306
VBUUUxy
p329
sa(dp330
S'block.thisTrialN'
p331
I3
sS'block.thisRepN'
p332
I0
sg29
g33
sS'block.thisN'
p333
I3
sg291
(S'DIVIDE'
S'DECREASE'
S'TRIPLE'
S'x'
S'y'
tp334
sg27
g28
sg293
L3L
sg294
(I9
I8
I4
tp335
sg22
I1
sg20
F1.4000310068950057
sg23
F3.8832087870687246
sVY
L2L
sVX
L3L
sg296
g325
sg35
g36
sg37
g38
sg21
S'4'
sg19
S'space'
p336
sg34
g11
sg298
L4L
sg299
g315
sg301
L4L
sS'block.thisIndex'
p337
I5
sg303
VDIVIDE
p338
sg305
L0L
sg306
VBUUxy
p339
sa(dp340
S'block.thisTrialN'
p341
I4
sS'block.thisRepN'
p342
I0
sg29
g33
sS'block.thisN'
p343
I4
sg291
(S'DIVIDE'
S'INCREASE'
S'x'
S'y'
tp344
sg27
g28
sg293
L2L
sg294
(I4
I2
tp345
sg22
I1
sg20
F1.1834431577008218
sg23
F1.3167557965498418
sVY
L2L
sVX
L3L
sg296
L0L
sg35
g36
sg37
g38
sg21
S'2'
sg19
S'space'
p346
sg34
g11
sg298
L2L
sg299
g304
sg301
L2L
sS'block.thisIndex'
p347
I0
sg303
g338
sg305
L0L
sg306
g318
sa(dp348
S'block.thisTrialN'
p349
I5
sS'block.thisRepN'
p350
I0
sg29
g33
sS'block.thisN'
p351
I5
sg291
(S'HALF'
S'TRIPLE'
S'INCREASE'
S'DIVIDE'
S'x'
S'y'
tp352
sg27
g28
sg293
L4L
sg294
(I3
I4
I12
I6
tp353
sg22
I1
sg20
F2.5997506158892065
sg23
F3.5831591973546892
sVY
L3L
sVX
L9L
sg296
g304
sg35
g36
sg37
g38
sg21
S'6'
sg19
S'space'
p354
sg34
g11
sg298
L6L
sg299
g325
sg301
L6L
sS'block.thisIndex'
p355
I16
sg303
Vhalf
p356
sg305
g338
sg306
VUUUBxy
p357
sa(dp358
S'block.thisTrialN'
p359
I6
sS'block.thisRepN'
p360
I0
sg29
g33
sS'block.thisN'
p361
I6
sg291
(S'THIRD'
S'INCREASE'
S'DIVIDE'
S'DOUBLE'
S'x'
S'y'
tp362
sg27
g28
sg293
L4L
sg294
(I18
I2
I3
I1
tp363
sg22
I1
sg20
F3.4002882298082113
sg23
F4.1998294978402555
sVY
L9L
sVX
L9L
sg296
g338
sg35
g36
sg37
g38
sg21
S'1'
sg19
S'space'
p364
sg34
g11
sg298
L1L
sg299
g304
sg301
L1L
sS'block.thisIndex'
p365
I15
sg303
Vthird
p366
sg305
g328
sg306
VUUBUxy
p367
sa(dp368
S'block.thisTrialN'
p369
I7
sS'block.thisRepN'
p370
I0
sg29
g33
sS'block.thisN'
p371
I7
sg291
(S'DECREASE'
S'DIVIDE'
S'x'
S'y'
tp372
sg27
g28
sg293
L2L
sg294
(I2
I1
tp373
sg22
I1
sg20
F0.7834446975030005
sg23
F1.3168460871092975
sVY
L4L
sVX
L8L
sg296
L0L
sg35
g36
sg37
g38
sg21
S'1'
sg19
S'space'
p374
sg34
g11
sg298
L1L
sg299
g338
sg301
L1L
sS'block.thisIndex'
p375
I2
sg303
g315
sg305
L0L
sg306
g307
sa(dp376
S'block.thisTrialN'
p377
I8
sS'block.thisRepN'
p378
I0
sg29
g33
sS'block.thisN'
p379
I8
sg291
(S'THIRD'
S'TIMES'
S'DOUBLE'
S'DECREASE'
S'x'
S'y'
tp380
sg27
g28
sg293
L4L
sg294
(I1
I2
I6
I2
tp381
sg22
I1
sg20
F5.249693694524467
sg23
F4.0998620793689042
sVY
L3L
sVX
L2L
sg296
g328
sg35
g36
sg37
g38
sg21
S'2'
sg19
S'space'
p382
sg34
g11
sg298
L2L
sg299
VTIMES
p383
sg301
L2L
sS'block.thisIndex'
p384
I13
sg303
g366
sg305
g315
sg306
VUBUUxy
p385
sa(dp386
S'block.thisTrialN'
p387
I9
sS'block.thisRepN'
p388
I0
sg29
g33
sS'block.thisN'
p389
I9
sg291
(S'HALF'
S'ADD'
S'TRIPLE'
S'x'
S'y'
tp390
sg27
g28
sg293
L3L
sg294
(I9
I12
I6
tp391
sg22
I1
sg20
F1.4333415806759149
sg23
F9.0661280495114625
sVY
L3L
sVX
L3L
sg296
g325
sg35
g36
sg37
g38
sg21
S'6'
sg19
S'space'
p392
sg34
g11
sg298
L6L
sg299
g300
sg301
L6L
sS'block.thisIndex'
p393
I6
sg303
g356
sg305
L0L
sg306
VUBUxy
p394
sa(dp395
S'block.thisTrialN'
p396
I10
sS'block.thisRepN'
p397
I0
sg29
g33
sS'block.thisN'
p398
I10
sg291
(S'INCREASE'
S'SUBTRACT'
S'HALF'
S'x'
S'y'
tp399
sg27
g28
sg293
L3L
sg294
(I4
I2
I3
tp400
sg22
I1
sg20
F1.1666732577141374
sg23
F3.3831396694295108
sVY
L2L
sVX
L8L
sg296
g356
sg35
g36
sg37
g38
sg21
S'3'
sg19
S'space'
p401
sg34
g11
sg298
L3L
sg299
g317
sg301
L3L
sS'block.thisIndex'
p402
I7
sg303
g304
sg305
L0L
sg306
g394
sa(dp403
S'block.thisTrialN'
p404
I11
sS'block.thisRepN'
p405
I0
sg29
g33
sS'block.thisN'
p406
I11
sg291
(S'ADD'
S'DOUBLE'
S'DECREASE'
S'THIRD'
S'x'
S'y'
tp407
sg27
g28
sg293
L4L
sg294
(I2
I1
I2
I8
tp408
sg22
I1
sg20
F2.5831801949534565
sg23
F4.3831638169940561
sVY
L6L
sVX
L6L
sg296
g315
sg35
g36
sg37
g38
sg21
S'8'
sg19
S'space'
p409
sg34
g11
sg298
L8L
sg299
g328
sg301
L8L
sS'block.thisIndex'
p410
I10
sg303
g300
sg305
g366
sg306
g329
sa(dp411
S'block.thisTrialN'
p412
I12
sS'block.thisRepN'
p413
I0
sg29
g33
sS'block.thisN'
p414
I12
sg291
(S'THIRD'
S'HALF'
S'ADD'
S'x'
S'y'
tp415
sg27
g28
sg293
L3L
sg294
(I6
I3
I1
tp416
sg22
I1
sg20
F1.4333972251042724
sg23
F3.5830297109205276
sVY
L3L
sVX
L3L
sg296
g300
sg35
g36
sg37
g38
sg21
S'1'
sg19
S'space'
p417
sg34
g11
sg298
L1L
sg299
g356
sg301
L1L
sS'block.thisIndex'
p418
I9
sg303
g366
sg305
L0L
sg306
VUUBxy
p419
sa(dp420
S'block.thisTrialN'
p421
I13
sS'block.thisRepN'
p422
I0
sg29
g33
sS'block.thisN'
p423
I13
sg291
(S'THIRD'
S'DOUBLE'
S'INCREASE'
S'TIMES'
S'x'
S'y'
tp424
sg27
g28
sg293
L4L
sg294
(I8
I9
I18
I6
tp425
sg22
I1
sg20
F2.9331993206869811
sg23
F4.1832531276158988
sVY
L4L
sVX
L2L
sg296
g304
sg35
g36
sg37
g38
sg21
S'6'
sg19
S'space'
p426
sg34
g11
sg298
L6L
sg299
g328
sg301
L6L
sS'block.thisIndex'
p427
I17
sg303
g366
sg305
g383
sg306
g357
sa(dp428
S'block.thisTrialN'
p429
I14
sS'block.thisRepN'
p430
I0
sg29
g33
sS'block.thisN'
p431
I14
sg291
(S'THIRD'
S'DOUBLE'
S'ADD'
S'DECREASE'
S'x'
S'y'
tp432
sg27
g28
sg293
L4L
sg294
(I5
I12
I24
I8
tp433
sg22
I1
sg20
F2.2499792645685375
sg23
F6.8831793901044875
sVY
L7L
sVX
L6L
sg296
g300
sg35
g36
sg37
g38
sg21
S'8'
sg19
S'space'
p434
sg34
g11
sg298
L8L
sg299
g328
sg301
L8L
sS'block.thisIndex'
p435
I14
sg303
g366
sg305
g315
sg306
g367
sa(dp436
S'block.thisTrialN'
p437
I15
sS'block.thisRepN'
p438
I0
sg29
g33
sS'block.thisN'
p439
I15
sg291
(S'INCREASE'
S'TRIPLE'
S'DIVIDE'
S'x'
S'y'
tp440
sg27
g28
sg293
L3L
sg294
(I2
I6
I7
tp441
sg22
I1
sg20
F2.3165871140081435
sg23
F6.1331184089649469
sVY
L3L
sVX
L6L
sg296
g338
sg35
g36
sg37
g38
sg21
S'7'
sg19
S'space'
p442
sg34
g11
sg298
L7L
sg299
g325
sg301
L7L
sS'block.thisIndex'
p443
I8
sg303
g304
sg305
L0L
sg306
g419
sa(dp444
S'block.thisTrialN'
p445
I16
sS'block.thisRepN'
p446
I0
sg29
g33
sS'block.thisN'
p447
I16
sg291
(S'DOUBLE'
S'ADD'
S'INCREASE'
S'THIRD'
S'x'
S'y'
tp448
sg27
g28
sg293
L4L
sg294
(I1
I2
I4
I8
tp449
sg22
I1
sg20
F2.8998859468847513
sg23
F5.7497890596278012
sVY
L2L
sVX
L3L
sg296
g304
sg35
g36
sg37
g38
sg21
S'8'
sg19
S'space'
p450
sg34
g11
sg298
L8L
sg299
g300
sg301
L8L
sS'block.thisIndex'
p451
I12
sg303
g328
sg305
g366
sg306
g385
sa(dp452
S'block.thisTrialN'
p453
I17
sS'block.thisRepN'
p454
I0
sg29
g33
sS'block.thisN'
p455
I17
sg291
(S'ADD'
S'HALF'
S'THIRD'
S'x'
S'y'
tp456
sg27
g28
sg293
L3L
sg294
(I2
I1
I9
tp457
sg22
I1
sg20
F1.1834015119820833
sg23
F3.4499249502550811
sVY
L8L
sVX
L6L
sg296
g366
sg35
g36
sg37
g38
sg21
S'9'
sg19
S'space'
p458
sg34
g11
sg298
L9L
sg299
g356
sg301
L9L
sS'block.thisIndex'
p459
I4
sg303
g300
sg305
L0L
sg306
g339
sa(dp460
S'block.thisTrialN'
p461
I0
sS'block.thisRepN'
p462
I0
sg29
g33
sS'block.thisN'
p463
I0
sVRule
p464
(S'HALF'
S'SUBTRACT'
S'DECREASE'
S'TRIPLE'
S'x'
S'y'
tp465
sg27
g28
sVLength
p466
L4L
sVIntermediate
p467
(I15
I14
I10
I5
tp468
sg22
I0
sg20
F3.6332011753693223
sg23
F15.998843720648438
sVY
L4L
sVX
L5L
sVOperatorc
p469
Vdecrease
p470
sg35
g36
sg37
g38
sg21
S'9'
sg19
S'space'
p471
sg34
g11
sVResult
p472
L5L
sVOperatora
p473
VSUBTRACT
p474
sVCorrectResponse
p475
L5L
sS'block.thisIndex'
p476
I12
sVOperatorb
p477
Vhalf
p478
sVOperatord
p479
Vtriple
p480
sVStructure
p481
VUBUUxy
p482
sa(dp483
S'block.thisTrialN'
p484
I1
sS'block.thisRepN'
p485
I0
sg29
g33
sS'block.thisN'
p486
I1
sg464
(S'HALF'
S'TIMES'
S'DECREASE'
S'x'
S'y'
tp487
sg27
g28
sg466
L3L
sg467
(I8
I16
I8
tp488
sg22
I1
sg20
F1.8666604137979448
sg23
F3.1664643294643611
sVY
L2L
sVX
L9L
sg469
g470
sg35
g36
sg37
g38
sg21
S'8'
sg19
S'space'
p489
sg34
g11
sg472
L8L
sg473
VTIMES
p490
sg475
L8L
sS'block.thisIndex'
p491
I6
sg477
g478
sg479
L0L
sg481
VUBUxy
p492
sa(dp493
S'block.thisTrialN'
p494
I2
sS'block.thisRepN'
p495
I0
sg29
g33
sS'block.thisN'
p496
I2
sg464
(S'TIMES'
S'HALF'
S'INCREASE'
S'THIRD'
S'x'
S'y'
tp497
sg27
g28
sg466
L4L
sg467
(I1
I2
I1
I9
tp498
sg22
I1
sg20
F2.4331812974996865
sg23
F6.366335473023355
sVY
L9L
sVX
L3L
sg469
Vincrease
p499
sg35
g36
sg37
g38
sg21
S'9'
sg19
S'space'
p500
sg34
g11
sg472
L9L
sg473
g478
sg475
L9L
sS'block.thisIndex'
p501
I11
sg477
g490
sg479
Vthird
p502
sg481
VBUUUxy
p503
sa(dp504
S'block.thisTrialN'
p505
I3
sS'block.thisRepN'
p506
I0
sg29
g33
sS'block.thisN'
p507
I3
sg464
(S'DIVIDE'
S'DOUBLE'
S'INCREASE'
S'TRIPLE'
S'x'
S'y'
tp508
sg27
g28
sg466
L4L
sg467
(I9
I10
I20
I5
tp509
sg22
I1
sg20
F2.7999136289581656
sg23
F4.599824458360672
sVY
L4L
sVX
L3L
sg469
g499
sg35
g36
sg37
g38
sg21
S'5'
sg19
S'space'
p510
sg34
g11
sg472
L5L
sg473
Vdouble
p511
sg475
L5L
sS'block.thisIndex'
p512
I10
sg477
VDIVIDE
p513
sg479
g480
sg481
g503
sa(dp514
S'block.thisTrialN'
p515
I4
sS'block.thisRepN'
p516
I0
sg29
g33
sS'block.thisN'
p517
I4
sg464
(S'INCREASE'
S'DIVIDE'
S'TRIPLE'
S'x'
S'y'
tp518
sg27
g28
sg466
L3L
sg467
(I6
I2
I3
tp519
sg22
I1
sg20
F1.2500772546045482
sg23
F3.349924985319376
sVY
L3L
sVX
L2L
sg469
g480
sg35
g36
sg37
g38
sg21
S'3'
sg19
S'space'
p520
sg34
g11
sg472
L3L
sg473
g513
sg475
L3L
sS'block.thisIndex'
p521
I7
sg477
g499
sg479
L0L
sg481
g492
sa(dp522
S'block.thisTrialN'
p523
I5
sS'block.thisRepN'
p524
I0
sg29
g33
sS'block.thisN'
p525
I5
sg464
(S'DECREASE'
S'THIRD'
S'DOUBLE'
S'ADD'
S'x'
S'y'
tp526
sg27
g28
sg466
L4L
sg467
(I9
I18
I6
I5
tp527
sg22
I0
sg20
F2.3166375088039786
sg23
F4.8664630346465856
sVY
L4L
sVX
L5L
sg469
g511
sg35
g36
sg37
g38
sg21
S'7'
sg19
S'space'
p528
sg34
g11
sg472
L5L
sg473
g502
sg475
L5L
sS'block.thisIndex'
p529
I16
sg477
g470
sg479
VADD
p530
sg481
VUUUBxy
p531
sa(dp532
S'block.thisTrialN'
p533
I6
sS'block.thisRepN'
p534
I0
sg29
g33
sS'block.thisN'
p535
I6
sg464
(S'TRIPLE'
S'INCREASE'
S'DIVIDE'
S'DOUBLE'
S'x'
S'y'
tp536
sg27
g28
sg466
L4L
sg467
(I16
I2
I3
I9
tp537
sg22
I1
sg20
F3.0665585047099739
sg23
F3.9665455908980221
sVY
L8L
sVX
L8L
sg469
g513
sg35
g36
sg37
g38
sg21
S'9'
sg19
S'space'
p538
sg34
g11
sg472
L9L
sg473
g499
sg475
L9L
sS'block.thisIndex'
p539
I15
sg477
g480
sg479
g511
sg481
VUUBUxy
p540
sa(dp541
S'block.thisTrialN'
p542
I7
sS'block.thisRepN'
p543
I0
sg29
g33
sS'block.thisN'
p544
I7
sg464
(S'TRIPLE'
S'INCREASE'
S'SUBTRACT'
S'x'
S'y'
tp545
sg27
g28
sg466
L3L
sg467
(I1
I2
I6
tp546
sg22
I1
sg20
F4.7164196914527565
sg23
F2.8999538398347795
sVY
L2L
sVX
L3L
sg469
g474
sg35
g36
sg37
g38
sg21
S'6'
sg19
S'space'
p547
sg34
g11
sg472
L6L
sg473
g499
sg475
L6L
sS'block.thisIndex'
p548
I9
sg477
g480
sg479
L0L
sg481
VUUBxy
p549
sa(dp550
S'block.thisTrialN'
p551
I8
sS'block.thisRepN'
p552
I0
sg29
g33
sS'block.thisN'
p553
I8
sg464
(S'INCREASE'
S'TIMES'
S'TRIPLE'
S'HALF'
S'x'
S'y'
tp554
sg27
g28
sg466
L4L
sg467
(I1
I3
I6
I7
tp555
sg22
I1
sg20
F1.6666758824139833
sg23
F4.3829548887442797
sVY
L2L
sVX
L2L
sg469
g480
sg35
g36
sg37
g38
sg21
S'7'
sg19
S'space'
p556
sg34
g11
sg472
L7L
sg473
g490
sg475
L7L
sS'block.thisIndex'
p557
I13
sg477
g499
sg479
g478
sg481
g482
sa(dp558
S'block.thisTrialN'
p559
I9
sS'block.thisRepN'
p560
I0
sg29
g33
sS'block.thisN'
p561
I9
sg464
(S'ADD'
S'HALF'
S'x'
S'y'
tp562
sg27
g28
sg466
L2L
sg467
(I2
I7
tp563
sg22
I1
sg20
F0.75008617853745818
sg23
F1.4000901505351067
sVY
L5L
sVX
L4L
sg469
L0L
sg35
g36
sg37
g38
sg21
S'7'
sg19
S'space'
p564
sg34
g11
sg472
L7L
sg473
g478
sg475
L7L
sS'block.thisIndex'
p565
I0
sg477
g530
sg479
L0L
sg481
VBUxy
p566
sa(dp567
S'block.thisTrialN'
p568
I10
sS'block.thisRepN'
p569
I0
sg29
g33
sS'block.thisN'
p570
I10
sg464
(S'SUBTRACT'
S'INCREASE'
S'HALF'
S'x'
S'y'
tp571
sg27
g28
sg466
L3L
sg467
(I4
I5
I3
tp572
sg22
I1
sg20
F0.85010784119367599
sg23
F4.1998690436594188
sVY
L2L
sVX
L8L
sg469
g478
sg35
g36
sg37
g38
sg21
S'3'
sg19
S'space'
p573
sg34
g11
sg472
L3L
sg473
g499
sg475
L3L
sS'block.thisIndex'
p574
I5
sg477
g474
sg479
L0L
sg481
VBUUxy
p575
sa(dp576
S'block.thisTrialN'
p577
I11
sS'block.thisRepN'
p578
I0
sg29
g33
sS'block.thisN'
p579
I11
sg464
(S'TRIPLE'
S'DOUBLE'
S'SUBTRACT'
S'INCREASE'
S'x'
S'y'
tp580
sg27
g28
sg466
L4L
sg467
(I5
I1
I2
I6
tp581
sg22
I1
sg20
F1.7500147859100252
sg23
F9.1992359599098563
sVY
L4L
sVX
L4L
sg469
g474
sg35
g36
sg37
g38
sg21
S'6'
sg19
S'space'
p582
sg34
g11
sg472
L6L
sg473
g511
sg475
L6L
sS'block.thisIndex'
p583
I14
sg477
g480
sg479
g499
sg481
g540
sa(dp584
S'block.thisTrialN'
p585
I12
sS'block.thisRepN'
p586
I0
sg29
g33
sS'block.thisN'
p587
I12
sg464
(S'THIRD'
S'INCREASE'
S'HALF'
S'TIMES'
S'x'
S'y'
tp588
sg27
g28
sg466
L4L
sg467
(I28
I14
I15
I5
tp589
sg22
I1
sg20
F3.2332209134474397
sg23
F6.9662810184527189
sVY
L4L
sVX
L7L
sg469
g478
sg35
g36
sg37
g38
sg21
S'5'
sg19
S'space'
p590
sg34
g11
sg472
L5L
sg473
g499
sg475
L5L
sS'block.thisIndex'
p591
I17
sg477
g502
sg479
g490
sg481
g531
sa(dp592
S'block.thisTrialN'
p593
I13
sS'block.thisRepN'
p594
I0
sg29
g33
sS'block.thisN'
p595
I13
sg464
(S'INCREASE'
S'DIVIDE'
S'x'
S'y'
tp596
sg27
g28
sg466
L2L
sg467
(I4
I5
tp597
sg22
I1
sg20
F1.050058426335454
sg23
F1.4834164553321898
sVY
L2L
sVX
L8L
sg469
L0L
sg35
g36
sg37
g38
sg21
S'5'
sg19
S'space'
p598
sg34
g11
sg472
L5L
sg473
g513
sg475
L5L
sS'block.thisIndex'
p599
I3
sg477
g499
sg479
L0L
sg481
VUBxy
p600
sa(dp601
S'block.thisTrialN'
p602
I14
sS'block.thisRepN'
p603
I0
sg29
g33
sS'block.thisN'
p604
I14
sg464
(S'SUBTRACT'
S'TRIPLE'
S'x'
S'y'
tp605
sg27
g28
sg466
L2L
sg467
(I12
I9
tp606
sg22
I1
sg20
F0.86675665387883782
sg23
F2.4666560045443475
sVY
L3L
sVX
L4L
sg469
L0L
sg35
g36
sg37
g38
sg21
S'9'
sg19
S'space'
p607
sg34
g11
sg472
L9L
sg473
g480
sg475
L9L
sS'block.thisIndex'
p608
I1
sg477
g474
sg479
L0L
sg481
g566
sa(dp609
S'block.thisTrialN'
p610
I15
sS'block.thisRepN'
p611
I0
sg29
g33
sS'block.thisN'
p612
I15
sg464
(S'DOUBLE'
S'DIVIDE'
S'x'
S'y'
tp613
sg27
g28
sg466
L2L
sg467
(I1
I2
tp614
sg22
I1
sg20
F0.73342196736484766
sg23
F1.6334094037301838
sVY
L8L
sVX
L8L
sg469
L0L
sg35
g36
sg37
g38
sg21
S'2'
sg19
S'space'
p615
sg34
g11
sg472
L2L
sg473
g513
sg475
L2L
sS'block.thisIndex'
p616
I2
sg477
g511
sg479
L0L
sg481
g600
sa(dp617
S'block.thisTrialN'
p618
I16
sS'block.thisRepN'
p619
I0
sg29
g33
sS'block.thisN'
p620
I16
sg464
(S'TRIPLE'
S'HALF'
S'ADD'
S'x'
S'y'
tp621
sg27
g28
sg466
L3L
sg467
(I6
I3
I9
tp622
sg22
I1
sg20
F1.8166747798677534
sg23
F3.2832499428186566
sVY
L3L
sVX
L3L
sg469
g530
sg35
g36
sg37
g38
sg21
S'9'
sg19
S'space'
p623
sg34
g11
sg472
L9L
sg473
g478
sg475
L9L
sS'block.thisIndex'
p624
I8
sg477
g480
sg479
L0L
sg481
g549
sa(dp625
S'block.thisTrialN'
p626
I17
sS'block.thisRepN'
p627
I0
sg29
g33
sS'block.thisN'
p628
I17
sg464
(S'DIVIDE'
S'TRIPLE'
S'DECREASE'
S'x'
S'y'
tp629
sg27
g28
sg466
L3L
sg467
(I6
I18
I9
tp630
sg22
I1
sg20
F2.4167218150105327
sg23
F5.0329798583406955
sVY
L2L
sVX
L7L
sg469
g470
sg35
g36
sg37
g38
sg21
S'9'
sg19
S'space'
p631
sg34
g11
sg472
L9L
sg473
g480
sg475
L9L
sS'block.thisIndex'
p632
I4
sg477
g513
sg479
L0L
sg481
g575
sa(dp633
S'block.thisTrialN'
p634
I0
sS'block.thisRepN'
p635
I0
sg29
g33
sS'block.thisN'
p636
I0
sVRule
p637
(S'DIVIDE'
S'THIRD'
S'x'
S'y'
tp638
sg27
g28
sVLength
p639
L2L
sVIntermediate
p640
(I3
I1
tp641
sg22
I1
sg20
F1.3166987525764853
sg23
F6.0496934144757688
sVY
L3L
sVX
L9L
sVOperatorc
p642
L0L
sg35
g36
sg37
g38
sg21
S'1'
sg19
S'space'
p643
sg34
g11
sVResult
p644
L1L
sVOperatora
p645
Vthird
p646
sVCorrectResponse
p647
L1L
sS'block.thisIndex'
p648
I0
sVOperatorb
p649
VDIVIDE
p650
sVOperatord
p651
L0L
sVStructure
p652
VBUxy
p653
sa(dp654
S'block.thisTrialN'
p655
I1
sS'block.thisRepN'
p656
I0
sg29
g33
sS'block.thisN'
p657
I1
sg637
(S'DOUBLE'
S'DIVIDE'
S'TRIPLE'
S'INCREASE'
S'x'
S'y'
tp658
sg27
g28
sg639
L4L
sg640
(I5
I15
I3
I6
tp659
sg22
I1
sg20
F1.3500425731763244
sg23
F7.3996016015298665
sVY
L5L
sVX
L4L
sg642
Vtriple
p660
sg35
g36
sg37
g38
sg21
S'6'
sg19
S'space'
p661
sg34
g11
sg644
L6L
sg645
g650
sg647
L6L
sS'block.thisIndex'
p662
I12
sg649
Vdouble
p663
sg651
Vincrease
p664
sg652
VUBUUxy
p665
sa(dp666
S'block.thisTrialN'
p667
I2
sS'block.thisRepN'
p668
I0
sg29
g33
sS'block.thisN'
p669
I2
sg637
(S'DOUBLE'
S'DECREASE'
S'ADD'
S'x'
S'y'
tp670
sg27
g28
sg639
L3L
sg640
(I4
I3
I6
tp671
sg22
I1
sg20
F1.1165392391849309
sg23
F4.8831202464643866
sVY
L2L
sVX
L2L
sg642
VADD
p672
sg35
g36
sg37
g38
sg21
S'6'
sg19
S'space'
p673
sg34
g11
sg644
L6L
sg645
Vdecrease
p674
sg647
L6L
sS'block.thisIndex'
p675
I8
sg649
g663
sg651
L0L
sg652
VUUBxy
p676
sa(dp677
S'block.thisTrialN'
p678
I3
sS'block.thisRepN'
p679
I0
sg29
g33
sS'block.thisN'
p680
I3
sg637
(S'SUBTRACT'
S'DOUBLE'
S'TRIPLE'
S'DECREASE'
S'x'
S'y'
tp681
sg27
g28
sg639
L4L
sg640
(I2
I6
I12
I8
tp682
sg22
I0
sg20
F2.3833010024391115
sg23
F13.965700429165736
sVY
L4L
sVX
L3L
sg642
g660
sg35
g36
sg37
g38
sg21
S'2'
sg19
S'space'
p683
sg34
g11
sg644
L8L
sg645
g663
sg647
L8L
sS'block.thisIndex'
p684
I10
sg649
VSUBTRACT
p685
sg651
g674
sg652
VBUUUxy
p686
sa(dp687
S'block.thisTrialN'
p688
I4
sS'block.thisRepN'
p689
I0
sg29
g33
sS'block.thisN'
p690
I4
sg637
(S'TIMES'
S'DOUBLE'
S'x'
S'y'
tp691
sg27
g28
sg639
L2L
sg640
(I4
I8
tp692
sg22
I1
sg20
F1.0833896482363343
sg23
F4.2165451536420733
sVY
L2L
sVX
L2L
sg642
L0L
sg35
g36
sg37
g38
sg21
S'8'
sg19
S'space'
p693
sg34
g11
sg644
L8L
sg645
g663
sg647
L8L
sS'block.thisIndex'
p694
I1
sg649
VTIMES
p695
sg651
L0L
sg652
g653
sa(dp696
S'block.thisTrialN'
p697
I5
sS'block.thisRepN'
p698
I0
sg29
g33
sS'block.thisN'
p699
I5
sg637
(S'DECREASE'
S'TRIPLE'
S'DIVIDE'
S'DOUBLE'
S'x'
S'y'
tp700
sg27
g28
sg639
L4L
sg640
(I6
I2
I6
I5
tp701
sg22
I1
sg20
F2.01661311625503
sg23
F12.232308908598498
sVY
L3L
sVX
L3L
sg642
g650
sg35
g36
sg37
g38
sg21
S'5'
sg19
S'space'
p702
sg34
g11
sg644
L5L
sg645
g660
sg647
L5L
sS'block.thisIndex'
p703
I14
sg649
g674
sg651
g663
sg652
VUUBUxy
p704
sa(dp705
S'block.thisTrialN'
p706
I6
sS'block.thisRepN'
p707
I0
sg29
g33
sS'block.thisN'
p708
I6
sg637
(S'INCREASE'
S'ADD'
S'HALF'
S'TRIPLE'
S'x'
S'y'
tp709
sg27
g28
sg639
L4L
sg640
(I6
I3
I6
I7
tp710
sg22
I0
sg20
F1.8500000524800271
sVY
L3L
sVX
L2L
sg642
Vhalf
p711
sg35
g36
sg37
g38
sg21
Nsg19
S'space'
p712
sg34
g11
sg644
L7L
sg645
g672
sg647
L7L
sS'block.thisIndex'
p713
I13
sg649
g664
sg651
g660
sg652
g665
sa(dp714
S'block.thisTrialN'
p715
I7
sS'block.thisRepN'
p716
I0
sg29
g33
sS'block.thisN'
p717
I7
sg637
(S'TIMES'
S'HALF'
S'INCREASE'
S'x'
S'y'
tp718
sg27
g28
sg639
L3L
sg640
(I6
I3
I9
tp719
sg22
I1
sg20
F1.6833498924970627
sg23
F3.2166018476709723
sVY
L3L
sVX
L5L
sg642
g664
sg35
g36
sg37
g38
sg21
S'9'
sg19
S'space'
p720
sg34
g11
sg644
L9L
sg645
g711
sg647
L9L
sS'block.thisIndex'
p721
I5
sg649
g695
sg651
L0L
sg652
VBUUxy
p722
sa(dp723
S'block.thisTrialN'
p724
I8
sS'block.thisRepN'
p725
I0
sg29
g33
sS'block.thisN'
p726
I8
sg637
(S'SUBTRACT'
S'TRIPLE'
S'DECREASE'
S'x'
S'y'
tp727
sg27
g28
sg639
L3L
sg640
(I4
I12
I3
tp728
sg22
I1
sg20
F1.4000380060169846
sg23
F3.7165558272972703
sVY
L9L
sVX
L5L
sg642
g674
sg35
g36
sg37
g38
sg21
S'3'
sg19
S'space'
p729
sg34
g11
sg644
L3L
sg645
g660
sg647
L3L
sS'block.thisIndex'
p730
I4
sg649
g685
sg651
L0L
sg652
g722
sa(dp731
S'block.thisTrialN'
p732
I9
sS'block.thisRepN'
p733
I0
sg29
g33
sS'block.thisN'
p734
I9
sg637
(S'INCREASE'
S'SUBTRACT'
S'x'
S'y'
tp735
sg27
g28
sg639
L2L
sg640
(I3
I4
tp736
sg22
I1
sg20
F1.0834025971125811
sg23
F3.76655825949274
sVY
L3L
sVX
L6L
sg642
L0L
sg35
g36
sg37
g38
sg21
S'4'
sg19
S'space'
p737
sg34
g11
sg644
L4L
sg645
g685
sg647
L4L
sS'block.thisIndex'
p738
I2
sg649
g664
sg651
L0L
sg652
VUBxy
p739
sa(dp740
S'block.thisTrialN'
p741
I10
sS'block.thisRepN'
p742
I0
sg29
g33
sS'block.thisN'
p743
I10
sg637
(S'THIRD'
S'DIVIDE'
S'DECREASE'
S'x'
S'y'
tp744
sg27
g28
sg639
L3L
sg640
(I6
I3
I1
tp745
sg22
I1
sg20
F1.4000275072176009
sg23
F2.2167953774333
sVY
L2L
sVX
L7L
sg642
g674
sg35
g36
sg37
g38
sg21
S'1'
sg19
S'space'
p746
sg34
g11
sg644
L1L
sg645
g650
sg647
L1L
sS'block.thisIndex'
p747
I6
sg649
g646
sg651
L0L
sg652
VUBUxy
p748
sa(dp749
S'block.thisTrialN'
p750
I11
sS'block.thisRepN'
p751
I0
sg29
g33
sS'block.thisN'
p752
I11
sg637
(S'THIRD'
S'TIMES'
S'HALF'
S'x'
S'y'
tp753
sg27
g28
sg639
L3L
sg640
(I3
I18
I6
tp754
sg22
I1
sg20
F1.8500861437059939
sg23
F3.0166078668553382
sVY
L6L
sVX
L6L
sg642
g711
sg35
g36
sg37
g38
sg21
S'6'
sg19
S'space'
p755
sg34
g11
sg644
L6L
sg645
g695
sg647
L6L
sS'block.thisIndex'
p756
I7
sg649
g646
sg651
L0L
sg652
g748
sa(dp757
S'block.thisTrialN'
p758
I12
sS'block.thisRepN'
p759
I0
sg29
g33
sS'block.thisN'
p760
I12
sg637
(S'THIRD'
S'DIVIDE'
S'x'
S'y'
tp761
sg27
g28
sg639
L2L
sg640
(I3
I1
tp762
sg22
I1
sg20
F0.80007986188866198
sg23
F2.7833071618806571
sVY
L2L
sVX
L6L
sg642
L0L
sg35
g36
sg37
g38
sg21
S'1'
sg19
S'space'
p763
sg34
g11
sg644
L1L
sg645
g650
sg647
L1L
sS'block.thisIndex'
p764
I3
sg649
g646
sg651
L0L
sg652
g739
sa(dp765
S'block.thisTrialN'
p766
I13
sS'block.thisRepN'
p767
I0
sg29
g33
sS'block.thisN'
p768
I13
sg637
(S'SUBTRACT'
S'TRIPLE'
S'DECREASE'
S'DOUBLE'
S'x'
S'y'
tp769
sg27
g28
sg639
L4L
sg640
(I4
I3
I9
I1
tp770
sg22
I1
sg20
F2.366621743189171
sg23
F5.1997710538562387
sVY
L8L
sVX
L2L
sg642
g674
sg35
g36
sg37
g38
sg21
S'1'
sg19
S'space'
p771
sg34
g11
sg644
L1L
sg645
g660
sg647
L1L
sS'block.thisIndex'
p772
I11
sg649
g685
sg651
g663
sg652
g686
sa(dp773
S'block.thisTrialN'
p774
I14
sS'block.thisRepN'
p775
I0
sg29
g33
sS'block.thisN'
p776
I14
sg637
(S'HALF'
S'TRIPLE'
S'INCREASE'
S'SUBTRACT'
S'x'
S'y'
tp777
sg27
g28
sg639
L4L
sg640
(I1
I2
I6
I3
tp778
sg22
I1
sg20
F2.7665985054336488
sg23
F5.5330682243220508
sVY
L2L
sVX
L3L
sg642
g664
sg35
g36
sg37
g38
sg21
S'3'
sg19
S'space'
p779
sg34
g11
sg644
L3L
sg645
g660
sg647
L3L
sS'block.thisIndex'
p780
I17
sg649
g711
sg651
g685
sg652
VUUUBxy
p781
sa(dp782
S'block.thisTrialN'
p783
I15
sS'block.thisRepN'
p784
I0
sg29
g33
sS'block.thisN'
p785
I15
sg637
(S'DOUBLE'
S'THIRD'
S'TIMES'
S'x'
S'y'
tp786
sg27
g28
sg639
L3L
sg640
(I12
I4
I8
tp787
sg22
I1
sg20
F1.8666768621187657
sg23
F3.8665344272740185
sVY
L6L
sVX
L2L
sg642
g695
sg35
g36
sg37
g38
sg21
S'8'
sg19
S'space'
p788
sg34
g11
sg644
L8L
sg645
g646
sg647
L8L
sS'block.thisIndex'
p789
I9
sg649
g663
sg651
L0L
sg652
g676
sa(dp790
S'block.thisTrialN'
p791
I16
sS'block.thisRepN'
p792
I0
sg29
g33
sS'block.thisN'
p793
I16
sg637
(S'THIRD'
S'DECREASE'
S'TIMES'
S'HALF'
S'x'
S'y'
tp794
sg27
g28
sg639
L4L
sg640
(I4
I16
I15
I5
tp795
sg22
I1
sg20
F2.5832743351347744
sg23
F6.2830004189163446
sVY
L4L
sVX
L8L
sg642
g695
sg35
g36
sg37
g38
sg21
S'5'
sg19
S'space'
p796
sg34
g11
sg644
L5L
sg645
g674
sg647
L5L
sS'block.thisIndex'
p797
I15
sg649
g646
sg651
g711
sg652
g704
sa(dp798
S'block.thisTrialN'
p799
I17
sS'block.thisRepN'
p800
I0
sg29
g33
sS'block.thisN'
p801
I17
sg637
(S'DECREASE'
S'TRIPLE'
S'HALF'
S'SUBTRACT'
S'x'
S'y'
tp802
sg27
g28
sg639
L4L
sg640
(I4
I2
I6
I5
tp803
sg22
I1
sg20
F2.399951565079391
sg23
F10.19933324935846
sVY
L2L
sVX
L6L
sg642
g711
sg35
g36
sg37
g38
sg21
S'5'
sg19
S'space'
p804
sg34
g11
sg644
L5L
sg645
g660
sg647
L5L
sS'block.thisIndex'
p805
I16
sg649
g674
sg651
g685
sg652
g781
sa(dp806
S'block.thisTrialN'
p807
I0
sS'block.thisRepN'
p808
I0
sg29
g33
sS'block.thisN'
p809
I0
sVRule
p810
(S'ADD'
S'THIRD'
S'INCREASE'
S'HALF'
S'x'
S'y'
tp811
sg27
g28
sVLength
p812
L4L
sVIntermediate
p813
(I2
I3
I1
I7
tp814
sg22
I1
sg20
F2.2333063043188304
sg23
F4.1998613444156945
sVY
L6L
sVX
L4L
sVOperatorc
p815
Vincrease
p816
sg35
g36
sg37
g38
sg21
S'7'
sg19
S'space'
p817
sg34
g11
sVResult
p818
L7L
sVOperatora
p819
Vthird
p820
sVCorrectResponse
p821
L7L
sS'block.thisIndex'
p822
I10
sVOperatorb
p823
VADD
p824
sVOperatord
p825
Vhalf
p826
sVStructure
p827
VBUUUxy
p828
sa(dp829
S'block.thisTrialN'
p830
I1
sS'block.thisRepN'
p831
I0
sg29
g33
sS'block.thisN'
p832
I1
sg810
(S'SUBTRACT'
S'HALF'
S'TRIPLE'
S'x'
S'y'
tp833
sg27
g28
sg812
L3L
sg813
(I12
I6
I2
tp834
sg22
I1
sg20
F1.2167418331373483
sg23
F5.0164083878044039
sVY
L4L
sVX
L4L
sg815
Vtriple
p835
sg35
g36
sg37
g38
sg21
S'2'
sg19
S'space'
p836
sg34
g11
sg818
L2L
sg819
g826
sg821
L2L
sS'block.thisIndex'
p837
I5
sg823
VSUBTRACT
p838
sg825
L0L
sg827
VBUUxy
p839
sa(dp840
S'block.thisTrialN'
p841
I2
sS'block.thisRepN'
p842
I0
sg29
g33
sS'block.thisN'
p843
I2
sg810
(S'DOUBLE'
S'SUBTRACT'
S'x'
S'y'
tp844
sg27
g28
sg812
L2L
sg813
(I1
I2
tp845
sg22
I1
sg20
F0.85009944229386747
sg23
F2.6499913732986897
sVY
L7L
sVX
L8L
sg815
L0L
sg35
g36
sg37
g38
sg21
S'2'
sg19
S'space'
p846
sg34
g11
sg818
L2L
sg819
g838
sg821
L2L
sS'block.thisIndex'
p847
I2
sg823
Vdouble
p848
sg825
L0L
sg827
VUBxy
p849
sa(dp850
S'block.thisTrialN'
p851
I3
sS'block.thisRepN'
p852
I0
sg29
g33
sS'block.thisN'
p853
I3
sg810
(S'ADD'
S'DOUBLE'
S'x'
S'y'
tp854
sg27
g28
sg812
L2L
sg813
(I4
I8
tp855
sg22
I1
sg20
F1.0334169629495591
sg23
F1.9164801652077585
sVY
L4L
sVX
L2L
sg815
L0L
sg35
g36
sg37
g38
sg21
S'8'
sg19
S'space'
p856
sg34
g11
sg818
L8L
sg819
g848
sg821
L8L
sS'block.thisIndex'
p857
I0
sg823
g824
sg825
L0L
sg827
VBUxy
p858
sa(dp859
S'block.thisTrialN'
p860
I4
sS'block.thisRepN'
p861
I0
sg29
g33
sS'block.thisN'
p862
I4
sg810
(S'DECREASE'
S'HALF'
S'TRIPLE'
S'DIVIDE'
S'x'
S'y'
tp863
sg27
g28
sg812
L4L
sg813
(I4
I12
I6
I5
tp864
sg22
I1
sg20
F3.3832233105786145
sg23
F5.8663569956552237
sVY
L2L
sVX
L8L
sg815
g835
sg35
g36
sg37
g38
sg21
S'5'
sg19
S'space'
p865
sg34
g11
sg818
L5L
sg819
g826
sg821
L5L
sS'block.thisIndex'
p866
I16
sg823
Vdecrease
p867
sg825
VDIVIDE
p868
sg827
VUUUBxy
p869
sa(dp870
S'block.thisTrialN'
p871
I5
sS'block.thisRepN'
p872
I0
sg29
g33
sS'block.thisN'
p873
I5
sg810
(S'INCREASE'
S'DIVIDE'
S'THIRD'
S'x'
S'y'
tp874
sg27
g28
sg812
L3L
sg813
(I3
I1
I2
tp875
sg22
I1
sg20
F1.1833910131826997
sg23
F3.7498688513878733
sVY
L3L
sVX
L9L
sg815
g820
sg35
g36
sg37
g38
sg21
S'2'
sg19
S'space'
p876
sg34
g11
sg818
L2L
sg819
g868
sg821
L2L
sS'block.thisIndex'
p877
I7
sg823
g816
sg825
L0L
sg827
VUBUxy
p878
sa(dp879
S'block.thisTrialN'
p880
I6
sS'block.thisRepN'
p881
I0
sg29
g33
sS'block.thisN'
p882
I6
sg810
(S'DECREASE'
S'TIMES'
S'DOUBLE'
S'THIRD'
S'x'
S'y'
tp883
sg27
g28
sg812
L4L
sg813
(I1
I2
I8
I7
tp884
sg22
I1
sg20
F3.1165682862047106
sg23
F7.7661995470989496
sVY
L4L
sVX
L3L
sg815
g848
sg35
g36
sg37
g38
sg21
S'7'
sg19
S'space'
p885
sg34
g11
sg818
L7L
sg819
VTIMES
p886
sg821
L7L
sS'block.thisIndex'
p887
I13
sg823
g867
sg825
g820
sg827
VUBUUxy
p888
sa(dp889
S'block.thisTrialN'
p890
I7
sS'block.thisRepN'
p891
I0
sg29
g33
sS'block.thisN'
p892
I7
sg810
(S'DIVIDE'
S'DOUBLE'
S'x'
S'y'
tp893
sg27
g28
sg812
L2L
sg813
(I12
I2
tp894
sg22
I1
sg20
F1.3500551718752831
sg23
F1.4167298641987145
sVY
L6L
sVX
L6L
sg815
L0L
sg35
g36
sg37
g38
sg21
S'2'
sg19
S'space'
p895
sg34
g11
sg818
L2L
sg819
g848
sg821
L2L
sS'block.thisIndex'
p896
I1
sg823
g868
sg825
L0L
sg827
g858
sa(dp897
S'block.thisTrialN'
p898
I8
sS'block.thisRepN'
p899
I0
sg29
g33
sS'block.thisN'
p900
I8
sg810
(S'DECREASE'
S'ADD'
S'DOUBLE'
S'THIRD'
S'x'
S'y'
tp901
sg27
g28
sg812
L4L
sg813
(I3
I6
I10
I9
tp902
sg22
I1
sg20
F2.1333017898723483
sg23
F3.5165632464922965
sVY
L4L
sVX
L9L
sg815
g848
sg35
g36
sg37
g38
sg21
S'9'
sg19
S'space'
p903
sg34
g11
sg818
L9L
sg819
g824
sg821
L9L
sS'block.thisIndex'
p904
I12
sg823
Vdecrease 
p905
sg825
g820
sg827
g888
sa(dp906
S'block.thisTrialN'
p907
I9
sS'block.thisRepN'
p908
I0
sg29
g33
sS'block.thisN'
p909
I9
sg810
(S'DIVIDE'
S'INCREASE'
S'DOUBLE'
S'THIRD'
S'x'
S'y'
tp910
sg27
g28
sg812
L4L
sg813
(I2
I4
I5
I1
tp911
sg22
I1
sg20
F3.0665935010183603
sg23
F5.1495666927658021
sVY
L5L
sVX
L6L
sg815
g848
sg35
g36
sg37
g38
sg21
S'1'
sg19
S'space'
p912
sg34
g11
sg818
L1L
sg819
g816
sg821
L1L
sS'block.thisIndex'
p913
I11
sg823
g868
sg825
g820
sg827
g828
sa(dp914
S'block.thisTrialN'
p915
I10
sS'block.thisRepN'
p916
I0
sg29
g33
sS'block.thisN'
p917
I10
sg810
(S'DOUBLE'
S'TRIPLE'
S'SUBTRACT'
S'x'
S'y'
tp918
sg27
g28
sg812
L3L
sg813
(I1
I3
I6
tp919
sg22
I1
sg20
F2.5166048922110349
sg23
F6.083025686442852
sVY
L3L
sVX
L4L
sg815
g838
sg35
g36
sg37
g38
sg21
S'6'
sg19
S'space'
p920
sg34
g11
sg818
L6L
sg819
g835
sg821
L6L
sS'block.thisIndex'
p921
I9
sg823
g848
sg825
L0L
sg827
VUUBxy
p922
sa(dp923
S'block.thisTrialN'
p924
I11
sS'block.thisRepN'
p925
I0
sg29
g33
sS'block.thisN'
p926
I11
sg810
(S'DOUBLE'
S'DECREASE'
S'SUBTRACT'
S'x'
S'y'
tp927
sg27
g28
sg812
L3L
sg813
(I5
I4
I8
tp928
sg22
I1
sg20
F3.049898493103683
sg23
F5.5330731237772852
sVY
L2L
sVX
L7L
sg815
g838
sg35
g36
sg37
g38
sg21
S'8'
sg19
S'space'
p929
sg34
g11
sg818
L8L
sg819
g867
sg821
L8L
sS'block.thisIndex'
p930
I8
sg823
g848
sg825
L0L
sg827
g922
sa(dp931
S'block.thisTrialN'
p932
I12
sS'block.thisRepN'
p933
I0
sg29
g33
sS'block.thisN'
p934
I12
sg810
(S'DOUBLE'
S'TRIPLE'
S'DIVIDE'
S'DECREASE'
S'x'
S'y'
tp935
sg27
g28
sg812
L4L
sg813
(I8
I1
I3
I6
tp936
sg22
I1
sg20
F1.5499994575511664
sg23
F3.7665568597149104
sVY
L8L
sVX
L9L
sg815
g868
sg35
g36
sg37
g38
sg21
S'6'
sg19
S'space'
p937
sg34
g11
sg818
L6L
sg819
g835
sg821
L6L
sS'block.thisIndex'
p938
I15
sg823
g848
sg825
g867
sg827
VUUBUxy
p939
sa(dp940
S'block.thisTrialN'
p941
I13
sS'block.thisRepN'
p942
I0
sg29
g33
sS'block.thisN'
p943
I13
sg810
(S'DOUBLE'
S'DECREASE'
S'TRIPLE'
S'DIVIDE'
S'x'
S'y'
tp944
sg27
g28
sg812
L4L
sg813
(I1
I3
I2
I4
tp945
sg22
I1
sg20
F4.4164719411637634
sg23
F4.4664901217911392
sVY
L4L
sVX
L4L
sg815
g835
sg35
g36
sg37
g38
sg21
S'4'
sg19
S'space'
p946
sg34
g11
sg818
L4L
sg819
g867
sg821
L4L
sS'block.thisIndex'
p947
I17
sg823
g848
sg825
g868
sg827
g869
sa(dp948
S'block.thisTrialN'
p949
I14
sS'block.thisRepN'
p950
I0
sg29
g33
sS'block.thisN'
p951
I14
sg810
(S'DIVIDE'
S'DOUBLE'
S'THIRD'
S'x'
S'y'
tp952
sg27
g28
sg812
L3L
sg813
(I2
I4
I1
tp953
sg22
I1
sg20
F1.400033806450665
sg23
F3.6332802672404796
sVY
L4L
sVX
L6L
sg815
g820
sg35
g36
sg37
g38
sg21
S'1'
sg19
S'space'
p954
sg34
g11
sg818
L1L
sg819
g848
sg821
L1L
sS'block.thisIndex'
p955
I4
sg823
g868
sg825
L0L
sg827
g839
sa(dp956
S'block.thisTrialN'
p957
I15
sS'block.thisRepN'
p958
I0
sg29
g33
sS'block.thisN'
p959
I15
sg810
(S'HALF'
S'TIMES'
S'x'
S'y'
tp960
sg27
g28
sg812
L2L
sg813
(I16
I8
tp961
sg22
I1
sg20
F2.5499308647122234
sg23
F2.2666655234061182
sVY
L4L
sVX
L4L
sg815
L0L
sg35
g36
sg37
g38
sg21
S'8'
sg19
S'space'
p962
sg34
g11
sg818
L8L
sg819
g886
sg821
L8L
sS'block.thisIndex'
p963
I3
sg823
g826
sg825
L0L
sg827
g849
sa(dp964
S'block.thisTrialN'
p965
I16
sS'block.thisRepN'
p966
I0
sg29
g33
sS'block.thisN'
p967
I16
sg810
(S'DECREASE'
S'THIRD'
S'TIMES'
S'HALF'
S'x'
S'y'
tp968
sg27
g28
sg812
L4L
sg813
(I2
I12
I4
I3
tp969
sg22
I1
sg20
F3.499871738255024
sg23
F5.916270537301898
sVY
L6L
sVX
L4L
sg815
g886
sg35
g36
sg37
g38
sg21
S'3'
sg19
S'space'
p970
sg34
g11
sg818
L3L
sg819
g820
sg821
L3L
sS'block.thisIndex'
p971
I14
sg823
g867
sg825
g826
sg827
g939
sa(dp972
S'block.thisTrialN'
p973
I17
sS'block.thisRepN'
p974
I0
sg29
g33
sS'block.thisN'
p975
I17
sg810
(S'HALF'
S'SUBTRACT'
S'TRIPLE'
S'x'
S'y'
tp976
sg27
g28
sg812
L3L
sg813
(I9
I2
I1
tp977
sg22
I1
sg20
F0.95002311514690518
sg23
F3.1165311899967492
sVY
L7L
sVX
L3L
sg815
g835
sg35
g36
sg37
g38
sg21
S'1'
sg19
S'space'
p978
sg34
g11
sg818
L1L
sg819
g838
sg821
L1L
sS'block.thisIndex'
p979
I6
sg823
g826
sg825
L0L
sg827
g878
sa(dp980
S'block.thisTrialN'
p981
I0
sS'block.thisRepN'
p982
I0
sg29
g33
sS'block.thisN'
p983
I0
sVRule
p984
(S'THIRD'
S'ADD'
S'INCREASE'
S'x'
S'y'
tp985
sg27
g28
sVLength
p986
L3L
sVIntermediate
p987
(I8
I15
I5
tp988
sg22
I1
sg20
F1.3830689769238234
sg23
F5.083141524111852
sVY
L7L
sVX
L7L
sVOperatorc
p989
Vincrease
p990
sg35
g36
sg37
g38
sg21
S'5'
sg19
S'space'
p991
sg34
g11
sVResult
p992
L5L
sVOperatora
p993
VADD
p994
sVCorrectResponse
p995
L5L
sS'block.thisIndex'
p996
I6
sVOperatorb
p997
Vthird
p998
sVOperatord
p999
L0L
sVStructure
p1000
VUBUxy
p1001
sa(dp1002
S'block.thisTrialN'
p1003
I1
sS'block.thisRepN'
p1004
I0
sg29
g33
sS'block.thisN'
p1005
I1
sg984
(S'THIRD'
S'SUBTRACT'
S'x'
S'y'
tp1006
sg27
g28
sg986
L2L
sg987
(I3
I1
tp1007
sg22
I1
sg20
F1.49978669709526
sg23
F3.6999619589187205
sVY
L2L
sVX
L5L
sg989
L0L
sg35
g36
sg37
g38
sg21
S'1'
sg19
S'space'
p1008
sg34
g11
sg992
L1L
sg993
VSUBTRACT
p1009
sg995
L1L
sS'block.thisIndex'
p1010
I3
sg997
g998
sg999
L0L
sg1000
VUBxy
p1011
sa(dp1012
S'block.thisTrialN'
p1013
I2
sS'block.thisRepN'
p1014
I0
sg29
g33
sS'block.thisN'
p1015
I2
sg984
(S'TRIPLE'
S'DECREASE'
S'HALF'
S'TIMES'
S'x'
S'y'
tp1016
sg27
g28
sg986
L4L
sg987
(I6
I3
I2
I6
tp1017
sg22
I1
sg20
F2.2998406616970897
sg23
F6.3162696971558034
sVY
L2L
sVX
L3L
sg989
Vhalf
p1018
sg35
g36
sg37
g38
sg21
S'6'
sg19
S'space'
p1019
sg34
g11
sg992
L6L
sg993
Vdecrease
p1020
sg995
L6L
sS'block.thisIndex'
p1021
I17
sg997
Vtriple
p1022
sg999
VTIMES
p1023
sg1000
VUUUBxy
p1024
sa(dp1025
S'block.thisTrialN'
p1026
I3
sS'block.thisRepN'
p1027
I0
sg29
g33
sS'block.thisN'
p1028
I3
sg984
(S'TIMES'
S'DECREASE'
S'x'
S'y'
tp1029
sg27
g28
sg986
L2L
sg987
(I2
I4
tp1030
sg22
I1
sg20
F1.0167492520995438
sg23
F1.7499941380228847
sVY
L2L
sVX
L3L
sg989
L0L
sg35
g36
sg37
g38
sg21
S'4'
sg19
S'space'
p1031
sg34
g11
sg992
L4L
sg993
g1020
sg995
L4L
sS'block.thisIndex'
p1032
I0
sg997
g1023
sg999
L0L
sg1000
VBUxy
p1033
sa(dp1034
S'block.thisTrialN'
p1035
I4
sS'block.thisRepN'
p1036
I0
sg29
g33
sS'block.thisN'
p1037
I4
sg984
(S'TRIPLE'
S'HALF'
S'ADD'
S'DECREASE'
S'x'
S'y'
tp1038
sg27
g28
sg986
L4L
sg987
(I1
I4
I2
I6
tp1039
sg22
I1
sg20
F2.1831271406263113
sg23
F5.2164979085791856
sVY
L3L
sVX
L2L
sg989
g994
sg35
g36
sg37
g38
sg21
S'6'
sg19
S'space'
p1040
sg34
g11
sg992
L6L
sg993
g1018
sg995
L6L
sS'block.thisIndex'
p1041
I15
sg997
g1022
sg999
g1020
sg1000
VUUBUxy
p1042
sa(dp1043
S'block.thisTrialN'
p1044
I5
sS'block.thisRepN'
p1045
I0
sg29
g33
sS'block.thisN'
p1046
I5
sg984
(S'INCREASE'
S'DIVIDE'
S'TRIPLE'
S'DOUBLE'
S'x'
S'y'
tp1047
sg27
g28
sg986
L4L
sg987
(I6
I18
I3
I4
tp1048
sg22
I1
sg20
F2.7332473355345428
sg23
F6.9495909102261066
sVY
L6L
sVX
L3L
sg989
g1022
sg35
g36
sg37
g38
sg21
S'4'
sg19
S'space'
p1049
sg34
g11
sg992
L4L
sg993
VDIVIDE
p1050
sg995
L4L
sS'block.thisIndex'
p1051
I12
sg997
g990
sg999
Vdouble
p1052
sg1000
VUBUUxy
p1053
sa(dp1054
S'block.thisTrialN'
p1055
I6
sS'block.thisRepN'
p1056
I0
sg29
g33
sS'block.thisN'
p1057
I6
sg984
(S'TIMES'
S'INCREASE'
S'THIRD'
S'DOUBLE'
S'x'
S'y'
tp1058
sg27
g28
sg986
L4L
sg987
(I6
I2
I3
I9
tp1059
sg22
I1
sg20
F3.7165110320784152
sg23
F5.0664304178208113
sVY
L3L
sVX
L3L
sg989
g998
sg35
g36
sg37
g38
sg21
S'9'
sg19
S'space'
p1060
sg34
g11
sg992
L9L
sg993
g990
sg995
L9L
sS'block.thisIndex'
p1061
I11
sg997
g1023
sg999
g1052
sg1000
VBUUUxy
p1062
sa(dp1063
S'block.thisTrialN'
p1064
I7
sS'block.thisRepN'
p1065
I0
sg29
g33
sS'block.thisN'
p1066
I7
sg984
(S'THIRD'
S'TIMES'
S'DECREASE'
S'x'
S'y'
tp1067
sg27
g28
sg986
L3L
sg987
(I3
I15
I5
tp1068
sg22
I1
sg20
F1.216726784594357
sg23
F2.5333194981794804
sVY
L5L
sVX
L4L
sg989
g1020
sg35
g36
sg37
g38
sg21
S'5'
sg19
S'space'
p1069
sg34
g11
sg992
L5L
sg993
g1023
sg995
L5L
sS'block.thisIndex'
p1070
I7
sg997
g998
sg999
L0L
sg1000
g1001
sa(dp1071
S'block.thisTrialN'
p1072
I8
sS'block.thisRepN'
p1073
I0
sg29
g33
sS'block.thisN'
p1074
I8
sg984
(S'TRIPLE'
S'SUBTRACT'
S'DOUBLE'
S'DECREASE'
S'x'
S'y'
tp1075
sg27
g28
sg986
L4L
sg987
(I2
I4
I1
I3
tp1076
sg22
I1
sg20
F2.6499416783917695
sg23
F12.632465902017429
sVY
L3L
sVX
L3L
sg989
g1052
sg35
g36
sg37
g38
sg21
S'3'
sg19
S'space'
p1077
sg34
g11
sg992
L3L
sg993
g1009
sg995
L3L
sS'block.thisIndex'
p1078
I13
sg997
g1022
sg999
g1020
sg1000
g1053
sa(dp1079
S'block.thisTrialN'
p1080
I9
sS'block.thisRepN'
p1081
I0
sg29
g33
sS'block.thisN'
p1082
I9
sg984
(S'TRIPLE'
S'HALF'
S'DIVIDE'
S'x'
S'y'
tp1083
sg27
g28
sg986
L3L
sg987
(I2
I1
I3
tp1084
sg22
I1
sg20
F1.2667201177682728
sg23
F2.6334122035186738
sVY
L2L
sVX
L4L
sg989
g1050
sg35
g36
sg37
g38
sg21
S'3'
sg19
S'space'
p1085
sg34
g11
sg992
L3L
sg993
g1018
sg995
L3L
sS'block.thisIndex'
p1086
I9
sg997
g1022
sg999
L0L
sg1000
VUUBxy
p1087
sa(dp1088
S'block.thisTrialN'
p1089
I10
sS'block.thisRepN'
p1090
I0
sg29
g33
sS'block.thisN'
p1091
I10
sg984
(S'TIMES'
S'THIRD'
S'HALF'
S'x'
S'y'
tp1092
sg27
g28
sg986
L3L
sg987
(I3
I1
I5
tp1093
sg22
I1
sg20
F1.6666751825250685
sg23
F3.9665945859160274
sVY
L5L
sVX
L6L
sg989
g1018
sg35
g36
sg37
g38
sg21
S'5'
sg19
S'space'
p1094
sg34
g11
sg992
L5L
sg993
g998
sg995
L5L
sS'block.thisIndex'
p1095
I5
sg997
g1023
sg999
L0L
sg1000
VBUUxy
p1096
sa(dp1097
S'block.thisTrialN'
p1098
I11
sS'block.thisRepN'
p1099
I0
sg29
g33
sS'block.thisN'
p1100
I11
sg984
(S'TIMES'
S'INCREASE'
S'x'
S'y'
tp1101
sg27
g28
sg986
L2L
sg987
(I3
I6
tp1102
sg22
I1
sg20
F0.88332007545977831
sg23
F2.4000128086190671
sVY
L2L
sVX
L2L
sg989
L0L
sg35
g36
sg37
g38
sg21
S'6'
sg19
S'space'
p1103
sg34
g11
sg992
L6L
sg993
g990
sg995
L6L
sS'block.thisIndex'
p1104
I1
sg997
g1023
sg999
L0L
sg1000
g1033
sa(dp1105
S'block.thisTrialN'
p1106
I12
sS'block.thisRepN'
p1107
I0
sg29
g33
sS'block.thisN'
p1108
I12
sg984
(S'TIMES'
S'DECREASE'
S'HALF'
S'x'
S'y'
tp1109
sg27
g28
sg986
L3L
sg987
(I4
I3
I9
tp1110
sg22
I1
sg20
F0.96675556898117065
sg23
F4.2997906168457121
sVY
L3L
sVX
L8L
sg989
g1018
sg35
g36
sg37
g38
sg21
S'9'
sg19
S'space'
p1111
sg34
g11
sg992
L9L
sg993
g1020
sg995
L9L
sS'block.thisIndex'
p1112
I4
sg997
g1023
sg999
L0L
sg1000
g1096
sa(dp1113
S'block.thisTrialN'
p1114
I13
sS'block.thisRepN'
p1115
I0
sg29
g33
sS'block.thisN'
p1116
I13
sg984
(S'SUBTRACT'
S'HALF'
S'INCREASE'
S'TRIPLE'
S'x'
S'y'
tp1117
sg27
g28
sg986
L4L
sg987
(I15
I16
I8
I3
tp1118
sg22
I1
sg20
F3.0332496804185212
sg23
F4.2164646617602557
sVY
L5L
sVX
L5L
sg989
g990
sg35
g36
sg37
g38
sg21
S'3'
sg19
S'space'
p1119
sg34
g11
sg992
L3L
sg993
g1018
sg995
L3L
sS'block.thisIndex'
p1120
I10
sg997
g1009
sg999
g1022
sg1000
g1062
sa(dp1121
S'block.thisTrialN'
p1122
I14
sS'block.thisRepN'
p1123
I0
sg29
g33
sS'block.thisN'
p1124
I14
sg984
(S'THIRD'
S'ADD'
S'x'
S'y'
tp1125
sg27
g28
sg986
L2L
sg987
(I9
I3
tp1126
sg22
I1
sg20
F1.0500944727100432
sg23
F3.2165822498500347
sVY
L5L
sVX
L4L
sg989
L0L
sg35
g36
sg37
g38
sg21
S'3'
sg19
S'space'
p1127
sg34
g11
sg992
L3L
sg993
g994
sg995
L3L
sS'block.thisIndex'
p1128
I2
sg997
g998
sg999
L0L
sg1000
g1011
sa(dp1129
S'block.thisTrialN'
p1130
I15
sS'block.thisRepN'
p1131
I0
sg29
g33
sS'block.thisN'
p1132
I15
sg984
(S'THIRD'
S'INCREASE'
S'HALF'
S'DIVIDE'
S'x'
S'y'
tp1133
sg27
g28
sg986
L4L
sg987
(I4
I2
I3
I1
tp1134
sg22
I1
sg20
F1.5997989110182971
sg23
F4.9664441014174372
sVY
L2L
sVX
L8L
sg989
g1018
sg35
g36
sg37
g38
sg21
S'1'
sg19
S'space'
p1135
sg34
g11
sg992
L1L
sg993
g990
sg995
L1L
sS'block.thisIndex'
p1136
I16
sg997
g998
sg999
g1050
sg1000
g1024
sa(dp1137
S'block.thisTrialN'
p1138
I16
sS'block.thisRepN'
p1139
I0
sg29
g33
sS'block.thisN'
p1140
I16
sg984
(S'THIRD'
S'DOUBLE'
S'ADD'
S'INCREASE'
S'x'
S'y'
tp1141
sg27
g28
sg986
L4L
sg987
(I10
I12
I24
I8
tp1142
sg22
I1
sg20
F1.4666931005194783
sg23
F4.2498343796469271
sVY
L2L
sVX
L9L
sg989
g994
sg35
g36
sg37
g38
sg21
S'8'
sg19
S'space'
p1143
sg34
g11
sg992
L8L
sg993
g1052
sg995
L8L
sS'block.thisIndex'
p1144
I14
sg997
g998
sg999
g990
sg1000
g1042
sa(dp1145
S'block.thisTrialN'
p1146
I17
sS'block.thisRepN'
p1147
I0
sg29
g33
sS'block.thisN'
p1148
I17
sg984
(S'THIRD'
S'DECREASE'
S'TIMES'
S'x'
S'y'
tp1149
sg27
g28
sg986
L3L
sg987
(I25
I24
I8
tp1150
sg22
I1
sg20
F2.116650877520442
sg23
F2.9832822445314378
sVY
L5L
sVX
L5L
sg989
g1023
sg35
g36
sg37
g38
sg21
S'8'
sg19
S'space'
p1151
sg34
g11
sg992
L8L
sg993
g1020
sg995
L8L
sS'block.thisIndex'
p1152
I8
sg997
g998
sg999
L0L
sg1000
g1087
sa(dp1153
S'block.thisTrialN'
p1154
I0
sS'block.thisRepN'
p1155
I0
sg29
g33
sS'block.thisN'
p1156
I0
sVRule
p1157
(S'DECREASE'
S'SUBTRACT'
S'DOUBLE'
S'THIRD'
S'x'
S'y'
tp1158
sg27
g28
sVLength
p1159
L4L
sVIntermediate
p1160
(I3
I6
I4
I3
tp1161
sg22
I1
sg20
F3.4498598570935428
sg23
F6.8162943697534502
sVY
L2L
sVX
L9L
sVOperatorc
p1162
Vdouble
p1163
sg35
g36
sg37
g38
sg21
S'3'
sg19
S'space'
p1164
sg34
g11
sVResult
p1165
L3L
sVOperatora
p1166
VSUBTRACT
p1167
sVCorrectResponse
p1168
L3L
sS'block.thisIndex'
p1169
I13
sVOperatorb
p1170
Vdecrease
p1171
sVOperatord
p1172
Vthird
p1173
sVStructure
p1174
VUBUUxy
p1175
sa(dp1176
S'block.thisTrialN'
p1177
I1
sS'block.thisRepN'
p1178
I0
sg29
g33
sS'block.thisN'
p1179
I1
sg1157
(S'THIRD'
S'HALF'
S'INCREASE'
S'SUBTRACT'
S'x'
S'y'
tp1180
sg27
g28
sg1159
L4L
sg1160
(I5
I6
I3
I1
tp1181
sg22
I1
sg20
F3.5831843947526067
sg23
F8.1995131308212876
sVY
L2L
sVX
L7L
sg1162
Vincrease
p1182
sg35
g36
sg37
g38
sg21
S'1'
sg19
S'space'
p1183
sg34
g11
sg1165
L1L
sg1166
Vhalf
p1184
sg1168
L1L
sS'block.thisIndex'
p1185
I17
sg1170
g1173
sg1172
g1167
sg1174
VUUUBxy
p1186
sa(dp1187
S'block.thisTrialN'
p1188
I2
sS'block.thisRepN'
p1189
I0
sg29
g33
sS'block.thisN'
p1190
I2
sg1157
(S'DECREASE'
S'ADD'
S'THIRD'
S'HALF'
S'x'
S'y'
tp1191
sg27
g28
sg1159
L4L
sg1160
(I3
I1
I7
I6
tp1192
sg22
I1
sg20
F5.3496516637969762
sg23
F6.6497103525325656
sVY
L6L
sVX
L6L
sg1162
g1173
sg35
g36
sg37
g38
sg21
S'6'
sg19
S'space'
p1193
sg34
g11
sg1165
L6L
sg1166
VADD
p1194
sg1168
L6L
sS'block.thisIndex'
p1195
I12
sg1170
g1171
sg1172
g1184
sg1174
g1175
sa(dp1196
S'block.thisTrialN'
p1197
I3
sS'block.thisRepN'
p1198
I0
sg29
g33
sS'block.thisN'
p1199
I3
sg1157
(S'INCREASE'
S'ADD'
S'HALF'
S'x'
S'y'
tp1200
sg27
g28
sg1159
L3L
sg1160
(I1
I4
I5
tp1201
sg22
I1
sg20
F1.0168608906678855
sg23
F2.7166377187240869
sVY
L3L
sVX
L2L
sg1162
g1184
sg35
g36
sg37
g38
sg21
S'5'
sg19
S'space'
p1202
sg34
g11
sg1165
L5L
sg1166
g1194
sg1168
L5L
sS'block.thisIndex'
p1203
I7
sg1170
g1182
sg1172
L0L
sg1174
VUBUxy
p1204
sa(dp1205
S'block.thisTrialN'
p1206
I4
sS'block.thisRepN'
p1207
I0
sg29
g33
sS'block.thisN'
p1208
I4
sg1157
(S'DOUBLE'
S'THIRD'
S'ADD'
S'x'
S'y'
tp1209
sg27
g28
sg1159
L3L
sg1160
(I9
I3
I6
tp1210
sg22
I1
sg20
F2.0499600865878165
sg23
F5.1664601296652108
sVY
L4L
sVX
L5L
sg1162
g1194
sg35
g36
sg37
g38
sg21
S'6'
sg19
S'space'
p1211
sg34
g11
sg1165
L6L
sg1166
g1173
sg1168
L6L
sS'block.thisIndex'
p1212
I8
sg1170
g1163
sg1172
L0L
sg1174
VUUBxy
p1213
sa(dp1214
S'block.thisTrialN'
p1215
I5
sS'block.thisRepN'
p1216
I0
sg29
g33
sS'block.thisN'
p1217
I5
sg1157
(S'ADD'
S'TRIPLE'
S'DOUBLE'
S'DECREASE'
S'x'
S'y'
tp1218
sg27
g28
sg1159
L4L
sg1160
(I1
I2
I6
I8
tp1219
sg22
I1
sg20
F4.2164513631723821
sg23
F3.0166232653427869
sVY
L2L
sVX
L2L
sg1162
g1163
sg35
g36
sg37
g38
sg21
S'8'
sg19
S'space'
p1220
sg34
g11
sg1165
L8L
sg1166
Vtriple
p1221
sg1168
L8L
sS'block.thisIndex'
p1222
I11
sg1170
g1194
sg1172
g1171
sg1174
VBUUUxy
p1223
sa(dp1224
S'block.thisTrialN'
p1225
I6
sS'block.thisRepN'
p1226
I0
sg29
g33
sS'block.thisN'
p1227
I6
sg1157
(S'DECREASE'
S'TRIPLE'
S'SUBTRACT'
S'DOUBLE'
S'x'
S'y'
tp1228
sg27
g28
sg1159
L4L
sg1160
(I6
I3
I9
I8
tp1229
sg22
I0
sg20
F3.1665570698678493
sg23
F17.448719326173887
sVY
L3L
sVX
L3L
sg1162
g1167
sg35
g36
sg37
g38
sg21
S'7'
sg19
S'space'
p1230
sg34
g11
sg1165
L8L
sg1166
g1221
sg1168
L8L
sS'block.thisIndex'
p1231
I15
sg1170
g1171
sg1172
g1163
sg1174
VUUBUxy
p1232
sa(dp1233
S'block.thisTrialN'
p1234
I7
sS'block.thisRepN'
p1235
I0
sg29
g33
sS'block.thisN'
p1236
I7
sg1157
(S'ADD'
S'DECREASE'
S'THIRD'
S'DOUBLE'
S'x'
S'y'
tp1237
sg27
g28
sg1159
L4L
sg1160
(I18
I6
I5
I9
tp1238
sg22
I1
sg20
F2.7332476857118309
sg23
F4.11652279086411
sVY
L4L
sVX
L9L
sg1162
g1173
sg35
g36
sg37
g38
sg21
S'9'
sg19
S'space'
p1239
sg34
g11
sg1165
L9L
sg1166
g1171
sg1168
L9L
sS'block.thisIndex'
p1240
I10
sg1170
g1194
sg1172
g1163
sg1174
g1223
sa(dp1241
S'block.thisTrialN'
p1242
I8
sS'block.thisRepN'
p1243
I0
sg29
g33
sS'block.thisN'
p1244
I8
sg1157
(S'DECREASE'
S'DOUBLE'
S'TIMES'
S'THIRD'
S'x'
S'y'
tp1245
sg27
g28
sg1159
L4L
sg1160
(I1
I3
I6
I5
tp1246
sg22
I0
sg20
F5.6330135951284319
sg23
F4.9497756909113377
sVY
L3L
sVX
L3L
sg1162
VTIMES
p1247
sg35
g36
sg37
g38
sg21
S'7'
sg19
S'space'
p1248
sg34
g11
sg1165
L5L
sg1166
g1163
sg1168
L5L
sS'block.thisIndex'
p1249
I14
sg1170
g1171
sg1172
g1173
sg1174
g1232
sa(dp1250
S'block.thisTrialN'
p1251
I9
sS'block.thisRepN'
p1252
I0
sg29
g33
sS'block.thisN'
p1253
I9
sg1157
(S'ADD'
S'DOUBLE'
S'DECREASE'
S'x'
S'y'
tp1254
sg27
g28
sg1159
L3L
sg1160
(I1
I2
I7
tp1255
sg22
I1
sg20
F2.4166651209816337
sg23
F5.4164176967460662
sVY
L5L
sVX
L2L
sg1162
g1171
sg35
g36
sg37
g38
sg21
S'7'
sg19
S'space'
p1256
sg34
g11
sg1165
L7L
sg1166
g1163
sg1168
L7L
sS'block.thisIndex'
p1257
I4
sg1170
g1194
sg1172
L0L
sg1174
VBUUxy
p1258
sa(dp1259
S'block.thisTrialN'
p1260
I10
sS'block.thisRepN'
p1261
I0
sg29
g33
sS'block.thisN'
p1262
I10
sg1157
(S'INCREASE'
S'HALF'
S'THIRD'
S'TIMES'
S'x'
S'y'
tp1263
sg27
g28
sg1159
L4L
sg1160
(I12
I4
I2
I3
tp1264
sg22
I1
sg20
F3.4331917965319008
sg23
F5.8997025662101805
sVY
L4L
sVX
L3L
sg1162
g1173
sg35
g36
sg37
g38
sg21
S'3'
sg19
S'space'
p1265
sg34
g11
sg1165
L3L
sg1166
g1184
sg1168
L3L
sS'block.thisIndex'
p1266
I16
sg1170
g1182
sg1172
g1247
sg1174
g1186
sa(dp1267
S'block.thisTrialN'
p1268
I11
sS'block.thisRepN'
p1269
I0
sg29
g33
sS'block.thisN'
p1270
I11
sg1157
(S'ADD'
S'DECREASE'
S'x'
S'y'
tp1271
sg27
g28
sg1159
L2L
sg1160
(I2
I7
tp1272
sg22
I1
sg20
F1.5167060317471623
sg23
F3.6832239057403058
sVY
L5L
sVX
L3L
sg1162
L0L
sg35
g36
sg37
g38
sg21
S'7'
sg19
S'space'
p1273
sg34
g11
sg1165
L7L
sg1166
g1171
sg1168
L7L
sS'block.thisIndex'
p1274
I0
sg1170
g1194
sg1172
L0L
sg1174
VBUxy
p1275
sa(dp1276
S'block.thisTrialN'
p1277
I12
sS'block.thisRepN'
p1278
I0
sg29
g33
sS'block.thisN'
p1279
I12
sg1157
(S'HALF'
S'INCREASE'
S'TIMES'
S'x'
S'y'
tp1280
sg27
g28
sg1159
L3L
sg1160
(I9
I10
I5
tp1281
sg22
I1
sg20
F1.3667018846608698
sg23
F3.499905684730038
sVY
L3L
sVX
L3L
sg1162
g1247
sg35
g36
sg37
g38
sg21
S'5'
sg19
S'space'
p1282
sg34
g11
sg1165
L5L
sg1166
g1182
sg1168
L5L
sS'block.thisIndex'
p1283
I9
sg1170
g1184
sg1172
L0L
sg1174
g1213
sa(dp1284
S'block.thisTrialN'
p1285
I13
sS'block.thisRepN'
p1286
I0
sg29
g33
sS'block.thisN'
p1287
I13
sg1157
(S'DOUBLE'
S'SUBTRACT'
S'INCREASE'
S'x'
S'y'
tp1288
sg27
g28
sg1159
L3L
sg1160
(I4
I1
I2
tp1289
sg22
I1
sg20
F1.1333784318994731
sg23
F1.9500224152579904
sVY
L3L
sVX
L3L
sg1162
g1182
sg35
g36
sg37
g38
sg21
S'2'
sg19
S'space'
p1290
sg34
g11
sg1165
L2L
sg1166
g1167
sg1168
L2L
sS'block.thisIndex'
p1291
I6
sg1170
g1163
sg1172
L0L
sg1174
g1204
sa(dp1292
S'block.thisTrialN'
p1293
I14
sS'block.thisRepN'
p1294
I0
sg29
g33
sS'block.thisN'
p1295
I14
sg1157
(S'DIVIDE'
S'DECREASE'
S'x'
S'y'
tp1296
sg27
g28
sg1159
L2L
sg1160
(I8
I2
tp1297
sg22
I1
sg20
F0.83342718193307519
sg23
F1.8333816865924746
sVY
L4L
sVX
L9L
sg1162
L0L
sg35
g36
sg37
g38
sg21
S'2'
sg19
S'space'
p1298
sg34
g11
sg1165
L2L
sg1166
g1171
sg1168
L2L
sS'block.thisIndex'
p1299
I1
sg1170
VDIVIDE
p1300
sg1172
L0L
sg1174
g1275
sa(dp1301
S'block.thisTrialN'
p1302
I15
sS'block.thisRepN'
p1303
I0
sg29
g33
sS'block.thisN'
p1304
I15
sg1157
(S'ADD'
S'TRIPLE'
S'HALF'
S'x'
S'y'
tp1305
sg27
g28
sg1159
L3L
sg1160
(I2
I6
I8
tp1306
sg22
I1
sg20
F1.3333724127151072
sg23
F2.5333292970899493
sVY
L2L
sVX
L4L
sg1162
g1184
sg35
g36
sg37
g38
sg21
S'8'
sg19
S'space'
p1307
sg34
g11
sg1165
L8L
sg1166
g1221
sg1168
L8L
sS'block.thisIndex'
p1308
I5
sg1170
g1194
sg1172
L0L
sg1174
g1258
sa(dp1309
S'block.thisTrialN'
p1310
I16
sS'block.thisRepN'
p1311
I0
sg29
g33
sS'block.thisN'
p1312
I16
sg1157
(S'HALF'
S'ADD'
S'x'
S'y'
tp1313
sg27
g28
sg1159
L2L
sg1160
(I12
I6
tp1314
sg22
I1
sg20
F0.60009078052826226
sg23
F1.5167406781110913
sVY
L8L
sVX
L4L
sg1162
L0L
sg35
g36
sg37
g38
sg21
S'6'
sg19
S'space'
p1315
sg34
g11
sg1165
L6L
sg1166
g1194
sg1168
L6L
sS'block.thisIndex'
p1316
I3
sg1170
g1184
sg1172
L0L
sg1174
VUBxy
p1317
sa(dp1318
S'block.thisTrialN'
p1319
I17
sS'block.thisRepN'
p1320
I0
sg29
g33
sS'block.thisN'
p1321
I17
sg1157
(S'DECREASE'
S'TIMES'
S'x'
S'y'
tp1322
sg27
g28
sg1159
L2L
sg1160
(I9
I8
tp1323
sg22
I1
sg20
F0.70009774481877685
sg23
F1.2834116260055453
sVY
L3L
sVX
L3L
sg1162
L0L
sg35
g36
sg37
g38
sg21
S'8'
sg19
S'space'
p1324
sg34
g11
sg1165
L8L
sg1166
g1247
sg1168
L8L
sS'block.thisIndex'
p1325
I2
sg1170
g1171
sg1172
L0L
sg1174
g1317
sa(dp1326
S'block.thisTrialN'
p1327
I0
sS'block.thisRepN'
p1328
I0
sg29
g33
sS'block.thisN'
p1329
I0
sVRule
p1330
(S'DIVIDE'
S'DECREASE'
S'THIRD'
S'DOUBLE'
S'x'
S'y'
tp1331
sg27
g28
sVLength
p1332
L4L
sVIntermediate
p1333
(I12
I4
I3
I1
tp1334
sg22
I1
sg20
F2.3166217606049031
sg23
F6.3830378300044686
sVY
L3L
sVX
L6L
sVOperatorc
p1335
Vthird
p1336
sg35
g36
sg37
g38
sg21
S'1'
sg19
S'space'
p1337
sg34
g11
sVResult
p1338
L1L
sVOperatora
p1339
Vdecrease
p1340
sVCorrectResponse
p1341
L1L
sS'block.thisIndex'
p1342
I10
sVOperatorb
p1343
VDIVIDE
p1344
sVOperatord
p1345
Vdouble
p1346
sVStructure
p1347
VBUUUxy
p1348
sa(dp1349
S'block.thisTrialN'
p1350
I1
sS'block.thisRepN'
p1351
I0
sg29
g33
sS'block.thisN'
p1352
I1
sg1330
(S'INCREASE'
S'TRIPLE'
S'HALF'
S'ADD'
S'x'
S'y'
tp1353
sg27
g28
sg1332
L4L
sg1333
(I4
I2
I6
I7
tp1354
sg22
I1
sg20
F1.41670011729002
sg23
F8.632828114554286
sVY
L2L
sVX
L2L
sg1335
Vhalf
p1355
sg35
g36
sg37
g38
sg21
S'7'
sg19
S'space'
p1356
sg34
g11
sg1338
L7L
sg1339
Vtriple
p1357
sg1341
L7L
sS'block.thisIndex'
p1358
I17
sg1343
Vincrease
p1359
sg1345
VADD
p1360
sg1347
VUUUBxy
p1361
sa(dp1362
S'block.thisTrialN'
p1363
I2
sS'block.thisRepN'
p1364
I0
sg29
g33
sS'block.thisN'
p1365
I2
sg1330
(S'INCREASE'
S'HALF'
S'TIMES'
S'TRIPLE'
S'x'
S'y'
tp1366
sg27
g28
sg1332
L4L
sg1333
(I6
I12
I6
I7
tp1367
sg22
I1
sg20
F1.2500429579522461
sg23
F7.6662107808515429
sVY
L2L
sVX
L2L
sg1335
VTIMES
p1368
sg35
g36
sg37
g38
sg21
S'7'
sg19
S'space'
p1369
sg34
g11
sg1338
L7L
sg1339
g1355
sg1341
L7L
sS'block.thisIndex'
p1370
I14
sg1343
g1359
sg1345
g1357
sg1347
VUUBUxy
p1371
sa(dp1372
S'block.thisTrialN'
p1373
I3
sS'block.thisRepN'
p1374
I0
sg29
g33
sS'block.thisN'
p1375
I3
sg1330
(S'DOUBLE'
S'TIMES'
S'THIRD'
S'x'
S'y'
tp1376
sg27
g28
sg1332
L3L
sg1333
(I1
I4
I8
tp1377
sg22
I1
sg20
F1.7333274772390723
sg23
F3.5832256902940571
sVY
L4L
sVX
L3L
sg1335
g1336
sg35
g36
sg37
g38
sg21
S'8'
sg19
S'space'
p1378
sg34
g11
sg1338
L8L
sg1339
g1368
sg1341
L8L
sS'block.thisIndex'
p1379
I6
sg1343
g1346
sg1345
L0L
sg1347
VUBUxy
p1380
sa(dp1381
S'block.thisTrialN'
p1382
I4
sS'block.thisRepN'
p1383
I0
sg29
g33
sS'block.thisN'
p1384
I4
sg1330
(S'TRIPLE'
S'SUBTRACT'
S'INCREASE'
S'HALF'
S'x'
S'y'
tp1385
sg27
g28
sg1332
L4L
sg1333
(I3
I4
I1
I3
tp1386
sg22
I1
sg20
F3.9664909967686981
sg23
F5.1662512016482651
sVY
L3L
sVX
L6L
sg1335
g1359
sg35
g36
sg37
g38
sg21
S'3'
sg19
S'space'
p1387
sg34
g11
sg1338
L3L
sg1339
VSUBTRACT
p1388
sg1341
L3L
sS'block.thisIndex'
p1389
I13
sg1343
g1357
sg1345
g1355
sg1347
VUBUUxy
p1390
sa(dp1391
S'block.thisTrialN'
p1392
I5
sS'block.thisRepN'
p1393
I0
sg29
g33
sS'block.thisN'
p1394
I5
sg1330
(S'TIMES'
S'DECREASE'
S'THIRD'
S'DOUBLE'
S'x'
S'y'
tp1395
sg27
g28
sg1332
L4L
sg1333
(I6
I2
I1
I2
tp1396
sg22
I1
sg20
F1.8333393409848213
sg23
F5.4497121723834425
sVY
L2L
sVX
L3L
sg1335
g1336
sg35
g36
sg37
g38
sg21
S'2'
sg19
S'space'
p1397
sg34
g11
sg1338
L2L
sg1339
g1340
sg1341
L2L
sS'block.thisIndex'
p1398
I11
sg1343
g1368
sg1345
g1346
sg1347
g1348
sa(dp1399
S'block.thisTrialN'
p1400
I6
sS'block.thisRepN'
p1401
I0
sg29
g33
sS'block.thisN'
p1402
I6
sg1330
(S'INCREASE'
S'TIMES'
S'x'
S'y'
tp1403
sg27
g28
sg1332
L2L
sg1333
(I8
I9
tp1404
sg22
I1
sg20
F0.91670799162238836
sg23
F4.5831598972436041
sVY
L4L
sVX
L2L
sg1335
L0L
sg35
g36
sg37
g38
sg21
S'9'
sg19
S'space'
p1405
sg34
g11
sg1338
L9L
sg1339
g1368
sg1341
L9L
sS'block.thisIndex'
p1406
I2
sg1343
g1359
sg1345
L0L
sg1347
VUBxy
p1407
sa(dp1408
S'block.thisTrialN'
p1409
I7
sS'block.thisRepN'
p1410
I0
sg29
g33
sS'block.thisN'
p1411
I7
sg1330
(S'TRIPLE'
S'HALF'
S'TIMES'
S'x'
S'y'
tp1412
sg27
g28
sg1332
L3L
sg1333
(I6
I3
I9
tp1413
sg22
I1
sg20
F0.86676435312256217
sg23
F2.8332938456442207
sVY
L3L
sVX
L2L
sg1335
g1368
sg35
g36
sg37
g38
sg21
S'9'
sg19
S'space'
p1414
sg34
g11
sg1338
L9L
sg1339
g1355
sg1341
L9L
sS'block.thisIndex'
p1415
I9
sg1343
g1357
sg1345
L0L
sg1347
VUUBxy
p1416
sa(dp1417
S'block.thisTrialN'
p1418
I8
sS'block.thisRepN'
p1419
I0
sg29
g33
sS'block.thisN'
p1420
I8
sg1330
(S'INCREASE'
S'DIVIDE'
S'HALF'
S'x'
S'y'
tp1421
sg27
g28
sg1332
L3L
sg1333
(I2
I1
I2
tp1422
sg22
I1
sg20
F1.7666863463819027
sg23
F4.1831988831982017
sVY
L2L
sVX
L4L
sg1335
g1355
sg35
g36
sg37
g38
sg21
S'2'
sg19
S'space'
p1423
sg34
g11
sg1338
L2L
sg1339
g1344
sg1341
L2L
sS'block.thisIndex'
p1424
I7
sg1343
g1359
sg1345
L0L
sg1347
g1380
sa(dp1425
S'block.thisTrialN'
p1426
I9
sS'block.thisRepN'
p1427
I0
sg29
g33
sS'block.thisN'
p1428
I9
sg1330
(S'THIRD'
S'INCREASE'
S'SUBTRACT'
S'HALF'
S'x'
S'y'
tp1429
sg27
g28
sg1332
L4L
sg1333
(I4
I2
I3
I1
tp1430
sg22
I1
sg20
F2.2166287947911769
sg23
F4.9831230111885816
sVY
L2L
sVX
L8L
sg1335
g1388
sg35
g36
sg37
g38
sg21
S'1'
sg19
S'space'
p1431
sg34
g11
sg1338
L1L
sg1339
g1359
sg1341
L1L
sS'block.thisIndex'
p1432
I15
sg1343
g1336
sg1345
g1355
sg1347
g1371
sa(dp1433
S'block.thisTrialN'
p1434
I10
sS'block.thisRepN'
p1435
I0
sg29
g33
sS'block.thisN'
p1436
I10
sg1330
(S'SUBTRACT'
S'DOUBLE'
S'DECREASE'
S'x'
S'y'
tp1437
sg27
g28
sg1332
L3L
sg1333
(I8
I16
I7
tp1438
sg22
I1
sg20
F2.1499855988658965
sg23
F3.6832281050737947
sVY
L9L
sVX
L9L
sg1335
g1340
sg35
g36
sg37
g38
sg21
S'7'
sg19
S'space'
p1439
sg34
g11
sg1338
L7L
sg1339
g1346
sg1341
L7L
sS'block.thisIndex'
p1440
I5
sg1343
g1388
sg1345
L0L
sg1347
VBUUxy
p1441
sa(dp1442
S'block.thisTrialN'
p1443
I11
sS'block.thisRepN'
p1444
I0
sg29
g33
sS'block.thisN'
p1445
I11
sg1330
(S'ADD'
S'DECREASE'
S'HALF'
S'x'
S'y'
tp1446
sg27
g28
sg1332
L3L
sg1333
(I3
I2
I6
tp1447
sg22
I1
sg20
F1.3167124008759856
sg23
F4.9831489084754139
sVY
L4L
sVX
L6L
sg1335
g1355
sg35
g36
sg37
g38
sg21
S'6'
sg19
S'space'
p1448
sg34
g11
sg1338
L6L
sg1339
g1340
sg1341
L6L
sS'block.thisIndex'
p1449
I4
sg1343
g1360
sg1345
L0L
sg1347
g1441
sa(dp1450
S'block.thisTrialN'
p1451
I12
sS'block.thisRepN'
p1452
I0
sg29
g33
sS'block.thisN'
p1453
I12
sg1330
(S'TIMES'
S'THIRD'
S'x'
S'y'
tp1454
sg27
g28
sg1332
L2L
sg1333
(I1
I4
tp1455
sg22
I1
sg20
F1.4333713275846094
sg23
F1.5667550091166049
sVY
L4L
sVX
L3L
sg1335
L0L
sg35
g36
sg37
g38
sg21
S'4'
sg19
S'space'
p1456
sg34
g11
sg1338
L4L
sg1339
g1336
sg1341
L4L
sS'block.thisIndex'
p1457
I1
sg1343
g1368
sg1345
L0L
sg1347
VBUxy
p1458
sa(dp1459
S'block.thisTrialN'
p1460
I13
sS'block.thisRepN'
p1461
I0
sg29
g33
sS'block.thisN'
p1462
I13
sg1330
(S'SUBTRACT'
S'THIRD'
S'x'
S'y'
tp1463
sg27
g28
sg1332
L2L
sg1333
(I3
I1
tp1464
sg22
I1
sg20
F1.0500654256902635
sg23
F3.2499309696722776
sVY
L2L
sVX
L9L
sg1335
L0L
sg35
g36
sg37
g38
sg21
S'1'
sg19
S'space'
p1465
sg34
g11
sg1338
L1L
sg1339
g1336
sg1341
L1L
sS'block.thisIndex'
p1466
I0
sg1343
g1388
sg1345
L0L
sg1347
g1458
sa(dp1467
S'block.thisTrialN'
p1468
I14
sS'block.thisRepN'
p1469
I0
sg29
g33
sS'block.thisN'
p1470
I14
sg1330
(S'DECREASE'
S'HALF'
S'TRIPLE'
S'ADD'
S'x'
S'y'
tp1471
sg27
g28
sg1332
L4L
sg1333
(I4
I12
I6
I5
tp1472
sg22
I1
sg20
F2.8332602493464947
sg23
F6.9996027913875878
sVY
L2L
sVX
L2L
sg1335
g1357
sg35
g36
sg37
g38
sg21
S'5'
sg19
S'space'
p1473
sg34
g11
sg1338
L5L
sg1339
g1355
sg1341
L5L
sS'block.thisIndex'
p1474
I16
sg1343
g1340
sg1345
g1360
sg1347
g1361
sa(dp1475
S'block.thisTrialN'
p1476
I15
sS'block.thisRepN'
p1477
I0
sg29
g33
sS'block.thisN'
p1478
I15
sg1330
(S'DECREASE'
S'DIVIDE'
S'TRIPLE'
S'DOUBLE'
S'x'
S'y'
tp1479
sg27
g28
sg1332
L4L
sg1333
(I6
I18
I2
I1
tp1480
sg22
I1
sg20
F1.7166786647867411
sg23
F11.499216256896034
sVY
L9L
sVX
L3L
sg1335
g1357
sg35
g36
sg37
g38
sg21
S'1'
sg19
S'space'
p1481
sg34
g11
sg1338
L1L
sg1339
g1344
sg1341
L1L
sS'block.thisIndex'
p1482
I12
sg1343
g1340
sg1345
g1346
sg1347
g1390
sa(dp1483
S'block.thisTrialN'
p1484
I16
sS'block.thisRepN'
p1485
I0
sg29
g33
sS'block.thisN'
p1486
I16
sg1330
(S'DECREASE'
S'HALF'
S'DIVIDE'
S'x'
S'y'
tp1487
sg27
g28
sg1332
L3L
sg1333
(I4
I2
I1
tp1488
sg22
I1
sg20
F0.80007741204462945
sg23
F3.0832762601785362
sVY
L2L
sVX
L8L
sg1335
g1344
sg35
g36
sg37
g38
sg21
S'1'
sg19
S'space'
p1489
sg34
g11
sg1338
L1L
sg1339
g1355
sg1341
L1L
sS'block.thisIndex'
p1490
I8
sg1343
g1340
sg1345
L0L
sg1347
g1416
sa(dp1491
S'block.thisTrialN'
p1492
I17
sS'block.thisRepN'
p1493
I0
sg29
g33
sS'block.thisN'
p1494
I17
sg1330
(S'TRIPLE'
S'SUBTRACT'
S'x'
S'y'
tp1495
sg27
g28
sg1332
L2L
sg1333
(I2
I6
tp1496
sg22
I1
sg20
F0.91679233266040683
sg23
F1.5833877234254032
sVY
L6L
sVX
L8L
sg1335
L0L
sg35
g36
sg37
g38
sg21
S'6'
sg19
S'space'
p1497
sg34
g11
sg1338
L6L
sg1339
g1388
sg1341
L6L
sS'block.thisIndex'
p1498
I3
sg1343
g1357
sg1345
L0L
sg1347
g1407
sasS'loops'
p1499
(lp1500
g1
(cpsychopy.data
TrialHandler
p1501
g3
NtRp1502
(dp1503
S'origin'
p1504
NsS'thisTrial'
p1505
(lp1506
sS'_exp'
p1507
I342590448
sg10
S'practice_trials'
p1508
sg6
S'C:\\Users\\experimenter\\Desktop\\Experiments\\KRITL\\2. kritl_experimenter.py'
p1509
sS'thisRepN'
p1510
I1
sg24
I01
sg25
g26
sS'data'
p1511
g1
(cpsychopy.data
DataHandler
p1512
c__builtin__
dict
p1513
(dp1514
g15
cnumpy.core.multiarray
_reconstruct
p1515
(cnumpy
ndarray
p1516
(I0
tS'b'
tRp1517
(I1
(I6
I1
tg31
(S'O4'
I0
I1
tRp1518
(I3
S'|'
NNNI-1
I-1
I63
tbI00
(lp1519
(lp1520
F1.4999872264452279
aa(lp1521
F1.5166699853725731
aa(lp1522
F2.0999513200949878
aa(lp1523
F1.6833008974790573
aa(lp1524
F2.2332611591555178
aa(lp1525
F2.7665547600481659
aatbsg16
g1515
(g1516
(I0
tS'b'
tRp1526
(I1
(I6
I1
tg1518
I00
(lp1527
S'7'
aS'8'
aS'7'
aS'8'
aS'3'
aS'9'
atbsS'ran'
p1528
cnumpy.ma.core
_mareconstruct
p1529
(cnumpy.ma.core
MaskedArray
p1530
g1516
(I0
tp1531
S'b'
tRp1532
(I1
(I6
I1
tg31
(S'f4'
I0
I1
tRp1533
(I3
S'<'
NNNI-1
I-1
I0
tbI00
S'\x00\x00\x80?\x00\x00\x80?\x00\x00\x80?\x00\x00\x80?\x00\x00\x80?\x00\x00\x80?'
S'\x00\x00\x00\x00\x00\x00'
Ntbsg18
g1529
(g1530
g1516
g1531
S'b'
tRp1534
(I1
(I6
I1
tg1533
I00
S'\x91\xaa\n@\x97\xfe?@\xa1 R@\x7fuW@\xb8t\xbf@M\xfe\x8f@'
S'\x00\x00\x00\x00\x00\x00'
Ntbsg14
g1515
(g1516
(I0
tS'b'
tRp1535
(I1
(I6
I1
tg1518
I00
(lp1536
(lp1537
g93
aa(lp1538
g111
aa(lp1539
g73
aa(lp1540
g102
aa(lp1541
g84
aa(lp1542
g120
aatbsS'order'
p1543
g1529
(g1530
g1516
g1531
S'b'
tRp1544
(I1
(I6
I1
tg1533
I00
S'\x00\x00\x00@\x00\x00\x80@\x00\x00\x00\x00\x00\x00@@\x00\x00\x80?\x00\x00\xa0@'
S'\x00\x00\x00\x00\x00\x00'
Ntbsg17
g1529
(g1530
g1516
g1531
S'b'
tRp1545
(I1
(I6
I1
tg1533
I00
S'\x00\x00\x80?\x00\x00\x80?\x00\x00\x80?\x00\x00\x80?\x00\x00\x80?\x00\x00\x80?'
S'\x00\x00\x00\x00\x00\x00'
NtbstRp1546
(dp1547
S'isNumeric'
p1548
(dp1549
g16
I00
sg1528
I01
sg18
I01
sg14
I00
sg17
I01
sg1543
I01
sg15
I00
ssS'trials'
p1550
g1502
sS'dataTypes'
p1551
(lp1552
g1528
ag1543
ag14
ag15
ag16
ag17
ag18
asS'dataShape'
p1553
(lp1554
I6
aI1
asbsS'method'
p1555
S'fullRandom'
p1556
sS'sequenceIndices'
p1557
g1515
(g1516
(I0
tS'b'
tRp1558
(I1
(I6
I1
tg1518
I00
(lp1559
I2
aI4
aI0
aI3
aI1
aI5
atbsS'finished'
p1560
I01
sS'nReps'
p1561
I1
sS'nRemaining'
p1562
I-1
sS'trialList'
p1563
(lp1564
g1
(cpsychopy.data
TrialType
p1565
g1513
(dp1566
g47
L0L
sg48
g68
sg49
g89
sg50
L7L
sg53
L2L
sg52
L0L
sg51
L5L
sg54
L3L
stRp1567
ag1
(g1565
g1513
(dp1568
g47
L0L
sg48
g89
sg49
g107
sg50
L8L
sg53
L2L
sg52
L0L
sg51
L3L
sg54
L3L
stRp1569
ag1
(g1565
g1513
(dp1570
g47
L0L
sg48
g68
sg49
g69
sg50
L7L
sg53
L2L
sg52
L0L
sg51
L5L
sg54
L4L
stRp1571
ag1
(g1565
g1513
(dp1572
g47
g68
sg48
g98
sg49
g69
sg50
L8L
sg53
L3L
sg52
L0L
sg51
L2L
sg54
L4L
stRp1573
ag1
(g1565
g1513
(dp1574
g47
g78
sg48
g79
sg49
g80
sg50
L3L
sg53
L3L
sg52
L0L
sg51
L3L
sg54
L2L
stRp1575
ag1
(g1565
g1513
(dp1576
g47
g78
sg48
g79
sg49
g116
sg50
L9L
sg53
L4L
sg52
g80
sg51
L8L
sg54
L8L
stRp1577
asS'seed'
p1578
NsS'thisIndex'
p1579
I5
sS'thisN'
p1580
I6
sS'thisTrialN'
p1581
I0
sS'nTotal'
p1582
I6
sbag1
(g1501
g3
NtRp1583
(dp1584
g1504
Nsg1505
(lp1585
sg1507
I342590448
sg10
S'block'
p1586
sg6
g1509
sg1510
I1
sg24
I01
sg25
g26
sg1511
g1
(g1512
g1513
(dp1587
g22
g1529
(g1530
g1516
g1531
S'b'
tRp1588
(I1
(I18
I1
tg1533
I00
S'\x00\x00\x80?\x00\x00\x80?\x00\x00\x80?\x00\x00\x80?\x00\x00\x80?\x00\x00\x80?\x00\x00\x80?\x00\x00\x80?\x00\x00\x80?\x00\x00\x80?\x00\x00\x80?\x00\x00\x80?\x00\x00\x80?\x00\x00\x80?\x00\x00\x80?\x00\x00\x80?\x00\x00\x80?\x00\x00\x80?'
S'\x00\x00\x00\x00\x00\x00\x00\x00\x00\x00\x00\x00\x00\x00\x00\x00\x00\x00'
Ntbsg19
g1515
(g1516
(I0
tS'b'
tRp1589
(I1
(I18
I1
tg1518
I00
(lp1590
g130
ag174
ag243
ag163
ag192
ag268
ag153
ag202
ag260
ag251
ag285
ag276
ag210
ag183
ag218
ag235
ag142
ag227
atbsg23
g1529
(g1530
g1516
g1531
S'b'
tRp1591
(I1
(I18
I1
tg1533
I00
S'\xd8\xff\x0f@\xc2\xab\xea?p\x0fQ@"@\xc4?\xd5d\x96@t\x96\x99@@\x1e\xba@h\xb8\xe3@\'\x000@\xaa\xa7\xfa@$\xa7\x9a@\x89e\x96@\x8d\xdbm@\x05\xba\xa3@\x04\xcb\x9c@Rdv@9\xb8\xe3@\x8c0\xbb@'
S'\x00\x00\x00\x00\x00\x00\x00\x00\x00\x00\x00\x00\x00\x00\x00\x00\x00\x00'
Ntbsg1528
g1529
(g1530
g1516
g1531
S'b'
tRp1592
(I1
(I18
I1
tg1533
I00
S'\x00\x00\x80?\x00\x00\x80?\x00\x00\x80?\x00\x00\x80?\x00\x00\x80?\x00\x00\x80?\x00\x00\x80?\x00\x00\x80?\x00\x00\x80?\x00\x00\x80?\x00\x00\x80?\x00\x00\x80?\x00\x00\x80?\x00\x00\x80?\x00\x00\x80?\x00\x00\x80?\x00\x00\x80?\x00\x00\x80?'
S'\x00\x00\x00\x00\x00\x00\x00\x00\x00\x00\x00\x00\x00\x00\x00\x00\x00\x00'
Ntbsg21
g1515
(g1516
(I0
tS'b'
tRp1593
(I1
(I18
I1
tg1518
I00
(lp1594
S'7'
aS'2'
aS'8'
aS'8'
aS'4'
aS'4'
aS'9'
aS'2'
aS'5'
aS'1'
aS'2'
aS'8'
aS'3'
aS'4'
aS'7'
aS'6'
aS'8'
aS'3'
atbsg1543
g1529
(g1530
g1516
g1531
S'b'
tRp1595
(I1
(I18
I1
tg1533
I00
S'\x00\x00\x00\x00\x00\x00\x80@\x00\x00@A\x00\x00@@\x00\x00\xc0@\x00\x00pA\x00\x00\x00@\x00\x00\xe0@\x00\x00`A\x00\x00PA\x00\x00\x88A\x00\x00\x80A\x00\x00\x00A\x00\x00\xa0@\x00\x00\x10A\x00\x000A\x00\x00\x80?\x00\x00 A'
S'\x00\x00\x00\x00\x00\x00\x00\x00\x00\x00\x00\x00\x00\x00\x00\x00\x00\x00'
Ntbsg20
g1529
(g1530
g1516
g1531
S'b'
tRp1596
(I1
(I18
I1
tg1533
I00
S'\x1b3#@\xdaC\x04@8\x1d\xc2?\xa04\xd3?\xc2\x89\xa8?fT\x15@\xa9\x99\xd9?\x05\x1e\xe2?42\xf3?|\xef\xee?\xd5 2@\x83\x98)@P\x87\xc8?\xd3\xed\x1e@\x8a\xff\x0f@T\rq@(\x89\xe8?\xf7u\x87@'
S'\x00\x00\x00\x00\x00\x00\x00\x00\x00\x00\x00\x00\x00\x00\x00\x00\x00\x00'
NtbstRp1597
(dp1598
g1548
(dp1599
g1528
I01
sg21
I00
sg20
I01
sg22
I01
sg19
I00
sg23
I01
sg1543
I01
ssg1550
g1583
sg1551
(lp1600
g1528
ag1543
ag19
ag20
ag21
ag22
ag23
asg1553
(lp1601
I18
aI1
asbsg1555
g1556
sg1557
g1515
(g1516
(I0
tS'b'
tRp1602
(I1
(I18
I1
tg1518
I00
(lp1603
I0
aI16
aI6
aI3
aI1
aI13
aI4
aI7
aI12
aI14
aI17
aI15
aI2
aI9
aI8
aI5
aI11
aI10
atbsg1560
I01
sg1561
I1
sg1562
I-1
sg1563
(lp1604
g1
(g1565
g1513
(dp1605
g55
g128
sVY
L6L
sg57
L2L
sg58
g129
sg59
L7L
sg60
L7L
sg56
g131
sVX
L3L
sg61
L0L
sg62
g133
sg63
L0L
sg64
g134
stRp1606
ag1
(g1565
g1513
(dp1607
g55
g172
sVY
L4L
sg57
L2L
sg58
g173
sg59
L2L
sg60
L2L
sg56
g155
sVX
L5L
sg61
L0L
sg62
g176
sg63
L0L
sg64
g134
stRp1608
ag1
(g1565
g1513
(dp1609
g55
g241
sVY
L2L
sg57
L2L
sg58
g242
sg59
L8L
sg60
L8L
sg56
g133
sVX
L2L
sg61
L0L
sg62
g166
sg63
L0L
sg64
g167
stRp1610
ag1
(g1565
g1513
(dp1611
g55
g161
sVY
L2L
sg57
L2L
sg58
g162
sg59
L8L
sg60
L8L
sg56
g164
sVX
L2L
sg61
L0L
sg62
g166
sg63
L0L
sg64
g167
stRp1612
ag1
(g1565
g1513
(dp1613
g55
g190
sVY
L3L
sg57
L3L
sg58
g191
sg59
L4L
sg60
L4L
sg56
g143
sVX
L8L
sg61
g141
sg62
g194
sg63
L0L
sg64
g195
stRp1614
ag1
(g1565
g1513
(dp1615
g55
g266
sVY
L2L
sg57
L3L
sg58
g267
sg59
L4L
sg60
L4L
sg56
g131
sVX
L3L
sg61
g166
sg62
g164
sg63
L0L
sg64
g195
stRp1616
ag1
(g1565
g1513
(dp1617
g55
g151
sVY
L2L
sg57
L3L
sg58
g152
sg59
L9L
sg60
L9L
sg56
g133
sVX
L2L
sg61
g143
sg62
g155
sg63
L0L
sg64
g156
stRp1618
ag1
(g1565
g1513
(dp1619
g55
g200
sVY
L2L
sg57
L3L
sg58
g201
sg59
L2L
sg60
L2L
sg56
g176
sVX
L9L
sg61
g131
sg62
g155
sg63
L0L
sg64
g156
stRp1620
ag1
(g1565
g1513
(dp1621
g55
g258
sVY
L4L
sg57
L3L
sg58
g259
sg59
L5L
sg60
L5L
sg56
g143
sVX
L8L
sg61
g194
sg62
g145
sg63
L0L
sg64
g253
stRp1622
ag1
(g1565
g1513
(dp1623
g55
g249
sVY
L6L
sg57
L3L
sg58
g250
sg59
L1L
sg60
L1L
sg56
g155
sVX
L8L
sg61
g176
sg62
g131
sg63
L0L
sg64
g253
stRp1624
ag1
(g1565
g1513
(dp1625
g55
g283
sVY
L3L
sg57
L4L
sg58
g284
sg59
L2L
sg60
L2L
sg56
g166
sVX
L6L
sg61
g155
sg62
g194
sg63
g131
sg64
g278
stRp1626
ag1
(g1565
g1513
(dp1627
g55
g274
sVY
L2L
sg57
L4L
sg58
g275
sg59
L8L
sg60
L8L
sg56
g155
sVX
L2L
sg61
g141
sg62
g164
sg63
g143
sg64
g278
stRp1628
ag1
(g1565
g1513
(dp1629
g55
g208
sVY
L3L
sg57
L4L
sg58
g209
sg59
L3L
sg60
L3L
sg56
g194
sVX
L4L
sg61
g143
sg62
g155
sg63
g141
sg64
g185
stRp1630
ag1
(g1565
g1513
(dp1631
g55
g181
sVY
L3L
sg57
L4L
sg58
g182
sg59
L4L
sg60
L4L
sg56
g164
sVX
L7L
sg61
g141
sg62
g131
sg63
g155
sg64
g185
stRp1632
ag1
(g1565
g1513
(dp1633
g55
g216
sVY
L4L
sg57
L4L
sg58
g217
sg59
L7L
sg60
L7L
sg56
g155
sVX
L8L
sg61
g133
sg62
g131
sg63
g166
sg64
g220
stRp1634
ag1
(g1565
g1513
(dp1635
g55
g233
sVY
L3L
sg57
L4L
sg58
g234
sg59
L6L
sg60
L6L
sg56
g166
sVX
L5L
sg61
g176
sg62
g143
sg63
g145
sg64
g220
stRp1636
ag1
(g1565
g1513
(dp1637
g55
g139
sVY
L2L
sg57
L4L
sg58
g140
sg59
L8L
sg60
L8L
sg56
g143
sVX
L4L
sg61
g141
sg62
g145
sg63
g133
sg64
g146
stRp1638
ag1
(g1565
g1513
(dp1639
g55
g225
sVY
L5L
sg57
L4L
sg58
g226
sg59
L3L
sg60
L3L
sg56
g145
sVX
L9L
sg61
g141
sg62
g143
sg63
g176
sg64
g146
stRp1640
asg1578
Nsg1579
I10
sg1580
I18
sg1581
I0
sg1582
I18
sbag1
(g1501
g3
NtRp1641
(dp1642
g1504
Nsg1505
(lp1643
sg1507
I342590448
sg10
g1586
sg6
g1509
sg1510
I1
sg24
I01
sg25
g26
sg1511
g1
(g1512
g1513
(dp1644
g22
g1529
(g1530
g1516
g1531
S'b'
tRp1645
(I1
(I18
I1
tg1533
I00
S'\x00\x00\x80?\x00\x00\x80?\x00\x00\x80?\x00\x00\x80?\x00\x00\x80?\x00\x00\x80?\x00\x00\x80?\x00\x00\x80?\x00\x00\x80?\x00\x00\x80?\x00\x00\x80?\x00\x00\x80?\x00\x00\x80?\x00\x00\x80?\x00\x00\x80?\x00\x00\x80?\x00\x00\x80?\x00\x00\x80?'
S'\x00\x00\x00\x00\x00\x00\x00\x00\x00\x00\x00\x00\x00\x00\x00\x00\x00\x00'
Ntbsg19
g1515
(g1516
(I0
tS'b'
tRp1646
(I1
(I18
I1
tg1518
I00
(lp1647
g346
ag314
ag374
ag297
ag458
ag336
ag392
ag401
ag442
ag417
ag409
ag326
ag450
ag382
ag434
ag364
ag354
ag426
atbsg23
g1529
(g1530
g1516
g1531
S'b'
tRp1648
(I1
(I18
I1
tg1533
I00
S't\x8b\xa8?>TU@j\x8e\xa8?\x12\xfd\x7f@\x92\xcb\\@~\x86x@\xdc\x0e\x11A\\\x85X@\x82B\xc4@\\Pe@\xe1B\x8c@W1\xb3@F\xfe\xb7@\x122\x83@\x01C\xdc@\x01e\x86@{Re@6\xdd\x85@'
S'\x00\x00\x00\x00\x00\x00\x00\x00\x00\x00\x00\x00\x00\x00\x00\x00\x00\x00'
Ntbsg1528
g1529
(g1530
g1516
g1531
S'b'
tRp1649
(I1
(I18
I1
tg1533
I00
S'\x00\x00\x80?\x00\x00\x80?\x00\x00\x80?\x00\x00\x80?\x00\x00\x80?\x00\x00\x80?\x00\x00\x80?\x00\x00\x80?\x00\x00\x80?\x00\x00\x80?\x00\x00\x80?\x00\x00\x80?\x00\x00\x80?\x00\x00\x80?\x00\x00\x80?\x00\x00\x80?\x00\x00\x80?\x00\x00\x80?'
S'\x00\x00\x00\x00\x00\x00\x00\x00\x00\x00\x00\x00\x00\x00\x00\x00\x00\x00'
Ntbsg21
g1515
(g1516
(I0
tS'b'
tRp1650
(I1
(I18
I1
tg1518
I00
(lp1651
S'2'
aS'3'
aS'1'
aS'6'
aS'9'
aS'4'
aS'6'
aS'3'
aS'7'
aS'1'
aS'8'
aS'8'
aS'8'
aS'2'
aS'8'
aS'1'
aS'6'
aS'6'
atbsg1543
g1529
(g1530
g1516
g1531
S'b'
tRp1652
(I1
(I18
I1
tg1533
I00
S'\x00\x00\x80@\x00\x00\x80?\x00\x00\xe0@\x00\x00\x00\x00\x00\x00\x88A\x00\x00@@\x00\x00\x10A\x00\x00 A\x00\x00pA\x00\x00@A\x00\x000A\x00\x00\x00@\x00\x00\x80A\x00\x00\x00A\x00\x00`A\x00\x00\xc0@\x00\x00\xa0@\x00\x00PA'
S'\x00\x00\x00\x00\x00\x00\x00\x00\x00\x00\x00\x00\x00\x00\x00\x00\x00\x00'
Ntbsg20
g1529
(g1530
g1516
g1531
S'b'
tRp1653
(I1
(I18
I1
tg1533
I00
S'\x11{\x97?\x15\\U?\xd5\x8fH?\x0fg\x06@\xb3y\x97?74\xb3?\xbdw\xb7?\x8dU\x95?\xf7B\x14@\x8fy\xb7?\xd3R%@\x00\x0fQ@\xbb\x979@~\xfd\xa7@\xa9\xff\x0f@S\x9eY@Pb&@\x8a\xb9;@'
S'\x00\x00\x00\x00\x00\x00\x00\x00\x00\x00\x00\x00\x00\x00\x00\x00\x00\x00'
NtbstRp1654
(dp1655
g1548
(dp1656
g1528
I01
sg21
I00
sg20
I01
sg22
I01
sg19
I00
sg23
I01
sg1543
I01
ssg1550
g1641
sg1551
(lp1657
g1528
ag1543
ag19
ag20
ag21
ag22
ag23
asg1553
(lp1658
I18
aI1
asbsg1555
g1556
sg1557
g1515
(g1516
(I0
tS'b'
tRp1659
(I1
(I18
I1
tg1518
I00
(lp1660
I3
aI1
aI11
aI5
aI0
aI16
aI15
aI2
aI13
aI6
aI7
aI10
aI9
aI17
aI14
aI8
aI12
aI4
atbsg1560
I01
sg1561
I1
sg1562
I-1
sg1563
(lp1661
g1
(g1565
g1513
(dp1662
g291
g344
sVY
L2L
sg293
L2L
sg294
g345
sg301
L2L
sg298
L2L
sg299
g304
sVX
L3L
sg296
L0L
sg303
g338
sg305
L0L
sg306
g318
stRp1663
ag1
(g1565
g1513
(dp1664
g291
g312
sVY
L2L
sg293
L2L
sg294
g313
sg301
L3L
sg298
L3L
sg299
g315
sVX
L6L
sg296
L0L
sg303
g317
sg305
L0L
sg306
g318
stRp1665
ag1
(g1565
g1513
(dp1666
g291
g372
sVY
L4L
sg293
L2L
sg294
g373
sg301
L1L
sg298
L1L
sg299
g338
sVX
L8L
sg296
L0L
sg303
g315
sg305
L0L
sg306
g307
stRp1667
ag1
(g1565
g1513
(dp1668
g291
g292
sVY
L2L
sg293
L2L
sg294
g295
sg301
L6L
sg298
L6L
sg299
g300
sVX
L3L
sg296
L0L
sg303
g304
sg305
L0L
sg306
g307
stRp1669
ag1
(g1565
g1513
(dp1670
g291
g456
sVY
L8L
sg293
L3L
sg294
g457
sg301
L9L
sg298
L9L
sg299
g356
sVX
L6L
sg296
g366
sg303
g300
sg305
L0L
sg306
g339
stRp1671
ag1
(g1565
g1513
(dp1672
g291
g334
sVY
L2L
sg293
L3L
sg294
g335
sg301
L4L
sg298
L4L
sg299
g315
sVX
L3L
sg296
g325
sg303
g338
sg305
L0L
sg306
g339
stRp1673
ag1
(g1565
g1513
(dp1674
g291
g390
sVY
L3L
sg293
L3L
sg294
g391
sg301
L6L
sg298
L6L
sg299
g300
sVX
L3L
sg296
g325
sg303
g356
sg305
L0L
sg306
g394
stRp1675
ag1
(g1565
g1513
(dp1676
g291
g399
sVY
L2L
sg293
L3L
sg294
g400
sg301
L3L
sg298
L3L
sg299
g317
sVX
L8L
sg296
g356
sg303
g304
sg305
L0L
sg306
g394
stRp1677
ag1
(g1565
g1513
(dp1678
g291
g440
sVY
L3L
sg293
L3L
sg294
g441
sg301
L7L
sg298
L7L
sg299
g325
sVX
L6L
sg296
g338
sg303
g304
sg305
L0L
sg306
g419
stRp1679
ag1
(g1565
g1513
(dp1680
g291
g415
sVY
L3L
sg293
L3L
sg294
g416
sg301
L1L
sg298
L1L
sg299
g356
sVX
L3L
sg296
g300
sg303
g366
sg305
L0L
sg306
g419
stRp1681
ag1
(g1565
g1513
(dp1682
g291
g407
sVY
L6L
sg293
L4L
sg294
g408
sg301
L8L
sg298
L8L
sg299
g328
sVX
L6L
sg296
g315
sg303
g300
sg305
g366
sg306
g329
stRp1683
ag1
(g1565
g1513
(dp1684
g291
g323
sVY
L9L
sg293
L4L
sg294
g324
sg301
L8L
sg298
L8L
sg299
g315
sVX
L3L
sg296
g325
sg303
g317
sg305
g328
sg306
g329
stRp1685
ag1
(g1565
g1513
(dp1686
g291
g448
sVY
L2L
sg293
L4L
sg294
g449
sg301
L8L
sg298
L8L
sg299
g300
sVX
L3L
sg296
g304
sg303
g328
sg305
g366
sg306
g385
stRp1687
ag1
(g1565
g1513
(dp1688
g291
g380
sVY
L3L
sg293
L4L
sg294
g381
sg301
L2L
sg298
L2L
sg299
g383
sVX
L2L
sg296
g328
sg303
g366
sg305
g315
sg306
g385
stRp1689
ag1
(g1565
g1513
(dp1690
g291
g432
sVY
L7L
sg293
L4L
sg294
g433
sg301
L8L
sg298
L8L
sg299
g328
sVX
L6L
sg296
g300
sg303
g366
sg305
g315
sg306
g367
stRp1691
ag1
(g1565
g1513
(dp1692
g291
g362
sVY
L9L
sg293
L4L
sg294
g363
sg301
L1L
sg298
L1L
sg299
g304
sVX
L9L
sg296
g338
sg303
g366
sg305
g328
sg306
g367
stRp1693
ag1
(g1565
g1513
(dp1694
g291
g352
sVY
L3L
sg293
L4L
sg294
g353
sg301
L6L
sg298
L6L
sg299
g325
sVX
L9L
sg296
g304
sg303
g356
sg305
g338
sg306
g357
stRp1695
ag1
(g1565
g1513
(dp1696
g291
g424
sVY
L4L
sg293
L4L
sg294
g425
sg301
L6L
sg298
L6L
sg299
g328
sVX
L2L
sg296
g304
sg303
g366
sg305
g383
sg306
g357
stRp1697
asg1578
Nsg1579
I4
sg1580
I18
sg1581
I0
sg1582
I18
sbag1
(g1501
g3
NtRp1698
(dp1699
g1504
Nsg1505
(lp1700
sg1507
I342590448
sg10
g1586
sg6
g1509
sg1510
I1
sg24
I01
sg25
g26
sg1511
g1
(g1512
g1513
(dp1701
g22
g1529
(g1530
g1516
g1531
S'b'
tRp1702
(I1
(I18
I1
tg1533
I00
S'\x00\x00\x80?\x00\x00\x80?\x00\x00\x80?\x00\x00\x80?\x00\x00\x80?\x00\x00\x80?\x00\x00\x80?\x00\x00\x80?\x00\x00\x80?\x00\x00\x80?\x00\x00\x80?\x00\x00\x80?\x00\x00\x00\x00\x00\x00\x80?\x00\x00\x80?\x00\x00\x80?\x00\x00\x00\x00\x00\x00\x80?'
S'\x00\x00\x00\x00\x00\x00\x00\x00\x00\x00\x00\x00\x00\x00\x00\x00\x00\x00'
Ntbsg19
g1515
(g1516
(I0
tS'b'
tRp1703
(I1
(I18
I1
tg1518
I00
(lp1704
g564
ag607
ag615
ag598
ag631
ag573
ag489
ag520
ag623
ag547
ag510
ag500
ag471
ag556
ag582
ag538
ag528
ag590
atbsg23
g1529
(g1530
g1516
g1531
S'b'
tRp1705
(I1
(I18
I1
tg1533
I00
S"'6\xb3?\xb1\xdd\x1d@\x8f\x13\xd1?\x97\xe0\xbd?,\x0e\xa1@Te\x86@Z\xa7J@,eV@\xc4 R@\xd8\x989@\xc31\x93@\x05\xb9\xcb@D\xfb\x7fA+A\x8c@\x120\x13A\xe2\xdb}@\x11\xba\x9b@\xc6\xeb\xde@"
S'\x00\x00\x00\x00\x00\x00\x00\x00\x00\x00\x00\x00\x00\x00\x00\x00\x00\x00'
Ntbsg1528
g1529
(g1530
g1516
g1531
S'b'
tRp1706
(I1
(I18
I1
tg1533
I00
S'\x00\x00\x80?\x00\x00\x80?\x00\x00\x80?\x00\x00\x80?\x00\x00\x80?\x00\x00\x80?\x00\x00\x80?\x00\x00\x80?\x00\x00\x80?\x00\x00\x80?\x00\x00\x80?\x00\x00\x80?\x00\x00\x80?\x00\x00\x80?\x00\x00\x80?\x00\x00\x80?\x00\x00\x80?\x00\x00\x80?'
S'\x00\x00\x00\x00\x00\x00\x00\x00\x00\x00\x00\x00\x00\x00\x00\x00\x00\x00'
Ntbsg21
g1515
(g1516
(I0
tS'b'
tRp1707
(I1
(I18
I1
tg1518
I00
(lp1708
S'7'
aS'9'
aS'2'
aS'5'
aS'9'
aS'3'
aS'8'
aS'3'
aS'9'
aS'6'
aS'5'
aS'9'
aS'9'
aS'7'
aS'6'
aS'9'
aS'7'
aS'5'
atbsg1543
g1529
(g1530
g1516
g1531
S'b'
tRp1709
(I1
(I18
I1
tg1533
I00
S'\x00\x00\x10A\x00\x00`A\x00\x00pA\x00\x00PA\x00\x00\x88A\x00\x00 A\x00\x00\x80?\x00\x00\x80@\x00\x00\x80A\x00\x00\xe0@\x00\x00@@\x00\x00\x00@\x00\x00\x00\x00\x00\x00\x00A\x00\x000A\x00\x00\xc0@\x00\x00\xa0@\x00\x00@A'
S'\x00\x00\x00\x00\x00\x00\x00\x00\x00\x00\x00\x00\x00\x00\x00\x00\x00\x00'
Ntbsg20
g1529
(g1530
g1516
g1531
S'b'
tRp1710
(I1
(I18
I1
tg1533
I00
S'\xa6\x05@?\xc4\xe3]?\x8b\xc1;?Qh\x86?\x92\xab\x1a@\xab\xa0Y?\xba\xee\xee?\x88\x02\xa0?\xcd\x88\xe8?\xe9\xec\x96@\xc913@>\xb9\x1b@^\x86h@\xa3U\xd5?|\x00\xe0?\x7fBD@\xcaC\x14@\x17\xedN@'
S'\x00\x00\x00\x00\x00\x00\x00\x00\x00\x00\x00\x00\x00\x00\x00\x00\x00\x00'
NtbstRp1711
(dp1712
g1548
(dp1713
g1528
I01
sg21
I00
sg20
I01
sg22
I01
sg19
I00
sg23
I01
sg1543
I01
ssg1550
g1698
sg1551
(lp1714
g1528
ag1543
ag19
ag20
ag21
ag22
ag23
asg1553
(lp1715
I18
aI1
asbsg1555
g1556
sg1557
g1515
(g1516
(I0
tS'b'
tRp1716
(I1
(I18
I1
tg1518
I00
(lp1717
I12
aI6
aI11
aI10
aI7
aI16
aI15
aI9
aI13
aI0
aI5
aI14
aI17
aI3
aI1
aI2
aI8
aI4
atbsg1560
I01
sg1561
I1
sg1562
I-1
sg1563
(lp1718
g1
(g1565
g1513
(dp1719
g464
g562
sVY
L5L
sg466
L2L
sg467
g563
sg475
L7L
sg472
L7L
sg473
g478
sVX
L4L
sg469
L0L
sg477
g530
sg479
L0L
sg481
g566
stRp1720
ag1
(g1565
g1513
(dp1721
g464
g605
sVY
L3L
sg466
L2L
sg467
g606
sg475
L9L
sg472
L9L
sg473
g480
sVX
L4L
sg469
L0L
sg477
g474
sg479
L0L
sg481
g566
stRp1722
ag1
(g1565
g1513
(dp1723
g464
g613
sVY
L8L
sg466
L2L
sg467
g614
sg475
L2L
sg472
L2L
sg473
g513
sVX
L8L
sg469
L0L
sg477
g511
sg479
L0L
sg481
g600
stRp1724
ag1
(g1565
g1513
(dp1725
g464
g596
sVY
L2L
sg466
L2L
sg467
g597
sg475
L5L
sg472
L5L
sg473
g513
sVX
L8L
sg469
L0L
sg477
g499
sg479
L0L
sg481
g600
stRp1726
ag1
(g1565
g1513
(dp1727
g464
g629
sVY
L2L
sg466
L3L
sg467
g630
sg475
L9L
sg472
L9L
sg473
g480
sVX
L7L
sg469
g470
sg477
g513
sg479
L0L
sg481
g575
stRp1728
ag1
(g1565
g1513
(dp1729
g464
g571
sVY
L2L
sg466
L3L
sg467
g572
sg475
L3L
sg472
L3L
sg473
g499
sVX
L8L
sg469
g478
sg477
g474
sg479
L0L
sg481
g575
stRp1730
ag1
(g1565
g1513
(dp1731
g464
g487
sVY
L2L
sg466
L3L
sg467
g488
sg475
L8L
sg472
L8L
sg473
g490
sVX
L9L
sg469
g470
sg477
g478
sg479
L0L
sg481
g492
stRp1732
ag1
(g1565
g1513
(dp1733
g464
g518
sVY
L3L
sg466
L3L
sg467
g519
sg475
L3L
sg472
L3L
sg473
g513
sVX
L2L
sg469
g480
sg477
g499
sg479
L0L
sg481
g492
stRp1734
ag1
(g1565
g1513
(dp1735
g464
g621
sVY
L3L
sg466
L3L
sg467
g622
sg475
L9L
sg472
L9L
sg473
g478
sVX
L3L
sg469
g530
sg477
g480
sg479
L0L
sg481
g549
stRp1736
ag1
(g1565
g1513
(dp1737
g464
g545
sVY
L2L
sg466
L3L
sg467
g546
sg475
L6L
sg472
L6L
sg473
g499
sVX
L3L
sg469
g474
sg477
g480
sg479
L0L
sg481
g549
stRp1738
ag1
(g1565
g1513
(dp1739
g464
g508
sVY
L4L
sg466
L4L
sg467
g509
sg475
L5L
sg472
L5L
sg473
g511
sVX
L3L
sg469
g499
sg477
g513
sg479
g480
sg481
g503
stRp1740
ag1
(g1565
g1513
(dp1741
g464
g497
sVY
L9L
sg466
L4L
sg467
g498
sg475
L9L
sg472
L9L
sg473
g478
sVX
L3L
sg469
g499
sg477
g490
sg479
g502
sg481
g503
stRp1742
ag1
(g1565
g1513
(dp1743
g464
g465
sVY
L4L
sg466
L4L
sg467
g468
sg475
L5L
sg472
L5L
sg473
g474
sVX
L5L
sg469
g470
sg477
g478
sg479
g480
sg481
g482
stRp1744
ag1
(g1565
g1513
(dp1745
g464
g554
sVY
L2L
sg466
L4L
sg467
g555
sg475
L7L
sg472
L7L
sg473
g490
sVX
L2L
sg469
g480
sg477
g499
sg479
g478
sg481
g482
stRp1746
ag1
(g1565
g1513
(dp1747
g464
g580
sVY
L4L
sg466
L4L
sg467
g581
sg475
L6L
sg472
L6L
sg473
g511
sVX
L4L
sg469
g474
sg477
g480
sg479
g499
sg481
g540
stRp1748
ag1
(g1565
g1513
(dp1749
g464
g536
sVY
L8L
sg466
L4L
sg467
g537
sg475
L9L
sg472
L9L
sg473
g499
sVX
L8L
sg469
g513
sg477
g480
sg479
g511
sg481
g540
stRp1750
ag1
(g1565
g1513
(dp1751
g464
g526
sVY
L4L
sg466
L4L
sg467
g527
sg475
L5L
sg472
L5L
sg473
g502
sVX
L5L
sg469
g511
sg477
g470
sg479
g530
sg481
g531
stRp1752
ag1
(g1565
g1513
(dp1753
g464
g588
sVY
L4L
sg466
L4L
sg467
g589
sg475
L5L
sg472
L5L
sg473
g499
sVX
L7L
sg469
g478
sg477
g502
sg479
g490
sg481
g531
stRp1754
asg1578
Nsg1579
I4
sg1580
I18
sg1581
I0
sg1582
I18
sbag1
(g1501
g3
NtRp1755
(dp1756
g1504
Nsg1505
(lp1757
sg1507
I342590448
sg10
g1586
sg6
g1509
sg1510
I1
sg24
I01
sg25
g26
sg1511
g1
(g1512
g1513
(dp1758
g22
g1529
(g1530
g1516
g1531
S'b'
tRp1759
(I1
(I18
I1
tg1533
I00
S'\x00\x00\x80?\x00\x00\x80?\x00\x00\x80?\x00\x00\x80?\x00\x00\x80?\x00\x00\x80?\x00\x00\x80?\x00\x00\x80?\x00\x00\x80?\x00\x00\x80?\x00\x00\x00\x00\x00\x00\x80?\x00\x00\x80?\x00\x00\x00\x00\x00\x00\x80?\x00\x00\x80?\x00\x00\x80?\x00\x00\x80?'
S'\x00\x00\x00\x00\x00\x00\x00\x00\x00\x00\x00\x00\x00\x00\x00\x00\x00\x00'
Ntbsg19
g1515
(g1516
(I0
tS'b'
tRp1760
(I1
(I18
I1
tg1518
I00
(lp1761
g643
ag693
ag737
ag763
ag729
ag720
ag746
ag755
ag673
ag788
ag683
ag771
ag661
ag712
ag702
ag796
ag804
ag779
atbsg23
g1529
(g1530
g1516
g1531
S'b'
tRp1762
(I1
(I18
I1
tg1533
I00
S'\x17\x97\xc1@\xf0\xed\x86@J\x0fq@\xb4!2@\r\xdcm@\xce\xdcM@\xfa\xdf\r@\x1a\x10A@\x85B\x9c@Muw@\x82s_A\x86d\xa6@\x89\xc9\xec@\x00\x00\x00\x00\x8a\xb7CAW\x0e\xc9@x0#A\xe5\x0e\xb1@'
S'\x00\x00\x00\x00\x00\x00\x00\x00\x00\x00\x00\x00\x00\x01\x00\x00\x00\x00'
Ntbsg1528
g1529
(g1530
g1516
g1531
S'b'
tRp1763
(I1
(I18
I1
tg1533
I00
S'\x00\x00\x80?\x00\x00\x80?\x00\x00\x80?\x00\x00\x80?\x00\x00\x80?\x00\x00\x80?\x00\x00\x80?\x00\x00\x80?\x00\x00\x80?\x00\x00\x80?\x00\x00\x80?\x00\x00\x80?\x00\x00\x80?\x00\x00\x80?\x00\x00\x80?\x00\x00\x80?\x00\x00\x80?\x00\x00\x80?'
S'\x00\x00\x00\x00\x00\x00\x00\x00\x00\x00\x00\x00\x00\x00\x00\x00\x00\x00'
Ntbsg21
g1515
(g1516
(I0
tS'b'
tRp1764
(I1
(I18
I1
tg1518
I00
(lp1765
S'1'
aS'8'
aS'4'
aS'1'
aS'3'
aS'9'
aS'1'
aS'6'
aS'6'
aS'8'
aS'2'
aS'1'
aS'6'
aNaS'5'
aS'5'
aS'5'
aS'3'
atbsg1543
g1529
(g1530
g1516
g1531
S'b'
tRp1766
(I1
(I18
I1
tg1533
I00
S'\x00\x00\x00\x00\x00\x00\x80@\x00\x00\x10A\x00\x00@A\x00\x00\x00A\x00\x00\xe0@\x00\x00 A\x00\x000A\x00\x00\x00@\x00\x00pA\x00\x00@@\x00\x00PA\x00\x00\x80?\x00\x00\xc0@\x00\x00\xa0@\x00\x00\x80A\x00\x00\x88A\x00\x00`A'
S'\x00\x00\x00\x00\x00\x00\x00\x00\x00\x00\x00\x00\x00\x00\x00\x00\x00\x00'
Ntbsg20
g1529
(g1530
g1516
g1531
S'b'
tRp1767
(I1
(I18
I1
tg1533
I00
S'\x96\x89\xa8?\x83\xac\x8a?\xf0\xac\x8a?\t\xd2L?r4\xb3?\x02x\xd7?\x1a4\xb3?\x9f\xcf\xec?\xc2\xea\x8e?D\xef\xee?\x01\x88\x18@\xbbv\x17@2\xce\xac?\xcd\xcc\xec?0\x10\x01@^T%@\xce\x98\x19@\xf3\x0f1@'
S'\x00\x00\x00\x00\x00\x00\x00\x00\x00\x00\x00\x00\x00\x00\x00\x00\x00\x00'
NtbstRp1768
(dp1769
g1548
(dp1770
g1528
I01
sg21
I00
sg20
I01
sg22
I01
sg19
I00
sg23
I01
sg1543
I01
ssg1550
g1755
sg1551
(lp1771
g1528
ag1543
ag19
ag20
ag21
ag22
ag23
asg1553
(lp1772
I18
aI1
asbsg1555
g1556
sg1557
g1515
(g1516
(I0
tS'b'
tRp1773
(I1
(I18
I1
tg1518
I00
(lp1774
I0
aI12
aI8
aI10
aI1
aI14
aI13
aI5
aI4
aI2
aI6
aI7
aI3
aI11
aI17
aI9
aI15
aI16
atbsg1560
I01
sg1561
I1
sg1562
I-1
sg1563
(lp1775
g1
(g1565
g1513
(dp1776
g637
g638
sVY
L3L
sg639
L2L
sg640
g641
sg647
L1L
sg644
L1L
sg645
g646
sVX
L9L
sg642
L0L
sg649
g650
sg651
L0L
sg652
g653
stRp1777
ag1
(g1565
g1513
(dp1778
g637
g691
sVY
L2L
sg639
L2L
sg640
g692
sg647
L8L
sg644
L8L
sg645
g663
sVX
L2L
sg642
L0L
sg649
g695
sg651
L0L
sg652
g653
stRp1779
ag1
(g1565
g1513
(dp1780
g637
g735
sVY
L3L
sg639
L2L
sg640
g736
sg647
L4L
sg644
L4L
sg645
g685
sVX
L6L
sg642
L0L
sg649
g664
sg651
L0L
sg652
g739
stRp1781
ag1
(g1565
g1513
(dp1782
g637
g761
sVY
L2L
sg639
L2L
sg640
g762
sg647
L1L
sg644
L1L
sg645
g650
sVX
L6L
sg642
L0L
sg649
g646
sg651
L0L
sg652
g739
stRp1783
ag1
(g1565
g1513
(dp1784
g637
g727
sVY
L9L
sg639
L3L
sg640
g728
sg647
L3L
sg644
L3L
sg645
g660
sVX
L5L
sg642
g674
sg649
g685
sg651
L0L
sg652
g722
stRp1785
ag1
(g1565
g1513
(dp1786
g637
g718
sVY
L3L
sg639
L3L
sg640
g719
sg647
L9L
sg644
L9L
sg645
g711
sVX
L5L
sg642
g664
sg649
g695
sg651
L0L
sg652
g722
stRp1787
ag1
(g1565
g1513
(dp1788
g637
g744
sVY
L2L
sg639
L3L
sg640
g745
sg647
L1L
sg644
L1L
sg645
g650
sVX
L7L
sg642
g674
sg649
g646
sg651
L0L
sg652
g748
stRp1789
ag1
(g1565
g1513
(dp1790
g637
g753
sVY
L6L
sg639
L3L
sg640
g754
sg647
L6L
sg644
L6L
sg645
g695
sVX
L6L
sg642
g711
sg649
g646
sg651
L0L
sg652
g748
stRp1791
ag1
(g1565
g1513
(dp1792
g637
g670
sVY
L2L
sg639
L3L
sg640
g671
sg647
L6L
sg644
L6L
sg645
g674
sVX
L2L
sg642
g672
sg649
g663
sg651
L0L
sg652
g676
stRp1793
ag1
(g1565
g1513
(dp1794
g637
g786
sVY
L6L
sg639
L3L
sg640
g787
sg647
L8L
sg644
L8L
sg645
g646
sVX
L2L
sg642
g695
sg649
g663
sg651
L0L
sg652
g676
stRp1795
ag1
(g1565
g1513
(dp1796
g637
g681
sVY
L4L
sg639
L4L
sg640
g682
sg647
L8L
sg644
L8L
sg645
g663
sVX
L3L
sg642
g660
sg649
g685
sg651
g674
sg652
g686
stRp1797
ag1
(g1565
g1513
(dp1798
g637
g769
sVY
L8L
sg639
L4L
sg640
g770
sg647
L1L
sg644
L1L
sg645
g660
sVX
L2L
sg642
g674
sg649
g685
sg651
g663
sg652
g686
stRp1799
ag1
(g1565
g1513
(dp1800
g637
g658
sVY
L5L
sg639
L4L
sg640
g659
sg647
L6L
sg644
L6L
sg645
g650
sVX
L4L
sg642
g660
sg649
g663
sg651
g664
sg652
g665
stRp1801
ag1
(g1565
g1513
(dp1802
g637
g709
sVY
L3L
sg639
L4L
sg640
g710
sg647
L7L
sg644
L7L
sg645
g672
sVX
L2L
sg642
g711
sg649
g664
sg651
g660
sg652
g665
stRp1803
ag1
(g1565
g1513
(dp1804
g637
g700
sVY
L3L
sg639
L4L
sg640
g701
sg647
L5L
sg644
L5L
sg645
g660
sVX
L3L
sg642
g650
sg649
g674
sg651
g663
sg652
g704
stRp1805
ag1
(g1565
g1513
(dp1806
g637
g794
sVY
L4L
sg639
L4L
sg640
g795
sg647
L5L
sg644
L5L
sg645
g674
sVX
L8L
sg642
g695
sg649
g646
sg651
g711
sg652
g704
stRp1807
ag1
(g1565
g1513
(dp1808
g637
g802
sVY
L2L
sg639
L4L
sg640
g803
sg647
L5L
sg644
L5L
sg645
g660
sVX
L6L
sg642
g711
sg649
g674
sg651
g685
sg652
g781
stRp1809
ag1
(g1565
g1513
(dp1810
g637
g777
sVY
L2L
sg639
L4L
sg640
g778
sg647
L3L
sg644
L3L
sg645
g660
sVX
L3L
sg642
g664
sg649
g711
sg651
g685
sg652
g781
stRp1811
asg1578
Nsg1579
I16
sg1580
I18
sg1581
I0
sg1582
I18
sbag1
(g1501
g3
NtRp1812
(dp1813
g1504
Nsg1505
(lp1814
sg1507
I342590448
sg10
g1586
sg6
g1509
sg1510
I1
sg24
I01
sg25
g26
sg1511
g1
(g1512
g1513
(dp1815
g22
g1529
(g1530
g1516
g1531
S'b'
tRp1816
(I1
(I18
I1
tg1533
I00
S'\x00\x00\x80?\x00\x00\x80?\x00\x00\x80?\x00\x00\x80?\x00\x00\x80?\x00\x00\x80?\x00\x00\x80?\x00\x00\x80?\x00\x00\x80?\x00\x00\x80?\x00\x00\x80?\x00\x00\x80?\x00\x00\x80?\x00\x00\x80?\x00\x00\x80?\x00\x00\x80?\x00\x00\x80?\x00\x00\x80?'
S'\x00\x00\x00\x00\x00\x00\x00\x00\x00\x00\x00\x00\x00\x00\x00\x00\x00\x00'
Ntbsg19
g1515
(g1516
(I0
tS'b'
tRp1817
(I1
(I18
I1
tg1518
I00
(lp1818
g856
ag895
ag846
ag962
ag954
ag836
ag978
ag876
ag929
ag920
ag817
ag912
ag903
ag885
ag970
ag937
ag865
ag946
atbsg23
g1529
(g1530
g1516
g1531
S'b'
tRp1819
(I1
(I18
I1
tg1533
I00
S'9O\xf5?gW\xb5?u\x99)@\x0c\x11\x11@\xaa\x87h@k\x86\xa0@?uG@\xda\xfdo@\xef\x0e\xb1@%\xa8\xc2@De\x86@@\xc9\xa4@_\x0fa@\xb5\x84\xf8@\x17R\xbd@E\x0fq@2\xb9\xbb@}\xed\x8e@'
S'\x00\x00\x00\x00\x00\x00\x00\x00\x00\x00\x00\x00\x00\x00\x00\x00\x00\x00'
Ntbsg1528
g1529
(g1530
g1516
g1531
S'b'
tRp1820
(I1
(I18
I1
tg1533
I00
S'\x00\x00\x80?\x00\x00\x80?\x00\x00\x80?\x00\x00\x80?\x00\x00\x80?\x00\x00\x80?\x00\x00\x80?\x00\x00\x80?\x00\x00\x80?\x00\x00\x80?\x00\x00\x80?\x00\x00\x80?\x00\x00\x80?\x00\x00\x80?\x00\x00\x80?\x00\x00\x80?\x00\x00\x80?\x00\x00\x80?'
S'\x00\x00\x00\x00\x00\x00\x00\x00\x00\x00\x00\x00\x00\x00\x00\x00\x00\x00'
Ntbsg21
g1515
(g1516
(I0
tS'b'
tRp1821
(I1
(I18
I1
tg1518
I00
(lp1822
S'8'
aS'2'
aS'2'
aS'8'
aS'1'
aS'2'
aS'1'
aS'2'
aS'8'
aS'6'
aS'7'
aS'1'
aS'9'
aS'7'
aS'3'
aS'6'
aS'5'
aS'4'
atbsg1543
g1529
(g1530
g1516
g1531
S'b'
tRp1823
(I1
(I18
I1
tg1533
I00
S'\x00\x00@@\x00\x00\xe0@\x00\x00\x00@\x00\x00pA\x00\x00`A\x00\x00\x80?\x00\x00\x88A\x00\x00\xa0@\x00\x000A\x00\x00 A\x00\x00\x00\x00\x00\x00\x10A\x00\x00\x00A\x00\x00\xc0@\x00\x00\x80A\x00\x00@A\x00\x00\x80@\x00\x00PA'
S'\x00\x00\x00\x00\x00\x00\x00\x00\x00\x00\x00\x00\x00\x00\x00\x00\x00\x00'
Ntbsg20
g1529
(g1530
g1516
g1531
S'b'
tRp1824
(I1
(I18
I1
tg1533
I00
S'\x02G\x84?\x9c\xce\xac?\x1e\xa0Y?\x112#@O4\xb3?2\xbe\x9b?\xb74s?[y\x97?\x891C@\x0e\x10!@~\xee\x0e@\x11CD@\x04\x88\x08@\xdbuG@\xe6\xfd_@bf\xc6?\xbb\x86X@\xbdS\x8d@'
S'\x00\x00\x00\x00\x00\x00\x00\x00\x00\x00\x00\x00\x00\x00\x00\x00\x00\x00'
NtbstRp1825
(dp1826
g1548
(dp1827
g1528
I01
sg21
I00
sg20
I01
sg22
I01
sg19
I00
sg23
I01
sg1543
I01
ssg1550
g1812
sg1551
(lp1828
g1528
ag1543
ag19
ag20
ag21
ag22
ag23
asg1553
(lp1829
I18
aI1
asbsg1555
g1556
sg1557
g1515
(g1516
(I0
tS'b'
tRp1830
(I1
(I18
I1
tg1518
I00
(lp1831
I10
aI5
aI2
aI0
aI16
aI7
aI13
aI1
aI12
aI11
aI9
aI8
aI15
aI17
aI4
aI3
aI14
aI6
atbsg1560
I01
sg1561
I1
sg1562
I-1
sg1563
(lp1832
g1
(g1565
g1513
(dp1833
g810
g854
sVY
L4L
sg812
L2L
sg813
g855
sg821
L8L
sg818
L8L
sg819
g848
sVX
L2L
sg815
L0L
sg823
g824
sg825
L0L
sg827
g858
stRp1834
ag1
(g1565
g1513
(dp1835
g810
g893
sVY
L6L
sg812
L2L
sg813
g894
sg821
L2L
sg818
L2L
sg819
g848
sVX
L6L
sg815
L0L
sg823
g868
sg825
L0L
sg827
g858
stRp1836
ag1
(g1565
g1513
(dp1837
g810
g844
sVY
L7L
sg812
L2L
sg813
g845
sg821
L2L
sg818
L2L
sg819
g838
sVX
L8L
sg815
L0L
sg823
g848
sg825
L0L
sg827
g849
stRp1838
ag1
(g1565
g1513
(dp1839
g810
g960
sVY
L4L
sg812
L2L
sg813
g961
sg821
L8L
sg818
L8L
sg819
g886
sVX
L4L
sg815
L0L
sg823
g826
sg825
L0L
sg827
g849
stRp1840
ag1
(g1565
g1513
(dp1841
g810
g952
sVY
L4L
sg812
L3L
sg813
g953
sg821
L1L
sg818
L1L
sg819
g848
sVX
L6L
sg815
g820
sg823
g868
sg825
L0L
sg827
g839
stRp1842
ag1
(g1565
g1513
(dp1843
g810
g833
sVY
L4L
sg812
L3L
sg813
g834
sg821
L2L
sg818
L2L
sg819
g826
sVX
L4L
sg815
g835
sg823
g838
sg825
L0L
sg827
g839
stRp1844
ag1
(g1565
g1513
(dp1845
g810
g976
sVY
L7L
sg812
L3L
sg813
g977
sg821
L1L
sg818
L1L
sg819
g838
sVX
L3L
sg815
g835
sg823
g826
sg825
L0L
sg827
g878
stRp1846
ag1
(g1565
g1513
(dp1847
g810
g874
sVY
L3L
sg812
L3L
sg813
g875
sg821
L2L
sg818
L2L
sg819
g868
sVX
L9L
sg815
g820
sg823
g816
sg825
L0L
sg827
g878
stRp1848
ag1
(g1565
g1513
(dp1849
g810
g927
sVY
L2L
sg812
L3L
sg813
g928
sg821
L8L
sg818
L8L
sg819
g867
sVX
L7L
sg815
g838
sg823
g848
sg825
L0L
sg827
g922
stRp1850
ag1
(g1565
g1513
(dp1851
g810
g918
sVY
L3L
sg812
L3L
sg813
g919
sg821
L6L
sg818
L6L
sg819
g835
sVX
L4L
sg815
g838
sg823
g848
sg825
L0L
sg827
g922
stRp1852
ag1
(g1565
g1513
(dp1853
g810
g811
sVY
L6L
sg812
L4L
sg813
g814
sg821
L7L
sg818
L7L
sg819
g820
sVX
L4L
sg815
g816
sg823
g824
sg825
g826
sg827
g828
stRp1854
ag1
(g1565
g1513
(dp1855
g810
g910
sVY
L5L
sg812
L4L
sg813
g911
sg821
L1L
sg818
L1L
sg819
g816
sVX
L6L
sg815
g848
sg823
g868
sg825
g820
sg827
g828
stRp1856
ag1
(g1565
g1513
(dp1857
g810
g901
sVY
L4L
sg812
L4L
sg813
g902
sg821
L9L
sg818
L9L
sg819
g824
sVX
L9L
sg815
g848
sg823
g905
sg825
g820
sg827
g888
stRp1858
ag1
(g1565
g1513
(dp1859
g810
g883
sVY
L4L
sg812
L4L
sg813
g884
sg821
L7L
sg818
L7L
sg819
g886
sVX
L3L
sg815
g848
sg823
g867
sg825
g820
sg827
g888
stRp1860
ag1
(g1565
g1513
(dp1861
g810
g968
sVY
L6L
sg812
L4L
sg813
g969
sg821
L3L
sg818
L3L
sg819
g820
sVX
L4L
sg815
g886
sg823
g867
sg825
g826
sg827
g939
stRp1862
ag1
(g1565
g1513
(dp1863
g810
g935
sVY
L8L
sg812
L4L
sg813
g936
sg821
L6L
sg818
L6L
sg819
g835
sVX
L9L
sg815
g868
sg823
g848
sg825
g867
sg827
g939
stRp1864
ag1
(g1565
g1513
(dp1865
g810
g863
sVY
L2L
sg812
L4L
sg813
g864
sg821
L5L
sg818
L5L
sg819
g826
sVX
L8L
sg815
g835
sg823
g867
sg825
g868
sg827
g869
stRp1866
ag1
(g1565
g1513
(dp1867
g810
g944
sVY
L4L
sg812
L4L
sg813
g945
sg821
L4L
sg818
L4L
sg819
g867
sVX
L4L
sg815
g835
sg823
g848
sg825
g868
sg827
g869
stRp1868
asg1578
Nsg1579
I6
sg1580
I18
sg1581
I0
sg1582
I18
sbag1
(g1501
g3
NtRp1869
(dp1870
g1504
Nsg1505
(lp1871
sg1507
I342590448
sg10
g1586
sg6
g1509
sg1510
I1
sg24
I01
sg25
g26
sg1511
g1
(g1512
g1513
(dp1872
g22
g1529
(g1530
g1516
g1531
S'b'
tRp1873
(I1
(I18
I1
tg1533
I00
S'\x00\x00\x80?\x00\x00\x80?\x00\x00\x80?\x00\x00\x80?\x00\x00\x80?\x00\x00\x80?\x00\x00\x80?\x00\x00\x80?\x00\x00\x80?\x00\x00\x80?\x00\x00\x80?\x00\x00\x80?\x00\x00\x80?\x00\x00\x80?\x00\x00\x80?\x00\x00\x80?\x00\x00\x80?\x00\x00\x80?'
S'\x00\x00\x00\x00\x00\x00\x00\x00\x00\x00\x00\x00\x00\x00\x00\x00\x00\x00'
Ntbsg19
g1515
(g1516
(I0
tS'b'
tRp1874
(I1
(I18
I1
tg1518
I00
(lp1875
g1031
ag1103
ag1127
ag1008
ag1111
ag1094
ag991
ag1069
ag1151
ag1085
ag1119
ag1060
ag1049
ag1077
ag1143
ag1040
ag1135
ag1019
atbsg23
g1529
(g1530
g1516
g1531
S'b'
tRp1876
(I1
(I18
I1
tg1533
I00
S'\xcf\xff\xdf?\xcf\x99\x19@|\xdcM@-\xccl@\xe2\x97\x89@\xb0\xdc}@\x18\xa9\xa2@\xe8!"@\x19\xee>@\xd3\x89(@G\xed\x86@3 \xa2@\x0cc\xde@\x95\x1eJA\xa5\xfe\x87@\x8d\xed\xa6@\x1c\xed\x9e@\xe2\x1e\xca@'
S'\x00\x00\x00\x00\x00\x00\x00\x00\x00\x00\x00\x00\x00\x00\x00\x00\x00\x00'
Ntbsg1528
g1529
(g1530
g1516
g1531
S'b'
tRp1877
(I1
(I18
I1
tg1533
I00
S'\x00\x00\x80?\x00\x00\x80?\x00\x00\x80?\x00\x00\x80?\x00\x00\x80?\x00\x00\x80?\x00\x00\x80?\x00\x00\x80?\x00\x00\x80?\x00\x00\x80?\x00\x00\x80?\x00\x00\x80?\x00\x00\x80?\x00\x00\x80?\x00\x00\x80?\x00\x00\x80?\x00\x00\x80?\x00\x00\x80?'
S'\x00\x00\x00\x00\x00\x00\x00\x00\x00\x00\x00\x00\x00\x00\x00\x00\x00\x00'
Ntbsg21
g1515
(g1516
(I0
tS'b'
tRp1878
(I1
(I18
I1
tg1518
I00
(lp1879
S'4'
aS'6'
aS'3'
aS'1'
aS'9'
aS'5'
aS'5'
aS'5'
aS'8'
aS'3'
aS'3'
aS'9'
aS'4'
aS'3'
aS'8'
aS'6'
aS'1'
aS'6'
atbsg1543
g1529
(g1530
g1516
g1531
S'b'
tRp1880
(I1
(I18
I1
tg1533
I00
S'\x00\x00@@\x00\x000A\x00\x00`A\x00\x00\x80?\x00\x00@A\x00\x00 A\x00\x00\x00\x00\x00\x00\xe0@\x00\x00\x88A\x00\x00\x10A\x00\x00PA\x00\x00\xc0@\x00\x00\xa0@\x00\x00\x00A\x00\x00\x80A\x00\x00\x80@\x00\x00pA\x00\x00\x00@'
S'\x00\x00\x00\x00\x00\x00\x00\x00\x00\x00\x00\x00\x00\x00\x00\x00\x00\x00'
Ntbsg20
g1529
(g1530
g1516
g1531
S'b'
tRp1881
(I1
(I18
I1
tg1533
I00
S'\xd7$\x82?D!b?\x7fi\x86?\x03\xf9\xbf?K}w?\x9dU\xd5?g\x08\xb1?\xb4\xbd\x9b?5w\x07@\xe3#\xa2?\xc3 B@Q\xdbm@\x86\xed.@\xa5\x98)@\x99\xbc\xbb?[\xb8\x0b@6\xc6\xcc?\x970\x13@'
S'\x00\x00\x00\x00\x00\x00\x00\x00\x00\x00\x00\x00\x00\x00\x00\x00\x00\x00'
NtbstRp1882
(dp1883
g1548
(dp1884
g1528
I01
sg21
I00
sg20
I01
sg22
I01
sg19
I00
sg23
I01
sg1543
I01
ssg1550
g1869
sg1551
(lp1885
g1528
ag1543
ag19
ag20
ag21
ag22
ag23
asg1553
(lp1886
I18
aI1
asbsg1555
g1556
sg1557
g1515
(g1516
(I0
tS'b'
tRp1887
(I1
(I18
I1
tg1518
I00
(lp1888
I6
aI3
aI17
aI0
aI15
aI12
aI11
aI7
aI13
aI9
aI5
aI1
aI4
aI10
aI2
aI16
aI14
aI8
atbsg1560
I01
sg1561
I1
sg1562
I-1
sg1563
(lp1889
g1
(g1565
g1513
(dp1890
g984
g1029
sVY
L2L
sg986
L2L
sg987
g1030
sg995
L4L
sg992
L4L
sg993
g1020
sVX
L3L
sg989
L0L
sg997
g1023
sg999
L0L
sg1000
g1033
stRp1891
ag1
(g1565
g1513
(dp1892
g984
g1101
sVY
L2L
sg986
L2L
sg987
g1102
sg995
L6L
sg992
L6L
sg993
g990
sVX
L2L
sg989
L0L
sg997
g1023
sg999
L0L
sg1000
g1033
stRp1893
ag1
(g1565
g1513
(dp1894
g984
g1125
sVY
L5L
sg986
L2L
sg987
g1126
sg995
L3L
sg992
L3L
sg993
g994
sVX
L4L
sg989
L0L
sg997
g998
sg999
L0L
sg1000
g1011
stRp1895
ag1
(g1565
g1513
(dp1896
g984
g1006
sVY
L2L
sg986
L2L
sg987
g1007
sg995
L1L
sg992
L1L
sg993
g1009
sVX
L5L
sg989
L0L
sg997
g998
sg999
L0L
sg1000
g1011
stRp1897
ag1
(g1565
g1513
(dp1898
g984
g1109
sVY
L3L
sg986
L3L
sg987
g1110
sg995
L9L
sg992
L9L
sg993
g1020
sVX
L8L
sg989
g1018
sg997
g1023
sg999
L0L
sg1000
g1096
stRp1899
ag1
(g1565
g1513
(dp1900
g984
g1092
sVY
L5L
sg986
L3L
sg987
g1093
sg995
L5L
sg992
L5L
sg993
g998
sVX
L6L
sg989
g1018
sg997
g1023
sg999
L0L
sg1000
g1096
stRp1901
ag1
(g1565
g1513
(dp1902
g984
g985
sVY
L7L
sg986
L3L
sg987
g988
sg995
L5L
sg992
L5L
sg993
g994
sVX
L7L
sg989
g990
sg997
g998
sg999
L0L
sg1000
g1001
stRp1903
ag1
(g1565
g1513
(dp1904
g984
g1067
sVY
L5L
sg986
L3L
sg987
g1068
sg995
L5L
sg992
L5L
sg993
g1023
sVX
L4L
sg989
g1020
sg997
g998
sg999
L0L
sg1000
g1001
stRp1905
ag1
(g1565
g1513
(dp1906
g984
g1149
sVY
L5L
sg986
L3L
sg987
g1150
sg995
L8L
sg992
L8L
sg993
g1020
sVX
L5L
sg989
g1023
sg997
g998
sg999
L0L
sg1000
g1087
stRp1907
ag1
(g1565
g1513
(dp1908
g984
g1083
sVY
L2L
sg986
L3L
sg987
g1084
sg995
L3L
sg992
L3L
sg993
g1018
sVX
L4L
sg989
g1050
sg997
g1022
sg999
L0L
sg1000
g1087
stRp1909
ag1
(g1565
g1513
(dp1910
g984
g1117
sVY
L5L
sg986
L4L
sg987
g1118
sg995
L3L
sg992
L3L
sg993
g1018
sVX
L5L
sg989
g990
sg997
g1009
sg999
g1022
sg1000
g1062
stRp1911
ag1
(g1565
g1513
(dp1912
g984
g1058
sVY
L3L
sg986
L4L
sg987
g1059
sg995
L9L
sg992
L9L
sg993
g990
sVX
L3L
sg989
g998
sg997
g1023
sg999
g1052
sg1000
g1062
stRp1913
ag1
(g1565
g1513
(dp1914
g984
g1047
sVY
L6L
sg986
L4L
sg987
g1048
sg995
L4L
sg992
L4L
sg993
g1050
sVX
L3L
sg989
g1022
sg997
g990
sg999
g1052
sg1000
g1053
stRp1915
ag1
(g1565
g1513
(dp1916
g984
g1075
sVY
L3L
sg986
L4L
sg987
g1076
sg995
L3L
sg992
L3L
sg993
g1009
sVX
L3L
sg989
g1052
sg997
g1022
sg999
g1020
sg1000
g1053
stRp1917
ag1
(g1565
g1513
(dp1918
g984
g1141
sVY
L2L
sg986
L4L
sg987
g1142
sg995
L8L
sg992
L8L
sg993
g1052
sVX
L9L
sg989
g994
sg997
g998
sg999
g990
sg1000
g1042
stRp1919
ag1
(g1565
g1513
(dp1920
g984
g1038
sVY
L3L
sg986
L4L
sg987
g1039
sg995
L6L
sg992
L6L
sg993
g1018
sVX
L2L
sg989
g994
sg997
g1022
sg999
g1020
sg1000
g1042
stRp1921
ag1
(g1565
g1513
(dp1922
g984
g1133
sVY
L2L
sg986
L4L
sg987
g1134
sg995
L1L
sg992
L1L
sg993
g990
sVX
L8L
sg989
g1018
sg997
g998
sg999
g1050
sg1000
g1024
stRp1923
ag1
(g1565
g1513
(dp1924
g984
g1016
sVY
L2L
sg986
L4L
sg987
g1017
sg995
L6L
sg992
L6L
sg993
g1020
sVX
L3L
sg989
g1018
sg997
g1022
sg999
g1023
sg1000
g1024
stRp1925
asg1578
Nsg1579
I8
sg1580
I18
sg1581
I0
sg1582
I18
sbag1
(g1501
g3
NtRp1926
(dp1927
g1504
Nsg1505
(lp1928
sg1507
I342590448
sg10
g1586
sg6
g1509
sg1510
I1
sg24
I01
sg25
g26
sg1511
g1
(g1512
g1513
(dp1929
g22
g1529
(g1530
g1516
g1531
S'b'
tRp1930
(I1
(I18
I1
tg1533
I00
S'\x00\x00\x80?\x00\x00\x80?\x00\x00\x80?\x00\x00\x80?\x00\x00\x80?\x00\x00\x80?\x00\x00\x80?\x00\x00\x80?\x00\x00\x80?\x00\x00\x80?\x00\x00\x80?\x00\x00\x80?\x00\x00\x80?\x00\x00\x80?\x00\x00\x00\x00\x00\x00\x00\x00\x00\x00\x80?\x00\x00\x80?'
S'\x00\x00\x00\x00\x00\x00\x00\x00\x00\x00\x00\x00\x00\x00\x00\x00\x00\x00'
Ntbsg19
g1515
(g1516
(I0
tS'b'
tRp1931
(I1
(I18
I1
tg1518
I00
(lp1932
g1273
ag1298
ag1324
ag1315
ag1256
ag1307
ag1290
ag1202
ag1211
ag1282
ag1239
ag1220
ag1193
ag1164
ag1248
ag1230
ag1265
ag1183
atbsg23
g1529
(g1530
g1516
g1531
S'b'
tRp1933
(I1
(I18
I1
tg1533
I00
S'\xf1\xb9k@@\xac\xea?\xd5F\xa4?\x8f$\xc2?KS\xad@\x11""@V\x9a\xf9?d\xdd-@\xa4S\xa5@t\xfe_@\x8e\xba\x83@[\x10A@m\xca\xd4@\x15\x1f\xda@\x90d\x9e@\xfa\x96\x8bA]\xca\xbc@51\x03A'
S'\x00\x00\x00\x00\x00\x00\x00\x00\x00\x00\x00\x00\x00\x00\x00\x00\x00\x00'
Ntbsg1528
g1529
(g1530
g1516
g1531
S'b'
tRp1934
(I1
(I18
I1
tg1533
I00
S'\x00\x00\x80?\x00\x00\x80?\x00\x00\x80?\x00\x00\x80?\x00\x00\x80?\x00\x00\x80?\x00\x00\x80?\x00\x00\x80?\x00\x00\x80?\x00\x00\x80?\x00\x00\x80?\x00\x00\x80?\x00\x00\x80?\x00\x00\x80?\x00\x00\x80?\x00\x00\x80?\x00\x00\x80?\x00\x00\x80?'
S'\x00\x00\x00\x00\x00\x00\x00\x00\x00\x00\x00\x00\x00\x00\x00\x00\x00\x00'
Ntbsg21
g1515
(g1516
(I0
tS'b'
tRp1935
(I1
(I18
I1
tg1518
I00
(lp1936
S'7'
aS'2'
aS'8'
aS'6'
aS'7'
aS'8'
aS'2'
aS'5'
aS'6'
aS'5'
aS'9'
aS'8'
aS'6'
aS'3'
aS'7'
aS'7'
aS'3'
aS'1'
atbsg1543
g1529
(g1530
g1516
g1531
S'b'
tRp1937
(I1
(I18
I1
tg1533
I00
S'\x00\x000A\x00\x00`A\x00\x00\x88A\x00\x00\x80A\x00\x00\x10A\x00\x00pA\x00\x00PA\x00\x00@@\x00\x00\x80@\x00\x00@A\x00\x00\xe0@\x00\x00\xa0@\x00\x00\x00@\x00\x00\x00\x00\x00\x00\x00A\x00\x00\xc0@\x00\x00 A\x00\x00\x80?'
S'\x00\x00\x00\x00\x00\x00\x00\x00\x00\x00\x00\x00\x00\x00\x00\x00\x00\x00'
Ntbsg20
g1529
(g1530
g1516
g1531
S'b'
tRp1938
(I1
(I18
I1
tg1533
I00
S'l#\xc2?|[U?\x9b93?\x8d\x9f\x19?\xa4\xaa\x1a@\xf2\xab\xaa?\x8b\x12\x91?\x7f(\x82?\x8c2\x03@\x16\xf0\xae?\x88\xed.@+\xed\x86@Y0\xab@\x81\xca\\@\xa6A\xb4@\xdf\xa8J@j\xb9[@\xe5Re@'
S'\x00\x00\x00\x00\x00\x00\x00\x00\x00\x00\x00\x00\x00\x00\x00\x00\x00\x00'
NtbstRp1939
(dp1940
g1548
(dp1941
g1528
I01
sg21
I00
sg20
I01
sg22
I01
sg19
I00
sg23
I01
sg1543
I01
ssg1550
g1926
sg1551
(lp1942
g1528
ag1543
ag19
ag20
ag21
ag22
ag23
asg1553
(lp1943
I18
aI1
asbsg1555
g1556
sg1557
g1515
(g1516
(I0
tS'b'
tRp1944
(I1
(I18
I1
tg1518
I00
(lp1945
I13
aI17
aI12
aI7
aI8
aI11
aI15
aI10
aI14
aI4
aI16
aI0
aI9
aI6
aI1
aI5
aI3
aI2
atbsg1560
I01
sg1561
I1
sg1562
I-1
sg1563
(lp1946
g1
(g1565
g1513
(dp1947
g1157
g1271
sVY
L5L
sg1159
L2L
sg1160
g1272
sg1168
L7L
sg1165
L7L
sg1166
g1171
sVX
L3L
sg1162
L0L
sg1170
g1194
sg1172
L0L
sg1174
g1275
stRp1948
ag1
(g1565
g1513
(dp1949
g1157
g1296
sVY
L4L
sg1159
L2L
sg1160
g1297
sg1168
L2L
sg1165
L2L
sg1166
g1171
sVX
L9L
sg1162
L0L
sg1170
g1300
sg1172
L0L
sg1174
g1275
stRp1950
ag1
(g1565
g1513
(dp1951
g1157
g1322
sVY
L3L
sg1159
L2L
sg1160
g1323
sg1168
L8L
sg1165
L8L
sg1166
g1247
sVX
L3L
sg1162
L0L
sg1170
g1171
sg1172
L0L
sg1174
g1317
stRp1952
ag1
(g1565
g1513
(dp1953
g1157
g1313
sVY
L8L
sg1159
L2L
sg1160
g1314
sg1168
L6L
sg1165
L6L
sg1166
g1194
sVX
L4L
sg1162
L0L
sg1170
g1184
sg1172
L0L
sg1174
g1317
stRp1954
ag1
(g1565
g1513
(dp1955
g1157
g1254
sVY
L5L
sg1159
L3L
sg1160
g1255
sg1168
L7L
sg1165
L7L
sg1166
g1163
sVX
L2L
sg1162
g1171
sg1170
g1194
sg1172
L0L
sg1174
g1258
stRp1956
ag1
(g1565
g1513
(dp1957
g1157
g1305
sVY
L2L
sg1159
L3L
sg1160
g1306
sg1168
L8L
sg1165
L8L
sg1166
g1221
sVX
L4L
sg1162
g1184
sg1170
g1194
sg1172
L0L
sg1174
g1258
stRp1958
ag1
(g1565
g1513
(dp1959
g1157
g1288
sVY
L3L
sg1159
L3L
sg1160
g1289
sg1168
L2L
sg1165
L2L
sg1166
g1167
sVX
L3L
sg1162
g1182
sg1170
g1163
sg1172
L0L
sg1174
g1204
stRp1960
ag1
(g1565
g1513
(dp1961
g1157
g1200
sVY
L3L
sg1159
L3L
sg1160
g1201
sg1168
L5L
sg1165
L5L
sg1166
g1194
sVX
L2L
sg1162
g1184
sg1170
g1182
sg1172
L0L
sg1174
g1204
stRp1962
ag1
(g1565
g1513
(dp1963
g1157
g1209
sVY
L4L
sg1159
L3L
sg1160
g1210
sg1168
L6L
sg1165
L6L
sg1166
g1173
sVX
L5L
sg1162
g1194
sg1170
g1163
sg1172
L0L
sg1174
g1213
stRp1964
ag1
(g1565
g1513
(dp1965
g1157
g1280
sVY
L3L
sg1159
L3L
sg1160
g1281
sg1168
L5L
sg1165
L5L
sg1166
g1182
sVX
L3L
sg1162
g1247
sg1170
g1184
sg1172
L0L
sg1174
g1213
stRp1966
ag1
(g1565
g1513
(dp1967
g1157
g1237
sVY
L4L
sg1159
L4L
sg1160
g1238
sg1168
L9L
sg1165
L9L
sg1166
g1171
sVX
L9L
sg1162
g1173
sg1170
g1194
sg1172
g1163
sg1174
g1223
stRp1968
ag1
(g1565
g1513
(dp1969
g1157
g1218
sVY
L2L
sg1159
L4L
sg1160
g1219
sg1168
L8L
sg1165
L8L
sg1166
g1221
sVX
L2L
sg1162
g1163
sg1170
g1194
sg1172
g1171
sg1174
g1223
stRp1970
ag1
(g1565
g1513
(dp1971
g1157
g1191
sVY
L6L
sg1159
L4L
sg1160
g1192
sg1168
L6L
sg1165
L6L
sg1166
g1194
sVX
L6L
sg1162
g1173
sg1170
g1171
sg1172
g1184
sg1174
g1175
stRp1972
ag1
(g1565
g1513
(dp1973
g1157
g1158
sVY
L2L
sg1159
L4L
sg1160
g1161
sg1168
L3L
sg1165
L3L
sg1166
g1167
sVX
L9L
sg1162
g1163
sg1170
g1171
sg1172
g1173
sg1174
g1175
stRp1974
ag1
(g1565
g1513
(dp1975
g1157
g1245
sVY
L3L
sg1159
L4L
sg1160
g1246
sg1168
L5L
sg1165
L5L
sg1166
g1163
sVX
L3L
sg1162
g1247
sg1170
g1171
sg1172
g1173
sg1174
g1232
stRp1976
ag1
(g1565
g1513
(dp1977
g1157
g1228
sVY
L3L
sg1159
L4L
sg1160
g1229
sg1168
L8L
sg1165
L8L
sg1166
g1221
sVX
L3L
sg1162
g1167
sg1170
g1171
sg1172
g1163
sg1174
g1232
stRp1978
ag1
(g1565
g1513
(dp1979
g1157
g1263
sVY
L4L
sg1159
L4L
sg1160
g1264
sg1168
L3L
sg1165
L3L
sg1166
g1184
sVX
L3L
sg1162
g1173
sg1170
g1182
sg1172
g1247
sg1174
g1186
stRp1980
ag1
(g1565
g1513
(dp1981
g1157
g1180
sVY
L2L
sg1159
L4L
sg1160
g1181
sg1168
L1L
sg1165
L1L
sg1166
g1184
sVX
L7L
sg1162
g1182
sg1170
g1173
sg1172
g1167
sg1174
g1186
stRp1982
asg1578
Nsg1579
I2
sg1580
I18
sg1581
I0
sg1582
I18
sbag1
(g1501
g3
NtRp1983
(dp1984
g1504
Nsg1505
(lp1985
sg1507
I342590448
sg10
g1586
sg6
g1509
sg1510
I1
sg24
I01
sg25
g26
sg1511
g1
(g1512
g1513
(dp1986
g22
g1529
(g1530
g1516
g1531
S'b'
tRp1987
(I1
(I18
I1
tg1533
I00
S'\x00\x00\x80?\x00\x00\x80?\x00\x00\x80?\x00\x00\x80?\x00\x00\x80?\x00\x00\x80?\x00\x00\x80?\x00\x00\x80?\x00\x00\x80?\x00\x00\x80?\x00\x00\x80?\x00\x00\x80?\x00\x00\x80?\x00\x00\x80?\x00\x00\x80?\x00\x00\x80?\x00\x00\x80?\x00\x00\x80?'
S'\x00\x00\x00\x00\x00\x00\x00\x00\x00\x00\x00\x00\x00\x00\x00\x00\x00\x00'
Ntbsg19
g1515
(g1516
(I0
tS'b'
tRp1988
(I1
(I18
I1
tg1518
I00
(lp1989
g1465
ag1456
ag1405
ag1497
ag1448
ag1439
ag1378
ag1423
ag1489
ag1414
ag1337
ag1397
ag1481
ag1387
ag1369
ag1431
ag1473
ag1356
atbsg23
g1529
(g1530
g1516
g1531
S'b'
tRp1990
(I1
(I18
I1
tg1533
I00
S'\xde\xfeO@n\x8b\xc8??\xa9\x92@s\xac\xca?\xf5u\x9f@\x02\xbak@\x92Se@\xc4\xdc\x85@fTE@\xb0T5@\xd9A\xcc@\x0bd\xae@\xca\xfc7A\xeeQ\xa5@\x99Q\xf5@\xbeu\x9f@\xbf\xfc\xdf@\x10 \nA'
S'\x00\x00\x00\x00\x00\x00\x00\x00\x00\x00\x00\x00\x00\x00\x00\x00\x00\x00'
Ntbsg1528
g1529
(g1530
g1516
g1531
S'b'
tRp1991
(I1
(I18
I1
tg1533
I00
S'\x00\x00\x80?\x00\x00\x80?\x00\x00\x80?\x00\x00\x80?\x00\x00\x80?\x00\x00\x80?\x00\x00\x80?\x00\x00\x80?\x00\x00\x80?\x00\x00\x80?\x00\x00\x80?\x00\x00\x80?\x00\x00\x80?\x00\x00\x80?\x00\x00\x80?\x00\x00\x80?\x00\x00\x80?\x00\x00\x80?'
S'\x00\x00\x00\x00\x00\x00\x00\x00\x00\x00\x00\x00\x00\x00\x00\x00\x00\x00'
Ntbsg21
g1515
(g1516
(I0
tS'b'
tRp1992
(I1
(I18
I1
tg1518
I00
(lp1993
S'1'
aS'4'
aS'9'
aS'6'
aS'6'
aS'7'
aS'8'
aS'2'
aS'1'
aS'9'
aS'1'
aS'2'
aS'1'
aS'3'
aS'7'
aS'1'
aS'5'
aS'7'
atbsg1543
g1529
(g1530
g1516
g1531
S'b'
tRp1994
(I1
(I18
I1
tg1533
I00
S'\x00\x00PA\x00\x00@A\x00\x00\xc0@\x00\x00\x88A\x00\x000A\x00\x00 A\x00\x00@@\x00\x00\x00A\x00\x00\x80A\x00\x00\xe0@\x00\x00\x00\x00\x00\x00\xa0@\x00\x00pA\x00\x00\x80@\x00\x00\x00@\x00\x00\x10A\x00\x00`A\x00\x00\x80?'
S'\x00\x00\x00\x00\x00\x00\x00\x00\x00\x00\x00\x00\x00\x00\x00\x00\x00\x00'
Ntbsg20
g1529
(g1530
g1516
g1531
S'b'
tRp1995
(I1
(I18
I1
tg1533
I00
S'\x8bh\x86?\xb6x\xb7?`\xadj?\xe7\xb2j?\x08\x8a\xa8?]\x99\t@\xad\xdd\xdd?\xc7"\xe2?\xe0\xd1L?E\xe4]?\x88C\x14@\xdd\xaa\xea? \xbc\xdb?\xfd\xda}@h\x01\xa0??\xdd\r@#T5@nV\xb5?'
S'\x00\x00\x00\x00\x00\x00\x00\x00\x00\x00\x00\x00\x00\x00\x00\x00\x00\x00'
NtbstRp1996
(dp1997
g1548
(dp1998
g1528
I01
sg21
I00
sg20
I01
sg22
I01
sg19
I00
sg23
I01
sg1543
I01
ssg1550
g1983
sg1551
(lp1999
g1528
ag1543
ag19
ag20
ag21
ag22
ag23
asg1553
(lp2000
I18
aI1
asbsg1555
g1556
sg1557
g1515
(g1516
(I0
tS'b'
tRp2001
(I1
(I18
I1
tg1518
I00
(lp2002
I10
aI17
aI14
aI6
aI13
aI11
aI2
aI9
aI7
aI15
aI5
aI4
aI1
aI0
aI16
aI12
aI8
aI3
atbsg1560
I01
sg1561
I1
sg1562
I-1
sg1563
(lp2003
g1
(g1565
g1513
(dp2004
g1330
g1463
sVY
L2L
sg1332
L2L
sg1333
g1464
sg1341
L1L
sg1338
L1L
sg1339
g1336
sVX
L9L
sg1335
L0L
sg1343
g1388
sg1345
L0L
sg1347
g1458
stRp2005
ag1
(g1565
g1513
(dp2006
g1330
g1454
sVY
L4L
sg1332
L2L
sg1333
g1455
sg1341
L4L
sg1338
L4L
sg1339
g1336
sVX
L3L
sg1335
L0L
sg1343
g1368
sg1345
L0L
sg1347
g1458
stRp2007
ag1
(g1565
g1513
(dp2008
g1330
g1403
sVY
L4L
sg1332
L2L
sg1333
g1404
sg1341
L9L
sg1338
L9L
sg1339
g1368
sVX
L2L
sg1335
L0L
sg1343
g1359
sg1345
L0L
sg1347
g1407
stRp2009
ag1
(g1565
g1513
(dp2010
g1330
g1495
sVY
L6L
sg1332
L2L
sg1333
g1496
sg1341
L6L
sg1338
L6L
sg1339
g1388
sVX
L8L
sg1335
L0L
sg1343
g1357
sg1345
L0L
sg1347
g1407
stRp2011
ag1
(g1565
g1513
(dp2012
g1330
g1446
sVY
L4L
sg1332
L3L
sg1333
g1447
sg1341
L6L
sg1338
L6L
sg1339
g1340
sVX
L6L
sg1335
g1355
sg1343
g1360
sg1345
L0L
sg1347
g1441
stRp2013
ag1
(g1565
g1513
(dp2014
g1330
g1437
sVY
L9L
sg1332
L3L
sg1333
g1438
sg1341
L7L
sg1338
L7L
sg1339
g1346
sVX
L9L
sg1335
g1340
sg1343
g1388
sg1345
L0L
sg1347
g1441
stRp2015
ag1
(g1565
g1513
(dp2016
g1330
g1376
sVY
L4L
sg1332
L3L
sg1333
g1377
sg1341
L8L
sg1338
L8L
sg1339
g1368
sVX
L3L
sg1335
g1336
sg1343
g1346
sg1345
L0L
sg1347
g1380
stRp2017
ag1
(g1565
g1513
(dp2018
g1330
g1421
sVY
L2L
sg1332
L3L
sg1333
g1422
sg1341
L2L
sg1338
L2L
sg1339
g1344
sVX
L4L
sg1335
g1355
sg1343
g1359
sg1345
L0L
sg1347
g1380
stRp2019
ag1
(g1565
g1513
(dp2020
g1330
g1487
sVY
L2L
sg1332
L3L
sg1333
g1488
sg1341
L1L
sg1338
L1L
sg1339
g1355
sVX
L8L
sg1335
g1344
sg1343
g1340
sg1345
L0L
sg1347
g1416
stRp2021
ag1
(g1565
g1513
(dp2022
g1330
g1412
sVY
L3L
sg1332
L3L
sg1333
g1413
sg1341
L9L
sg1338
L9L
sg1339
g1355
sVX
L2L
sg1335
g1368
sg1343
g1357
sg1345
L0L
sg1347
g1416
stRp2023
ag1
(g1565
g1513
(dp2024
g1330
g1331
sVY
L3L
sg1332
L4L
sg1333
g1334
sg1341
L1L
sg1338
L1L
sg1339
g1340
sVX
L6L
sg1335
g1336
sg1343
g1344
sg1345
g1346
sg1347
g1348
stRp2025
ag1
(g1565
g1513
(dp2026
g1330
g1395
sVY
L2L
sg1332
L4L
sg1333
g1396
sg1341
L2L
sg1338
L2L
sg1339
g1340
sVX
L3L
sg1335
g1336
sg1343
g1368
sg1345
g1346
sg1347
g1348
stRp2027
ag1
(g1565
g1513
(dp2028
g1330
g1479
sVY
L9L
sg1332
L4L
sg1333
g1480
sg1341
L1L
sg1338
L1L
sg1339
g1344
sVX
L3L
sg1335
g1357
sg1343
g1340
sg1345
g1346
sg1347
g1390
stRp2029
ag1
(g1565
g1513
(dp2030
g1330
g1385
sVY
L3L
sg1332
L4L
sg1333
g1386
sg1341
L3L
sg1338
L3L
sg1339
g1388
sVX
L6L
sg1335
g1359
sg1343
g1357
sg1345
g1355
sg1347
g1390
stRp2031
ag1
(g1565
g1513
(dp2032
g1330
g1366
sVY
L2L
sg1332
L4L
sg1333
g1367
sg1341
L7L
sg1338
L7L
sg1339
g1355
sVX
L2L
sg1335
g1368
sg1343
g1359
sg1345
g1357
sg1347
g1371
stRp2033
ag1
(g1565
g1513
(dp2034
g1330
g1429
sVY
L2L
sg1332
L4L
sg1333
g1430
sg1341
L1L
sg1338
L1L
sg1339
g1359
sVX
L8L
sg1335
g1388
sg1343
g1336
sg1345
g1355
sg1347
g1371
stRp2035
ag1
(g1565
g1513
(dp2036
g1330
g1471
sVY
L2L
sg1332
L4L
sg1333
g1472
sg1341
L5L
sg1338
L5L
sg1339
g1355
sVX
L2L
sg1335
g1357
sg1343
g1340
sg1345
g1360
sg1347
g1361
stRp2037
ag1
(g1565
g1513
(dp2038
g1330
g1353
sVY
L2L
sg1332
L4L
sg1333
g1354
sg1341
L7L
sg1338
L7L
sg1339
g1357
sVX
L2L
sg1335
g1355
sg1343
g1359
sg1345
g1360
sg1347
g1361
stRp2039
asg1578
Nsg1579
I3
sg1580
I18
sg1581
I0
sg1582
I18
sbasS'savePickle'
p2040
I00
sb.