ccopy_reg
_reconstructor
p1
(cpsychopy.data
ExperimentHandler
p2
c__builtin__
object
p3
NtRp4
(dp5
S'originPath'
p6
NsS'dataFileName'
p7
VC:\u005cUsers\u005cexperimenter\u005cDesktop\u005cExperiments\u005cKRITL\u005cdata/31059_KRITL_2017_Jun_02_0911
p8
sS'runtimeInfo'
p9
NsS'name'
p10
S'KRITL'
p11
sS'dataNames'
p12
(lp13
S'practice_encoding.keys'
p14
aS'practice_encoding.rt'
p15
aS'practice_execution.keys'
p16
aS'practice_execution.corr'
p17
aS'practice_execution.rt'
p18
aS'encoding.keys'
p19
aS'encoding.rt'
p20
aS'execution.keys'
p21
aS'execution.corr'
p22
aS'execution.rt'
p23
asS'autoLog'
p24
I01
sS'extraInfo'
p25
(dp26
S'date'
p27
V2017_Jun_02_0911
p28
sS'frameRate'
p29
NsS'expName'
p30
g11
sVsession
p31
V001
p32
sVparticipant
p33
V31059
p34
ssS'loopsUnfinished'
p35
(lp36
sS'saveWideText'
p37
I00
sS'thisEntry'
p38
(dp39
sS'version'
p40
S''
sS'_paramNamesSoFar'
p41
(lp42
Voperationc
p43
aVoperationb
p44
aVoperationa
p45
aVcorrectresponse
p46
aVvaluey
p47
aVoperationd
p48
aVcondition
p49
aVvaluex
p50
aVRule
p51
aVOperatora
p52
aVLength
p53
aVIntermediate
p54
aVCorrectResponse
p55
aVResult
p56
aVY
aVX
aVOperatorc
p57
aVOperatorb
p58
aVOperatord
p59
aVStructure
p60
asS'entries'
p61
(lp62
(dp63
g18
F11.026056181057356
sg29
Nsg17
I1
sg43
L0L
sg44
Vdecrease
p64
sg45
VTIMES
p65
sg31
g32
sg46
L8L
sS'practice_trials.thisTrialN'
p66
I0
sg48
L0L
sS'practice_trials.thisRepN'
p67
I0
sg33
g34
sg49
L2L
sg27
g28
sg16
S'8'
sg14
(lp68
S'space'
p69
asS'practice_trials.thisIndex'
p70
I1
sS'practice_trials.thisN'
p71
I0
sg30
g11
sg15
(lp72
F5.6464238456683233
asg47
L3L
sg50
L3L
sa(dp73
g18
F6.31360577524174
sg29
Nsg17
I1
sg43
Vincrease
p74
sg44
VDIVIDE
p75
sg45
Vtriple
p76
sg31
g32
sg46
L3L
sS'practice_trials.thisTrialN'
p77
I1
sg48
L0L
sS'practice_trials.thisRepN'
p78
I0
sg33
g34
sg49
L3L
sg27
g28
sg16
S'3'
sg14
(lp79
S'space'
p80
asS'practice_trials.thisIndex'
p81
I4
sS'practice_trials.thisN'
p82
I1
sg30
g11
sg15
(lp83
F13.119189512566663
asg47
L3L
sg50
L2L
sa(dp84
g18
F3.9120142813771963
sg29
Nsg17
I1
sg43
L0L
sg44
VADD
p85
sg45
g64
sg31
g32
sg46
L7L
sS'practice_trials.thisTrialN'
p86
I2
sg48
L0L
sS'practice_trials.thisRepN'
p87
I0
sg33
g34
sg49
L2L
sg27
g28
sg16
S'7'
sg14
(lp88
S'space'
p89
asS'practice_trials.thisIndex'
p90
I0
sS'practice_trials.thisN'
p91
I2
sg30
g11
sg15
(lp92
F2.6801862225402147
asg47
L5L
sg50
L3L
sa(dp93
g18
F18.358302411157638
sg29
Nsg17
I0
sg43
g74
sg44
g75
sg45
Vdouble
p94
sg31
g32
sg46
L9L
sS'practice_trials.thisTrialN'
p95
I3
sg48
g76
sS'practice_trials.thisRepN'
p96
I0
sg33
g34
sg49
L4L
sg27
g28
sg16
S'3'
sg14
(lp97
S'space'
p98
asS'practice_trials.thisIndex'
p99
I5
sS'practice_trials.thisN'
p100
I3
sg30
g11
sg15
(lp101
F6.1045627888524905
asg47
L8L
sg50
L8L
sa(dp102
g18
F1.9732998860999942
sg29
Nsg17
I1
sg43
L0L
sg44
g85
sg45
Vhalf
p103
sg31
g32
sg46
L7L
sS'practice_trials.thisTrialN'
p104
I4
sg48
L0L
sS'practice_trials.thisRepN'
p105
I0
sg33
g34
sg49
L2L
sg27
g28
sg16
S'7'
sg14
(lp106
S'space'
p107
asS'practice_trials.thisIndex'
p108
I2
sS'practice_trials.thisN'
p109
I4
sg30
g11
sg15
(lp110
F3.071832804242149
asg47
L5L
sg50
L4L
sa(dp111
g18
F12.196469148388132
sg29
Nsg17
I1
sg43
g85
sg44
Vtriple 
p112
sg45
g103
sg31
g32
sg46
L8L
sS'practice_trials.thisTrialN'
p113
I5
sg48
L0L
sS'practice_trials.thisRepN'
p114
I0
sg33
g34
sg49
L3L
sg27
g28
sg16
S'8'
sg14
(lp115
S'space'
p116
asS'practice_trials.thisIndex'
p117
I3
sS'practice_trials.thisN'
p118
I5
sg30
g11
sg15
(lp119
F5.7250585402362049
asg47
L2L
sg50
L4L
sa(dp120
S'block.thisTrialN'
p121
I0
sS'block.thisRepN'
p122
I0
sg29
NsS'block.thisN'
p123
I0
sg51
(S'TRIPLE'
S'HALF'
S'ADD'
S'x'
S'y'
tp124
sg27
g28
sg53
L3L
sg54
(I6
I3
I9
tp125
sg22
I1
sg20
F3.8353229339700192
sg23
F3.8730780442710966
sVY
L3L
sVX
L3L
sg57
VADD
p126
sg31
g32
sg33
g34
sg21
S'9'
sg19
S'space'
p127
sg30
g11
sg56
L9L
sg52
Vhalf
p128
sg55
L9L
sS'block.thisIndex'
p129
I8
sg58
Vtriple
p130
sg59
L0L
sg60
VUUBxy
p131
sa(dp132
S'block.thisTrialN'
p133
I1
sS'block.thisRepN'
p134
I0
sg29
NsS'block.thisN'
p135
I1
sg51
(S'INCREASE'
S'DIVIDE'
S'x'
S'y'
tp136
sg27
g28
sg53
L2L
sg54
(I4
I5
tp137
sg22
I1
sg20
F1.7837918613804504
sg23
F1.9520837001036853
sVY
L2L
sVX
L8L
sg57
L0L
sg31
g32
sg33
g34
sg21
S'5'
sg19
S'space'
p138
sg30
g11
sg56
L5L
sg52
VDIVIDE
p139
sg55
L5L
sS'block.thisIndex'
p140
I3
sg58
Vincrease
p141
sg59
L0L
sg60
VUBxy
p142
sa(dp143
S'block.thisTrialN'
p144
I2
sS'block.thisRepN'
p145
I0
sg29
NsS'block.thisN'
p146
I2
sg51
(S'TRIPLE'
S'INCREASE'
S'SUBTRACT'
S'x'
S'y'
tp147
sg27
g28
sg53
L3L
sg54
(I1
I2
I6
tp148
sg22
I1
sg20
F5.5575509696500376
sg23
F3.0457384772598743
sVY
L2L
sVX
L3L
sg57
VSUBTRACT
p149
sg31
g32
sg33
g34
sg21
S'6'
sg19
S'space'
p150
sg30
g11
sg56
L6L
sg52
g141
sg55
L6L
sS'block.thisIndex'
p151
I9
sg58
g130
sg59
L0L
sg60
g131
sa(dp152
S'block.thisTrialN'
p153
I3
sS'block.thisRepN'
p154
I0
sg29
NsS'block.thisN'
p155
I3
sg51
(S'DECREASE'
S'THIRD'
S'DOUBLE'
S'ADD'
S'x'
S'y'
tp156
sg27
g28
sg53
L4L
sg54
(I9
I18
I6
I5
tp157
sg22
I0
sg20
F10.1961237344658
sg23
F16.597057647071779
sVY
L4L
sVX
L5L
sg57
Vdouble
p158
sg31
g32
sg33
g34
sg21
S'7'
sg19
S'space'
p159
sg30
g11
sg56
L5L
sg52
Vthird
p160
sg55
L5L
sS'block.thisIndex'
p161
I16
sg58
Vdecrease
p162
sg59
g126
sg60
VUUUBxy
p163
sa(dp164
S'block.thisTrialN'
p165
I4
sS'block.thisRepN'
p166
I0
sg29
NsS'block.thisN'
p167
I4
sg51
(S'DOUBLE'
S'DIVIDE'
S'x'
S'y'
tp168
sg27
g28
sg53
L2L
sg54
(I1
I2
tp169
sg22
I1
sg20
F2.9963337825611234
sg23
F3.8429108422715217
sVY
L8L
sVX
L8L
sg57
L0L
sg31
g32
sg33
g34
sg21
S'2'
sg19
S'space'
p170
sg30
g11
sg56
L2L
sg52
g139
sg55
L2L
sS'block.thisIndex'
p171
I2
sg58
g158
sg59
L0L
sg60
g142
sa(dp172
S'block.thisTrialN'
p173
I5
sS'block.thisRepN'
p174
I0
sg29
NsS'block.thisN'
p175
I5
sg51
(S'TRIPLE'
S'INCREASE'
S'DIVIDE'
S'DOUBLE'
S'x'
S'y'
tp176
sg27
g28
sg53
L4L
sg54
(I16
I2
I3
I9
tp177
sg22
I0
sVY
L8L
sVX
L8L
sg57
g139
sg31
g32
sg33
g34
sg21
Nsg19
Nsg30
g11
sg56
L9L
sg52
g141
sg55
L9L
sS'block.thisIndex'
p178
I15
sg58
g130
sg59
g158
sg60
VUUBUxy
p179
sa(dp180
S'block.thisTrialN'
p181
I6
sS'block.thisRepN'
p182
I0
sg29
NsS'block.thisN'
p183
I6
sg51
(S'SUBTRACT'
S'TRIPLE'
S'x'
S'y'
tp184
sg27
g28
sg53
L2L
sg54
(I12
I9
tp185
sg22
I1
sg20
F2.5402326767798513
sg23
F6.6142755002947524
sVY
L3L
sVX
L4L
sg57
L0L
sg31
g32
sg33
g34
sg21
S'9'
sg19
S'space'
p186
sg30
g11
sg56
L9L
sg52
g130
sg55
L9L
sS'block.thisIndex'
p187
I1
sg58
g149
sg59
L0L
sg60
VBUxy
p188
sa(dp189
S'block.thisTrialN'
p190
I7
sS'block.thisRepN'
p191
I0
sg29
NsS'block.thisN'
p192
I7
sg51
(S'ADD'
S'HALF'
S'x'
S'y'
tp193
sg27
g28
sg53
L2L
sg54
(I2
I7
tp194
sg22
I1
sg20
F1.2510410539107397
sg23
F1.8818376302951947
sVY
L5L
sVX
L4L
sg57
L0L
sg31
g32
sg33
g34
sg21
S'7'
sg19
S'space'
p195
sg30
g11
sg56
L7L
sg52
g128
sg55
L7L
sS'block.thisIndex'
p196
I0
sg58
g126
sg59
L0L
sg60
g188
sa(dp197
S'block.thisTrialN'
p198
I8
sS'block.thisRepN'
p199
I0
sg29
NsS'block.thisN'
p200
I8
sg51
(S'TRIPLE'
S'DOUBLE'
S'SUBTRACT'
S'INCREASE'
S'x'
S'y'
tp201
sg27
g28
sg53
L4L
sg54
(I5
I1
I2
I6
tp202
sg22
I1
sg20
F6.0668213272001594
sg23
F5.8931897456059232
sVY
L4L
sVX
L4L
sg57
g149
sg31
g32
sg33
g34
sg21
S'6'
sg19
S'space'
p203
sg30
g11
sg56
L6L
sg52
g158
sg55
L6L
sS'block.thisIndex'
p204
I14
sg58
g130
sg59
g141
sg60
g179
sa(dp205
S'block.thisTrialN'
p206
I9
sS'block.thisRepN'
p207
I0
sg29
NsS'block.thisN'
p208
I9
sg51
(S'SUBTRACT'
S'INCREASE'
S'HALF'
S'x'
S'y'
tp209
sg27
g28
sg53
L3L
sg54
(I4
I5
I3
tp210
sg22
I1
sg20
F2.8832938282284886
sg23
F5.7833117115078494
sVY
L2L
sVX
L8L
sg57
g128
sg31
g32
sg33
g34
sg21
S'3'
sg19
S'space'
p211
sg30
g11
sg56
L3L
sg52
g141
sg55
L3L
sS'block.thisIndex'
p212
I5
sg58
g149
sg59
L0L
sg60
VBUUxy
p213
sa(dp214
S'block.thisTrialN'
p215
I10
sS'block.thisRepN'
p216
I0
sg29
NsS'block.thisN'
p217
I10
sg51
(S'HALF'
S'TIMES'
S'DECREASE'
S'x'
S'y'
tp218
sg27
g28
sg53
L3L
sg54
(I8
I16
I8
tp219
sg22
I1
sg20
F3.3187271407805383
sg23
F3.9580726251006126
sVY
L2L
sVX
L9L
sg57
g162
sg31
g32
sg33
g34
sg21
S'8'
sg19
S'space'
p220
sg30
g11
sg56
L8L
sg52
VTIMES
p221
sg55
L8L
sS'block.thisIndex'
p222
I6
sg58
g128
sg59
L0L
sg60
VUBUxy
p223
sa(dp224
S'block.thisTrialN'
p225
I11
sS'block.thisRepN'
p226
I0
sg29
NsS'block.thisN'
p227
I11
sg51
(S'THIRD'
S'INCREASE'
S'HALF'
S'TIMES'
S'x'
S'y'
tp228
sg27
g28
sg53
L4L
sg54
(I28
I14
I15
I5
tp229
sg22
I1
sg20
F3.3360856794752181
sg23
F9.5712082943646237
sVY
L4L
sVX
L7L
sg57
g128
sg31
g32
sg33
g34
sg21
S'5'
sg19
S'space'
p230
sg30
g11
sg56
L5L
sg52
g141
sg55
L5L
sS'block.thisIndex'
p231
I17
sg58
g160
sg59
g221
sg60
g163
sa(dp232
S'block.thisTrialN'
p233
I12
sS'block.thisRepN'
p234
I0
sg29
NsS'block.thisN'
p235
I12
sg51
(S'TIMES'
S'HALF'
S'INCREASE'
S'THIRD'
S'x'
S'y'
tp236
sg27
g28
sg53
L4L
sg54
(I1
I2
I1
I9
tp237
sg22
I0
sg20
F8.6924240954685956
sg23
F11.682684611761943
sVY
L9L
sVX
L3L
sg57
g141
sg31
g32
sg33
g34
sg21
S'4'
sg19
S'space'
p238
sg30
g11
sg56
L9L
sg52
g128
sg55
L9L
sS'block.thisIndex'
p239
I11
sg58
g221
sg59
g160
sg60
VBUUUxy
p240
sa(dp241
S'block.thisTrialN'
p242
I13
sS'block.thisRepN'
p243
I0
sg29
NsS'block.thisN'
p244
I13
sg51
(S'INCREASE'
S'DIVIDE'
S'TRIPLE'
S'x'
S'y'
tp245
sg27
g28
sg53
L3L
sg54
(I6
I2
I3
tp246
sg22
I1
sg20
F5.1062674609711394
sg23
F8.2610878054983914
sVY
L3L
sVX
L2L
sg57
g130
sg31
g32
sg33
g34
sg21
S'3'
sg19
S'space'
p247
sg30
g11
sg56
L3L
sg52
g139
sg55
L3L
sS'block.thisIndex'
p248
I7
sg58
g141
sg59
L0L
sg60
g223
sa(dp249
S'block.thisTrialN'
p250
I14
sS'block.thisRepN'
p251
I0
sg29
NsS'block.thisN'
p252
I14
sg51
(S'INCREASE'
S'TIMES'
S'TRIPLE'
S'HALF'
S'x'
S'y'
tp253
sg27
g28
sg53
L4L
sg54
(I1
I3
I6
I7
tp254
sg22
I1
sg20
F8.1170022408477962
sg23
F6.5035785515792668
sVY
L2L
sVX
L2L
sg57
g130
sg31
g32
sg33
g34
sg21
S'7'
sg19
S'space'
p255
sg30
g11
sg56
L7L
sg52
g221
sg55
L7L
sS'block.thisIndex'
p256
I13
sg58
g141
sg59
g128
sg60
VUBUUxy
p257
sa(dp258
S'block.thisTrialN'
p259
I15
sS'block.thisRepN'
p260
I0
sg29
NsS'block.thisN'
p261
I15
sg51
(S'DIVIDE'
S'DOUBLE'
S'INCREASE'
S'TRIPLE'
S'x'
S'y'
tp262
sg27
g28
sg53
L4L
sg54
(I9
I10
I20
I5
tp263
sg22
I1
sg20
F7.5063338140025735
sg23
F10.500704301521182
sVY
L4L
sVX
L3L
sg57
g141
sg31
g32
sg33
g34
sg21
S'5'
sg19
S'space'
p264
sg30
g11
sg56
L5L
sg52
g158
sg55
L5L
sS'block.thisIndex'
p265
I10
sg58
g139
sg59
g130
sg60
g240
sa(dp266
S'block.thisTrialN'
p267
I16
sS'block.thisRepN'
p268
I0
sg29
NsS'block.thisN'
p269
I16
sg51
(S'DIVIDE'
S'TRIPLE'
S'DECREASE'
S'x'
S'y'
tp270
sg27
g28
sg53
L3L
sg54
(I6
I18
I9
tp271
sg22
I1
sg20
F3.6674776487052441
sg23
F7.7832914135651663
sVY
L2L
sVX
L7L
sg57
g162
sg31
g32
sg33
g34
sg21
S'9'
sg19
S'space'
p272
sg30
g11
sg56
L9L
sg52
g130
sg55
L9L
sS'block.thisIndex'
p273
I4
sg58
g139
sg59
L0L
sg60
g213
sa(dp274
S'block.thisTrialN'
p275
I17
sS'block.thisRepN'
p276
I0
sg29
NsS'block.thisN'
p277
I17
sg51
(S'HALF'
S'SUBTRACT'
S'DECREASE'
S'TRIPLE'
S'x'
S'y'
tp278
sg27
g28
sg53
L4L
sg54
(I15
I14
I10
I5
tp279
sg22
I1
sg20
F6.0170978158712387
sg23
F7.0490851779468358
sVY
L4L
sVX
L5L
sg57
g162
sg31
g32
sg33
g34
sg21
S'5'
sg19
S'space'
p280
sg30
g11
sg56
L5L
sg52
g149
sg55
L5L
sS'block.thisIndex'
p281
I12
sg58
g128
sg59
g130
sg60
g257
sa(dp282
S'block.thisTrialN'
p283
I0
sS'block.thisRepN'
p284
I0
sg29
NsS'block.thisN'
p285
I0
sVRule
p286
(S'ADD'
S'DECREASE'
S'THIRD'
S'DOUBLE'
S'x'
S'y'
tp287
sg27
g28
sVLength
p288
L4L
sVIntermediate
p289
(I18
I6
I5
I9
tp290
sg22
I1
sg20
F7.772435546386987
sg23
F5.4008516711182892
sVY
L4L
sVX
L9L
sVOperatorc
p291
Vthird
p292
sg31
g32
sg33
g34
sg21
S'9'
sg19
S'space'
p293
sg30
g11
sVResult
p294
L9L
sVOperatora
p295
Vdecrease
p296
sVCorrectResponse
p297
L9L
sS'block.thisIndex'
p298
I10
sVOperatorb
p299
VADD
p300
sVOperatord
p301
Vdouble
p302
sVStructure
p303
VBUUUxy
p304
sa(dp305
S'block.thisTrialN'
p306
I1
sS'block.thisRepN'
p307
I0
sg29
NsS'block.thisN'
p308
I1
sg286
(S'ADD'
S'TRIPLE'
S'DOUBLE'
S'DECREASE'
S'x'
S'y'
tp309
sg27
g28
sg288
L4L
sg289
(I1
I2
I6
I8
tp310
sg22
I1
sg20
F5.3494637334952131
sg23
F5.199380844598636
sVY
L2L
sVX
L2L
sg291
g302
sg31
g32
sg33
g34
sg21
S'8'
sg19
S'space'
p311
sg30
g11
sg294
L8L
sg295
Vtriple
p312
sg297
L8L
sS'block.thisIndex'
p313
I11
sg299
g300
sg301
g296
sg303
g304
sa(dp314
S'block.thisTrialN'
p315
I2
sS'block.thisRepN'
p316
I0
sg29
NsS'block.thisN'
p317
I2
sg286
(S'DECREASE'
S'TIMES'
S'x'
S'y'
tp318
sg27
g28
sg288
L2L
sg289
(I9
I8
tp319
sg22
I1
sg20
F1.9757639790186659
sg23
F2.3075150108197704
sVY
L3L
sVX
L3L
sg291
L0L
sg31
g32
sg33
g34
sg21
S'8'
sg19
S'space'
p320
sg30
g11
sg294
L8L
sg295
VTIMES
p321
sg297
L8L
sS'block.thisIndex'
p322
I2
sg299
g296
sg301
L0L
sg303
VUBxy
p323
sa(dp324
S'block.thisTrialN'
p325
I3
sS'block.thisRepN'
p326
I0
sg29
NsS'block.thisN'
p327
I3
sg286
(S'DIVIDE'
S'DECREASE'
S'x'
S'y'
tp328
sg27
g28
sg288
L2L
sg289
(I8
I2
tp329
sg22
I1
sg20
F2.4653898365795612
sg23
F2.7778375826310366
sVY
L4L
sVX
L9L
sg291
L0L
sg31
g32
sg33
g34
sg21
S'2'
sg19
S'space'
p330
sg30
g11
sg294
L2L
sg295
g296
sg297
L2L
sS'block.thisIndex'
p331
I1
sg299
VDIVIDE
p332
sg301
L0L
sg303
VBUxy
p333
sa(dp334
S'block.thisTrialN'
p335
I4
sS'block.thisRepN'
p336
I0
sg29
NsS'block.thisN'
p337
I4
sg286
(S'DECREASE'
S'DOUBLE'
S'TIMES'
S'THIRD'
S'x'
S'y'
tp338
sg27
g28
sg288
L4L
sg289
(I1
I3
I6
I5
tp339
sg22
I1
sg20
F8.400864269817248
sg23
F5.8626060871174559
sVY
L3L
sVX
L3L
sg291
g321
sg31
g32
sg33
g34
sg21
S'5'
sg19
S'space'
p340
sg30
g11
sg294
L5L
sg295
g302
sg297
L5L
sS'block.thisIndex'
p341
I14
sg299
g296
sg301
g292
sg303
VUUBUxy
p342
sa(dp343
S'block.thisTrialN'
p344
I5
sS'block.thisRepN'
p345
I0
sg29
NsS'block.thisN'
p346
I5
sg286
(S'INCREASE'
S'HALF'
S'THIRD'
S'TIMES'
S'x'
S'y'
tp347
sg27
g28
sg288
L4L
sg289
(I12
I4
I2
I3
tp348
sg22
I1
sg20
F8.2621583438012749
sg23
F3.5537192194024101
sVY
L4L
sVX
L3L
sg291
g292
sg31
g32
sg33
g34
sg21
S'3'
sg19
S'space'
p349
sg30
g11
sg294
L3L
sg295
Vhalf
p350
sg297
L3L
sS'block.thisIndex'
p351
I16
sg299
Vincrease
p352
sg301
g321
sg303
VUUUBxy
p353
sa(dp354
S'block.thisTrialN'
p355
I6
sS'block.thisRepN'
p356
I0
sg29
NsS'block.thisN'
p357
I6
sg286
(S'DECREASE'
S'TRIPLE'
S'SUBTRACT'
S'DOUBLE'
S'x'
S'y'
tp358
sg27
g28
sg288
L4L
sg289
(I6
I3
I9
I8
tp359
sg22
I1
sg20
F6.3108267153147608
sg23
F9.0970123268198222
sVY
L3L
sVX
L3L
sg291
VSUBTRACT
p360
sg31
g32
sg33
g34
sg21
S'8'
sg19
S'space'
p361
sg30
g11
sg294
L8L
sg295
g312
sg297
L8L
sS'block.thisIndex'
p362
I15
sg299
g296
sg301
g302
sg303
g342
sa(dp363
S'block.thisTrialN'
p364
I7
sS'block.thisRepN'
p365
I0
sg29
NsS'block.thisN'
p366
I7
sg286
(S'DOUBLE'
S'SUBTRACT'
S'INCREASE'
S'x'
S'y'
tp367
sg27
g28
sg288
L3L
sg289
(I4
I1
I2
tp368
sg22
I1
sg20
F2.8672634011600167
sg23
F3.9890398437855765
sVY
L3L
sVX
L3L
sg291
g352
sg31
g32
sg33
g34
sg21
S'2'
sg19
S'space'
p369
sg30
g11
sg294
L2L
sg295
g360
sg297
L2L
sS'block.thisIndex'
p370
I6
sg299
g302
sg301
L0L
sg303
VUBUxy
p371
sa(dp372
S'block.thisTrialN'
p373
I8
sS'block.thisRepN'
p374
I0
sg29
NsS'block.thisN'
p375
I8
sg286
(S'HALF'
S'ADD'
S'x'
S'y'
tp376
sg27
g28
sg288
L2L
sg289
(I12
I6
tp377
sg22
I1
sg20
F1.4916983412113041
sg23
F3.8608828668948263
sVY
L8L
sVX
L4L
sg291
L0L
sg31
g32
sg33
g34
sg21
S'6'
sg19
S'space'
p378
sg30
g11
sg294
L6L
sg295
g300
sg297
L6L
sS'block.thisIndex'
p379
I3
sg299
g350
sg301
L0L
sg303
g323
sa(dp380
S'block.thisTrialN'
p381
I9
sS'block.thisRepN'
p382
I0
sg29
NsS'block.thisN'
p383
I9
sg286
(S'INCREASE'
S'ADD'
S'HALF'
S'x'
S'y'
tp384
sg27
g28
sg288
L3L
sg289
(I1
I4
I5
tp385
sg22
I1
sg20
F3.6832945982459933
sg23
F3.0780537551036105
sVY
L3L
sVX
L2L
sg291
g350
sg31
g32
sg33
g34
sg21
S'5'
sg19
S'space'
p386
sg30
g11
sg294
L5L
sg295
g300
sg297
L5L
sS'block.thisIndex'
p387
I7
sg299
g352
sg301
L0L
sg303
g371
sa(dp388
S'block.thisTrialN'
p389
I10
sS'block.thisRepN'
p390
I0
sg29
NsS'block.thisN'
p391
I10
sg286
(S'DECREASE'
S'ADD'
S'THIRD'
S'HALF'
S'x'
S'y'
tp392
sg27
g28
sg288
L4L
sg289
(I3
I1
I7
I6
tp393
sg22
I1
sg20
F6.1640145850833505
sg23
F4.261383174569346
sVY
L6L
sVX
L6L
sg291
g292
sg31
g32
sg33
g34
sg21
S'6'
sg19
S'space'
p394
sg30
g11
sg294
L6L
sg295
g300
sg297
L6L
sS'block.thisIndex'
p395
I12
sg299
g296
sg301
g350
sg303
VUBUUxy
p396
sa(dp397
S'block.thisTrialN'
p398
I11
sS'block.thisRepN'
p399
I0
sg29
NsS'block.thisN'
p400
I11
sg286
(S'ADD'
S'DOUBLE'
S'DECREASE'
S'x'
S'y'
tp401
sg27
g28
sg288
L3L
sg289
(I1
I2
I7
tp402
sg22
I1
sg20
F4.9487275503342971
sg23
F2.9785748856374994
sVY
L5L
sVX
L2L
sg291
g296
sg31
g32
sg33
g34
sg21
S'7'
sg19
S'space'
p403
sg30
g11
sg294
L7L
sg295
g302
sg297
L7L
sS'block.thisIndex'
p404
I4
sg299
g300
sg301
L0L
sg303
VBUUxy
p405
sa(dp406
S'block.thisTrialN'
p407
I12
sS'block.thisRepN'
p408
I0
sg29
NsS'block.thisN'
p409
I12
sg286
(S'HALF'
S'INCREASE'
S'TIMES'
S'x'
S'y'
tp410
sg27
g28
sg288
L3L
sg289
(I9
I10
I5
tp411
sg22
I1
sg20
F3.3626031123567373
sg23
F4.2631749876309186
sVY
L3L
sVX
L3L
sg291
g321
sg31
g32
sg33
g34
sg21
S'5'
sg19
S'space'
p412
sg30
g11
sg294
L5L
sg295
g352
sg297
L5L
sS'block.thisIndex'
p413
I9
sg299
g350
sg301
L0L
sg303
VUUBxy
p414
sa(dp415
S'block.thisTrialN'
p416
I13
sS'block.thisRepN'
p417
I0
sg29
NsS'block.thisN'
p418
I13
sg286
(S'DOUBLE'
S'THIRD'
S'ADD'
S'x'
S'y'
tp419
sg27
g28
sg288
L3L
sg289
(I9
I3
I6
tp420
sg22
I1
sg20
F6.0678705177269876
sg23
F2.7403396955924109
sVY
L4L
sVX
L5L
sg291
g300
sg31
g32
sg33
g34
sg21
S'6'
sg19
S'space'
p421
sg30
g11
sg294
L6L
sg295
g292
sg297
L6L
sS'block.thisIndex'
p422
I8
sg299
g302
sg301
L0L
sg303
g414
sa(dp423
S'block.thisTrialN'
p424
I14
sS'block.thisRepN'
p425
I0
sg29
NsS'block.thisN'
p426
I14
sg286
(S'ADD'
S'TRIPLE'
S'HALF'
S'x'
S'y'
tp427
sg27
g28
sg288
L3L
sg289
(I2
I6
I8
tp428
sg22
I1
sg20
F5.6224593963706866
sg23
F3.1893473915988579
sVY
L2L
sVX
L4L
sg291
g350
sg31
g32
sg33
g34
sg21
S'8'
sg19
S'space'
p429
sg30
g11
sg294
L8L
sg295
g312
sg297
L8L
sS'block.thisIndex'
p430
I5
sg299
g300
sg301
L0L
sg303
g405
sa(dp431
S'block.thisTrialN'
p432
I15
sS'block.thisRepN'
p433
I0
sg29
NsS'block.thisN'
p434
I15
sg286
(S'THIRD'
S'HALF'
S'INCREASE'
S'SUBTRACT'
S'x'
S'y'
tp435
sg27
g28
sg288
L4L
sg289
(I5
I6
I3
I1
tp436
sg22
I1
sg20
F9.3493038001470268
sg23
F6.7078707836335525
sVY
L2L
sVX
L7L
sg291
g352
sg31
g32
sg33
g34
sg21
S'1'
sg19
S'space'
p437
sg30
g11
sg294
L1L
sg295
g350
sg297
L1L
sS'block.thisIndex'
p438
I17
sg299
g292
sg301
g360
sg303
g353
sa(dp439
S'block.thisTrialN'
p440
I16
sS'block.thisRepN'
p441
I0
sg29
NsS'block.thisN'
p442
I16
sg286
(S'DECREASE'
S'SUBTRACT'
S'DOUBLE'
S'THIRD'
S'x'
S'y'
tp443
sg27
g28
sg288
L4L
sg289
(I3
I6
I4
I3
tp444
sg22
I1
sg20
F7.383737756870687
sg23
F5.31709211145062
sVY
L2L
sVX
L9L
sg291
g302
sg31
g32
sg33
g34
sg21
S'3'
sg19
S'space'
p445
sg30
g11
sg294
L3L
sg295
g360
sg297
L3L
sS'block.thisIndex'
p446
I13
sg299
g296
sg301
g292
sg303
g396
sa(dp447
S'block.thisTrialN'
p448
I17
sS'block.thisRepN'
p449
I0
sg29
NsS'block.thisN'
p450
I17
sg286
(S'ADD'
S'DECREASE'
S'x'
S'y'
tp451
sg27
g28
sg288
L2L
sg289
(I2
I7
tp452
sg22
I1
sg20
F2.4174969842424616
sg23
F2.7869394328445196
sVY
L5L
sVX
L3L
sg291
L0L
sg31
g32
sg33
g34
sg21
S'7'
sg19
S'space'
p453
sg30
g11
sg294
L7L
sg295
g296
sg297
L7L
sS'block.thisIndex'
p454
I0
sg299
g300
sg301
L0L
sg303
g333
sa(dp455
S'block.thisTrialN'
p456
I0
sS'block.thisRepN'
p457
I0
sg29
NsS'block.thisN'
p458
I0
sVRule
p459
(S'ADD'
S'THIRD'
S'INCREASE'
S'HALF'
S'x'
S'y'
tp460
sg27
g28
sVLength
p461
L4L
sVIntermediate
p462
(I2
I3
I1
I7
tp463
sg22
I1
sg20
F6.2234383841278031
sg23
F5.3334952497389168
sVY
L6L
sVX
L4L
sVOperatorc
p464
Vincrease
p465
sg31
g32
sg33
g34
sg21
S'7'
sg19
S'space'
p466
sg30
g11
sVResult
p467
L7L
sVOperatora
p468
Vthird
p469
sVCorrectResponse
p470
L7L
sS'block.thisIndex'
p471
I10
sVOperatorb
p472
VADD
p473
sVOperatord
p474
Vhalf
p475
sVStructure
p476
VBUUUxy
p477
sa(dp478
S'block.thisTrialN'
p479
I1
sS'block.thisRepN'
p480
I0
sg29
NsS'block.thisN'
p481
I1
sg459
(S'DECREASE'
S'HALF'
S'TRIPLE'
S'DIVIDE'
S'x'
S'y'
tp482
sg27
g28
sg461
L4L
sg462
(I4
I12
I6
I5
tp483
sg22
I1
sg20
F6.1503163145389408
sg23
F4.5770715825492516
sVY
L2L
sVX
L8L
sg464
Vtriple
p484
sg31
g32
sg33
g34
sg21
S'5'
sg19
S'space'
p485
sg30
g11
sg467
L5L
sg468
g475
sg470
L5L
sS'block.thisIndex'
p486
I16
sg472
Vdecrease
p487
sg474
VDIVIDE
p488
sg476
VUUUBxy
p489
sa(dp490
S'block.thisTrialN'
p491
I2
sS'block.thisRepN'
p492
I0
sg29
NsS'block.thisN'
p493
I2
sg459
(S'ADD'
S'DOUBLE'
S'x'
S'y'
tp494
sg27
g28
sg461
L2L
sg462
(I4
I8
tp495
sg22
I1
sg20
F1.3812029714463279
sg23
F2.5636354347225279
sVY
L4L
sVX
L2L
sg464
L0L
sg31
g32
sg33
g34
sg21
S'8'
sg19
S'space'
p496
sg30
g11
sg467
L8L
sg468
Vdouble
p497
sg470
L8L
sS'block.thisIndex'
p498
I0
sg472
g473
sg474
L0L
sg476
VBUxy
p499
sa(dp500
S'block.thisTrialN'
p501
I3
sS'block.thisRepN'
p502
I0
sg29
NsS'block.thisN'
p503
I3
sg459
(S'DECREASE'
S'TIMES'
S'DOUBLE'
S'THIRD'
S'x'
S'y'
tp504
sg27
g28
sg461
L4L
sg462
(I1
I2
I8
I7
tp505
sg22
I1
sg20
F4.7570731993764639
sg23
F3.3475686811143532
sVY
L4L
sVX
L3L
sg464
g497
sg31
g32
sg33
g34
sg21
S'7'
sg19
S'space'
p506
sg30
g11
sg467
L7L
sg468
VTIMES
p507
sg470
L7L
sS'block.thisIndex'
p508
I13
sg472
g487
sg474
g469
sg476
VUBUUxy
p509
sa(dp510
S'block.thisTrialN'
p511
I4
sS'block.thisRepN'
p512
I0
sg29
NsS'block.thisN'
p513
I4
sg459
(S'DECREASE'
S'ADD'
S'DOUBLE'
S'THIRD'
S'x'
S'y'
tp514
sg27
g28
sg461
L4L
sg462
(I3
I6
I10
I9
tp515
sg22
I1
sg20
F8.0524304788559675
sg23
F5.4405973736429587
sVY
L4L
sVX
L9L
sg464
g497
sg31
g32
sg33
g34
sg21
S'9'
sg19
S'space'
p516
sg30
g11
sg467
L9L
sg468
g473
sg470
L9L
sS'block.thisIndex'
p517
I12
sg472
Vdecrease 
p518
sg474
g469
sg476
g509
sa(dp519
S'block.thisTrialN'
p520
I5
sS'block.thisRepN'
p521
I0
sg29
NsS'block.thisN'
p522
I5
sg459
(S'DOUBLE'
S'TRIPLE'
S'SUBTRACT'
S'x'
S'y'
tp523
sg27
g28
sg461
L3L
sg462
(I1
I3
I6
tp524
sg22
I1
sg20
F7.8270197004312649
sg23
F2.8358650275040418
sVY
L3L
sVX
L4L
sg464
VSUBTRACT
p525
sg31
g32
sg33
g34
sg21
S'6'
sg19
S'space'
p526
sg30
g11
sg467
L6L
sg468
g484
sg470
L6L
sS'block.thisIndex'
p527
I9
sg472
g497
sg474
L0L
sg476
VUUBxy
p528
sa(dp529
S'block.thisTrialN'
p530
I6
sS'block.thisRepN'
p531
I0
sg29
NsS'block.thisN'
p532
I6
sg459
(S'DECREASE'
S'THIRD'
S'TIMES'
S'HALF'
S'x'
S'y'
tp533
sg27
g28
sg461
L4L
sg462
(I2
I12
I4
I3
tp534
sg22
I1
sg20
F5.8258966676658019
sg23
F7.7347637274069712
sVY
L6L
sVX
L4L
sg464
g507
sg31
g32
sg33
g34
sg21
S'3'
sg19
S'space'
p535
sg30
g11
sg467
L3L
sg468
g469
sg470
L3L
sS'block.thisIndex'
p536
I14
sg472
g487
sg474
g475
sg476
VUUBUxy
p537
sa(dp538
S'block.thisTrialN'
p539
I7
sS'block.thisRepN'
p540
I0
sg29
NsS'block.thisN'
p541
I7
sg459
(S'DIVIDE'
S'DOUBLE'
S'THIRD'
S'x'
S'y'
tp542
sg27
g28
sg461
L3L
sg462
(I2
I4
I1
tp543
sg22
I1
sg20
F4.2585239730542526
sg23
F3.778966914745979
sVY
L4L
sVX
L6L
sg464
g469
sg31
g32
sg33
g34
sg21
S'1'
sg19
S'space'
p544
sg30
g11
sg467
L1L
sg468
g497
sg470
L1L
sS'block.thisIndex'
p545
I4
sg472
g488
sg474
L0L
sg476
VBUUxy
p546
sa(dp547
S'block.thisTrialN'
p548
I8
sS'block.thisRepN'
p549
I0
sg29
NsS'block.thisN'
p550
I8
sg459
(S'DIVIDE'
S'DOUBLE'
S'x'
S'y'
tp551
sg27
g28
sg461
L2L
sg462
(I12
I2
tp552
sg22
I1
sg20
F1.2346484144218266
sg23
F2.6268129420932382
sVY
L6L
sVX
L6L
sg464
L0L
sg31
g32
sg33
g34
sg21
S'2'
sg19
S'space'
p553
sg30
g11
sg467
L2L
sg468
g497
sg470
L2L
sS'block.thisIndex'
p554
I1
sg472
g488
sg474
L0L
sg476
g499
sa(dp555
S'block.thisTrialN'
p556
I9
sS'block.thisRepN'
p557
I0
sg29
NsS'block.thisN'
p558
I9
sg459
(S'DOUBLE'
S'DECREASE'
S'SUBTRACT'
S'x'
S'y'
tp559
sg27
g28
sg461
L3L
sg462
(I5
I4
I8
tp560
sg22
I1
sg20
F2.1045043448684737
sg23
F3.7004340597195551
sVY
L2L
sVX
L7L
sg464
g525
sg31
g32
sg33
g34
sg21
S'8'
sg19
S'space'
p561
sg30
g11
sg467
L8L
sg468
g487
sg470
L8L
sS'block.thisIndex'
p562
I8
sg472
g497
sg474
L0L
sg476
g528
sa(dp563
S'block.thisTrialN'
p564
I10
sS'block.thisRepN'
p565
I0
sg29
NsS'block.thisN'
p566
I10
sg459
(S'DIVIDE'
S'INCREASE'
S'DOUBLE'
S'THIRD'
S'x'
S'y'
tp567
sg27
g28
sg461
L4L
sg462
(I2
I4
I5
I1
tp568
sg22
I1
sg20
F5.5250197642017156
sg23
F5.5112151046050712
sVY
L5L
sVX
L6L
sg464
g497
sg31
g32
sg33
g34
sg21
S'1'
sg19
S'space'
p569
sg30
g11
sg467
L1L
sg468
g465
sg470
L1L
sS'block.thisIndex'
p570
I11
sg472
g488
sg474
g469
sg476
g477
sa(dp571
S'block.thisTrialN'
p572
I11
sS'block.thisRepN'
p573
I0
sg29
NsS'block.thisN'
p574
I11
sg459
(S'HALF'
S'SUBTRACT'
S'TRIPLE'
S'x'
S'y'
tp575
sg27
g28
sg461
L3L
sg462
(I9
I2
I1
tp576
sg22
I1
sg20
F2.7712649184977636
sg23
F3.4295441270805895
sVY
L7L
sVX
L3L
sg464
g484
sg31
g32
sg33
g34
sg21
S'1'
sg19
S'space'
p577
sg30
g11
sg467
L1L
sg468
g525
sg470
L1L
sS'block.thisIndex'
p578
I6
sg472
g475
sg474
L0L
sg476
VUBUxy
p579
sa(dp580
S'block.thisTrialN'
p581
I12
sS'block.thisRepN'
p582
I0
sg29
NsS'block.thisN'
p583
I12
sg459
(S'DOUBLE'
S'SUBTRACT'
S'x'
S'y'
tp584
sg27
g28
sg461
L2L
sg462
(I1
I2
tp585
sg22
I1
sg20
F1.7643681882182136
sg23
F3.6648242255905643
sVY
L7L
sVX
L8L
sg464
L0L
sg31
g32
sg33
g34
sg21
S'2'
sg19
S'space'
p586
sg30
g11
sg467
L2L
sg468
g525
sg470
L2L
sS'block.thisIndex'
p587
I2
sg472
g497
sg474
L0L
sg476
VUBxy
p588
sa(dp589
S'block.thisTrialN'
p590
I13
sS'block.thisRepN'
p591
I0
sg29
NsS'block.thisN'
p592
I13
sg459
(S'INCREASE'
S'DIVIDE'
S'THIRD'
S'x'
S'y'
tp593
sg27
g28
sg461
L3L
sg462
(I3
I1
I2
tp594
sg22
I1
sg20
F2.5476952979806811
sg23
F2.740448534139432
sVY
L3L
sVX
L9L
sg464
g469
sg31
g32
sg33
g34
sg21
S'2'
sg19
S'space'
p595
sg30
g11
sg467
L2L
sg468
g488
sg470
L2L
sS'block.thisIndex'
p596
I7
sg472
g465
sg474
L0L
sg476
g579
sa(dp597
S'block.thisTrialN'
p598
I14
sS'block.thisRepN'
p599
I0
sg29
NsS'block.thisN'
p600
I14
sg459
(S'DOUBLE'
S'DECREASE'
S'TRIPLE'
S'DIVIDE'
S'x'
S'y'
tp601
sg27
g28
sg461
L4L
sg462
(I1
I3
I2
I4
tp602
sg22
I0
sg20
F3.555963535211049
sg23
F6.3052780441939831
sVY
L4L
sVX
L4L
sg464
g484
sg31
g32
sg33
g34
sg21
S'8'
sg19
S'space'
p603
sg30
g11
sg467
L4L
sg468
g487
sg470
L4L
sS'block.thisIndex'
p604
I17
sg472
g497
sg474
g488
sg476
g489
sa(dp605
S'block.thisTrialN'
p606
I15
sS'block.thisRepN'
p607
I0
sg29
NsS'block.thisN'
p608
I15
sg459
(S'SUBTRACT'
S'HALF'
S'TRIPLE'
S'x'
S'y'
tp609
sg27
g28
sg461
L3L
sg462
(I12
I6
I2
tp610
sg22
I1
sg20
F4.7726714217569679
sg23
F4.6646523934323341
sVY
L4L
sVX
L4L
sg464
g484
sg31
g32
sg33
g34
sg21
S'2'
sg19
S'space'
p611
sg30
g11
sg467
L2L
sg468
g475
sg470
L2L
sS'block.thisIndex'
p612
I5
sg472
g525
sg474
L0L
sg476
g546
sa(dp613
S'block.thisTrialN'
p614
I16
sS'block.thisRepN'
p615
I0
sg29
NsS'block.thisN'
p616
I16
sg459
(S'DOUBLE'
S'TRIPLE'
S'DIVIDE'
S'DECREASE'
S'x'
S'y'
tp617
sg27
g28
sg461
L4L
sg462
(I8
I1
I3
I6
tp618
sg22
I1
sg20
F7.21949569566641
sg23
F2.5523141160374507
sVY
L8L
sVX
L9L
sg464
g488
sg31
g32
sg33
g34
sg21
S'6'
sg19
S'space'
p619
sg30
g11
sg467
L6L
sg468
g484
sg470
L6L
sS'block.thisIndex'
p620
I15
sg472
g497
sg474
g487
sg476
g537
sa(dp621
S'block.thisTrialN'
p622
I17
sS'block.thisRepN'
p623
I0
sg29
NsS'block.thisN'
p624
I17
sg459
(S'HALF'
S'TIMES'
S'x'
S'y'
tp625
sg27
g28
sg461
L2L
sg462
(I16
I8
tp626
sg22
I1
sg20
F3.2352591007947922
sg23
F3.1900886142393574
sVY
L4L
sVX
L4L
sg464
L0L
sg31
g32
sg33
g34
sg21
S'8'
sg19
S'space'
p627
sg30
g11
sg467
L8L
sg468
g507
sg470
L8L
sS'block.thisIndex'
p628
I3
sg472
g475
sg474
L0L
sg476
g588
sa(dp629
S'block.thisTrialN'
p630
I0
sS'block.thisRepN'
p631
I0
sg29
NsS'block.thisN'
p632
I0
sVRule
p633
(S'INCREASE'
S'DIVIDE'
S'HALF'
S'x'
S'y'
tp634
sg27
g28
sVLength
p635
L3L
sVIntermediate
p636
(I2
I1
I2
tp637
sg22
I1
sg20
F2.1892406527185813
sg23
F2.4892398478696123
sVY
L2L
sVX
L4L
sVOperatorc
p638
Vhalf
p639
sg31
g32
sg33
g34
sg21
S'2'
sg19
S'space'
p640
sg30
g11
sVResult
p641
L2L
sVOperatora
p642
VDIVIDE
p643
sVCorrectResponse
p644
L2L
sS'block.thisIndex'
p645
I7
sVOperatorb
p646
Vincrease
p647
sVOperatord
p648
L0L
sVStructure
p649
VUBUxy
p650
sa(dp651
S'block.thisTrialN'
p652
I1
sS'block.thisRepN'
p653
I0
sg29
NsS'block.thisN'
p654
I1
sg633
(S'DOUBLE'
S'TIMES'
S'THIRD'
S'x'
S'y'
tp655
sg27
g28
sg635
L3L
sg636
(I1
I4
I8
tp656
sg22
I1
sg20
F2.0179195300443098
sg23
F4.2290549480821937
sVY
L4L
sVX
L3L
sg638
Vthird
p657
sg31
g32
sg33
g34
sg21
S'8'
sg19
S'space'
p658
sg30
g11
sg641
L8L
sg642
VTIMES
p659
sg644
L8L
sS'block.thisIndex'
p660
I6
sg646
Vdouble
p661
sg648
L0L
sg649
g650
sa(dp662
S'block.thisTrialN'
p663
I2
sS'block.thisRepN'
p664
I0
sg29
NsS'block.thisN'
p665
I2
sg633
(S'TRIPLE'
S'SUBTRACT'
S'INCREASE'
S'HALF'
S'x'
S'y'
tp666
sg27
g28
sg635
L4L
sg636
(I3
I4
I1
I3
tp667
sg22
I1
sg20
F5.6216880768770352
sg23
F11.554592378321104
sVY
L3L
sVX
L6L
sg638
g647
sg31
g32
sg33
g34
sg21
S'3'
sg19
S'space'
p668
sg30
g11
sg641
L3L
sg642
VSUBTRACT
p669
sg644
L3L
sS'block.thisIndex'
p670
I13
sg646
Vtriple
p671
sg648
g639
sg649
VUBUUxy
p672
sa(dp673
S'block.thisTrialN'
p674
I3
sS'block.thisRepN'
p675
I0
sg29
NsS'block.thisN'
p676
I3
sg633
(S'TRIPLE'
S'SUBTRACT'
S'x'
S'y'
tp677
sg27
g28
sg635
L2L
sg636
(I2
I6
tp678
sg22
I1
sg20
F1.0415291164536029
sg23
F5.0797937734751031
sVY
L6L
sVX
L8L
sg638
L0L
sg31
g32
sg33
g34
sg21
S'6'
sg19
S'space'
p679
sg30
g11
sg641
L6L
sg642
g669
sg644
L6L
sS'block.thisIndex'
p680
I3
sg646
g671
sg648
L0L
sg649
VUBxy
p681
sa(dp682
S'block.thisTrialN'
p683
I4
sS'block.thisRepN'
p684
I0
sg29
NsS'block.thisN'
p685
I4
sg633
(S'TRIPLE'
S'HALF'
S'TIMES'
S'x'
S'y'
tp686
sg27
g28
sg635
L3L
sg636
(I6
I3
I9
tp687
sg22
I1
sg20
F5.911657668533735
sg23
F6.6423495707567781
sVY
L3L
sVX
L2L
sg638
g659
sg31
g32
sg33
g34
sg21
S'9'
sg19
S'space'
p688
sg30
g11
sg641
L9L
sg642
g639
sg644
L9L
sS'block.thisIndex'
p689
I9
sg646
g671
sg648
L0L
sg649
VUUBxy
p690
sa(dp691
S'block.thisTrialN'
p692
I5
sS'block.thisRepN'
p693
I0
sg29
NsS'block.thisN'
p694
I5
sg633
(S'TIMES'
S'DECREASE'
S'THIRD'
S'DOUBLE'
S'x'
S'y'
tp695
sg27
g28
sg635
L4L
sg636
(I6
I2
I1
I2
tp696
sg22
I1
sg20
F5.1579476181650534
sg23
F6.1151544336462393
sVY
L2L
sVX
L3L
sg638
g657
sg31
g32
sg33
g34
sg21
S'2'
sg19
S'space'
p697
sg30
g11
sg641
L2L
sg642
Vdecrease
p698
sg644
L2L
sS'block.thisIndex'
p699
I11
sg646
g659
sg648
g661
sg649
VBUUUxy
p700
sa(dp701
S'block.thisTrialN'
p702
I6
sS'block.thisRepN'
p703
I0
sg29
NsS'block.thisN'
p704
I6
sg633
(S'SUBTRACT'
S'DOUBLE'
S'DECREASE'
S'x'
S'y'
tp705
sg27
g28
sg635
L3L
sg636
(I8
I16
I7
tp706
sg22
I1
sg20
F1.9258423883002251
sg23
F8.5025563082890585
sVY
L9L
sVX
L9L
sg638
g698
sg31
g32
sg33
g34
sg21
S'7'
sg19
S'space'
p707
sg30
g11
sg641
L7L
sg642
g661
sg644
L7L
sS'block.thisIndex'
p708
I5
sg646
g669
sg648
L0L
sg649
VBUUxy
p709
sa(dp710
S'block.thisTrialN'
p711
I7
sS'block.thisRepN'
p712
I0
sg29
NsS'block.thisN'
p713
I7
sg633
(S'SUBTRACT'
S'THIRD'
S'x'
S'y'
tp714
sg27
g28
sg635
L2L
sg636
(I3
I1
tp715
sg22
I1
sg20
F4.9140157224610448
sg23
F4.2308982057729736
sVY
L2L
sVX
L9L
sg638
L0L
sg31
g32
sg33
g34
sg21
S'1'
sg19
S'space'
p716
sg30
g11
sg641
L1L
sg642
g657
sg644
L1L
sS'block.thisIndex'
p717
I0
sg646
g669
sg648
L0L
sg649
VBUxy
p718
sa(dp719
S'block.thisTrialN'
p720
I8
sS'block.thisRepN'
p721
I0
sg29
NsS'block.thisN'
p722
I8
sg633
(S'DECREASE'
S'HALF'
S'TRIPLE'
S'ADD'
S'x'
S'y'
tp723
sg27
g28
sg635
L4L
sg636
(I4
I12
I6
I5
tp724
sg22
I1
sg20
F10.52959238702897
sg23
F4.1790385172935203
sVY
L2L
sVX
L2L
sg638
g671
sg31
g32
sg33
g34
sg21
S'5'
sg19
S'space'
p725
sg30
g11
sg641
L5L
sg642
g639
sg644
L5L
sS'block.thisIndex'
p726
I16
sg646
g698
sg648
VADD
p727
sg649
VUUUBxy
p728
sa(dp729
S'block.thisTrialN'
p730
I9
sS'block.thisRepN'
p731
I0
sg29
NsS'block.thisN'
p732
I9
sg633
(S'THIRD'
S'INCREASE'
S'SUBTRACT'
S'HALF'
S'x'
S'y'
tp733
sg27
g28
sg635
L4L
sg636
(I4
I2
I3
I1
tp734
sg22
I1
sg20
F3.4596651339670643
sg23
F16.917015959392302
sVY
L2L
sVX
L8L
sg638
g669
sg31
g32
sg33
g34
sg21
S'1'
sg19
S'space'
p735
sg30
g11
sg641
L1L
sg642
g647
sg644
L1L
sS'block.thisIndex'
p736
I15
sg646
g657
sg648
g639
sg649
VUUBUxy
p737
sa(dp738
S'block.thisTrialN'
p739
I10
sS'block.thisRepN'
p740
I0
sg29
NsS'block.thisN'
p741
I10
sg633
(S'INCREASE'
S'TRIPLE'
S'HALF'
S'ADD'
S'x'
S'y'
tp742
sg27
g28
sg635
L4L
sg636
(I4
I2
I6
I7
tp743
sg22
I0
sg20
F5.6021485658129677
sVY
L2L
sVX
L2L
sg638
g639
sg31
g32
sg33
g34
sg21
Nsg19
S'space'
p744
sg30
g11
sg641
L7L
sg642
g671
sg644
L7L
sS'block.thisIndex'
p745
I17
sg646
g647
sg648
g727
sg649
g728
sa(dp746
S'block.thisTrialN'
p747
I11
sS'block.thisRepN'
p748
I0
sg29
NsS'block.thisN'
p749
I11
sg633
(S'INCREASE'
S'TIMES'
S'x'
S'y'
tp750
sg27
g28
sg635
L2L
sg636
(I8
I9
tp751
sg22
I1
sg20
F3.0046979098115116
sg23
F1.6820035829441622
sVY
L4L
sVX
L2L
sg638
L0L
sg31
g32
sg33
g34
sg21
S'9'
sg19
S'space'
p752
sg30
g11
sg641
L9L
sg642
g659
sg644
L9L
sS'block.thisIndex'
p753
I2
sg646
g647
sg648
L0L
sg649
g681
sa(dp754
S'block.thisTrialN'
p755
I12
sS'block.thisRepN'
p756
I0
sg29
NsS'block.thisN'
p757
I12
sg633
(S'ADD'
S'DECREASE'
S'HALF'
S'x'
S'y'
tp758
sg27
g28
sg635
L3L
sg636
(I3
I2
I6
tp759
sg22
I1
sg20
F2.1857413678662851
sg23
F4.6425805466715246
sVY
L4L
sVX
L6L
sg638
g639
sg31
g32
sg33
g34
sg21
S'6'
sg19
S'space'
p760
sg30
g11
sg641
L6L
sg642
g698
sg644
L6L
sS'block.thisIndex'
p761
I4
sg646
g727
sg648
L0L
sg649
g709
sa(dp762
S'block.thisTrialN'
p763
I13
sS'block.thisRepN'
p764
I0
sg29
NsS'block.thisN'
p765
I13
sg633
(S'INCREASE'
S'HALF'
S'TIMES'
S'TRIPLE'
S'x'
S'y'
tp766
sg27
g28
sg635
L4L
sg636
(I6
I12
I6
I7
tp767
sg22
I1
sg20
F8.29163751762826
sg23
F5.7020480913342908
sVY
L2L
sVX
L2L
sg638
g659
sg31
g32
sg33
g34
sg21
S'7'
sg19
S'space'
p768
sg30
g11
sg641
L7L
sg642
g639
sg644
L7L
sS'block.thisIndex'
p769
I14
sg646
g647
sg648
g671
sg649
g737
sa(dp770
S'block.thisTrialN'
p771
I14
sS'block.thisRepN'
p772
I0
sg29
NsS'block.thisN'
p773
I14
sg633
(S'TIMES'
S'THIRD'
S'x'
S'y'
tp774
sg27
g28
sg635
L2L
sg636
(I1
I4
tp775
sg22
I1
sg20
F1.2873781120870262
sg23
F2.5122768939472735
sVY
L4L
sVX
L3L
sg638
L0L
sg31
g32
sg33
g34
sg21
S'4'
sg19
S'space'
p776
sg30
g11
sg641
L4L
sg642
g657
sg644
L4L
sS'block.thisIndex'
p777
I1
sg646
g659
sg648
L0L
sg649
g718
sa(dp778
S'block.thisTrialN'
p779
I15
sS'block.thisRepN'
p780
I0
sg29
NsS'block.thisN'
p781
I15
sg633
(S'DECREASE'
S'HALF'
S'DIVIDE'
S'x'
S'y'
tp782
sg27
g28
sg635
L3L
sg636
(I4
I2
I1
tp783
sg22
I1
sg20
F7.8300339359557256
sg23
F3.962033161893487
sVY
L2L
sVX
L8L
sg638
g643
sg31
g32
sg33
g34
sg21
S'1'
sg19
S'space'
p784
sg30
g11
sg641
L1L
sg642
g639
sg644
L1L
sS'block.thisIndex'
p785
I8
sg646
g698
sg648
L0L
sg649
g690
sa(dp786
S'block.thisTrialN'
p787
I16
sS'block.thisRepN'
p788
I0
sg29
NsS'block.thisN'
p789
I16
sg633
(S'DIVIDE'
S'DECREASE'
S'THIRD'
S'DOUBLE'
S'x'
S'y'
tp790
sg27
g28
sg635
L4L
sg636
(I12
I4
I3
I1
tp791
sg22
I1
sg20
F6.3696937224594876
sg23
F5.4487501229159534
sVY
L3L
sVX
L6L
sg638
g657
sg31
g32
sg33
g34
sg21
S'1'
sg19
S'space'
p792
sg30
g11
sg641
L1L
sg642
g698
sg644
L1L
sS'block.thisIndex'
p793
I10
sg646
g643
sg648
g661
sg649
g700
sa(dp794
S'block.thisTrialN'
p795
I17
sS'block.thisRepN'
p796
I0
sg29
NsS'block.thisN'
p797
I17
sg633
(S'DECREASE'
S'DIVIDE'
S'TRIPLE'
S'DOUBLE'
S'x'
S'y'
tp798
sg27
g28
sg635
L4L
sg636
(I6
I18
I2
I1
tp799
sg22
I1
sg20
F4.419772096676752
sg23
F7.2810367738129571
sVY
L9L
sVX
L3L
sg638
g671
sg31
g32
sg33
g34
sg21
S'1'
sg19
S'space'
p800
sg30
g11
sg641
L1L
sg642
g643
sg644
L1L
sS'block.thisIndex'
p801
I12
sg646
g698
sg648
g661
sg649
g672
sa(dp802
S'block.thisTrialN'
p803
I0
sS'block.thisRepN'
p804
I0
sg29
NsS'block.thisN'
p805
I0
sVRule
p806
(S'SUBTRACT'
S'DECREASE'
S'TRIPLE'
S'DOUBLE'
S'x'
S'y'
tp807
sg27
g28
sVLength
p808
L4L
sVIntermediate
p809
(I6
I18
I17
I8
tp810
sg22
I1
sg20
F6.1414016947383061
sg23
F7.5864401049911976
sVY
L9L
sVX
L3L
sVOperatorc
p811
Vtriple
p812
sg31
g32
sg33
g34
sg21
S'8'
sg19
S'space'
p813
sg30
g11
sVResult
p814
L8L
sVOperatora
p815
Vdecrease
p816
sVCorrectResponse
p817
L8L
sS'block.thisIndex'
p818
I11
sVOperatorb
p819
VSUBTRACT
p820
sVOperatord
p821
Vdouble
p822
sVStructure
p823
VBUUUxy
p824
sa(dp825
S'block.thisTrialN'
p826
I1
sS'block.thisRepN'
p827
I0
sg29
NsS'block.thisN'
p828
I1
sg806
(S'THIRD'
S'INCREASE'
S'DIVIDE'
S'DOUBLE'
S'x'
S'y'
tp829
sg27
g28
sg808
L4L
sg809
(I18
I2
I3
I1
tp830
sg22
I1
sg20
F4.405145023134537
sg23
F5.222427339758724
sVY
L9L
sVX
L9L
sg811
VDIVIDE
p831
sg31
g32
sg33
g34
sg21
S'1'
sg19
S'space'
p832
sg30
g11
sg814
L1L
sg815
Vincrease
p833
sg817
L1L
sS'block.thisIndex'
p834
I15
sg819
Vthird
p835
sg821
g822
sg823
VUUBUxy
p836
sa(dp837
S'block.thisTrialN'
p838
I2
sS'block.thisRepN'
p839
I0
sg29
NsS'block.thisN'
p840
I2
sg806
(S'THIRD'
S'HALF'
S'ADD'
S'x'
S'y'
tp841
sg27
g28
sg808
L3L
sg809
(I6
I3
I1
tp842
sg22
I1
sg20
F2.8038955135270953
sg23
F5.320598745602183
sVY
L3L
sVX
L3L
sg811
VADD
p843
sg31
g32
sg33
g34
sg21
S'1'
sg19
S'space'
p844
sg30
g11
sg814
L1L
sg815
Vhalf
p845
sg817
L1L
sS'block.thisIndex'
p846
I9
sg819
g835
sg821
L0L
sg823
VUUBxy
p847
sa(dp848
S'block.thisTrialN'
p849
I3
sS'block.thisRepN'
p850
I0
sg29
NsS'block.thisN'
p851
I3
sg806
(S'INCREASE'
S'ADD'
S'x'
S'y'
tp852
sg27
g28
sg808
L2L
sg809
(I5
I6
tp853
sg22
I0
sg20
F1.0909369607688859
sg23
F2.2158571253530681
sVY
L2L
sVX
L3L
sg811
L0L
sg31
g32
sg33
g34
sg21
S'7'
sg19
S'space'
p854
sg30
g11
sg814
L6L
sg815
g843
sg817
L6L
sS'block.thisIndex'
p855
I3
sg819
g833
sg821
L0L
sg823
VUBxy
p856
sa(dp857
S'block.thisTrialN'
p858
I4
sS'block.thisRepN'
p859
I0
sg29
NsS'block.thisN'
p860
I4
sg806
(S'DIVIDE'
S'DECREASE'
S'TRIPLE'
S'x'
S'y'
tp861
sg27
g28
sg808
L3L
sg809
(I9
I8
I4
tp862
sg22
I1
sg20
F2.8340392680838704
sg23
F6.1831033431226388
sVY
L2L
sVX
L3L
sg811
g812
sg31
g32
sg33
g34
sg21
S'4'
sg19
S'space'
p863
sg30
g11
sg814
L4L
sg815
g816
sg817
L4L
sS'block.thisIndex'
p864
I5
sg819
g831
sg821
L0L
sg823
VBUUxy
p865
sa(dp866
S'block.thisTrialN'
p867
I5
sS'block.thisRepN'
p868
I0
sg29
NsS'block.thisN'
p869
I5
sg806
(S'ADD'
S'HALF'
S'THIRD'
S'x'
S'y'
tp870
sg27
g28
sg808
L3L
sg809
(I2
I1
I9
tp871
sg22
I1
sg20
F5.2030449622543529
sg23
F3.448339965660125
sVY
L8L
sVX
L6L
sg811
g835
sg31
g32
sg33
g34
sg21
S'9'
sg19
S'space'
p872
sg30
g11
sg814
L9L
sg815
g845
sg817
L9L
sS'block.thisIndex'
p873
I4
sg819
g843
sg821
L0L
sg823
g865
sa(dp874
S'block.thisTrialN'
p875
I6
sS'block.thisRepN'
p876
I0
sg29
NsS'block.thisN'
p877
I6
sg806
(S'THIRD'
S'DOUBLE'
S'INCREASE'
S'TIMES'
S'x'
S'y'
tp878
sg27
g28
sg808
L4L
sg809
(I8
I9
I18
I6
tp879
sg22
I1
sg20
F6.9189033125294372
sg23
F3.2346095684915781
sVY
L4L
sVX
L2L
sg811
g833
sg31
g32
sg33
g34
sg21
S'6'
sg19
S'space'
p880
sg30
g11
sg814
L6L
sg815
g822
sg817
L6L
sS'block.thisIndex'
p881
I17
sg819
g835
sg821
VTIMES
p882
sg823
VUUUBxy
p883
sa(dp884
S'block.thisTrialN'
p885
I7
sS'block.thisRepN'
p886
I0
sg29
NsS'block.thisN'
p887
I7
sg806
(S'THIRD'
S'TIMES'
S'DOUBLE'
S'DECREASE'
S'x'
S'y'
tp888
sg27
g28
sg808
L4L
sg809
(I1
I2
I6
I2
tp889
sg22
I1
sg20
F7.0326942884130403
sg23
F5.0274847319815308
sVY
L3L
sVX
L2L
sg811
g822
sg31
g32
sg33
g34
sg21
S'2'
sg19
S'space'
p890
sg30
g11
sg814
L2L
sg815
g882
sg817
L2L
sS'block.thisIndex'
p891
I13
sg819
g835
sg821
g816
sg823
VUBUUxy
p892
sa(dp893
S'block.thisTrialN'
p894
I8
sS'block.thisRepN'
p895
I0
sg29
NsS'block.thisN'
p896
I8
sg806
(S'SUBTRACT'
S'DECREASE'
S'x'
S'y'
tp897
sg27
g28
sg808
L2L
sg809
(I5
I3
tp898
sg22
I1
sg20
F1.7152893095044419
sg23
F2.4365234486758709
sVY
L2L
sVX
L6L
sg811
L0L
sg31
g32
sg33
g34
sg21
S'3'
sg19
S'space'
p899
sg30
g11
sg814
L3L
sg815
g816
sg817
L3L
sS'block.thisIndex'
p900
I1
sg819
g820
sg821
L0L
sg823
VBUxy
p901
sa(dp902
S'block.thisTrialN'
p903
I9
sS'block.thisRepN'
p904
I0
sg29
NsS'block.thisN'
p905
I9
sg806
(S'HALF'
S'TRIPLE'
S'INCREASE'
S'DIVIDE'
S'x'
S'y'
tp906
sg27
g28
sg808
L4L
sg809
(I3
I4
I12
I6
tp907
sg22
I1
sg20
F7.0150659278733656
sg23
F4.1075805239379406
sVY
L3L
sVX
L9L
sg811
g833
sg31
g32
sg33
g34
sg21
S'6'
sg19
S'space'
p908
sg30
g11
sg814
L6L
sg815
g812
sg817
L6L
sS'block.thisIndex'
p909
I16
sg819
g845
sg821
g831
sg823
g883
sa(dp910
S'block.thisTrialN'
p911
I10
sS'block.thisRepN'
p912
I0
sg29
NsS'block.thisN'
p913
I10
sg806
(S'DIVIDE'
S'INCREASE'
S'x'
S'y'
tp914
sg27
g28
sg808
L2L
sg809
(I4
I2
tp915
sg22
I1
sg20
F1.3762646367540583
sg23
F1.8783001992851496
sVY
L2L
sVX
L3L
sg811
L0L
sg31
g32
sg33
g34
sg21
S'2'
sg19
S'space'
p916
sg30
g11
sg814
L2L
sg815
g833
sg817
L2L
sS'block.thisIndex'
p917
I0
sg819
g831
sg821
L0L
sg823
g901
sa(dp918
S'block.thisTrialN'
p919
I11
sS'block.thisRepN'
p920
I0
sg29
NsS'block.thisN'
p921
I11
sg806
(S'THIRD'
S'DOUBLE'
S'ADD'
S'DECREASE'
S'x'
S'y'
tp922
sg27
g28
sg808
L4L
sg809
(I5
I12
I24
I8
tp923
sg22
I1
sg20
F6.8836595400935039
sg23
F9.4311574586899951
sVY
L7L
sVX
L6L
sg811
g843
sg31
g32
sg33
g34
sg21
S'8'
sg19
S'space'
p924
sg30
g11
sg814
L8L
sg815
g822
sg817
L8L
sS'block.thisIndex'
p925
I14
sg819
g835
sg821
g816
sg823
g836
sa(dp926
S'block.thisTrialN'
p927
I12
sS'block.thisRepN'
p928
I0
sg29
NsS'block.thisN'
p929
I12
sg806
(S'ADD'
S'DOUBLE'
S'DECREASE'
S'THIRD'
S'x'
S'y'
tp930
sg27
g28
sg808
L4L
sg809
(I2
I1
I2
I8
tp931
sg22
I1
sg20
F6.4869241394335404
sg23
F6.9629885621834546
sVY
L6L
sVX
L6L
sg811
g816
sg31
g32
sg33
g34
sg21
S'8'
sg19
S'space'
p932
sg30
g11
sg814
L8L
sg815
g822
sg817
L8L
sS'block.thisIndex'
p933
I10
sg819
g843
sg821
g835
sg823
g824
sa(dp934
S'block.thisTrialN'
p935
I13
sS'block.thisRepN'
p936
I0
sg29
NsS'block.thisN'
p937
I13
sg806
(S'INCREASE'
S'SUBTRACT'
S'HALF'
S'x'
S'y'
tp938
sg27
g28
sg808
L3L
sg809
(I4
I2
I3
tp939
sg22
I1
sg20
F5.0266731666633859
sg23
F4.098672553547658
sVY
L2L
sVX
L8L
sg811
g845
sg31
g32
sg33
g34
sg21
S'3'
sg19
S'space'
p940
sg30
g11
sg814
L3L
sg815
g820
sg817
L3L
sS'block.thisIndex'
p941
I7
sg819
g833
sg821
L0L
sg823
VUBUxy
p942
sa(dp943
S'block.thisTrialN'
p944
I14
sS'block.thisRepN'
p945
I0
sg29
NsS'block.thisN'
p946
I14
sg806
(S'INCREASE'
S'TRIPLE'
S'DIVIDE'
S'x'
S'y'
tp947
sg27
g28
sg808
L3L
sg809
(I2
I6
I7
tp948
sg22
I1
sg20
F2.9338709006551653
sg23
F5.1586006500292569
sVY
L3L
sVX
L6L
sg811
g831
sg31
g32
sg33
g34
sg21
S'7'
sg19
S'space'
p949
sg30
g11
sg814
L7L
sg815
g812
sg817
L7L
sS'block.thisIndex'
p950
I8
sg819
g833
sg821
L0L
sg823
g847
sa(dp951
S'block.thisTrialN'
p952
I15
sS'block.thisRepN'
p953
I0
sg29
NsS'block.thisN'
p954
I15
sg806
(S'DECREASE'
S'DIVIDE'
S'x'
S'y'
tp955
sg27
g28
sg808
L2L
sg809
(I2
I1
tp956
sg22
I1
sg20
F1.9841603029053658
sg23
F2.8375151052605361
sVY
L4L
sVX
L8L
sg811
L0L
sg31
g32
sg33
g34
sg21
S'1'
sg19
S'space'
p957
sg30
g11
sg814
L1L
sg815
g831
sg817
L1L
sS'block.thisIndex'
p958
I2
sg819
g816
sg821
L0L
sg823
g856
sa(dp959
S'block.thisTrialN'
p960
I16
sS'block.thisRepN'
p961
I0
sg29
NsS'block.thisN'
p962
I16
sg806
(S'HALF'
S'ADD'
S'TRIPLE'
S'x'
S'y'
tp963
sg27
g28
sg808
L3L
sg809
(I9
I12
I6
tp964
sg22
I1
sg20
F3.2234625316923484
sg23
F5.7655797618208453
sVY
L3L
sVX
L3L
sg811
g812
sg31
g32
sg33
g34
sg21
S'6'
sg19
S'space'
p965
sg30
g11
sg814
L6L
sg815
g843
sg817
L6L
sS'block.thisIndex'
p966
I6
sg819
g845
sg821
L0L
sg823
g942
sa(dp967
S'block.thisTrialN'
p968
I17
sS'block.thisRepN'
p969
I0
sg29
NsS'block.thisN'
p970
I17
sg806
(S'DOUBLE'
S'ADD'
S'INCREASE'
S'THIRD'
S'x'
S'y'
tp971
sg27
g28
sg808
L4L
sg809
(I1
I2
I4
I8
tp972
sg22
I1
sg20
F3.3306356981629506
sg23
F5.3481562698725611
sVY
L2L
sVX
L3L
sg811
g833
sg31
g32
sg33
g34
sg21
S'8'
sg19
S'space'
p973
sg30
g11
sg814
L8L
sg815
g843
sg817
L8L
sS'block.thisIndex'
p974
I12
sg819
g822
sg821
g835
sg823
g892
sa(dp975
S'block.thisTrialN'
p976
I0
sS'block.thisRepN'
p977
I0
sg29
NsS'block.thisN'
p978
I0
sVRule
p979
(S'THIRD'
S'TIMES'
S'DECREASE'
S'x'
S'y'
tp980
sg27
g28
sVLength
p981
L3L
sVIntermediate
p982
(I3
I15
I5
tp983
sg22
I1
sg20
F3.5201930678449571
sg23
F5.0136391267878935
sVY
L5L
sVX
L4L
sVOperatorc
p984
Vdecrease
p985
sg31
g32
sg33
g34
sg21
S'5'
sg19
S'space'
p986
sg30
g11
sVResult
p987
L5L
sVOperatora
p988
VTIMES
p989
sVCorrectResponse
p990
L5L
sS'block.thisIndex'
p991
I7
sVOperatorb
p992
Vthird
p993
sVOperatord
p994
L0L
sVStructure
p995
VUBUxy
p996
sa(dp997
S'block.thisTrialN'
p998
I1
sS'block.thisRepN'
p999
I0
sg29
NsS'block.thisN'
p1000
I1
sg979
(S'TRIPLE'
S'HALF'
S'ADD'
S'DECREASE'
S'x'
S'y'
tp1001
sg27
g28
sg981
L4L
sg982
(I1
I4
I2
I6
tp1002
sg22
I1
sg20
F6.6919103491818532
sg23
F5.1721753834281117
sVY
L3L
sVX
L2L
sg984
VADD
p1003
sg31
g32
sg33
g34
sg21
S'6'
sg19
S'space'
p1004
sg30
g11
sg987
L6L
sg988
Vhalf
p1005
sg990
L6L
sS'block.thisIndex'
p1006
I15
sg992
Vtriple
p1007
sg994
g985
sg995
VUUBUxy
p1008
sa(dp1009
S'block.thisTrialN'
p1010
I2
sS'block.thisRepN'
p1011
I0
sg29
NsS'block.thisN'
p1012
I2
sg979
(S'SUBTRACT'
S'HALF'
S'INCREASE'
S'TRIPLE'
S'x'
S'y'
tp1013
sg27
g28
sg981
L4L
sg982
(I15
I16
I8
I3
tp1014
sg22
I1
sg20
F6.4564199226442724
sg23
F6.1468859723536298
sVY
L5L
sVX
L5L
sg984
Vincrease
p1015
sg31
g32
sg33
g34
sg21
S'3'
sg19
S'space'
p1016
sg30
g11
sg987
L3L
sg988
g1005
sg990
L3L
sS'block.thisIndex'
p1017
I10
sg992
VSUBTRACT
p1018
sg994
g1007
sg995
VBUUUxy
p1019
sa(dp1020
S'block.thisTrialN'
p1021
I3
sS'block.thisRepN'
p1022
I0
sg29
NsS'block.thisN'
p1023
I3
sg979
(S'TIMES'
S'INCREASE'
S'THIRD'
S'DOUBLE'
S'x'
S'y'
tp1024
sg27
g28
sg981
L4L
sg982
(I6
I2
I3
I9
tp1025
sg22
I1
sg20
F4.7592471726238728
sg23
F3.8562573995441198
sVY
L3L
sVX
L3L
sg984
g993
sg31
g32
sg33
g34
sg21
S'9'
sg19
S'space'
p1026
sg30
g11
sg987
L9L
sg988
g1015
sg990
L9L
sS'block.thisIndex'
p1027
I11
sg992
g989
sg994
Vdouble
p1028
sg995
g1019
sa(dp1029
S'block.thisTrialN'
p1030
I4
sS'block.thisRepN'
p1031
I0
sg29
NsS'block.thisN'
p1032
I4
sg979
(S'THIRD'
S'DECREASE'
S'TIMES'
S'x'
S'y'
tp1033
sg27
g28
sg981
L3L
sg982
(I25
I24
I8
tp1034
sg22
I1
sg20
F2.4573515254305676
sg23
F7.4404339406173676
sVY
L5L
sVX
L5L
sg984
g989
sg31
g32
sg33
g34
sg21
S'8'
sg19
S'space'
p1035
sg30
g11
sg987
L8L
sg988
g985
sg990
L8L
sS'block.thisIndex'
p1036
I8
sg992
g993
sg994
L0L
sg995
VUUBxy
p1037
sa(dp1038
S'block.thisTrialN'
p1039
I5
sS'block.thisRepN'
p1040
I0
sg29
NsS'block.thisN'
p1041
I5
sg979
(S'TRIPLE'
S'DECREASE'
S'HALF'
S'TIMES'
S'x'
S'y'
tp1042
sg27
g28
sg981
L4L
sg982
(I6
I3
I2
I6
tp1043
sg22
I1
sg20
F3.8282165756681934
sg23
F6.774107321863994
sVY
L2L
sVX
L3L
sg984
g1005
sg31
g32
sg33
g34
sg21
S'6'
sg19
S'space'
p1044
sg30
g11
sg987
L6L
sg988
g985
sg990
L6L
sS'block.thisIndex'
p1045
I17
sg992
g1007
sg994
g989
sg995
VUUUBxy
p1046
sa(dp1047
S'block.thisTrialN'
p1048
I6
sS'block.thisRepN'
p1049
I0
sg29
NsS'block.thisN'
p1050
I6
sg979
(S'THIRD'
S'ADD'
S'INCREASE'
S'x'
S'y'
tp1051
sg27
g28
sg981
L3L
sg982
(I8
I15
I5
tp1052
sg22
I1
sg20
F1.7461224921280518
sg23
F5.3822098164819181
sVY
L7L
sVX
L7L
sg984
g1015
sg31
g32
sg33
g34
sg21
S'5'
sg19
S'space'
p1053
sg30
g11
sg987
L5L
sg988
g1003
sg990
L5L
sS'block.thisIndex'
p1054
I6
sg992
g993
sg994
L0L
sg995
g996
sa(dp1055
S'block.thisTrialN'
p1056
I7
sS'block.thisRepN'
p1057
I0
sg29
NsS'block.thisN'
p1058
I7
sg979
(S'INCREASE'
S'DIVIDE'
S'TRIPLE'
S'DOUBLE'
S'x'
S'y'
tp1059
sg27
g28
sg981
L4L
sg982
(I6
I18
I3
I4
tp1060
sg22
I1
sg20
F5.9247589013539255
sg23
F3.3523533819243312
sVY
L6L
sVX
L3L
sg984
g1007
sg31
g32
sg33
g34
sg21
S'4'
sg19
S'space'
p1061
sg30
g11
sg987
L4L
sg988
VDIVIDE
p1062
sg990
L4L
sS'block.thisIndex'
p1063
I12
sg992
g1015
sg994
g1028
sg995
VUBUUxy
p1064
sa(dp1065
S'block.thisTrialN'
p1066
I8
sS'block.thisRepN'
p1067
I0
sg29
NsS'block.thisN'
p1068
I8
sg979
(S'TIMES'
S'THIRD'
S'HALF'
S'x'
S'y'
tp1069
sg27
g28
sg981
L3L
sg982
(I3
I1
I5
tp1070
sg22
I1
sg20
F4.1832548773381859
sg23
F2.7421875026775524
sVY
L5L
sVX
L6L
sg984
g1005
sg31
g32
sg33
g34
sg21
S'5'
sg19
S'space'
p1071
sg30
g11
sg987
L5L
sg988
g993
sg990
L5L
sS'block.thisIndex'
p1072
I5
sg992
g989
sg994
L0L
sg995
VBUUxy
p1073
sa(dp1074
S'block.thisTrialN'
p1075
I9
sS'block.thisRepN'
p1076
I0
sg29
NsS'block.thisN'
p1077
I9
sg979
(S'THIRD'
S'SUBTRACT'
S'x'
S'y'
tp1078
sg27
g28
sg981
L2L
sg982
(I3
I1
tp1079
sg22
I1
sg20
F1.2653377620736137
sg23
F2.6962516461499035
sVY
L2L
sVX
L5L
sg984
L0L
sg31
g32
sg33
g34
sg21
S'1'
sg19
S'space'
p1080
sg30
g11
sg987
L1L
sg988
g1018
sg990
L1L
sS'block.thisIndex'
p1081
I3
sg992
g993
sg994
L0L
sg995
VUBxy
p1082
sa(dp1083
S'block.thisTrialN'
p1084
I10
sS'block.thisRepN'
p1085
I0
sg29
NsS'block.thisN'
p1086
I10
sg979
(S'THIRD'
S'INCREASE'
S'HALF'
S'DIVIDE'
S'x'
S'y'
tp1087
sg27
g28
sg981
L4L
sg982
(I4
I2
I3
I1
tp1088
sg22
I1
sg20
F3.3941596694057807
sg23
F5.1932925299042836
sVY
L2L
sVX
L8L
sg984
g1005
sg31
g32
sg33
g34
sg21
S'1'
sg19
S'space'
p1089
sg30
g11
sg987
L1L
sg988
g1015
sg990
L1L
sS'block.thisIndex'
p1090
I16
sg992
g993
sg994
g1062
sg995
g1046
sa(dp1091
S'block.thisTrialN'
p1092
I11
sS'block.thisRepN'
p1093
I0
sg29
NsS'block.thisN'
p1094
I11
sg979
(S'TRIPLE'
S'HALF'
S'DIVIDE'
S'x'
S'y'
tp1095
sg27
g28
sg981
L3L
sg982
(I2
I1
I3
tp1096
sg22
I1
sg20
F2.6617529459763318
sg23
F8.2396374938543886
sVY
L2L
sVX
L4L
sg984
g1062
sg31
g32
sg33
g34
sg21
S'3'
sg19
S'space'
p1097
sg30
g11
sg987
L3L
sg988
g1005
sg990
L3L
sS'block.thisIndex'
p1098
I9
sg992
g1007
sg994
L0L
sg995
g1037
sa(dp1099
S'block.thisTrialN'
p1100
I12
sS'block.thisRepN'
p1101
I0
sg29
NsS'block.thisN'
p1102
I12
sg979
(S'THIRD'
S'ADD'
S'x'
S'y'
tp1103
sg27
g28
sg981
L2L
sg982
(I9
I3
tp1104
sg22
I0
sg20
F1.1575287119485438
sg23
F2.4987203585915267
sVY
L5L
sVX
L4L
sg984
L0L
sg31
g32
sg33
g34
sg21
S'4'
sg19
S'space'
p1105
sg30
g11
sg987
L3L
sg988
g1003
sg990
L3L
sS'block.thisIndex'
p1106
I2
sg992
g993
sg994
L0L
sg995
g1082
sa(dp1107
S'block.thisTrialN'
p1108
I13
sS'block.thisRepN'
p1109
I0
sg29
NsS'block.thisN'
p1110
I13
sg979
(S'TIMES'
S'DECREASE'
S'x'
S'y'
tp1111
sg27
g28
sg981
L2L
sg982
(I2
I4
tp1112
sg22
I1
sg20
F1.555332551128231
sg23
F1.9079386066878214
sVY
L2L
sVX
L3L
sg984
L0L
sg31
g32
sg33
g34
sg21
S'4'
sg19
S'space'
p1113
sg30
g11
sg987
L4L
sg988
g985
sg990
L4L
sS'block.thisIndex'
p1114
I0
sg992
g989
sg994
L0L
sg995
VBUxy
p1115
sa(dp1116
S'block.thisTrialN'
p1117
I14
sS'block.thisRepN'
p1118
I0
sg29
NsS'block.thisN'
p1119
I14
sg979
(S'TRIPLE'
S'SUBTRACT'
S'DOUBLE'
S'DECREASE'
S'x'
S'y'
tp1120
sg27
g28
sg981
L4L
sg982
(I2
I4
I1
I3
tp1121
sg22
I1
sg20
F3.208610781468451
sg23
F5.6847794932546094
sVY
L3L
sVX
L3L
sg984
g1028
sg31
g32
sg33
g34
sg21
S'3'
sg19
S'space'
p1122
sg30
g11
sg987
L3L
sg988
g1018
sg990
L3L
sS'block.thisIndex'
p1123
I13
sg992
g1007
sg994
g985
sg995
g1064
sa(dp1124
S'block.thisTrialN'
p1125
I15
sS'block.thisRepN'
p1126
I0
sg29
NsS'block.thisN'
p1127
I15
sg979
(S'THIRD'
S'DOUBLE'
S'ADD'
S'INCREASE'
S'x'
S'y'
tp1128
sg27
g28
sg981
L4L
sg982
(I10
I12
I24
I8
tp1129
sg22
I1
sg20
F5.7661593012744561
sg23
F8.1978700521867722
sVY
L2L
sVX
L9L
sg984
g1003
sg31
g32
sg33
g34
sg21
S'8'
sg19
S'space'
p1130
sg30
g11
sg987
L8L
sg988
g1028
sg990
L8L
sS'block.thisIndex'
p1131
I14
sg992
g993
sg994
g1015
sg995
g1008
sa(dp1132
S'block.thisTrialN'
p1133
I16
sS'block.thisRepN'
p1134
I0
sg29
NsS'block.thisN'
p1135
I16
sg979
(S'TIMES'
S'INCREASE'
S'x'
S'y'
tp1136
sg27
g28
sg981
L2L
sg982
(I3
I6
tp1137
sg22
I1
sg20
F1.1900949135888368
sg23
F3.0920778416329995
sVY
L2L
sVX
L2L
sg984
L0L
sg31
g32
sg33
g34
sg21
S'6'
sg19
S'space'
p1138
sg30
g11
sg987
L6L
sg988
g1015
sg990
L6L
sS'block.thisIndex'
p1139
I1
sg992
g989
sg994
L0L
sg995
g1115
sa(dp1140
S'block.thisTrialN'
p1141
I17
sS'block.thisRepN'
p1142
I0
sg29
NsS'block.thisN'
p1143
I17
sg979
(S'TIMES'
S'DECREASE'
S'HALF'
S'x'
S'y'
tp1144
sg27
g28
sg981
L3L
sg982
(I4
I3
I9
tp1145
sg22
I1
sg20
F1.9756243436131626
sg23
F3.1685448623029515
sVY
L3L
sVX
L8L
sg984
g1005
sg31
g32
sg33
g34
sg21
S'9'
sg19
S'space'
p1146
sg30
g11
sg987
L9L
sg988
g985
sg990
L9L
sS'block.thisIndex'
p1147
I4
sg992
g989
sg994
L0L
sg995
g1073
sa(dp1148
S'block.thisTrialN'
p1149
I0
sS'block.thisRepN'
p1150
I0
sg29
NsS'block.thisN'
p1151
I0
sVRule
p1152
(S'DOUBLE'
S'THIRD'
S'TIMES'
S'x'
S'y'
tp1153
sg27
g28
sVLength
p1154
L3L
sVIntermediate
p1155
(I12
I4
I8
tp1156
sg22
I0
sg20
F3.9009473860496655
sg23
F15.76641757437028
sVY
L6L
sVX
L2L
sVOperatorc
p1157
VTIMES
p1158
sg31
g32
sg33
g34
sg21
S'4'
sg19
S'space'
p1159
sg30
g11
sVResult
p1160
L8L
sVOperatora
p1161
Vthird
p1162
sVCorrectResponse
p1163
L8L
sS'block.thisIndex'
p1164
I9
sVOperatorb
p1165
Vdouble
p1166
sVOperatord
p1167
L0L
sVStructure
p1168
VUUBxy
p1169
sa(dp1170
S'block.thisTrialN'
p1171
I1
sS'block.thisRepN'
p1172
I0
sg29
NsS'block.thisN'
p1173
I1
sg1152
(S'INCREASE'
S'ADD'
S'HALF'
S'TRIPLE'
S'x'
S'y'
tp1174
sg27
g28
sg1154
L4L
sg1155
(I6
I3
I6
I7
tp1175
sg22
I1
sg20
F6.0150113336276263
sg23
F4.9544361545704305
sVY
L3L
sVX
L2L
sg1157
Vhalf
p1176
sg31
g32
sg33
g34
sg21
S'7'
sg19
S'space'
p1177
sg30
g11
sg1160
L7L
sg1161
VADD
p1178
sg1163
L7L
sS'block.thisIndex'
p1179
I13
sg1165
Vincrease
p1180
sg1167
Vtriple
p1181
sg1168
VUBUUxy
p1182
sa(dp1183
S'block.thisTrialN'
p1184
I2
sS'block.thisRepN'
p1185
I0
sg29
NsS'block.thisN'
p1186
I2
sg1152
(S'DOUBLE'
S'DECREASE'
S'ADD'
S'x'
S'y'
tp1187
sg27
g28
sg1154
L3L
sg1155
(I4
I3
I6
tp1188
sg22
I1
sg20
F2.0825392371043563
sg23
F3.3324989037355408
sVY
L2L
sVX
L2L
sg1157
g1178
sg31
g32
sg33
g34
sg21
S'6'
sg19
S'space'
p1189
sg30
g11
sg1160
L6L
sg1161
Vdecrease
p1190
sg1163
L6L
sS'block.thisIndex'
p1191
I8
sg1165
g1166
sg1167
L0L
sg1168
g1169
sa(dp1192
S'block.thisTrialN'
p1193
I3
sS'block.thisRepN'
p1194
I0
sg29
NsS'block.thisN'
p1195
I3
sg1152
(S'DECREASE'
S'TRIPLE'
S'DIVIDE'
S'DOUBLE'
S'x'
S'y'
tp1196
sg27
g28
sg1154
L4L
sg1155
(I6
I2
I6
I5
tp1197
sg22
I1
sg20
F6.4373707103077322
sg23
F6.4492225736612454
sVY
L3L
sVX
L3L
sg1157
VDIVIDE
p1198
sg31
g32
sg33
g34
sg21
S'5'
sg19
S'space'
p1199
sg30
g11
sg1160
L5L
sg1161
g1181
sg1163
L5L
sS'block.thisIndex'
p1200
I14
sg1165
g1190
sg1167
g1166
sg1168
VUUBUxy
p1201
sa(dp1202
S'block.thisTrialN'
p1203
I4
sS'block.thisRepN'
p1204
I0
sg29
NsS'block.thisN'
p1205
I4
sg1152
(S'TIMES'
S'HALF'
S'INCREASE'
S'x'
S'y'
tp1206
sg27
g28
sg1154
L3L
sg1155
(I6
I3
I9
tp1207
sg22
I1
sg20
F3.5751341846771538
sg23
F5.5070337409852073
sVY
L3L
sVX
L5L
sg1157
g1180
sg31
g32
sg33
g34
sg21
S'9'
sg19
S'space'
p1208
sg30
g11
sg1160
L9L
sg1161
g1176
sg1163
L9L
sS'block.thisIndex'
p1209
I5
sg1165
g1158
sg1167
L0L
sg1168
VBUUxy
p1210
sa(dp1211
S'block.thisTrialN'
p1212
I5
sS'block.thisRepN'
p1213
I0
sg29
NsS'block.thisN'
p1214
I5
sg1152
(S'INCREASE'
S'SUBTRACT'
S'x'
S'y'
tp1215
sg27
g28
sg1154
L2L
sg1155
(I3
I4
tp1216
sg22
I1
sg20
F1.1859709438867867
sg23
F2.7863185976166278
sVY
L3L
sVX
L6L
sg1157
L0L
sg31
g32
sg33
g34
sg21
S'4'
sg19
S'space'
p1217
sg30
g11
sg1160
L4L
sg1161
VSUBTRACT
p1218
sg1163
L4L
sS'block.thisIndex'
p1219
I2
sg1165
g1180
sg1167
L0L
sg1168
VUBxy
p1220
sa(dp1221
S'block.thisTrialN'
p1222
I6
sS'block.thisRepN'
p1223
I0
sg29
NsS'block.thisN'
p1224
I6
sg1152
(S'HALF'
S'TRIPLE'
S'INCREASE'
S'SUBTRACT'
S'x'
S'y'
tp1225
sg27
g28
sg1154
L4L
sg1155
(I1
I2
I6
I3
tp1226
sg22
I1
sg20
F5.9290823502233252
sg23
F3.716359497862868
sVY
L2L
sVX
L3L
sg1157
g1180
sg31
g32
sg33
g34
sg21
S'3'
sg19
S'space'
p1227
sg30
g11
sg1160
L3L
sg1161
g1181
sg1163
L3L
sS'block.thisIndex'
p1228
I17
sg1165
g1176
sg1167
g1218
sg1168
VUUUBxy
p1229
sa(dp1230
S'block.thisTrialN'
p1231
I7
sS'block.thisRepN'
p1232
I0
sg29
NsS'block.thisN'
p1233
I7
sg1152
(S'SUBTRACT'
S'DOUBLE'
S'TRIPLE'
S'DECREASE'
S'x'
S'y'
tp1234
sg27
g28
sg1154
L4L
sg1155
(I2
I6
I12
I8
tp1235
sg22
I1
sg20
F4.5336904594441876
sg23
F8.2958860743092373
sVY
L4L
sVX
L3L
sg1157
g1181
sg31
g32
sg33
g34
sg21
S'8'
sg19
S'space'
p1236
sg30
g11
sg1160
L8L
sg1161
g1166
sg1163
L8L
sS'block.thisIndex'
p1237
I10
sg1165
g1218
sg1167
g1190
sg1168
VBUUUxy
p1238
sa(dp1239
S'block.thisTrialN'
p1240
I8
sS'block.thisRepN'
p1241
I0
sg29
NsS'block.thisN'
p1242
I8
sg1152
(S'SUBTRACT'
S'TRIPLE'
S'DECREASE'
S'x'
S'y'
tp1243
sg27
g28
sg1154
L3L
sg1155
(I4
I12
I3
tp1244
sg22
I1
sg20
F2.919129388872534
sg23
F6.3872055450920016
sVY
L9L
sVX
L5L
sg1157
g1190
sg31
g32
sg33
g34
sg21
S'3'
sg19
S'space'
p1245
sg30
g11
sg1160
L3L
sg1161
g1181
sg1163
L3L
sS'block.thisIndex'
p1246
I4
sg1165
g1218
sg1167
L0L
sg1168
g1210
sa(dp1247
S'block.thisTrialN'
p1248
I9
sS'block.thisRepN'
p1249
I0
sg29
NsS'block.thisN'
p1250
I9
sg1152
(S'SUBTRACT'
S'TRIPLE'
S'DECREASE'
S'DOUBLE'
S'x'
S'y'
tp1251
sg27
g28
sg1154
L4L
sg1155
(I4
I3
I9
I1
tp1252
sg22
I1
sg20
F6.5333103990415111
sg23
F6.1984628903446719
sVY
L8L
sVX
L2L
sg1157
g1190
sg31
g32
sg33
g34
sg21
S'1'
sg19
S'space'
p1253
sg30
g11
sg1160
L1L
sg1161
g1181
sg1163
L1L
sS'block.thisIndex'
p1254
I11
sg1165
g1218
sg1167
g1166
sg1168
g1238
sa(dp1255
S'block.thisTrialN'
p1256
I10
sS'block.thisRepN'
p1257
I0
sg29
NsS'block.thisN'
p1258
I10
sg1152
(S'TIMES'
S'DOUBLE'
S'x'
S'y'
tp1259
sg27
g28
sg1154
L2L
sg1155
(I4
I8
tp1260
sg22
I1
sg20
F1.0110500969458371
sg23
F3.5746298873564228
sVY
L2L
sVX
L2L
sg1157
L0L
sg31
g32
sg33
g34
sg21
S'8'
sg19
S'space'
p1261
sg30
g11
sg1160
L8L
sg1161
g1166
sg1163
L8L
sS'block.thisIndex'
p1262
I1
sg1165
g1158
sg1167
L0L
sg1168
VBUxy
p1263
sa(dp1264
S'block.thisTrialN'
p1265
I11
sS'block.thisRepN'
p1266
I0
sg29
NsS'block.thisN'
p1267
I11
sg1152
(S'DECREASE'
S'TRIPLE'
S'HALF'
S'SUBTRACT'
S'x'
S'y'
tp1268
sg27
g28
sg1154
L4L
sg1155
(I4
I2
I6
I5
tp1269
sg22
I1
sg20
F4.7257154214894399
sg23
F7.3944830356631428
sVY
L2L
sVX
L6L
sg1157
g1176
sg31
g32
sg33
g34
sg21
S'5'
sg19
S'space'
p1270
sg30
g11
sg1160
L5L
sg1161
g1181
sg1163
L5L
sS'block.thisIndex'
p1271
I16
sg1165
g1190
sg1167
g1218
sg1168
g1229
sa(dp1272
S'block.thisTrialN'
p1273
I12
sS'block.thisRepN'
p1274
I0
sg29
NsS'block.thisN'
p1275
I12
sg1152
(S'THIRD'
S'DIVIDE'
S'x'
S'y'
tp1276
sg27
g28
sg1154
L2L
sg1155
(I3
I1
tp1277
sg22
I1
sg20
F1.3470699832541868
sg23
F2.9834894228260964
sVY
L2L
sVX
L6L
sg1157
L0L
sg31
g32
sg33
g34
sg21
S'1'
sg19
S'space'
p1278
sg30
g11
sg1160
L1L
sg1161
g1198
sg1163
L1L
sS'block.thisIndex'
p1279
I3
sg1165
g1162
sg1167
L0L
sg1168
g1220
sa(dp1280
S'block.thisTrialN'
p1281
I13
sS'block.thisRepN'
p1282
I0
sg29
NsS'block.thisN'
p1283
I13
sg1152
(S'THIRD'
S'DECREASE'
S'TIMES'
S'HALF'
S'x'
S'y'
tp1284
sg27
g28
sg1154
L4L
sg1155
(I4
I16
I15
I5
tp1285
sg22
I1
sg20
F4.1312072584405541
sg23
F6.9636279453989118
sVY
L4L
sVX
L8L
sg1157
g1158
sg31
g32
sg33
g34
sg21
S'5'
sg19
S'space'
p1286
sg30
g11
sg1160
L5L
sg1161
g1190
sg1163
L5L
sS'block.thisIndex'
p1287
I15
sg1165
g1162
sg1167
g1176
sg1168
g1201
sa(dp1288
S'block.thisTrialN'
p1289
I14
sS'block.thisRepN'
p1290
I0
sg29
NsS'block.thisN'
p1291
I14
sg1152
(S'THIRD'
S'TIMES'
S'HALF'
S'x'
S'y'
tp1292
sg27
g28
sg1154
L3L
sg1155
(I3
I18
I6
tp1293
sg22
I1
sg20
F1.6851802014280111
sg23
F3.7483076640637591
sVY
L6L
sVX
L6L
sg1157
g1176
sg31
g32
sg33
g34
sg21
S'6'
sg19
S'space'
p1294
sg30
g11
sg1160
L6L
sg1161
g1158
sg1163
L6L
sS'block.thisIndex'
p1295
I7
sg1165
g1162
sg1167
L0L
sg1168
VUBUxy
p1296
sa(dp1297
S'block.thisTrialN'
p1298
I15
sS'block.thisRepN'
p1299
I0
sg29
NsS'block.thisN'
p1300
I15
sg1152
(S'DIVIDE'
S'THIRD'
S'x'
S'y'
tp1301
sg27
g28
sg1154
L2L
sg1155
(I3
I1
tp1302
sg22
I1
sg20
F4.0366572748171166
sg23
F2.1345732072368264
sVY
L3L
sVX
L9L
sg1157
L0L
sg31
g32
sg33
g34
sg21
S'1'
sg19
S'space'
p1303
sg30
g11
sg1160
L1L
sg1161
g1162
sg1163
L1L
sS'block.thisIndex'
p1304
I0
sg1165
g1198
sg1167
L0L
sg1168
g1263
sa(dp1305
S'block.thisTrialN'
p1306
I16
sS'block.thisRepN'
p1307
I0
sg29
NsS'block.thisN'
p1308
I16
sg1152
(S'DOUBLE'
S'DIVIDE'
S'TRIPLE'
S'INCREASE'
S'x'
S'y'
tp1309
sg27
g28
sg1154
L4L
sg1155
(I5
I15
I3
I6
tp1310
sg22
I1
sg20
F5.6799139509676024
sg23
F7.9777545713586733
sVY
L5L
sVX
L4L
sg1157
g1181
sg31
g32
sg33
g34
sg21
S'6'
sg19
S'space'
p1311
sg30
g11
sg1160
L6L
sg1161
g1198
sg1163
L6L
sS'block.thisIndex'
p1312
I12
sg1165
g1166
sg1167
g1180
sg1168
g1182
sa(dp1313
S'block.thisTrialN'
p1314
I17
sS'block.thisRepN'
p1315
I0
sg29
NsS'block.thisN'
p1316
I17
sg1152
(S'THIRD'
S'DIVIDE'
S'DECREASE'
S'x'
S'y'
tp1317
sg27
g28
sg1154
L3L
sg1155
(I6
I3
I1
tp1318
sg22
I1
sg20
F2.561644492438063
sg23
F4.3262685039080679
sVY
L2L
sVX
L7L
sg1157
g1190
sg31
g32
sg33
g34
sg21
S'1'
sg19
S'space'
p1319
sg30
g11
sg1160
L1L
sg1161
g1198
sg1163
L1L
sS'block.thisIndex'
p1320
I6
sg1165
g1162
sg1167
L0L
sg1168
g1296
sa(dp1321
S'block.thisTrialN'
p1322
I0
sS'block.thisRepN'
p1323
I0
sg29
NsS'block.thisN'
p1324
I0
sVRule
p1325
(S'THIRD'
S'TIMES'
S'HALF'
S'INCREASE'
S'x'
S'y'
tp1326
sg27
g28
sVLength
p1327
L4L
sVIntermediate
p1328
(I8
I4
I12
I4
tp1329
sg22
I1
sg20
F3.2267658369382843
sg23
F4.5676771628204733
sVY
L3L
sVX
L7L
sVOperatorc
p1330
Vhalf
p1331
sg31
g32
sg33
g34
sg21
S'4'
sg19
S'space'
p1332
sg30
g11
sVResult
p1333
L4L
sVOperatora
p1334
VTIMES
p1335
sVCorrectResponse
p1336
L4L
sS'block.thisIndex'
p1337
I13
sVOperatorb
p1338
Vthird
p1339
sVOperatord
p1340
Vincrease
p1341
sVStructure
p1342
VUBUUxy
p1343
sa(dp1344
S'block.thisTrialN'
p1345
I1
sS'block.thisRepN'
p1346
I0
sg29
NsS'block.thisN'
p1347
I1
sg1325
(S'ADD'
S'THIRD'
S'x'
S'y'
tp1348
sg27
g28
sg1327
L2L
sg1328
(I1
I7
tp1349
sg22
I1
sg20
F1.216906315763481
sg23
F2.5042123354505748
sVY
L6L
sVX
L3L
sg1330
L0L
sg31
g32
sg33
g34
sg21
S'7'
sg19
S'space'
p1350
sg30
g11
sg1333
L7L
sg1334
g1339
sg1336
L7L
sS'block.thisIndex'
p1351
I0
sg1338
VADD
p1352
sg1340
L0L
sg1342
VBUxy
p1353
sa(dp1354
S'block.thisTrialN'
p1355
I2
sS'block.thisRepN'
p1356
I0
sg29
NsS'block.thisN'
p1357
I2
sg1325
(S'INCREASE'
S'SUBTRACT'
S'THIRD'
S'x'
S'y'
tp1358
sg27
g28
sg1327
L3L
sg1328
(I3
I1
I2
tp1359
sg22
I1
sg20
F1.766198497149162
sg23
F2.9464405388571322
sVY
L2L
sVX
L9L
sg1330
g1339
sg31
g32
sg33
g34
sg21
S'2'
sg19
S'space'
p1360
sg30
g11
sg1333
L2L
sg1334
VSUBTRACT
p1361
sg1336
L2L
sS'block.thisIndex'
p1362
I7
sg1338
g1341
sg1340
L0L
sg1342
VUBUxy
p1363
sa(dp1364
S'block.thisTrialN'
p1365
I3
sS'block.thisRepN'
p1366
I0
sg29
NsS'block.thisN'
p1367
I3
sg1325
(S'TRIPLE'
S'DECREASE'
S'HALF'
S'SUBTRACT'
S'x'
S'y'
tp1368
sg27
g28
sg1327
L4L
sg1328
(I4
I2
I1
I3
tp1369
sg22
I1
sg20
F3.8767047157743946
sg23
F4.9301385399885476
sVY
L5L
sVX
L9L
sg1330
g1331
sg31
g32
sg33
g34
sg21
S'3'
sg19
S'space'
p1370
sg30
g11
sg1333
L3L
sg1334
Vdecrease
p1371
sg1336
L3L
sS'block.thisIndex'
p1372
I17
sg1338
Vtriple
p1373
sg1340
g1361
sg1342
VUUUBxy
p1374
sa(dp1375
S'block.thisTrialN'
p1376
I4
sS'block.thisRepN'
p1377
I0
sg29
NsS'block.thisN'
p1378
I4
sg1325
(S'TIMES'
S'THIRD'
S'DOUBLE'
S'x'
S'y'
tp1379
sg27
g28
sg1327
L3L
sg1328
(I6
I2
I4
tp1380
sg22
I1
sg20
F3.097380138351582
sg23
F2.2093474545981735
sVY
L2L
sVX
L3L
sg1330
Vdouble
p1381
sg31
g32
sg33
g34
sg21
S'4'
sg19
S'space'
p1382
sg30
g11
sg1333
L4L
sg1334
g1339
sg1336
L4L
sS'block.thisIndex'
p1383
I5
sg1338
g1335
sg1340
L0L
sg1342
VBUUxy
p1384
sa(dp1385
S'block.thisTrialN'
p1386
I5
sS'block.thisRepN'
p1387
I0
sg29
NsS'block.thisN'
p1388
I5
sg1325
(S'SUBTRACT'
S'INCREASE'
S'x'
S'y'
tp1389
sg27
g28
sg1327
L2L
sg1328
(I6
I2
tp1390
sg22
I1
sg20
F1.4620277374051511
sg23
F2.8871584750013426
sVY
L4L
sVX
L5L
sg1330
L0L
sg31
g32
sg33
g34
sg21
S'2'
sg19
S'space'
p1391
sg30
g11
sg1333
L2L
sg1334
g1341
sg1336
L2L
sS'block.thisIndex'
p1392
I1
sg1338
g1361
sg1340
L0L
sg1342
g1353
sa(dp1393
S'block.thisTrialN'
p1394
I6
sS'block.thisRepN'
p1395
I0
sg29
NsS'block.thisN'
p1396
I6
sg1325
(S'DECREASE'
S'TRIPLE'
S'DIVIDE'
S'x'
S'y'
tp1397
sg27
g28
sg1327
L3L
sg1328
(I2
I6
I5
tp1398
sg22
I1
sg20
F3.2692629523808137
sg23
F5.9527083848370239
sVY
L4L
sVX
L8L
sg1330
VDIVIDE
p1399
sg31
g32
sg33
g34
sg21
S'5'
sg19
S'space'
p1400
sg30
g11
sg1333
L5L
sg1334
g1373
sg1336
L5L
sS'block.thisIndex'
p1401
I8
sg1338
g1371
sg1340
L0L
sg1342
VUUBxy
p1402
sa(dp1403
S'block.thisTrialN'
p1404
I7
sS'block.thisRepN'
p1405
I0
sg29
NsS'block.thisN'
p1406
I7
sg1325
(S'THIRD'
S'INCREASE'
S'ADD'
S'DOUBLE'
S'x'
S'y'
tp1407
sg27
g28
sg1327
L4L
sg1328
(I16
I20
I21
I7
tp1408
sg22
I0
sg20
F3.686802632175386
sVY
L4L
sVX
L8L
sg1330
g1352
sg31
g32
sg33
g34
sg21
Nsg19
S'space'
p1409
sg30
g11
sg1333
L7L
sg1334
g1341
sg1336
L7L
sS'block.thisIndex'
p1410
I14
sg1338
g1339
sg1340
g1381
sg1342
VUUBUxy
p1411
sa(dp1412
S'block.thisTrialN'
p1413
I8
sS'block.thisRepN'
p1414
I0
sg29
NsS'block.thisN'
p1415
I8
sg1325
(S'DIVIDE'
S'TRIPLE'
S'HALF'
S'x'
S'y'
tp1416
sg27
g28
sg1327
L3L
sg1328
(I4
I12
I4
tp1417
sg22
I1
sg20
F3.4136162392096594
sg23
F5.556822695536539
sVY
L3L
sVX
L8L
sg1330
g1331
sg31
g32
sg33
g34
sg21
S'4'
sg19
S'space'
p1418
sg30
g11
sg1333
L4L
sg1334
g1373
sg1336
L4L
sS'block.thisIndex'
p1419
I4
sg1338
g1399
sg1340
L0L
sg1342
g1384
sa(dp1420
S'block.thisTrialN'
p1421
I9
sS'block.thisRepN'
p1422
I0
sg29
NsS'block.thisN'
p1423
I9
sg1325
(S'TRIPLE'
S'DOUBLE'
S'SUBTRACT'
S'DECREASE'
S'x'
S'y'
tp1424
sg27
g28
sg1327
L4L
sg1328
(I4
I1
I2
I6
tp1425
sg22
I1
sg20
F5.6536999364616349
sg23
F5.4790538108209148
sVY
L3L
sVX
L5L
sg1330
g1361
sg31
g32
sg33
g34
sg21
S'6'
sg19
S'space'
p1426
sg30
g11
sg1333
L6L
sg1334
g1381
sg1336
L6L
sS'block.thisIndex'
p1427
I15
sg1338
g1373
sg1340
g1371
sg1342
g1411
sa(dp1428
S'block.thisTrialN'
p1429
I10
sS'block.thisRepN'
p1430
I0
sg29
NsS'block.thisN'
p1431
I10
sg1325
(S'THIRD'
S'INCREASE'
S'SUBTRACT'
S'x'
S'y'
tp1432
sg27
g28
sg1327
L3L
sg1328
(I2
I3
I1
tp1433
sg22
I1
sg20
F2.2235108267050236
sg23
F3.254762215539813
sVY
L6L
sVX
L8L
sg1330
g1361
sg31
g32
sg33
g34
sg21
S'1'
sg19
S'space'
p1434
sg30
g11
sg1333
L1L
sg1334
g1341
sg1336
L1L
sS'block.thisIndex'
p1435
I9
sg1338
g1339
sg1340
L0L
sg1342
g1402
sa(dp1436
S'block.thisTrialN'
p1437
I11
sS'block.thisRepN'
p1438
I0
sg29
NsS'block.thisN'
p1439
I11
sg1325
(S'TIMES'
S'INCREASE'
S'HALF'
S'TRIPLE'
S'x'
S'y'
tp1440
sg27
g28
sg1327
L4L
sg1328
(I6
I3
I4
I8
tp1441
sg22
I1
sg20
F3.7468847124837339
sg23
F4.0689869011985138
sVY
L2L
sVX
L2L
sg1330
g1331
sg31
g32
sg33
g34
sg21
S'8'
sg19
S'space'
p1442
sg30
g11
sg1333
L8L
sg1334
g1341
sg1336
L8L
sS'block.thisIndex'
p1443
I11
sg1338
g1335
sg1340
g1373
sg1342
VBUUUxy
p1444
sa(dp1445
S'block.thisTrialN'
p1446
I12
sS'block.thisRepN'
p1447
I0
sg29
NsS'block.thisN'
p1448
I12
sg1325
(S'DOUBLE'
S'ADD'
S'x'
S'y'
tp1449
sg27
g28
sg1327
L2L
sg1328
(I4
I8
tp1450
sg22
I1
sg20
F1.6340806337539107
sg23
F4.0031888672383502
sVY
L2L
sVX
L2L
sg1330
L0L
sg31
g32
sg33
g34
sg21
S'8'
sg19
S'space'
p1451
sg30
g11
sg1333
L8L
sg1334
g1352
sg1336
L8L
sS'block.thisIndex'
p1452
I2
sg1338
g1381
sg1340
L0L
sg1342
VUBxy
p1453
sa(dp1454
S'block.thisTrialN'
p1455
I13
sS'block.thisRepN'
p1456
I0
sg29
NsS'block.thisN'
p1457
I13
sg1325
(S'DOUBLE'
S'TIMES'
S'x'
S'y'
tp1458
sg27
g28
sg1327
L2L
sg1328
(I4
I8
tp1459
sg22
I1
sg20
F1.1096281602513045
sg23
F3.1754552412312478
sVY
L2L
sVX
L2L
sg1330
L0L
sg31
g32
sg33
g34
sg21
S'8'
sg19
S'space'
p1460
sg30
g11
sg1333
L8L
sg1334
g1335
sg1336
L8L
sS'block.thisIndex'
p1461
I3
sg1338
g1381
sg1340
L0L
sg1342
g1453
sa(dp1462
S'block.thisTrialN'
p1463
I14
sS'block.thisRepN'
p1464
I0
sg29
NsS'block.thisN'
p1465
I14
sg1325
(S'DECREASE'
S'TRIPLE'
S'HALF'
S'ADD'
S'x'
S'y'
tp1466
sg27
g28
sg1327
L4L
sg1328
(I6
I3
I9
I8
tp1467
sg22
I1
sg20
F5.332355068763718
sg23
F14.422901820158586
sVY
L2L
sVX
L4L
sg1330
g1331
sg31
g32
sg33
g34
sg21
S'8'
sg19
S'space'
p1468
sg30
g11
sg1333
L8L
sg1334
g1373
sg1336
L8L
sS'block.thisIndex'
p1469
I16
sg1338
g1371
sg1340
g1352
sg1342
g1374
sa(dp1470
S'block.thisTrialN'
p1471
I15
sS'block.thisRepN'
p1472
I0
sg29
NsS'block.thisN'
p1473
I15
sg1325
(S'INCREASE'
S'DIVIDE'
S'TRIPLE'
S'HALF'
S'x'
S'y'
tp1474
sg27
g28
sg1327
L4L
sg1328
(I2
I6
I2
I3
tp1475
sg22
I1
sg20
F5.8943775217048824
sg23
F10.005221805069596
sVY
L3L
sVX
L4L
sg1330
g1373
sg31
g32
sg33
g34
sg21
S'3'
sg19
S'space'
p1476
sg30
g11
sg1333
L3L
sg1334
g1399
sg1336
L3L
sS'block.thisIndex'
p1477
I12
sg1338
g1341
sg1340
g1331
sg1342
g1343
sa(dp1478
S'block.thisTrialN'
p1479
I16
sS'block.thisRepN'
p1480
I0
sg29
NsS'block.thisN'
p1481
I16
sg1325
(S'INCREASE'
S'ADD'
S'TRIPLE'
S'x'
S'y'
tp1482
sg27
g28
sg1327
L3L
sg1328
(I6
I8
I9
tp1483
sg22
I1
sg20
F2.1633269068552181
sg23
F6.530407102080062
sVY
L2L
sVX
L2L
sg1330
g1373
sg31
g32
sg33
g34
sg21
S'9'
sg19
S'space'
p1484
sg30
g11
sg1333
L9L
sg1334
g1352
sg1336
L9L
sS'block.thisIndex'
p1485
I6
sg1338
g1341
sg1340
L0L
sg1342
g1363
sa(dp1486
S'block.thisTrialN'
p1487
I17
sS'block.thisRepN'
p1488
I0
sg29
NsS'block.thisN'
p1489
I17
sg1325
(S'DIVIDE'
S'DOUBLE'
S'INCREASE'
S'THIRD'
S'x'
S'y'
tp1490
sg27
g28
sg1327
L4L
sg1328
(I2
I3
I6
I2
tp1491
sg22
I1
sg20
F4.498584222747013
sg23
F8.0723500503227115
sVY
L3L
sVX
L6L
sg1330
g1341
sg31
g32
sg33
g34
sg21
S'2'
sg19
S'space'
p1492
sg30
g11
sg1333
L2L
sg1334
g1381
sg1336
L2L
sS'block.thisIndex'
p1493
I10
sg1338
g1399
sg1340
g1339
sg1342
g1444
sasS'loops'
p1494
(lp1495
g1
(cpsychopy.data
TrialHandler
p1496
g3
NtRp1497
(dp1498
S'origin'
p1499
NsS'thisTrial'
p1500
(lp1501
sS'_exp'
p1502
I326165456
sg10
S'practice_trials'
p1503
sg6
S'C:\\Users\\experimenter\\Desktop\\Experiments\\KRITL\\2. kritl_experimenter.py'
p1504
sS'thisRepN'
p1505
I1
sg24
I01
sg25
g26
sS'data'
p1506
g1
(cpsychopy.data
DataHandler
p1507
c__builtin__
dict
p1508
(dp1509
g15
cnumpy.core.multiarray
_reconstruct
p1510
(cnumpy
ndarray
p1511
(I0
tS'b'
tRp1512
(I1
(I6
I1
tcnumpy
dtype
p1513
(S'O4'
I0
I1
tRp1514
(I3
S'|'
NNNI-1
I-1
I63
tbI00
(lp1515
(lp1516
F2.6801862225402147
aa(lp1517
F5.6464238456683233
aa(lp1518
F3.071832804242149
aa(lp1519
F5.7250585402362049
aa(lp1520
F13.119189512566663
aa(lp1521
F6.1045627888524905
aatbsg16
g1510
(g1511
(I0
tS'b'
tRp1522
(I1
(I6
I1
tg1514
I00
(lp1523
S'7'
aS'8'
aS'7'
aS'8'
aS'3'
aS'3'
atbsS'ran'
p1524
cnumpy.ma.core
_mareconstruct
p1525
(cnumpy.ma.core
MaskedArray
p1526
g1511
(I0
tp1527
S'b'
tRp1528
(I1
(I6
I1
tg1513
(S'f4'
I0
I1
tRp1529
(I3
S'<'
NNNI-1
I-1
I0
tbI00
S'\x00\x00\x80?\x00\x00\x80?\x00\x00\x80?\x00\x00\x80?\x00\x00\x80?\x00\x00\x80?'
S'\x00\x00\x00\x00\x00\x00'
Ntbsg18
g1525
(g1526
g1511
g1527
S'b'
tRp1530
(I1
(I6
I1
tg1529
I00
S'q^z@\xbaj0A\x17\x95\xfc?\xbd$CA\x0f\t\xca@\xce\xdd\x92A'
S'\x00\x00\x00\x00\x00\x00'
Ntbsg14
g1510
(g1511
(I0
tS'b'
tRp1531
(I1
(I6
I1
tg1514
I00
(lp1532
(lp1533
g89
aa(lp1534
g69
aa(lp1535
g107
aa(lp1536
g116
aa(lp1537
g80
aa(lp1538
g98
aatbsS'order'
p1539
g1525
(g1526
g1511
g1527
S'b'
tRp1540
(I1
(I6
I1
tg1529
I00
S'\x00\x00\x00@\x00\x00\x00\x00\x00\x00\x80@\x00\x00\xa0@\x00\x00\x80?\x00\x00@@'
S'\x00\x00\x00\x00\x00\x00'
Ntbsg17
g1525
(g1526
g1511
g1527
S'b'
tRp1541
(I1
(I6
I1
tg1529
I00
S'\x00\x00\x80?\x00\x00\x80?\x00\x00\x80?\x00\x00\x80?\x00\x00\x80?\x00\x00\x00\x00'
S'\x00\x00\x00\x00\x00\x00'
NtbstRp1542
(dp1543
S'isNumeric'
p1544
(dp1545
g16
I00
sg1524
I01
sg18
I01
sg14
I00
sg17
I01
sg1539
I01
sg15
I00
ssS'trials'
p1546
g1497
sS'dataTypes'
p1547
(lp1548
g1524
ag1539
ag14
ag15
ag16
ag17
ag18
asS'dataShape'
p1549
(lp1550
I6
aI1
asbsS'method'
p1551
S'fullRandom'
p1552
sS'sequenceIndices'
p1553
g1510
(g1511
(I0
tS'b'
tRp1554
(I1
(I6
I1
tg1514
I00
(lp1555
I1
aI4
aI0
aI5
aI2
aI3
atbsS'finished'
p1556
I01
sS'nReps'
p1557
I1
sS'nRemaining'
p1558
I-1
sS'trialList'
p1559
(lp1560
g1
(cpsychopy.data
TrialType
p1561
g1508
(dp1562
g43
L0L
sg44
g85
sg45
g64
sg46
L7L
sg49
L2L
sg48
L0L
sg47
L5L
sg50
L3L
stRp1563
ag1
(g1561
g1508
(dp1564
g43
L0L
sg44
g64
sg45
g65
sg46
L8L
sg49
L2L
sg48
L0L
sg47
L3L
sg50
L3L
stRp1565
ag1
(g1561
g1508
(dp1566
g43
L0L
sg44
g85
sg45
g103
sg46
L7L
sg49
L2L
sg48
L0L
sg47
L5L
sg50
L4L
stRp1567
ag1
(g1561
g1508
(dp1568
g43
g85
sg44
g112
sg45
g103
sg46
L8L
sg49
L3L
sg48
L0L
sg47
L2L
sg50
L4L
stRp1569
ag1
(g1561
g1508
(dp1570
g43
g74
sg44
g75
sg45
g76
sg46
L3L
sg49
L3L
sg48
L0L
sg47
L3L
sg50
L2L
stRp1571
ag1
(g1561
g1508
(dp1572
g43
g74
sg44
g75
sg45
g94
sg46
L9L
sg49
L4L
sg48
g76
sg47
L8L
sg50
L8L
stRp1573
asS'seed'
p1574
NsS'thisIndex'
p1575
I3
sS'thisN'
p1576
I6
sS'thisTrialN'
p1577
I0
sS'nTotal'
p1578
I6
sbag1
(g1496
g3
NtRp1579
(dp1580
g1499
Nsg1500
(lp1581
sg1502
I326165456
sg10
S'block'
p1582
sg6
g1504
sg1505
I1
sg24
I01
sg25
g26
sg1506
g1
(g1507
g1508
(dp1583
g22
g1525
(g1526
g1511
g1527
S'b'
tRp1584
(I1
(I18
I1
tg1529
I00
S'\x00\x00\x80?\x00\x00\x80?\x00\x00\x80?\x00\x00\x80?\x00\x00\x80?\x00\x00\x80?\x00\x00\x80?\x00\x00\x80?\x00\x00\x80?\x00\x00\x80?\x00\x00\x80?\x00\x00\x00\x00\x00\x00\x80?\x00\x00\x80?\x00\x00\x80?\x00\x00\x00\x00\x00\x00\x00\x00\x00\x00\x80?'
S'\x00\x00\x00\x00\x00\x00\x00\x00\x00\x00\x00\x00\x00\x00\x00\x00\x00\x00'
Ntbsg19
g1510
(g1511
(I0
tS'b'
tRp1585
(I1
(I18
I1
tg1514
I00
(lp1586
g195
ag186
ag170
ag138
ag272
ag211
ag220
ag247
ag127
ag150
ag264
ag238
ag280
ag255
ag203
aNag159
ag230
atbsg23
g1525
(g1526
g1511
g1527
S'b'
tRp1587
(I1
(I18
I1
tg1529
I00
S'\x0e\xe0\xf0?%\xa8\xd3@@\xf2u@\xe1\xdd\xf9?\xb9\x10\xf9@\xe4\x10\xb9@\x10Q}@j-\x04A\x83\xe0w@a\xedB@\xe3\x02(AG\xec:A\x1b\x92\xe1@Q\x1d\xd0@\x03\x95\xbc@\x00\x00\x00\x00\xc6\xc6\x84A\xab#\x19A'
S'\x00\x00\x00\x00\x00\x00\x00\x00\x00\x00\x00\x00\x00\x00\x00\x01\x00\x00'
Ntbsg1524
g1525
(g1526
g1511
g1527
S'b'
tRp1588
(I1
(I18
I1
tg1529
I00
S'\x00\x00\x80?\x00\x00\x80?\x00\x00\x80?\x00\x00\x80?\x00\x00\x80?\x00\x00\x80?\x00\x00\x80?\x00\x00\x80?\x00\x00\x80?\x00\x00\x80?\x00\x00\x80?\x00\x00\x80?\x00\x00\x80?\x00\x00\x80?\x00\x00\x80?\x00\x00\x80?\x00\x00\x80?\x00\x00\x80?'
S'\x00\x00\x00\x00\x00\x00\x00\x00\x00\x00\x00\x00\x00\x00\x00\x00\x00\x00'
Ntbsg21
g1510
(g1511
(I0
tS'b'
tRp1589
(I1
(I18
I1
tg1514
I00
(lp1590
S'7'
aS'9'
aS'2'
aS'5'
aS'9'
aS'3'
aS'8'
aS'3'
aS'9'
aS'6'
aS'5'
aS'4'
aS'5'
aS'7'
aS'6'
aNaS'7'
aS'5'
atbsg1539
g1525
(g1526
g1511
g1527
S'b'
tRp1591
(I1
(I18
I1
tg1529
I00
S'\x00\x00\xe0@\x00\x00\xc0@\x00\x00\x80@\x00\x00\x80?\x00\x00\x80A\x00\x00\x10A\x00\x00 A\x00\x00PA\x00\x00\x00\x00\x00\x00\x00@\x00\x00pA\x00\x00@A\x00\x00\x88A\x00\x00`A\x00\x00\x00A\x00\x00\xa0@\x00\x00@@\x00\x000A'
S'\x00\x00\x00\x00\x00\x00\x00\x00\x00\x00\x00\x00\x00\x00\x00\x00\x00\x00'
Ntbsg20
g1525
(g1526
g1511
g1527
S'b'
tRp1592
(I1
(I18
I1
tg1529
I00
S'\x1d"\xa0?,\x93"@\xef\xc3?@KS\xe4?\xf4\xb7j@\xe3\x878@\x07fT@\x8bf\xa3@\xeeuu@u\xd7\xb1@\xe33\xf0@+\x14\x0bA\x11\x8c\xc0@>\xdf\x01Af#\xc2@\x00\x00\x00\x00S##An\x82U@'
S'\x00\x00\x00\x00\x00\x00\x00\x00\x00\x00\x00\x00\x00\x00\x00\x01\x00\x00'
NtbstRp1593
(dp1594
g1544
(dp1595
g1524
I01
sg21
I00
sg20
I01
sg22
I01
sg19
I00
sg23
I01
sg1539
I01
ssg1546
g1579
sg1547
(lp1596
g1524
ag1539
ag19
ag20
ag21
ag22
ag23
asg1549
(lp1597
I18
aI1
asbsg1551
g1552
sg1553
g1510
(g1511
(I0
tS'b'
tRp1598
(I1
(I18
I1
tg1514
I00
(lp1599
I8
aI3
aI9
aI16
aI2
aI15
aI1
aI0
aI14
aI5
aI6
aI17
aI11
aI7
aI13
aI10
aI4
aI12
atbsg1556
I01
sg1557
I1
sg1558
I-1
sg1559
(lp1600
g1
(g1561
g1508
(dp1601
g51
g193
sVY
L5L
sg53
L2L
sg54
g194
sg55
L7L
sg56
L7L
sg52
g128
sVX
L4L
sg57
L0L
sg58
g126
sg59
L0L
sg60
g188
stRp1602
ag1
(g1561
g1508
(dp1603
g51
g184
sVY
L3L
sg53
L2L
sg54
g185
sg55
L9L
sg56
L9L
sg52
g130
sVX
L4L
sg57
L0L
sg58
g149
sg59
L0L
sg60
g188
stRp1604
ag1
(g1561
g1508
(dp1605
g51
g168
sVY
L8L
sg53
L2L
sg54
g169
sg55
L2L
sg56
L2L
sg52
g139
sVX
L8L
sg57
L0L
sg58
g158
sg59
L0L
sg60
g142
stRp1606
ag1
(g1561
g1508
(dp1607
g51
g136
sVY
L2L
sg53
L2L
sg54
g137
sg55
L5L
sg56
L5L
sg52
g139
sVX
L8L
sg57
L0L
sg58
g141
sg59
L0L
sg60
g142
stRp1608
ag1
(g1561
g1508
(dp1609
g51
g270
sVY
L2L
sg53
L3L
sg54
g271
sg55
L9L
sg56
L9L
sg52
g130
sVX
L7L
sg57
g162
sg58
g139
sg59
L0L
sg60
g213
stRp1610
ag1
(g1561
g1508
(dp1611
g51
g209
sVY
L2L
sg53
L3L
sg54
g210
sg55
L3L
sg56
L3L
sg52
g141
sVX
L8L
sg57
g128
sg58
g149
sg59
L0L
sg60
g213
stRp1612
ag1
(g1561
g1508
(dp1613
g51
g218
sVY
L2L
sg53
L3L
sg54
g219
sg55
L8L
sg56
L8L
sg52
g221
sVX
L9L
sg57
g162
sg58
g128
sg59
L0L
sg60
g223
stRp1614
ag1
(g1561
g1508
(dp1615
g51
g245
sVY
L3L
sg53
L3L
sg54
g246
sg55
L3L
sg56
L3L
sg52
g139
sVX
L2L
sg57
g130
sg58
g141
sg59
L0L
sg60
g223
stRp1616
ag1
(g1561
g1508
(dp1617
g51
g124
sVY
L3L
sg53
L3L
sg54
g125
sg55
L9L
sg56
L9L
sg52
g128
sVX
L3L
sg57
g126
sg58
g130
sg59
L0L
sg60
g131
stRp1618
ag1
(g1561
g1508
(dp1619
g51
g147
sVY
L2L
sg53
L3L
sg54
g148
sg55
L6L
sg56
L6L
sg52
g141
sVX
L3L
sg57
g149
sg58
g130
sg59
L0L
sg60
g131
stRp1620
ag1
(g1561
g1508
(dp1621
g51
g262
sVY
L4L
sg53
L4L
sg54
g263
sg55
L5L
sg56
L5L
sg52
g158
sVX
L3L
sg57
g141
sg58
g139
sg59
g130
sg60
g240
stRp1622
ag1
(g1561
g1508
(dp1623
g51
g236
sVY
L9L
sg53
L4L
sg54
g237
sg55
L9L
sg56
L9L
sg52
g128
sVX
L3L
sg57
g141
sg58
g221
sg59
g160
sg60
g240
stRp1624
ag1
(g1561
g1508
(dp1625
g51
g278
sVY
L4L
sg53
L4L
sg54
g279
sg55
L5L
sg56
L5L
sg52
g149
sVX
L5L
sg57
g162
sg58
g128
sg59
g130
sg60
g257
stRp1626
ag1
(g1561
g1508
(dp1627
g51
g253
sVY
L2L
sg53
L4L
sg54
g254
sg55
L7L
sg56
L7L
sg52
g221
sVX
L2L
sg57
g130
sg58
g141
sg59
g128
sg60
g257
stRp1628
ag1
(g1561
g1508
(dp1629
g51
g201
sVY
L4L
sg53
L4L
sg54
g202
sg55
L6L
sg56
L6L
sg52
g158
sVX
L4L
sg57
g149
sg58
g130
sg59
g141
sg60
g179
stRp1630
ag1
(g1561
g1508
(dp1631
g51
g176
sVY
L8L
sg53
L4L
sg54
g177
sg55
L9L
sg56
L9L
sg52
g141
sVX
L8L
sg57
g139
sg58
g130
sg59
g158
sg60
g179
stRp1632
ag1
(g1561
g1508
(dp1633
g51
g156
sVY
L4L
sg53
L4L
sg54
g157
sg55
L5L
sg56
L5L
sg52
g160
sVX
L5L
sg57
g158
sg58
g162
sg59
g126
sg60
g163
stRp1634
ag1
(g1561
g1508
(dp1635
g51
g228
sVY
L4L
sg53
L4L
sg54
g229
sg55
L5L
sg56
L5L
sg52
g141
sVX
L7L
sg57
g128
sg58
g160
sg59
g221
sg60
g163
stRp1636
asg1574
Nsg1575
I12
sg1576
I18
sg1577
I0
sg1578
I18
sbag1
(g1496
g3
NtRp1637
(dp1638
g1499
Nsg1500
(lp1639
sg1502
I326165456
sg10
g1582
sg6
g1504
sg1505
I1
sg24
I01
sg25
g26
sg1506
g1
(g1507
g1508
(dp1640
g22
g1525
(g1526
g1511
g1527
S'b'
tRp1641
(I1
(I18
I1
tg1529
I00
S'\x00\x00\x80?\x00\x00\x80?\x00\x00\x80?\x00\x00\x80?\x00\x00\x80?\x00\x00\x80?\x00\x00\x80?\x00\x00\x80?\x00\x00\x80?\x00\x00\x80?\x00\x00\x80?\x00\x00\x80?\x00\x00\x80?\x00\x00\x80?\x00\x00\x80?\x00\x00\x80?\x00\x00\x80?\x00\x00\x80?'
S'\x00\x00\x00\x00\x00\x00\x00\x00\x00\x00\x00\x00\x00\x00\x00\x00\x00\x00'
Ntbsg19
g1510
(g1511
(I0
tS'b'
tRp1642
(I1
(I18
I1
tg1514
I00
(lp1643
g453
ag330
ag320
ag378
ag403
ag429
ag369
ag386
ag421
ag412
ag293
ag311
ag394
ag445
ag340
ag361
ag349
ag437
atbsg23
g1525
(g1526
g1511
g1527
S'b'
tRp1644
(I1
(I18
I1
tg1529
I00
S'7]2@\x17\xc81@S\xae\x13@\xb4\x18w@\xf9\xa0>@E\x1eL@nL\x7f@\xd5\xfeD@\xbaa/@\xeek\x88@\xc7\xd3\xac@Ta\xa6@@]\x88@\x9e%\xaa@x\x9a\xbb@]\x8d\x11A#pc@\xe1\xa6\xd6@'
S'\x00\x00\x00\x00\x00\x00\x00\x00\x00\x00\x00\x00\x00\x00\x00\x00\x00\x00'
Ntbsg1524
g1525
(g1526
g1511
g1527
S'b'
tRp1645
(I1
(I18
I1
tg1529
I00
S'\x00\x00\x80?\x00\x00\x80?\x00\x00\x80?\x00\x00\x80?\x00\x00\x80?\x00\x00\x80?\x00\x00\x80?\x00\x00\x80?\x00\x00\x80?\x00\x00\x80?\x00\x00\x80?\x00\x00\x80?\x00\x00\x80?\x00\x00\x80?\x00\x00\x80?\x00\x00\x80?\x00\x00\x80?\x00\x00\x80?'
S'\x00\x00\x00\x00\x00\x00\x00\x00\x00\x00\x00\x00\x00\x00\x00\x00\x00\x00'
Ntbsg21
g1510
(g1511
(I0
tS'b'
tRp1646
(I1
(I18
I1
tg1514
I00
(lp1647
S'7'
aS'2'
aS'8'
aS'6'
aS'7'
aS'8'
aS'2'
aS'5'
aS'6'
aS'5'
aS'9'
aS'8'
aS'6'
aS'3'
aS'5'
aS'8'
aS'3'
aS'1'
atbsg1539
g1525
(g1526
g1511
g1527
S'b'
tRp1648
(I1
(I18
I1
tg1529
I00
S'\x00\x00\x88A\x00\x00@@\x00\x00\x00@\x00\x00\x00A\x00\x000A\x00\x00`A\x00\x00\xe0@\x00\x00\x10A\x00\x00PA\x00\x00@A\x00\x00\x00\x00\x00\x00\x80?\x00\x00 A\x00\x00\x80A\x00\x00\x80@\x00\x00\xc0@\x00\x00\xa0@\x00\x00pA'
S'\x00\x00\x00\x00\x00\x00\x00\x00\x00\x00\x00\x00\x00\x00\x00\x00\x00\x00'
Ntbsg20
g1525
(g1526
g1511
g1527
S'b'
tRp1649
(I1
(I18
I1
tg1529
I00
S'E\xb8\x1a@\xf2\xc8\x1d@\xd6\xe5\xfc?\xf9\xef\xbe?\xfa[\x9e@0\xeb\xb3@>\x817@\x19\xbbk@\xff+\xc2@\xe44W@\xcb\xb7\xf8@\xcf.\xab@\x9c?\xc5@\x94G\xec@\xf1i\x06AK\xf2\xc9@\xcd1\x04A\xc0\x96\x15A'
S'\x00\x00\x00\x00\x00\x00\x00\x00\x00\x00\x00\x00\x00\x00\x00\x00\x00\x00'
NtbstRp1650
(dp1651
g1544
(dp1652
g1524
I01
sg21
I00
sg20
I01
sg22
I01
sg19
I00
sg23
I01
sg1539
I01
ssg1546
g1637
sg1547
(lp1653
g1524
ag1539
ag19
ag20
ag21
ag22
ag23
asg1549
(lp1654
I18
aI1
asbsg1551
g1552
sg1553
g1510
(g1511
(I0
tS'b'
tRp1655
(I1
(I18
I1
tg1514
I00
(lp1656
I10
aI11
aI2
aI1
aI14
aI16
aI15
aI6
aI3
aI7
aI12
aI4
aI9
aI8
aI5
aI17
aI13
aI0
atbsg1556
I01
sg1557
I1
sg1558
I-1
sg1559
(lp1657
g1
(g1561
g1508
(dp1658
g286
g451
sVY
L5L
sg288
L2L
sg289
g452
sg297
L7L
sg294
L7L
sg295
g296
sVX
L3L
sg291
L0L
sg299
g300
sg301
L0L
sg303
g333
stRp1659
ag1
(g1561
g1508
(dp1660
g286
g328
sVY
L4L
sg288
L2L
sg289
g329
sg297
L2L
sg294
L2L
sg295
g296
sVX
L9L
sg291
L0L
sg299
g332
sg301
L0L
sg303
g333
stRp1661
ag1
(g1561
g1508
(dp1662
g286
g318
sVY
L3L
sg288
L2L
sg289
g319
sg297
L8L
sg294
L8L
sg295
g321
sVX
L3L
sg291
L0L
sg299
g296
sg301
L0L
sg303
g323
stRp1663
ag1
(g1561
g1508
(dp1664
g286
g376
sVY
L8L
sg288
L2L
sg289
g377
sg297
L6L
sg294
L6L
sg295
g300
sVX
L4L
sg291
L0L
sg299
g350
sg301
L0L
sg303
g323
stRp1665
ag1
(g1561
g1508
(dp1666
g286
g401
sVY
L5L
sg288
L3L
sg289
g402
sg297
L7L
sg294
L7L
sg295
g302
sVX
L2L
sg291
g296
sg299
g300
sg301
L0L
sg303
g405
stRp1667
ag1
(g1561
g1508
(dp1668
g286
g427
sVY
L2L
sg288
L3L
sg289
g428
sg297
L8L
sg294
L8L
sg295
g312
sVX
L4L
sg291
g350
sg299
g300
sg301
L0L
sg303
g405
stRp1669
ag1
(g1561
g1508
(dp1670
g286
g367
sVY
L3L
sg288
L3L
sg289
g368
sg297
L2L
sg294
L2L
sg295
g360
sVX
L3L
sg291
g352
sg299
g302
sg301
L0L
sg303
g371
stRp1671
ag1
(g1561
g1508
(dp1672
g286
g384
sVY
L3L
sg288
L3L
sg289
g385
sg297
L5L
sg294
L5L
sg295
g300
sVX
L2L
sg291
g350
sg299
g352
sg301
L0L
sg303
g371
stRp1673
ag1
(g1561
g1508
(dp1674
g286
g419
sVY
L4L
sg288
L3L
sg289
g420
sg297
L6L
sg294
L6L
sg295
g292
sVX
L5L
sg291
g300
sg299
g302
sg301
L0L
sg303
g414
stRp1675
ag1
(g1561
g1508
(dp1676
g286
g410
sVY
L3L
sg288
L3L
sg289
g411
sg297
L5L
sg294
L5L
sg295
g352
sVX
L3L
sg291
g321
sg299
g350
sg301
L0L
sg303
g414
stRp1677
ag1
(g1561
g1508
(dp1678
g286
g287
sVY
L4L
sg288
L4L
sg289
g290
sg297
L9L
sg294
L9L
sg295
g296
sVX
L9L
sg291
g292
sg299
g300
sg301
g302
sg303
g304
stRp1679
ag1
(g1561
g1508
(dp1680
g286
g309
sVY
L2L
sg288
L4L
sg289
g310
sg297
L8L
sg294
L8L
sg295
g312
sVX
L2L
sg291
g302
sg299
g300
sg301
g296
sg303
g304
stRp1681
ag1
(g1561
g1508
(dp1682
g286
g392
sVY
L6L
sg288
L4L
sg289
g393
sg297
L6L
sg294
L6L
sg295
g300
sVX
L6L
sg291
g292
sg299
g296
sg301
g350
sg303
g396
stRp1683
ag1
(g1561
g1508
(dp1684
g286
g443
sVY
L2L
sg288
L4L
sg289
g444
sg297
L3L
sg294
L3L
sg295
g360
sVX
L9L
sg291
g302
sg299
g296
sg301
g292
sg303
g396
stRp1685
ag1
(g1561
g1508
(dp1686
g286
g338
sVY
L3L
sg288
L4L
sg289
g339
sg297
L5L
sg294
L5L
sg295
g302
sVX
L3L
sg291
g321
sg299
g296
sg301
g292
sg303
g342
stRp1687
ag1
(g1561
g1508
(dp1688
g286
g358
sVY
L3L
sg288
L4L
sg289
g359
sg297
L8L
sg294
L8L
sg295
g312
sVX
L3L
sg291
g360
sg299
g296
sg301
g302
sg303
g342
stRp1689
ag1
(g1561
g1508
(dp1690
g286
g347
sVY
L4L
sg288
L4L
sg289
g348
sg297
L3L
sg294
L3L
sg295
g350
sVX
L3L
sg291
g292
sg299
g352
sg301
g321
sg303
g353
stRp1691
ag1
(g1561
g1508
(dp1692
g286
g435
sVY
L2L
sg288
L4L
sg289
g436
sg297
L1L
sg294
L1L
sg295
g350
sVX
L7L
sg291
g352
sg299
g292
sg301
g360
sg303
g353
stRp1693
asg1574
Nsg1575
I0
sg1576
I18
sg1577
I0
sg1578
I18
sbag1
(g1496
g3
NtRp1694
(dp1695
g1499
Nsg1500
(lp1696
sg1502
I326165456
sg10
g1582
sg6
g1504
sg1505
I1
sg24
I01
sg25
g26
sg1506
g1
(g1507
g1508
(dp1697
g22
g1525
(g1526
g1511
g1527
S'b'
tRp1698
(I1
(I18
I1
tg1529
I00
S'\x00\x00\x80?\x00\x00\x80?\x00\x00\x80?\x00\x00\x80?\x00\x00\x80?\x00\x00\x80?\x00\x00\x80?\x00\x00\x80?\x00\x00\x80?\x00\x00\x80?\x00\x00\x80?\x00\x00\x80?\x00\x00\x80?\x00\x00\x80?\x00\x00\x80?\x00\x00\x80?\x00\x00\x80?\x00\x00\x00\x00'
S'\x00\x00\x00\x00\x00\x00\x00\x00\x00\x00\x00\x00\x00\x00\x00\x00\x00\x00'
Ntbsg19
g1510
(g1511
(I0
tS'b'
tRp1699
(I1
(I18
I1
tg1514
I00
(lp1700
g496
ag553
ag586
ag627
ag544
ag611
ag577
ag595
ag561
ag526
ag466
ag569
ag516
ag506
ag535
ag619
ag485
ag603
atbsg23
g1525
(g1526
g1511
g1527
S'b'
tRp1701
(I1
(I18
I1
tg1529
I00
S'\x9a\x12$@\xb4\x1d(@{\x8cj@i*L@\x98\xdaq@\xd5D\x95@\xa7}[@\x82c/@\xe9\xd3l@\xd0~5@\xfe\xab\xaa@\xe0[\xb0@`\x19\xae@\x91>V@/\x83\xf7@\x1dY#@_w\x92@\xd6\xc4\xc9@'
S'\x00\x00\x00\x00\x00\x00\x00\x00\x00\x00\x00\x00\x00\x00\x00\x00\x00\x00'
Ntbsg1524
g1525
(g1526
g1511
g1527
S'b'
tRp1702
(I1
(I18
I1
tg1529
I00
S'\x00\x00\x80?\x00\x00\x80?\x00\x00\x80?\x00\x00\x80?\x00\x00\x80?\x00\x00\x80?\x00\x00\x80?\x00\x00\x80?\x00\x00\x80?\x00\x00\x80?\x00\x00\x80?\x00\x00\x80?\x00\x00\x80?\x00\x00\x80?\x00\x00\x80?\x00\x00\x80?\x00\x00\x80?\x00\x00\x80?'
S'\x00\x00\x00\x00\x00\x00\x00\x00\x00\x00\x00\x00\x00\x00\x00\x00\x00\x00'
Ntbsg21
g1510
(g1511
(I0
tS'b'
tRp1703
(I1
(I18
I1
tg1514
I00
(lp1704
S'8'
aS'2'
aS'2'
aS'8'
aS'1'
aS'2'
aS'1'
aS'2'
aS'8'
aS'6'
aS'7'
aS'1'
aS'9'
aS'7'
aS'3'
aS'6'
aS'5'
aS'8'
atbsg1539
g1525
(g1526
g1511
g1527
S'b'
tRp1705
(I1
(I18
I1
tg1529
I00
S'\x00\x00\x00@\x00\x00\x00A\x00\x00@A\x00\x00\x88A\x00\x00\xe0@\x00\x00pA\x00\x000A\x00\x00PA\x00\x00\x10A\x00\x00\xa0@\x00\x00\x00\x00\x00\x00 A\x00\x00\x80@\x00\x00@@\x00\x00\xc0@\x00\x00\x80A\x00\x00\x80?\x00\x00`A'
S'\x00\x00\x00\x00\x00\x00\x00\x00\x00\x00\x00\x00\x00\x00\x00\x00\x00\x00'
Ntbsg20
g1525
(g1526
g1511
g1527
S'b'
tRp1706
(I1
(I18
I1
tg1529
I00
S'B\xcb\xb0?\xf6\x08\x9e?\xd1\xd6\xe1?|\x0eO@\xd4E\x88@\xb9\xb9\x98@h\\1@q\r#@3\xb0\x06@\xf2v\xfa@h&\xc7@\xf6\xcc\xb0@\xc1\xd6\x00A\xf29\x98@\xbfm\xba@\x1c\x06\xe7@d\xcf\xc4@\xe8\x94c@'
S'\x00\x00\x00\x00\x00\x00\x00\x00\x00\x00\x00\x00\x00\x00\x00\x00\x00\x00'
NtbstRp1707
(dp1708
g1544
(dp1709
g1524
I01
sg21
I00
sg20
I01
sg22
I01
sg19
I00
sg23
I01
sg1539
I01
ssg1546
g1694
sg1547
(lp1710
g1524
ag1539
ag19
ag20
ag21
ag22
ag23
asg1549
(lp1711
I18
aI1
asbsg1551
g1552
sg1553
g1510
(g1511
(I0
tS'b'
tRp1712
(I1
(I18
I1
tg1514
I00
(lp1713
I10
aI16
aI0
aI13
aI12
aI9
aI14
aI4
aI1
aI8
aI11
aI6
aI2
aI7
aI17
aI5
aI15
aI3
atbsg1556
I01
sg1557
I1
sg1558
I-1
sg1559
(lp1714
g1
(g1561
g1508
(dp1715
g459
g494
sVY
L4L
sg461
L2L
sg462
g495
sg470
L8L
sg467
L8L
sg468
g497
sVX
L2L
sg464
L0L
sg472
g473
sg474
L0L
sg476
g499
stRp1716
ag1
(g1561
g1508
(dp1717
g459
g551
sVY
L6L
sg461
L2L
sg462
g552
sg470
L2L
sg467
L2L
sg468
g497
sVX
L6L
sg464
L0L
sg472
g488
sg474
L0L
sg476
g499
stRp1718
ag1
(g1561
g1508
(dp1719
g459
g584
sVY
L7L
sg461
L2L
sg462
g585
sg470
L2L
sg467
L2L
sg468
g525
sVX
L8L
sg464
L0L
sg472
g497
sg474
L0L
sg476
g588
stRp1720
ag1
(g1561
g1508
(dp1721
g459
g625
sVY
L4L
sg461
L2L
sg462
g626
sg470
L8L
sg467
L8L
sg468
g507
sVX
L4L
sg464
L0L
sg472
g475
sg474
L0L
sg476
g588
stRp1722
ag1
(g1561
g1508
(dp1723
g459
g542
sVY
L4L
sg461
L3L
sg462
g543
sg470
L1L
sg467
L1L
sg468
g497
sVX
L6L
sg464
g469
sg472
g488
sg474
L0L
sg476
g546
stRp1724
ag1
(g1561
g1508
(dp1725
g459
g609
sVY
L4L
sg461
L3L
sg462
g610
sg470
L2L
sg467
L2L
sg468
g475
sVX
L4L
sg464
g484
sg472
g525
sg474
L0L
sg476
g546
stRp1726
ag1
(g1561
g1508
(dp1727
g459
g575
sVY
L7L
sg461
L3L
sg462
g576
sg470
L1L
sg467
L1L
sg468
g525
sVX
L3L
sg464
g484
sg472
g475
sg474
L0L
sg476
g579
stRp1728
ag1
(g1561
g1508
(dp1729
g459
g593
sVY
L3L
sg461
L3L
sg462
g594
sg470
L2L
sg467
L2L
sg468
g488
sVX
L9L
sg464
g469
sg472
g465
sg474
L0L
sg476
g579
stRp1730
ag1
(g1561
g1508
(dp1731
g459
g559
sVY
L2L
sg461
L3L
sg462
g560
sg470
L8L
sg467
L8L
sg468
g487
sVX
L7L
sg464
g525
sg472
g497
sg474
L0L
sg476
g528
stRp1732
ag1
(g1561
g1508
(dp1733
g459
g523
sVY
L3L
sg461
L3L
sg462
g524
sg470
L6L
sg467
L6L
sg468
g484
sVX
L4L
sg464
g525
sg472
g497
sg474
L0L
sg476
g528
stRp1734
ag1
(g1561
g1508
(dp1735
g459
g460
sVY
L6L
sg461
L4L
sg462
g463
sg470
L7L
sg467
L7L
sg468
g469
sVX
L4L
sg464
g465
sg472
g473
sg474
g475
sg476
g477
stRp1736
ag1
(g1561
g1508
(dp1737
g459
g567
sVY
L5L
sg461
L4L
sg462
g568
sg470
L1L
sg467
L1L
sg468
g465
sVX
L6L
sg464
g497
sg472
g488
sg474
g469
sg476
g477
stRp1738
ag1
(g1561
g1508
(dp1739
g459
g514
sVY
L4L
sg461
L4L
sg462
g515
sg470
L9L
sg467
L9L
sg468
g473
sVX
L9L
sg464
g497
sg472
g518
sg474
g469
sg476
g509
stRp1740
ag1
(g1561
g1508
(dp1741
g459
g504
sVY
L4L
sg461
L4L
sg462
g505
sg470
L7L
sg467
L7L
sg468
g507
sVX
L3L
sg464
g497
sg472
g487
sg474
g469
sg476
g509
stRp1742
ag1
(g1561
g1508
(dp1743
g459
g533
sVY
L6L
sg461
L4L
sg462
g534
sg470
L3L
sg467
L3L
sg468
g469
sVX
L4L
sg464
g507
sg472
g487
sg474
g475
sg476
g537
stRp1744
ag1
(g1561
g1508
(dp1745
g459
g617
sVY
L8L
sg461
L4L
sg462
g618
sg470
L6L
sg467
L6L
sg468
g484
sVX
L9L
sg464
g488
sg472
g497
sg474
g487
sg476
g537
stRp1746
ag1
(g1561
g1508
(dp1747
g459
g482
sVY
L2L
sg461
L4L
sg462
g483
sg470
L5L
sg467
L5L
sg468
g475
sVX
L8L
sg464
g484
sg472
g487
sg474
g488
sg476
g489
stRp1748
ag1
(g1561
g1508
(dp1749
g459
g601
sVY
L4L
sg461
L4L
sg462
g602
sg470
L4L
sg467
L4L
sg468
g487
sVX
L4L
sg464
g484
sg472
g497
sg474
g488
sg476
g489
stRp1750
asg1574
Nsg1575
I3
sg1576
I18
sg1577
I0
sg1578
I18
sbag1
(g1496
g3
NtRp1751
(dp1752
g1499
Nsg1500
(lp1753
sg1502
I326165456
sg10
g1582
sg6
g1504
sg1505
I1
sg24
I01
sg25
g26
sg1506
g1
(g1507
g1508
(dp1754
g22
g1525
(g1526
g1511
g1527
S'b'
tRp1755
(I1
(I18
I1
tg1529
I00
S'\x00\x00\x80?\x00\x00\x80?\x00\x00\x80?\x00\x00\x80?\x00\x00\x80?\x00\x00\x80?\x00\x00\x80?\x00\x00\x80?\x00\x00\x80?\x00\x00\x80?\x00\x00\x80?\x00\x00\x80?\x00\x00\x80?\x00\x00\x80?\x00\x00\x80?\x00\x00\x80?\x00\x00\x80?\x00\x00\x00\x00'
S'\x00\x00\x00\x00\x00\x00\x00\x00\x00\x00\x00\x00\x00\x00\x00\x00\x00\x00'
Ntbsg19
g1510
(g1511
(I0
tS'b'
tRp1756
(I1
(I18
I1
tg1514
I00
(lp1757
g716
ag776
ag752
ag679
ag760
ag707
ag658
ag640
ag784
ag688
ag792
ag697
ag800
ag668
ag768
ag735
ag725
ag744
atbsg23
g1525
(g1526
g1511
g1527
S'b'
tRp1758
(I1
(I18
I1
tg1529
I00
S'\x85c\x87@%\xc9 @\xe5K\xd7?\xac\x8d\xa2@\x05\x90\x94@x\n\x08AkT\x87@\xb5O\x1f@\xf4\x91}@!\x8e\xd4@)\\\xae@X\xaf\xc3@A\xfe\xe8@\x9c\xdf8A.w\xb6@\x0cV\x87A\xaf\xba\x85@\x00\x00\x00\x00'
S'\x00\x00\x00\x00\x00\x00\x00\x00\x00\x00\x00\x00\x00\x00\x00\x00\x00\x01'
Ntbsg1524
g1525
(g1526
g1511
g1527
S'b'
tRp1759
(I1
(I18
I1
tg1529
I00
S'\x00\x00\x80?\x00\x00\x80?\x00\x00\x80?\x00\x00\x80?\x00\x00\x80?\x00\x00\x80?\x00\x00\x80?\x00\x00\x80?\x00\x00\x80?\x00\x00\x80?\x00\x00\x80?\x00\x00\x80?\x00\x00\x80?\x00\x00\x80?\x00\x00\x80?\x00\x00\x80?\x00\x00\x80?\x00\x00\x80?'
S'\x00\x00\x00\x00\x00\x00\x00\x00\x00\x00\x00\x00\x00\x00\x00\x00\x00\x00'
Ntbsg21
g1510
(g1511
(I0
tS'b'
tRp1760
(I1
(I18
I1
tg1514
I00
(lp1761
S'1'
aS'4'
aS'9'
aS'6'
aS'6'
aS'7'
aS'8'
aS'2'
aS'1'
aS'9'
aS'1'
aS'2'
aS'1'
aS'3'
aS'7'
aS'1'
aS'5'
aNatbsg1539
g1525
(g1526
g1511
g1527
S'b'
tRp1762
(I1
(I18
I1
tg1529
I00
S'\x00\x00\xe0@\x00\x00`A\x00\x000A\x00\x00@@\x00\x00@A\x00\x00\xc0@\x00\x00\x80?\x00\x00\x00\x00\x00\x00pA\x00\x00\x80@\x00\x00\x80A\x00\x00\xa0@\x00\x00\x88A\x00\x00\x00@\x00\x00PA\x00\x00\x10A\x00\x00\x00A\x00\x00 A'
S'\x00\x00\x00\x00\x00\x00\x00\x00\x00\x00\x00\x00\x00\x00\x00\x00\x00\x00'
Ntbsg20
g1525
(g1526
g1511
g1527
S'b'
tRp1763
(I1
(I18
I1
tg1529
I00
S"\x9e?\x9d@\xce\xc8\xa4?\xf8L@@\xd3P\x85?0\xe3\x0b@\x01\x82\xf6?\x98%\x01@\x85\x1c\x0c@\xa3\x8f\xfa@M,\xbd@\x88\xd4\xcb@\xe8\r\xa5@\xc6n\x8d@\xde\xe4\xb3@\x8c\xaa\x04A'k]@6y(A\xcdD\xb3@"
S'\x00\x00\x00\x00\x00\x00\x00\x00\x00\x00\x00\x00\x00\x00\x00\x00\x00\x00'
NtbstRp1764
(dp1765
g1544
(dp1766
g1524
I01
sg21
I00
sg20
I01
sg22
I01
sg19
I00
sg23
I01
sg1539
I01
ssg1546
g1751
sg1547
(lp1767
g1524
ag1539
ag19
ag20
ag21
ag22
ag23
asg1549
(lp1768
I18
aI1
asbsg1551
g1552
sg1553
g1510
(g1511
(I0
tS'b'
tRp1769
(I1
(I18
I1
tg1514
I00
(lp1770
I7
aI6
aI13
aI3
aI9
aI11
aI5
aI0
aI16
aI15
aI17
aI2
aI4
aI14
aI1
aI8
aI10
aI12
atbsg1556
I01
sg1557
I1
sg1558
I-1
sg1559
(lp1771
g1
(g1561
g1508
(dp1772
g633
g714
sVY
L2L
sg635
L2L
sg636
g715
sg644
L1L
sg641
L1L
sg642
g657
sVX
L9L
sg638
L0L
sg646
g669
sg648
L0L
sg649
g718
stRp1773
ag1
(g1561
g1508
(dp1774
g633
g774
sVY
L4L
sg635
L2L
sg636
g775
sg644
L4L
sg641
L4L
sg642
g657
sVX
L3L
sg638
L0L
sg646
g659
sg648
L0L
sg649
g718
stRp1775
ag1
(g1561
g1508
(dp1776
g633
g750
sVY
L4L
sg635
L2L
sg636
g751
sg644
L9L
sg641
L9L
sg642
g659
sVX
L2L
sg638
L0L
sg646
g647
sg648
L0L
sg649
g681
stRp1777
ag1
(g1561
g1508
(dp1778
g633
g677
sVY
L6L
sg635
L2L
sg636
g678
sg644
L6L
sg641
L6L
sg642
g669
sVX
L8L
sg638
L0L
sg646
g671
sg648
L0L
sg649
g681
stRp1779
ag1
(g1561
g1508
(dp1780
g633
g758
sVY
L4L
sg635
L3L
sg636
g759
sg644
L6L
sg641
L6L
sg642
g698
sVX
L6L
sg638
g639
sg646
g727
sg648
L0L
sg649
g709
stRp1781
ag1
(g1561
g1508
(dp1782
g633
g705
sVY
L9L
sg635
L3L
sg636
g706
sg644
L7L
sg641
L7L
sg642
g661
sVX
L9L
sg638
g698
sg646
g669
sg648
L0L
sg649
g709
stRp1783
ag1
(g1561
g1508
(dp1784
g633
g655
sVY
L4L
sg635
L3L
sg636
g656
sg644
L8L
sg641
L8L
sg642
g659
sVX
L3L
sg638
g657
sg646
g661
sg648
L0L
sg649
g650
stRp1785
ag1
(g1561
g1508
(dp1786
g633
g634
sVY
L2L
sg635
L3L
sg636
g637
sg644
L2L
sg641
L2L
sg642
g643
sVX
L4L
sg638
g639
sg646
g647
sg648
L0L
sg649
g650
stRp1787
ag1
(g1561
g1508
(dp1788
g633
g782
sVY
L2L
sg635
L3L
sg636
g783
sg644
L1L
sg641
L1L
sg642
g639
sVX
L8L
sg638
g643
sg646
g698
sg648
L0L
sg649
g690
stRp1789
ag1
(g1561
g1508
(dp1790
g633
g686
sVY
L3L
sg635
L3L
sg636
g687
sg644
L9L
sg641
L9L
sg642
g639
sVX
L2L
sg638
g659
sg646
g671
sg648
L0L
sg649
g690
stRp1791
ag1
(g1561
g1508
(dp1792
g633
g790
sVY
L3L
sg635
L4L
sg636
g791
sg644
L1L
sg641
L1L
sg642
g698
sVX
L6L
sg638
g657
sg646
g643
sg648
g661
sg649
g700
stRp1793
ag1
(g1561
g1508
(dp1794
g633
g695
sVY
L2L
sg635
L4L
sg636
g696
sg644
L2L
sg641
L2L
sg642
g698
sVX
L3L
sg638
g657
sg646
g659
sg648
g661
sg649
g700
stRp1795
ag1
(g1561
g1508
(dp1796
g633
g798
sVY
L9L
sg635
L4L
sg636
g799
sg644
L1L
sg641
L1L
sg642
g643
sVX
L3L
sg638
g671
sg646
g698
sg648
g661
sg649
g672
stRp1797
ag1
(g1561
g1508
(dp1798
g633
g666
sVY
L3L
sg635
L4L
sg636
g667
sg644
L3L
sg641
L3L
sg642
g669
sVX
L6L
sg638
g647
sg646
g671
sg648
g639
sg649
g672
stRp1799
ag1
(g1561
g1508
(dp1800
g633
g766
sVY
L2L
sg635
L4L
sg636
g767
sg644
L7L
sg641
L7L
sg642
g639
sVX
L2L
sg638
g659
sg646
g647
sg648
g671
sg649
g737
stRp1801
ag1
(g1561
g1508
(dp1802
g633
g733
sVY
L2L
sg635
L4L
sg636
g734
sg644
L1L
sg641
L1L
sg642
g647
sVX
L8L
sg638
g669
sg646
g657
sg648
g639
sg649
g737
stRp1803
ag1
(g1561
g1508
(dp1804
g633
g723
sVY
L2L
sg635
L4L
sg636
g724
sg644
L5L
sg641
L5L
sg642
g639
sVX
L2L
sg638
g671
sg646
g698
sg648
g727
sg649
g728
stRp1805
ag1
(g1561
g1508
(dp1806
g633
g742
sVY
L2L
sg635
L4L
sg636
g743
sg644
L7L
sg641
L7L
sg642
g671
sVX
L2L
sg638
g639
sg646
g647
sg648
g727
sg649
g728
stRp1807
asg1574
Nsg1575
I12
sg1576
I18
sg1577
I0
sg1578
I18
sbag1
(g1496
g3
NtRp1808
(dp1809
g1499
Nsg1500
(lp1810
sg1502
I326165456
sg10
g1582
sg6
g1504
sg1505
I1
sg24
I01
sg25
g26
sg1506
g1
(g1507
g1508
(dp1811
g22
g1525
(g1526
g1511
g1527
S'b'
tRp1812
(I1
(I18
I1
tg1529
I00
S'\x00\x00\x80?\x00\x00\x80?\x00\x00\x80?\x00\x00\x00\x00\x00\x00\x80?\x00\x00\x80?\x00\x00\x80?\x00\x00\x80?\x00\x00\x80?\x00\x00\x80?\x00\x00\x80?\x00\x00\x80?\x00\x00\x80?\x00\x00\x80?\x00\x00\x80?\x00\x00\x80?\x00\x00\x80?\x00\x00\x80?'
S'\x00\x00\x00\x00\x00\x00\x00\x00\x00\x00\x00\x00\x00\x00\x00\x00\x00\x00'
Ntbsg19
g1510
(g1511
(I0
tS'b'
tRp1813
(I1
(I18
I1
tg1514
I00
(lp1814
g916
ag899
ag957
ag854
ag872
ag863
ag965
ag940
ag949
ag844
ag932
ag813
ag973
ag890
ag924
ag832
ag908
ag880
atbsg23
g1525
(g1526
g1511
g1527
S'b'
tRp1815
(I1
(I18
I1
tg1529
I00
S'$l\xf0?\x00\xf0\x1b@\xd9\x995@\x9a\xd0\r@\x9a\xb1\\@\xfc\xdb\xc5@\xa1\x7f\xb8@S(\x83@B\x13\xa5@XB\xaa@\xcd\xd0\xde@\x1e\xc4\xf2@\x19$\xab@(\xe1\xa0@\x05\xe6\x16A \x1e\xa7@Mq\x83@\xd8\x03O@'
S'\x00\x00\x00\x00\x00\x00\x00\x00\x00\x00\x00\x00\x00\x00\x00\x00\x00\x00'
Ntbsg1524
g1525
(g1526
g1511
g1527
S'b'
tRp1816
(I1
(I18
I1
tg1529
I00
S'\x00\x00\x80?\x00\x00\x80?\x00\x00\x80?\x00\x00\x80?\x00\x00\x80?\x00\x00\x80?\x00\x00\x80?\x00\x00\x80?\x00\x00\x80?\x00\x00\x80?\x00\x00\x80?\x00\x00\x80?\x00\x00\x80?\x00\x00\x80?\x00\x00\x80?\x00\x00\x80?\x00\x00\x80?\x00\x00\x80?'
S'\x00\x00\x00\x00\x00\x00\x00\x00\x00\x00\x00\x00\x00\x00\x00\x00\x00\x00'
Ntbsg21
g1510
(g1511
(I0
tS'b'
tRp1817
(I1
(I18
I1
tg1514
I00
(lp1818
S'2'
aS'3'
aS'1'
aS'7'
aS'9'
aS'4'
aS'6'
aS'3'
aS'7'
aS'1'
aS'8'
aS'8'
aS'8'
aS'2'
aS'8'
aS'1'
aS'6'
aS'6'
atbsg1539
g1525
(g1526
g1511
g1527
S'b'
tRp1819
(I1
(I18
I1
tg1529
I00
S'\x00\x00 A\x00\x00\x00A\x00\x00pA\x00\x00@@\x00\x00\xa0@\x00\x00\x80@\x00\x00\x80A\x00\x00PA\x00\x00`A\x00\x00\x00@\x00\x00@A\x00\x00\x00\x00\x00\x00\x88A\x00\x00\xe0@\x00\x000A\x00\x00\x80?\x00\x00\x10A\x00\x00\xc0@'
S'\x00\x00\x00\x00\x00\x00\x00\x00\x00\x00\x00\x00\x00\x00\x00\x00\x00\x00'
Ntbsg20
g1525
(g1526
g1511
g1527
S'b'
tRp1820
(I1
(I18
I1
tg1529
I00
S'q)\xb0?\x9a\x8e\xdb?\xf7\xf8\xfd?\xd3\xa3\x8b?X\x7f\xa6@\xe6`5@6MN@\x82\xda\xa0@\x8a\xc4;@\x06s3@\xe2\x94\xcf@]\x86\xc4@#)U@\xd5\x0b\xe1@\xf0F\xdc@\xf3\xf6\x8c@l{\xe0@\xa8g\xdd@'
S'\x00\x00\x00\x00\x00\x00\x00\x00\x00\x00\x00\x00\x00\x00\x00\x00\x00\x00'
NtbstRp1821
(dp1822
g1544
(dp1823
g1524
I01
sg21
I00
sg20
I01
sg22
I01
sg19
I00
sg23
I01
sg1539
I01
ssg1546
g1808
sg1547
(lp1824
g1524
ag1539
ag19
ag20
ag21
ag22
ag23
asg1549
(lp1825
I18
aI1
asbsg1551
g1552
sg1553
g1510
(g1511
(I0
tS'b'
tRp1826
(I1
(I18
I1
tg1514
I00
(lp1827
I11
aI15
aI9
aI3
aI5
aI4
aI17
aI13
aI1
aI16
aI0
aI14
aI10
aI7
aI8
aI2
aI6
aI12
atbsg1556
I01
sg1557
I1
sg1558
I-1
sg1559
(lp1828
g1
(g1561
g1508
(dp1829
g806
g914
sVY
L2L
sg808
L2L
sg809
g915
sg817
L2L
sg814
L2L
sg815
g833
sVX
L3L
sg811
L0L
sg819
g831
sg821
L0L
sg823
g901
stRp1830
ag1
(g1561
g1508
(dp1831
g806
g897
sVY
L2L
sg808
L2L
sg809
g898
sg817
L3L
sg814
L3L
sg815
g816
sVX
L6L
sg811
L0L
sg819
g820
sg821
L0L
sg823
g901
stRp1832
ag1
(g1561
g1508
(dp1833
g806
g955
sVY
L4L
sg808
L2L
sg809
g956
sg817
L1L
sg814
L1L
sg815
g831
sVX
L8L
sg811
L0L
sg819
g816
sg821
L0L
sg823
g856
stRp1834
ag1
(g1561
g1508
(dp1835
g806
g852
sVY
L2L
sg808
L2L
sg809
g853
sg817
L6L
sg814
L6L
sg815
g843
sVX
L3L
sg811
L0L
sg819
g833
sg821
L0L
sg823
g856
stRp1836
ag1
(g1561
g1508
(dp1837
g806
g870
sVY
L8L
sg808
L3L
sg809
g871
sg817
L9L
sg814
L9L
sg815
g845
sVX
L6L
sg811
g835
sg819
g843
sg821
L0L
sg823
g865
stRp1838
ag1
(g1561
g1508
(dp1839
g806
g861
sVY
L2L
sg808
L3L
sg809
g862
sg817
L4L
sg814
L4L
sg815
g816
sVX
L3L
sg811
g812
sg819
g831
sg821
L0L
sg823
g865
stRp1840
ag1
(g1561
g1508
(dp1841
g806
g963
sVY
L3L
sg808
L3L
sg809
g964
sg817
L6L
sg814
L6L
sg815
g843
sVX
L3L
sg811
g812
sg819
g845
sg821
L0L
sg823
g942
stRp1842
ag1
(g1561
g1508
(dp1843
g806
g938
sVY
L2L
sg808
L3L
sg809
g939
sg817
L3L
sg814
L3L
sg815
g820
sVX
L8L
sg811
g845
sg819
g833
sg821
L0L
sg823
g942
stRp1844
ag1
(g1561
g1508
(dp1845
g806
g947
sVY
L3L
sg808
L3L
sg809
g948
sg817
L7L
sg814
L7L
sg815
g812
sVX
L6L
sg811
g831
sg819
g833
sg821
L0L
sg823
g847
stRp1846
ag1
(g1561
g1508
(dp1847
g806
g841
sVY
L3L
sg808
L3L
sg809
g842
sg817
L1L
sg814
L1L
sg815
g845
sVX
L3L
sg811
g843
sg819
g835
sg821
L0L
sg823
g847
stRp1848
ag1
(g1561
g1508
(dp1849
g806
g930
sVY
L6L
sg808
L4L
sg809
g931
sg817
L8L
sg814
L8L
sg815
g822
sVX
L6L
sg811
g816
sg819
g843
sg821
g835
sg823
g824
stRp1850
ag1
(g1561
g1508
(dp1851
g806
g807
sVY
L9L
sg808
L4L
sg809
g810
sg817
L8L
sg814
L8L
sg815
g816
sVX
L3L
sg811
g812
sg819
g820
sg821
g822
sg823
g824
stRp1852
ag1
(g1561
g1508
(dp1853
g806
g971
sVY
L2L
sg808
L4L
sg809
g972
sg817
L8L
sg814
L8L
sg815
g843
sVX
L3L
sg811
g833
sg819
g822
sg821
g835
sg823
g892
stRp1854
ag1
(g1561
g1508
(dp1855
g806
g888
sVY
L3L
sg808
L4L
sg809
g889
sg817
L2L
sg814
L2L
sg815
g882
sVX
L2L
sg811
g822
sg819
g835
sg821
g816
sg823
g892
stRp1856
ag1
(g1561
g1508
(dp1857
g806
g922
sVY
L7L
sg808
L4L
sg809
g923
sg817
L8L
sg814
L8L
sg815
g822
sVX
L6L
sg811
g843
sg819
g835
sg821
g816
sg823
g836
stRp1858
ag1
(g1561
g1508
(dp1859
g806
g829
sVY
L9L
sg808
L4L
sg809
g830
sg817
L1L
sg814
L1L
sg815
g833
sVX
L9L
sg811
g831
sg819
g835
sg821
g822
sg823
g836
stRp1860
ag1
(g1561
g1508
(dp1861
g806
g906
sVY
L3L
sg808
L4L
sg809
g907
sg817
L6L
sg814
L6L
sg815
g812
sVX
L9L
sg811
g833
sg819
g845
sg821
g831
sg823
g883
stRp1862
ag1
(g1561
g1508
(dp1863
g806
g878
sVY
L4L
sg808
L4L
sg809
g879
sg817
L6L
sg814
L6L
sg815
g822
sVX
L2L
sg811
g833
sg819
g835
sg821
g882
sg823
g883
stRp1864
asg1574
Nsg1575
I12
sg1576
I18
sg1577
I0
sg1578
I18
sbag1
(g1496
g3
NtRp1865
(dp1866
g1499
Nsg1500
(lp1867
sg1502
I326165456
sg10
g1582
sg6
g1504
sg1505
I1
sg24
I01
sg25
g26
sg1506
g1
(g1507
g1508
(dp1868
g22
g1525
(g1526
g1511
g1527
S'b'
tRp1869
(I1
(I18
I1
tg1529
I00
S'\x00\x00\x80?\x00\x00\x80?\x00\x00\x00\x00\x00\x00\x80?\x00\x00\x80?\x00\x00\x80?\x00\x00\x80?\x00\x00\x80?\x00\x00\x80?\x00\x00\x80?\x00\x00\x80?\x00\x00\x80?\x00\x00\x80?\x00\x00\x80?\x00\x00\x80?\x00\x00\x80?\x00\x00\x80?\x00\x00\x80?'
S'\x00\x00\x00\x00\x00\x00\x00\x00\x00\x00\x00\x00\x00\x00\x00\x00\x00\x00'
Ntbsg19
g1510
(g1511
(I0
tS'b'
tRp1870
(I1
(I18
I1
tg1514
I00
(lp1871
g1113
ag1138
ag1105
ag1080
ag1146
ag1071
ag1053
ag986
ag1035
ag1097
ag1016
ag1026
ag1061
ag1122
ag1130
ag1004
ag1089
ag1044
atbsg23
g1525
(g1526
g1511
g1527
S'b'
tRp1872
(I1
(I18
I1
tg1529
I00
S'U7\xf4?\x9a\xe4E@\t\xeb\x1f@c\x8f,@p\xc9J@\x00\x80/@\x10;\xac@\xbbo\xa0@\t\x18\xee@\x8e\xd5\x03AJ\xb3\xc4@\xec\xccv@\xf5\x8cV@\xb7\xe9\xb5@z*\x03Av\x82\xa5@t/\xa6@}\xc5\xd8@'
S'\x00\x00\x00\x00\x00\x00\x00\x00\x00\x00\x00\x00\x00\x00\x00\x00\x00\x00'
Ntbsg1524
g1525
(g1526
g1511
g1527
S'b'
tRp1873
(I1
(I18
I1
tg1529
I00
S'\x00\x00\x80?\x00\x00\x80?\x00\x00\x80?\x00\x00\x80?\x00\x00\x80?\x00\x00\x80?\x00\x00\x80?\x00\x00\x80?\x00\x00\x80?\x00\x00\x80?\x00\x00\x80?\x00\x00\x80?\x00\x00\x80?\x00\x00\x80?\x00\x00\x80?\x00\x00\x80?\x00\x00\x80?\x00\x00\x80?'
S'\x00\x00\x00\x00\x00\x00\x00\x00\x00\x00\x00\x00\x00\x00\x00\x00\x00\x00'
Ntbsg21
g1510
(g1511
(I0
tS'b'
tRp1874
(I1
(I18
I1
tg1514
I00
(lp1875
S'4'
aS'6'
aS'4'
aS'1'
aS'9'
aS'5'
aS'5'
aS'5'
aS'8'
aS'3'
aS'3'
aS'9'
aS'4'
aS'3'
aS'8'
aS'6'
aS'1'
aS'6'
atbsg1539
g1525
(g1526
g1511
g1527
S'b'
tRp1876
(I1
(I18
I1
tg1529
I00
S'\x00\x00PA\x00\x00\x80A\x00\x00@A\x00\x00\x10A\x00\x00\x88A\x00\x00\x00A\x00\x00\xc0@\x00\x00\x00\x00\x00\x00\x80@\x00\x000A\x00\x00\x00@\x00\x00@@\x00\x00\xe0@\x00\x00`A\x00\x00pA\x00\x00\x80?\x00\x00 A\x00\x00\xa0@'
S'\x00\x00\x00\x00\x00\x00\x00\x00\x00\x00\x00\x00\x00\x00\x00\x00\x00\x00'
Ntbsg20
g1525
(g1526
g1511
g1527
S'b'
tRp1877
(I1
(I18
I1
tg1529
I00
S'#\x15\xc7?\x08U\x98?\xe7)\x94?\x96\xf6\xa1?B\xe1\xfc?9\xdd\x85@\xf1\x80\xdf?\xd8Ja@?E\x1d@)Z*@\xfe\x9a\xce@\xc1K\x98@\xa0\x97\xbd@\xe1YM@a\x84\xb8@!$\xd6@\xe99Y@\x80\x01u@'
S'\x00\x00\x00\x00\x00\x00\x00\x00\x00\x00\x00\x00\x00\x00\x00\x00\x00\x00'
NtbstRp1878
(dp1879
g1544
(dp1880
g1524
I01
sg21
I00
sg20
I01
sg22
I01
sg19
I00
sg23
I01
sg1539
I01
ssg1546
g1865
sg1547
(lp1881
g1524
ag1539
ag19
ag20
ag21
ag22
ag23
asg1549
(lp1882
I18
aI1
asbsg1551
g1552
sg1553
g1510
(g1511
(I0
tS'b'
tRp1883
(I1
(I18
I1
tg1514
I00
(lp1884
I7
aI15
aI10
aI11
aI8
aI17
aI6
aI12
aI5
aI3
aI16
aI9
aI2
aI0
aI13
aI14
aI1
aI4
atbsg1556
I01
sg1557
I1
sg1558
I-1
sg1559
(lp1885
g1
(g1561
g1508
(dp1886
g979
g1111
sVY
L2L
sg981
L2L
sg982
g1112
sg990
L4L
sg987
L4L
sg988
g985
sVX
L3L
sg984
L0L
sg992
g989
sg994
L0L
sg995
g1115
stRp1887
ag1
(g1561
g1508
(dp1888
g979
g1136
sVY
L2L
sg981
L2L
sg982
g1137
sg990
L6L
sg987
L6L
sg988
g1015
sVX
L2L
sg984
L0L
sg992
g989
sg994
L0L
sg995
g1115
stRp1889
ag1
(g1561
g1508
(dp1890
g979
g1103
sVY
L5L
sg981
L2L
sg982
g1104
sg990
L3L
sg987
L3L
sg988
g1003
sVX
L4L
sg984
L0L
sg992
g993
sg994
L0L
sg995
g1082
stRp1891
ag1
(g1561
g1508
(dp1892
g979
g1078
sVY
L2L
sg981
L2L
sg982
g1079
sg990
L1L
sg987
L1L
sg988
g1018
sVX
L5L
sg984
L0L
sg992
g993
sg994
L0L
sg995
g1082
stRp1893
ag1
(g1561
g1508
(dp1894
g979
g1144
sVY
L3L
sg981
L3L
sg982
g1145
sg990
L9L
sg987
L9L
sg988
g985
sVX
L8L
sg984
g1005
sg992
g989
sg994
L0L
sg995
g1073
stRp1895
ag1
(g1561
g1508
(dp1896
g979
g1069
sVY
L5L
sg981
L3L
sg982
g1070
sg990
L5L
sg987
L5L
sg988
g993
sVX
L6L
sg984
g1005
sg992
g989
sg994
L0L
sg995
g1073
stRp1897
ag1
(g1561
g1508
(dp1898
g979
g1051
sVY
L7L
sg981
L3L
sg982
g1052
sg990
L5L
sg987
L5L
sg988
g1003
sVX
L7L
sg984
g1015
sg992
g993
sg994
L0L
sg995
g996
stRp1899
ag1
(g1561
g1508
(dp1900
g979
g980
sVY
L5L
sg981
L3L
sg982
g983
sg990
L5L
sg987
L5L
sg988
g989
sVX
L4L
sg984
g985
sg992
g993
sg994
L0L
sg995
g996
stRp1901
ag1
(g1561
g1508
(dp1902
g979
g1033
sVY
L5L
sg981
L3L
sg982
g1034
sg990
L8L
sg987
L8L
sg988
g985
sVX
L5L
sg984
g989
sg992
g993
sg994
L0L
sg995
g1037
stRp1903
ag1
(g1561
g1508
(dp1904
g979
g1095
sVY
L2L
sg981
L3L
sg982
g1096
sg990
L3L
sg987
L3L
sg988
g1005
sVX
L4L
sg984
g1062
sg992
g1007
sg994
L0L
sg995
g1037
stRp1905
ag1
(g1561
g1508
(dp1906
g979
g1013
sVY
L5L
sg981
L4L
sg982
g1014
sg990
L3L
sg987
L3L
sg988
g1005
sVX
L5L
sg984
g1015
sg992
g1018
sg994
g1007
sg995
g1019
stRp1907
ag1
(g1561
g1508
(dp1908
g979
g1024
sVY
L3L
sg981
L4L
sg982
g1025
sg990
L9L
sg987
L9L
sg988
g1015
sVX
L3L
sg984
g993
sg992
g989
sg994
g1028
sg995
g1019
stRp1909
ag1
(g1561
g1508
(dp1910
g979
g1059
sVY
L6L
sg981
L4L
sg982
g1060
sg990
L4L
sg987
L4L
sg988
g1062
sVX
L3L
sg984
g1007
sg992
g1015
sg994
g1028
sg995
g1064
stRp1911
ag1
(g1561
g1508
(dp1912
g979
g1120
sVY
L3L
sg981
L4L
sg982
g1121
sg990
L3L
sg987
L3L
sg988
g1018
sVX
L3L
sg984
g1028
sg992
g1007
sg994
g985
sg995
g1064
stRp1913
ag1
(g1561
g1508
(dp1914
g979
g1128
sVY
L2L
sg981
L4L
sg982
g1129
sg990
L8L
sg987
L8L
sg988
g1028
sVX
L9L
sg984
g1003
sg992
g993
sg994
g1015
sg995
g1008
stRp1915
ag1
(g1561
g1508
(dp1916
g979
g1001
sVY
L3L
sg981
L4L
sg982
g1002
sg990
L6L
sg987
L6L
sg988
g1005
sVX
L2L
sg984
g1003
sg992
g1007
sg994
g985
sg995
g1008
stRp1917
ag1
(g1561
g1508
(dp1918
g979
g1087
sVY
L2L
sg981
L4L
sg982
g1088
sg990
L1L
sg987
L1L
sg988
g1015
sVX
L8L
sg984
g1005
sg992
g993
sg994
g1062
sg995
g1046
stRp1919
ag1
(g1561
g1508
(dp1920
g979
g1042
sVY
L2L
sg981
L4L
sg982
g1043
sg990
L6L
sg987
L6L
sg988
g985
sVX
L3L
sg984
g1005
sg992
g1007
sg994
g989
sg995
g1046
stRp1921
asg1574
Nsg1575
I4
sg1576
I18
sg1577
I0
sg1578
I18
sbag1
(g1496
g3
NtRp1922
(dp1923
g1499
Nsg1500
(lp1924
sg1502
I326165456
sg10
g1582
sg6
g1504
sg1505
I1
sg24
I01
sg25
g26
sg1506
g1
(g1507
g1508
(dp1925
g22
g1525
(g1526
g1511
g1527
S'b'
tRp1926
(I1
(I18
I1
tg1529
I00
S'\x00\x00\x80?\x00\x00\x80?\x00\x00\x80?\x00\x00\x80?\x00\x00\x80?\x00\x00\x80?\x00\x00\x80?\x00\x00\x80?\x00\x00\x80?\x00\x00\x00\x00\x00\x00\x80?\x00\x00\x80?\x00\x00\x80?\x00\x00\x80?\x00\x00\x80?\x00\x00\x80?\x00\x00\x80?\x00\x00\x80?'
S'\x00\x00\x00\x00\x00\x00\x00\x00\x00\x00\x00\x00\x00\x00\x00\x00\x00\x00'
Ntbsg19
g1510
(g1511
(I0
tS'b'
tRp1927
(I1
(I18
I1
tg1514
I00
(lp1928
g1303
ag1261
ag1217
ag1278
ag1245
ag1208
ag1319
ag1294
ag1189
ag1159
ag1236
ag1253
ag1311
ag1177
ag1199
ag1286
ag1270
ag1227
atbsg23
g1525
(g1526
g1511
g1527
S'b'
tRp1929
(I1
(I18
I1
tg1529
I00
S'\xd9\x9c\x08@\xbc\xc6d@\x0bS2@~\xf1>@\xfdc\xcc@\x9f9\xb0@\xcbp\x8a@F\xe4o@\xa9GU@?C|A\xf3\xbb\x04A\xcfY\xc6@\xc4I\xff@\xbe\x8a\x9e@\x08`\xce@\n\xd6\xde@\x9b\x9f\xec@\xd6\xd8m@'
S'\x00\x00\x00\x00\x00\x00\x00\x00\x00\x00\x00\x00\x00\x00\x00\x00\x00\x00'
Ntbsg1524
g1525
(g1526
g1511
g1527
S'b'
tRp1930
(I1
(I18
I1
tg1529
I00
S'\x00\x00\x80?\x00\x00\x80?\x00\x00\x80?\x00\x00\x80?\x00\x00\x80?\x00\x00\x80?\x00\x00\x80?\x00\x00\x80?\x00\x00\x80?\x00\x00\x80?\x00\x00\x80?\x00\x00\x80?\x00\x00\x80?\x00\x00\x80?\x00\x00\x80?\x00\x00\x80?\x00\x00\x80?\x00\x00\x80?'
S'\x00\x00\x00\x00\x00\x00\x00\x00\x00\x00\x00\x00\x00\x00\x00\x00\x00\x00'
Ntbsg21
g1510
(g1511
(I0
tS'b'
tRp1931
(I1
(I18
I1
tg1514
I00
(lp1932
S'1'
aS'8'
aS'4'
aS'1'
aS'3'
aS'9'
aS'1'
aS'6'
aS'6'
aS'4'
aS'8'
aS'1'
aS'6'
aS'7'
aS'5'
aS'5'
aS'5'
aS'3'
atbsg1539
g1525
(g1526
g1511
g1527
S'b'
tRp1933
(I1
(I18
I1
tg1529
I00
S'\x00\x00pA\x00\x00 A\x00\x00\xa0@\x00\x00@A\x00\x00\x00A\x00\x00\x80@\x00\x00\x88A\x00\x00`A\x00\x00\x00@\x00\x00\x00\x00\x00\x00\xe0@\x00\x00\x10A\x00\x00\x80A\x00\x00\x80?\x00\x00@@\x00\x00PA\x00\x000A\x00\x00\xc0@'
S'\x00\x00\x00\x00\x00\x00\x00\x00\x00\x00\x00\x00\x00\x00\x00\x00\x00\x00'
Ntbsg20
g1525
(g1526
g1511
g1527
S'b'
tRp1934
(I1
(I18
I1
tg1529
I00
S'L,\x81@\x17j\x81?\xe5\xcd\x97?\xcal\xac?\x04\xd3:@\x00\xcfd@\xfc\xf1#@\xfc\xb3\xd7?SH\x05@\x1f\xa9y@\xfe\x13\x91@\xe1\x10\xd1@\xdb\xc1\xb5@\xf9z\xc0@\xf1\xfe\xcd@\xda2\x84@\x109\x97@\x0b\xbb\xbd@'
S'\x00\x00\x00\x00\x00\x00\x00\x00\x00\x00\x00\x00\x00\x00\x00\x00\x00\x00'
NtbstRp1935
(dp1936
g1544
(dp1937
g1524
I01
sg21
I00
sg20
I01
sg22
I01
sg19
I00
sg23
I01
sg1539
I01
ssg1546
g1922
sg1547
(lp1938
g1524
ag1539
ag19
ag20
ag21
ag22
ag23
asg1549
(lp1939
I18
aI1
asbsg1551
g1552
sg1553
g1510
(g1511
(I0
tS'b'
tRp1940
(I1
(I18
I1
tg1514
I00
(lp1941
I9
aI13
aI8
aI14
aI5
aI2
aI17
aI10
aI4
aI11
aI1
aI16
aI3
aI15
aI7
aI0
aI12
aI6
atbsg1556
I01
sg1557
I1
sg1558
I-1
sg1559
(lp1942
g1
(g1561
g1508
(dp1943
g1152
g1301
sVY
L3L
sg1154
L2L
sg1155
g1302
sg1163
L1L
sg1160
L1L
sg1161
g1162
sVX
L9L
sg1157
L0L
sg1165
g1198
sg1167
L0L
sg1168
g1263
stRp1944
ag1
(g1561
g1508
(dp1945
g1152
g1259
sVY
L2L
sg1154
L2L
sg1155
g1260
sg1163
L8L
sg1160
L8L
sg1161
g1166
sVX
L2L
sg1157
L0L
sg1165
g1158
sg1167
L0L
sg1168
g1263
stRp1946
ag1
(g1561
g1508
(dp1947
g1152
g1215
sVY
L3L
sg1154
L2L
sg1155
g1216
sg1163
L4L
sg1160
L4L
sg1161
g1218
sVX
L6L
sg1157
L0L
sg1165
g1180
sg1167
L0L
sg1168
g1220
stRp1948
ag1
(g1561
g1508
(dp1949
g1152
g1276
sVY
L2L
sg1154
L2L
sg1155
g1277
sg1163
L1L
sg1160
L1L
sg1161
g1198
sVX
L6L
sg1157
L0L
sg1165
g1162
sg1167
L0L
sg1168
g1220
stRp1950
ag1
(g1561
g1508
(dp1951
g1152
g1243
sVY
L9L
sg1154
L3L
sg1155
g1244
sg1163
L3L
sg1160
L3L
sg1161
g1181
sVX
L5L
sg1157
g1190
sg1165
g1218
sg1167
L0L
sg1168
g1210
stRp1952
ag1
(g1561
g1508
(dp1953
g1152
g1206
sVY
L3L
sg1154
L3L
sg1155
g1207
sg1163
L9L
sg1160
L9L
sg1161
g1176
sVX
L5L
sg1157
g1180
sg1165
g1158
sg1167
L0L
sg1168
g1210
stRp1954
ag1
(g1561
g1508
(dp1955
g1152
g1317
sVY
L2L
sg1154
L3L
sg1155
g1318
sg1163
L1L
sg1160
L1L
sg1161
g1198
sVX
L7L
sg1157
g1190
sg1165
g1162
sg1167
L0L
sg1168
g1296
stRp1956
ag1
(g1561
g1508
(dp1957
g1152
g1292
sVY
L6L
sg1154
L3L
sg1155
g1293
sg1163
L6L
sg1160
L6L
sg1161
g1158
sVX
L6L
sg1157
g1176
sg1165
g1162
sg1167
L0L
sg1168
g1296
stRp1958
ag1
(g1561
g1508
(dp1959
g1152
g1187
sVY
L2L
sg1154
L3L
sg1155
g1188
sg1163
L6L
sg1160
L6L
sg1161
g1190
sVX
L2L
sg1157
g1178
sg1165
g1166
sg1167
L0L
sg1168
g1169
stRp1960
ag1
(g1561
g1508
(dp1961
g1152
g1153
sVY
L6L
sg1154
L3L
sg1155
g1156
sg1163
L8L
sg1160
L8L
sg1161
g1162
sVX
L2L
sg1157
g1158
sg1165
g1166
sg1167
L0L
sg1168
g1169
stRp1962
ag1
(g1561
g1508
(dp1963
g1152
g1234
sVY
L4L
sg1154
L4L
sg1155
g1235
sg1163
L8L
sg1160
L8L
sg1161
g1166
sVX
L3L
sg1157
g1181
sg1165
g1218
sg1167
g1190
sg1168
g1238
stRp1964
ag1
(g1561
g1508
(dp1965
g1152
g1251
sVY
L8L
sg1154
L4L
sg1155
g1252
sg1163
L1L
sg1160
L1L
sg1161
g1181
sVX
L2L
sg1157
g1190
sg1165
g1218
sg1167
g1166
sg1168
g1238
stRp1966
ag1
(g1561
g1508
(dp1967
g1152
g1309
sVY
L5L
sg1154
L4L
sg1155
g1310
sg1163
L6L
sg1160
L6L
sg1161
g1198
sVX
L4L
sg1157
g1181
sg1165
g1166
sg1167
g1180
sg1168
g1182
stRp1968
ag1
(g1561
g1508
(dp1969
g1152
g1174
sVY
L3L
sg1154
L4L
sg1155
g1175
sg1163
L7L
sg1160
L7L
sg1161
g1178
sVX
L2L
sg1157
g1176
sg1165
g1180
sg1167
g1181
sg1168
g1182
stRp1970
ag1
(g1561
g1508
(dp1971
g1152
g1196
sVY
L3L
sg1154
L4L
sg1155
g1197
sg1163
L5L
sg1160
L5L
sg1161
g1181
sVX
L3L
sg1157
g1198
sg1165
g1190
sg1167
g1166
sg1168
g1201
stRp1972
ag1
(g1561
g1508
(dp1973
g1152
g1284
sVY
L4L
sg1154
L4L
sg1155
g1285
sg1163
L5L
sg1160
L5L
sg1161
g1190
sVX
L8L
sg1157
g1158
sg1165
g1162
sg1167
g1176
sg1168
g1201
stRp1974
ag1
(g1561
g1508
(dp1975
g1152
g1268
sVY
L2L
sg1154
L4L
sg1155
g1269
sg1163
L5L
sg1160
L5L
sg1161
g1181
sVX
L6L
sg1157
g1176
sg1165
g1190
sg1167
g1218
sg1168
g1229
stRp1976
ag1
(g1561
g1508
(dp1977
g1152
g1225
sVY
L2L
sg1154
L4L
sg1155
g1226
sg1163
L3L
sg1160
L3L
sg1161
g1181
sVX
L3L
sg1157
g1180
sg1165
g1176
sg1167
g1218
sg1168
g1229
stRp1978
asg1574
Nsg1575
I6
sg1576
I18
sg1577
I0
sg1578
I18
sbag1
(g1496
g3
NtRp1979
(dp1980
g1499
Nsg1500
(lp1981
sg1502
I326165456
sg10
g1582
sg6
g1504
sg1505
I1
sg24
I01
sg25
g26
sg1506
g1
(g1507
g1508
(dp1982
g22
g1525
(g1526
g1511
g1527
S'b'
tRp1983
(I1
(I18
I1
tg1529
I00
S'\x00\x00\x80?\x00\x00\x80?\x00\x00\x80?\x00\x00\x80?\x00\x00\x80?\x00\x00\x80?\x00\x00\x80?\x00\x00\x80?\x00\x00\x80?\x00\x00\x80?\x00\x00\x80?\x00\x00\x80?\x00\x00\x80?\x00\x00\x80?\x00\x00\x00\x00\x00\x00\x80?\x00\x00\x80?\x00\x00\x80?'
S'\x00\x00\x00\x00\x00\x00\x00\x00\x00\x00\x00\x00\x00\x00\x00\x00\x00\x00'
Ntbsg19
g1510
(g1511
(I0
tS'b'
tRp1984
(I1
(I18
I1
tg1514
I00
(lp1985
g1350
ag1391
ag1451
ag1460
ag1418
ag1382
ag1484
ag1360
ag1400
ag1434
ag1492
ag1442
ag1476
ag1332
ag1409
ag1426
ag1468
ag1370
atbsg23
g1525
(g1526
g1511
g1527
S'b'
tRp1986
(I1
(I18
I1
tg1529
I00
S'\x04E @4\xc78@ \x1a\x80@\xa9:K@~\xd1\xb1@\xf3e\r@\x18\xf9\xd0@{\x92<@\x96|\xbe@\x06NP@Y(\x01A$5\x82@c\x15 Ai*\x92@\x00\x00\x00\x00iT\xaf@5\xc4fA\xb2\xc3\x9d@'
S'\x00\x00\x00\x00\x00\x00\x00\x00\x00\x00\x00\x00\x00\x00\x01\x00\x00\x00'
Ntbsg1524
g1525
(g1526
g1511
g1527
S'b'
tRp1987
(I1
(I18
I1
tg1529
I00
S'\x00\x00\x80?\x00\x00\x80?\x00\x00\x80?\x00\x00\x80?\x00\x00\x80?\x00\x00\x80?\x00\x00\x80?\x00\x00\x80?\x00\x00\x80?\x00\x00\x80?\x00\x00\x80?\x00\x00\x80?\x00\x00\x80?\x00\x00\x80?\x00\x00\x80?\x00\x00\x80?\x00\x00\x80?\x00\x00\x80?'
S'\x00\x00\x00\x00\x00\x00\x00\x00\x00\x00\x00\x00\x00\x00\x00\x00\x00\x00'
Ntbsg21
g1510
(g1511
(I0
tS'b'
tRp1988
(I1
(I18
I1
tg1514
I00
(lp1989
S'7'
aS'2'
aS'8'
aS'8'
aS'4'
aS'4'
aS'9'
aS'2'
aS'5'
aS'1'
aS'2'
aS'8'
aS'3'
aS'4'
aNaS'6'
aS'8'
aS'3'
atbsg1539
g1525
(g1526
g1511
g1527
S'b'
tRp1990
(I1
(I18
I1
tg1529
I00
S'\x00\x00\x80?\x00\x00\xa0@\x00\x00@A\x00\x00PA\x00\x00\x00A\x00\x00\x80@\x00\x00\x80A\x00\x00\x00@\x00\x00\xc0@\x00\x00 A\x00\x00\x88A\x00\x000A\x00\x00pA\x00\x00\x00\x00\x00\x00\xe0@\x00\x00\x10A\x00\x00`A\x00\x00@@'
S'\x00\x00\x00\x00\x00\x00\x00\x00\x00\x00\x00\x00\x00\x00\x00\x00\x00\x00'
Ntbsg20
g1525
(g1526
g1511
g1527
S'b'
tRp1991
(I1
(I18
I1
tg1529
I00
S'\x96\xc3\x9b?\xba#\xbb?\x8e)\xd1?L\x08\x8e?\xb0xZ@z;F@\xf3s\n@\xcb\x12\xe2?\x9b;Q@\x00N\x0e@g\xf4\x8f@\xf6\xcco@\xbe\x9e\xbc@U\x83N@\x93\xf4k@\x1c\xeb\xb4@\xa7\xa2\xaa@\xee\x1bx@'
S'\x00\x00\x00\x00\x00\x00\x00\x00\x00\x00\x00\x00\x00\x00\x00\x00\x00\x00'
NtbstRp1992
(dp1993
g1544
(dp1994
g1524
I01
sg21
I00
sg20
I01
sg22
I01
sg19
I00
sg23
I01
sg1539
I01
ssg1546
g1979
sg1547
(lp1995
g1524
ag1539
ag19
ag20
ag21
ag22
ag23
asg1549
(lp1996
I18
aI1
asbsg1551
g1552
sg1553
g1510
(g1511
(I0
tS'b'
tRp1997
(I1
(I18
I1
tg1514
I00
(lp1998
I13
aI0
aI7
aI17
aI5
aI1
aI8
aI14
aI4
aI15
aI9
aI11
aI2
aI3
aI16
aI12
aI6
aI10
atbsg1556
I01
sg1557
I1
sg1558
I-1
sg1559
(lp1999
g1
(g1561
g1508
(dp2000
g1325
g1348
sVY
L6L
sg1327
L2L
sg1328
g1349
sg1336
L7L
sg1333
L7L
sg1334
g1339
sVX
L3L
sg1330
L0L
sg1338
g1352
sg1340
L0L
sg1342
g1353
stRp2001
ag1
(g1561
g1508
(dp2002
g1325
g1389
sVY
L4L
sg1327
L2L
sg1328
g1390
sg1336
L2L
sg1333
L2L
sg1334
g1341
sVX
L5L
sg1330
L0L
sg1338
g1361
sg1340
L0L
sg1342
g1353
stRp2003
ag1
(g1561
g1508
(dp2004
g1325
g1449
sVY
L2L
sg1327
L2L
sg1328
g1450
sg1336
L8L
sg1333
L8L
sg1334
g1352
sVX
L2L
sg1330
L0L
sg1338
g1381
sg1340
L0L
sg1342
g1453
stRp2005
ag1
(g1561
g1508
(dp2006
g1325
g1458
sVY
L2L
sg1327
L2L
sg1328
g1459
sg1336
L8L
sg1333
L8L
sg1334
g1335
sVX
L2L
sg1330
L0L
sg1338
g1381
sg1340
L0L
sg1342
g1453
stRp2007
ag1
(g1561
g1508
(dp2008
g1325
g1416
sVY
L3L
sg1327
L3L
sg1328
g1417
sg1336
L4L
sg1333
L4L
sg1334
g1373
sVX
L8L
sg1330
g1331
sg1338
g1399
sg1340
L0L
sg1342
g1384
stRp2009
ag1
(g1561
g1508
(dp2010
g1325
g1379
sVY
L2L
sg1327
L3L
sg1328
g1380
sg1336
L4L
sg1333
L4L
sg1334
g1339
sVX
L3L
sg1330
g1381
sg1338
g1335
sg1340
L0L
sg1342
g1384
stRp2011
ag1
(g1561
g1508
(dp2012
g1325
g1482
sVY
L2L
sg1327
L3L
sg1328
g1483
sg1336
L9L
sg1333
L9L
sg1334
g1352
sVX
L2L
sg1330
g1373
sg1338
g1341
sg1340
L0L
sg1342
g1363
stRp2013
ag1
(g1561
g1508
(dp2014
g1325
g1358
sVY
L2L
sg1327
L3L
sg1328
g1359
sg1336
L2L
sg1333
L2L
sg1334
g1361
sVX
L9L
sg1330
g1339
sg1338
g1341
sg1340
L0L
sg1342
g1363
stRp2015
ag1
(g1561
g1508
(dp2016
g1325
g1397
sVY
L4L
sg1327
L3L
sg1328
g1398
sg1336
L5L
sg1333
L5L
sg1334
g1373
sVX
L8L
sg1330
g1399
sg1338
g1371
sg1340
L0L
sg1342
g1402
stRp2017
ag1
(g1561
g1508
(dp2018
g1325
g1432
sVY
L6L
sg1327
L3L
sg1328
g1433
sg1336
L1L
sg1333
L1L
sg1334
g1341
sVX
L8L
sg1330
g1361
sg1338
g1339
sg1340
L0L
sg1342
g1402
stRp2019
ag1
(g1561
g1508
(dp2020
g1325
g1490
sVY
L3L
sg1327
L4L
sg1328
g1491
sg1336
L2L
sg1333
L2L
sg1334
g1381
sVX
L6L
sg1330
g1341
sg1338
g1399
sg1340
g1339
sg1342
g1444
stRp2021
ag1
(g1561
g1508
(dp2022
g1325
g1440
sVY
L2L
sg1327
L4L
sg1328
g1441
sg1336
L8L
sg1333
L8L
sg1334
g1341
sVX
L2L
sg1330
g1331
sg1338
g1335
sg1340
g1373
sg1342
g1444
stRp2023
ag1
(g1561
g1508
(dp2024
g1325
g1474
sVY
L3L
sg1327
L4L
sg1328
g1475
sg1336
L3L
sg1333
L3L
sg1334
g1399
sVX
L4L
sg1330
g1373
sg1338
g1341
sg1340
g1331
sg1342
g1343
stRp2025
ag1
(g1561
g1508
(dp2026
g1325
g1326
sVY
L3L
sg1327
L4L
sg1328
g1329
sg1336
L4L
sg1333
L4L
sg1334
g1335
sVX
L7L
sg1330
g1331
sg1338
g1339
sg1340
g1341
sg1342
g1343
stRp2027
ag1
(g1561
g1508
(dp2028
g1325
g1407
sVY
L4L
sg1327
L4L
sg1328
g1408
sg1336
L7L
sg1333
L7L
sg1334
g1341
sVX
L8L
sg1330
g1352
sg1338
g1339
sg1340
g1381
sg1342
g1411
stRp2029
ag1
(g1561
g1508
(dp2030
g1325
g1424
sVY
L3L
sg1327
L4L
sg1328
g1425
sg1336
L6L
sg1333
L6L
sg1334
g1381
sVX
L5L
sg1330
g1361
sg1338
g1373
sg1340
g1371
sg1342
g1411
stRp2031
ag1
(g1561
g1508
(dp2032
g1325
g1466
sVY
L2L
sg1327
L4L
sg1328
g1467
sg1336
L8L
sg1333
L8L
sg1334
g1373
sVX
L4L
sg1330
g1331
sg1338
g1371
sg1340
g1352
sg1342
g1374
stRp2033
ag1
(g1561
g1508
(dp2034
g1325
g1368
sVY
L5L
sg1327
L4L
sg1328
g1369
sg1336
L3L
sg1333
L3L
sg1334
g1371
sVX
L9L
sg1330
g1331
sg1338
g1373
sg1340
g1361
sg1342
g1374
stRp2035
asg1574
Nsg1575
I10
sg1576
I18
sg1577
I0
sg1578
I18
sbasS'savePickle'
p2036
I00
sb.