ccopy_reg
_reconstructor
p1
(cpsychopy.data
ExperimentHandler
p2
c__builtin__
object
p3
NtRp4
(dp5
S'originPath'
p6
NsS'dataFileName'
p7
VC:\u005cUsers\u005cexperimenter\u005cDesktop\u005cExperiments\u005cKRITL\u005cdata/31057_KRITL_2017_May_26_0943
p8
sS'runtimeInfo'
p9
NsS'name'
p10
S'KRITL'
p11
sS'dataNames'
p12
(lp13
S'practice_encoding.keys'
p14
aS'practice_execution.keys'
p15
aS'practice_execution.corr'
p16
aS'practice_execution.rt'
p17
aS'practice_encoding.rt'
p18
aS'encoding.keys'
p19
aS'execution.keys'
p20
aS'execution.corr'
p21
aS'encoding.rt'
p22
aS'execution.rt'
p23
asS'autoLog'
p24
I01
sS'extraInfo'
p25
(dp26
S'date'
p27
V2017_May_26_0943
p28
sS'frameRate'
p29
cnumpy.core.multiarray
scalar
p30
(cnumpy
dtype
p31
(S'f8'
I0
I1
tRp32
(I3
S'<'
NNNI-1
I-1
I0
tbS'\xf7\x9e\x98\xb5\xd9\x17p@'
tRp33
sS'expName'
p34
g11
sVsession
p35
V004
p36
sVparticipant
p37
V31057
p38
ssS'loopsUnfinished'
p39
(lp40
sS'saveWideText'
p41
I00
sS'thisEntry'
p42
(dp43
sS'version'
p44
S''
sS'_paramNamesSoFar'
p45
(lp46
Voperationc
p47
aVoperationb
p48
aVoperationa
p49
aVcorrectresponse
p50
aVvaluey
p51
aVoperationd
p52
aVcondition
p53
aVvaluex
p54
aVRule
p55
aVOperatora
p56
aVLength
p57
aVIntermediate
p58
aVCorrectResponse
p59
aVResult
p60
aVY
aVX
aVOperatorc
p61
aVOperatorb
p62
aVOperatord
p63
aVStructure
p64
asS'entries'
p65
(lp66
(dp67
g35
g36
sg47
Vincrease
p68
sg27
g28
sg15
S'3'
sg17
F4.9412689839955419
sg14
Nsg53
I3
sg49
Vtriple
p69
sg29
g33
sg16
I1
sS'practice_trials.thisN'
p70
I0
sg48
VDIVIDE
p71
sS'practice_trials.thisIndex'
p72
I4
sg34
g11
sg50
I3
sS'practice_trials.thisTrialN'
p73
I0
sg52
I0
sS'practice_trials.thisRepN'
p74
I0
sg37
g38
sg51
I3
sg54
I2
sa(dp75
g17
F2.0178452755790204
sg29
g33
sg16
I1
sg47
I0
sg48
VADD
p76
sg49
Vhalf
p77
sg35
g36
sg50
I7
sS'practice_trials.thisTrialN'
p78
I1
sg52
I0
sS'practice_trials.thisRepN'
p79
I0
sg37
g38
sg53
I2
sg27
g28
sg15
S'7'
sg14
(lp80
S'space'
p81
asS'practice_trials.thisIndex'
p82
I2
sS'practice_trials.thisN'
p83
I1
sg34
g11
sg18
(lp84
F13.479573577875271
asg51
I5
sg54
I4
sa(dp85
g17
F5.0004514511674643
sg29
g33
sg16
I1
sg47
g68
sg48
g71
sg49
Vdouble
p86
sg35
g36
sg50
I9
sS'practice_trials.thisTrialN'
p87
I2
sg52
g69
sS'practice_trials.thisRepN'
p88
I0
sg37
g38
sg53
I4
sg27
g28
sg15
S'9'
sg14
(lp89
S'space'
p90
asS'practice_trials.thisIndex'
p91
I5
sS'practice_trials.thisN'
p92
I2
sg34
g11
sg18
(lp93
F17.800611454062164
asg51
I8
sg54
I8
sa(dp94
g17
F1.7788623499218374
sg29
g33
sg16
I1
sg47
I0
sg48
Vdecrease
p95
sg49
VTIMES
p96
sg35
g36
sg50
I8
sS'practice_trials.thisTrialN'
p97
I3
sg52
I0
sS'practice_trials.thisRepN'
p98
I0
sg37
g38
sg53
I2
sg27
g28
sg15
S'8'
sg14
(lp99
S'space'
p100
asS'practice_trials.thisIndex'
p101
I1
sS'practice_trials.thisN'
p102
I3
sg34
g11
sg18
(lp103
F3.8675868806894869
asg51
I3
sg54
I3
sa(dp104
g17
F1.1886436548084021
sg29
g33
sg16
I1
sg47
I0
sg48
g76
sg49
g95
sg35
g36
sg50
I7
sS'practice_trials.thisTrialN'
p105
I4
sg52
I0
sS'practice_trials.thisRepN'
p106
I0
sg37
g38
sg53
I2
sg27
g28
sg15
S'7'
sg14
(lp107
S'space'
p108
asS'practice_trials.thisIndex'
p109
I0
sS'practice_trials.thisN'
p110
I4
sg34
g11
sg18
(lp111
F3.4704080664087087
asg51
I5
sg54
I3
sa(dp112
g35
g36
sg47
g76
sg27
g28
sg15
S'7'
sg17
F10.241539049893618
sg14
Nsg53
I3
sg49
g77
sg29
g33
sg16
I0
sS'practice_trials.thisN'
p113
I5
sg48
Vtriple 
p114
sS'practice_trials.thisIndex'
p115
I3
sg34
g11
sg50
I8
sS'practice_trials.thisTrialN'
p116
I5
sg52
I0
sS'practice_trials.thisRepN'
p117
I0
sg37
g38
sg51
I2
sg54
I4
sa(dp118
S'block.thisTrialN'
p119
I0
sS'block.thisRepN'
p120
I0
sg29
g33
sS'block.thisN'
p121
I0
sg55
(S'THIRD'
S'HALF'
S'INCREASE'
S'SUBTRACT'
S'x'
S'y'
tp122
sg27
g28
sg57
I4
sg58
(I5
I6
I3
I1
tp123
sg21
I0
sVY
I2
sVX
I7
sg61
Vincrease
p124
sg35
g36
sg37
g38
sg20
Nsg19
Nsg34
g11
sg60
I1
sg56
Vhalf
p125
sg59
I1
sS'block.thisIndex'
p126
I17
sg62
Vthird
p127
sg63
VSUBTRACT
p128
sg64
VUUUBxy
p129
sa(dp130
S'block.thisTrialN'
p131
I1
sS'block.thisRepN'
p132
I0
sg29
g33
sS'block.thisN'
p133
I1
sg55
(S'DOUBLE'
S'THIRD'
S'ADD'
S'x'
S'y'
tp134
sg27
g28
sg57
I3
sg58
(I9
I3
I6
tp135
sg21
I0
sg22
F6.2328865833114833
sVY
I4
sVX
I5
sg61
VADD
p136
sg35
g36
sg37
g38
sg20
Nsg19
S'space'
p137
sg34
g11
sg60
I6
sg56
g127
sg59
I6
sS'block.thisIndex'
p138
I8
sg62
Vdouble
p139
sg63
I0
sg64
VUUBxy
p140
sa(dp141
S'block.thisTrialN'
p142
I2
sS'block.thisRepN'
p143
I0
sg29
g33
sS'block.thisN'
p144
I2
sg55
(S'DOUBLE'
S'SUBTRACT'
S'INCREASE'
S'x'
S'y'
tp145
sg27
g28
sg57
I3
sg58
(I4
I1
I2
tp146
sg21
I1
sg22
F7.5398349789902568
sg23
F3.6177222286351025
sVY
I3
sVX
I3
sg61
g124
sg35
g36
sg37
g38
sg20
S'2'
sg19
S'space'
p147
sg34
g11
sg60
I2
sg56
g128
sg59
I2
sS'block.thisIndex'
p148
I6
sg62
g139
sg63
I0
sg64
VUBUxy
p149
sa(dp150
S'block.thisTrialN'
p151
I3
sS'block.thisRepN'
p152
I0
sg29
g33
sS'block.thisN'
p153
I3
sg55
(S'DECREASE'
S'DOUBLE'
S'TIMES'
S'THIRD'
S'x'
S'y'
tp154
sg27
g28
sg57
I4
sg58
(I1
I3
I6
I5
tp155
sg21
I1
sg22
F17.782588747795671
sg23
F4.7698021768592298
sVY
I3
sVX
I3
sg61
VTIMES
p156
sg35
g36
sg37
g38
sg20
S'5'
sg19
S'space'
p157
sg34
g11
sg60
I5
sg56
g139
sg59
I5
sS'block.thisIndex'
p158
I14
sg62
Vdecrease
p159
sg63
g127
sg64
VUUBUxy
p160
sa(dp161
S'block.thisTrialN'
p162
I4
sS'block.thisRepN'
p163
I0
sg29
g33
sS'block.thisN'
p164
I4
sg55
(S'INCREASE'
S'ADD'
S'HALF'
S'x'
S'y'
tp165
sg27
g28
sg57
I3
sg58
(I1
I4
I5
tp166
sg21
I1
sg22
F8.965482872677967
sg23
F2.5509088344406337
sVY
I3
sVX
I2
sg61
g125
sg35
g36
sg37
g38
sg20
S'5'
sg19
S'space'
p167
sg34
g11
sg60
I5
sg56
g136
sg59
I5
sS'block.thisIndex'
p168
I7
sg62
g124
sg63
I0
sg64
g149
sa(dp169
S'block.thisTrialN'
p170
I5
sS'block.thisRepN'
p171
I0
sg29
g33
sS'block.thisN'
p172
I5
sg55
(S'ADD'
S'TRIPLE'
S'DOUBLE'
S'DECREASE'
S'x'
S'y'
tp173
sg27
g28
sg57
I4
sg58
(I1
I2
I6
I8
tp174
sg21
I0
sVY
I2
sVX
I2
sg61
g139
sg35
g36
sg37
g38
sg20
Nsg19
Nsg34
g11
sg60
I8
sg56
Vtriple
p175
sg59
I8
sS'block.thisIndex'
p176
I11
sg62
g136
sg63
g159
sg64
VBUUUxy
p177
sa(dp178
S'block.thisTrialN'
p179
I6
sS'block.thisRepN'
p180
I0
sg29
g33
sS'block.thisN'
p181
I6
sg55
(S'DECREASE'
S'TRIPLE'
S'SUBTRACT'
S'DOUBLE'
S'x'
S'y'
tp182
sg27
g28
sg57
I4
sg58
(I6
I3
I9
I8
tp183
sg21
I1
sg22
F8.4162031125742942
sg23
F4.2606196922715753
sVY
I3
sVX
I3
sg61
g128
sg35
g36
sg37
g38
sg20
S'8'
sg19
S'space'
p184
sg34
g11
sg60
I8
sg56
g175
sg59
I8
sS'block.thisIndex'
p185
I15
sg62
g159
sg63
g139
sg64
g160
sa(dp186
S'block.thisTrialN'
p187
I7
sS'block.thisRepN'
p188
I0
sg29
g33
sS'block.thisN'
p189
I7
sg55
(S'DECREASE'
S'ADD'
S'THIRD'
S'HALF'
S'x'
S'y'
tp190
sg27
g28
sg57
I4
sg58
(I3
I1
I7
I6
tp191
sg21
I1
sg22
F15.904851911589503
sg23
F5.7199867994058877
sVY
I6
sVX
I6
sg61
g127
sg35
g36
sg37
g38
sg20
S'6'
sg19
S'space'
p192
sg34
g11
sg60
I6
sg56
g136
sg59
I6
sS'block.thisIndex'
p193
I12
sg62
g159
sg63
g125
sg64
VUBUUxy
p194
sa(dp195
S'block.thisTrialN'
p196
I8
sS'block.thisRepN'
p197
I0
sg29
g33
sS'block.thisN'
p198
I8
sg55
(S'HALF'
S'ADD'
S'x'
S'y'
tp199
sg27
g28
sg57
I2
sg58
(I12
I6
tp200
sg21
I1
sg22
F3.7808070899918675
sg23
F5.0302643859758973
sVY
I8
sVX
I4
sg61
I0
sg35
g36
sg37
g38
sg20
S'6'
sg19
S'space'
p201
sg34
g11
sg60
I6
sg56
g136
sg59
I6
sS'block.thisIndex'
p202
I3
sg62
g125
sg63
I0
sg64
VUBxy
p203
sa(dp204
S'block.thisTrialN'
p205
I9
sS'block.thisRepN'
p206
I0
sg29
g33
sS'block.thisN'
p207
I9
sg55
(S'ADD'
S'DECREASE'
S'x'
S'y'
tp208
sg27
g28
sg57
I2
sg58
(I2
I7
tp209
sg21
I1
sg22
F3.4783781068399549
sg23
F1.9241792771499604
sVY
I5
sVX
I3
sg61
I0
sg35
g36
sg37
g38
sg20
S'7'
sg19
S'space'
p210
sg34
g11
sg60
I7
sg56
g159
sg59
I7
sS'block.thisIndex'
p211
I0
sg62
g136
sg63
I0
sg64
VBUxy
p212
sa(dp213
S'block.thisTrialN'
p214
I10
sS'block.thisRepN'
p215
I0
sg29
g33
sS'block.thisN'
p216
I10
sg55
(S'DECREASE'
S'TIMES'
S'x'
S'y'
tp217
sg27
g28
sg57
I2
sg58
(I9
I8
tp218
sg21
I1
sg22
F2.6242703723255545
sg23
F1.3006340265274048
sVY
I3
sVX
I3
sg61
I0
sg35
g36
sg37
g38
sg20
S'8'
sg19
S'space'
p219
sg34
g11
sg60
I8
sg56
g156
sg59
I8
sS'block.thisIndex'
p220
I2
sg62
g159
sg63
I0
sg64
g203
sa(dp221
S'block.thisTrialN'
p222
I11
sS'block.thisRepN'
p223
I0
sg29
g33
sS'block.thisN'
p224
I11
sg55
(S'ADD'
S'DOUBLE'
S'DECREASE'
S'x'
S'y'
tp225
sg27
g28
sg57
I3
sg58
(I1
I2
I7
tp226
sg21
I1
sg22
F8.0228255882393569
sg23
F2.4354254892095923
sVY
I5
sVX
I2
sg61
g159
sg35
g36
sg37
g38
sg20
S'7'
sg19
S'space'
p227
sg34
g11
sg60
I7
sg56
g139
sg59
I7
sS'block.thisIndex'
p228
I4
sg62
g136
sg63
I0
sg64
VBUUxy
p229
sa(dp230
S'block.thisTrialN'
p231
I12
sS'block.thisRepN'
p232
I0
sg29
g33
sS'block.thisN'
p233
I12
sg55
(S'DECREASE'
S'SUBTRACT'
S'DOUBLE'
S'THIRD'
S'x'
S'y'
tp234
sg27
g28
sg57
I4
sg58
(I3
I6
I4
I3
tp235
sg21
I1
sg22
F15.829937241273001
sg23
F4.7915817280299962
sVY
I2
sVX
I9
sg61
g139
sg35
g36
sg37
g38
sg20
S'3'
sg19
S'space'
p236
sg34
g11
sg60
I3
sg56
g128
sg59
I3
sS'block.thisIndex'
p237
I13
sg62
g159
sg63
g127
sg64
g194
sa(dp238
S'block.thisTrialN'
p239
I13
sS'block.thisRepN'
p240
I0
sg29
g33
sS'block.thisN'
p241
I13
sg55
(S'ADD'
S'TRIPLE'
S'HALF'
S'x'
S'y'
tp242
sg27
g28
sg57
I3
sg58
(I2
I6
I8
tp243
sg21
I1
sg22
F7.0903910514898598
sg23
F5.1735077870544046
sVY
I2
sVX
I4
sg61
g125
sg35
g36
sg37
g38
sg20
S'8'
sg19
S'space'
p244
sg34
g11
sg60
I8
sg56
g175
sg59
I8
sS'block.thisIndex'
p245
I5
sg62
g136
sg63
I0
sg64
g229
sa(dp246
S'block.thisTrialN'
p247
I14
sS'block.thisRepN'
p248
I0
sg29
g33
sS'block.thisN'
p249
I14
sg55
(S'INCREASE'
S'HALF'
S'THIRD'
S'TIMES'
S'x'
S'y'
tp250
sg27
g28
sg57
I4
sg58
(I12
I4
I2
I3
tp251
sg21
I1
sg22
F7.4105725698173046
sg23
F8.4498992282897234
sVY
I4
sVX
I3
sg61
g127
sg35
g36
sg37
g38
sg20
S'3'
sg19
S'space'
p252
sg34
g11
sg60
I3
sg56
g125
sg59
I3
sS'block.thisIndex'
p253
I16
sg62
g124
sg63
g156
sg64
g129
sa(dp254
S'block.thisTrialN'
p255
I15
sS'block.thisRepN'
p256
I0
sg29
g33
sS'block.thisN'
p257
I15
sg55
(S'HALF'
S'INCREASE'
S'TIMES'
S'x'
S'y'
tp258
sg27
g28
sg57
I3
sg58
(I9
I10
I5
tp259
sg21
I1
sg22
F3.6217205473221838
sg23
F2.7363905801903456
sVY
I3
sVX
I3
sg61
g156
sg35
g36
sg37
g38
sg20
S'5'
sg19
S'space'
p260
sg34
g11
sg60
I5
sg56
g124
sg59
I5
sS'block.thisIndex'
p261
I9
sg62
g125
sg63
I0
sg64
g140
sa(dp262
S'block.thisTrialN'
p263
I16
sS'block.thisRepN'
p264
I0
sg29
g33
sS'block.thisN'
p265
I16
sg55
(S'ADD'
S'DECREASE'
S'THIRD'
S'DOUBLE'
S'x'
S'y'
tp266
sg27
g28
sg57
I4
sg58
(I18
I6
I5
I9
tp267
sg21
I1
sg22
F12.499709356343374
sg23
F16.565163847291842
sVY
I4
sVX
I9
sg61
g127
sg35
g36
sg37
g38
sg20
S'9'
sg19
S'space'
p268
sg34
g11
sg60
I9
sg56
g159
sg59
I9
sS'block.thisIndex'
p269
I10
sg62
g136
sg63
g139
sg64
g177
sa(dp270
S'block.thisTrialN'
p271
I17
sS'block.thisRepN'
p272
I0
sg29
g33
sS'block.thisN'
p273
I17
sg55
(S'DIVIDE'
S'DECREASE'
S'x'
S'y'
tp274
sg27
g28
sg57
I2
sg58
(I8
I2
tp275
sg21
I1
sg22
F3.4922632093075663
sg23
F1.7610597696620971
sVY
I4
sVX
I9
sg61
I0
sg35
g36
sg37
g38
sg20
S'2'
sg19
S'space'
p276
sg34
g11
sg60
I2
sg56
g159
sg59
I2
sS'block.thisIndex'
p277
I1
sg62
VDIVIDE
p278
sg63
I0
sg64
g212
sa(dp279
S'block.thisTrialN'
p280
I0
sS'block.thisRepN'
p281
I0
sg29
g33
sS'block.thisN'
p282
I0
sVRule
p283
(S'HALF'
S'SUBTRACT'
S'DECREASE'
S'TRIPLE'
S'x'
S'y'
tp284
sg27
g28
sVLength
p285
I4
sVIntermediate
p286
(I15
I14
I10
I5
tp287
sg21
I0
sg22
F19.113457763567567
sVY
I4
sVX
I5
sVOperatorc
p288
Vdecrease
p289
sg35
g36
sg37
g38
sg20
Nsg19
S'space'
p290
sg34
g11
sVResult
p291
I5
sVOperatora
p292
VSUBTRACT
p293
sVCorrectResponse
p294
I5
sS'block.thisIndex'
p295
I12
sVOperatorb
p296
Vhalf
p297
sVOperatord
p298
Vtriple
p299
sVStructure
p300
VUBUUxy
p301
sa(dp302
S'block.thisTrialN'
p303
I1
sS'block.thisRepN'
p304
I0
sg29
g33
sS'block.thisN'
p305
I1
sg283
(S'INCREASE'
S'DIVIDE'
S'TRIPLE'
S'x'
S'y'
tp306
sg27
g28
sg285
I3
sg286
(I6
I2
I3
tp307
sg21
I1
sg22
F4.7598954453133047
sg23
F3.2371809701435268
sVY
I3
sVX
I2
sg288
g299
sg35
g36
sg37
g38
sg20
S'3'
sg19
S'space'
p308
sg34
g11
sg291
I3
sg292
VDIVIDE
p309
sg294
I3
sS'block.thisIndex'
p310
I7
sg296
Vincrease
p311
sg298
I0
sg300
VUBUxy
p312
sa(dp313
S'block.thisTrialN'
p314
I2
sS'block.thisRepN'
p315
I0
sg29
g33
sS'block.thisN'
p316
I2
sg283
(S'DIVIDE'
S'DOUBLE'
S'INCREASE'
S'TRIPLE'
S'x'
S'y'
tp317
sg27
g28
sg285
I4
sg286
(I9
I10
I20
I5
tp318
sg21
I1
sg22
F16.59727638377808
sg23
F16.996466781012714
sVY
I4
sVX
I3
sg288
g311
sg35
g36
sg37
g38
sg20
S'5'
sg19
S'space'
p319
sg34
g11
sg291
I5
sg292
Vdouble
p320
sg294
I5
sS'block.thisIndex'
p321
I10
sg296
g309
sg298
g299
sg300
VBUUUxy
p322
sa(dp323
S'block.thisTrialN'
p324
I3
sS'block.thisRepN'
p325
I0
sg29
g33
sS'block.thisN'
p326
I3
sg283
(S'INCREASE'
S'TIMES'
S'TRIPLE'
S'HALF'
S'x'
S'y'
tp327
sg27
g28
sg285
I4
sg286
(I1
I3
I6
I7
tp328
sg21
I0
sg22
F16.32374798390083
sg23
F15.699377872049809
sVY
I2
sVX
I2
sg288
g299
sg35
g36
sg37
g38
sg20
S'5'
sg19
S'space'
p329
sg34
g11
sg291
I7
sg292
VTIMES
p330
sg294
I7
sS'block.thisIndex'
p331
I13
sg296
g311
sg298
g297
sg300
g301
sa(dp332
S'block.thisTrialN'
p333
I4
sS'block.thisRepN'
p334
I0
sg29
g33
sS'block.thisN'
p335
I4
sg283
(S'DECREASE'
S'THIRD'
S'DOUBLE'
S'ADD'
S'x'
S'y'
tp336
sg27
g28
sg285
I4
sg286
(I9
I18
I6
I5
tp337
sg21
I1
sg22
F14.320979782380164
sg23
F4.919401942519471
sVY
I4
sVX
I5
sg288
g320
sg35
g36
sg37
g38
sg20
S'5'
sg19
S'space'
p338
sg34
g11
sg291
I5
sg292
Vthird
p339
sg294
I5
sS'block.thisIndex'
p340
I16
sg296
g289
sg298
VADD
p341
sg300
VUUUBxy
p342
sa(dp343
S'block.thisTrialN'
p344
I5
sS'block.thisRepN'
p345
I0
sg29
g33
sS'block.thisN'
p346
I5
sg283
(S'SUBTRACT'
S'TRIPLE'
S'x'
S'y'
tp347
sg27
g28
sg285
I2
sg286
(I12
I9
tp348
sg21
I1
sg22
F4.2921267941128463
sg23
F2.4683730360120535
sVY
I3
sVX
I4
sg288
I0
sg35
g36
sg37
g38
sg20
S'9'
sg19
S'space'
p349
sg34
g11
sg291
I9
sg292
g299
sg294
I9
sS'block.thisIndex'
p350
I1
sg296
g293
sg298
I0
sg300
VBUxy
p351
sa(dp352
S'block.thisTrialN'
p353
I6
sS'block.thisRepN'
p354
I0
sg29
g33
sS'block.thisN'
p355
I6
sg283
(S'SUBTRACT'
S'INCREASE'
S'HALF'
S'x'
S'y'
tp356
sg27
g28
sg285
I3
sg286
(I4
I5
I3
tp357
sg21
I1
sg22
F14.00831265328452
sg23
F3.7125035563949496
sVY
I2
sVX
I8
sg288
g297
sg35
g36
sg37
g38
sg20
S'3'
sg19
S'space'
p358
sg34
g11
sg291
I3
sg292
g311
sg294
I3
sS'block.thisIndex'
p359
I5
sg296
g293
sg298
I0
sg300
VBUUxy
p360
sa(dp361
S'block.thisTrialN'
p362
I7
sS'block.thisRepN'
p363
I0
sg29
g33
sS'block.thisN'
p364
I7
sg283
(S'TRIPLE'
S'INCREASE'
S'SUBTRACT'
S'x'
S'y'
tp365
sg27
g28
sg285
I3
sg286
(I1
I2
I6
tp366
sg21
I1
sg22
F3.6847043046727777
sg23
F2.0867822405416518
sVY
I2
sVX
I3
sg288
g293
sg35
g36
sg37
g38
sg20
S'6'
sg19
S'space'
p367
sg34
g11
sg291
I6
sg292
g311
sg294
I6
sS'block.thisIndex'
p368
I9
sg296
g299
sg298
I0
sg300
VUUBxy
p369
sa(dp370
S'block.thisTrialN'
p371
I8
sS'block.thisRepN'
p372
I0
sg29
g33
sS'block.thisN'
p373
I8
sg283
(S'HALF'
S'TIMES'
S'DECREASE'
S'x'
S'y'
tp374
sg27
g28
sg285
I3
sg286
(I8
I16
I8
tp375
sg21
I1
sg22
F3.7986733629368246
sg23
F11.621690100757405
sVY
I2
sVX
I9
sg288
g289
sg35
g36
sg37
g38
sg20
S'8'
sg19
S'space'
p376
sg34
g11
sg291
I8
sg292
g330
sg294
I8
sS'block.thisIndex'
p377
I6
sg296
g297
sg298
I0
sg300
g312
sa(dp378
S'block.thisTrialN'
p379
I9
sS'block.thisRepN'
p380
I0
sg29
g33
sS'block.thisN'
p381
I9
sg283
(S'THIRD'
S'INCREASE'
S'HALF'
S'TIMES'
S'x'
S'y'
tp382
sg27
g28
sg285
I4
sg286
(I28
I14
I15
I5
tp383
sg21
I1
sg22
F10.839386922307312
sg23
F9.23504130076617
sVY
I4
sVX
I7
sg288
g297
sg35
g36
sg37
g38
sg20
S'5'
sg19
S'space'
p384
sg34
g11
sg291
I5
sg292
g311
sg294
I5
sS'block.thisIndex'
p385
I17
sg296
g339
sg298
g330
sg300
g342
sa(dp386
S'block.thisTrialN'
p387
I10
sS'block.thisRepN'
p388
I0
sg29
g33
sS'block.thisN'
p389
I10
sg283
(S'TRIPLE'
S'INCREASE'
S'DIVIDE'
S'DOUBLE'
S'x'
S'y'
tp390
sg27
g28
sg285
I4
sg286
(I16
I2
I3
I9
tp391
sg21
I0
sg22
F14.90401025232859
sg23
F16.771716120420024
sVY
I8
sVX
I8
sg288
g309
sg35
g36
sg37
g38
sg20
S'3'
sg19
S'space'
p392
sg34
g11
sg291
I9
sg292
g311
sg294
I9
sS'block.thisIndex'
p393
I15
sg296
g299
sg298
g320
sg300
VUUBUxy
p394
sa(dp395
S'block.thisTrialN'
p396
I11
sS'block.thisRepN'
p397
I0
sg29
g33
sS'block.thisN'
p398
I11
sg283
(S'INCREASE'
S'DIVIDE'
S'x'
S'y'
tp399
sg27
g28
sg285
I2
sg286
(I4
I5
tp400
sg21
I1
sg22
F2.9950672818813473
sg23
F1.927339086541906
sVY
I2
sVX
I8
sg288
I0
sg35
g36
sg37
g38
sg20
S'5'
sg19
S'space'
p401
sg34
g11
sg291
I5
sg292
g309
sg294
I5
sS'block.thisIndex'
p402
I3
sg296
g311
sg298
I0
sg300
VUBxy
p403
sa(dp404
S'block.thisTrialN'
p405
I12
sS'block.thisRepN'
p406
I0
sg29
g33
sS'block.thisN'
p407
I12
sg283
(S'ADD'
S'HALF'
S'x'
S'y'
tp408
sg27
g28
sg285
I2
sg286
(I2
I7
tp409
sg21
I1
sg22
F2.2949999843258411
sg23
F1.4304108801297843
sVY
I5
sVX
I4
sg288
I0
sg35
g36
sg37
g38
sg20
S'7'
sg19
S'space'
p410
sg34
g11
sg291
I7
sg292
g297
sg294
I7
sS'block.thisIndex'
p411
I0
sg296
g341
sg298
I0
sg300
g351
sa(dp412
S'block.thisTrialN'
p413
I13
sS'block.thisRepN'
p414
I0
sg29
g33
sS'block.thisN'
p415
I13
sg283
(S'TRIPLE'
S'HALF'
S'ADD'
S'x'
S'y'
tp416
sg27
g28
sg285
I3
sg286
(I6
I3
I9
tp417
sg21
I0
sg22
F6.8022415784653276
sg23
F4.0864854725077748
sVY
I3
sVX
I3
sg288
g341
sg35
g36
sg37
g38
sg20
S'6'
sg19
S'space'
p418
sg34
g11
sg291
I9
sg292
g297
sg294
I9
sS'block.thisIndex'
p419
I8
sg296
g299
sg298
I0
sg300
g369
sa(dp420
S'block.thisTrialN'
p421
I14
sS'block.thisRepN'
p422
I0
sg29
g33
sS'block.thisN'
p423
I14
sg283
(S'TIMES'
S'HALF'
S'INCREASE'
S'THIRD'
S'x'
S'y'
tp424
sg27
g28
sg285
I4
sg286
(I1
I2
I1
I9
tp425
sg21
I1
sg22
F7.0445984899997711
sg23
F4.5622668594587594
sVY
I9
sVX
I3
sg288
g311
sg35
g36
sg37
g38
sg20
S'9'
sg19
S'space'
p426
sg34
g11
sg291
I9
sg292
g297
sg294
I9
sS'block.thisIndex'
p427
I11
sg296
g330
sg298
g339
sg300
g322
sa(dp428
S'block.thisTrialN'
p429
I15
sS'block.thisRepN'
p430
I0
sg29
g33
sS'block.thisN'
p431
I15
sg283
(S'DOUBLE'
S'DIVIDE'
S'x'
S'y'
tp432
sg27
g28
sg285
I2
sg286
(I1
I2
tp433
sg21
I1
sg22
F3.1410036426968873
sg23
F1.6036582954693586
sVY
I8
sVX
I8
sg288
I0
sg35
g36
sg37
g38
sg20
S'2'
sg19
S'space'
p434
sg34
g11
sg291
I2
sg292
g309
sg294
I2
sS'block.thisIndex'
p435
I2
sg296
g320
sg298
I0
sg300
g403
sa(dp436
S'block.thisTrialN'
p437
I16
sS'block.thisRepN'
p438
I0
sg29
g33
sS'block.thisN'
p439
I16
sg283
(S'TRIPLE'
S'DOUBLE'
S'SUBTRACT'
S'INCREASE'
S'x'
S'y'
tp440
sg27
g28
sg285
I4
sg286
(I5
I1
I2
I6
tp441
sg21
I1
sg22
F13.620973728131503
sg23
F2.6623529153876007
sVY
I4
sVX
I4
sg288
g293
sg35
g36
sg37
g38
sg20
S'6'
sg19
S'space'
p442
sg34
g11
sg291
I6
sg292
g320
sg294
I6
sS'block.thisIndex'
p443
I14
sg296
g299
sg298
g311
sg300
g394
sa(dp444
S'block.thisTrialN'
p445
I17
sS'block.thisRepN'
p446
I0
sg29
g33
sS'block.thisN'
p447
I17
sg283
(S'DIVIDE'
S'TRIPLE'
S'DECREASE'
S'x'
S'y'
tp448
sg27
g28
sg285
I3
sg286
(I6
I18
I9
tp449
sg21
I1
sg22
F18.914104563882574
sg23
F2.5001394599676132
sVY
I2
sVX
I7
sg288
g289
sg35
g36
sg37
g38
sg20
S'9'
sg19
S'space'
p450
sg34
g11
sg291
I9
sg292
g299
sg294
I9
sS'block.thisIndex'
p451
I4
sg296
g309
sg298
I0
sg300
g360
sa(dp452
S'block.thisTrialN'
p453
I0
sS'block.thisRepN'
p454
I0
sg29
g33
sS'block.thisN'
p455
I0
sVRule
p456
(S'DIVIDE'
S'TRIPLE'
S'HALF'
S'x'
S'y'
tp457
sg27
g28
sVLength
p458
I3
sVIntermediate
p459
(I4
I12
I4
tp460
sg21
I0
sg22
F10.464832817669958
sg23
F16.420309919631109
sVY
I3
sVX
I8
sVOperatorc
p461
Vhalf
p462
sg35
g36
sg37
g38
sg20
S'9'
sg19
S'space'
p463
sg34
g11
sVResult
p464
I4
sVOperatora
p465
Vtriple
p466
sVCorrectResponse
p467
I4
sS'block.thisIndex'
p468
I4
sVOperatorb
p469
VDIVIDE
p470
sVOperatord
p471
I0
sVStructure
p472
VBUUxy
p473
sa(dp474
S'block.thisTrialN'
p475
I1
sS'block.thisRepN'
p476
I0
sg29
g33
sS'block.thisN'
p477
I1
sg456
(S'DIVIDE'
S'DOUBLE'
S'INCREASE'
S'THIRD'
S'x'
S'y'
tp478
sg27
g28
sg458
I4
sg459
(I2
I3
I6
I2
tp479
sg21
I0
sVY
I3
sVX
I6
sg461
Vincrease
p480
sg35
g36
sg37
g38
sg20
Nsg19
Nsg34
g11
sg464
I2
sg465
Vdouble
p481
sg467
I2
sS'block.thisIndex'
p482
I10
sg469
g470
sg471
Vthird
p483
sg472
VBUUUxy
p484
sa(dp485
S'block.thisTrialN'
p486
I2
sS'block.thisRepN'
p487
I0
sg29
g33
sS'block.thisN'
p488
I2
sg456
(S'DECREASE'
S'TRIPLE'
S'HALF'
S'ADD'
S'x'
S'y'
tp489
sg27
g28
sg458
I4
sg459
(I6
I3
I9
I8
tp490
sg21
I1
sg22
F9.3855387195944786
sg23
F11.270916281733662
sVY
I2
sVX
I4
sg461
g462
sg35
g36
sg37
g38
sg20
S'8'
sg19
S'space'
p491
sg34
g11
sg464
I8
sg465
g466
sg467
I8
sS'block.thisIndex'
p492
I16
sg469
Vdecrease
p493
sg471
VADD
p494
sg472
VUUUBxy
p495
sa(dp496
S'block.thisTrialN'
p497
I3
sS'block.thisRepN'
p498
I0
sg29
g33
sS'block.thisN'
p499
I3
sg456
(S'SUBTRACT'
S'INCREASE'
S'x'
S'y'
tp500
sg27
g28
sg458
I2
sg459
(I6
I2
tp501
sg21
I1
sg22
F4.3388114091940224
sg23
F1.6332728015258908
sVY
I4
sVX
I5
sg461
I0
sg35
g36
sg37
g38
sg20
S'2'
sg19
S'space'
p502
sg34
g11
sg464
I2
sg465
g480
sg467
I2
sS'block.thisIndex'
p503
I1
sg469
VSUBTRACT
p504
sg471
I0
sg472
VBUxy
p505
sa(dp506
S'block.thisTrialN'
p507
I4
sS'block.thisRepN'
p508
I0
sg29
g33
sS'block.thisN'
p509
I4
sg456
(S'INCREASE'
S'ADD'
S'TRIPLE'
S'x'
S'y'
tp510
sg27
g28
sg458
I3
sg459
(I6
I8
I9
tp511
sg21
I1
sg22
F4.5824201358482242
sg23
F4.0356328068301082
sVY
I2
sVX
I2
sg461
g466
sg35
g36
sg37
g38
sg20
S'9'
sg19
S'space'
p512
sg34
g11
sg464
I9
sg465
g494
sg467
I9
sS'block.thisIndex'
p513
I6
sg469
g480
sg471
I0
sg472
VUBUxy
p514
sa(dp515
S'block.thisTrialN'
p516
I5
sS'block.thisRepN'
p517
I0
sg29
g33
sS'block.thisN'
p518
I5
sg456
(S'THIRD'
S'TIMES'
S'HALF'
S'INCREASE'
S'x'
S'y'
tp519
sg27
g28
sg458
I4
sg459
(I8
I4
I12
I4
tp520
sg21
I1
sg22
F10.261280070757493
sg23
F5.7004043112974614
sVY
I3
sVX
I7
sg461
g462
sg35
g36
sg37
g38
sg20
S'4'
sg19
S'space'
p521
sg34
g11
sg464
I4
sg465
VTIMES
p522
sg467
I4
sS'block.thisIndex'
p523
I13
sg469
g483
sg471
g480
sg472
VUBUUxy
p524
sa(dp525
S'block.thisTrialN'
p526
I6
sS'block.thisRepN'
p527
I0
sg29
g33
sS'block.thisN'
p528
I6
sg456
(S'TRIPLE'
S'DOUBLE'
S'SUBTRACT'
S'DECREASE'
S'x'
S'y'
tp529
sg27
g28
sg458
I4
sg459
(I4
I1
I2
I6
tp530
sg21
I1
sg22
F9.1106703141704202
sg23
F2.7722564621362835
sVY
I3
sVX
I5
sg461
g504
sg35
g36
sg37
g38
sg20
S'6'
sg19
S'space'
p531
sg34
g11
sg464
I6
sg465
g481
sg467
I6
sS'block.thisIndex'
p532
I15
sg469
g466
sg471
g493
sg472
VUUBUxy
p533
sa(dp534
S'block.thisTrialN'
p535
I7
sS'block.thisRepN'
p536
I0
sg29
g33
sS'block.thisN'
p537
I7
sg456
(S'TRIPLE'
S'DECREASE'
S'HALF'
S'SUBTRACT'
S'x'
S'y'
tp538
sg27
g28
sg458
I4
sg459
(I4
I2
I1
I3
tp539
sg21
I1
sg22
F11.270294398535043
sg23
F7.7976112274918705
sVY
I5
sVX
I9
sg461
g462
sg35
g36
sg37
g38
sg20
S'3'
sg19
S'space'
p540
sg34
g11
sg464
I3
sg465
g493
sg467
I3
sS'block.thisIndex'
p541
I17
sg469
g466
sg471
g504
sg472
g495
sa(dp542
S'block.thisTrialN'
p543
I8
sS'block.thisRepN'
p544
I0
sg29
g33
sS'block.thisN'
p545
I8
sg456
(S'ADD'
S'THIRD'
S'x'
S'y'
tp546
sg27
g28
sg458
I2
sg459
(I1
I7
tp547
sg21
I1
sg22
F2.6745679979212582
sg23
F1.4469910420011729
sVY
I6
sVX
I3
sg461
I0
sg35
g36
sg37
g38
sg20
S'7'
sg19
S'space'
p548
sg34
g11
sg464
I7
sg465
g483
sg467
I7
sS'block.thisIndex'
p549
I0
sg469
g494
sg471
I0
sg472
g505
sa(dp550
S'block.thisTrialN'
p551
I9
sS'block.thisRepN'
p552
I0
sg29
g33
sS'block.thisN'
p553
I9
sg456
(S'DOUBLE'
S'ADD'
S'x'
S'y'
tp554
sg27
g28
sg458
I2
sg459
(I4
I8
tp555
sg21
I1
sg22
F1.6371356849558651
sg23
F2.5825681700371206
sVY
I2
sVX
I2
sg461
I0
sg35
g36
sg37
g38
sg20
S'8'
sg19
S'space'
p556
sg34
g11
sg464
I8
sg465
g494
sg467
I8
sS'block.thisIndex'
p557
I2
sg469
g481
sg471
I0
sg472
VUBxy
p558
sa(dp559
S'block.thisTrialN'
p560
I10
sS'block.thisRepN'
p561
I0
sg29
g33
sS'block.thisN'
p562
I10
sg456
(S'DOUBLE'
S'TIMES'
S'x'
S'y'
tp563
sg27
g28
sg458
I2
sg459
(I4
I8
tp564
sg21
I1
sg22
F2.9653113912791014
sg23
F2.8694066845346242
sVY
I2
sVX
I2
sg461
I0
sg35
g36
sg37
g38
sg20
S'8'
sg19
S'space'
p565
sg34
g11
sg464
I8
sg465
g522
sg467
I8
sS'block.thisIndex'
p566
I3
sg469
g481
sg471
I0
sg472
g558
sa(dp567
S'block.thisTrialN'
p568
I11
sS'block.thisRepN'
p569
I0
sg29
g33
sS'block.thisN'
p570
I11
sg456
(S'INCREASE'
S'DIVIDE'
S'TRIPLE'
S'HALF'
S'x'
S'y'
tp571
sg27
g28
sg458
I4
sg459
(I2
I6
I2
I3
tp572
sg21
I1
sg22
F18.291024413192645
sg23
F6.2141737514175475
sVY
I3
sVX
I4
sg461
g466
sg35
g36
sg37
g38
sg20
S'3'
sg19
S'space'
p573
sg34
g11
sg464
I3
sg465
g470
sg467
I3
sS'block.thisIndex'
p574
I12
sg469
g480
sg471
g462
sg472
g524
sa(dp575
S'block.thisTrialN'
p576
I12
sS'block.thisRepN'
p577
I0
sg29
g33
sS'block.thisN'
p578
I12
sg456
(S'TIMES'
S'INCREASE'
S'HALF'
S'TRIPLE'
S'x'
S'y'
tp579
sg27
g28
sg458
I4
sg459
(I6
I3
I4
I8
tp580
sg21
I0
sVY
I2
sVX
I2
sg461
g462
sg35
g36
sg37
g38
sg20
Nsg19
Nsg34
g11
sg464
I8
sg465
g480
sg467
I8
sS'block.thisIndex'
p581
I11
sg469
g522
sg471
g466
sg472
g484
sa(dp582
S'block.thisTrialN'
p583
I13
sS'block.thisRepN'
p584
I0
sg29
g33
sS'block.thisN'
p585
I13
sg456
(S'TIMES'
S'THIRD'
S'DOUBLE'
S'x'
S'y'
tp586
sg27
g28
sg458
I3
sg459
(I6
I2
I4
tp587
sg21
I1
sg22
F7.5347496774047613
sg23
F4.37398541579023
sVY
I2
sVX
I3
sg461
g481
sg35
g36
sg37
g38
sg20
S'4'
sg19
S'space'
p588
sg34
g11
sg464
I4
sg465
g483
sg467
I4
sS'block.thisIndex'
p589
I5
sg469
g522
sg471
I0
sg472
g473
sa(dp590
S'block.thisTrialN'
p591
I14
sS'block.thisRepN'
p592
I0
sg29
g33
sS'block.thisN'
p593
I14
sg456
(S'DECREASE'
S'TRIPLE'
S'DIVIDE'
S'x'
S'y'
tp594
sg27
g28
sg458
I3
sg459
(I2
I6
I5
tp595
sg21
I1
sg22
F3.125380627810955
sg23
F7.798510980559513
sVY
I4
sVX
I8
sg461
g470
sg35
g36
sg37
g38
sg20
S'5'
sg19
S'space'
p596
sg34
g11
sg464
I5
sg465
g466
sg467
I5
sS'block.thisIndex'
p597
I8
sg469
g493
sg471
I0
sg472
VUUBxy
p598
sa(dp599
S'block.thisTrialN'
p600
I15
sS'block.thisRepN'
p601
I0
sg29
g33
sS'block.thisN'
p602
I15
sg456
(S'THIRD'
S'INCREASE'
S'ADD'
S'DOUBLE'
S'x'
S'y'
tp603
sg27
g28
sg458
I4
sg459
(I16
I20
I21
I7
tp604
sg21
I1
sg22
F11.798171867150813
sg23
F5.0589045970700681
sVY
I4
sVX
I8
sg461
g494
sg35
g36
sg37
g38
sg20
S'7'
sg19
S'space'
p605
sg34
g11
sg464
I7
sg465
g480
sg467
I7
sS'block.thisIndex'
p606
I14
sg469
g483
sg471
g481
sg472
g533
sa(dp607
S'block.thisTrialN'
p608
I16
sS'block.thisRepN'
p609
I0
sg29
g33
sS'block.thisN'
p610
I16
sg456
(S'THIRD'
S'INCREASE'
S'SUBTRACT'
S'x'
S'y'
tp611
sg27
g28
sg458
I3
sg459
(I2
I3
I1
tp612
sg21
I1
sg22
F8.3380796380806714
sg23
F2.2301621271762997
sVY
I6
sVX
I8
sg461
g504
sg35
g36
sg37
g38
sg20
S'1'
sg19
S'space'
p613
sg34
g11
sg464
I1
sg465
g480
sg467
I1
sS'block.thisIndex'
p614
I9
sg469
g483
sg471
I0
sg472
g598
sa(dp615
S'block.thisTrialN'
p616
I17
sS'block.thisRepN'
p617
I0
sg29
g33
sS'block.thisN'
p618
I17
sg456
(S'INCREASE'
S'SUBTRACT'
S'THIRD'
S'x'
S'y'
tp619
sg27
g28
sg458
I3
sg459
(I3
I1
I2
tp620
sg21
I1
sg22
F3.1741905636154115
sg23
F6.8565938663668931
sVY
I2
sVX
I9
sg461
g483
sg35
g36
sg37
g38
sg20
S'2'
sg19
S'space'
p621
sg34
g11
sg464
I2
sg465
g504
sg467
I2
sS'block.thisIndex'
p622
I7
sg469
g480
sg471
I0
sg472
g514
sa(dp623
S'block.thisTrialN'
p624
I0
sS'block.thisRepN'
p625
I0
sg29
g33
sS'block.thisN'
p626
I0
sVRule
p627
(S'INCREASE'
S'TRIPLE'
S'DIVIDE'
S'x'
S'y'
tp628
sg27
g28
sVLength
p629
I3
sVIntermediate
p630
(I2
I6
I7
tp631
sg21
I1
sg22
F5.1533555604983121
sg23
F4.9140951146837324
sVY
I3
sVX
I6
sVOperatorc
p632
VDIVIDE
p633
sg35
g36
sg37
g38
sg20
S'7'
sg19
S'space'
p634
sg34
g11
sVResult
p635
I7
sVOperatora
p636
Vtriple
p637
sVCorrectResponse
p638
I7
sS'block.thisIndex'
p639
I8
sVOperatorb
p640
Vincrease
p641
sVOperatord
p642
I0
sVStructure
p643
VUUBxy
p644
sa(dp645
S'block.thisTrialN'
p646
I1
sS'block.thisRepN'
p647
I0
sg29
g33
sS'block.thisN'
p648
I1
sg627
(S'THIRD'
S'DOUBLE'
S'ADD'
S'DECREASE'
S'x'
S'y'
tp649
sg27
g28
sg629
I4
sg630
(I5
I12
I24
I8
tp650
sg21
I1
sg22
F15.142068227985874
sg23
F5.0425340628717095
sVY
I7
sVX
I6
sg632
VADD
p651
sg35
g36
sg37
g38
sg20
S'8'
sg19
S'space'
p652
sg34
g11
sg635
I8
sg636
Vdouble
p653
sg638
I8
sS'block.thisIndex'
p654
I14
sg640
Vthird
p655
sg642
Vdecrease
p656
sg643
VUUBUxy
p657
sa(dp658
S'block.thisTrialN'
p659
I2
sS'block.thisRepN'
p660
I0
sg29
g33
sS'block.thisN'
p661
I2
sg627
(S'ADD'
S'DOUBLE'
S'DECREASE'
S'THIRD'
S'x'
S'y'
tp662
sg27
g28
sg629
I4
sg630
(I2
I1
I2
I8
tp663
sg21
I1
sg22
F17.972812482155859
sg23
F6.0859538798686117
sVY
I6
sVX
I6
sg632
g656
sg35
g36
sg37
g38
sg20
S'8'
sg19
S'space'
p664
sg34
g11
sg635
I8
sg636
g653
sg638
I8
sS'block.thisIndex'
p665
I10
sg640
g651
sg642
g655
sg643
VBUUUxy
p666
sa(dp667
S'block.thisTrialN'
p668
I3
sS'block.thisRepN'
p669
I0
sg29
g33
sS'block.thisN'
p670
I3
sg627
(S'DIVIDE'
S'DECREASE'
S'TRIPLE'
S'x'
S'y'
tp671
sg27
g28
sg629
I3
sg630
(I9
I8
I4
tp672
sg21
I1
sg22
F13.254369366215542
sg23
F2.4997992964927107
sVY
I2
sVX
I3
sg632
g637
sg35
g36
sg37
g38
sg20
S'4'
sg19
S'space'
p673
sg34
g11
sg635
I4
sg636
g656
sg638
I4
sS'block.thisIndex'
p674
I5
sg640
g633
sg642
I0
sg643
VBUUxy
p675
sa(dp676
S'block.thisTrialN'
p677
I4
sS'block.thisRepN'
p678
I0
sg29
g33
sS'block.thisN'
p679
I4
sg627
(S'THIRD'
S'TIMES'
S'DOUBLE'
S'DECREASE'
S'x'
S'y'
tp680
sg27
g28
sg629
I4
sg630
(I1
I2
I6
I2
tp681
sg21
I1
sg22
F9.7170884117949754
sg23
F8.8225393891334534
sVY
I3
sVX
I2
sg632
g653
sg35
g36
sg37
g38
sg20
S'2'
sg19
S'space'
p682
sg34
g11
sg635
I2
sg636
VTIMES
p683
sg638
I2
sS'block.thisIndex'
p684
I13
sg640
g655
sg642
g656
sg643
VUBUUxy
p685
sa(dp686
S'block.thisTrialN'
p687
I5
sS'block.thisRepN'
p688
I0
sg29
g33
sS'block.thisN'
p689
I5
sg627
(S'ADD'
S'HALF'
S'THIRD'
S'x'
S'y'
tp690
sg27
g28
sg629
I3
sg630
(I2
I1
I9
tp691
sg21
I1
sg22
F7.9069950804114342
sg23
F3.5093760138843209
sVY
I8
sVX
I6
sg632
g655
sg35
g36
sg37
g38
sg20
S'9'
sg19
S'space'
p692
sg34
g11
sg635
I9
sg636
Vhalf
p693
sg638
I9
sS'block.thisIndex'
p694
I4
sg640
g651
sg642
I0
sg643
g675
sa(dp695
S'block.thisTrialN'
p696
I6
sS'block.thisRepN'
p697
I0
sg29
g33
sS'block.thisN'
p698
I6
sg627
(S'SUBTRACT'
S'DECREASE'
S'TRIPLE'
S'DOUBLE'
S'x'
S'y'
tp699
sg27
g28
sg629
I4
sg630
(I6
I18
I17
I8
tp700
sg21
I1
sg22
F5.2538727698847651
sg23
F11.557556367712095
sVY
I9
sVX
I3
sg632
g637
sg35
g36
sg37
g38
sg20
S'8'
sg19
S'space'
p701
sg34
g11
sg635
I8
sg636
g656
sg638
I8
sS'block.thisIndex'
p702
I11
sg640
VSUBTRACT
p703
sg642
g653
sg643
g666
sa(dp704
S'block.thisTrialN'
p705
I7
sS'block.thisRepN'
p706
I0
sg29
g33
sS'block.thisN'
p707
I7
sg627
(S'HALF'
S'TRIPLE'
S'INCREASE'
S'DIVIDE'
S'x'
S'y'
tp708
sg27
g28
sg629
I4
sg630
(I3
I4
I12
I6
tp709
sg21
I0
sVY
I3
sVX
I9
sg632
g641
sg35
g36
sg37
g38
sg20
Nsg19
Nsg34
g11
sg635
I6
sg636
g637
sg638
I6
sS'block.thisIndex'
p710
I16
sg640
g693
sg642
g633
sg643
VUUUBxy
p711
sa(dp712
S'block.thisTrialN'
p713
I8
sS'block.thisRepN'
p714
I0
sg29
g33
sS'block.thisN'
p715
I8
sg627
(S'INCREASE'
S'ADD'
S'x'
S'y'
tp716
sg27
g28
sg629
I2
sg630
(I5
I6
tp717
sg21
I1
sg22
F4.7813887272495776
sg23
F1.2710723648779094
sVY
I2
sVX
I3
sg632
I0
sg35
g36
sg37
g38
sg20
S'6'
sg19
S'space'
p718
sg34
g11
sg635
I6
sg636
g651
sg638
I6
sS'block.thisIndex'
p719
I3
sg640
g641
sg642
I0
sg643
VUBxy
p720
sa(dp721
S'block.thisTrialN'
p722
I9
sS'block.thisRepN'
p723
I0
sg29
g33
sS'block.thisN'
p724
I9
sg627
(S'DECREASE'
S'DIVIDE'
S'x'
S'y'
tp725
sg27
g28
sg629
I2
sg630
(I2
I1
tp726
sg21
I1
sg22
F3.2998081156983972
sg23
F3.3851992562413216
sVY
I4
sVX
I8
sg632
I0
sg35
g36
sg37
g38
sg20
S'1'
sg19
S'space'
p727
sg34
g11
sg635
I1
sg636
g633
sg638
I1
sS'block.thisIndex'
p728
I2
sg640
g656
sg642
I0
sg643
g720
sa(dp729
S'block.thisTrialN'
p730
I10
sS'block.thisRepN'
p731
I0
sg29
g33
sS'block.thisN'
p732
I10
sg627
(S'INCREASE'
S'SUBTRACT'
S'HALF'
S'x'
S'y'
tp733
sg27
g28
sg629
I3
sg630
(I4
I2
I3
tp734
sg21
I1
sg22
F16.096911548171192
sg23
F5.3343430911190808
sVY
I2
sVX
I8
sg632
g693
sg35
g36
sg37
g38
sg20
S'3'
sg19
S'space'
p735
sg34
g11
sg635
I3
sg636
g703
sg638
I3
sS'block.thisIndex'
p736
I7
sg640
g641
sg642
I0
sg643
VUBUxy
p737
sa(dp738
S'block.thisTrialN'
p739
I11
sS'block.thisRepN'
p740
I0
sg29
g33
sS'block.thisN'
p741
I11
sg627
(S'THIRD'
S'INCREASE'
S'DIVIDE'
S'DOUBLE'
S'x'
S'y'
tp742
sg27
g28
sg629
I4
sg630
(I18
I2
I3
I1
tp743
sg21
I1
sg22
F10.712054905015975
sg23
F5.4787791636772454
sVY
I9
sVX
I9
sg632
g633
sg35
g36
sg37
g38
sg20
S'1'
sg19
S'space'
p744
sg34
g11
sg635
I1
sg636
g641
sg638
I1
sS'block.thisIndex'
p745
I15
sg640
g655
sg642
g653
sg643
g657
sa(dp746
S'block.thisTrialN'
p747
I12
sS'block.thisRepN'
p748
I0
sg29
g33
sS'block.thisN'
p749
I12
sg627
(S'THIRD'
S'HALF'
S'ADD'
S'x'
S'y'
tp750
sg27
g28
sg629
I3
sg630
(I6
I3
I1
tp751
sg21
I0
sVY
I3
sVX
I3
sg632
g651
sg35
g36
sg37
g38
sg20
Nsg19
Nsg34
g11
sg635
I1
sg636
g693
sg638
I1
sS'block.thisIndex'
p752
I9
sg640
g655
sg642
I0
sg643
g644
sa(dp753
S'block.thisTrialN'
p754
I13
sS'block.thisRepN'
p755
I0
sg29
g33
sS'block.thisN'
p756
I13
sg627
(S'HALF'
S'ADD'
S'TRIPLE'
S'x'
S'y'
tp757
sg27
g28
sg629
I3
sg630
(I9
I12
I6
tp758
sg21
I1
sg22
F4.4748746349941939
sg23
F3.2400114648044109
sVY
I3
sVX
I3
sg632
g637
sg35
g36
sg37
g38
sg20
S'6'
sg19
S'space'
p759
sg34
g11
sg635
I6
sg636
g651
sg638
I6
sS'block.thisIndex'
p760
I6
sg640
g693
sg642
I0
sg643
g737
sa(dp761
S'block.thisTrialN'
p762
I14
sS'block.thisRepN'
p763
I0
sg29
g33
sS'block.thisN'
p764
I14
sg627
(S'THIRD'
S'DOUBLE'
S'INCREASE'
S'TIMES'
S'x'
S'y'
tp765
sg27
g28
sg629
I4
sg630
(I8
I9
I18
I6
tp766
sg21
I0
sVY
I4
sVX
I2
sg632
g641
sg35
g36
sg37
g38
sg20
Nsg19
Nsg34
g11
sg635
I6
sg636
g653
sg638
I6
sS'block.thisIndex'
p767
I17
sg640
g655
sg642
g683
sg643
g711
sa(dp768
S'block.thisTrialN'
p769
I15
sS'block.thisRepN'
p770
I0
sg29
g33
sS'block.thisN'
p771
I15
sg627
(S'DOUBLE'
S'ADD'
S'INCREASE'
S'THIRD'
S'x'
S'y'
tp772
sg27
g28
sg629
I4
sg630
(I1
I2
I4
I8
tp773
sg21
I1
sg22
F9.7005232984665781
sg23
F5.2397076974157244
sVY
I2
sVX
I3
sg632
g641
sg35
g36
sg37
g38
sg20
S'8'
sg19
S'space'
p774
sg34
g11
sg635
I8
sg636
g651
sg638
I8
sS'block.thisIndex'
p775
I12
sg640
g653
sg642
g655
sg643
g685
sa(dp776
S'block.thisTrialN'
p777
I16
sS'block.thisRepN'
p778
I0
sg29
g33
sS'block.thisN'
p779
I16
sg627
(S'SUBTRACT'
S'DECREASE'
S'x'
S'y'
tp780
sg27
g28
sg629
I2
sg630
(I5
I3
tp781
sg21
I1
sg22
F5.5869279997423291
sg23
F1.8463161748368293
sVY
I2
sVX
I6
sg632
I0
sg35
g36
sg37
g38
sg20
S'3'
sg19
S'space'
p782
sg34
g11
sg635
I3
sg636
g656
sg638
I3
sS'block.thisIndex'
p783
I1
sg640
g703
sg642
I0
sg643
VBUxy
p784
sa(dp785
S'block.thisTrialN'
p786
I17
sS'block.thisRepN'
p787
I0
sg29
g33
sS'block.thisN'
p788
I17
sg627
(S'DIVIDE'
S'INCREASE'
S'x'
S'y'
tp789
sg27
g28
sg629
I2
sg630
(I4
I2
tp790
sg21
I1
sg22
F2.1179764764383435
sg23
F1.8131254042964429
sVY
I2
sVX
I3
sg632
I0
sg35
g36
sg37
g38
sg20
S'2'
sg19
S'space'
p791
sg34
g11
sg635
I2
sg636
g641
sg638
I2
sS'block.thisIndex'
p792
I0
sg640
g633
sg642
I0
sg643
g784
sa(dp793
S'block.thisTrialN'
p794
I0
sS'block.thisRepN'
p795
I0
sg29
g33
sS'block.thisN'
p796
I0
sVRule
p797
(S'DECREASE'
S'TRIPLE'
S'DIVIDE'
S'DOUBLE'
S'x'
S'y'
tp798
sg27
g28
sVLength
p799
I4
sVIntermediate
p800
(I6
I2
I6
I5
tp801
sg21
I0
sVY
I3
sVX
I3
sVOperatorc
p802
VDIVIDE
p803
sg35
g36
sg37
g38
sg20
Nsg19
Nsg34
g11
sVResult
p804
I5
sVOperatora
p805
Vtriple
p806
sVCorrectResponse
p807
I5
sS'block.thisIndex'
p808
I14
sVOperatorb
p809
Vdecrease
p810
sVOperatord
p811
Vdouble
p812
sVStructure
p813
VUUBUxy
p814
sa(dp815
S'block.thisTrialN'
p816
I1
sS'block.thisRepN'
p817
I0
sg29
g33
sS'block.thisN'
p818
I1
sg797
(S'INCREASE'
S'ADD'
S'HALF'
S'TRIPLE'
S'x'
S'y'
tp819
sg27
g28
sg799
I4
sg800
(I6
I3
I6
I7
tp820
sg21
I0
sg22
F11.89941209834069
sg23
F9.1408552587963641
sVY
I3
sVX
I2
sg802
Vhalf
p821
sg35
g36
sg37
g38
sg20
S'2'
sg19
S'space'
p822
sg34
g11
sg804
I7
sg805
VADD
p823
sg807
I7
sS'block.thisIndex'
p824
I13
sg809
Vincrease
p825
sg811
g806
sg813
VUBUUxy
p826
sa(dp827
S'block.thisTrialN'
p828
I2
sS'block.thisRepN'
p829
I0
sg29
g33
sS'block.thisN'
p830
I2
sg797
(S'SUBTRACT'
S'DOUBLE'
S'TRIPLE'
S'DECREASE'
S'x'
S'y'
tp831
sg27
g28
sg799
I4
sg800
(I2
I6
I12
I8
tp832
sg21
I1
sg22
F12.432791323401034
sg23
F4.9318130039609969
sVY
I4
sVX
I3
sg802
g806
sg35
g36
sg37
g38
sg20
S'8'
sg19
S'space'
p833
sg34
g11
sg804
I8
sg805
g812
sg807
I8
sS'block.thisIndex'
p834
I10
sg809
VSUBTRACT
p835
sg811
g810
sg813
VBUUUxy
p836
sa(dp837
S'block.thisTrialN'
p838
I3
sS'block.thisRepN'
p839
I0
sg29
g33
sS'block.thisN'
p840
I3
sg797
(S'DOUBLE'
S'THIRD'
S'TIMES'
S'x'
S'y'
tp841
sg27
g28
sg799
I3
sg800
(I12
I4
I8
tp842
sg21
I1
sg22
F4.7070000499952585
sg23
F6.9474829139653593
sVY
I6
sVX
I2
sg802
VTIMES
p843
sg35
g36
sg37
g38
sg20
S'8'
sg19
S'space'
p844
sg34
g11
sg804
I8
sg805
Vthird
p845
sg807
I8
sS'block.thisIndex'
p846
I9
sg809
g812
sg811
I0
sg813
VUUBxy
p847
sa(dp848
S'block.thisTrialN'
p849
I4
sS'block.thisRepN'
p850
I0
sg29
g33
sS'block.thisN'
p851
I4
sg797
(S'TIMES'
S'HALF'
S'INCREASE'
S'x'
S'y'
tp852
sg27
g28
sg799
I3
sg800
(I6
I3
I9
tp853
sg21
I1
sg22
F12.086015823297203
sg23
F2.3247779225930572
sVY
I3
sVX
I5
sg802
g825
sg35
g36
sg37
g38
sg20
S'9'
sg19
S'space'
p854
sg34
g11
sg804
I9
sg805
g821
sg807
I9
sS'block.thisIndex'
p855
I5
sg809
g843
sg811
I0
sg813
VBUUxy
p856
sa(dp857
S'block.thisTrialN'
p858
I5
sS'block.thisRepN'
p859
I0
sg29
g33
sS'block.thisN'
p860
I5
sg797
(S'DOUBLE'
S'DECREASE'
S'ADD'
S'x'
S'y'
tp861
sg27
g28
sg799
I3
sg800
(I4
I3
I6
tp862
sg21
I1
sg22
F6.9914549714885652
sg23
F2.3088378419633955
sVY
I2
sVX
I2
sg802
g823
sg35
g36
sg37
g38
sg20
S'6'
sg19
S'space'
p863
sg34
g11
sg804
I6
sg805
g810
sg807
I6
sS'block.thisIndex'
p864
I8
sg809
g812
sg811
I0
sg813
g847
sa(dp865
S'block.thisTrialN'
p866
I6
sS'block.thisRepN'
p867
I0
sg29
g33
sS'block.thisN'
p868
I6
sg797
(S'THIRD'
S'TIMES'
S'HALF'
S'x'
S'y'
tp869
sg27
g28
sg799
I3
sg800
(I3
I18
I6
tp870
sg21
I1
sg22
F4.7423220905475318
sg23
F4.0222271527163684
sVY
I6
sVX
I6
sg802
g821
sg35
g36
sg37
g38
sg20
S'6'
sg19
S'space'
p871
sg34
g11
sg804
I6
sg805
g843
sg807
I6
sS'block.thisIndex'
p872
I7
sg809
g845
sg811
I0
sg813
VUBUxy
p873
sa(dp874
S'block.thisTrialN'
p875
I7
sS'block.thisRepN'
p876
I0
sg29
g33
sS'block.thisN'
p877
I7
sg797
(S'DIVIDE'
S'THIRD'
S'x'
S'y'
tp878
sg27
g28
sg799
I2
sg800
(I3
I1
tp879
sg21
I1
sg22
F4.0841613730881363
sg23
F2.4707114836201072
sVY
I3
sVX
I9
sg802
I0
sg35
g36
sg37
g38
sg20
S'1'
sg19
S'space'
p880
sg34
g11
sg804
I1
sg805
g845
sg807
I1
sS'block.thisIndex'
p881
I0
sg809
g803
sg811
I0
sg813
VBUxy
p882
sa(dp883
S'block.thisTrialN'
p884
I8
sS'block.thisRepN'
p885
I0
sg29
g33
sS'block.thisN'
p886
I8
sg797
(S'THIRD'
S'DECREASE'
S'TIMES'
S'HALF'
S'x'
S'y'
tp887
sg27
g28
sg799
I4
sg800
(I4
I16
I15
I5
tp888
sg21
I1
sg22
F13.783289372222498
sg23
F7.7188683201093227
sVY
I4
sVX
I8
sg802
g843
sg35
g36
sg37
g38
sg20
S'5'
sg19
S'space'
p889
sg34
g11
sg804
I5
sg805
g810
sg807
I5
sS'block.thisIndex'
p890
I15
sg809
g845
sg811
g821
sg813
g814
sa(dp891
S'block.thisTrialN'
p892
I9
sS'block.thisRepN'
p893
I0
sg29
g33
sS'block.thisN'
p894
I9
sg797
(S'HALF'
S'TRIPLE'
S'INCREASE'
S'SUBTRACT'
S'x'
S'y'
tp895
sg27
g28
sg799
I4
sg800
(I1
I2
I6
I3
tp896
sg21
I0
sg22
F9.7323313681408763
sg23
F11.857710245996714
sVY
I2
sVX
I3
sg802
g825
sg35
g36
sg37
g38
sg20
S'1'
sg19
S'space'
p897
sg34
g11
sg804
I3
sg805
g806
sg807
I3
sS'block.thisIndex'
p898
I17
sg809
g821
sg811
g835
sg813
VUUUBxy
p899
sa(dp900
S'block.thisTrialN'
p901
I10
sS'block.thisRepN'
p902
I0
sg29
g33
sS'block.thisN'
p903
I10
sg797
(S'INCREASE'
S'SUBTRACT'
S'x'
S'y'
tp904
sg27
g28
sg799
I2
sg800
(I3
I4
tp905
sg21
I1
sg22
F12.244264906039461
sg23
F1.8618817960377783
sVY
I3
sVX
I6
sg802
I0
sg35
g36
sg37
g38
sg20
S'4'
sg19
S'space'
p906
sg34
g11
sg804
I4
sg805
g835
sg807
I4
sS'block.thisIndex'
p907
I2
sg809
g825
sg811
I0
sg813
VUBxy
p908
sa(dp909
S'block.thisTrialN'
p910
I11
sS'block.thisRepN'
p911
I0
sg29
g33
sS'block.thisN'
p912
I11
sg797
(S'THIRD'
S'DIVIDE'
S'DECREASE'
S'x'
S'y'
tp913
sg27
g28
sg799
I3
sg800
(I6
I3
I1
tp914
sg21
I1
sg22
F6.0352282505482435
sg23
F3.5393471315037459
sVY
I2
sVX
I7
sg802
g810
sg35
g36
sg37
g38
sg20
S'1'
sg19
S'space'
p915
sg34
g11
sg804
I1
sg805
g803
sg807
I1
sS'block.thisIndex'
p916
I6
sg809
g845
sg811
I0
sg813
g873
sa(dp917
S'block.thisTrialN'
p918
I12
sS'block.thisRepN'
p919
I0
sg29
g33
sS'block.thisN'
p920
I12
sg797
(S'SUBTRACT'
S'TRIPLE'
S'DECREASE'
S'x'
S'y'
tp921
sg27
g28
sg799
I3
sg800
(I4
I12
I3
tp922
sg21
I1
sg22
F5.4940434673335403
sg23
F4.0405497765168548
sVY
I9
sVX
I5
sg802
g810
sg35
g36
sg37
g38
sg20
S'3'
sg19
S'space'
p923
sg34
g11
sg804
I3
sg805
g806
sg807
I3
sS'block.thisIndex'
p924
I4
sg809
g835
sg811
I0
sg813
g856
sa(dp925
S'block.thisTrialN'
p926
I13
sS'block.thisRepN'
p927
I0
sg29
g33
sS'block.thisN'
p928
I13
sg797
(S'DECREASE'
S'TRIPLE'
S'HALF'
S'SUBTRACT'
S'x'
S'y'
tp929
sg27
g28
sg799
I4
sg800
(I4
I2
I6
I5
tp930
sg21
I0
sVY
I2
sVX
I6
sg802
g821
sg35
g36
sg37
g38
sg20
Nsg19
Nsg34
g11
sg804
I5
sg805
g806
sg807
I5
sS'block.thisIndex'
p931
I16
sg809
g810
sg811
g835
sg813
g899
sa(dp932
S'block.thisTrialN'
p933
I14
sS'block.thisRepN'
p934
I0
sg29
g33
sS'block.thisN'
p935
I14
sg797
(S'DOUBLE'
S'DIVIDE'
S'TRIPLE'
S'INCREASE'
S'x'
S'y'
tp936
sg27
g28
sg799
I4
sg800
(I5
I15
I3
I6
tp937
sg21
I1
sg22
F13.723726846044883
sg23
F7.0304201191756874
sVY
I5
sVX
I4
sg802
g806
sg35
g36
sg37
g38
sg20
S'6'
sg19
S'space'
p938
sg34
g11
sg804
I6
sg805
g803
sg807
I6
sS'block.thisIndex'
p939
I12
sg809
g812
sg811
g825
sg813
g826
sa(dp940
S'block.thisTrialN'
p941
I15
sS'block.thisRepN'
p942
I0
sg29
g33
sS'block.thisN'
p943
I15
sg797
(S'SUBTRACT'
S'TRIPLE'
S'DECREASE'
S'DOUBLE'
S'x'
S'y'
tp944
sg27
g28
sg799
I4
sg800
(I4
I3
I9
I1
tp945
sg21
I1
sg22
F15.77852568612434
sg23
F5.6495806926395744
sVY
I8
sVX
I2
sg802
g810
sg35
g36
sg37
g38
sg20
S'1'
sg19
S'space'
p946
sg34
g11
sg804
I1
sg805
g806
sg807
I1
sS'block.thisIndex'
p947
I11
sg809
g835
sg811
g812
sg813
g836
sa(dp948
S'block.thisTrialN'
p949
I16
sS'block.thisRepN'
p950
I0
sg29
g33
sS'block.thisN'
p951
I16
sg797
(S'THIRD'
S'DIVIDE'
S'x'
S'y'
tp952
sg27
g28
sg799
I2
sg800
(I3
I1
tp953
sg21
I1
sg22
F1.7487134514376521
sg23
F1.5418857575859874
sVY
I2
sVX
I6
sg802
I0
sg35
g36
sg37
g38
sg20
S'1'
sg19
S'space'
p954
sg34
g11
sg804
I1
sg805
g803
sg807
I1
sS'block.thisIndex'
p955
I3
sg809
g845
sg811
I0
sg813
g908
sa(dp956
S'block.thisTrialN'
p957
I17
sS'block.thisRepN'
p958
I0
sg29
g33
sS'block.thisN'
p959
I17
sg797
(S'TIMES'
S'DOUBLE'
S'x'
S'y'
tp960
sg27
g28
sg799
I2
sg800
(I4
I8
tp961
sg21
I1
sg22
F2.3575060430448502
sg23
F1.5936609236523509
sVY
I2
sVX
I2
sg802
I0
sg35
g36
sg37
g38
sg20
S'8'
sg19
S'space'
p962
sg34
g11
sg804
I8
sg805
g812
sg807
I8
sS'block.thisIndex'
p963
I1
sg809
g843
sg811
I0
sg813
g882
sa(dp964
S'block.thisTrialN'
p965
I0
sS'block.thisRepN'
p966
I0
sg29
g33
sS'block.thisN'
p967
I0
sVRule
p968
(S'DOUBLE'
S'TIMES'
S'THIRD'
S'x'
S'y'
tp969
sg27
g28
sVLength
p970
I3
sVIntermediate
p971
(I1
I4
I8
tp972
sg21
I1
sg22
F12.388122490840033
sg23
F4.8707326913718134
sVY
I4
sVX
I3
sVOperatorc
p973
Vthird
p974
sg35
g36
sg37
g38
sg20
S'8'
sg19
S'space'
p975
sg34
g11
sVResult
p976
I8
sVOperatora
p977
VTIMES
p978
sVCorrectResponse
p979
I8
sS'block.thisIndex'
p980
I6
sVOperatorb
p981
Vdouble
p982
sVOperatord
p983
I0
sVStructure
p984
VUBUxy
p985
sa(dp986
S'block.thisTrialN'
p987
I1
sS'block.thisRepN'
p988
I0
sg29
g33
sS'block.thisN'
p989
I1
sg968
(S'TRIPLE'
S'HALF'
S'TIMES'
S'x'
S'y'
tp990
sg27
g28
sg970
I3
sg971
(I6
I3
I9
tp991
sg21
I1
sg22
F7.9210474651772529
sg23
F4.9489520555362105
sVY
I3
sVX
I2
sg973
g978
sg35
g36
sg37
g38
sg20
S'9'
sg19
S'space'
p992
sg34
g11
sg976
I9
sg977
Vhalf
p993
sg979
I9
sS'block.thisIndex'
p994
I9
sg981
Vtriple
p995
sg983
I0
sg984
VUUBxy
p996
sa(dp997
S'block.thisTrialN'
p998
I2
sS'block.thisRepN'
p999
I0
sg29
g33
sS'block.thisN'
p1000
I2
sg968
(S'TRIPLE'
S'SUBTRACT'
S'INCREASE'
S'HALF'
S'x'
S'y'
tp1001
sg27
g28
sg970
I4
sg971
(I3
I4
I1
I3
tp1002
sg21
I1
sg22
F14.098445782670751
sg23
F7.2685855331365019
sVY
I3
sVX
I6
sg973
Vincrease
p1003
sg35
g36
sg37
g38
sg20
S'3'
sg19
S'space'
p1004
sg34
g11
sg976
I3
sg977
VSUBTRACT
p1005
sg979
I3
sS'block.thisIndex'
p1006
I13
sg981
g995
sg983
g993
sg984
VUBUUxy
p1007
sa(dp1008
S'block.thisTrialN'
p1009
I3
sS'block.thisRepN'
p1010
I0
sg29
g33
sS'block.thisN'
p1011
I3
sg968
(S'INCREASE'
S'TIMES'
S'x'
S'y'
tp1012
sg27
g28
sg970
I2
sg971
(I8
I9
tp1013
sg21
I1
sg22
F3.156044670380652
sg23
F1.828142634825781
sVY
I4
sVX
I2
sg973
I0
sg35
g36
sg37
g38
sg20
S'9'
sg19
S'space'
p1014
sg34
g11
sg976
I9
sg977
g978
sg979
I9
sS'block.thisIndex'
p1015
I2
sg981
g1003
sg983
I0
sg984
VUBxy
p1016
sa(dp1017
S'block.thisTrialN'
p1018
I4
sS'block.thisRepN'
p1019
I0
sg29
g33
sS'block.thisN'
p1020
I4
sg968
(S'THIRD'
S'INCREASE'
S'SUBTRACT'
S'HALF'
S'x'
S'y'
tp1021
sg27
g28
sg970
I4
sg971
(I4
I2
I3
I1
tp1022
sg21
I0
sVY
I2
sVX
I8
sg973
g1005
sg35
g36
sg37
g38
sg20
Nsg19
Nsg34
g11
sg976
I1
sg977
g1003
sg979
I1
sS'block.thisIndex'
p1023
I15
sg981
g974
sg983
g993
sg984
VUUBUxy
p1024
sa(dp1025
S'block.thisTrialN'
p1026
I5
sS'block.thisRepN'
p1027
I0
sg29
g33
sS'block.thisN'
p1028
I5
sg968
(S'INCREASE'
S'HALF'
S'TIMES'
S'TRIPLE'
S'x'
S'y'
tp1029
sg27
g28
sg970
I4
sg971
(I6
I12
I6
I7
tp1030
sg21
I1
sg22
F15.787449723575264
sg23
F4.0872746375389397
sVY
I2
sVX
I2
sg973
g978
sg35
g36
sg37
g38
sg20
S'7'
sg19
S'space'
p1031
sg34
g11
sg976
I7
sg977
g993
sg979
I7
sS'block.thisIndex'
p1032
I14
sg981
g1003
sg983
g995
sg984
g1024
sa(dp1033
S'block.thisTrialN'
p1034
I6
sS'block.thisRepN'
p1035
I0
sg29
g33
sS'block.thisN'
p1036
I6
sg968
(S'DECREASE'
S'HALF'
S'TRIPLE'
S'ADD'
S'x'
S'y'
tp1037
sg27
g28
sg970
I4
sg971
(I4
I12
I6
I5
tp1038
sg21
I1
sg22
F14.952384485164657
sg23
F3.8864802930038422
sVY
I2
sVX
I2
sg973
g995
sg35
g36
sg37
g38
sg20
S'5'
sg19
S'space'
p1039
sg34
g11
sg976
I5
sg977
g993
sg979
I5
sS'block.thisIndex'
p1040
I16
sg981
Vdecrease
p1041
sg983
VADD
p1042
sg984
VUUUBxy
p1043
sa(dp1044
S'block.thisTrialN'
p1045
I7
sS'block.thisRepN'
p1046
I0
sg29
g33
sS'block.thisN'
p1047
I7
sg968
(S'SUBTRACT'
S'DOUBLE'
S'DECREASE'
S'x'
S'y'
tp1048
sg27
g28
sg970
I3
sg971
(I8
I16
I7
tp1049
sg21
I1
sg22
F3.5564476870931685
sg23
F4.8206856390461326
sVY
I9
sVX
I9
sg973
g1041
sg35
g36
sg37
g38
sg20
S'7'
sg19
S'space'
p1050
sg34
g11
sg976
I7
sg977
g982
sg979
I7
sS'block.thisIndex'
p1051
I5
sg981
g1005
sg983
I0
sg984
VBUUxy
p1052
sa(dp1053
S'block.thisTrialN'
p1054
I8
sS'block.thisRepN'
p1055
I0
sg29
g33
sS'block.thisN'
p1056
I8
sg968
(S'TRIPLE'
S'SUBTRACT'
S'x'
S'y'
tp1057
sg27
g28
sg970
I2
sg971
(I2
I6
tp1058
sg21
I1
sg22
F2.0341521166265011
sg23
F1.362343221437186
sVY
I6
sVX
I8
sg973
I0
sg35
g36
sg37
g38
sg20
S'6'
sg19
S'space'
p1059
sg34
g11
sg976
I6
sg977
g1005
sg979
I6
sS'block.thisIndex'
p1060
I3
sg981
g995
sg983
I0
sg984
g1016
sa(dp1061
S'block.thisTrialN'
p1062
I9
sS'block.thisRepN'
p1063
I0
sg29
g33
sS'block.thisN'
p1064
I9
sg968
(S'DECREASE'
S'DIVIDE'
S'TRIPLE'
S'DOUBLE'
S'x'
S'y'
tp1065
sg27
g28
sg970
I4
sg971
(I6
I18
I2
I1
tp1066
sg21
I0
sg22
F4.7408368506003171
sg23
F9.3538839335087687
sVY
I9
sVX
I3
sg973
g995
sg35
g36
sg37
g38
sg20
S'8'
sg19
S'space'
p1067
sg34
g11
sg976
I1
sg977
VDIVIDE
p1068
sg979
I1
sS'block.thisIndex'
p1069
I12
sg981
g1041
sg983
g982
sg984
g1007
sa(dp1070
S'block.thisTrialN'
p1071
I10
sS'block.thisRepN'
p1072
I0
sg29
g33
sS'block.thisN'
p1073
I10
sg968
(S'TIMES'
S'DECREASE'
S'THIRD'
S'DOUBLE'
S'x'
S'y'
tp1074
sg27
g28
sg970
I4
sg971
(I6
I2
I1
I2
tp1075
sg21
I0
sVY
I2
sVX
I3
sg973
g974
sg35
g36
sg37
g38
sg20
Nsg19
Nsg34
g11
sg976
I2
sg977
g1041
sg979
I2
sS'block.thisIndex'
p1076
I11
sg981
g978
sg983
g982
sg984
VBUUUxy
p1077
sa(dp1078
S'block.thisTrialN'
p1079
I11
sS'block.thisRepN'
p1080
I0
sg29
g33
sS'block.thisN'
p1081
I11
sg968
(S'DIVIDE'
S'DECREASE'
S'THIRD'
S'DOUBLE'
S'x'
S'y'
tp1082
sg27
g28
sg970
I4
sg971
(I12
I4
I3
I1
tp1083
sg21
I1
sg22
F15.543396544875577
sg23
F12.767749998020008
sVY
I3
sVX
I6
sg973
g974
sg35
g36
sg37
g38
sg20
S'1'
sg19
S'space'
p1084
sg34
g11
sg976
I1
sg977
g1041
sg979
I1
sS'block.thisIndex'
p1085
I10
sg981
g1068
sg983
g982
sg984
g1077
sa(dp1086
S'block.thisTrialN'
p1087
I12
sS'block.thisRepN'
p1088
I0
sg29
g33
sS'block.thisN'
p1089
I12
sg968
(S'DECREASE'
S'HALF'
S'DIVIDE'
S'x'
S'y'
tp1090
sg27
g28
sg970
I3
sg971
(I4
I2
I1
tp1091
sg21
I1
sg22
F5.8284943469334394
sg23
F4.5494172952603549
sVY
I2
sVX
I8
sg973
g1068
sg35
g36
sg37
g38
sg20
S'1'
sg19
S'space'
p1092
sg34
g11
sg976
I1
sg977
g993
sg979
I1
sS'block.thisIndex'
p1093
I8
sg981
g1041
sg983
I0
sg984
g996
sa(dp1094
S'block.thisTrialN'
p1095
I13
sS'block.thisRepN'
p1096
I0
sg29
g33
sS'block.thisN'
p1097
I13
sg968
(S'TIMES'
S'THIRD'
S'x'
S'y'
tp1098
sg27
g28
sg970
I2
sg971
(I1
I4
tp1099
sg21
I1
sg22
F1.81501415069215
sg23
F3.1904008153360337
sVY
I4
sVX
I3
sg973
I0
sg35
g36
sg37
g38
sg20
S'4'
sg19
S'space'
p1100
sg34
g11
sg976
I4
sg977
g974
sg979
I4
sS'block.thisIndex'
p1101
I1
sg981
g978
sg983
I0
sg984
VBUxy
p1102
sa(dp1103
S'block.thisTrialN'
p1104
I14
sS'block.thisRepN'
p1105
I0
sg29
g33
sS'block.thisN'
p1106
I14
sg968
(S'INCREASE'
S'DIVIDE'
S'HALF'
S'x'
S'y'
tp1107
sg27
g28
sg970
I3
sg971
(I2
I1
I2
tp1108
sg21
I0
sVY
I2
sVX
I4
sg973
g993
sg35
g36
sg37
g38
sg20
Nsg19
Nsg34
g11
sg976
I2
sg977
g1068
sg979
I2
sS'block.thisIndex'
p1109
I7
sg981
g1003
sg983
I0
sg984
g985
sa(dp1110
S'block.thisTrialN'
p1111
I15
sS'block.thisRepN'
p1112
I0
sg29
g33
sS'block.thisN'
p1113
I15
sg968
(S'INCREASE'
S'TRIPLE'
S'HALF'
S'ADD'
S'x'
S'y'
tp1114
sg27
g28
sg970
I4
sg971
(I4
I2
I6
I7
tp1115
sg21
I0
sVY
I2
sVX
I2
sg973
g993
sg35
g36
sg37
g38
sg20
Nsg19
Nsg34
g11
sg976
I7
sg977
g995
sg979
I7
sS'block.thisIndex'
p1116
I17
sg981
g1003
sg983
g1042
sg984
g1043
sa(dp1117
S'block.thisTrialN'
p1118
I16
sS'block.thisRepN'
p1119
I0
sg29
g33
sS'block.thisN'
p1120
I16
sg968
(S'ADD'
S'DECREASE'
S'HALF'
S'x'
S'y'
tp1121
sg27
g28
sg970
I3
sg971
(I3
I2
I6
tp1122
sg21
I1
sg22
F4.8243147474713624
sg23
F2.7550075226463377
sVY
I4
sVX
I6
sg973
g993
sg35
g36
sg37
g38
sg20
S'6'
sg19
S'space'
p1123
sg34
g11
sg976
I6
sg977
g1041
sg979
I6
sS'block.thisIndex'
p1124
I4
sg981
g1042
sg983
I0
sg984
g1052
sa(dp1125
S'block.thisTrialN'
p1126
I17
sS'block.thisRepN'
p1127
I0
sg29
g33
sS'block.thisN'
p1128
I17
sg968
(S'SUBTRACT'
S'THIRD'
S'x'
S'y'
tp1129
sg27
g28
sg970
I2
sg971
(I3
I1
tp1130
sg21
I1
sg22
F1.6858927765861154
sg23
F1.6029937171842903
sVY
I2
sVX
I9
sg973
I0
sg35
g36
sg37
g38
sg20
S'1'
sg19
S'space'
p1131
sg34
g11
sg976
I1
sg977
g974
sg979
I1
sS'block.thisIndex'
p1132
I0
sg981
g1005
sg983
I0
sg984
g1102
sa(dp1133
S'block.thisTrialN'
p1134
I0
sS'block.thisRepN'
p1135
I0
sg29
g33
sS'block.thisN'
p1136
I0
sVRule
p1137
(S'THIRD'
S'DECREASE'
S'TIMES'
S'x'
S'y'
tp1138
sg27
g28
sVLength
p1139
I3
sVIntermediate
p1140
(I25
I24
I8
tp1141
sg21
I1
sg22
F8.0148632470518351
sg23
F2.4358818400651217
sVY
I5
sVX
I5
sVOperatorc
p1142
VTIMES
p1143
sg35
g36
sg37
g38
sg20
S'8'
sg19
S'space'
p1144
sg34
g11
sVResult
p1145
I8
sVOperatora
p1146
Vdecrease
p1147
sVCorrectResponse
p1148
I8
sS'block.thisIndex'
p1149
I8
sVOperatorb
p1150
Vthird
p1151
sVOperatord
p1152
I0
sVStructure
p1153
VUUBxy
p1154
sa(dp1155
S'block.thisTrialN'
p1156
I1
sS'block.thisRepN'
p1157
I0
sg29
g33
sS'block.thisN'
p1158
I1
sg1137
(S'THIRD'
S'INCREASE'
S'HALF'
S'DIVIDE'
S'x'
S'y'
tp1159
sg27
g28
sg1139
I4
sg1140
(I4
I2
I3
I1
tp1160
sg21
I0
sg22
F12.710911928210407
sg23
F6.6747790251392871
sVY
I2
sVX
I8
sg1142
Vhalf
p1161
sg35
g36
sg37
g38
sg20
S'9'
sg19
S'space'
p1162
sg34
g11
sg1145
I1
sg1146
Vincrease
p1163
sg1148
I1
sS'block.thisIndex'
p1164
I16
sg1150
g1151
sg1152
VDIVIDE
p1165
sg1153
VUUUBxy
p1166
sa(dp1167
S'block.thisTrialN'
p1168
I2
sS'block.thisRepN'
p1169
I0
sg29
g33
sS'block.thisN'
p1170
I2
sg1137
(S'TIMES'
S'DECREASE'
S'HALF'
S'x'
S'y'
tp1171
sg27
g28
sg1139
I3
sg1140
(I4
I3
I9
tp1172
sg21
I1
sg22
F3.9034552122466266
sg23
F3.411426477599889
sVY
I3
sVX
I8
sg1142
g1161
sg35
g36
sg37
g38
sg20
S'9'
sg19
S'space'
p1173
sg34
g11
sg1145
I9
sg1146
g1147
sg1148
I9
sS'block.thisIndex'
p1174
I4
sg1150
g1143
sg1152
I0
sg1153
VBUUxy
p1175
sa(dp1176
S'block.thisTrialN'
p1177
I3
sS'block.thisRepN'
p1178
I0
sg29
g33
sS'block.thisN'
p1179
I3
sg1137
(S'TRIPLE'
S'SUBTRACT'
S'DOUBLE'
S'DECREASE'
S'x'
S'y'
tp1180
sg27
g28
sg1139
I4
sg1140
(I2
I4
I1
I3
tp1181
sg21
I1
sg22
F12.602134209824726
sg23
F6.5514768231660128
sVY
I3
sVX
I3
sg1142
Vdouble
p1182
sg35
g36
sg37
g38
sg20
S'3'
sg19
S'space'
p1183
sg34
g11
sg1145
I3
sg1146
VSUBTRACT
p1184
sg1148
I3
sS'block.thisIndex'
p1185
I13
sg1150
Vtriple
p1186
sg1152
g1147
sg1153
VUBUUxy
p1187
sa(dp1188
S'block.thisTrialN'
p1189
I4
sS'block.thisRepN'
p1190
I0
sg29
g33
sS'block.thisN'
p1191
I4
sg1137
(S'THIRD'
S'SUBTRACT'
S'x'
S'y'
tp1192
sg27
g28
sg1139
I2
sg1140
(I3
I1
tp1193
sg21
I1
sg22
F4.3856220105662942
sg23
F1.4778489640448242
sVY
I2
sVX
I5
sg1142
I0
sg35
g36
sg37
g38
sg20
S'1'
sg19
S'space'
p1194
sg34
g11
sg1145
I1
sg1146
g1184
sg1148
I1
sS'block.thisIndex'
p1195
I3
sg1150
g1151
sg1152
I0
sg1153
VUBxy
p1196
sa(dp1197
S'block.thisTrialN'
p1198
I5
sS'block.thisRepN'
p1199
I0
sg29
g33
sS'block.thisN'
p1200
I5
sg1137
(S'TRIPLE'
S'HALF'
S'ADD'
S'DECREASE'
S'x'
S'y'
tp1201
sg27
g28
sg1139
I4
sg1140
(I1
I4
I2
I6
tp1202
sg21
I1
sg22
F7.2378270004410297
sg23
F8.8650636528618634
sVY
I3
sVX
I2
sg1142
VADD
p1203
sg35
g36
sg37
g38
sg20
S'6'
sg19
S'space'
p1204
sg34
g11
sg1145
I6
sg1146
g1161
sg1148
I6
sS'block.thisIndex'
p1205
I15
sg1150
g1186
sg1152
g1147
sg1153
VUUBUxy
p1206
sa(dp1207
S'block.thisTrialN'
p1208
I6
sS'block.thisRepN'
p1209
I0
sg29
g33
sS'block.thisN'
p1210
I6
sg1137
(S'TIMES'
S'THIRD'
S'HALF'
S'x'
S'y'
tp1211
sg27
g28
sg1139
I3
sg1140
(I3
I1
I5
tp1212
sg21
I1
sg22
F4.8534788524266332
sg23
F1.2526349534746259
sVY
I5
sVX
I6
sg1142
g1161
sg35
g36
sg37
g38
sg20
S'5'
sg19
S'space'
p1213
sg34
g11
sg1145
I5
sg1146
g1151
sg1148
I5
sS'block.thisIndex'
p1214
I5
sg1150
g1143
sg1152
I0
sg1153
g1175
sa(dp1215
S'block.thisTrialN'
p1216
I7
sS'block.thisRepN'
p1217
I0
sg29
g33
sS'block.thisN'
p1218
I7
sg1137
(S'THIRD'
S'TIMES'
S'DECREASE'
S'x'
S'y'
tp1219
sg27
g28
sg1139
I3
sg1140
(I3
I15
I5
tp1220
sg21
I1
sg22
F5.0744023255538195
sg23
F2.5564991314895451
sVY
I5
sVX
I4
sg1142
g1147
sg35
g36
sg37
g38
sg20
S'5'
sg19
S'space'
p1221
sg34
g11
sg1145
I5
sg1146
g1143
sg1148
I5
sS'block.thisIndex'
p1222
I7
sg1150
g1151
sg1152
I0
sg1153
VUBUxy
p1223
sa(dp1224
S'block.thisTrialN'
p1225
I8
sS'block.thisRepN'
p1226
I0
sg29
g33
sS'block.thisN'
p1227
I8
sg1137
(S'INCREASE'
S'DIVIDE'
S'TRIPLE'
S'DOUBLE'
S'x'
S'y'
tp1228
sg27
g28
sg1139
I4
sg1140
(I6
I18
I3
I4
tp1229
sg21
I1
sg22
F7.2297442720737308
sg23
F4.5335916520562023
sVY
I6
sVX
I3
sg1142
g1186
sg35
g36
sg37
g38
sg20
S'4'
sg19
S'space'
p1230
sg34
g11
sg1145
I4
sg1146
g1165
sg1148
I4
sS'block.thisIndex'
p1231
I12
sg1150
g1163
sg1152
g1182
sg1153
g1187
sa(dp1232
S'block.thisTrialN'
p1233
I9
sS'block.thisRepN'
p1234
I0
sg29
g33
sS'block.thisN'
p1235
I9
sg1137
(S'THIRD'
S'DOUBLE'
S'ADD'
S'INCREASE'
S'x'
S'y'
tp1236
sg27
g28
sg1139
I4
sg1140
(I10
I12
I24
I8
tp1237
sg21
I1
sg22
F6.7094588847830892
sg23
F6.9200598713941872
sVY
I2
sVX
I9
sg1142
g1203
sg35
g36
sg37
g38
sg20
S'8'
sg19
S'space'
p1238
sg34
g11
sg1145
I8
sg1146
g1182
sg1148
I8
sS'block.thisIndex'
p1239
I14
sg1150
g1151
sg1152
g1163
sg1153
g1206
sa(dp1240
S'block.thisTrialN'
p1241
I10
sS'block.thisRepN'
p1242
I0
sg29
g33
sS'block.thisN'
p1243
I10
sg1137
(S'THIRD'
S'ADD'
S'INCREASE'
S'x'
S'y'
tp1244
sg27
g28
sg1139
I3
sg1140
(I8
I15
I5
tp1245
sg21
I1
sg22
F3.0747218411415815
sg23
F4.6932738304603845
sVY
I7
sVX
I7
sg1142
g1163
sg35
g36
sg37
g38
sg20
S'5'
sg19
S'space'
p1246
sg34
g11
sg1145
I5
sg1146
g1203
sg1148
I5
sS'block.thisIndex'
p1247
I6
sg1150
g1151
sg1152
I0
sg1153
g1223
sa(dp1248
S'block.thisTrialN'
p1249
I11
sS'block.thisRepN'
p1250
I0
sg29
g33
sS'block.thisN'
p1251
I11
sg1137
(S'THIRD'
S'ADD'
S'x'
S'y'
tp1252
sg27
g28
sg1139
I2
sg1140
(I9
I3
tp1253
sg21
I1
sg22
F1.893430543364957
sg23
F5.0760321000125259
sVY
I5
sVX
I4
sg1142
I0
sg35
g36
sg37
g38
sg20
S'3'
sg19
S'space'
p1254
sg34
g11
sg1145
I3
sg1146
g1203
sg1148
I3
sS'block.thisIndex'
p1255
I2
sg1150
g1151
sg1152
I0
sg1153
g1196
sa(dp1256
S'block.thisTrialN'
p1257
I12
sS'block.thisRepN'
p1258
I0
sg29
g33
sS'block.thisN'
p1259
I12
sg1137
(S'TIMES'
S'INCREASE'
S'x'
S'y'
tp1260
sg27
g28
sg1139
I2
sg1140
(I3
I6
tp1261
sg21
I1
sg22
F4.6628848577383906
sg23
F1.6989554676692933
sVY
I2
sVX
I2
sg1142
I0
sg35
g36
sg37
g38
sg20
S'6'
sg19
S'space'
p1262
sg34
g11
sg1145
I6
sg1146
g1163
sg1148
I6
sS'block.thisIndex'
p1263
I1
sg1150
g1143
sg1152
I0
sg1153
VBUxy
p1264
sa(dp1265
S'block.thisTrialN'
p1266
I13
sS'block.thisRepN'
p1267
I0
sg29
g33
sS'block.thisN'
p1268
I13
sg1137
(S'TRIPLE'
S'HALF'
S'DIVIDE'
S'x'
S'y'
tp1269
sg27
g28
sg1139
I3
sg1140
(I2
I1
I3
tp1270
sg21
I1
sg22
F6.2619345004204661
sg23
F2.9076089144218713
sVY
I2
sVX
I4
sg1142
g1165
sg35
g36
sg37
g38
sg20
S'3'
sg19
S'space'
p1271
sg34
g11
sg1145
I3
sg1146
g1161
sg1148
I3
sS'block.thisIndex'
p1272
I9
sg1150
g1186
sg1152
I0
sg1153
g1154
sa(dp1273
S'block.thisTrialN'
p1274
I14
sS'block.thisRepN'
p1275
I0
sg29
g33
sS'block.thisN'
p1276
I14
sg1137
(S'TIMES'
S'INCREASE'
S'THIRD'
S'DOUBLE'
S'x'
S'y'
tp1277
sg27
g28
sg1139
I4
sg1140
(I6
I2
I3
I9
tp1278
sg21
I1
sg22
F14.769546704366803
sg23
F3.8197774870786816
sVY
I3
sVX
I3
sg1142
g1151
sg35
g36
sg37
g38
sg20
S'9'
sg19
S'space'
p1279
sg34
g11
sg1145
I9
sg1146
g1163
sg1148
I9
sS'block.thisIndex'
p1280
I11
sg1150
g1143
sg1152
g1182
sg1153
VBUUUxy
p1281
sa(dp1282
S'block.thisTrialN'
p1283
I15
sS'block.thisRepN'
p1284
I0
sg29
g33
sS'block.thisN'
p1285
I15
sg1137
(S'TIMES'
S'DECREASE'
S'x'
S'y'
tp1286
sg27
g28
sg1139
I2
sg1140
(I2
I4
tp1287
sg21
I1
sg22
F3.2032041843049228
sg23
F1.4112063513603061
sVY
I2
sVX
I3
sg1142
I0
sg35
g36
sg37
g38
sg20
S'4'
sg19
S'space'
p1288
sg34
g11
sg1145
I4
sg1146
g1147
sg1148
I4
sS'block.thisIndex'
p1289
I0
sg1150
g1143
sg1152
I0
sg1153
g1264
sa(dp1290
S'block.thisTrialN'
p1291
I16
sS'block.thisRepN'
p1292
I0
sg29
g33
sS'block.thisN'
p1293
I16
sg1137
(S'SUBTRACT'
S'HALF'
S'INCREASE'
S'TRIPLE'
S'x'
S'y'
tp1294
sg27
g28
sg1139
I4
sg1140
(I15
I16
I8
I3
tp1295
sg21
I1
sg22
F7.8649306672159582
sg23
F3.7806541563477367
sVY
I5
sVX
I5
sg1142
g1163
sg35
g36
sg37
g38
sg20
S'3'
sg19
S'space'
p1296
sg34
g11
sg1145
I3
sg1146
g1161
sg1148
I3
sS'block.thisIndex'
p1297
I10
sg1150
g1184
sg1152
g1186
sg1153
g1281
sa(dp1298
S'block.thisTrialN'
p1299
I17
sS'block.thisRepN'
p1300
I0
sg29
g33
sS'block.thisN'
p1301
I17
sg1137
(S'TRIPLE'
S'DECREASE'
S'HALF'
S'TIMES'
S'x'
S'y'
tp1302
sg27
g28
sg1139
I4
sg1140
(I6
I3
I2
I6
tp1303
sg21
I0
sg22
F15.556189065100625
sg23
F7.3646288248710334
sVY
I2
sVX
I3
sg1142
g1161
sg35
g36
sg37
g38
sg20
S'8'
sg19
S'space'
p1304
sg34
g11
sg1145
I6
sg1146
g1147
sg1148
I6
sS'block.thisIndex'
p1305
I17
sg1150
g1186
sg1152
g1143
sg1153
g1166
sa(dp1306
S'block.thisTrialN'
p1307
I0
sS'block.thisRepN'
p1308
I0
sg29
g33
sS'block.thisN'
p1309
I0
sVRule
p1310
(S'ADD'
S'THIRD'
S'INCREASE'
S'HALF'
S'x'
S'y'
tp1311
sg27
g28
sVLength
p1312
I4
sVIntermediate
p1313
(I2
I3
I1
I7
tp1314
sg21
I1
sg22
F12.72180030378513
sg23
F5.7598041051533073
sVY
I6
sVX
I4
sVOperatorc
p1315
Vincrease
p1316
sg35
g36
sg37
g38
sg20
S'7'
sg19
S'space'
p1317
sg34
g11
sVResult
p1318
I7
sVOperatora
p1319
Vthird
p1320
sVCorrectResponse
p1321
I7
sS'block.thisIndex'
p1322
I10
sVOperatorb
p1323
VADD
p1324
sVOperatord
p1325
Vhalf
p1326
sVStructure
p1327
VBUUUxy
p1328
sa(dp1329
S'block.thisTrialN'
p1330
I1
sS'block.thisRepN'
p1331
I0
sg29
g33
sS'block.thisN'
p1332
I1
sg1310
(S'DECREASE'
S'ADD'
S'DOUBLE'
S'THIRD'
S'x'
S'y'
tp1333
sg27
g28
sg1312
I4
sg1313
(I3
I6
I10
I9
tp1334
sg21
I1
sg22
F12.437243543332443
sg23
F10.137352836318314
sVY
I4
sVX
I9
sg1315
Vdouble
p1335
sg35
g36
sg37
g38
sg20
S'9'
sg19
S'space'
p1336
sg34
g11
sg1318
I9
sg1319
g1324
sg1321
I9
sS'block.thisIndex'
p1337
I12
sg1323
Vdecrease 
p1338
sg1325
g1320
sg1327
VUBUUxy
p1339
sa(dp1340
S'block.thisTrialN'
p1341
I2
sS'block.thisRepN'
p1342
I0
sg29
g33
sS'block.thisN'
p1343
I2
sg1310
(S'DECREASE'
S'TIMES'
S'DOUBLE'
S'THIRD'
S'x'
S'y'
tp1344
sg27
g28
sg1312
I4
sg1313
(I1
I2
I8
I7
tp1345
sg21
I1
sg22
F6.6537627417128533
sg23
F3.5414637031499296
sVY
I4
sVX
I3
sg1315
g1335
sg35
g36
sg37
g38
sg20
S'7'
sg19
S'space'
p1346
sg34
g11
sg1318
I7
sg1319
VTIMES
p1347
sg1321
I7
sS'block.thisIndex'
p1348
I13
sg1323
Vdecrease
p1349
sg1325
g1320
sg1327
g1339
sa(dp1350
S'block.thisTrialN'
p1351
I3
sS'block.thisRepN'
p1352
I0
sg29
g33
sS'block.thisN'
p1353
I3
sg1310
(S'HALF'
S'TIMES'
S'x'
S'y'
tp1354
sg27
g28
sg1312
I2
sg1313
(I16
I8
tp1355
sg21
I1
sg22
F2.8998520011082292
sg23
F2.6279740231111646
sVY
I4
sVX
I4
sg1315
I0
sg35
g36
sg37
g38
sg20
S'8'
sg19
S'space'
p1356
sg34
g11
sg1318
I8
sg1319
g1347
sg1321
I8
sS'block.thisIndex'
p1357
I3
sg1323
g1326
sg1325
I0
sg1327
VUBxy
p1358
sa(dp1359
S'block.thisTrialN'
p1360
I4
sS'block.thisRepN'
p1361
I0
sg29
g33
sS'block.thisN'
p1362
I4
sg1310
(S'DIVIDE'
S'DOUBLE'
S'x'
S'y'
tp1363
sg27
g28
sg1312
I2
sg1313
(I12
I2
tp1364
sg21
I1
sg22
F2.1433347414713353
sg23
F1.9585900160018355
sVY
I6
sVX
I6
sg1315
I0
sg35
g36
sg37
g38
sg20
S'2'
sg19
S'space'
p1365
sg34
g11
sg1318
I2
sg1319
g1335
sg1321
I2
sS'block.thisIndex'
p1366
I1
sg1323
VDIVIDE
p1367
sg1325
I0
sg1327
VBUxy
p1368
sa(dp1369
S'block.thisTrialN'
p1370
I5
sS'block.thisRepN'
p1371
I0
sg29
g33
sS'block.thisN'
p1372
I5
sg1310
(S'DOUBLE'
S'TRIPLE'
S'SUBTRACT'
S'x'
S'y'
tp1373
sg27
g28
sg1312
I3
sg1313
(I1
I3
I6
tp1374
sg21
I1
sg22
F6.4681742573156953
sg23
F1.4145943359471858
sVY
I3
sVX
I4
sg1315
VSUBTRACT
p1375
sg35
g36
sg37
g38
sg20
S'6'
sg19
S'space'
p1376
sg34
g11
sg1318
I6
sg1319
Vtriple
p1377
sg1321
I6
sS'block.thisIndex'
p1378
I9
sg1323
g1335
sg1325
I0
sg1327
VUUBxy
p1379
sa(dp1380
S'block.thisTrialN'
p1381
I6
sS'block.thisRepN'
p1382
I0
sg29
g33
sS'block.thisN'
p1383
I6
sg1310
(S'DECREASE'
S'HALF'
S'TRIPLE'
S'DIVIDE'
S'x'
S'y'
tp1384
sg27
g28
sg1312
I4
sg1313
(I4
I12
I6
I5
tp1385
sg21
I1
sg22
F11.573444304056466
sg23
F9.5733582132961601
sVY
I2
sVX
I8
sg1315
g1377
sg35
g36
sg37
g38
sg20
S'5'
sg19
S'space'
p1386
sg34
g11
sg1318
I5
sg1319
g1326
sg1321
I5
sS'block.thisIndex'
p1387
I16
sg1323
g1349
sg1325
g1367
sg1327
VUUUBxy
p1388
sa(dp1389
S'block.thisTrialN'
p1390
I7
sS'block.thisRepN'
p1391
I0
sg29
g33
sS'block.thisN'
p1392
I7
sg1310
(S'DOUBLE'
S'TRIPLE'
S'DIVIDE'
S'DECREASE'
S'x'
S'y'
tp1393
sg27
g28
sg1312
I4
sg1313
(I8
I1
I3
I6
tp1394
sg21
I1
sg22
F8.3365590521134436
sg23
F2.1112299037631601
sVY
I8
sVX
I9
sg1315
g1367
sg35
g36
sg37
g38
sg20
S'6'
sg19
S'space'
p1395
sg34
g11
sg1318
I6
sg1319
g1377
sg1321
I6
sS'block.thisIndex'
p1396
I15
sg1323
g1335
sg1325
g1349
sg1327
VUUBUxy
p1397
sa(dp1398
S'block.thisTrialN'
p1399
I8
sS'block.thisRepN'
p1400
I0
sg29
g33
sS'block.thisN'
p1401
I8
sg1310
(S'ADD'
S'DOUBLE'
S'x'
S'y'
tp1402
sg27
g28
sg1312
I2
sg1313
(I4
I8
tp1403
sg21
I1
sg22
F1.5443732892163098
sg23
F1.7651567778084427
sVY
I4
sVX
I2
sg1315
I0
sg35
g36
sg37
g38
sg20
S'8'
sg19
S'space'
p1404
sg34
g11
sg1318
I8
sg1319
g1335
sg1321
I8
sS'block.thisIndex'
p1405
I0
sg1323
g1324
sg1325
I0
sg1327
g1368
sa(dp1406
S'block.thisTrialN'
p1407
I9
sS'block.thisRepN'
p1408
I0
sg29
g33
sS'block.thisN'
p1409
I9
sg1310
(S'SUBTRACT'
S'HALF'
S'TRIPLE'
S'x'
S'y'
tp1410
sg27
g28
sg1312
I3
sg1313
(I12
I6
I2
tp1411
sg21
I1
sg22
F4.242654379690066
sg23
F2.8232463130261749
sVY
I4
sVX
I4
sg1315
g1377
sg35
g36
sg37
g38
sg20
S'2'
sg19
S'space'
p1412
sg34
g11
sg1318
I2
sg1319
g1326
sg1321
I2
sS'block.thisIndex'
p1413
I5
sg1323
g1375
sg1325
I0
sg1327
VBUUxy
p1414
sa(dp1415
S'block.thisTrialN'
p1416
I10
sS'block.thisRepN'
p1417
I0
sg29
g33
sS'block.thisN'
p1418
I10
sg1310
(S'DIVIDE'
S'INCREASE'
S'DOUBLE'
S'THIRD'
S'x'
S'y'
tp1419
sg27
g28
sg1312
I4
sg1313
(I2
I4
I5
I1
tp1420
sg21
I1
sg22
F7.4724294485058635
sg23
F9.1542143679689616
sVY
I5
sVX
I6
sg1315
g1335
sg35
g36
sg37
g38
sg20
S'1'
sg19
S'space'
p1421
sg34
g11
sg1318
I1
sg1319
g1316
sg1321
I1
sS'block.thisIndex'
p1422
I11
sg1323
g1367
sg1325
g1320
sg1327
g1328
sa(dp1423
S'block.thisTrialN'
p1424
I11
sS'block.thisRepN'
p1425
I0
sg29
g33
sS'block.thisN'
p1426
I11
sg1310
(S'DECREASE'
S'THIRD'
S'TIMES'
S'HALF'
S'x'
S'y'
tp1427
sg27
g28
sg1312
I4
sg1313
(I2
I12
I4
I3
tp1428
sg21
I1
sg22
F11.121853358112276
sg23
F6.437975664390251
sVY
I6
sVX
I4
sg1315
g1347
sg35
g36
sg37
g38
sg20
S'3'
sg19
S'space'
p1429
sg34
g11
sg1318
I3
sg1319
g1320
sg1321
I3
sS'block.thisIndex'
p1430
I14
sg1323
g1349
sg1325
g1326
sg1327
g1397
sa(dp1431
S'block.thisTrialN'
p1432
I12
sS'block.thisRepN'
p1433
I0
sg29
g33
sS'block.thisN'
p1434
I12
sg1310
(S'DOUBLE'
S'DECREASE'
S'SUBTRACT'
S'x'
S'y'
tp1435
sg27
g28
sg1312
I3
sg1313
(I5
I4
I8
tp1436
sg21
I1
sg22
F6.6781313135288656
sg23
F2.3891037851572037
sVY
I2
sVX
I7
sg1315
g1375
sg35
g36
sg37
g38
sg20
S'8'
sg19
S'space'
p1437
sg34
g11
sg1318
I8
sg1319
g1349
sg1321
I8
sS'block.thisIndex'
p1438
I8
sg1323
g1335
sg1325
I0
sg1327
g1379
sa(dp1439
S'block.thisTrialN'
p1440
I13
sS'block.thisRepN'
p1441
I0
sg29
g33
sS'block.thisN'
p1442
I13
sg1310
(S'DIVIDE'
S'DOUBLE'
S'THIRD'
S'x'
S'y'
tp1443
sg27
g28
sg1312
I3
sg1313
(I2
I4
I1
tp1444
sg21
I1
sg22
F12.689699315931648
sg23
F2.6927257897332311
sVY
I4
sVX
I6
sg1315
g1320
sg35
g36
sg37
g38
sg20
S'1'
sg19
S'space'
p1445
sg34
g11
sg1318
I1
sg1319
g1335
sg1321
I1
sS'block.thisIndex'
p1446
I4
sg1323
g1367
sg1325
I0
sg1327
g1414
sa(dp1447
S'block.thisTrialN'
p1448
I14
sS'block.thisRepN'
p1449
I0
sg29
g33
sS'block.thisN'
p1450
I14
sg1310
(S'DOUBLE'
S'SUBTRACT'
S'x'
S'y'
tp1451
sg27
g28
sg1312
I2
sg1313
(I1
I2
tp1452
sg21
I1
sg22
F4.0840735328383744
sg23
F3.2198445396497846
sVY
I7
sVX
I8
sg1315
I0
sg35
g36
sg37
g38
sg20
S'2'
sg19
S'space'
p1453
sg34
g11
sg1318
I2
sg1319
g1375
sg1321
I2
sS'block.thisIndex'
p1454
I2
sg1323
g1335
sg1325
I0
sg1327
g1358
sa(dp1455
S'block.thisTrialN'
p1456
I15
sS'block.thisRepN'
p1457
I0
sg29
g33
sS'block.thisN'
p1458
I15
sg1310
(S'DOUBLE'
S'DECREASE'
S'TRIPLE'
S'DIVIDE'
S'x'
S'y'
tp1459
sg27
g28
sg1312
I4
sg1313
(I1
I3
I2
I4
tp1460
sg21
I0
sVY
I4
sVX
I4
sg1315
g1377
sg35
g36
sg37
g38
sg20
Nsg19
Nsg34
g11
sg1318
I4
sg1319
g1349
sg1321
I4
sS'block.thisIndex'
p1461
I17
sg1323
g1335
sg1325
g1367
sg1327
g1388
sa(dp1462
S'block.thisTrialN'
p1463
I16
sS'block.thisRepN'
p1464
I0
sg29
g33
sS'block.thisN'
p1465
I16
sg1310
(S'HALF'
S'SUBTRACT'
S'TRIPLE'
S'x'
S'y'
tp1466
sg27
g28
sg1312
I3
sg1313
(I9
I2
I1
tp1467
sg21
I1
sg22
F3.7110431641340256
sg23
F4.6572700634133071
sVY
I7
sVX
I3
sg1315
g1377
sg35
g36
sg37
g38
sg20
S'1'
sg19
S'space'
p1468
sg34
g11
sg1318
I1
sg1319
g1375
sg1321
I1
sS'block.thisIndex'
p1469
I6
sg1323
g1326
sg1325
I0
sg1327
VUBUxy
p1470
sa(dp1471
S'block.thisTrialN'
p1472
I17
sS'block.thisRepN'
p1473
I0
sg29
g33
sS'block.thisN'
p1474
I17
sg1310
(S'INCREASE'
S'DIVIDE'
S'THIRD'
S'x'
S'y'
tp1475
sg27
g28
sg1312
I3
sg1313
(I3
I1
I2
tp1476
sg21
I1
sg22
F5.7137508220039308
sg23
F2.1077540786936879
sVY
I3
sVX
I9
sg1315
g1320
sg35
g36
sg37
g38
sg20
S'2'
sg19
S'space'
p1477
sg34
g11
sg1318
I2
sg1319
g1367
sg1321
I2
sS'block.thisIndex'
p1478
I7
sg1323
g1316
sg1325
I0
sg1327
g1470
sasS'loops'
p1479
(lp1480
g1
(cpsychopy.data
TrialHandler
p1481
g3
NtRp1482
(dp1483
S'origin'
p1484
NsS'thisTrial'
p1485
(lp1486
sS'_exp'
p1487
I150314000
sg10
S'practice_trials'
p1488
sg6
S'C:\\Users\\experimenter\\Desktop\\Experiments\\KRITL\\2. kritl_experimenter.py'
p1489
sS'thisRepN'
p1490
I1
sg24
I01
sg25
g26
sS'data'
p1491
g1
(cpsychopy.data
DataHandler
p1492
c__builtin__
dict
p1493
(dp1494
g18
cnumpy.core.multiarray
_reconstruct
p1495
(cnumpy
ndarray
p1496
(I0
tS'b'
tRp1497
(I1
(I6
I1
tg31
(S'O4'
I0
I1
tRp1498
(I3
S'|'
NNNI-1
I-1
I63
tbI00
(lp1499
(lp1500
F3.4704080664087087
aa(lp1501
F3.8675868806894869
aa(lp1502
F13.479573577875271
aaS'--'
p1503
aS'--'
p1504
a(lp1505
F17.800611454062164
aatbsg15
g1495
(g1496
(I0
tS'b'
tRp1506
(I1
(I6
I1
tg1498
I00
(lp1507
S'7'
aS'8'
aS'7'
aS'7'
aS'3'
aS'9'
atbsS'ran'
p1508
cnumpy.ma.core
_mareconstruct
p1509
(cnumpy.ma.core
MaskedArray
p1510
g1496
(I0
tp1511
S'b'
tRp1512
(I1
(I6
I1
tg31
(S'f4'
I0
I1
tRp1513
(I3
S'<'
NNNI-1
I-1
I0
tbI00
S'\x00\x00\x80?\x00\x00\x80?\x00\x00\x80?\x00\x00\x80?\x00\x00\x80?\x00\x00\x80?'
S'\x00\x00\x00\x00\x00\x00'
Ntbsg17
g1509
(g1510
g1496
g1511
S'b'
tRp1514
(I1
(I6
I1
tg1513
I00
S'z%\x98?\xc3\xb1\xe3?a$\x01@X\xdd#A\xe0\x1e\x9e@\xb3\x03\xa0@'
S'\x00\x00\x00\x00\x00\x00'
Ntbsg14
g1495
(g1496
(I0
tS'b'
tRp1515
(I1
(I6
I1
tg1498
I00
(lp1516
(lp1517
g108
aa(lp1518
g100
aa(lp1519
g81
aaNaNa(lp1520
g90
aatbsS'order'
p1521
g1509
(g1510
g1496
g1511
S'b'
tRp1522
(I1
(I6
I1
tg1513
I00
S'\x00\x00\x80@\x00\x00@@\x00\x00\x80?\x00\x00\xa0@\x00\x00\x00\x00\x00\x00\x00@'
S'\x00\x00\x00\x00\x00\x00'
Ntbsg16
g1509
(g1510
g1496
g1511
S'b'
tRp1523
(I1
(I6
I1
tg1513
I00
S'\x00\x00\x80?\x00\x00\x80?\x00\x00\x80?\x00\x00\x00\x00\x00\x00\x80?\x00\x00\x80?'
S'\x00\x00\x00\x00\x00\x00'
NtbstRp1524
(dp1525
S'isNumeric'
p1526
(dp1527
g15
I00
sg1508
I01
sg17
I01
sg14
I00
sg16
I01
sg1521
I01
sg18
I00
ssS'trials'
p1528
g1482
sS'dataTypes'
p1529
(lp1530
g1508
ag1521
ag14
ag15
ag16
ag17
ag18
asS'dataShape'
p1531
(lp1532
I6
aI1
asbsS'method'
p1533
S'fullRandom'
p1534
sS'sequenceIndices'
p1535
g1495
(g1496
(I0
tS'b'
tRp1536
(I1
(I6
I1
tg1498
I00
(lp1537
I4
aI2
aI5
aI1
aI0
aI3
atbsS'finished'
p1538
I01
sS'nReps'
p1539
I1
sS'nRemaining'
p1540
I-1
sS'trialList'
p1541
(lp1542
g1
(cpsychopy.data
TrialType
p1543
g1493
(dp1544
g47
I0
sg48
g76
sg49
g95
sg50
I7
sg53
I2
sg52
I0
sg51
I5
sg54
I3
stRp1545
ag1
(g1543
g1493
(dp1546
g47
I0
sg48
g95
sg49
g96
sg50
I8
sg53
I2
sg52
I0
sg51
I3
sg54
I3
stRp1547
ag1
(g1543
g1493
(dp1548
g47
I0
sg48
g76
sg49
g77
sg50
I7
sg53
I2
sg52
I0
sg51
I5
sg54
I4
stRp1549
ag1
(g1543
g1493
(dp1550
g47
g76
sg48
g114
sg49
g77
sg50
I8
sg53
I3
sg52
I0
sg51
I2
sg54
I4
stRp1551
ag1
(g1543
g1493
(dp1552
g47
g68
sg48
g71
sg49
g69
sg50
I3
sg53
I3
sg52
I0
sg51
I3
sg54
I2
stRp1553
ag1
(g1543
g1493
(dp1554
g47
g68
sg48
g71
sg49
g86
sg50
I9
sg53
I4
sg52
g69
sg51
I8
sg54
I8
stRp1555
asS'seed'
p1556
NsS'thisIndex'
p1557
I3
sS'thisN'
p1558
I6
sS'thisTrialN'
p1559
I0
sS'nTotal'
p1560
I6
sS'_warnUseOfNext'
p1561
I01
sbag1
(g1481
g3
NtRp1562
(dp1563
g1484
Nsg1485
(lp1564
sg1487
I150314000
sg10
S'block'
p1565
sg6
g1489
sg1490
I1
sg24
I01
sg25
g26
sg1491
g1
(g1492
g1493
(dp1566
g21
g1509
(g1510
g1496
g1511
S'b'
tRp1567
(I1
(I18
I1
tg1513
I00
S'\x00\x00\x80?\x00\x00\x80?\x00\x00\x80?\x00\x00\x80?\x00\x00\x80?\x00\x00\x80?\x00\x00\x80?\x00\x00\x80?\x00\x00\x00\x00\x00\x00\x80?\x00\x00\x80?\x00\x00\x00\x00\x00\x00\x80?\x00\x00\x80?\x00\x00\x80?\x00\x00\x80?\x00\x00\x80?\x00\x00\x00\x00'
S'\x00\x00\x00\x00\x00\x00\x00\x00\x00\x00\x00\x00\x00\x00\x00\x00\x00\x00'
Ntbsg22
g1509
(g1510
g1496
g1511
S'b'
tRp1568
(I1
(I18
I1
tg1513
I00
S"\xbf\x9d^@>\x81_@\x0c\xf4'@\xbe\xf8q@~]\x00A|\xe4\xe2@TF\xf1@\x9er\x0fA\xcfs\xc7@E\xcag@\xcf\xfeGA\x00\x00\x00\x00Fz~AlG}A\xbeB\x8eA\xc5\xa8\x06Ai#\xed@\x00\x00\x00\x00"
S'\x00\x00\x00\x00\x00\x00\x00\x00\x00\x00\x00\x01\x00\x00\x00\x00\x00\x01'
Ntbsg23
g1509
(g1510
g1496
g1511
S'b'
tRp1569
(I1
(I18
I1
tg1513
I00
S'\x82K\xf6?hj\xe1?-{\xa6?\xed\xf7\xa0@\x03\xde\x1b@`\x8d\xa5@\xc3\x88g@\x17B#@\x00\x00\x00\x00\x06!/@u\x85\x84A\x00\x00\x00\x00"\n\xb7@\xa3T\x99@8\xa2\x98@\xffV\x88@\xca2\x07A\x00\x00\x00\x00'
S'\x00\x00\x00\x00\x00\x00\x00\x00\x01\x00\x00\x01\x00\x00\x00\x00\x00\x01'
Ntbsg1508
g1509
(g1510
g1496
g1511
S'b'
tRp1570
(I1
(I18
I1
tg1513
I00
S'\x00\x00\x80?\x00\x00\x80?\x00\x00\x80?\x00\x00\x80?\x00\x00\x80?\x00\x00\x80?\x00\x00\x80?\x00\x00\x80?\x00\x00\x80?\x00\x00\x80?\x00\x00\x80?\x00\x00\x80?\x00\x00\x80?\x00\x00\x80?\x00\x00\x80?\x00\x00\x80?\x00\x00\x80?\x00\x00\x80?'
S'\x00\x00\x00\x00\x00\x00\x00\x00\x00\x00\x00\x00\x00\x00\x00\x00\x00\x00'
Ntbsg20
g1495
(g1496
(I0
tS'b'
tRp1571
(I1
(I18
I1
tg1498
I00
(lp1572
S'7'
aS'2'
aS'8'
aS'6'
aS'7'
aS'8'
aS'2'
aS'5'
aNaS'5'
aS'9'
aNaS'6'
aS'3'
aS'5'
aS'8'
aS'3'
aNatbsg1521
g1509
(g1510
g1496
g1511
S'b'
tRp1573
(I1
(I18
I1
tg1513
I00
S'\x00\x00\x10A\x00\x00\x88A\x00\x00 A\x00\x00\x00A\x00\x000A\x00\x00PA\x00\x00\x00@\x00\x00\x80@\x00\x00\x80?\x00\x00pA\x00\x00\x80A\x00\x00\xa0@\x00\x00\xe0@\x00\x00@A\x00\x00@@\x00\x00\xc0@\x00\x00`A\x00\x00\x00\x00'
S'\x00\x00\x00\x00\x00\x00\x00\x00\x00\x00\x00\x00\x00\x00\x00\x00\x00\x00'
Ntbsg19
g1495
(g1496
(I0
tS'b'
tRp1574
(I1
(I18
I1
tg1498
I00
(lp1575
g210
ag276
ag219
ag201
ag227
ag244
ag147
ag167
ag137
ag260
ag268
aNag192
ag236
ag157
ag184
ag252
aNatbstRp1576
(dp1577
g1526
(dp1578
g1508
I01
sg20
I00
sg19
I00
sg21
I01
sg22
I01
sg23
I01
sg1521
I01
ssg1528
g1562
sg1529
(lp1579
g1508
ag1521
ag19
ag20
ag21
ag22
ag23
asg1531
(lp1580
I18
aI1
asbsg1533
g1534
sg1535
g1495
(g1496
(I0
tS'b'
tRp1581
(I1
(I18
I1
tg1498
I00
(lp1582
I17
aI8
aI6
aI14
aI7
aI11
aI15
aI12
aI3
aI0
aI2
aI4
aI13
aI5
aI16
aI9
aI10
aI1
atbsg1538
I01
sg1539
I1
sg1540
I-1
sg1541
(lp1583
g1
(g1543
g1493
(dp1584
g55
g208
sVY
I5
sg57
I2
sg58
g209
sg59
I7
sg60
I7
sg56
g159
sVX
I3
sg61
I0
sg62
g136
sg63
I0
sg64
g212
stRp1585
ag1
(g1543
g1493
(dp1586
g55
g274
sVY
I4
sg57
I2
sg58
g275
sg59
I2
sg60
I2
sg56
g159
sVX
I9
sg61
I0
sg62
g278
sg63
I0
sg64
g212
stRp1587
ag1
(g1543
g1493
(dp1588
g55
g217
sVY
I3
sg57
I2
sg58
g218
sg59
I8
sg60
I8
sg56
g156
sVX
I3
sg61
I0
sg62
g159
sg63
I0
sg64
g203
stRp1589
ag1
(g1543
g1493
(dp1590
g55
g199
sVY
I8
sg57
I2
sg58
g200
sg59
I6
sg60
I6
sg56
g136
sVX
I4
sg61
I0
sg62
g125
sg63
I0
sg64
g203
stRp1591
ag1
(g1543
g1493
(dp1592
g55
g225
sVY
I5
sg57
I3
sg58
g226
sg59
I7
sg60
I7
sg56
g139
sVX
I2
sg61
g159
sg62
g136
sg63
I0
sg64
g229
stRp1593
ag1
(g1543
g1493
(dp1594
g55
g242
sVY
I2
sg57
I3
sg58
g243
sg59
I8
sg60
I8
sg56
g175
sVX
I4
sg61
g125
sg62
g136
sg63
I0
sg64
g229
stRp1595
ag1
(g1543
g1493
(dp1596
g55
g145
sVY
I3
sg57
I3
sg58
g146
sg59
I2
sg60
I2
sg56
g128
sVX
I3
sg61
g124
sg62
g139
sg63
I0
sg64
g149
stRp1597
ag1
(g1543
g1493
(dp1598
g55
g165
sVY
I3
sg57
I3
sg58
g166
sg59
I5
sg60
I5
sg56
g136
sVX
I2
sg61
g125
sg62
g124
sg63
I0
sg64
g149
stRp1599
ag1
(g1543
g1493
(dp1600
g55
g134
sVY
I4
sg57
I3
sg58
g135
sg59
I6
sg60
I6
sg56
g127
sVX
I5
sg61
g136
sg62
g139
sg63
I0
sg64
g140
stRp1601
ag1
(g1543
g1493
(dp1602
g55
g258
sVY
I3
sg57
I3
sg58
g259
sg59
I5
sg60
I5
sg56
g124
sVX
I3
sg61
g156
sg62
g125
sg63
I0
sg64
g140
stRp1603
ag1
(g1543
g1493
(dp1604
g55
g266
sVY
I4
sg57
I4
sg58
g267
sg59
I9
sg60
I9
sg56
g159
sVX
I9
sg61
g127
sg62
g136
sg63
g139
sg64
g177
stRp1605
ag1
(g1543
g1493
(dp1606
g55
g173
sVY
I2
sg57
I4
sg58
g174
sg59
I8
sg60
I8
sg56
g175
sVX
I2
sg61
g139
sg62
g136
sg63
g159
sg64
g177
stRp1607
ag1
(g1543
g1493
(dp1608
g55
g190
sVY
I6
sg57
I4
sg58
g191
sg59
I6
sg60
I6
sg56
g136
sVX
I6
sg61
g127
sg62
g159
sg63
g125
sg64
g194
stRp1609
ag1
(g1543
g1493
(dp1610
g55
g234
sVY
I2
sg57
I4
sg58
g235
sg59
I3
sg60
I3
sg56
g128
sVX
I9
sg61
g139
sg62
g159
sg63
g127
sg64
g194
stRp1611
ag1
(g1543
g1493
(dp1612
g55
g154
sVY
I3
sg57
I4
sg58
g155
sg59
I5
sg60
I5
sg56
g139
sVX
I3
sg61
g156
sg62
g159
sg63
g127
sg64
g160
stRp1613
ag1
(g1543
g1493
(dp1614
g55
g182
sVY
I3
sg57
I4
sg58
g183
sg59
I8
sg60
I8
sg56
g175
sVX
I3
sg61
g128
sg62
g159
sg63
g139
sg64
g160
stRp1615
ag1
(g1543
g1493
(dp1616
g55
g250
sVY
I4
sg57
I4
sg58
g251
sg59
I3
sg60
I3
sg56
g125
sVX
I3
sg61
g127
sg62
g124
sg63
g156
sg64
g129
stRp1617
ag1
(g1543
g1493
(dp1618
g55
g122
sVY
I2
sg57
I4
sg58
g123
sg59
I1
sg60
I1
sg56
g125
sVX
I7
sg61
g124
sg62
g127
sg63
g128
sg64
g129
stRp1619
asg1556
Nsg1557
I1
sg1558
I18
sg1559
I0
sg1560
I18
sg1561
I01
sbag1
(g1481
g3
NtRp1620
(dp1621
g1484
Nsg1485
(lp1622
sg1487
I150314000
sg10
g1565
sg6
g1489
sg1490
I1
sg24
I01
sg25
g26
sg1491
g1
(g1492
g1493
(dp1623
g21
g1509
(g1510
g1496
g1511
S'b'
tRp1624
(I1
(I18
I1
tg1513
I00
S'\x00\x00\x80?\x00\x00\x80?\x00\x00\x80?\x00\x00\x80?\x00\x00\x80?\x00\x00\x80?\x00\x00\x80?\x00\x00\x80?\x00\x00\x00\x00\x00\x00\x80?\x00\x00\x80?\x00\x00\x80?\x00\x00\x00\x00\x00\x00\x00\x00\x00\x00\x80?\x00\x00\x00\x00\x00\x00\x80?\x00\x00\x80?'
S'\x00\x00\x00\x00\x00\x00\x00\x00\x00\x00\x00\x00\x00\x00\x00\x00\x00\x00'
Ntbsg19
g1495
(g1496
(I0
tS'b'
tRp1625
(I1
(I18
I1
tg1498
I00
(lp1626
g410
ag349
ag434
ag401
ag450
ag358
ag376
ag308
ag418
ag367
ag319
ag426
ag290
ag329
ag442
ag392
ag338
ag384
atbsg23
g1509
(g1510
g1496
g1511
S'b'
tRp1627
(I1
(I18
I1
tg1513
I00
S'\xb4\x17\xb7?\xd3\xf9\x1d@\xadD\xcd?\x0c\xb3\xf6?I\x02 @\xa9\x99m@q\xf29A\xf9-O@}\xc4\x82@\xd7\x8d\x05@\xc4\xf8\x87A\x17\xfe\x91@\x00\x00\x00\x00\xa70{A\xfdc*@z,\x86A\xbek\x9d@\xbb\xc2\x13A'
S'\x00\x00\x00\x00\x00\x00\x00\x00\x00\x00\x00\x00\x01\x00\x00\x00\x00\x00'
Ntbsg1508
g1509
(g1510
g1496
g1511
S'b'
tRp1628
(I1
(I18
I1
tg1513
I00
S'\x00\x00\x80?\x00\x00\x80?\x00\x00\x80?\x00\x00\x80?\x00\x00\x80?\x00\x00\x80?\x00\x00\x80?\x00\x00\x80?\x00\x00\x80?\x00\x00\x80?\x00\x00\x80?\x00\x00\x80?\x00\x00\x80?\x00\x00\x80?\x00\x00\x80?\x00\x00\x80?\x00\x00\x80?\x00\x00\x80?'
S'\x00\x00\x00\x00\x00\x00\x00\x00\x00\x00\x00\x00\x00\x00\x00\x00\x00\x00'
Ntbsg20
g1495
(g1496
(I0
tS'b'
tRp1629
(I1
(I18
I1
tg1498
I00
(lp1630
S'7'
aS'9'
aS'2'
aS'5'
aS'9'
aS'3'
aS'8'
aS'3'
aS'6'
aS'6'
aS'5'
aS'9'
aNaS'5'
aS'6'
aS'3'
aS'5'
aS'5'
atbsg1521
g1509
(g1510
g1496
g1511
S'b'
tRp1631
(I1
(I18
I1
tg1513
I00
S'\x00\x00@A\x00\x00\xa0@\x00\x00pA\x00\x000A\x00\x00\x88A\x00\x00\xc0@\x00\x00\x00A\x00\x00\x80?\x00\x00PA\x00\x00\xe0@\x00\x00\x00@\x00\x00`A\x00\x00\x00\x00\x00\x00@@\x00\x00\x80A\x00\x00 A\x00\x00\x80@\x00\x00\x10A'
S'\x00\x00\x00\x00\x00\x00\x00\x00\x00\x00\x00\x00\x00\x00\x00\x00\x00\x00'
Ntbsg22
g1509
(g1510
g1496
g1511
S'b'
tRp1632
(I1
(I18
I1
tg1513
I00
S'H\xe1\x12@\x1aY\x89@4\x06I@/\xaf?@\x16P\x97A\x0c"`Aw\x1ds@\x10Q\x98@\xf7\xab\xd9@2\xd2k@9\xc7\x84AZm\xe1@]\xe8\x98A\t\x97\x82A\x82\xefYA\xd3vnA\xbc"eA!n-A'
S'\x00\x00\x00\x00\x00\x00\x00\x00\x00\x00\x00\x00\x00\x00\x00\x00\x00\x00'
NtbstRp1633
(dp1634
g1526
(dp1635
g1508
I01
sg20
I00
sg22
I01
sg21
I01
sg19
I00
sg23
I01
sg1521
I01
ssg1528
g1620
sg1529
(lp1636
g1508
ag1521
ag19
ag22
ag20
ag21
ag23
asg1531
(lp1637
I18
aI1
asbsg1533
g1534
sg1535
g1495
(g1496
(I0
tS'b'
tRp1638
(I1
(I18
I1
tg1498
I00
(lp1639
I12
aI7
aI10
aI13
aI16
aI1
aI5
aI9
aI6
aI17
aI15
aI3
aI0
aI8
aI11
aI2
aI14
aI4
atbsg1538
I01
sg1539
I1
sg1540
I-1
sg1541
(lp1640
g1
(g1543
g1493
(dp1641
g283
g408
sVY
I5
sg285
I2
sg286
g409
sg294
I7
sg291
I7
sg292
g297
sVX
I4
sg288
I0
sg296
g341
sg298
I0
sg300
g351
stRp1642
ag1
(g1543
g1493
(dp1643
g283
g347
sVY
I3
sg285
I2
sg286
g348
sg294
I9
sg291
I9
sg292
g299
sVX
I4
sg288
I0
sg296
g293
sg298
I0
sg300
g351
stRp1644
ag1
(g1543
g1493
(dp1645
g283
g432
sVY
I8
sg285
I2
sg286
g433
sg294
I2
sg291
I2
sg292
g309
sVX
I8
sg288
I0
sg296
g320
sg298
I0
sg300
g403
stRp1646
ag1
(g1543
g1493
(dp1647
g283
g399
sVY
I2
sg285
I2
sg286
g400
sg294
I5
sg291
I5
sg292
g309
sVX
I8
sg288
I0
sg296
g311
sg298
I0
sg300
g403
stRp1648
ag1
(g1543
g1493
(dp1649
g283
g448
sVY
I2
sg285
I3
sg286
g449
sg294
I9
sg291
I9
sg292
g299
sVX
I7
sg288
g289
sg296
g309
sg298
I0
sg300
g360
stRp1650
ag1
(g1543
g1493
(dp1651
g283
g356
sVY
I2
sg285
I3
sg286
g357
sg294
I3
sg291
I3
sg292
g311
sVX
I8
sg288
g297
sg296
g293
sg298
I0
sg300
g360
stRp1652
ag1
(g1543
g1493
(dp1653
g283
g374
sVY
I2
sg285
I3
sg286
g375
sg294
I8
sg291
I8
sg292
g330
sVX
I9
sg288
g289
sg296
g297
sg298
I0
sg300
g312
stRp1654
ag1
(g1543
g1493
(dp1655
g283
g306
sVY
I3
sg285
I3
sg286
g307
sg294
I3
sg291
I3
sg292
g309
sVX
I2
sg288
g299
sg296
g311
sg298
I0
sg300
g312
stRp1656
ag1
(g1543
g1493
(dp1657
g283
g416
sVY
I3
sg285
I3
sg286
g417
sg294
I9
sg291
I9
sg292
g297
sVX
I3
sg288
g341
sg296
g299
sg298
I0
sg300
g369
stRp1658
ag1
(g1543
g1493
(dp1659
g283
g365
sVY
I2
sg285
I3
sg286
g366
sg294
I6
sg291
I6
sg292
g311
sVX
I3
sg288
g293
sg296
g299
sg298
I0
sg300
g369
stRp1660
ag1
(g1543
g1493
(dp1661
g283
g317
sVY
I4
sg285
I4
sg286
g318
sg294
I5
sg291
I5
sg292
g320
sVX
I3
sg288
g311
sg296
g309
sg298
g299
sg300
g322
stRp1662
ag1
(g1543
g1493
(dp1663
g283
g424
sVY
I9
sg285
I4
sg286
g425
sg294
I9
sg291
I9
sg292
g297
sVX
I3
sg288
g311
sg296
g330
sg298
g339
sg300
g322
stRp1664
ag1
(g1543
g1493
(dp1665
g283
g284
sVY
I4
sg285
I4
sg286
g287
sg294
I5
sg291
I5
sg292
g293
sVX
I5
sg288
g289
sg296
g297
sg298
g299
sg300
g301
stRp1666
ag1
(g1543
g1493
(dp1667
g283
g327
sVY
I2
sg285
I4
sg286
g328
sg294
I7
sg291
I7
sg292
g330
sVX
I2
sg288
g299
sg296
g311
sg298
g297
sg300
g301
stRp1668
ag1
(g1543
g1493
(dp1669
g283
g440
sVY
I4
sg285
I4
sg286
g441
sg294
I6
sg291
I6
sg292
g320
sVX
I4
sg288
g293
sg296
g299
sg298
g311
sg300
g394
stRp1670
ag1
(g1543
g1493
(dp1671
g283
g390
sVY
I8
sg285
I4
sg286
g391
sg294
I9
sg291
I9
sg292
g311
sVX
I8
sg288
g309
sg296
g299
sg298
g320
sg300
g394
stRp1672
ag1
(g1543
g1493
(dp1673
g283
g336
sVY
I4
sg285
I4
sg286
g337
sg294
I5
sg291
I5
sg292
g339
sVX
I5
sg288
g320
sg296
g289
sg298
g341
sg300
g342
stRp1674
ag1
(g1543
g1493
(dp1675
g283
g382
sVY
I4
sg285
I4
sg286
g383
sg294
I5
sg291
I5
sg292
g311
sVX
I7
sg288
g297
sg296
g339
sg298
g330
sg300
g342
stRp1676
asg1556
Nsg1557
I4
sg1558
I18
sg1559
I0
sg1560
I18
sg1561
I01
sbag1
(g1481
g3
NtRp1677
(dp1678
g1484
Nsg1485
(lp1679
sg1487
I150314000
sg10
g1565
sg6
g1489
sg1490
I1
sg24
I01
sg25
g26
sg1491
g1
(g1492
g1493
(dp1680
g21
g1509
(g1510
g1496
g1511
S'b'
tRp1681
(I1
(I18
I1
tg1513
I00
S'\x00\x00\x80?\x00\x00\x80?\x00\x00\x80?\x00\x00\x80?\x00\x00\x00\x00\x00\x00\x80?\x00\x00\x80?\x00\x00\x80?\x00\x00\x80?\x00\x00\x80?\x00\x00\x00\x00\x00\x00\x00\x00\x00\x00\x80?\x00\x00\x80?\x00\x00\x80?\x00\x00\x80?\x00\x00\x80?\x00\x00\x80?'
S'\x00\x00\x00\x00\x00\x00\x00\x00\x00\x00\x00\x00\x00\x00\x00\x00\x00\x00'
Ntbsg19
g1495
(g1496
(I0
tS'b'
tRp1682
(I1
(I18
I1
tg1498
I00
(lp1683
g548
ag502
ag556
ag565
ag463
ag588
ag512
ag621
ag596
ag613
aNaNag573
ag521
ag605
ag531
ag491
ag540
atbsg23
g1509
(g1510
g1496
g1511
S'b'
tRp1684
(I1
(I18
I1
tg1513
I00
S'\x017\xb9?\x15\x0f\xd1?\xccH%@\\\xa47@\xcb\\\x83A\xb0\xf7\x8b@\xe7#\x81@8i\xdb@g\x8d\xf9@\xfa\xba\x0e@\x00\x00\x00\x00\x00\x00\x00\x00\x83\xda\xc6@\xb6i\xb6@\x8c\xe2\xa1@\xa6l1@\xacU4A\x08\x86\xf9@'
S'\x00\x00\x00\x00\x00\x00\x00\x00\x00\x00\x01\x01\x00\x00\x00\x00\x00\x00'
Ntbsg1508
g1509
(g1510
g1496
g1511
S'b'
tRp1685
(I1
(I18
I1
tg1513
I00
S'\x00\x00\x80?\x00\x00\x80?\x00\x00\x80?\x00\x00\x80?\x00\x00\x80?\x00\x00\x80?\x00\x00\x80?\x00\x00\x80?\x00\x00\x80?\x00\x00\x80?\x00\x00\x80?\x00\x00\x80?\x00\x00\x80?\x00\x00\x80?\x00\x00\x80?\x00\x00\x80?\x00\x00\x80?\x00\x00\x80?'
S'\x00\x00\x00\x00\x00\x00\x00\x00\x00\x00\x00\x00\x00\x00\x00\x00\x00\x00'
Ntbsg20
g1495
(g1496
(I0
tS'b'
tRp1686
(I1
(I18
I1
tg1498
I00
(lp1687
S'7'
aS'2'
aS'8'
aS'8'
aS'9'
aS'4'
aS'9'
aS'2'
aS'5'
aS'1'
aNaNaS'3'
aS'4'
aS'7'
aS'6'
aS'8'
aS'3'
atbsg1521
g1509
(g1510
g1496
g1511
S'b'
tRp1688
(I1
(I18
I1
tg1513
I00
S'\x00\x00\x00A\x00\x00@@\x00\x00\x10A\x00\x00 A\x00\x00\x00\x00\x00\x00PA\x00\x00\x80@\x00\x00\x88A\x00\x00`A\x00\x00\x80A\x00\x00\x80?\x00\x00@A\x00\x000A\x00\x00\xa0@\x00\x00pA\x00\x00\xc0@\x00\x00\x00@\x00\x00\xe0@'
S'\x00\x00\x00\x00\x00\x00\x00\x00\x00\x00\x00\x00\x00\x00\x00\x00\x00\x00'
Ntbsg22
g1509
(g1510
g1496
g1511
S'b'
tRp1689
(I1
(I18
I1
tg1513
I00
S"\x1f,+@\x8b\xd7\x8a@\xaa\x8d\xd1?\xa9\xc7=@\xf5o'A\xab\x1c\xf1@0\xa3\x92@\xf0%K@<\x06H@\xc6h\x05A\x00\x00\x00\x00\x00\x00\x00\x00\x05T\x92A4.$AP\xc5<AN\xc5\x11A++\x16A S4A"
S'\x00\x00\x00\x00\x00\x00\x00\x00\x00\x00\x01\x01\x00\x00\x00\x00\x00\x00'
NtbstRp1690
(dp1691
g1526
(dp1692
g1508
I01
sg20
I00
sg22
I01
sg21
I01
sg19
I00
sg23
I01
sg1521
I01
ssg1528
g1677
sg1529
(lp1693
g1508
ag1521
ag19
ag22
ag20
ag21
ag23
asg1531
(lp1694
I18
aI1
asbsg1533
g1534
sg1535
g1495
(g1496
(I0
tS'b'
tRp1695
(I1
(I18
I1
tg1498
I00
(lp1696
I4
aI10
aI16
aI1
aI6
aI13
aI15
aI17
aI0
aI2
aI3
aI12
aI11
aI5
aI8
aI14
aI9
aI7
atbsg1538
I01
sg1539
I1
sg1540
I-1
sg1541
(lp1697
g1
(g1543
g1493
(dp1698
g456
g546
sVY
I6
sg458
I2
sg459
g547
sg467
I7
sg464
I7
sg465
g483
sVX
I3
sg461
I0
sg469
g494
sg471
I0
sg472
g505
stRp1699
ag1
(g1543
g1493
(dp1700
g456
g500
sVY
I4
sg458
I2
sg459
g501
sg467
I2
sg464
I2
sg465
g480
sVX
I5
sg461
I0
sg469
g504
sg471
I0
sg472
g505
stRp1701
ag1
(g1543
g1493
(dp1702
g456
g554
sVY
I2
sg458
I2
sg459
g555
sg467
I8
sg464
I8
sg465
g494
sVX
I2
sg461
I0
sg469
g481
sg471
I0
sg472
g558
stRp1703
ag1
(g1543
g1493
(dp1704
g456
g563
sVY
I2
sg458
I2
sg459
g564
sg467
I8
sg464
I8
sg465
g522
sVX
I2
sg461
I0
sg469
g481
sg471
I0
sg472
g558
stRp1705
ag1
(g1543
g1493
(dp1706
g456
g457
sVY
I3
sg458
I3
sg459
g460
sg467
I4
sg464
I4
sg465
g466
sVX
I8
sg461
g462
sg469
g470
sg471
I0
sg472
g473
stRp1707
ag1
(g1543
g1493
(dp1708
g456
g586
sVY
I2
sg458
I3
sg459
g587
sg467
I4
sg464
I4
sg465
g483
sVX
I3
sg461
g481
sg469
g522
sg471
I0
sg472
g473
stRp1709
ag1
(g1543
g1493
(dp1710
g456
g510
sVY
I2
sg458
I3
sg459
g511
sg467
I9
sg464
I9
sg465
g494
sVX
I2
sg461
g466
sg469
g480
sg471
I0
sg472
g514
stRp1711
ag1
(g1543
g1493
(dp1712
g456
g619
sVY
I2
sg458
I3
sg459
g620
sg467
I2
sg464
I2
sg465
g504
sVX
I9
sg461
g483
sg469
g480
sg471
I0
sg472
g514
stRp1713
ag1
(g1543
g1493
(dp1714
g456
g594
sVY
I4
sg458
I3
sg459
g595
sg467
I5
sg464
I5
sg465
g466
sVX
I8
sg461
g470
sg469
g493
sg471
I0
sg472
g598
stRp1715
ag1
(g1543
g1493
(dp1716
g456
g611
sVY
I6
sg458
I3
sg459
g612
sg467
I1
sg464
I1
sg465
g480
sVX
I8
sg461
g504
sg469
g483
sg471
I0
sg472
g598
stRp1717
ag1
(g1543
g1493
(dp1718
g456
g478
sVY
I3
sg458
I4
sg459
g479
sg467
I2
sg464
I2
sg465
g481
sVX
I6
sg461
g480
sg469
g470
sg471
g483
sg472
g484
stRp1719
ag1
(g1543
g1493
(dp1720
g456
g579
sVY
I2
sg458
I4
sg459
g580
sg467
I8
sg464
I8
sg465
g480
sVX
I2
sg461
g462
sg469
g522
sg471
g466
sg472
g484
stRp1721
ag1
(g1543
g1493
(dp1722
g456
g571
sVY
I3
sg458
I4
sg459
g572
sg467
I3
sg464
I3
sg465
g470
sVX
I4
sg461
g466
sg469
g480
sg471
g462
sg472
g524
stRp1723
ag1
(g1543
g1493
(dp1724
g456
g519
sVY
I3
sg458
I4
sg459
g520
sg467
I4
sg464
I4
sg465
g522
sVX
I7
sg461
g462
sg469
g483
sg471
g480
sg472
g524
stRp1725
ag1
(g1543
g1493
(dp1726
g456
g603
sVY
I4
sg458
I4
sg459
g604
sg467
I7
sg464
I7
sg465
g480
sVX
I8
sg461
g494
sg469
g483
sg471
g481
sg472
g533
stRp1727
ag1
(g1543
g1493
(dp1728
g456
g529
sVY
I3
sg458
I4
sg459
g530
sg467
I6
sg464
I6
sg465
g481
sVX
I5
sg461
g504
sg469
g466
sg471
g493
sg472
g533
stRp1729
ag1
(g1543
g1493
(dp1730
g456
g489
sVY
I2
sg458
I4
sg459
g490
sg467
I8
sg464
I8
sg465
g466
sVX
I4
sg461
g462
sg469
g493
sg471
g494
sg472
g495
stRp1731
ag1
(g1543
g1493
(dp1732
g456
g538
sVY
I5
sg458
I4
sg459
g539
sg467
I3
sg464
I3
sg465
g493
sVX
I9
sg461
g462
sg469
g466
sg471
g504
sg472
g495
stRp1733
asg1556
Nsg1557
I7
sg1558
I18
sg1559
I0
sg1560
I18
sg1561
I01
sbag1
(g1481
g3
NtRp1734
(dp1735
g1484
Nsg1485
(lp1736
sg1487
I150314000
sg10
g1565
sg6
g1489
sg1490
I1
sg24
I01
sg25
g26
sg1491
g1
(g1492
g1493
(dp1737
g21
g1509
(g1510
g1496
g1511
S'b'
tRp1738
(I1
(I18
I1
tg1513
I00
S'\x00\x00\x80?\x00\x00\x80?\x00\x00\x80?\x00\x00\x80?\x00\x00\x80?\x00\x00\x80?\x00\x00\x80?\x00\x00\x80?\x00\x00\x80?\x00\x00\x00\x00\x00\x00\x80?\x00\x00\x80?\x00\x00\x80?\x00\x00\x80?\x00\x00\x80?\x00\x00\x80?\x00\x00\x00\x00\x00\x00\x00\x00'
S'\x00\x00\x00\x00\x00\x00\x00\x00\x00\x00\x00\x00\x00\x00\x00\x00\x00\x00'
Ntbsg19
g1495
(g1496
(I0
tS'b'
tRp1739
(I1
(I18
I1
tg1498
I00
(lp1740
g791
ag782
ag727
ag718
ag692
ag673
ag759
ag735
ag634
aNag664
ag701
ag774
ag682
ag652
ag744
aNaNatbsg23
g1509
(g1510
g1496
g1511
S'b'
tRp1741
(I1
(I18
I1
tg1513
I00
S'~\x14\xe8?\x17T\xec?\x1b\xa7X@\x80\xb2\xa2?\x9e\x99`@\xb6\xfc\x1f@Y\\O@\xf0\xb2\xaa@D@\x9d@\x00\x00\x00\x00"\xc0\xc2@\xc0\xeb8A\xaf\xab\xa7@\x1f)\rAp\\\xa1@)R\xaf@\x00\x00\x00\x00\x00\x00\x00\x00'
S'\x00\x00\x00\x00\x00\x00\x00\x00\x00\x01\x00\x00\x00\x00\x00\x00\x01\x01'
Ntbsg1508
g1509
(g1510
g1496
g1511
S'b'
tRp1742
(I1
(I18
I1
tg1513
I00
S'\x00\x00\x80?\x00\x00\x80?\x00\x00\x80?\x00\x00\x80?\x00\x00\x80?\x00\x00\x80?\x00\x00\x80?\x00\x00\x80?\x00\x00\x80?\x00\x00\x80?\x00\x00\x80?\x00\x00\x80?\x00\x00\x80?\x00\x00\x80?\x00\x00\x80?\x00\x00\x80?\x00\x00\x80?\x00\x00\x80?'
S'\x00\x00\x00\x00\x00\x00\x00\x00\x00\x00\x00\x00\x00\x00\x00\x00\x00\x00'
Ntbsg20
g1495
(g1496
(I0
tS'b'
tRp1743
(I1
(I18
I1
tg1498
I00
(lp1744
S'2'
aS'3'
aS'1'
aS'6'
aS'9'
aS'4'
aS'6'
aS'3'
aS'7'
aNaS'8'
aS'8'
aS'8'
aS'2'
aS'8'
aS'1'
aNaNatbsg1521
g1509
(g1510
g1496
g1511
S'b'
tRp1745
(I1
(I18
I1
tg1513
I00
S'\x00\x00\x88A\x00\x00\x80A\x00\x00\x10A\x00\x00\x00A\x00\x00\xa0@\x00\x00@@\x00\x00PA\x00\x00 A\x00\x00\x00\x00\x00\x00@A\x00\x00\x00@\x00\x00\xc0@\x00\x00pA\x00\x00\x80@\x00\x00\x80?\x00\x000A\x00\x00\xe0@\x00\x00`A'
S'\x00\x00\x00\x00\x00\x00\x00\x00\x00\x00\x00\x00\x00\x00\x00\x00\x00\x00'
Ntbsg22
g1509
(g1510
g1496
g1511
S'b'
tRp1746
(I1
(I18
I1
tg1513
I00
S'\xed\x8c\x07@\x1d\xc8\xb2@\x0e0S@#\x01\x99@\x1b\x06\xfd@\xe6\x11TA,2\x8f@z\xc6\x80AJ\xe8\xa4@\x00\x00\x00\x00R\xc8\x8fA\xba\x1f\xa8@X5\x1bA2y\x1bA\xe9ErA\x94d+A\x00\x00\x00\x00\x00\x00\x00\x00'
S'\x00\x00\x00\x00\x00\x00\x00\x00\x00\x01\x00\x00\x00\x00\x00\x00\x01\x01'
NtbstRp1747
(dp1748
g1526
(dp1749
g1508
I01
sg20
I00
sg22
I01
sg21
I01
sg19
I00
sg23
I01
sg1521
I01
ssg1528
g1734
sg1529
(lp1750
g1508
ag1521
ag19
ag22
ag20
ag21
ag23
asg1531
(lp1751
I18
aI1
asbsg1533
g1534
sg1535
g1495
(g1496
(I0
tS'b'
tRp1752
(I1
(I18
I1
tg1498
I00
(lp1753
I8
aI14
aI10
aI5
aI13
aI4
aI11
aI16
aI3
aI2
aI7
aI15
aI9
aI6
aI17
aI12
aI1
aI0
atbsg1538
I01
sg1539
I1
sg1540
I-1
sg1541
(lp1754
g1
(g1543
g1493
(dp1755
g627
g789
sVY
I2
sg629
I2
sg630
g790
sg638
I2
sg635
I2
sg636
g641
sVX
I3
sg632
I0
sg640
g633
sg642
I0
sg643
g784
stRp1756
ag1
(g1543
g1493
(dp1757
g627
g780
sVY
I2
sg629
I2
sg630
g781
sg638
I3
sg635
I3
sg636
g656
sVX
I6
sg632
I0
sg640
g703
sg642
I0
sg643
g784
stRp1758
ag1
(g1543
g1493
(dp1759
g627
g725
sVY
I4
sg629
I2
sg630
g726
sg638
I1
sg635
I1
sg636
g633
sVX
I8
sg632
I0
sg640
g656
sg642
I0
sg643
g720
stRp1760
ag1
(g1543
g1493
(dp1761
g627
g716
sVY
I2
sg629
I2
sg630
g717
sg638
I6
sg635
I6
sg636
g651
sVX
I3
sg632
I0
sg640
g641
sg642
I0
sg643
g720
stRp1762
ag1
(g1543
g1493
(dp1763
g627
g690
sVY
I8
sg629
I3
sg630
g691
sg638
I9
sg635
I9
sg636
g693
sVX
I6
sg632
g655
sg640
g651
sg642
I0
sg643
g675
stRp1764
ag1
(g1543
g1493
(dp1765
g627
g671
sVY
I2
sg629
I3
sg630
g672
sg638
I4
sg635
I4
sg636
g656
sVX
I3
sg632
g637
sg640
g633
sg642
I0
sg643
g675
stRp1766
ag1
(g1543
g1493
(dp1767
g627
g757
sVY
I3
sg629
I3
sg630
g758
sg638
I6
sg635
I6
sg636
g651
sVX
I3
sg632
g637
sg640
g693
sg642
I0
sg643
g737
stRp1768
ag1
(g1543
g1493
(dp1769
g627
g733
sVY
I2
sg629
I3
sg630
g734
sg638
I3
sg635
I3
sg636
g703
sVX
I8
sg632
g693
sg640
g641
sg642
I0
sg643
g737
stRp1770
ag1
(g1543
g1493
(dp1771
g627
g628
sVY
I3
sg629
I3
sg630
g631
sg638
I7
sg635
I7
sg636
g637
sVX
I6
sg632
g633
sg640
g641
sg642
I0
sg643
g644
stRp1772
ag1
(g1543
g1493
(dp1773
g627
g750
sVY
I3
sg629
I3
sg630
g751
sg638
I1
sg635
I1
sg636
g693
sVX
I3
sg632
g651
sg640
g655
sg642
I0
sg643
g644
stRp1774
ag1
(g1543
g1493
(dp1775
g627
g662
sVY
I6
sg629
I4
sg630
g663
sg638
I8
sg635
I8
sg636
g653
sVX
I6
sg632
g656
sg640
g651
sg642
g655
sg643
g666
stRp1776
ag1
(g1543
g1493
(dp1777
g627
g699
sVY
I9
sg629
I4
sg630
g700
sg638
I8
sg635
I8
sg636
g656
sVX
I3
sg632
g637
sg640
g703
sg642
g653
sg643
g666
stRp1778
ag1
(g1543
g1493
(dp1779
g627
g772
sVY
I2
sg629
I4
sg630
g773
sg638
I8
sg635
I8
sg636
g651
sVX
I3
sg632
g641
sg640
g653
sg642
g655
sg643
g685
stRp1780
ag1
(g1543
g1493
(dp1781
g627
g680
sVY
I3
sg629
I4
sg630
g681
sg638
I2
sg635
I2
sg636
g683
sVX
I2
sg632
g653
sg640
g655
sg642
g656
sg643
g685
stRp1782
ag1
(g1543
g1493
(dp1783
g627
g649
sVY
I7
sg629
I4
sg630
g650
sg638
I8
sg635
I8
sg636
g653
sVX
I6
sg632
g651
sg640
g655
sg642
g656
sg643
g657
stRp1784
ag1
(g1543
g1493
(dp1785
g627
g742
sVY
I9
sg629
I4
sg630
g743
sg638
I1
sg635
I1
sg636
g641
sVX
I9
sg632
g633
sg640
g655
sg642
g653
sg643
g657
stRp1786
ag1
(g1543
g1493
(dp1787
g627
g708
sVY
I3
sg629
I4
sg630
g709
sg638
I6
sg635
I6
sg636
g637
sVX
I9
sg632
g641
sg640
g693
sg642
g633
sg643
g711
stRp1788
ag1
(g1543
g1493
(dp1789
g627
g765
sVY
I4
sg629
I4
sg630
g766
sg638
I6
sg635
I6
sg636
g653
sVX
I2
sg632
g641
sg640
g655
sg642
g683
sg643
g711
stRp1790
asg1556
Nsg1557
I0
sg1558
I18
sg1559
I0
sg1560
I18
sg1561
I01
sbag1
(g1481
g3
NtRp1791
(dp1792
g1484
Nsg1485
(lp1793
sg1487
I150314000
sg10
g1565
sg6
g1489
sg1490
I1
sg24
I01
sg25
g26
sg1491
g1
(g1492
g1493
(dp1794
g21
g1509
(g1510
g1496
g1511
S'b'
tRp1795
(I1
(I18
I1
tg1513
I00
S'\x00\x00\x80?\x00\x00\x80?\x00\x00\x80?\x00\x00\x80?\x00\x00\x80?\x00\x00\x80?\x00\x00\x80?\x00\x00\x80?\x00\x00\x80?\x00\x00\x80?\x00\x00\x80?\x00\x00\x80?\x00\x00\x80?\x00\x00\x00\x00\x00\x00\x00\x00\x00\x00\x80?\x00\x00\x00\x00\x00\x00\x00\x00'
S'\x00\x00\x00\x00\x00\x00\x00\x00\x00\x00\x00\x00\x00\x00\x00\x00\x00\x00'
Ntbsg22
g1509
(g1510
g1496
g1511
S'b'
tRp1796
(I1
(I18
I1
tg1513
I00
S's\xb1\x82@a\xe1\x16@\x82\xe8CA\xd8\xd5\xdf?4\xcf\xaf@R`AA\x97 \xc1@\x1a\xc1\x97@\x00\xba\xdf@\xbf\x9f\x96@\xb7\xecFA\xd7t|Ac\x94[A\xfec>A\x00\x00\x00\x00Z\x88\\A\x00\x00\x00\x00\xa1\xb7\x1bA'
S'\x00\x00\x00\x00\x00\x00\x00\x00\x00\x00\x00\x00\x00\x00\x01\x00\x01\x00'
Ntbsg23
g1509
(g1510
g1496
g1511
S'b'
tRp1797
(I1
(I18
I1
tg1513
I00
S'# \x1e@\x15\xfd\xcb?%R\xee?\x83\\\xc5?/L\x81@)\xc9\x14@\xaa\x84b@\x16\xb6\x80@\x00\xc4\x13@\xc8Q\xde@j\xd1\x9d@]\xc9\xb4@4\xf9\xe0@\xf1@\x12A\x00\x00\x00\x00\xf8\x00\xf7@\x00\x00\x00\x00.\xb9=A'
S'\x00\x00\x00\x00\x00\x00\x00\x00\x00\x00\x00\x00\x00\x00\x01\x00\x01\x00'
Ntbsg1508
g1509
(g1510
g1496
g1511
S'b'
tRp1798
(I1
(I18
I1
tg1513
I00
S'\x00\x00\x80?\x00\x00\x80?\x00\x00\x80?\x00\x00\x80?\x00\x00\x80?\x00\x00\x80?\x00\x00\x80?\x00\x00\x80?\x00\x00\x80?\x00\x00\x80?\x00\x00\x80?\x00\x00\x80?\x00\x00\x80?\x00\x00\x80?\x00\x00\x80?\x00\x00\x80?\x00\x00\x80?\x00\x00\x80?'
S'\x00\x00\x00\x00\x00\x00\x00\x00\x00\x00\x00\x00\x00\x00\x00\x00\x00\x00'
Ntbsg20
g1495
(g1496
(I0
tS'b'
tRp1799
(I1
(I18
I1
tg1498
I00
(lp1800
S'1'
aS'8'
aS'4'
aS'1'
aS'3'
aS'9'
aS'1'
aS'6'
aS'6'
aS'8'
aS'8'
aS'1'
aS'6'
aS'2'
aNaS'5'
aNaS'1'
atbsg1521
g1509
(g1510
g1496
g1511
S'b'
tRp1801
(I1
(I18
I1
tg1513
I00
S'\x00\x00\xe0@\x00\x00\x88A\x00\x00 A\x00\x00\x80A\x00\x00@A\x00\x00\x80@\x00\x000A\x00\x00\xc0@\x00\x00\xa0@\x00\x00@@\x00\x00\x00@\x00\x00pA\x00\x00`A\x00\x00\x80?\x00\x00\x00\x00\x00\x00\x00A\x00\x00PA\x00\x00\x10A'
S'\x00\x00\x00\x00\x00\x00\x00\x00\x00\x00\x00\x00\x00\x00\x00\x00\x00\x00'
Ntbsg19
g1495
(g1496
(I0
tS'b'
tRp1802
(I1
(I18
I1
tg1498
I00
(lp1803
g880
ag962
ag906
ag954
ag923
ag854
ag915
ag871
ag863
ag844
ag833
ag946
ag938
ag822
aNag889
aNag897
atbstRp1804
(dp1805
g1526
(dp1806
g1508
I01
sg20
I00
sg19
I00
sg21
I01
sg22
I01
sg23
I01
sg1521
I01
ssg1528
g1791
sg1529
(lp1807
g1508
ag1521
ag19
ag20
ag21
ag22
ag23
asg1531
(lp1808
I18
aI1
asbsg1533
g1534
sg1535
g1495
(g1496
(I0
tS'b'
tRp1809
(I1
(I18
I1
tg1498
I00
(lp1810
I14
aI13
aI10
aI9
aI5
aI8
aI7
aI0
aI15
aI17
aI2
aI6
aI4
aI16
aI12
aI11
aI3
aI1
atbsg1538
I01
sg1539
I1
sg1540
I-1
sg1541
(lp1811
g1
(g1543
g1493
(dp1812
g797
g878
sVY
I3
sg799
I2
sg800
g879
sg807
I1
sg804
I1
sg805
g845
sVX
I9
sg802
I0
sg809
g803
sg811
I0
sg813
g882
stRp1813
ag1
(g1543
g1493
(dp1814
g797
g960
sVY
I2
sg799
I2
sg800
g961
sg807
I8
sg804
I8
sg805
g812
sVX
I2
sg802
I0
sg809
g843
sg811
I0
sg813
g882
stRp1815
ag1
(g1543
g1493
(dp1816
g797
g904
sVY
I3
sg799
I2
sg800
g905
sg807
I4
sg804
I4
sg805
g835
sVX
I6
sg802
I0
sg809
g825
sg811
I0
sg813
g908
stRp1817
ag1
(g1543
g1493
(dp1818
g797
g952
sVY
I2
sg799
I2
sg800
g953
sg807
I1
sg804
I1
sg805
g803
sVX
I6
sg802
I0
sg809
g845
sg811
I0
sg813
g908
stRp1819
ag1
(g1543
g1493
(dp1820
g797
g921
sVY
I9
sg799
I3
sg800
g922
sg807
I3
sg804
I3
sg805
g806
sVX
I5
sg802
g810
sg809
g835
sg811
I0
sg813
g856
stRp1821
ag1
(g1543
g1493
(dp1822
g797
g852
sVY
I3
sg799
I3
sg800
g853
sg807
I9
sg804
I9
sg805
g821
sVX
I5
sg802
g825
sg809
g843
sg811
I0
sg813
g856
stRp1823
ag1
(g1543
g1493
(dp1824
g797
g913
sVY
I2
sg799
I3
sg800
g914
sg807
I1
sg804
I1
sg805
g803
sVX
I7
sg802
g810
sg809
g845
sg811
I0
sg813
g873
stRp1825
ag1
(g1543
g1493
(dp1826
g797
g869
sVY
I6
sg799
I3
sg800
g870
sg807
I6
sg804
I6
sg805
g843
sVX
I6
sg802
g821
sg809
g845
sg811
I0
sg813
g873
stRp1827
ag1
(g1543
g1493
(dp1828
g797
g861
sVY
I2
sg799
I3
sg800
g862
sg807
I6
sg804
I6
sg805
g810
sVX
I2
sg802
g823
sg809
g812
sg811
I0
sg813
g847
stRp1829
ag1
(g1543
g1493
(dp1830
g797
g841
sVY
I6
sg799
I3
sg800
g842
sg807
I8
sg804
I8
sg805
g845
sVX
I2
sg802
g843
sg809
g812
sg811
I0
sg813
g847
stRp1831
ag1
(g1543
g1493
(dp1832
g797
g831
sVY
I4
sg799
I4
sg800
g832
sg807
I8
sg804
I8
sg805
g812
sVX
I3
sg802
g806
sg809
g835
sg811
g810
sg813
g836
stRp1833
ag1
(g1543
g1493
(dp1834
g797
g944
sVY
I8
sg799
I4
sg800
g945
sg807
I1
sg804
I1
sg805
g806
sVX
I2
sg802
g810
sg809
g835
sg811
g812
sg813
g836
stRp1835
ag1
(g1543
g1493
(dp1836
g797
g936
sVY
I5
sg799
I4
sg800
g937
sg807
I6
sg804
I6
sg805
g803
sVX
I4
sg802
g806
sg809
g812
sg811
g825
sg813
g826
stRp1837
ag1
(g1543
g1493
(dp1838
g797
g819
sVY
I3
sg799
I4
sg800
g820
sg807
I7
sg804
I7
sg805
g823
sVX
I2
sg802
g821
sg809
g825
sg811
g806
sg813
g826
stRp1839
ag1
(g1543
g1493
(dp1840
g797
g798
sVY
I3
sg799
I4
sg800
g801
sg807
I5
sg804
I5
sg805
g806
sVX
I3
sg802
g803
sg809
g810
sg811
g812
sg813
g814
stRp1841
ag1
(g1543
g1493
(dp1842
g797
g887
sVY
I4
sg799
I4
sg800
g888
sg807
I5
sg804
I5
sg805
g810
sVX
I8
sg802
g843
sg809
g845
sg811
g821
sg813
g814
stRp1843
ag1
(g1543
g1493
(dp1844
g797
g929
sVY
I2
sg799
I4
sg800
g930
sg807
I5
sg804
I5
sg805
g806
sVX
I6
sg802
g821
sg809
g810
sg811
g835
sg813
g899
stRp1845
ag1
(g1543
g1493
(dp1846
g797
g895
sVY
I2
sg799
I4
sg800
g896
sg807
I3
sg804
I3
sg805
g806
sVX
I3
sg802
g825
sg809
g821
sg811
g835
sg813
g899
stRp1847
asg1556
Nsg1557
I1
sg1558
I18
sg1559
I0
sg1560
I18
sg1561
I01
sbag1
(g1481
g3
NtRp1848
(dp1849
g1484
Nsg1485
(lp1850
sg1487
I150314000
sg10
g1565
sg6
g1489
sg1490
I1
sg24
I01
sg25
g26
sg1491
g1
(g1492
g1493
(dp1851
g21
g1509
(g1510
g1496
g1511
S'b'
tRp1852
(I1
(I18
I1
tg1513
I00
S'\x00\x00\x80?\x00\x00\x80?\x00\x00\x80?\x00\x00\x80?\x00\x00\x80?\x00\x00\x80?\x00\x00\x80?\x00\x00\x00\x00\x00\x00\x80?\x00\x00\x80?\x00\x00\x80?\x00\x00\x00\x00\x00\x00\x00\x00\x00\x00\x80?\x00\x00\x80?\x00\x00\x00\x00\x00\x00\x80?\x00\x00\x00\x00'
S'\x00\x00\x00\x00\x00\x00\x00\x00\x00\x00\x00\x00\x00\x00\x00\x00\x00\x00'
Ntbsg19
g1495
(g1496
(I0
tS'b'
tRp1853
(I1
(I18
I1
tg1498
I00
(lp1854
g1131
ag1100
ag1014
ag1059
ag1123
ag1050
ag975
aNag1092
ag992
ag1084
aNag1067
ag1004
ag1031
aNag1039
aNatbsg23
g1509
(g1510
g1496
g1511
S'b'
tRp1855
(I1
(I18
I1
tg1513
I00
S'\xe6.\xcd?\x87/L@\x94\x00\xea?Ca\xae?\x0bR0@\x0fC\x9a@\x0b\xdd\x9b@\x00\x00\x00\x00\xd4\x94\x91@\xd1]\x9e@\xb4HLA\x00\x00\x00\x00\x82\xa9\x15AA\x98\xe8@\xf4\xca\x82@\x00\x00\x00\x00\x18\xbcx@\x00\x00\x00\x00'
S'\x00\x00\x00\x00\x00\x00\x00\x01\x00\x00\x00\x01\x00\x00\x00\x01\x00\x01'
Ntbsg1508
g1509
(g1510
g1496
g1511
S'b'
tRp1856
(I1
(I18
I1
tg1513
I00
S'\x00\x00\x80?\x00\x00\x80?\x00\x00\x80?\x00\x00\x80?\x00\x00\x80?\x00\x00\x80?\x00\x00\x80?\x00\x00\x80?\x00\x00\x80?\x00\x00\x80?\x00\x00\x80?\x00\x00\x80?\x00\x00\x80?\x00\x00\x80?\x00\x00\x80?\x00\x00\x80?\x00\x00\x80?\x00\x00\x80?'
S'\x00\x00\x00\x00\x00\x00\x00\x00\x00\x00\x00\x00\x00\x00\x00\x00\x00\x00'
Ntbsg20
g1495
(g1496
(I0
tS'b'
tRp1857
(I1
(I18
I1
tg1498
I00
(lp1858
S'1'
aS'4'
aS'9'
aS'6'
aS'6'
aS'7'
aS'8'
aNaS'1'
aS'9'
aS'1'
aNaS'8'
aS'3'
aS'7'
aNaS'5'
aNatbsg1521
g1509
(g1510
g1496
g1511
S'b'
tRp1859
(I1
(I18
I1
tg1513
I00
S'\x00\x00\x88A\x00\x00PA\x00\x00@@\x00\x00\x00A\x00\x00\x80A\x00\x00\xe0@\x00\x00\x00\x00\x00\x00`A\x00\x00@A\x00\x00\x80?\x00\x000A\x00\x00 A\x00\x00\x10A\x00\x00\x00@\x00\x00\xa0@\x00\x00\x80@\x00\x00\xc0@\x00\x00pA'
S'\x00\x00\x00\x00\x00\x00\x00\x00\x00\x00\x00\x00\x00\x00\x00\x00\x00\x00'
Ntbsg22
g1509
(g1510
g1496
g1511
S'b'
tRp1860
(I1
(I18
I1
tg1513
I00
S'V\xcb\xd7?bR\xe8?\xa3\xfcI@\x8c/\x02@\xc9`\x9a@\xd7\x9cc@\xc05FA\x00\x00\x00\x00\x07\x83\xba@9y\xfd@\xc1\xb1xA\x00\x00\x00\x00\xef\xb4\x97@<\x93aAe\x99|A\x00\x00\x00\x00\xf8<oA\x00\x00\x00\x00'
S'\x00\x00\x00\x00\x00\x00\x00\x01\x00\x00\x00\x01\x00\x00\x00\x01\x00\x01'
NtbstRp1861
(dp1862
g1526
(dp1863
g1508
I01
sg20
I00
sg22
I01
sg21
I01
sg19
I00
sg23
I01
sg1521
I01
ssg1528
g1848
sg1529
(lp1864
g1508
ag1521
ag19
ag22
ag20
ag21
ag23
asg1531
(lp1865
I18
aI1
asbsg1533
g1534
sg1535
g1495
(g1496
(I0
tS'b'
tRp1866
(I1
(I18
I1
tg1498
I00
(lp1867
I6
aI9
aI13
aI2
aI15
aI14
aI16
aI5
aI3
aI12
aI11
aI10
aI8
aI1
aI7
aI17
aI4
aI0
atbsg1538
I01
sg1539
I1
sg1540
I-1
sg1541
(lp1868
g1
(g1543
g1493
(dp1869
g968
g1129
sVY
I2
sg970
I2
sg971
g1130
sg979
I1
sg976
I1
sg977
g974
sVX
I9
sg973
I0
sg981
g1005
sg983
I0
sg984
g1102
stRp1870
ag1
(g1543
g1493
(dp1871
g968
g1098
sVY
I4
sg970
I2
sg971
g1099
sg979
I4
sg976
I4
sg977
g974
sVX
I3
sg973
I0
sg981
g978
sg983
I0
sg984
g1102
stRp1872
ag1
(g1543
g1493
(dp1873
g968
g1012
sVY
I4
sg970
I2
sg971
g1013
sg979
I9
sg976
I9
sg977
g978
sVX
I2
sg973
I0
sg981
g1003
sg983
I0
sg984
g1016
stRp1874
ag1
(g1543
g1493
(dp1875
g968
g1057
sVY
I6
sg970
I2
sg971
g1058
sg979
I6
sg976
I6
sg977
g1005
sVX
I8
sg973
I0
sg981
g995
sg983
I0
sg984
g1016
stRp1876
ag1
(g1543
g1493
(dp1877
g968
g1121
sVY
I4
sg970
I3
sg971
g1122
sg979
I6
sg976
I6
sg977
g1041
sVX
I6
sg973
g993
sg981
g1042
sg983
I0
sg984
g1052
stRp1878
ag1
(g1543
g1493
(dp1879
g968
g1048
sVY
I9
sg970
I3
sg971
g1049
sg979
I7
sg976
I7
sg977
g982
sVX
I9
sg973
g1041
sg981
g1005
sg983
I0
sg984
g1052
stRp1880
ag1
(g1543
g1493
(dp1881
g968
g969
sVY
I4
sg970
I3
sg971
g972
sg979
I8
sg976
I8
sg977
g978
sVX
I3
sg973
g974
sg981
g982
sg983
I0
sg984
g985
stRp1882
ag1
(g1543
g1493
(dp1883
g968
g1107
sVY
I2
sg970
I3
sg971
g1108
sg979
I2
sg976
I2
sg977
g1068
sVX
I4
sg973
g993
sg981
g1003
sg983
I0
sg984
g985
stRp1884
ag1
(g1543
g1493
(dp1885
g968
g1090
sVY
I2
sg970
I3
sg971
g1091
sg979
I1
sg976
I1
sg977
g993
sVX
I8
sg973
g1068
sg981
g1041
sg983
I0
sg984
g996
stRp1886
ag1
(g1543
g1493
(dp1887
g968
g990
sVY
I3
sg970
I3
sg971
g991
sg979
I9
sg976
I9
sg977
g993
sVX
I2
sg973
g978
sg981
g995
sg983
I0
sg984
g996
stRp1888
ag1
(g1543
g1493
(dp1889
g968
g1082
sVY
I3
sg970
I4
sg971
g1083
sg979
I1
sg976
I1
sg977
g1041
sVX
I6
sg973
g974
sg981
g1068
sg983
g982
sg984
g1077
stRp1890
ag1
(g1543
g1493
(dp1891
g968
g1074
sVY
I2
sg970
I4
sg971
g1075
sg979
I2
sg976
I2
sg977
g1041
sVX
I3
sg973
g974
sg981
g978
sg983
g982
sg984
g1077
stRp1892
ag1
(g1543
g1493
(dp1893
g968
g1065
sVY
I9
sg970
I4
sg971
g1066
sg979
I1
sg976
I1
sg977
g1068
sVX
I3
sg973
g995
sg981
g1041
sg983
g982
sg984
g1007
stRp1894
ag1
(g1543
g1493
(dp1895
g968
g1001
sVY
I3
sg970
I4
sg971
g1002
sg979
I3
sg976
I3
sg977
g1005
sVX
I6
sg973
g1003
sg981
g995
sg983
g993
sg984
g1007
stRp1896
ag1
(g1543
g1493
(dp1897
g968
g1029
sVY
I2
sg970
I4
sg971
g1030
sg979
I7
sg976
I7
sg977
g993
sVX
I2
sg973
g978
sg981
g1003
sg983
g995
sg984
g1024
stRp1898
ag1
(g1543
g1493
(dp1899
g968
g1021
sVY
I2
sg970
I4
sg971
g1022
sg979
I1
sg976
I1
sg977
g1003
sVX
I8
sg973
g1005
sg981
g974
sg983
g993
sg984
g1024
stRp1900
ag1
(g1543
g1493
(dp1901
g968
g1037
sVY
I2
sg970
I4
sg971
g1038
sg979
I5
sg976
I5
sg977
g993
sVX
I2
sg973
g995
sg981
g1041
sg983
g1042
sg984
g1043
stRp1902
ag1
(g1543
g1493
(dp1903
g968
g1114
sVY
I2
sg970
I4
sg971
g1115
sg979
I7
sg976
I7
sg977
g995
sVX
I2
sg973
g993
sg981
g1003
sg983
g1042
sg984
g1043
stRp1904
asg1556
Nsg1557
I0
sg1558
I18
sg1559
I0
sg1560
I18
sg1561
I01
sbag1
(g1481
g3
NtRp1905
(dp1906
g1484
Nsg1485
(lp1907
sg1487
I150314000
sg10
g1565
sg6
g1489
sg1490
I1
sg24
I01
sg25
g26
sg1491
g1
(g1492
g1493
(dp1908
g21
g1509
(g1510
g1496
g1511
S'b'
tRp1909
(I1
(I18
I1
tg1513
I00
S'\x00\x00\x80?\x00\x00\x80?\x00\x00\x80?\x00\x00\x80?\x00\x00\x80?\x00\x00\x80?\x00\x00\x80?\x00\x00\x80?\x00\x00\x80?\x00\x00\x80?\x00\x00\x80?\x00\x00\x80?\x00\x00\x80?\x00\x00\x80?\x00\x00\x80?\x00\x00\x80?\x00\x00\x00\x00\x00\x00\x00\x00'
S'\x00\x00\x00\x00\x00\x00\x00\x00\x00\x00\x00\x00\x00\x00\x00\x00\x00\x00'
Ntbsg19
g1495
(g1496
(I0
tS'b'
tRp1910
(I1
(I18
I1
tg1498
I00
(lp1911
g1288
ag1262
ag1254
ag1194
ag1173
ag1213
ag1246
ag1221
ag1144
ag1271
ag1296
ag1279
ag1230
ag1183
ag1238
ag1204
ag1162
ag1304
atbsg23
g1509
(g1510
g1496
g1511
S'b'
tRp1912
(I1
(I18
I1
tg1513
I00
S'i\xa2\xb4?_w\xd9?\xdbn\xa2@(*\xbd?\xd0TZ@XV\xa0?M/\x96@\xaf\x9d#@}\xe5\x1b@D\x16:@=\xf6q@<wt@/\x13\x91@\xb3\xa5\xd1@!q\xdd@M\xd7\rA\xca\x97\xd5@\n\xab\xeb@'
S'\x00\x00\x00\x00\x00\x00\x00\x00\x00\x00\x00\x00\x00\x00\x00\x00\x00\x00'
Ntbsg1508
g1509
(g1510
g1496
g1511
S'b'
tRp1913
(I1
(I18
I1
tg1513
I00
S'\x00\x00\x80?\x00\x00\x80?\x00\x00\x80?\x00\x00\x80?\x00\x00\x80?\x00\x00\x80?\x00\x00\x80?\x00\x00\x80?\x00\x00\x80?\x00\x00\x80?\x00\x00\x80?\x00\x00\x80?\x00\x00\x80?\x00\x00\x80?\x00\x00\x80?\x00\x00\x80?\x00\x00\x80?\x00\x00\x80?'
S'\x00\x00\x00\x00\x00\x00\x00\x00\x00\x00\x00\x00\x00\x00\x00\x00\x00\x00'
Ntbsg20
g1495
(g1496
(I0
tS'b'
tRp1914
(I1
(I18
I1
tg1498
I00
(lp1915
S'4'
aS'6'
aS'3'
aS'1'
aS'9'
aS'5'
aS'5'
aS'5'
aS'8'
aS'3'
aS'3'
aS'9'
aS'4'
aS'3'
aS'8'
aS'6'
aS'9'
aS'8'
atbsg1521
g1509
(g1510
g1496
g1511
S'b'
tRp1916
(I1
(I18
I1
tg1513
I00
S'\x00\x00pA\x00\x00@A\x00\x000A\x00\x00\x80@\x00\x00\x00@\x00\x00\xc0@\x00\x00 A\x00\x00\xe0@\x00\x00\x00\x00\x00\x00PA\x00\x00\x80A\x00\x00`A\x00\x00\x00A\x00\x00@@\x00\x00\x10A\x00\x00\xa0@\x00\x00\x80?\x00\x00\x88A'
S'\x00\x00\x00\x00\x00\x00\x00\x00\x00\x00\x00\x00\x00\x00\x00\x00\x00\x00'
Ntbsg22
g1509
(g1510
g1496
g1511
S'b'
tRp1917
(I1
(I18
I1
tg1513
I00
S"L\x01M@Z6\x95@\xef[\xf2?\x04W\x8c@6\xd2y@\xb3O\x9b@>\xc8D@\x81a\xa2@\xe1<\x00A\xc4a\xc8@\x83\xad\xfb@\x10PlA\x11Z\xe7@W\xa2IA\xe3\xb3\xd6@G\x9c\xe7@\xe5_KA'\xe6xA"
S'\x00\x00\x00\x00\x00\x00\x00\x00\x00\x00\x00\x00\x00\x00\x00\x00\x00\x00'
NtbstRp1918
(dp1919
g1526
(dp1920
g1508
I01
sg20
I00
sg22
I01
sg21
I01
sg19
I00
sg23
I01
sg1521
I01
ssg1528
g1905
sg1529
(lp1921
g1508
ag1521
ag19
ag22
ag20
ag21
ag23
asg1531
(lp1922
I18
aI1
asbsg1533
g1534
sg1535
g1495
(g1496
(I0
tS'b'
tRp1923
(I1
(I18
I1
tg1498
I00
(lp1924
I8
aI16
aI4
aI13
aI3
aI15
aI5
aI7
aI12
aI14
aI6
aI2
aI1
aI9
aI11
aI0
aI10
aI17
atbsg1538
I01
sg1539
I1
sg1540
I-1
sg1541
(lp1925
g1
(g1543
g1493
(dp1926
g1137
g1286
sVY
I2
sg1139
I2
sg1140
g1287
sg1148
I4
sg1145
I4
sg1146
g1147
sVX
I3
sg1142
I0
sg1150
g1143
sg1152
I0
sg1153
g1264
stRp1927
ag1
(g1543
g1493
(dp1928
g1137
g1260
sVY
I2
sg1139
I2
sg1140
g1261
sg1148
I6
sg1145
I6
sg1146
g1163
sVX
I2
sg1142
I0
sg1150
g1143
sg1152
I0
sg1153
g1264
stRp1929
ag1
(g1543
g1493
(dp1930
g1137
g1252
sVY
I5
sg1139
I2
sg1140
g1253
sg1148
I3
sg1145
I3
sg1146
g1203
sVX
I4
sg1142
I0
sg1150
g1151
sg1152
I0
sg1153
g1196
stRp1931
ag1
(g1543
g1493
(dp1932
g1137
g1192
sVY
I2
sg1139
I2
sg1140
g1193
sg1148
I1
sg1145
I1
sg1146
g1184
sVX
I5
sg1142
I0
sg1150
g1151
sg1152
I0
sg1153
g1196
stRp1933
ag1
(g1543
g1493
(dp1934
g1137
g1171
sVY
I3
sg1139
I3
sg1140
g1172
sg1148
I9
sg1145
I9
sg1146
g1147
sVX
I8
sg1142
g1161
sg1150
g1143
sg1152
I0
sg1153
g1175
stRp1935
ag1
(g1543
g1493
(dp1936
g1137
g1211
sVY
I5
sg1139
I3
sg1140
g1212
sg1148
I5
sg1145
I5
sg1146
g1151
sVX
I6
sg1142
g1161
sg1150
g1143
sg1152
I0
sg1153
g1175
stRp1937
ag1
(g1543
g1493
(dp1938
g1137
g1244
sVY
I7
sg1139
I3
sg1140
g1245
sg1148
I5
sg1145
I5
sg1146
g1203
sVX
I7
sg1142
g1163
sg1150
g1151
sg1152
I0
sg1153
g1223
stRp1939
ag1
(g1543
g1493
(dp1940
g1137
g1219
sVY
I5
sg1139
I3
sg1140
g1220
sg1148
I5
sg1145
I5
sg1146
g1143
sVX
I4
sg1142
g1147
sg1150
g1151
sg1152
I0
sg1153
g1223
stRp1941
ag1
(g1543
g1493
(dp1942
g1137
g1138
sVY
I5
sg1139
I3
sg1140
g1141
sg1148
I8
sg1145
I8
sg1146
g1147
sVX
I5
sg1142
g1143
sg1150
g1151
sg1152
I0
sg1153
g1154
stRp1943
ag1
(g1543
g1493
(dp1944
g1137
g1269
sVY
I2
sg1139
I3
sg1140
g1270
sg1148
I3
sg1145
I3
sg1146
g1161
sVX
I4
sg1142
g1165
sg1150
g1186
sg1152
I0
sg1153
g1154
stRp1945
ag1
(g1543
g1493
(dp1946
g1137
g1294
sVY
I5
sg1139
I4
sg1140
g1295
sg1148
I3
sg1145
I3
sg1146
g1161
sVX
I5
sg1142
g1163
sg1150
g1184
sg1152
g1186
sg1153
g1281
stRp1947
ag1
(g1543
g1493
(dp1948
g1137
g1277
sVY
I3
sg1139
I4
sg1140
g1278
sg1148
I9
sg1145
I9
sg1146
g1163
sVX
I3
sg1142
g1151
sg1150
g1143
sg1152
g1182
sg1153
g1281
stRp1949
ag1
(g1543
g1493
(dp1950
g1137
g1228
sVY
I6
sg1139
I4
sg1140
g1229
sg1148
I4
sg1145
I4
sg1146
g1165
sVX
I3
sg1142
g1186
sg1150
g1163
sg1152
g1182
sg1153
g1187
stRp1951
ag1
(g1543
g1493
(dp1952
g1137
g1180
sVY
I3
sg1139
I4
sg1140
g1181
sg1148
I3
sg1145
I3
sg1146
g1184
sVX
I3
sg1142
g1182
sg1150
g1186
sg1152
g1147
sg1153
g1187
stRp1953
ag1
(g1543
g1493
(dp1954
g1137
g1236
sVY
I2
sg1139
I4
sg1140
g1237
sg1148
I8
sg1145
I8
sg1146
g1182
sVX
I9
sg1142
g1203
sg1150
g1151
sg1152
g1163
sg1153
g1206
stRp1955
ag1
(g1543
g1493
(dp1956
g1137
g1201
sVY
I3
sg1139
I4
sg1140
g1202
sg1148
I6
sg1145
I6
sg1146
g1161
sVX
I2
sg1142
g1203
sg1150
g1186
sg1152
g1147
sg1153
g1206
stRp1957
ag1
(g1543
g1493
(dp1958
g1137
g1159
sVY
I2
sg1139
I4
sg1140
g1160
sg1148
I1
sg1145
I1
sg1146
g1163
sVX
I8
sg1142
g1161
sg1150
g1151
sg1152
g1165
sg1153
g1166
stRp1959
ag1
(g1543
g1493
(dp1960
g1137
g1302
sVY
I2
sg1139
I4
sg1140
g1303
sg1148
I6
sg1145
I6
sg1146
g1147
sVX
I3
sg1142
g1161
sg1150
g1186
sg1152
g1143
sg1153
g1166
stRp1961
asg1556
Nsg1557
I17
sg1558
I18
sg1559
I0
sg1560
I18
sg1561
I01
sbag1
(g1481
g3
NtRp1962
(dp1963
g1484
Nsg1485
(lp1964
sg1487
I150314000
sg10
g1565
sg6
g1489
sg1490
I1
sg24
I01
sg25
g26
sg1491
g1
(g1492
g1493
(dp1965
g21
g1509
(g1510
g1496
g1511
S'b'
tRp1966
(I1
(I18
I1
tg1513
I00
S'\x00\x00\x80?\x00\x00\x80?\x00\x00\x80?\x00\x00\x80?\x00\x00\x80?\x00\x00\x80?\x00\x00\x80?\x00\x00\x80?\x00\x00\x80?\x00\x00\x80?\x00\x00\x80?\x00\x00\x80?\x00\x00\x80?\x00\x00\x80?\x00\x00\x80?\x00\x00\x80?\x00\x00\x80?\x00\x00\x00\x00'
S'\x00\x00\x00\x00\x00\x00\x00\x00\x00\x00\x00\x00\x00\x00\x00\x00\x00\x00'
Ntbsg19
g1495
(g1496
(I0
tS'b'
tRp1967
(I1
(I18
I1
tg1498
I00
(lp1968
g1404
ag1365
ag1453
ag1356
ag1445
ag1412
ag1468
ag1477
ag1437
ag1376
ag1317
ag1421
ag1336
ag1346
ag1429
ag1395
ag1386
aNatbsg23
g1509
(g1510
g1496
g1511
S'b'
tRp1969
(I1
(I18
I1
tg1513
I00
S'\xa8\xf0\xe1?\x14\xb3\xfa?\xef\x11N@\xba0(@\x9fU,@\x11\xb04@[\x08\x95@q\xe5\x06@\x14\xe7\x18@m\x11\xb5?QP\xb8@\xa9w\x12A\x992"AW\xa7b@\xe6\x03\xce@d\x1e\x07@z,\x19A\x00\x00\x00\x00'
S'\x00\x00\x00\x00\x00\x00\x00\x00\x00\x00\x00\x00\x00\x00\x00\x00\x00\x01'
Ntbsg1508
g1509
(g1510
g1496
g1511
S'b'
tRp1970
(I1
(I18
I1
tg1513
I00
S'\x00\x00\x80?\x00\x00\x80?\x00\x00\x80?\x00\x00\x80?\x00\x00\x80?\x00\x00\x80?\x00\x00\x80?\x00\x00\x80?\x00\x00\x80?\x00\x00\x80?\x00\x00\x80?\x00\x00\x80?\x00\x00\x80?\x00\x00\x80?\x00\x00\x80?\x00\x00\x80?\x00\x00\x80?\x00\x00\x80?'
S'\x00\x00\x00\x00\x00\x00\x00\x00\x00\x00\x00\x00\x00\x00\x00\x00\x00\x00'
Ntbsg20
g1495
(g1496
(I0
tS'b'
tRp1971
(I1
(I18
I1
tg1498
I00
(lp1972
S'8'
aS'2'
aS'2'
aS'8'
aS'1'
aS'2'
aS'1'
aS'2'
aS'8'
aS'6'
aS'7'
aS'1'
aS'9'
aS'7'
aS'3'
aS'6'
aS'5'
aNatbsg1521
g1509
(g1510
g1496
g1511
S'b'
tRp1973
(I1
(I18
I1
tg1513
I00
S'\x00\x00\x00A\x00\x00\x80@\x00\x00`A\x00\x00@@\x00\x00PA\x00\x00\x10A\x00\x00\x80A\x00\x00\x88A\x00\x00@A\x00\x00\xa0@\x00\x00\x00\x00\x00\x00 A\x00\x00\x80?\x00\x00\x00@\x00\x000A\x00\x00\xe0@\x00\x00\xc0@\x00\x00pA'
S'\x00\x00\x00\x00\x00\x00\x00\x00\x00\x00\x00\x00\x00\x00\x00\x00\x00\x00'
Ntbsg22
g1509
(g1510
g1496
g1511
S'b'
tRp1974
(I1
(I18
I1
tg1513
I00
S'\x06\xae\xc5?e,\t@\xbb\xb0\x82@-\x979@\x02\tKA\xd3\xc3\x87@\xbb\x81m@\x0c\xd7\xb6@@\xb3\xd5@I\xfb\xce@~\x8cKA$\x1e\xef@\xf3\xfeFA\xa0\xeb\xd4@\x1d\xf31A\x8cb\x05A\xd4,9A\x00\x00\x00\x00'
S'\x00\x00\x00\x00\x00\x00\x00\x00\x00\x00\x00\x00\x00\x00\x00\x00\x00\x01'
NtbstRp1975
(dp1976
g1526
(dp1977
g1508
I01
sg20
I00
sg22
I01
sg21
I01
sg19
I00
sg23
I01
sg1521
I01
ssg1528
g1962
sg1529
(lp1978
g1508
ag1521
ag19
ag22
ag20
ag21
ag23
asg1531
(lp1979
I18
aI1
asbsg1533
g1534
sg1535
g1495
(g1496
(I0
tS'b'
tRp1980
(I1
(I18
I1
tg1498
I00
(lp1981
I10
aI12
aI13
aI3
aI1
aI9
aI16
aI15
aI0
aI5
aI11
aI14
aI8
aI4
aI2
aI17
aI6
aI7
atbsg1538
I01
sg1539
I1
sg1540
I-1
sg1541
(lp1982
g1
(g1543
g1493
(dp1983
g1310
g1402
sVY
I4
sg1312
I2
sg1313
g1403
sg1321
I8
sg1318
I8
sg1319
g1335
sVX
I2
sg1315
I0
sg1323
g1324
sg1325
I0
sg1327
g1368
stRp1984
ag1
(g1543
g1493
(dp1985
g1310
g1363
sVY
I6
sg1312
I2
sg1313
g1364
sg1321
I2
sg1318
I2
sg1319
g1335
sVX
I6
sg1315
I0
sg1323
g1367
sg1325
I0
sg1327
g1368
stRp1986
ag1
(g1543
g1493
(dp1987
g1310
g1451
sVY
I7
sg1312
I2
sg1313
g1452
sg1321
I2
sg1318
I2
sg1319
g1375
sVX
I8
sg1315
I0
sg1323
g1335
sg1325
I0
sg1327
g1358
stRp1988
ag1
(g1543
g1493
(dp1989
g1310
g1354
sVY
I4
sg1312
I2
sg1313
g1355
sg1321
I8
sg1318
I8
sg1319
g1347
sVX
I4
sg1315
I0
sg1323
g1326
sg1325
I0
sg1327
g1358
stRp1990
ag1
(g1543
g1493
(dp1991
g1310
g1443
sVY
I4
sg1312
I3
sg1313
g1444
sg1321
I1
sg1318
I1
sg1319
g1335
sVX
I6
sg1315
g1320
sg1323
g1367
sg1325
I0
sg1327
g1414
stRp1992
ag1
(g1543
g1493
(dp1993
g1310
g1410
sVY
I4
sg1312
I3
sg1313
g1411
sg1321
I2
sg1318
I2
sg1319
g1326
sVX
I4
sg1315
g1377
sg1323
g1375
sg1325
I0
sg1327
g1414
stRp1994
ag1
(g1543
g1493
(dp1995
g1310
g1466
sVY
I7
sg1312
I3
sg1313
g1467
sg1321
I1
sg1318
I1
sg1319
g1375
sVX
I3
sg1315
g1377
sg1323
g1326
sg1325
I0
sg1327
g1470
stRp1996
ag1
(g1543
g1493
(dp1997
g1310
g1475
sVY
I3
sg1312
I3
sg1313
g1476
sg1321
I2
sg1318
I2
sg1319
g1367
sVX
I9
sg1315
g1320
sg1323
g1316
sg1325
I0
sg1327
g1470
stRp1998
ag1
(g1543
g1493
(dp1999
g1310
g1435
sVY
I2
sg1312
I3
sg1313
g1436
sg1321
I8
sg1318
I8
sg1319
g1349
sVX
I7
sg1315
g1375
sg1323
g1335
sg1325
I0
sg1327
g1379
stRp2000
ag1
(g1543
g1493
(dp2001
g1310
g1373
sVY
I3
sg1312
I3
sg1313
g1374
sg1321
I6
sg1318
I6
sg1319
g1377
sVX
I4
sg1315
g1375
sg1323
g1335
sg1325
I0
sg1327
g1379
stRp2002
ag1
(g1543
g1493
(dp2003
g1310
g1311
sVY
I6
sg1312
I4
sg1313
g1314
sg1321
I7
sg1318
I7
sg1319
g1320
sVX
I4
sg1315
g1316
sg1323
g1324
sg1325
g1326
sg1327
g1328
stRp2004
ag1
(g1543
g1493
(dp2005
g1310
g1419
sVY
I5
sg1312
I4
sg1313
g1420
sg1321
I1
sg1318
I1
sg1319
g1316
sVX
I6
sg1315
g1335
sg1323
g1367
sg1325
g1320
sg1327
g1328
stRp2006
ag1
(g1543
g1493
(dp2007
g1310
g1333
sVY
I4
sg1312
I4
sg1313
g1334
sg1321
I9
sg1318
I9
sg1319
g1324
sVX
I9
sg1315
g1335
sg1323
g1338
sg1325
g1320
sg1327
g1339
stRp2008
ag1
(g1543
g1493
(dp2009
g1310
g1344
sVY
I4
sg1312
I4
sg1313
g1345
sg1321
I7
sg1318
I7
sg1319
g1347
sVX
I3
sg1315
g1335
sg1323
g1349
sg1325
g1320
sg1327
g1339
stRp2010
ag1
(g1543
g1493
(dp2011
g1310
g1427
sVY
I6
sg1312
I4
sg1313
g1428
sg1321
I3
sg1318
I3
sg1319
g1320
sVX
I4
sg1315
g1347
sg1323
g1349
sg1325
g1326
sg1327
g1397
stRp2012
ag1
(g1543
g1493
(dp2013
g1310
g1393
sVY
I8
sg1312
I4
sg1313
g1394
sg1321
I6
sg1318
I6
sg1319
g1377
sVX
I9
sg1315
g1367
sg1323
g1335
sg1325
g1349
sg1327
g1397
stRp2014
ag1
(g1543
g1493
(dp2015
g1310
g1384
sVY
I2
sg1312
I4
sg1313
g1385
sg1321
I5
sg1318
I5
sg1319
g1326
sVX
I8
sg1315
g1377
sg1323
g1349
sg1325
g1367
sg1327
g1388
stRp2016
ag1
(g1543
g1493
(dp2017
g1310
g1459
sVY
I4
sg1312
I4
sg1313
g1460
sg1321
I4
sg1318
I4
sg1319
g1349
sVX
I4
sg1315
g1377
sg1323
g1335
sg1325
g1367
sg1327
g1388
stRp2018
asg1556
Nsg1557
I7
sg1558
I18
sg1559
I0
sg1560
I18
sg1561
I01
sbasS'savePickle'
p2019
I00
sb.