ccopy_reg
_reconstructor
p1
(cpsychopy.data
ExperimentHandler
p2
c__builtin__
object
p3
NtRp4
(dp5
S'originPath'
p6
NsS'dataFileName'
p7
VC:\u005cUsers\u005cCCDL\u005cDesktop\u005cExperiments\u005cKRITL\u005cdata/31053_KRITL_2017_May_12_0909
p8
sS'runtimeInfo'
p9
NsS'name'
p10
S'KRITL'
p11
sS'dataNames'
p12
(lp13
S'practice_encoding.keys'
p14
aS'practice_encoding.rt'
p15
aS'practice_execution.keys'
p16
aS'practice_execution.corr'
p17
aS'practice_execution.rt'
p18
aS'encoding.keys'
p19
aS'encoding.rt'
p20
aS'execution.keys'
p21
aS'execution.corr'
p22
aS'execution.rt'
p23
asS'autoLog'
p24
I01
sS'extraInfo'
p25
(dp26
S'date'
p27
V2017_May_12_0909
p28
sS'frameRate'
p29
cnumpy.core.multiarray
scalar
p30
(cnumpy
dtype
p31
(S'f8'
I0
I1
tRp32
(I3
S'<'
NNNI-1
I-1
I0
tbS'\x12\x0c\xd9\x9a\x05\x00N@'
tRp33
sS'expName'
p34
g11
sVsession
p35
V001
p36
sVparticipant
p37
V31053
p38
ssS'loopsUnfinished'
p39
(lp40
sS'saveWideText'
p41
I00
sS'thisEntry'
p42
(dp43
sS'version'
p44
S''
sS'_paramNamesSoFar'
p45
(lp46
Voperationc
p47
aVoperationb
p48
aVoperationa
p49
aVcorrectresponse
p50
aVvaluey
p51
aVoperationd
p52
aVcondition
p53
aVvaluex
p54
aVRule
p55
aVOperatora
p56
aVLength
p57
aVIntermediate
p58
aVCorrectResponse
p59
aVResult
p60
aVY
aVX
aVOperatorc
p61
aVOperatorb
p62
aVOperatord
p63
aVStructure
p64
asS'entries'
p65
(lp66
(dp67
g35
g36
sg47
L0L
sg27
g28
sg16
Nsg29
g33
sg14
(lp68
S'space'
p69
asg53
L2L
sg49
Vhalf
p70
sg17
I0
sS'practice_trials.thisN'
p71
I0
sg48
VADD
p72
sS'practice_trials.thisIndex'
p73
I2
sg34
g11
sg50
L7L
sS'practice_trials.thisTrialN'
p74
I0
sg52
L0L
sS'practice_trials.thisRepN'
p75
I0
sg37
g38
sg54
L4L
sg51
L5L
sg15
(lp76
F4.4666619719937444
asa(dp77
g18
F4.2000067853368819
sg29
g33
sg17
I1
sg47
L0L
sg48
g72
sg49
Vdecrease
p78
sg35
g36
sg50
L7L
sS'practice_trials.thisTrialN'
p79
I1
sg52
L0L
sS'practice_trials.thisRepN'
p80
I0
sg37
g38
sg53
L2L
sg27
g28
sg16
S'7'
sg14
(lp81
S'space'
p82
asS'practice_trials.thisIndex'
p83
I0
sS'practice_trials.thisN'
p84
I1
sg34
g11
sg15
(lp85
F3.5500575052574277
asg51
L5L
sg54
L3L
sa(dp86
g18
F5.1833602944388986
sg29
g33
sg17
I1
sg47
Vincrease
p87
sg48
VDIVIDE
p88
sg49
Vtriple
p89
sg35
g36
sg50
L3L
sS'practice_trials.thisTrialN'
p90
I2
sg52
L0L
sS'practice_trials.thisRepN'
p91
I0
sg37
g38
sg53
L3L
sg27
g28
sg16
S'3'
sg14
(lp92
S'space'
p93
asS'practice_trials.thisIndex'
p94
I4
sS'practice_trials.thisN'
p95
I2
sg34
g11
sg15
(lp96
F1.7667735037393868
asg51
L3L
sg54
L2L
sa(dp97
g18
F3.6833628602325916
sg29
g33
sg17
I1
sg47
g72
sg48
Vtriple 
p98
sg49
g70
sg35
g36
sg50
L8L
sS'practice_trials.thisTrialN'
p99
I3
sg52
L0L
sS'practice_trials.thisRepN'
p100
I0
sg37
g38
sg53
L3L
sg27
g28
sg16
S'8'
sg14
(lp101
S'space'
p102
asS'practice_trials.thisIndex'
p103
I3
sS'practice_trials.thisN'
p104
I3
sg34
g11
sg15
(lp105
F5.0666484013199806
asg51
L2L
sg54
L4L
sa(dp106
g18
F5.5500269993208349
sg29
g33
sg17
I0
sg47
g87
sg48
g88
sg49
Vdouble
p107
sg35
g36
sg50
L9L
sS'practice_trials.thisTrialN'
p108
I4
sg52
g89
sS'practice_trials.thisRepN'
p109
I0
sg37
g38
sg53
L4L
sg27
g28
sg16
S'6'
sg14
(lp110
S'space'
p111
asS'practice_trials.thisIndex'
p112
I5
sS'practice_trials.thisN'
p113
I4
sg34
g11
sg15
(lp114
F9.5832090764306486
asg51
L8L
sg54
L8L
sa(dp115
g18
F3.5833533378317952
sg29
g33
sg17
I1
sg47
L0L
sg48
g78
sg49
VTIMES
p116
sg35
g36
sg50
L8L
sS'practice_trials.thisTrialN'
p117
I5
sg52
L0L
sS'practice_trials.thisRepN'
p118
I0
sg37
g38
sg53
L2L
sg27
g28
sg16
S'8'
sg14
(lp119
S'space'
p120
asS'practice_trials.thisIndex'
p121
I1
sS'practice_trials.thisN'
p122
I5
sg34
g11
sg15
(lp123
F4.9666545591317117
asg51
L3L
sg54
L3L
sa(dp124
S'block.thisTrialN'
p125
I0
sS'block.thisRepN'
p126
I0
sg29
g33
sS'block.thisN'
p127
I0
sg55
(S'ADD'
S'DECREASE'
S'x'
S'y'
tp128
sg27
g28
sg57
L2L
sg58
(I2
I7
tp129
sg22
I1
sg20
F3.1166711235418916
sg23
F1.8834241000004113
sVY
L5L
sVX
L3L
sg61
L0L
sg35
g36
sg37
g38
sg21
S'7'
sg19
S'space'
p130
sg34
g11
sg60
L7L
sg56
Vdecrease
p131
sg59
L7L
sS'block.thisIndex'
p132
I0
sg62
VADD
p133
sg63
L0L
sg64
VBUxy
p134
sa(dp135
S'block.thisTrialN'
p136
I1
sS'block.thisRepN'
p137
I0
sg29
g33
sS'block.thisN'
p138
I1
sg55
(S'INCREASE'
S'HALF'
S'THIRD'
S'TIMES'
S'x'
S'y'
tp139
sg27
g28
sg57
L4L
sg58
(I12
I4
I2
I3
tp140
sg22
I1
sg20
F4.7833777996711433
sg23
F4.4833549344912171
sVY
L4L
sVX
L3L
sg61
Vthird
p141
sg35
g36
sg37
g38
sg21
S'3'
sg19
S'space'
p142
sg34
g11
sg60
L3L
sg56
Vhalf
p143
sg59
L3L
sS'block.thisIndex'
p144
I16
sg62
Vincrease
p145
sg63
VTIMES
p146
sg64
VUUUBxy
p147
sa(dp148
S'block.thisTrialN'
p149
I2
sS'block.thisRepN'
p150
I0
sg29
g33
sS'block.thisN'
p151
I2
sg55
(S'DOUBLE'
S'SUBTRACT'
S'INCREASE'
S'x'
S'y'
tp152
sg27
g28
sg57
L3L
sg58
(I4
I1
I2
tp153
sg22
I1
sg20
F6.9666320364922285
sg23
F4.0666478308849037
sVY
L3L
sVX
L3L
sg61
g145
sg35
g36
sg37
g38
sg21
S'2'
sg19
S'space'
p154
sg34
g11
sg60
L2L
sg56
VSUBTRACT
p155
sg59
L2L
sS'block.thisIndex'
p156
I6
sg62
Vdouble
p157
sg63
L0L
sg64
VUBUxy
p158
sa(dp159
S'block.thisTrialN'
p160
I3
sS'block.thisRepN'
p161
I0
sg29
g33
sS'block.thisN'
p162
I3
sg55
(S'HALF'
S'ADD'
S'x'
S'y'
tp163
sg27
g28
sg57
L2L
sg58
(I12
I6
tp164
sg22
I1
sg20
F2.3333942499011755
sg23
F2.450080769136548
sVY
L8L
sVX
L4L
sg61
L0L
sg35
g36
sg37
g38
sg21
S'6'
sg19
S'space'
p165
sg34
g11
sg60
L6L
sg56
g133
sg59
L6L
sS'block.thisIndex'
p166
I3
sg62
g143
sg63
L0L
sg64
VUBxy
p167
sa(dp168
S'block.thisTrialN'
p169
I4
sS'block.thisRepN'
p170
I0
sg29
g33
sS'block.thisN'
p171
I4
sg55
(S'DECREASE'
S'SUBTRACT'
S'DOUBLE'
S'THIRD'
S'x'
S'y'
tp172
sg27
g28
sg57
L4L
sg58
(I3
I6
I4
I3
tp173
sg22
I1
sg20
F6.1000329004600644
sg23
F10.549906116444618
sVY
L2L
sVX
L9L
sg61
g157
sg35
g36
sg37
g38
sg21
S'3'
sg19
S'space'
p174
sg34
g11
sg60
L3L
sg56
g155
sg59
L3L
sS'block.thisIndex'
p175
I13
sg62
g131
sg63
g141
sg64
VUBUUxy
p176
sa(dp177
S'block.thisTrialN'
p178
I5
sS'block.thisRepN'
p179
I0
sg29
g33
sS'block.thisN'
p180
I5
sg55
(S'DECREASE'
S'DOUBLE'
S'TIMES'
S'THIRD'
S'x'
S'y'
tp181
sg27
g28
sg57
L4L
sg58
(I1
I3
I6
I5
tp182
sg22
I1
sg20
F4.8833571011200547
sg23
F6.1833303589373827
sVY
L3L
sVX
L3L
sg61
g146
sg35
g36
sg37
g38
sg21
S'5'
sg19
S'space'
p183
sg34
g11
sg60
L5L
sg56
g157
sg59
L5L
sS'block.thisIndex'
p184
I14
sg62
g131
sg63
g141
sg64
VUUBUxy
p185
sa(dp186
S'block.thisTrialN'
p187
I6
sS'block.thisRepN'
p188
I0
sg29
g33
sS'block.thisN'
p189
I6
sg55
(S'HALF'
S'INCREASE'
S'TIMES'
S'x'
S'y'
tp190
sg27
g28
sg57
L3L
sg58
(I9
I10
I5
tp191
sg22
I1
sg20
F2.2667298829182982
sg23
F4.2167179943062365
sVY
L3L
sVX
L3L
sg61
g146
sg35
g36
sg37
g38
sg21
S'5'
sg19
S'space'
p192
sg34
g11
sg60
L5L
sg56
g145
sg59
L5L
sS'block.thisIndex'
p193
I9
sg62
g143
sg63
L0L
sg64
VUUBxy
p194
sa(dp195
S'block.thisTrialN'
p196
I7
sS'block.thisRepN'
p197
I0
sg29
g33
sS'block.thisN'
p198
I7
sg55
(S'ADD'
S'TRIPLE'
S'HALF'
S'x'
S'y'
tp199
sg27
g28
sg57
L3L
sg58
(I2
I6
I8
tp200
sg22
I1
sg20
F2.3667177376337349
sg23
F3.9500565356574953
sVY
L2L
sVX
L4L
sg61
g143
sg35
g36
sg37
g38
sg21
S'8'
sg19
S'space'
p201
sg34
g11
sg60
L8L
sg56
Vtriple
p202
sg59
L8L
sS'block.thisIndex'
p203
I5
sg62
g133
sg63
L0L
sg64
VBUUxy
p204
sa(dp205
S'block.thisTrialN'
p206
I8
sS'block.thisRepN'
p207
I0
sg29
g33
sS'block.thisN'
p208
I8
sg55
(S'THIRD'
S'HALF'
S'INCREASE'
S'SUBTRACT'
S'x'
S'y'
tp209
sg27
g28
sg57
L4L
sg58
(I5
I6
I3
I1
tp210
sg22
I1
sg20
F3.0666940174996853
sg23
F5.4500667988322675
sVY
L2L
sVX
L7L
sg61
g145
sg35
g36
sg37
g38
sg21
S'1'
sg19
S'space'
p211
sg34
g11
sg60
L1L
sg56
g143
sg59
L1L
sS'block.thisIndex'
p212
I17
sg62
g141
sg63
g155
sg64
g147
sa(dp213
S'block.thisTrialN'
p214
I9
sS'block.thisRepN'
p215
I0
sg29
g33
sS'block.thisN'
p216
I9
sg55
(S'DECREASE'
S'TRIPLE'
S'SUBTRACT'
S'DOUBLE'
S'x'
S'y'
tp217
sg27
g28
sg57
L4L
sg58
(I6
I3
I9
I8
tp218
sg22
I1
sg20
F3.8333757184445858
sg23
F4.1000309051014483
sVY
L3L
sVX
L3L
sg61
g155
sg35
g36
sg37
g38
sg21
S'8'
sg19
S'space'
p219
sg34
g11
sg60
L8L
sg56
g202
sg59
L8L
sS'block.thisIndex'
p220
I15
sg62
g131
sg63
g157
sg64
g185
sa(dp221
S'block.thisTrialN'
p222
I10
sS'block.thisRepN'
p223
I0
sg29
g33
sS'block.thisN'
p224
I10
sg55
(S'ADD'
S'DOUBLE'
S'DECREASE'
S'x'
S'y'
tp225
sg27
g28
sg57
L3L
sg58
(I1
I2
I7
tp226
sg22
I1
sg20
F2.1333928816020489
sg23
F2.8833873220719397
sVY
L5L
sVX
L2L
sg61
g131
sg35
g36
sg37
g38
sg21
S'7'
sg19
S'space'
p227
sg34
g11
sg60
L7L
sg56
g157
sg59
L7L
sS'block.thisIndex'
p228
I4
sg62
g133
sg63
L0L
sg64
g204
sa(dp229
S'block.thisTrialN'
p230
I11
sS'block.thisRepN'
p231
I0
sg29
g33
sS'block.thisN'
p232
I11
sg55
(S'ADD'
S'DECREASE'
S'THIRD'
S'DOUBLE'
S'x'
S'y'
tp233
sg27
g28
sg57
L4L
sg58
(I18
I6
I5
I9
tp234
sg22
I1
sg20
F2.7500437633134425
sg23
F4.2000720738433301
sVY
L4L
sVX
L9L
sg61
g141
sg35
g36
sg37
g38
sg21
S'9'
sg19
S'space'
p235
sg34
g11
sg60
L9L
sg56
g131
sg59
L9L
sS'block.thisIndex'
p236
I10
sg62
g133
sg63
g157
sg64
VBUUUxy
p237
sa(dp238
S'block.thisTrialN'
p239
I12
sS'block.thisRepN'
p240
I0
sg29
g33
sS'block.thisN'
p241
I12
sg55
(S'DIVIDE'
S'DECREASE'
S'x'
S'y'
tp242
sg27
g28
sg57
L2L
sg58
(I8
I2
tp243
sg22
I1
sg20
F2.7000481253489852
sg23
F1.3667502393946052
sVY
L4L
sVX
L9L
sg61
L0L
sg35
g36
sg37
g38
sg21
S'2'
sg19
S'space'
p244
sg34
g11
sg60
L2L
sg56
g131
sg59
L2L
sS'block.thisIndex'
p245
I1
sg62
VDIVIDE
p246
sg63
L0L
sg64
g134
sa(dp247
S'block.thisTrialN'
p248
I13
sS'block.thisRepN'
p249
I0
sg29
g33
sS'block.thisN'
p250
I13
sg55
(S'DECREASE'
S'ADD'
S'THIRD'
S'HALF'
S'x'
S'y'
tp251
sg27
g28
sg57
L4L
sg58
(I3
I1
I7
I6
tp252
sg22
I1
sg20
F2.0333924819715321
sg23
F4.3166947299614549
sVY
L6L
sVX
L6L
sg61
g141
sg35
g36
sg37
g38
sg21
S'6'
sg19
S'space'
p253
sg34
g11
sg60
L6L
sg56
g133
sg59
L6L
sS'block.thisIndex'
p254
I12
sg62
g131
sg63
g143
sg64
g176
sa(dp255
S'block.thisTrialN'
p256
I14
sS'block.thisRepN'
p257
I0
sg29
g33
sS'block.thisN'
p258
I14
sg55
(S'DOUBLE'
S'THIRD'
S'ADD'
S'x'
S'y'
tp259
sg27
g28
sg57
L3L
sg58
(I9
I3
I6
tp260
sg22
I1
sg20
F0.93342629494145513
sg23
F2.7000777754001319
sVY
L4L
sVX
L5L
sg61
g133
sg35
g36
sg37
g38
sg21
S'6'
sg19
S'space'
p261
sg34
g11
sg60
L6L
sg56
g141
sg59
L6L
sS'block.thisIndex'
p262
I8
sg62
g157
sg63
L0L
sg64
g194
sa(dp263
S'block.thisTrialN'
p264
I15
sS'block.thisRepN'
p265
I0
sg29
g33
sS'block.thisN'
p266
I15
sg55
(S'ADD'
S'TRIPLE'
S'DOUBLE'
S'DECREASE'
S'x'
S'y'
tp267
sg27
g28
sg57
L4L
sg58
(I1
I2
I6
I8
tp268
sg22
I1
sg20
F3.4833617769181728
sg23
F4.3667222992517054
sVY
L2L
sVX
L2L
sg61
g157
sg35
g36
sg37
g38
sg21
S'8'
sg19
S'space'
p269
sg34
g11
sg60
L8L
sg56
g202
sg59
L8L
sS'block.thisIndex'
p270
I11
sg62
g133
sg63
g131
sg64
g237
sa(dp271
S'block.thisTrialN'
p272
I16
sS'block.thisRepN'
p273
I0
sg29
g33
sS'block.thisN'
p274
I16
sg55
(S'INCREASE'
S'ADD'
S'HALF'
S'x'
S'y'
tp275
sg27
g28
sg57
L3L
sg58
(I1
I4
I5
tp276
sg22
I0
sg20
F0.93340491270646453
sg23
F3.6501140687614679
sVY
L3L
sVX
L2L
sg61
g143
sg35
g36
sg37
g38
sg21
S'3'
sg19
S'space'
p277
sg34
g11
sg60
L5L
sg56
g133
sg59
L5L
sS'block.thisIndex'
p278
I7
sg62
g145
sg63
L0L
sg64
g158
sa(dp279
S'block.thisTrialN'
p280
I17
sS'block.thisRepN'
p281
I0
sg29
g33
sS'block.thisN'
p282
I17
sg55
(S'DECREASE'
S'TIMES'
S'x'
S'y'
tp283
sg27
g28
sg57
L2L
sg58
(I9
I8
tp284
sg22
I1
sg20
F2.2833946207538247
sg23
F2.9667318216525018
sVY
L3L
sVX
L3L
sg61
L0L
sg35
g36
sg37
g38
sg21
S'8'
sg19
S'space'
p285
sg34
g11
sg60
L8L
sg56
g146
sg59
L8L
sS'block.thisIndex'
p286
I2
sg62
g131
sg63
L0L
sg64
g167
sa(dp287
S'block.thisTrialN'
p288
I0
sS'block.thisRepN'
p289
I0
sg29
g33
sS'block.thisN'
p290
I0
sVRule
p291
(S'HALF'
S'SUBTRACT'
S'TRIPLE'
S'x'
S'y'
tp292
sg27
g28
sVLength
p293
L3L
sVIntermediate
p294
(I9
I2
I1
tp295
sg22
I1
sg20
F4.0000236635096371
sg23
F4.8999961796216667
sVY
L7L
sVX
L3L
sVOperatorc
p296
Vtriple
p297
sg35
g36
sg37
g38
sg21
S'1'
sg19
S'space'
p298
sg34
g11
sVResult
p299
L1L
sVOperatora
p300
VSUBTRACT
p301
sVCorrectResponse
p302
L1L
sS'block.thisIndex'
p303
I6
sVOperatorb
p304
Vhalf
p305
sVOperatord
p306
L0L
sVStructure
p307
VUBUxy
p308
sa(dp309
S'block.thisTrialN'
p310
I1
sS'block.thisRepN'
p311
I0
sg29
g33
sS'block.thisN'
p312
I1
sg291
(S'ADD'
S'THIRD'
S'INCREASE'
S'HALF'
S'x'
S'y'
tp313
sg27
g28
sg293
L4L
sg294
(I2
I3
I1
I7
tp314
sg22
I1
sg20
F2.0667387782596052
sg23
F4.6167030553333461
sVY
L6L
sVX
L4L
sg296
Vincrease
p315
sg35
g36
sg37
g38
sg21
S'7'
sg19
S'space'
p316
sg34
g11
sg299
L7L
sg300
Vthird
p317
sg302
L7L
sS'block.thisIndex'
p318
I10
sg304
VADD
p319
sg306
g305
sg307
VBUUUxy
p320
sa(dp321
S'block.thisTrialN'
p322
I2
sS'block.thisRepN'
p323
I0
sg29
g33
sS'block.thisN'
p324
I2
sg291
(S'DOUBLE'
S'DECREASE'
S'TRIPLE'
S'DIVIDE'
S'x'
S'y'
tp325
sg27
g28
sg293
L4L
sg294
(I1
I3
I2
I4
tp326
sg22
I0
sg20
F2.3000351246446371
sg23
F15.783118927851319
sVY
L4L
sVX
L4L
sg296
g297
sg35
g36
sg37
g38
sg21
S'6'
sg19
S'space'
p327
sg34
g11
sg299
L4L
sg300
Vdecrease
p328
sg302
L4L
sS'block.thisIndex'
p329
I17
sg304
Vdouble
p330
sg306
VDIVIDE
p331
sg307
VUUUBxy
p332
sa(dp333
S'block.thisTrialN'
p334
I3
sS'block.thisRepN'
p335
I0
sg29
g33
sS'block.thisN'
p336
I3
sg291
(S'DOUBLE'
S'DECREASE'
S'SUBTRACT'
S'x'
S'y'
tp337
sg27
g28
sg293
L3L
sg294
(I5
I4
I8
tp338
sg22
I1
sg20
F2.1000813678838313
sg23
F7.7166182086803019
sVY
L2L
sVX
L7L
sg296
g301
sg35
g36
sg37
g38
sg21
S'8'
sg19
S'space'
p339
sg34
g11
sg299
L8L
sg300
g328
sg302
L8L
sS'block.thisIndex'
p340
I8
sg304
g330
sg306
L0L
sg307
VUUBxy
p341
sa(dp342
S'block.thisTrialN'
p343
I4
sS'block.thisRepN'
p344
I0
sg29
g33
sS'block.thisN'
p345
I4
sg291
(S'DOUBLE'
S'TRIPLE'
S'SUBTRACT'
S'x'
S'y'
tp346
sg27
g28
sg293
L3L
sg294
(I1
I3
I6
tp347
sg22
I1
sg20
F1.6667554280720651
sg23
F9.166788499802351
sVY
L3L
sVX
L4L
sg296
g301
sg35
g36
sg37
g38
sg21
S'6'
sg19
S'space'
p348
sg34
g11
sg299
L6L
sg300
g297
sg302
L6L
sS'block.thisIndex'
p349
I9
sg304
g330
sg306
L0L
sg307
g341
sa(dp350
S'block.thisTrialN'
p351
I5
sS'block.thisRepN'
p352
I0
sg29
g33
sS'block.thisN'
p353
I5
sg291
(S'DOUBLE'
S'SUBTRACT'
S'x'
S'y'
tp354
sg27
g28
sg293
L2L
sg294
(I1
I2
tp355
sg22
I1
sg20
F3.4666656781919301
sg23
F1.0834420043975115
sVY
L7L
sVX
L8L
sg296
L0L
sg35
g36
sg37
g38
sg21
S'2'
sg19
S'space'
p356
sg34
g11
sg299
L2L
sg300
g301
sg302
L2L
sS'block.thisIndex'
p357
I2
sg304
g330
sg306
L0L
sg307
VUBxy
p358
sa(dp359
S'block.thisTrialN'
p360
I6
sS'block.thisRepN'
p361
I0
sg29
g33
sS'block.thisN'
p362
I6
sg291
(S'ADD'
S'DOUBLE'
S'x'
S'y'
tp363
sg27
g28
sg293
L2L
sg294
(I4
I8
tp364
sg22
I1
sg20
F3.8833528244867921
sg23
F1.7500794008374214
sVY
L4L
sVX
L2L
sg296
L0L
sg35
g36
sg37
g38
sg21
S'8'
sg19
S'space'
p365
sg34
g11
sg299
L8L
sg300
g330
sg302
L8L
sS'block.thisIndex'
p366
I0
sg304
g319
sg306
L0L
sg307
VBUxy
p367
sa(dp368
S'block.thisTrialN'
p369
I7
sS'block.thisRepN'
p370
I0
sg29
g33
sS'block.thisN'
p371
I7
sg291
(S'DECREASE'
S'HALF'
S'TRIPLE'
S'DIVIDE'
S'x'
S'y'
tp372
sg27
g28
sg293
L4L
sg294
(I4
I12
I6
I5
tp373
sg22
I1
sg20
F11.53322911914438
sg23
F10.233242747373879
sVY
L2L
sVX
L8L
sg296
g297
sg35
g36
sg37
g38
sg21
S'5'
sg19
S'space'
p374
sg34
g11
sg299
L5L
sg300
g305
sg302
L5L
sS'block.thisIndex'
p375
I16
sg304
g328
sg306
g331
sg307
g332
sa(dp376
S'block.thisTrialN'
p377
I8
sS'block.thisRepN'
p378
I0
sg29
g33
sS'block.thisN'
p379
I8
sg291
(S'INCREASE'
S'DIVIDE'
S'THIRD'
S'x'
S'y'
tp380
sg27
g28
sg293
L3L
sg294
(I3
I1
I2
tp381
sg22
I1
sg20
F2.7000535419210792
sg23
F9.716561758890748
sVY
L3L
sVX
L9L
sg296
g317
sg35
g36
sg37
g38
sg21
S'2'
sg19
S'space'
p382
sg34
g11
sg299
L2L
sg300
g331
sg302
L2L
sS'block.thisIndex'
p383
I7
sg304
g315
sg306
L0L
sg307
g308
sa(dp384
S'block.thisTrialN'
p385
I9
sS'block.thisRepN'
p386
I0
sg29
g33
sS'block.thisN'
p387
I9
sg291
(S'SUBTRACT'
S'HALF'
S'TRIPLE'
S'x'
S'y'
tp388
sg27
g28
sg293
L3L
sg294
(I12
I6
I2
tp389
sg22
I1
sg20
F1.4334057681262493
sg23
F5.3166833259165287
sVY
L4L
sVX
L4L
sg296
g297
sg35
g36
sg37
g38
sg21
S'2'
sg19
S'space'
p390
sg34
g11
sg299
L2L
sg300
g305
sg302
L2L
sS'block.thisIndex'
p391
I5
sg304
g301
sg306
L0L
sg307
VBUUxy
p392
sa(dp393
S'block.thisTrialN'
p394
I10
sS'block.thisRepN'
p395
I0
sg29
g33
sS'block.thisN'
p396
I10
sg291
(S'HALF'
S'TIMES'
S'x'
S'y'
tp397
sg27
g28
sg293
L2L
sg294
(I16
I8
tp398
sg22
I1
sg20
F0.66679021017625928
sg23
F3.6667172247543931
sVY
L4L
sVX
L4L
sg296
L0L
sg35
g36
sg37
g38
sg21
S'8'
sg19
S'space'
p399
sg34
g11
sg299
L8L
sg300
VTIMES
p400
sg302
L8L
sS'block.thisIndex'
p401
I3
sg304
g305
sg306
L0L
sg307
g358
sa(dp402
S'block.thisTrialN'
p403
I11
sS'block.thisRepN'
p404
I0
sg29
g33
sS'block.thisN'
p405
I11
sg291
(S'DECREASE'
S'ADD'
S'DOUBLE'
S'THIRD'
S'x'
S'y'
tp406
sg27
g28
sg293
L4L
sg294
(I3
I6
I10
I9
tp407
sg22
I1
sg20
F2.3167528905905783
sg23
F7.4499248187057674
sVY
L4L
sVX
L9L
sg296
g330
sg35
g36
sg37
g38
sg21
S'9'
sg19
S'space'
p408
sg34
g11
sg299
L9L
sg300
g319
sg302
L9L
sS'block.thisIndex'
p409
I12
sg304
Vdecrease 
p410
sg306
g317
sg307
VUBUUxy
p411
sa(dp412
S'block.thisTrialN'
p413
I12
sS'block.thisRepN'
p414
I0
sg29
g33
sS'block.thisN'
p415
I12
sg291
(S'DIVIDE'
S'DOUBLE'
S'x'
S'y'
tp416
sg27
g28
sg293
L2L
sg294
(I12
I2
tp417
sg22
I1
sg20
F0.88343521906062961
sg23
F1.9667466473765671
sVY
L6L
sVX
L6L
sg296
L0L
sg35
g36
sg37
g38
sg21
S'2'
sg19
S'space'
p418
sg34
g11
sg299
L2L
sg300
g330
sg302
L2L
sS'block.thisIndex'
p419
I1
sg304
g331
sg306
L0L
sg307
g367
sa(dp420
S'block.thisTrialN'
p421
I13
sS'block.thisRepN'
p422
I0
sg29
g33
sS'block.thisN'
p423
I13
sg291
(S'DIVIDE'
S'INCREASE'
S'DOUBLE'
S'THIRD'
S'x'
S'y'
tp424
sg27
g28
sg293
L4L
sg294
(I2
I4
I5
I1
tp425
sg22
I1
sg20
F2.8000425370410085
sg23
F4.916705678217113
sVY
L5L
sVX
L6L
sg296
g330
sg35
g36
sg37
g38
sg21
S'1'
sg19
S'space'
p426
sg34
g11
sg299
L1L
sg300
g315
sg302
L1L
sS'block.thisIndex'
p427
I11
sg304
g331
sg306
g317
sg307
g320
sa(dp428
S'block.thisTrialN'
p429
I14
sS'block.thisRepN'
p430
I0
sg29
g33
sS'block.thisN'
p431
I14
sg291
(S'DECREASE'
S'TIMES'
S'DOUBLE'
S'THIRD'
S'x'
S'y'
tp432
sg27
g28
sg293
L4L
sg294
(I1
I2
I8
I7
tp433
sg22
I1
sg20
F1.7000655164010823
sg23
F4.5833864095620811
sVY
L4L
sVX
L3L
sg296
g330
sg35
g36
sg37
g38
sg21
S'7'
sg19
S'space'
p434
sg34
g11
sg299
L7L
sg300
g400
sg302
L7L
sS'block.thisIndex'
p435
I13
sg304
g328
sg306
g317
sg307
g411
sa(dp436
S'block.thisTrialN'
p437
I15
sS'block.thisRepN'
p438
I0
sg29
g33
sS'block.thisN'
p439
I15
sg291
(S'DOUBLE'
S'TRIPLE'
S'DIVIDE'
S'DECREASE'
S'x'
S'y'
tp440
sg27
g28
sg293
L4L
sg294
(I8
I1
I3
I6
tp441
sg22
I1
sg20
F2.3167503247968853
sg23
F3.1333854687400162
sVY
L8L
sVX
L9L
sg296
g331
sg35
g36
sg37
g38
sg21
S'6'
sg19
S'space'
p442
sg34
g11
sg299
L6L
sg300
g297
sg302
L6L
sS'block.thisIndex'
p443
I15
sg304
g330
sg306
g328
sg307
VUUBUxy
p444
sa(dp445
S'block.thisTrialN'
p446
I16
sS'block.thisRepN'
p447
I0
sg29
g33
sS'block.thisN'
p448
I16
sg291
(S'DECREASE'
S'THIRD'
S'TIMES'
S'HALF'
S'x'
S'y'
tp449
sg27
g28
sg293
L4L
sg294
(I2
I12
I4
I3
tp450
sg22
I1
sg20
F3.4167031119577587
sg23
F6.6666875742375851
sVY
L6L
sVX
L4L
sg296
g400
sg35
g36
sg37
g38
sg21
S'3'
sg19
S'space'
p451
sg34
g11
sg299
L3L
sg300
g317
sg302
L3L
sS'block.thisIndex'
p452
I14
sg304
g328
sg306
g305
sg307
g444
sa(dp453
S'block.thisTrialN'
p454
I17
sS'block.thisRepN'
p455
I0
sg29
g33
sS'block.thisN'
p456
I17
sg291
(S'DIVIDE'
S'DOUBLE'
S'THIRD'
S'x'
S'y'
tp457
sg27
g28
sg293
L3L
sg294
(I2
I4
I1
tp458
sg22
I1
sg20
F1.4999971487559378
sg23
F9.1832787557505071
sVY
L4L
sVX
L6L
sg296
g317
sg35
g36
sg37
g38
sg21
S'1'
sg19
S'space'
p459
sg34
g11
sg299
L1L
sg300
g330
sg302
L1L
sS'block.thisIndex'
p460
I4
sg304
g331
sg306
L0L
sg307
g392
sa(dp461
S'block.thisTrialN'
p462
I0
sS'block.thisRepN'
p463
I0
sg29
g33
sS'block.thisN'
p464
I0
sVRule
p465
(S'THIRD'
S'DOUBLE'
S'ADD'
S'INCREASE'
S'x'
S'y'
tp466
sg27
g28
sVLength
p467
L4L
sVIntermediate
p468
(I10
I12
I24
I8
tp469
sg22
I0
sg20
F4.5166730056516826
sg23
F10.516594032291323
sVY
L2L
sVX
L9L
sVOperatorc
p470
VADD
p471
sg35
g36
sg37
g38
sg21
S'6'
sg19
S'space'
p472
sg34
g11
sVResult
p473
L8L
sVOperatora
p474
Vdouble
p475
sVCorrectResponse
p476
L8L
sS'block.thisIndex'
p477
I14
sVOperatorb
p478
Vthird
p479
sVOperatord
p480
Vincrease
p481
sVStructure
p482
VUUBUxy
p483
sa(dp484
S'block.thisTrialN'
p485
I1
sS'block.thisRepN'
p486
I0
sg29
g33
sS'block.thisN'
p487
I1
sg465
(S'TRIPLE'
S'DECREASE'
S'HALF'
S'TIMES'
S'x'
S'y'
tp488
sg27
g28
sg467
L4L
sg468
(I6
I3
I2
I6
tp489
sg22
I1
sg20
F5.183356303256005
sg23
F19.066435430664569
sVY
L2L
sVX
L3L
sg470
Vhalf
p490
sg35
g36
sg37
g38
sg21
S'6'
sg19
S'space'
p491
sg34
g11
sg473
L6L
sg474
Vdecrease
p492
sg476
L6L
sS'block.thisIndex'
p493
I17
sg478
Vtriple
p494
sg480
VTIMES
p495
sg482
VUUUBxy
p496
sa(dp497
S'block.thisTrialN'
p498
I2
sS'block.thisRepN'
p499
I0
sg29
g33
sS'block.thisN'
p500
I2
sg465
(S'TRIPLE'
S'HALF'
S'ADD'
S'DECREASE'
S'x'
S'y'
tp501
sg27
g28
sg467
L4L
sg468
(I1
I4
I2
I6
tp502
sg22
I1
sg20
F2.2833872078917921
sg23
F6.2500015683472157
sVY
L3L
sVX
L2L
sg470
g471
sg35
g36
sg37
g38
sg21
S'6'
sg19
S'space'
p503
sg34
g11
sg473
L6L
sg474
g490
sg476
L6L
sS'block.thisIndex'
p504
I15
sg478
g494
sg480
g492
sg482
g483
sa(dp505
S'block.thisTrialN'
p506
I3
sS'block.thisRepN'
p507
I0
sg29
g33
sS'block.thisN'
p508
I3
sg465
(S'THIRD'
S'ADD'
S'x'
S'y'
tp509
sg27
g28
sg467
L2L
sg468
(I9
I3
tp510
sg22
I1
sg20
F1.0000786879099905
sg23
F2.600064832251519
sVY
L5L
sVX
L4L
sg470
L0L
sg35
g36
sg37
g38
sg21
S'3'
sg19
S'space'
p511
sg34
g11
sg473
L3L
sg474
g471
sg476
L3L
sS'block.thisIndex'
p512
I2
sg478
g479
sg480
L0L
sg482
VUBxy
p513
sa(dp514
S'block.thisTrialN'
p515
I4
sS'block.thisRepN'
p516
I0
sg29
g33
sS'block.thisN'
p517
I4
sg465
(S'TIMES'
S'THIRD'
S'HALF'
S'x'
S'y'
tp518
sg27
g28
sg467
L3L
sg468
(I3
I1
I5
tp519
sg22
I1
sg20
F1.7832560613751411
sg23
F4.7833333238959312
sVY
L5L
sVX
L6L
sg470
g490
sg35
g36
sg37
g38
sg21
S'5'
sg19
S'space'
p520
sg34
g11
sg473
L5L
sg474
g479
sg476
L5L
sS'block.thisIndex'
p521
I5
sg478
g495
sg480
L0L
sg482
VBUUxy
p522
sa(dp523
S'block.thisTrialN'
p524
I5
sS'block.thisRepN'
p525
I0
sg29
g33
sS'block.thisN'
p526
I5
sg465
(S'TIMES'
S'DECREASE'
S'HALF'
S'x'
S'y'
tp527
sg27
g28
sg467
L3L
sg468
(I4
I3
I9
tp528
sg22
I1
sg20
F1.3000721875578165
sg23
F3.3167229550890625
sVY
L3L
sVX
L8L
sg470
g490
sg35
g36
sg37
g38
sg21
S'9'
sg19
S'space'
p529
sg34
g11
sg473
L9L
sg474
g492
sg476
L9L
sS'block.thisIndex'
p530
I4
sg478
g495
sg480
L0L
sg482
g522
sa(dp531
S'block.thisTrialN'
p532
I6
sS'block.thisRepN'
p533
I0
sg29
g33
sS'block.thisN'
p534
I6
sg465
(S'INCREASE'
S'DIVIDE'
S'TRIPLE'
S'DOUBLE'
S'x'
S'y'
tp535
sg27
g28
sg467
L4L
sg468
(I6
I18
I3
I4
tp536
sg22
I1
sg20
F4.4333535949699581
sg23
F6.5332718845456839
sVY
L6L
sVX
L3L
sg470
g494
sg35
g36
sg37
g38
sg21
S'4'
sg19
S'space'
p537
sg34
g11
sg473
L4L
sg474
VDIVIDE
p538
sg476
L4L
sS'block.thisIndex'
p539
I12
sg478
g481
sg480
g475
sg482
VUBUUxy
p540
sa(dp541
S'block.thisTrialN'
p542
I7
sS'block.thisRepN'
p543
I0
sg29
g33
sS'block.thisN'
p544
I7
sg465
(S'TIMES'
S'INCREASE'
S'THIRD'
S'DOUBLE'
S'x'
S'y'
tp545
sg27
g28
sg467
L4L
sg468
(I6
I2
I3
I9
tp546
sg22
I0
sg20
F2.0667461906559765
sg23
F5.2000472699292004
sVY
L3L
sVX
L3L
sg470
g479
sg35
g36
sg37
g38
sg21
S'7'
sg19
S'space'
p547
sg34
g11
sg473
L9L
sg474
g481
sg476
L9L
sS'block.thisIndex'
p548
I11
sg478
g495
sg480
g475
sg482
VBUUUxy
p549
sa(dp550
S'block.thisTrialN'
p551
I8
sS'block.thisRepN'
p552
I0
sg29
g33
sS'block.thisN'
p553
I8
sg465
(S'THIRD'
S'ADD'
S'INCREASE'
S'x'
S'y'
tp554
sg27
g28
sg467
L3L
sg468
(I8
I15
I5
tp555
sg22
I1
sg20
F1.2500882386229932
sg23
F7.7166287577711046
sVY
L7L
sVX
L7L
sg470
g481
sg35
g36
sg37
g38
sg21
S'5'
sg19
S'space'
p556
sg34
g11
sg473
L5L
sg474
g471
sg476
L5L
sS'block.thisIndex'
p557
I6
sg478
g479
sg480
L0L
sg482
VUBUxy
p558
sa(dp559
S'block.thisTrialN'
p560
I9
sS'block.thisRepN'
p561
I0
sg29
g33
sS'block.thisN'
p562
I9
sg465
(S'THIRD'
S'TIMES'
S'DECREASE'
S'x'
S'y'
tp563
sg27
g28
sg467
L3L
sg468
(I3
I15
I5
tp564
sg22
I1
sg20
F1.2834339649416506
sg23
F7.5833031600341201
sVY
L5L
sVX
L4L
sg470
g492
sg35
g36
sg37
g38
sg21
S'5'
sg19
S'space'
p565
sg34
g11
sg473
L5L
sg474
g495
sg476
L5L
sS'block.thisIndex'
p566
I7
sg478
g479
sg480
L0L
sg482
g558
sa(dp567
S'block.thisTrialN'
p568
I10
sS'block.thisRepN'
p569
I0
sg29
g33
sS'block.thisN'
p570
I10
sg465
(S'SUBTRACT'
S'HALF'
S'INCREASE'
S'TRIPLE'
S'x'
S'y'
tp571
sg27
g28
sg467
L4L
sg468
(I15
I16
I8
I3
tp572
sg22
I1
sg20
F4.4166897125542164
sg23
F9.3332314570434391
sVY
L5L
sVX
L5L
sg470
g481
sg35
g36
sg37
g38
sg21
S'3'
sg19
S'space'
p573
sg34
g11
sg473
L3L
sg474
g490
sg476
L3L
sS'block.thisIndex'
p574
I10
sg478
VSUBTRACT
p575
sg480
g494
sg482
g549
sa(dp576
S'block.thisTrialN'
p577
I11
sS'block.thisRepN'
p578
I0
sg29
g33
sS'block.thisN'
p579
I11
sg465
(S'TRIPLE'
S'SUBTRACT'
S'DOUBLE'
S'DECREASE'
S'x'
S'y'
tp580
sg27
g28
sg467
L4L
sg468
(I2
I4
I1
I3
tp581
sg22
I1
sg20
F3.6833528815768659
sg23
F4.9000403699465096
sVY
L3L
sVX
L3L
sg470
g475
sg35
g36
sg37
g38
sg21
S'3'
sg19
S'space'
p582
sg34
g11
sg473
L3L
sg474
g575
sg476
L3L
sS'block.thisIndex'
p583
I13
sg478
g494
sg480
g492
sg482
g540
sa(dp584
S'block.thisTrialN'
p585
I12
sS'block.thisRepN'
p586
I0
sg29
g33
sS'block.thisN'
p587
I12
sg465
(S'THIRD'
S'SUBTRACT'
S'x'
S'y'
tp588
sg27
g28
sg467
L2L
sg468
(I3
I1
tp589
sg22
I1
sg20
F0.73340810602530837
sg23
F3.3667080444283783
sVY
L2L
sVX
L5L
sg470
L0L
sg35
g36
sg37
g38
sg21
S'1'
sg19
S'space'
p590
sg34
g11
sg473
L1L
sg474
g575
sg476
L1L
sS'block.thisIndex'
p591
I3
sg478
g479
sg480
L0L
sg482
g513
sa(dp592
S'block.thisTrialN'
p593
I13
sS'block.thisRepN'
p594
I0
sg29
g33
sS'block.thisN'
p595
I13
sg465
(S'TRIPLE'
S'HALF'
S'DIVIDE'
S'x'
S'y'
tp596
sg27
g28
sg467
L3L
sg468
(I2
I1
I3
tp597
sg22
I1
sg20
F1.0001297211274505
sg23
F4.233385868370533
sVY
L2L
sVX
L4L
sg470
g538
sg35
g36
sg37
g38
sg21
S'3'
sg19
S'space'
p598
sg34
g11
sg473
L3L
sg474
g490
sg476
L3L
sS'block.thisIndex'
p599
I9
sg478
g494
sg480
L0L
sg482
VUUBxy
p600
sa(dp601
S'block.thisTrialN'
p602
I14
sS'block.thisRepN'
p603
I0
sg29
g33
sS'block.thisN'
p604
I14
sg465
(S'TIMES'
S'INCREASE'
S'x'
S'y'
tp605
sg27
g28
sg467
L2L
sg468
(I3
I6
tp606
sg22
I1
sg20
F0.60003746254369617
sg23
F2.0001003555953503
sVY
L2L
sVX
L2L
sg470
L0L
sg35
g36
sg37
g38
sg21
S'6'
sg19
S'space'
p607
sg34
g11
sg473
L6L
sg474
g481
sg476
L6L
sS'block.thisIndex'
p608
I1
sg478
g495
sg480
L0L
sg482
VBUxy
p609
sa(dp610
S'block.thisTrialN'
p611
I15
sS'block.thisRepN'
p612
I0
sg29
g33
sS'block.thisN'
p613
I15
sg465
(S'TIMES'
S'DECREASE'
S'x'
S'y'
tp614
sg27
g28
sg467
L2L
sg468
(I2
I4
tp615
sg22
I1
sg20
F0.9334231591783464
sg23
F1.8001178037375212
sVY
L2L
sVX
L3L
sg470
L0L
sg35
g36
sg37
g38
sg21
S'4'
sg19
S'space'
p616
sg34
g11
sg473
L4L
sg474
g492
sg476
L4L
sS'block.thisIndex'
p617
I0
sg478
g495
sg480
L0L
sg482
g609
sa(dp618
S'block.thisTrialN'
p619
I16
sS'block.thisRepN'
p620
I0
sg29
g33
sS'block.thisN'
p621
I16
sg465
(S'THIRD'
S'INCREASE'
S'HALF'
S'DIVIDE'
S'x'
S'y'
tp622
sg27
g28
sg467
L4L
sg468
(I4
I2
I3
I1
tp623
sg22
I1
sg20
F2.733405539765954
sg23
F9.5832447144202888
sVY
L2L
sVX
L8L
sg470
g490
sg35
g36
sg37
g38
sg21
S'1'
sg19
S'space'
p624
sg34
g11
sg473
L1L
sg474
g481
sg476
L1L
sS'block.thisIndex'
p625
I16
sg478
g479
sg480
g538
sg482
g496
sa(dp626
S'block.thisTrialN'
p627
I17
sS'block.thisRepN'
p628
I0
sg29
g33
sS'block.thisN'
p629
I17
sg465
(S'THIRD'
S'DECREASE'
S'TIMES'
S'x'
S'y'
tp630
sg27
g28
sg467
L3L
sg468
(I25
I24
I8
tp631
sg22
I1
sg20
F0.85004530241712928
sg23
F3.4833560748957098
sVY
L5L
sVX
L5L
sg470
g495
sg35
g36
sg37
g38
sg21
S'8'
sg19
S'space'
p632
sg34
g11
sg473
L8L
sg474
g492
sg476
L8L
sS'block.thisIndex'
p633
I8
sg478
g479
sg480
L0L
sg482
g600
sa(dp634
S'block.thisTrialN'
p635
I0
sS'block.thisRepN'
p636
I0
sg29
g33
sS'block.thisN'
p637
I0
sVRule
p638
(S'THIRD'
S'HALF'
S'ADD'
S'x'
S'y'
tp639
sg27
g28
sVLength
p640
L3L
sVIntermediate
p641
(I6
I3
I1
tp642
sg22
I1
sg20
F4.2166797909885645
sg23
F5.3998844199813902
sVY
L3L
sVX
L3L
sVOperatorc
p643
VADD
p644
sg35
g36
sg37
g38
sg21
S'1'
sg19
S'space'
p645
sg34
g11
sVResult
p646
L1L
sVOperatora
p647
Vhalf
p648
sVCorrectResponse
p649
L1L
sS'block.thisIndex'
p650
I9
sVOperatorb
p651
Vthird
p652
sVOperatord
p653
L0L
sVStructure
p654
VUUBxy
p655
sa(dp656
S'block.thisTrialN'
p657
I1
sS'block.thisRepN'
p658
I0
sg29
g33
sS'block.thisN'
p659
I1
sg638
(S'HALF'
S'ADD'
S'TRIPLE'
S'x'
S'y'
tp660
sg27
g28
sg640
L3L
sg641
(I9
I12
I6
tp661
sg22
I1
sg20
F2.6833816771395504
sg23
F3.7666982370428741
sVY
L3L
sVX
L3L
sg643
Vtriple
p662
sg35
g36
sg37
g38
sg21
S'6'
sg19
S'space'
p663
sg34
g11
sg646
L6L
sg647
g644
sg649
L6L
sS'block.thisIndex'
p664
I6
sg651
g648
sg653
L0L
sg654
VUBUxy
p665
sa(dp666
S'block.thisTrialN'
p667
I2
sS'block.thisRepN'
p668
I0
sg29
g33
sS'block.thisN'
p669
I2
sg638
(S'HALF'
S'TRIPLE'
S'INCREASE'
S'DIVIDE'
S'x'
S'y'
tp670
sg27
g28
sg640
L4L
sg641
(I3
I4
I12
I6
tp671
sg22
I1
sg20
F4.8333446425385773
sg23
F7.0166501975618303
sVY
L3L
sVX
L9L
sg643
Vincrease
p672
sg35
g36
sg37
g38
sg21
S'6'
sg19
S'space'
p673
sg34
g11
sg646
L6L
sg647
g662
sg649
L6L
sS'block.thisIndex'
p674
I16
sg651
g648
sg653
VDIVIDE
p675
sg654
VUUUBxy
p676
sa(dp677
S'block.thisTrialN'
p678
I3
sS'block.thisRepN'
p679
I0
sg29
g33
sS'block.thisN'
p680
I3
sg638
(S'THIRD'
S'DOUBLE'
S'INCREASE'
S'TIMES'
S'x'
S'y'
tp681
sg27
g28
sg640
L4L
sg641
(I8
I9
I18
I6
tp682
sg22
I0
sg20
F3.2333656260743737
sg23
F18.733067695051432
sVY
L4L
sVX
L2L
sg643
g672
sg35
g36
sg37
g38
sg21
S'9'
sg19
S'space'
p683
sg34
g11
sg646
L6L
sg647
Vdouble
p684
sg649
L6L
sS'block.thisIndex'
p685
I17
sg651
g652
sg653
VTIMES
p686
sg654
g676
sa(dp687
S'block.thisTrialN'
p688
I4
sS'block.thisRepN'
p689
I0
sg29
g33
sS'block.thisN'
p690
I4
sg638
(S'INCREASE'
S'ADD'
S'x'
S'y'
tp691
sg27
g28
sg640
L2L
sg641
(I5
I6
tp692
sg22
I1
sg20
F0.65010865218937397
sg23
F4.416690282523632
sVY
L2L
sVX
L3L
sg643
L0L
sg35
g36
sg37
g38
sg21
S'6'
sg19
S'space'
p693
sg34
g11
sg646
L6L
sg647
g644
sg649
L6L
sS'block.thisIndex'
p694
I3
sg651
g672
sg653
L0L
sg654
VUBxy
p695
sa(dp696
S'block.thisTrialN'
p697
I5
sS'block.thisRepN'
p698
I0
sg29
g33
sS'block.thisN'
p699
I5
sg638
(S'THIRD'
S'DOUBLE'
S'ADD'
S'DECREASE'
S'x'
S'y'
tp700
sg27
g28
sg640
L4L
sg641
(I5
I12
I24
I8
tp701
sg22
I1
sg20
F9.8998818537220359
sg23
F6.4333185269497335
sVY
L7L
sVX
L6L
sg643
g644
sg35
g36
sg37
g38
sg21
S'8'
sg19
S'space'
p702
sg34
g11
sg646
L8L
sg647
g684
sg649
L8L
sS'block.thisIndex'
p703
I14
sg651
g652
sg653
Vdecrease
p704
sg654
VUUBUxy
p705
sa(dp706
S'block.thisTrialN'
p707
I6
sS'block.thisRepN'
p708
I0
sg29
g33
sS'block.thisN'
p709
I6
sg638
(S'DIVIDE'
S'DECREASE'
S'TRIPLE'
S'x'
S'y'
tp710
sg27
g28
sg640
L3L
sg641
(I9
I8
I4
tp711
sg22
I1
sg20
F1.7667370107956231
sg23
F4.8833357188850641
sVY
L2L
sVX
L3L
sg643
g662
sg35
g36
sg37
g38
sg21
S'4'
sg19
S'space'
p712
sg34
g11
sg646
L4L
sg647
g704
sg649
L4L
sS'block.thisIndex'
p713
I5
sg651
g675
sg653
L0L
sg654
VBUUxy
p714
sa(dp715
S'block.thisTrialN'
p716
I7
sS'block.thisRepN'
p717
I0
sg29
g33
sS'block.thisN'
p718
I7
sg638
(S'INCREASE'
S'SUBTRACT'
S'HALF'
S'x'
S'y'
tp719
sg27
g28
sg640
L3L
sg641
(I4
I2
I3
tp720
sg22
I1
sg20
F2.1500630360096693
sg23
F3.9667335324920714
sVY
L2L
sVX
L8L
sg643
g648
sg35
g36
sg37
g38
sg21
S'3'
sg19
S'space'
p721
sg34
g11
sg646
L3L
sg647
VSUBTRACT
p722
sg649
L3L
sS'block.thisIndex'
p723
I7
sg651
g672
sg653
L0L
sg654
g665
sa(dp724
S'block.thisTrialN'
p725
I8
sS'block.thisRepN'
p726
I0
sg29
g33
sS'block.thisN'
p727
I8
sg638
(S'DOUBLE'
S'ADD'
S'INCREASE'
S'THIRD'
S'x'
S'y'
tp728
sg27
g28
sg640
L4L
sg641
(I1
I2
I4
I8
tp729
sg22
I1
sg20
F7.5499485963955522
sg23
F5.8666889425367117
sVY
L2L
sVX
L3L
sg643
g672
sg35
g36
sg37
g38
sg21
S'8'
sg19
S'space'
p730
sg34
g11
sg646
L8L
sg647
g644
sg649
L8L
sS'block.thisIndex'
p731
I12
sg651
g684
sg653
g652
sg654
VUBUUxy
p732
sa(dp733
S'block.thisTrialN'
p734
I9
sS'block.thisRepN'
p735
I0
sg29
g33
sS'block.thisN'
p736
I9
sg638
(S'THIRD'
S'INCREASE'
S'DIVIDE'
S'DOUBLE'
S'x'
S'y'
tp737
sg27
g28
sg640
L4L
sg641
(I18
I2
I3
I1
tp738
sg22
I1
sg20
F2.6499472847208381
sg23
F5.5833715843036771
sVY
L9L
sVX
L9L
sg643
g675
sg35
g36
sg37
g38
sg21
S'1'
sg19
S'space'
p739
sg34
g11
sg646
L1L
sg647
g672
sg649
L1L
sS'block.thisIndex'
p740
I15
sg651
g652
sg653
g684
sg654
g705
sa(dp741
S'block.thisTrialN'
p742
I10
sS'block.thisRepN'
p743
I0
sg29
g33
sS'block.thisN'
p744
I10
sg638
(S'SUBTRACT'
S'DECREASE'
S'TRIPLE'
S'DOUBLE'
S'x'
S'y'
tp745
sg27
g28
sg640
L4L
sg641
(I6
I18
I17
I8
tp746
sg22
I1
sg20
F3.8500453024171293
sg23
F13.783197045326233
sVY
L9L
sVX
L3L
sg643
g662
sg35
g36
sg37
g38
sg21
S'8'
sg19
S'space'
p747
sg34
g11
sg646
L8L
sg647
g704
sg649
L8L
sS'block.thisIndex'
p748
I11
sg651
g722
sg653
g684
sg654
VBUUUxy
p749
sa(dp750
S'block.thisTrialN'
p751
I11
sS'block.thisRepN'
p752
I0
sg29
g33
sS'block.thisN'
p753
I11
sg638
(S'INCREASE'
S'TRIPLE'
S'DIVIDE'
S'x'
S'y'
tp754
sg27
g28
sg640
L3L
sg641
(I2
I6
I7
tp755
sg22
I1
sg20
F5.1333555332385004
sg23
F4.2333707571960986
sVY
L3L
sVX
L6L
sg643
g675
sg35
g36
sg37
g38
sg21
S'7'
sg19
S'space'
p756
sg34
g11
sg646
L7L
sg647
g662
sg649
L7L
sS'block.thisIndex'
p757
I8
sg651
g672
sg653
L0L
sg654
g655
sa(dp758
S'block.thisTrialN'
p759
I12
sS'block.thisRepN'
p760
I0
sg29
g33
sS'block.thisN'
p761
I12
sg638
(S'THIRD'
S'TIMES'
S'DOUBLE'
S'DECREASE'
S'x'
S'y'
tp762
sg27
g28
sg640
L4L
sg641
(I1
I2
I6
I2
tp763
sg22
I1
sg20
F7.8166214590892196
sg23
F4.8667049081996083
sVY
L3L
sVX
L2L
sg643
g684
sg35
g36
sg37
g38
sg21
S'2'
sg19
S'space'
p764
sg34
g11
sg646
L2L
sg647
g686
sg649
L2L
sS'block.thisIndex'
p765
I13
sg651
g652
sg653
g704
sg654
g732
sa(dp766
S'block.thisTrialN'
p767
I13
sS'block.thisRepN'
p768
I0
sg29
g33
sS'block.thisN'
p769
I13
sg638
(S'ADD'
S'DOUBLE'
S'DECREASE'
S'THIRD'
S'x'
S'y'
tp770
sg27
g28
sg640
L4L
sg641
(I2
I1
I2
I8
tp771
sg22
I1
sg20
F3.1000280543230474
sg23
F5.5665392074733973
sVY
L6L
sVX
L6L
sg643
g704
sg35
g36
sg37
g38
sg21
S'8'
sg19
S'space'
p772
sg34
g11
sg646
L8L
sg647
g684
sg649
L8L
sS'block.thisIndex'
p773
I10
sg651
g644
sg653
g652
sg654
g749
sa(dp774
S'block.thisTrialN'
p775
I14
sS'block.thisRepN'
p776
I0
sg29
g33
sS'block.thisN'
p777
I14
sg638
(S'DIVIDE'
S'INCREASE'
S'x'
S'y'
tp778
sg27
g28
sg640
L2L
sg641
(I4
I2
tp779
sg22
I1
sg20
F0.61675522895529866
sg23
F1.7667449931614101
sVY
L2L
sVX
L3L
sg643
L0L
sg35
g36
sg37
g38
sg21
S'2'
sg19
S'space'
p780
sg34
g11
sg646
L2L
sg647
g672
sg649
L2L
sS'block.thisIndex'
p781
I0
sg651
g675
sg653
L0L
sg654
VBUxy
p782
sa(dp783
S'block.thisTrialN'
p784
I15
sS'block.thisRepN'
p785
I0
sg29
g33
sS'block.thisN'
p786
I15
sg638
(S'SUBTRACT'
S'DECREASE'
S'x'
S'y'
tp787
sg27
g28
sg640
L2L
sg641
(I5
I3
tp788
sg22
I1
sg20
F1.0334155755117536
sg23
F3.5000601559877396
sVY
L2L
sVX
L6L
sg643
L0L
sg35
g36
sg37
g38
sg21
S'3'
sg19
S'space'
p789
sg34
g11
sg646
L3L
sg647
g704
sg649
L3L
sS'block.thisIndex'
p790
I1
sg651
g722
sg653
L0L
sg654
g782
sa(dp791
S'block.thisTrialN'
p792
I16
sS'block.thisRepN'
p793
I0
sg29
g33
sS'block.thisN'
p794
I16
sg638
(S'DECREASE'
S'DIVIDE'
S'x'
S'y'
tp795
sg27
g28
sg640
L2L
sg641
(I2
I1
tp796
sg22
I1
sg20
F1.0333967586047947
sg23
F2.1500020241364837
sVY
L4L
sVX
L8L
sg643
L0L
sg35
g36
sg37
g38
sg21
S'1'
sg19
S'space'
p797
sg34
g11
sg646
L1L
sg647
g675
sg649
L1L
sS'block.thisIndex'
p798
I2
sg651
g704
sg653
L0L
sg654
g695
sa(dp799
S'block.thisTrialN'
p800
I17
sS'block.thisRepN'
p801
I0
sg29
g33
sS'block.thisN'
p802
I17
sg638
(S'ADD'
S'HALF'
S'THIRD'
S'x'
S'y'
tp803
sg27
g28
sg640
L3L
sg641
(I2
I1
I9
tp804
sg22
I1
sg20
F1.166752862278372
sg23
F2.6334045706316829
sVY
L8L
sVX
L6L
sg643
g652
sg35
g36
sg37
g38
sg21
S'9'
sg19
S'space'
p805
sg34
g11
sg646
L9L
sg647
g648
sg649
L9L
sS'block.thisIndex'
p806
I4
sg651
g644
sg653
L0L
sg654
g714
sa(dp807
S'block.thisTrialN'
p808
I0
sS'block.thisRepN'
p809
I0
sg29
g33
sS'block.thisN'
p810
I0
sVRule
p811
(S'HALF'
S'TRIPLE'
S'INCREASE'
S'SUBTRACT'
S'x'
S'y'
tp812
sg27
g28
sVLength
p813
L4L
sVIntermediate
p814
(I1
I2
I6
I3
tp815
sg22
I1
sg20
F6.7166504254564643
sg23
F4.3833781988359988
sVY
L2L
sVX
L3L
sVOperatorc
p816
Vincrease
p817
sg35
g36
sg37
g38
sg21
S'3'
sg19
S'space'
p818
sg34
g11
sVResult
p819
L3L
sVOperatora
p820
Vtriple
p821
sVCorrectResponse
p822
L3L
sS'block.thisIndex'
p823
I17
sVOperatorb
p824
Vhalf
p825
sVOperatord
p826
VSUBTRACT
p827
sVStructure
p828
VUUUBxy
p829
sa(dp830
S'block.thisTrialN'
p831
I1
sS'block.thisRepN'
p832
I0
sg29
g33
sS'block.thisN'
p833
I1
sg811
(S'TIMES'
S'HALF'
S'INCREASE'
S'x'
S'y'
tp834
sg27
g28
sg813
L3L
sg814
(I6
I3
I9
tp835
sg22
I0
sg20
F1.7332889335229993
sg23
F3.7500474695116282
sVY
L3L
sVX
L5L
sg816
g817
sg35
g36
sg37
g38
sg21
S'6'
sg19
S'space'
p836
sg34
g11
sg819
L9L
sg820
g825
sg822
L9L
sS'block.thisIndex'
p837
I5
sg824
VTIMES
p838
sg826
L0L
sg828
VBUUxy
p839
sa(dp840
S'block.thisTrialN'
p841
I2
sS'block.thisRepN'
p842
I0
sg29
g33
sS'block.thisN'
p843
I2
sg811
(S'SUBTRACT'
S'TRIPLE'
S'DECREASE'
S'DOUBLE'
S'x'
S'y'
tp844
sg27
g28
sg813
L4L
sg814
(I4
I3
I9
I1
tp845
sg22
I1
sg20
F4.7000062153674662
sg23
F14.783163403626531
sVY
L8L
sVX
L2L
sg816
Vdecrease
p846
sg35
g36
sg37
g38
sg21
S'1'
sg19
S'space'
p847
sg34
g11
sg819
L1L
sg820
g821
sg822
L1L
sS'block.thisIndex'
p848
I11
sg824
g827
sg826
Vdouble
p849
sg828
VBUUUxy
p850
sa(dp851
S'block.thisTrialN'
p852
I3
sS'block.thisRepN'
p853
I0
sg29
g33
sS'block.thisN'
p854
I3
sg811
(S'DIVIDE'
S'THIRD'
S'x'
S'y'
tp855
sg27
g28
sg813
L2L
sg814
(I3
I1
tp856
sg22
I1
sg20
F0.8167577376589179
sg23
F3.3168161832727492
sVY
L3L
sVX
L9L
sg816
L0L
sg35
g36
sg37
g38
sg21
S'1'
sg19
S'space'
p857
sg34
g11
sg819
L1L
sg820
Vthird
p858
sg822
L1L
sS'block.thisIndex'
p859
I0
sg824
VDIVIDE
p860
sg826
L0L
sg828
VBUxy
p861
sa(dp862
S'block.thisTrialN'
p863
I4
sS'block.thisRepN'
p864
I0
sg29
g33
sS'block.thisN'
p865
I4
sg811
(S'THIRD'
S'DIVIDE'
S'DECREASE'
S'x'
S'y'
tp866
sg27
g28
sg813
L3L
sg814
(I6
I3
I1
tp867
sg22
I1
sg20
F1.6500747250393033
sg23
F5.0000230935402215
sVY
L2L
sVX
L7L
sg816
g846
sg35
g36
sg37
g38
sg21
S'1'
sg19
S'space'
p868
sg34
g11
sg819
L1L
sg820
g860
sg822
L1L
sS'block.thisIndex'
p869
I6
sg824
g858
sg826
L0L
sg828
VUBUxy
p870
sa(dp871
S'block.thisTrialN'
p872
I5
sS'block.thisRepN'
p873
I0
sg29
g33
sS'block.thisN'
p874
I5
sg811
(S'INCREASE'
S'ADD'
S'HALF'
S'TRIPLE'
S'x'
S'y'
tp875
sg27
g28
sg813
L4L
sg814
(I6
I3
I6
I7
tp876
sg22
I1
sg20
F3.7500260868109763
sg23
F9.5166271044872701
sVY
L3L
sVX
L2L
sg816
g825
sg35
g36
sg37
g38
sg21
S'7'
sg19
S'space'
p877
sg34
g11
sg819
L7L
sg820
VADD
p878
sg822
L7L
sS'block.thisIndex'
p879
I13
sg824
g817
sg826
g821
sg828
VUBUUxy
p880
sa(dp881
S'block.thisTrialN'
p882
I6
sS'block.thisRepN'
p883
I0
sg29
g33
sS'block.thisN'
p884
I6
sg811
(S'SUBTRACT'
S'TRIPLE'
S'DECREASE'
S'x'
S'y'
tp885
sg27
g28
sg813
L3L
sg814
(I4
I12
I3
tp886
sg22
I1
sg20
F2.1500618956051767
sg23
F3.7000447041355073
sVY
L9L
sVX
L5L
sg816
g846
sg35
g36
sg37
g38
sg21
S'3'
sg19
S'space'
p887
sg34
g11
sg819
L3L
sg820
g821
sg822
L3L
sS'block.thisIndex'
p888
I4
sg824
g827
sg826
L0L
sg828
g839
sa(dp889
S'block.thisTrialN'
p890
I7
sS'block.thisRepN'
p891
I0
sg29
g33
sS'block.thisN'
p892
I7
sg811
(S'DOUBLE'
S'DIVIDE'
S'TRIPLE'
S'INCREASE'
S'x'
S'y'
tp893
sg27
g28
sg813
L4L
sg814
(I5
I15
I3
I6
tp894
sg22
I1
sg20
F2.4667275450192392
sg23
F3.6167101822793484
sVY
L5L
sVX
L4L
sg816
g821
sg35
g36
sg37
g38
sg21
S'6'
sg19
S'space'
p895
sg34
g11
sg819
L6L
sg820
g860
sg822
L6L
sS'block.thisIndex'
p896
I12
sg824
g849
sg826
g817
sg828
g880
sa(dp897
S'block.thisTrialN'
p898
I8
sS'block.thisRepN'
p899
I0
sg29
g33
sS'block.thisN'
p900
I8
sg811
(S'DECREASE'
S'TRIPLE'
S'DIVIDE'
S'DOUBLE'
S'x'
S'y'
tp901
sg27
g28
sg813
L4L
sg814
(I6
I2
I6
I5
tp902
sg22
I1
sg20
F4.7166889137588441
sg23
F3.7833929099142551
sVY
L3L
sVX
L3L
sg816
g860
sg35
g36
sg37
g38
sg21
S'5'
sg19
S'space'
p903
sg34
g11
sg819
L5L
sg820
g821
sg822
L5L
sS'block.thisIndex'
p904
I14
sg824
g846
sg826
g849
sg828
VUUBUxy
p905
sa(dp906
S'block.thisTrialN'
p907
I9
sS'block.thisRepN'
p908
I0
sg29
g33
sS'block.thisN'
p909
I9
sg811
(S'THIRD'
S'DIVIDE'
S'x'
S'y'
tp910
sg27
g28
sg813
L2L
sg814
(I3
I1
tp911
sg22
I1
sg20
F0.84993325779214501
sg23
F1.9500864711590111
sVY
L2L
sVX
L6L
sg816
L0L
sg35
g36
sg37
g38
sg21
S'1'
sg19
S'space'
p912
sg34
g11
sg819
L1L
sg820
g860
sg822
L1L
sS'block.thisIndex'
p913
I3
sg824
g858
sg826
L0L
sg828
VUBxy
p914
sa(dp915
S'block.thisTrialN'
p916
I10
sS'block.thisRepN'
p917
I0
sg29
g33
sS'block.thisN'
p918
I10
sg811
(S'TIMES'
S'DOUBLE'
S'x'
S'y'
tp919
sg27
g28
sg813
L2L
sg814
(I4
I8
tp920
sg22
I1
sg20
F0.81662972690537572
sg23
F1.9501004414632916
sVY
L2L
sVX
L2L
sg816
L0L
sg35
g36
sg37
g38
sg21
S'8'
sg19
S'space'
p921
sg34
g11
sg819
L8L
sg820
g849
sg822
L8L
sS'block.thisIndex'
p922
I1
sg824
g838
sg826
L0L
sg828
g861
sa(dp923
S'block.thisTrialN'
p924
I11
sS'block.thisRepN'
p925
I0
sg29
g33
sS'block.thisN'
p926
I11
sg811
(S'THIRD'
S'TIMES'
S'HALF'
S'x'
S'y'
tp927
sg27
g28
sg813
L3L
sg814
(I3
I18
I6
tp928
sg22
I1
sg20
F0.90009482484310865
sg23
F3.9168844362720847
sVY
L6L
sVX
L6L
sg816
g825
sg35
g36
sg37
g38
sg21
S'6'
sg19
S'space'
p929
sg34
g11
sg819
L6L
sg820
g838
sg822
L6L
sS'block.thisIndex'
p930
I7
sg824
g858
sg826
L0L
sg828
g870
sa(dp931
S'block.thisTrialN'
p932
I12
sS'block.thisRepN'
p933
I0
sg29
g33
sS'block.thisN'
p934
I12
sg811
(S'INCREASE'
S'SUBTRACT'
S'x'
S'y'
tp935
sg27
g28
sg813
L2L
sg814
(I3
I4
tp936
sg22
I1
sg20
F1.3167674308642745
sg23
F3.8833719263784587
sVY
L3L
sVX
L6L
sg816
L0L
sg35
g36
sg37
g38
sg21
S'4'
sg19
S'space'
p937
sg34
g11
sg819
L4L
sg820
g827
sg822
L4L
sS'block.thisIndex'
p938
I2
sg824
g817
sg826
L0L
sg828
g914
sa(dp939
S'block.thisTrialN'
p940
I13
sS'block.thisRepN'
p941
I0
sg29
g33
sS'block.thisN'
p942
I13
sg811
(S'SUBTRACT'
S'DOUBLE'
S'TRIPLE'
S'DECREASE'
S'x'
S'y'
tp943
sg27
g28
sg813
L4L
sg814
(I2
I6
I12
I8
tp944
sg22
I1
sg20
F4.1167010590434074
sg23
F5.7833472937345505
sVY
L4L
sVX
L3L
sg816
g821
sg35
g36
sg37
g38
sg21
S'8'
sg19
S'space'
p945
sg34
g11
sg819
L8L
sg820
g849
sg822
L8L
sS'block.thisIndex'
p946
I10
sg824
g827
sg826
g846
sg828
g850
sa(dp947
S'block.thisTrialN'
p948
I14
sS'block.thisRepN'
p949
I0
sg29
g33
sS'block.thisN'
p950
I14
sg811
(S'DECREASE'
S'TRIPLE'
S'HALF'
S'SUBTRACT'
S'x'
S'y'
tp951
sg27
g28
sg813
L4L
sg814
(I4
I2
I6
I5
tp952
sg22
I1
sg20
F4.4833469516597688
sg23
F6.8166588074527681
sVY
L2L
sVX
L6L
sg816
g825
sg35
g36
sg37
g38
sg21
S'5'
sg19
S'space'
p953
sg34
g11
sg819
L5L
sg820
g821
sg822
L5L
sS'block.thisIndex'
p954
I16
sg824
g846
sg826
g827
sg828
g829
sa(dp955
S'block.thisTrialN'
p956
I15
sS'block.thisRepN'
p957
I0
sg29
g33
sS'block.thisN'
p958
I15
sg811
(S'DOUBLE'
S'DECREASE'
S'ADD'
S'x'
S'y'
tp959
sg27
g28
sg813
L3L
sg814
(I4
I3
I6
tp960
sg22
I1
sg20
F1.0832917564548552
sg23
F3.8000488094985485
sVY
L2L
sVX
L2L
sg816
g878
sg35
g36
sg37
g38
sg21
S'6'
sg19
S'space'
p961
sg34
g11
sg819
L6L
sg820
g846
sg822
L6L
sS'block.thisIndex'
p962
I8
sg824
g849
sg826
L0L
sg828
VUUBxy
p963
sa(dp964
S'block.thisTrialN'
p965
I16
sS'block.thisRepN'
p966
I0
sg29
g33
sS'block.thisN'
p967
I16
sg811
(S'DOUBLE'
S'THIRD'
S'TIMES'
S'x'
S'y'
tp968
sg27
g28
sg813
L3L
sg814
(I12
I4
I8
tp969
sg22
I1
sg20
F0.86680127261206508
sg23
F5.6499874838627875
sVY
L6L
sVX
L2L
sg816
g838
sg35
g36
sg37
g38
sg21
S'8'
sg19
S'space'
p970
sg34
g11
sg819
L8L
sg820
g858
sg822
L8L
sS'block.thisIndex'
p971
I9
sg824
g849
sg826
L0L
sg828
g963
sa(dp972
S'block.thisTrialN'
p973
I17
sS'block.thisRepN'
p974
I0
sg29
g33
sS'block.thisN'
p975
I17
sg811
(S'THIRD'
S'DECREASE'
S'TIMES'
S'HALF'
S'x'
S'y'
tp976
sg27
g28
sg813
L4L
sg814
(I4
I16
I15
I5
tp977
sg22
I1
sg20
F2.2167339599691331
sg23
F6.1333370013162494
sVY
L4L
sVX
L8L
sg816
g838
sg35
g36
sg37
g38
sg21
S'5'
sg19
S'space'
p978
sg34
g11
sg819
L5L
sg820
g846
sg822
L5L
sS'block.thisIndex'
p979
I15
sg824
g858
sg826
g825
sg828
g905
sa(dp980
S'block.thisTrialN'
p981
I0
sS'block.thisRepN'
p982
I0
sg29
g33
sS'block.thisN'
p983
I0
sVRule
p984
(S'THIRD'
S'INCREASE'
S'ADD'
S'DOUBLE'
S'x'
S'y'
tp985
sg27
g28
sVLength
p986
L4L
sVIntermediate
p987
(I16
I20
I21
I7
tp988
sg22
I1
sg20
F6.9999672132544219
sg23
F5.4500149111263454
sVY
L4L
sVX
L8L
sVOperatorc
p989
VADD
p990
sg35
g36
sg37
g38
sg21
S'7'
sg19
S'space'
p991
sg34
g11
sVResult
p992
L7L
sVOperatora
p993
Vincrease
p994
sVCorrectResponse
p995
L7L
sS'block.thisIndex'
p996
I14
sVOperatorb
p997
Vthird
p998
sVOperatord
p999
Vdouble
p1000
sVStructure
p1001
VUUBUxy
p1002
sa(dp1003
S'block.thisTrialN'
p1004
I1
sS'block.thisRepN'
p1005
I0
sg29
g33
sS'block.thisN'
p1006
I1
sg984
(S'DIVIDE'
S'TRIPLE'
S'HALF'
S'x'
S'y'
tp1007
sg27
g28
sg986
L3L
sg987
(I4
I12
I4
tp1008
sg22
I1
sg20
F1.0500848744995892
sg23
F3.3167158276773989
sVY
L3L
sVX
L8L
sg989
Vhalf
p1009
sg35
g36
sg37
g38
sg21
S'4'
sg19
S'space'
p1010
sg34
g11
sg992
L4L
sg993
Vtriple
p1011
sg995
L4L
sS'block.thisIndex'
p1012
I4
sg997
VDIVIDE
p1013
sg999
L0L
sg1001
VBUUxy
p1014
sa(dp1015
S'block.thisTrialN'
p1016
I2
sS'block.thisRepN'
p1017
I0
sg29
g33
sS'block.thisN'
p1018
I2
sg984
(S'TIMES'
S'THIRD'
S'DOUBLE'
S'x'
S'y'
tp1019
sg27
g28
sg986
L3L
sg987
(I6
I2
I4
tp1020
sg22
I0
sg20
F1.8167594480328262
sg23
F8.0666392780840397
sVY
L2L
sVX
L3L
sg989
g1000
sg35
g36
sg37
g38
sg21
S'9'
sg19
S'space'
p1021
sg34
g11
sg992
L4L
sg993
g998
sg995
L4L
sS'block.thisIndex'
p1022
I5
sg997
VTIMES
p1023
sg999
L0L
sg1001
g1014
sa(dp1024
S'block.thisTrialN'
p1025
I3
sS'block.thisRepN'
p1026
I0
sg29
g33
sS'block.thisN'
p1027
I3
sg984
(S'DECREASE'
S'TRIPLE'
S'DIVIDE'
S'x'
S'y'
tp1028
sg27
g28
sg986
L3L
sg987
(I2
I6
I5
tp1029
sg22
I1
sg20
F1.4334143209271133
sg23
F2.9167367541231215
sVY
L4L
sVX
L8L
sg989
g1013
sg35
g36
sg37
g38
sg21
S'5'
sg19
S'space'
p1030
sg34
g11
sg992
L5L
sg993
g1011
sg995
L5L
sS'block.thisIndex'
p1031
I8
sg997
Vdecrease
p1032
sg999
L0L
sg1001
VUUBxy
p1033
sa(dp1034
S'block.thisTrialN'
p1035
I4
sS'block.thisRepN'
p1036
I0
sg29
g33
sS'block.thisN'
p1037
I4
sg984
(S'DIVIDE'
S'DOUBLE'
S'INCREASE'
S'THIRD'
S'x'
S'y'
tp1038
sg27
g28
sg986
L4L
sg987
(I2
I3
I6
I2
tp1039
sg22
I1
sg20
F2.4667241238057613
sg23
F8.9999475413933396
sVY
L3L
sVX
L6L
sg989
g994
sg35
g36
sg37
g38
sg21
S'2'
sg19
S'space'
p1040
sg34
g11
sg992
L2L
sg993
g1000
sg995
L2L
sS'block.thisIndex'
p1041
I10
sg997
g1013
sg999
g998
sg1001
VBUUUxy
p1042
sa(dp1043
S'block.thisTrialN'
p1044
I5
sS'block.thisRepN'
p1045
I0
sg29
g33
sS'block.thisN'
p1046
I5
sg984
(S'DOUBLE'
S'ADD'
S'x'
S'y'
tp1047
sg27
g28
sg986
L2L
sg987
(I4
I8
tp1048
sg22
I1
sg20
F0.75009023444727063
sg23
F1.8834303724579513
sVY
L2L
sVX
L2L
sg989
L0L
sg35
g36
sg37
g38
sg21
S'8'
sg19
S'space'
p1049
sg34
g11
sg992
L8L
sg993
g990
sg995
L8L
sS'block.thisIndex'
p1050
I2
sg997
g1000
sg999
L0L
sg1001
VUBxy
p1051
sa(dp1052
S'block.thisTrialN'
p1053
I6
sS'block.thisRepN'
p1054
I0
sg29
g33
sS'block.thisN'
p1055
I6
sg984
(S'THIRD'
S'TIMES'
S'HALF'
S'INCREASE'
S'x'
S'y'
tp1056
sg27
g28
sg986
L4L
sg987
(I8
I4
I12
I4
tp1057
sg22
I1
sg20
F1.63342823414132
sg23
F5.8000302775762975
sVY
L3L
sVX
L7L
sg989
g1009
sg35
g36
sg37
g38
sg21
S'4'
sg19
S'space'
p1058
sg34
g11
sg992
L4L
sg993
g1023
sg995
L4L
sS'block.thisIndex'
p1059
I13
sg997
g998
sg999
g994
sg1001
VUBUUxy
p1060
sa(dp1061
S'block.thisTrialN'
p1062
I7
sS'block.thisRepN'
p1063
I0
sg29
g33
sS'block.thisN'
p1064
I7
sg984
(S'INCREASE'
S'SUBTRACT'
S'THIRD'
S'x'
S'y'
tp1065
sg27
g28
sg986
L3L
sg987
(I3
I1
I2
tp1066
sg22
I1
sg20
F2.5332738799043
sg23
F3.6500239768065512
sVY
L2L
sVX
L9L
sg989
g998
sg35
g36
sg37
g38
sg21
S'2'
sg19
S'space'
p1067
sg34
g11
sg992
L2L
sg993
VSUBTRACT
p1068
sg995
L2L
sS'block.thisIndex'
p1069
I7
sg997
g994
sg999
L0L
sg1001
VUBUxy
p1070
sa(dp1071
S'block.thisTrialN'
p1072
I8
sS'block.thisRepN'
p1073
I0
sg29
g33
sS'block.thisN'
p1074
I8
sg984
(S'TRIPLE'
S'DOUBLE'
S'SUBTRACT'
S'DECREASE'
S'x'
S'y'
tp1075
sg27
g28
sg986
L4L
sg987
(I4
I1
I2
I6
tp1076
sg22
I1
sg20
F2.3000519452616572
sg23
F2.383381050080061
sVY
L3L
sVX
L5L
sg989
g1068
sg35
g36
sg37
g38
sg21
S'6'
sg19
S'space'
p1077
sg34
g11
sg992
L6L
sg993
g1000
sg995
L6L
sS'block.thisIndex'
p1078
I15
sg997
g1011
sg999
g1032
sg1001
g1002
sa(dp1079
S'block.thisTrialN'
p1080
I9
sS'block.thisRepN'
p1081
I0
sg29
g33
sS'block.thisN'
p1082
I9
sg984
(S'THIRD'
S'INCREASE'
S'SUBTRACT'
S'x'
S'y'
tp1083
sg27
g28
sg986
L3L
sg987
(I2
I3
I1
tp1084
sg22
I1
sg20
F2.2167345304042101
sg23
F2.0667595905251801
sVY
L6L
sVX
L8L
sg989
g1068
sg35
g36
sg37
g38
sg21
S'1'
sg19
S'space'
p1085
sg34
g11
sg992
L1L
sg993
g994
sg995
L1L
sS'block.thisIndex'
p1086
I9
sg997
g998
sg999
L0L
sg1001
g1033
sa(dp1087
S'block.thisTrialN'
p1088
I10
sS'block.thisRepN'
p1089
I0
sg29
g33
sS'block.thisN'
p1090
I10
sg984
(S'SUBTRACT'
S'INCREASE'
S'x'
S'y'
tp1091
sg27
g28
sg986
L2L
sg987
(I6
I2
tp1092
sg22
I1
sg20
F0.70009602233767509
sg23
F1.2001276686787605
sVY
L4L
sVX
L5L
sg989
L0L
sg35
g36
sg37
g38
sg21
S'2'
sg19
S'space'
p1093
sg34
g11
sg992
L2L
sg993
g994
sg995
L2L
sS'block.thisIndex'
p1094
I1
sg997
g1068
sg999
L0L
sg1001
VBUxy
p1095
sa(dp1096
S'block.thisTrialN'
p1097
I11
sS'block.thisRepN'
p1098
I0
sg29
g33
sS'block.thisN'
p1099
I11
sg984
(S'ADD'
S'THIRD'
S'x'
S'y'
tp1100
sg27
g28
sg986
L2L
sg987
(I1
I7
tp1101
sg22
I1
sg20
F0.6667904956266284
sg23
F1.4500981601886451
sVY
L6L
sVX
L3L
sg989
L0L
sg35
g36
sg37
g38
sg21
S'7'
sg19
S'space'
p1102
sg34
g11
sg992
L7L
sg993
g998
sg995
L7L
sS'block.thisIndex'
p1103
I0
sg997
g990
sg999
L0L
sg1001
g1095
sa(dp1104
S'block.thisTrialN'
p1105
I12
sS'block.thisRepN'
p1106
I0
sg29
g33
sS'block.thisN'
p1107
I12
sg984
(S'TIMES'
S'INCREASE'
S'HALF'
S'TRIPLE'
S'x'
S'y'
tp1108
sg27
g28
sg986
L4L
sg987
(I6
I3
I4
I8
tp1109
sg22
I1
sg20
F3.0833744355477393
sg23
F12.366556941065937
sVY
L2L
sVX
L2L
sg989
g1009
sg35
g36
sg37
g38
sg21
S'8'
sg19
S'space'
p1110
sg34
g11
sg992
L8L
sg993
g994
sg995
L8L
sS'block.thisIndex'
p1111
I11
sg997
g1023
sg999
g1011
sg1001
g1042
sa(dp1112
S'block.thisTrialN'
p1113
I13
sS'block.thisRepN'
p1114
I0
sg29
g33
sS'block.thisN'
p1115
I13
sg984
(S'INCREASE'
S'ADD'
S'TRIPLE'
S'x'
S'y'
tp1116
sg27
g28
sg986
L3L
sg987
(I6
I8
I9
tp1117
sg22
I1
sg20
F0.65009867353364825
sg23
F2.6334065664559603
sVY
L2L
sVX
L2L
sg989
g1011
sg35
g36
sg37
g38
sg21
S'9'
sg19
S'space'
p1118
sg34
g11
sg992
L9L
sg993
g990
sg995
L9L
sS'block.thisIndex'
p1119
I6
sg997
g994
sg999
L0L
sg1001
g1070
sa(dp1120
S'block.thisTrialN'
p1121
I14
sS'block.thisRepN'
p1122
I0
sg29
g33
sS'block.thisN'
p1123
I14
sg984
(S'DOUBLE'
S'TIMES'
S'x'
S'y'
tp1124
sg27
g28
sg986
L2L
sg987
(I4
I8
tp1125
sg22
I1
sg20
F0.65009610773995519
sg23
F3.2002727850340307
sVY
L2L
sVX
L2L
sg989
L0L
sg35
g36
sg37
g38
sg21
S'8'
sg19
S'space'
p1126
sg34
g11
sg992
L8L
sg993
g1023
sg995
L8L
sS'block.thisIndex'
p1127
I3
sg997
g1000
sg999
L0L
sg1001
g1051
sa(dp1128
S'block.thisTrialN'
p1129
I15
sS'block.thisRepN'
p1130
I0
sg29
g33
sS'block.thisN'
p1131
I15
sg984
(S'TRIPLE'
S'DECREASE'
S'HALF'
S'SUBTRACT'
S'x'
S'y'
tp1132
sg27
g28
sg986
L4L
sg987
(I4
I2
I1
I3
tp1133
sg22
I1
sg20
F3.4667147155851126
sg23
F4.183353167027235
sVY
L5L
sVX
L9L
sg989
g1009
sg35
g36
sg37
g38
sg21
S'3'
sg19
S'space'
p1134
sg34
g11
sg992
L3L
sg993
g1032
sg995
L3L
sS'block.thisIndex'
p1135
I17
sg997
g1011
sg999
g1068
sg1001
VUUUBxy
p1136
sa(dp1137
S'block.thisTrialN'
p1138
I16
sS'block.thisRepN'
p1139
I0
sg29
g33
sS'block.thisN'
p1140
I16
sg984
(S'INCREASE'
S'DIVIDE'
S'TRIPLE'
S'HALF'
S'x'
S'y'
tp1141
sg27
g28
sg986
L4L
sg987
(I2
I6
I2
I3
tp1142
sg22
I1
sg20
F1.7500734133645892
sg23
F6.1499846330843866
sVY
L3L
sVX
L4L
sg989
g1011
sg35
g36
sg37
g38
sg21
S'3'
sg19
S'space'
p1143
sg34
g11
sg992
L3L
sg993
g1013
sg995
L3L
sS'block.thisIndex'
p1144
I12
sg997
g994
sg999
g1009
sg1001
g1060
sa(dp1145
S'block.thisTrialN'
p1146
I17
sS'block.thisRepN'
p1147
I0
sg29
g33
sS'block.thisN'
p1148
I17
sg984
(S'DECREASE'
S'TRIPLE'
S'HALF'
S'ADD'
S'x'
S'y'
tp1149
sg27
g28
sg986
L4L
sg987
(I6
I3
I9
I8
tp1150
sg22
I1
sg20
F2.3667382653802633
sg23
F5.6000118032097816
sVY
L2L
sVX
L4L
sg989
g1009
sg35
g36
sg37
g38
sg21
S'8'
sg19
S'space'
p1151
sg34
g11
sg992
L8L
sg993
g1011
sg995
L8L
sS'block.thisIndex'
p1152
I16
sg997
g1032
sg999
g990
sg1001
g1136
sa(dp1153
S'block.thisTrialN'
p1154
I0
sS'block.thisRepN'
p1155
I0
sg29
g33
sS'block.thisN'
p1156
I0
sVRule
p1157
(S'INCREASE'
S'DIVIDE'
S'TRIPLE'
S'x'
S'y'
tp1158
sg27
g28
sVLength
p1159
L3L
sVIntermediate
p1160
(I6
I2
I3
tp1161
sg22
I1
sg20
F5.5833336659707129
sg23
F4.0000601564534009
sVY
L3L
sVX
L2L
sVOperatorc
p1162
Vtriple
p1163
sg35
g36
sg37
g38
sg21
S'3'
sg19
S'space'
p1164
sg34
g11
sVResult
p1165
L3L
sVOperatora
p1166
VDIVIDE
p1167
sVCorrectResponse
p1168
L3L
sS'block.thisIndex'
p1169
I7
sVOperatorb
p1170
Vincrease
p1171
sVOperatord
p1172
L0L
sVStructure
p1173
VUBUxy
p1174
sa(dp1175
S'block.thisTrialN'
p1176
I1
sS'block.thisRepN'
p1177
I0
sg29
g33
sS'block.thisN'
p1178
I1
sg1157
(S'DIVIDE'
S'DOUBLE'
S'INCREASE'
S'TRIPLE'
S'x'
S'y'
tp1179
sg27
g28
sg1159
L4L
sg1160
(I9
I10
I20
I5
tp1180
sg22
I1
sg20
F5.0000128294341266
sg23
F5.9500046474859118
sVY
L4L
sVX
L3L
sg1162
g1171
sg35
g36
sg37
g38
sg21
S'5'
sg19
S'space'
p1181
sg34
g11
sg1165
L5L
sg1166
Vdouble
p1182
sg1168
L5L
sS'block.thisIndex'
p1183
I10
sg1170
g1167
sg1172
g1163
sg1173
VBUUUxy
p1184
sa(dp1185
S'block.thisTrialN'
p1186
I2
sS'block.thisRepN'
p1187
I0
sg29
g33
sS'block.thisN'
p1188
I2
sg1157
(S'TRIPLE'
S'INCREASE'
S'SUBTRACT'
S'x'
S'y'
tp1189
sg27
g28
sg1159
L3L
sg1160
(I1
I2
I6
tp1190
sg22
I1
sg20
F1.0500703346915543
sg23
F10.249907199293375
sVY
L2L
sVX
L3L
sg1162
VSUBTRACT
p1191
sg35
g36
sg37
g38
sg21
S'6'
sg19
S'space'
p1192
sg34
g11
sg1165
L6L
sg1166
g1171
sg1168
L6L
sS'block.thisIndex'
p1193
I9
sg1170
g1163
sg1172
L0L
sg1173
VUUBxy
p1194
sa(dp1195
S'block.thisTrialN'
p1196
I3
sS'block.thisRepN'
p1197
I0
sg29
g33
sS'block.thisN'
p1198
I3
sg1157
(S'DECREASE'
S'THIRD'
S'DOUBLE'
S'ADD'
S'x'
S'y'
tp1199
sg27
g28
sg1159
L4L
sg1160
(I9
I18
I6
I5
tp1200
sg22
I1
sg20
F2.4502327279187739
sg23
F4.6500188452191651
sVY
L4L
sVX
L5L
sg1162
g1182
sg35
g36
sg37
g38
sg21
S'5'
sg19
S'space'
p1201
sg34
g11
sg1165
L5L
sg1166
Vthird
p1202
sg1168
L5L
sS'block.thisIndex'
p1203
I16
sg1170
Vdecrease
p1204
sg1172
VADD
p1205
sg1173
VUUUBxy
p1206
sa(dp1207
S'block.thisTrialN'
p1208
I4
sS'block.thisRepN'
p1209
I0
sg29
g33
sS'block.thisN'
p1210
I4
sg1157
(S'TIMES'
S'HALF'
S'INCREASE'
S'THIRD'
S'x'
S'y'
tp1211
sg27
g28
sg1159
L4L
sg1160
(I1
I2
I1
I9
tp1212
sg22
I1
sg20
F2.8000260009430349
sg23
F10.999909908045083
sVY
L9L
sVX
L3L
sg1162
g1171
sg35
g36
sg37
g38
sg21
S'9'
sg19
S'space'
p1213
sg34
g11
sg1165
L9L
sg1166
Vhalf
p1214
sg1168
L9L
sS'block.thisIndex'
p1215
I11
sg1170
VTIMES
p1216
sg1172
g1202
sg1173
g1184
sa(dp1217
S'block.thisTrialN'
p1218
I5
sS'block.thisRepN'
p1219
I0
sg29
g33
sS'block.thisN'
p1220
I5
sg1157
(S'SUBTRACT'
S'TRIPLE'
S'x'
S'y'
tp1221
sg27
g28
sg1159
L2L
sg1160
(I12
I9
tp1222
sg22
I1
sg20
F0.7667626696638763
sg23
F3.2833960461430252
sVY
L3L
sVX
L4L
sg1162
L0L
sg35
g36
sg37
g38
sg21
S'9'
sg19
S'space'
p1223
sg34
g11
sg1165
L9L
sg1166
g1163
sg1168
L9L
sS'block.thisIndex'
p1224
I1
sg1170
g1191
sg1172
L0L
sg1173
VBUxy
p1225
sa(dp1226
S'block.thisTrialN'
p1227
I6
sS'block.thisRepN'
p1228
I0
sg29
g33
sS'block.thisN'
p1229
I6
sg1157
(S'DOUBLE'
S'DIVIDE'
S'x'
S'y'
tp1230
sg27
g28
sg1159
L2L
sg1160
(I1
I2
tp1231
sg22
I1
sg20
F0.68343727197498083
sg23
F3.449929665774107
sVY
L8L
sVX
L8L
sg1162
L0L
sg35
g36
sg37
g38
sg21
S'2'
sg19
S'space'
p1232
sg34
g11
sg1165
L2L
sg1166
g1167
sg1168
L2L
sS'block.thisIndex'
p1233
I2
sg1170
g1182
sg1172
L0L
sg1173
VUBxy
p1234
sa(dp1235
S'block.thisTrialN'
p1236
I7
sS'block.thisRepN'
p1237
I0
sg29
g33
sS'block.thisN'
p1238
I7
sg1157
(S'INCREASE'
S'TIMES'
S'TRIPLE'
S'HALF'
S'x'
S'y'
tp1239
sg27
g28
sg1159
L4L
sg1160
(I1
I3
I6
I7
tp1240
sg22
I1
sg20
F2.2333952765911818
sg23
F8.1999483397230506
sVY
L2L
sVX
L2L
sg1162
g1163
sg35
g36
sg37
g38
sg21
S'7'
sg19
S'space'
p1241
sg34
g11
sg1165
L7L
sg1166
g1216
sg1168
L7L
sS'block.thisIndex'
p1242
I13
sg1170
g1171
sg1172
g1214
sg1173
VUBUUxy
p1243
sa(dp1244
S'block.thisTrialN'
p1245
I8
sS'block.thisRepN'
p1246
I0
sg29
g33
sS'block.thisN'
p1247
I8
sg1157
(S'TRIPLE'
S'INCREASE'
S'DIVIDE'
S'DOUBLE'
S'x'
S'y'
tp1248
sg27
g28
sg1159
L4L
sg1160
(I16
I2
I3
I9
tp1249
sg22
I1
sg20
F3.4001162075437605
sg23
F4.3500555665232241
sVY
L8L
sVX
L8L
sg1162
g1167
sg35
g36
sg37
g38
sg21
S'9'
sg19
S'space'
p1250
sg34
g11
sg1165
L9L
sg1166
g1171
sg1168
L9L
sS'block.thisIndex'
p1251
I15
sg1170
g1163
sg1172
g1182
sg1173
VUUBUxy
p1252
sa(dp1253
S'block.thisTrialN'
p1254
I9
sS'block.thisRepN'
p1255
I0
sg29
g33
sS'block.thisN'
p1256
I9
sg1157
(S'DIVIDE'
S'TRIPLE'
S'DECREASE'
S'x'
S'y'
tp1257
sg27
g28
sg1159
L3L
sg1160
(I6
I18
I9
tp1258
sg22
I1
sg20
F1.7667526914738119
sg23
F6.61664061807096
sVY
L2L
sVX
L7L
sg1162
g1204
sg35
g36
sg37
g38
sg21
S'9'
sg19
S'space'
p1259
sg34
g11
sg1165
L9L
sg1166
g1163
sg1168
L9L
sS'block.thisIndex'
p1260
I4
sg1170
g1167
sg1172
L0L
sg1173
VBUUxy
p1261
sa(dp1262
S'block.thisTrialN'
p1263
I10
sS'block.thisRepN'
p1264
I0
sg29
g33
sS'block.thisN'
p1265
I10
sg1157
(S'INCREASE'
S'DIVIDE'
S'x'
S'y'
tp1266
sg27
g28
sg1159
L2L
sg1160
(I4
I5
tp1267
sg22
I1
sg20
F0.6667425986379385
sg23
F2.1000750954262912
sVY
L2L
sVX
L8L
sg1162
L0L
sg35
g36
sg37
g38
sg21
S'5'
sg19
S'space'
p1268
sg34
g11
sg1165
L5L
sg1166
g1167
sg1168
L5L
sS'block.thisIndex'
p1269
I3
sg1170
g1171
sg1172
L0L
sg1173
g1234
sa(dp1270
S'block.thisTrialN'
p1271
I11
sS'block.thisRepN'
p1272
I0
sg29
g33
sS'block.thisN'
p1273
I11
sg1157
(S'ADD'
S'HALF'
S'x'
S'y'
tp1274
sg27
g28
sg1159
L2L
sg1160
(I2
I7
tp1275
sg22
I1
sg20
F0.81675260560587049
sg23
F2.2000800566747785
sVY
L5L
sVX
L4L
sg1162
L0L
sg35
g36
sg37
g38
sg21
S'7'
sg19
S'space'
p1276
sg34
g11
sg1165
L7L
sg1166
g1214
sg1168
L7L
sS'block.thisIndex'
p1277
I0
sg1170
g1205
sg1172
L0L
sg1173
g1225
sa(dp1278
S'block.thisTrialN'
p1279
I12
sS'block.thisRepN'
p1280
I0
sg29
g33
sS'block.thisN'
p1281
I12
sg1157
(S'THIRD'
S'INCREASE'
S'HALF'
S'TIMES'
S'x'
S'y'
tp1282
sg27
g28
sg1159
L4L
sg1160
(I28
I14
I15
I5
tp1283
sg22
I1
sg20
F1.6832767599262297
sg23
F6.9166783085092902
sVY
L4L
sVX
L7L
sg1162
g1214
sg35
g36
sg37
g38
sg21
S'5'
sg19
S'space'
p1284
sg34
g11
sg1165
L5L
sg1166
g1171
sg1168
L5L
sS'block.thisIndex'
p1285
I17
sg1170
g1202
sg1172
g1216
sg1173
g1206
sa(dp1286
S'block.thisTrialN'
p1287
I13
sS'block.thisRepN'
p1288
I0
sg29
g33
sS'block.thisN'
p1289
I13
sg1157
(S'HALF'
S'TIMES'
S'DECREASE'
S'x'
S'y'
tp1290
sg27
g28
sg1159
L3L
sg1160
(I8
I16
I8
tp1291
sg22
I1
sg20
F0.88339673029258847
sg23
F11.1832240158692
sVY
L2L
sVX
L9L
sg1162
g1204
sg35
g36
sg37
g38
sg21
S'8'
sg19
S'space'
p1292
sg34
g11
sg1165
L8L
sg1166
g1216
sg1168
L8L
sS'block.thisIndex'
p1293
I6
sg1170
g1214
sg1172
L0L
sg1173
g1174
sa(dp1294
S'block.thisTrialN'
p1295
I14
sS'block.thisRepN'
p1296
I0
sg29
g33
sS'block.thisN'
p1297
I14
sg1157
(S'SUBTRACT'
S'INCREASE'
S'HALF'
S'x'
S'y'
tp1298
sg27
g28
sg1159
L3L
sg1160
(I4
I5
I3
tp1299
sg22
I1
sg20
F1.2000783453695476
sg23
F3.8000291376374662
sVY
L2L
sVX
L8L
sg1162
g1214
sg35
g36
sg37
g38
sg21
S'3'
sg19
S'space'
p1300
sg34
g11
sg1165
L3L
sg1166
g1171
sg1168
L3L
sS'block.thisIndex'
p1301
I5
sg1170
g1191
sg1172
L0L
sg1173
g1261
sa(dp1302
S'block.thisTrialN'
p1303
I15
sS'block.thisRepN'
p1304
I0
sg29
g33
sS'block.thisN'
p1305
I15
sg1157
(S'HALF'
S'SUBTRACT'
S'DECREASE'
S'TRIPLE'
S'x'
S'y'
tp1306
sg27
g28
sg1159
L4L
sg1160
(I15
I14
I10
I5
tp1307
sg22
I1
sg20
F5.9666468617506325
sg23
F8.5166142745874822
sVY
L4L
sVX
L5L
sg1162
g1204
sg35
g36
sg37
g38
sg21
S'5'
sg19
S'space'
p1308
sg34
g11
sg1165
L5L
sg1166
g1191
sg1168
L5L
sS'block.thisIndex'
p1309
I12
sg1170
g1214
sg1172
g1163
sg1173
g1243
sa(dp1310
S'block.thisTrialN'
p1311
I16
sS'block.thisRepN'
p1312
I0
sg29
g33
sS'block.thisN'
p1313
I16
sg1157
(S'TRIPLE'
S'DOUBLE'
S'SUBTRACT'
S'INCREASE'
S'x'
S'y'
tp1314
sg27
g28
sg1159
L4L
sg1160
(I5
I1
I2
I6
tp1315
sg22
I1
sg20
F4.1835652822628617
sg23
F1.650316490791738
sVY
L4L
sVX
L4L
sg1162
g1191
sg35
g36
sg37
g38
sg21
S'6'
sg19
S'space'
p1316
sg34
g11
sg1165
L6L
sg1166
g1182
sg1168
L6L
sS'block.thisIndex'
p1317
I14
sg1170
g1163
sg1172
g1171
sg1173
g1252
sa(dp1318
S'block.thisTrialN'
p1319
I17
sS'block.thisRepN'
p1320
I0
sg29
g33
sS'block.thisN'
p1321
I17
sg1157
(S'TRIPLE'
S'HALF'
S'ADD'
S'x'
S'y'
tp1322
sg27
g28
sg1159
L3L
sg1160
(I6
I3
I9
tp1323
sg22
I1
sg20
F1.5167417149059474
sg23
F7.5833137091249228
sVY
L3L
sVX
L3L
sg1162
g1205
sg35
g36
sg37
g38
sg21
S'9'
sg19
S'space'
p1324
sg34
g11
sg1165
L9L
sg1166
g1214
sg1168
L9L
sS'block.thisIndex'
p1325
I8
sg1170
g1163
sg1172
L0L
sg1173
g1194
sa(dp1326
S'block.thisTrialN'
p1327
I0
sS'block.thisRepN'
p1328
I0
sg29
g33
sS'block.thisN'
p1329
I0
sVRule
p1330
(S'TRIPLE'
S'SUBTRACT'
S'x'
S'y'
tp1331
sg27
g28
sVLength
p1332
L2L
sVIntermediate
p1333
(I2
I6
tp1334
sg22
I1
sg20
F0.86673883534967899
sg23
F4.6500490657053888
sVY
L6L
sVX
L8L
sVOperatorc
p1335
L0L
sg35
g36
sg37
g38
sg21
S'6'
sg19
S'space'
p1336
sg34
g11
sVResult
p1337
L6L
sVOperatora
p1338
VSUBTRACT
p1339
sVCorrectResponse
p1340
L6L
sS'block.thisIndex'
p1341
I3
sVOperatorb
p1342
Vtriple
p1343
sVOperatord
p1344
L0L
sVStructure
p1345
VUBxy
p1346
sa(dp1347
S'block.thisTrialN'
p1348
I1
sS'block.thisRepN'
p1349
I0
sg29
g33
sS'block.thisN'
p1350
I1
sg1330
(S'INCREASE'
S'DIVIDE'
S'HALF'
S'x'
S'y'
tp1351
sg27
g28
sg1332
L3L
sg1333
(I2
I1
I2
tp1352
sg22
I1
sg20
F1.0167619567364454
sg23
F2.5000895219855011
sVY
L2L
sVX
L4L
sg1335
Vhalf
p1353
sg35
g36
sg37
g38
sg21
S'2'
sg19
S'space'
p1354
sg34
g11
sg1337
L2L
sg1338
VDIVIDE
p1355
sg1340
L2L
sS'block.thisIndex'
p1356
I7
sg1342
Vincrease
p1357
sg1344
L0L
sg1345
VUBUxy
p1358
sa(dp1359
S'block.thisTrialN'
p1360
I2
sS'block.thisRepN'
p1361
I0
sg29
g33
sS'block.thisN'
p1362
I2
sg1330
(S'DECREASE'
S'DIVIDE'
S'TRIPLE'
S'DOUBLE'
S'x'
S'y'
tp1363
sg27
g28
sg1332
L4L
sg1333
(I6
I18
I2
I1
tp1364
sg22
I1
sg20
F2.8667225842364132
sg23
F4.5166915371082723
sVY
L9L
sVX
L3L
sg1335
g1343
sg35
g36
sg37
g38
sg21
S'1'
sg19
S'space'
p1365
sg34
g11
sg1337
L1L
sg1338
g1355
sg1340
L1L
sS'block.thisIndex'
p1366
I12
sg1342
Vdecrease
p1367
sg1344
Vdouble
p1368
sg1345
VUBUUxy
p1369
sa(dp1370
S'block.thisTrialN'
p1371
I3
sS'block.thisRepN'
p1372
I0
sg29
g33
sS'block.thisN'
p1373
I3
sg1330
(S'INCREASE'
S'TIMES'
S'x'
S'y'
tp1374
sg27
g28
sg1332
L2L
sg1333
(I8
I9
tp1375
sg22
I1
sg20
F0.68342301668599248
sg23
F2.3500609830953181
sVY
L4L
sVX
L2L
sg1335
L0L
sg35
g36
sg37
g38
sg21
S'9'
sg19
S'space'
p1376
sg34
g11
sg1337
L9L
sg1338
VTIMES
p1377
sg1340
L9L
sS'block.thisIndex'
p1378
I2
sg1342
g1357
sg1344
L0L
sg1345
g1346
sa(dp1379
S'block.thisTrialN'
p1380
I4
sS'block.thisRepN'
p1381
I0
sg29
g33
sS'block.thisN'
p1382
I4
sg1330
(S'DOUBLE'
S'TIMES'
S'THIRD'
S'x'
S'y'
tp1383
sg27
g28
sg1332
L3L
sg1333
(I1
I4
I8
tp1384
sg22
I1
sg20
F4.8166898833587766
sg23
F2.933397214859724
sVY
L4L
sVX
L3L
sg1335
Vthird
p1385
sg35
g36
sg37
g38
sg21
S'8'
sg19
S'space'
p1386
sg34
g11
sg1337
L8L
sg1338
g1377
sg1340
L8L
sS'block.thisIndex'
p1387
I6
sg1342
g1368
sg1344
L0L
sg1345
g1358
sa(dp1388
S'block.thisTrialN'
p1389
I5
sS'block.thisRepN'
p1390
I0
sg29
g33
sS'block.thisN'
p1391
I5
sg1330
(S'TRIPLE'
S'HALF'
S'TIMES'
S'x'
S'y'
tp1392
sg27
g28
sg1332
L3L
sg1333
(I6
I3
I9
tp1393
sg22
I1
sg20
F1.3667570818215609
sg23
F5.3333531953394413
sVY
L3L
sVX
L2L
sg1335
g1377
sg35
g36
sg37
g38
sg21
S'9'
sg19
S'space'
p1394
sg34
g11
sg1337
L9L
sg1338
g1353
sg1340
L9L
sS'block.thisIndex'
p1395
I9
sg1342
g1343
sg1344
L0L
sg1345
VUUBxy
p1396
sa(dp1397
S'block.thisTrialN'
p1398
I6
sS'block.thisRepN'
p1399
I0
sg29
g33
sS'block.thisN'
p1400
I6
sg1330
(S'DIVIDE'
S'DECREASE'
S'THIRD'
S'DOUBLE'
S'x'
S'y'
tp1401
sg27
g28
sg1332
L4L
sg1333
(I12
I4
I3
I1
tp1402
sg22
I1
sg20
F2.2667298829182982
sg23
F7.0166444950737059
sVY
L3L
sVX
L6L
sg1335
g1385
sg35
g36
sg37
g38
sg21
S'1'
sg19
S'space'
p1403
sg34
g11
sg1337
L1L
sg1338
g1367
sg1340
L1L
sS'block.thisIndex'
p1404
I10
sg1342
g1355
sg1344
g1368
sg1345
VBUUUxy
p1405
sa(dp1406
S'block.thisTrialN'
p1407
I7
sS'block.thisRepN'
p1408
I0
sg29
g33
sS'block.thisN'
p1409
I7
sg1330
(S'THIRD'
S'INCREASE'
S'SUBTRACT'
S'HALF'
S'x'
S'y'
tp1410
sg27
g28
sg1332
L4L
sg1333
(I4
I2
I3
I1
tp1411
sg22
I1
sg20
F2.0833767163567245
sg23
F5.8500011116266251
sVY
L2L
sVX
L8L
sg1335
g1339
sg35
g36
sg37
g38
sg21
S'1'
sg19
S'space'
p1412
sg34
g11
sg1337
L1L
sg1338
g1357
sg1340
L1L
sS'block.thisIndex'
p1413
I15
sg1342
g1385
sg1344
g1353
sg1345
VUUBUxy
p1414
sa(dp1415
S'block.thisTrialN'
p1416
I8
sS'block.thisRepN'
p1417
I0
sg29
g33
sS'block.thisN'
p1418
I8
sg1330
(S'SUBTRACT'
S'DOUBLE'
S'DECREASE'
S'x'
S'y'
tp1419
sg27
g28
sg1332
L3L
sg1333
(I8
I16
I7
tp1420
sg22
I1
sg20
F0.78342854790389538
sg23
F6.7333188690245152
sVY
L9L
sVX
L9L
sg1335
g1367
sg35
g36
sg37
g38
sg21
S'7'
sg19
S'space'
p1421
sg34
g11
sg1337
L7L
sg1338
g1368
sg1340
L7L
sS'block.thisIndex'
p1422
I5
sg1342
g1339
sg1344
L0L
sg1345
VBUUxy
p1423
sa(dp1424
S'block.thisTrialN'
p1425
I9
sS'block.thisRepN'
p1426
I0
sg29
g33
sS'block.thisN'
p1427
I9
sg1330
(S'INCREASE'
S'HALF'
S'TIMES'
S'TRIPLE'
S'x'
S'y'
tp1428
sg27
g28
sg1332
L4L
sg1333
(I6
I12
I6
I7
tp1429
sg22
I0
sg20
F4.2833669655956328
sg23
F12.083195392042398
sVY
L2L
sVX
L2L
sg1335
g1377
sg35
g36
sg37
g38
sg21
S'5'
sg19
S'space'
p1430
sg34
g11
sg1337
L7L
sg1338
g1353
sg1340
L7L
sS'block.thisIndex'
p1431
I14
sg1342
g1357
sg1344
g1343
sg1345
g1414
sa(dp1432
S'block.thisTrialN'
p1433
I10
sS'block.thisRepN'
p1434
I0
sg29
g33
sS'block.thisN'
p1435
I10
sg1330
(S'SUBTRACT'
S'THIRD'
S'x'
S'y'
tp1436
sg27
g28
sg1332
L2L
sg1333
(I3
I1
tp1437
sg22
I1
sg20
F0.68356357142329216
sg23
F4.2336091022007167
sVY
L2L
sVX
L9L
sg1335
L0L
sg35
g36
sg37
g38
sg21
S'1'
sg19
S'space'
p1438
sg34
g11
sg1337
L1L
sg1338
g1385
sg1340
L1L
sS'block.thisIndex'
p1439
I0
sg1342
g1339
sg1344
L0L
sg1345
VBUxy
p1440
sa(dp1441
S'block.thisTrialN'
p1442
I11
sS'block.thisRepN'
p1443
I0
sg29
g33
sS'block.thisN'
p1444
I11
sg1330
(S'TRIPLE'
S'SUBTRACT'
S'INCREASE'
S'HALF'
S'x'
S'y'
tp1445
sg27
g28
sg1332
L4L
sg1333
(I3
I4
I1
I3
tp1446
sg22
I0
sg20
F9.2165175681002438
sg23
F8.4666203474625945
sVY
L3L
sVX
L6L
sg1335
g1357
sg35
g36
sg37
g38
sg21
S'6'
sg19
S'space'
p1447
sg34
g11
sg1337
L3L
sg1338
g1339
sg1340
L3L
sS'block.thisIndex'
p1448
I13
sg1342
g1343
sg1344
g1353
sg1345
g1369
sa(dp1449
S'block.thisTrialN'
p1450
I12
sS'block.thisRepN'
p1451
I0
sg29
g33
sS'block.thisN'
p1452
I12
sg1330
(S'DECREASE'
S'HALF'
S'DIVIDE'
S'x'
S'y'
tp1453
sg27
g28
sg1332
L3L
sg1333
(I4
I2
I1
tp1454
sg22
I1
sg20
F0.79996755532920361
sg23
F3.366708614397794
sVY
L2L
sVX
L8L
sg1335
g1355
sg35
g36
sg37
g38
sg21
S'1'
sg19
S'space'
p1455
sg34
g11
sg1337
L1L
sg1338
g1353
sg1340
L1L
sS'block.thisIndex'
p1456
I8
sg1342
g1367
sg1344
L0L
sg1345
g1396
sa(dp1457
S'block.thisTrialN'
p1458
I13
sS'block.thisRepN'
p1459
I0
sg29
g33
sS'block.thisN'
p1460
I13
sg1330
(S'TIMES'
S'THIRD'
S'x'
S'y'
tp1461
sg27
g28
sg1332
L2L
sg1333
(I1
I4
tp1462
sg22
I1
sg20
F0.65011606505140662
sg23
F1.2167750145308673
sVY
L4L
sVX
L3L
sg1335
L0L
sg35
g36
sg37
g38
sg21
S'4'
sg19
S'space'
p1463
sg34
g11
sg1337
L4L
sg1338
g1385
sg1340
L4L
sS'block.thisIndex'
p1464
I1
sg1342
g1377
sg1344
L0L
sg1345
g1440
sa(dp1465
S'block.thisTrialN'
p1466
I14
sS'block.thisRepN'
p1467
I0
sg29
g33
sS'block.thisN'
p1468
I14
sg1330
(S'ADD'
S'DECREASE'
S'HALF'
S'x'
S'y'
tp1469
sg27
g28
sg1332
L3L
sg1333
(I3
I2
I6
tp1470
sg22
I0
sg20
F1.4167467327788472
sg23
F6.299919658806175
sVY
L4L
sVX
L6L
sg1335
g1353
sg35
g36
sg37
g38
sg21
S'5'
sg19
S'space'
p1471
sg34
g11
sg1337
L6L
sg1338
g1367
sg1340
L6L
sS'block.thisIndex'
p1472
I4
sg1342
VADD
p1473
sg1344
L0L
sg1345
g1423
sa(dp1474
S'block.thisTrialN'
p1475
I15
sS'block.thisRepN'
p1476
I0
sg29
g33
sS'block.thisN'
p1477
I15
sg1330
(S'TIMES'
S'DECREASE'
S'THIRD'
S'DOUBLE'
S'x'
S'y'
tp1478
sg27
g28
sg1332
L4L
sg1333
(I6
I2
I1
I2
tp1479
sg22
I0
sg20
F1.6167481010779738
sVY
L2L
sVX
L3L
sg1335
g1385
sg35
g36
sg37
g38
sg21
Nsg19
S'space'
p1480
sg34
g11
sg1337
L2L
sg1338
g1367
sg1340
L2L
sS'block.thisIndex'
p1481
I11
sg1342
g1377
sg1344
g1368
sg1345
g1405
sa(dp1482
S'block.thisTrialN'
p1483
I16
sS'block.thisRepN'
p1484
I0
sg29
g33
sS'block.thisN'
p1485
I16
sg1330
(S'DECREASE'
S'HALF'
S'TRIPLE'
S'ADD'
S'x'
S'y'
tp1486
sg27
g28
sg1332
L4L
sg1333
(I4
I12
I6
I5
tp1487
sg22
I1
sg20
F2.9834284908138216
sg23
F10.199925816617906
sVY
L2L
sVX
L2L
sg1335
g1343
sg35
g36
sg37
g38
sg21
S'5'
sg19
S'space'
p1488
sg34
g11
sg1337
L5L
sg1338
g1353
sg1340
L5L
sS'block.thisIndex'
p1489
I16
sg1342
g1367
sg1344
g1473
sg1345
VUUUBxy
p1490
sa(dp1491
S'block.thisTrialN'
p1492
I17
sS'block.thisRepN'
p1493
I0
sg29
g33
sS'block.thisN'
p1494
I17
sg1330
(S'INCREASE'
S'TRIPLE'
S'HALF'
S'ADD'
S'x'
S'y'
tp1495
sg27
g28
sg1332
L4L
sg1333
(I4
I2
I6
I7
tp1496
sg22
I1
sg20
F4.8166667902842164
sg23
F8.3832775582559407
sVY
L2L
sVX
L2L
sg1335
g1353
sg35
g36
sg37
g38
sg21
S'7'
sg19
S'space'
p1497
sg34
g11
sg1337
L7L
sg1338
g1343
sg1340
L7L
sS'block.thisIndex'
p1498
I17
sg1342
g1357
sg1344
g1473
sg1345
g1490
sasS'loops'
p1499
(lp1500
g1
(cpsychopy.data
TrialHandler
p1501
g3
NtRp1502
(dp1503
S'origin'
p1504
NsS'thisTrial'
p1505
(lp1506
sS'_exp'
p1507
I363008208
sg10
S'practice_trials'
p1508
sg6
S'C:\\Users\\CCDL\\Desktop\\Experiments\\KRITL\\2. kritl_experimenter.py'
p1509
sS'thisRepN'
p1510
I1
sg24
I01
sg25
g26
sS'data'
p1511
g1
(cpsychopy.data
DataHandler
p1512
c__builtin__
dict
p1513
(dp1514
g15
cnumpy.core.multiarray
_reconstruct
p1515
(cnumpy
ndarray
p1516
(I0
tS'b'
tRp1517
(I1
(I6
I1
tg31
(S'O4'
I0
I1
tRp1518
(I3
S'|'
NNNI-1
I-1
I63
tbI00
(lp1519
(lp1520
F3.5500575052574277
aa(lp1521
F4.9666545591317117
aa(lp1522
F4.4666619719937444
aa(lp1523
F5.0666484013199806
aa(lp1524
F1.7667735037393868
aa(lp1525
F9.5832090764306486
aatbsg16
g1515
(g1516
(I0
tS'b'
tRp1526
(I1
(I6
I1
tg1518
I00
(lp1527
S'7'
aS'8'
aNaS'8'
aS'3'
aS'6'
atbsS'ran'
p1528
cnumpy.ma.core
_mareconstruct
p1529
(cnumpy.ma.core
MaskedArray
p1530
g1516
(I0
tp1531
S'b'
tRp1532
(I1
(I6
I1
tg31
(S'f4'
I0
I1
tRp1533
(I3
S'<'
NNNI-1
I-1
I0
tbI00
S'\x00\x00\x80?\x00\x00\x80?\x00\x00\x80?\x00\x00\x80?\x00\x00\x80?\x00\x00\x80?'
S'\x00\x00\x00\x00\x00\x00'
Ntbsg18
g1529
(g1530
g1516
g1531
S'b'
tRp1534
(I1
(I6
I1
tg1533
I00
S'uf\x86@\xa9Ue@\x00\x00\x00\x008\xbck@\x16\xde\xa5@\xd2\x99\xb1@'
S'\x00\x00\x01\x00\x00\x00'
Ntbsg14
g1515
(g1516
(I0
tS'b'
tRp1535
(I1
(I6
I1
tg1518
I00
(lp1536
(lp1537
g82
aa(lp1538
g120
aa(lp1539
g69
aa(lp1540
g102
aa(lp1541
g93
aa(lp1542
g111
aatbsS'order'
p1543
g1529
(g1530
g1516
g1531
S'b'
tRp1544
(I1
(I6
I1
tg1533
I00
S'\x00\x00\x80?\x00\x00\xa0@\x00\x00\x00\x00\x00\x00@@\x00\x00\x00@\x00\x00\x80@'
S'\x00\x00\x00\x00\x00\x00'
Ntbsg17
g1529
(g1530
g1516
g1531
S'b'
tRp1545
(I1
(I6
I1
tg1533
I00
S'\x00\x00\x80?\x00\x00\x80?\x00\x00\x00\x00\x00\x00\x80?\x00\x00\x80?\x00\x00\x00\x00'
S'\x00\x00\x00\x00\x00\x00'
NtbstRp1546
(dp1547
S'isNumeric'
p1548
(dp1549
g16
I00
sg1528
I01
sg18
I01
sg14
I00
sg17
I01
sg1543
I01
sg15
I00
ssS'trials'
p1550
g1502
sS'dataTypes'
p1551
(lp1552
g1528
ag1543
ag14
ag15
ag16
ag17
ag18
asS'dataShape'
p1553
(lp1554
I6
aI1
asbsS'method'
p1555
S'fullRandom'
p1556
sS'sequenceIndices'
p1557
g1515
(g1516
(I0
tS'b'
tRp1558
(I1
(I6
I1
tg1518
I00
(lp1559
I2
aI0
aI4
aI3
aI5
aI1
atbsS'finished'
p1560
I01
sS'nReps'
p1561
I1
sS'nRemaining'
p1562
I-1
sS'trialList'
p1563
(lp1564
g1
(cpsychopy.data
TrialType
p1565
g1513
(dp1566
g47
L0L
sg48
g72
sg49
g78
sg50
L7L
sg53
L2L
sg52
L0L
sg51
L5L
sg54
L3L
stRp1567
ag1
(g1565
g1513
(dp1568
g47
L0L
sg48
g78
sg49
g116
sg50
L8L
sg53
L2L
sg52
L0L
sg51
L3L
sg54
L3L
stRp1569
ag1
(g1565
g1513
(dp1570
g47
L0L
sg48
g72
sg49
g70
sg50
L7L
sg53
L2L
sg52
L0L
sg51
L5L
sg54
L4L
stRp1571
ag1
(g1565
g1513
(dp1572
g47
g72
sg48
g98
sg49
g70
sg50
L8L
sg53
L3L
sg52
L0L
sg51
L2L
sg54
L4L
stRp1573
ag1
(g1565
g1513
(dp1574
g47
g87
sg48
g88
sg49
g89
sg50
L3L
sg53
L3L
sg52
L0L
sg51
L3L
sg54
L2L
stRp1575
ag1
(g1565
g1513
(dp1576
g47
g87
sg48
g88
sg49
g107
sg50
L9L
sg53
L4L
sg52
g89
sg51
L8L
sg54
L8L
stRp1577
asS'seed'
p1578
NsS'thisIndex'
p1579
I1
sS'thisN'
p1580
I6
sS'thisTrialN'
p1581
I0
sS'nTotal'
p1582
I6
sbag1
(g1501
g3
NtRp1583
(dp1584
g1504
Nsg1505
(lp1585
sg1507
I363008208
sg10
S'block'
p1586
sg6
g1509
sg1510
I1
sg24
I01
sg25
g26
sg1511
g1
(g1512
g1513
(dp1587
g22
g1529
(g1530
g1516
g1531
S'b'
tRp1588
(I1
(I18
I1
tg1533
I00
S'\x00\x00\x80?\x00\x00\x80?\x00\x00\x80?\x00\x00\x80?\x00\x00\x80?\x00\x00\x80?\x00\x00\x80?\x00\x00\x00\x00\x00\x00\x80?\x00\x00\x80?\x00\x00\x80?\x00\x00\x80?\x00\x00\x80?\x00\x00\x80?\x00\x00\x80?\x00\x00\x80?\x00\x00\x80?\x00\x00\x80?'
S'\x00\x00\x00\x00\x00\x00\x00\x00\x00\x00\x00\x00\x00\x00\x00\x00\x00\x00'
Ntbsg19
g1515
(g1516
(I0
tS'b'
tRp1589
(I1
(I18
I1
tg1518
I00
(lp1590
g130
ag244
ag285
ag165
ag227
ag201
ag154
ag277
ag261
ag192
ag235
ag269
ag253
ag174
ag183
ag219
ag142
ag211
atbsg23
g1529
(g1530
g1516
g1531
S'b'
tRp1591
(I1
(I18
I1
tg1533
I00
S'\n\x14\xf1?\xac\xf1\xae?\xef\xde=@ \xce\x1c@k\x898@\xba\xcd|@\xfb!\x82@x\x9bi@\x13\xce,@[\xef\x86@\xfef\x86@0\xbc\x8b@]"\x8a@j\xcc(A\xd8\xdd\xc5@t3\x83@\xa5w\x8f@\xf2f\xae@'
S'\x00\x00\x00\x00\x00\x00\x00\x00\x00\x00\x00\x00\x00\x00\x00\x00\x00\x00'
Ntbsg1528
g1529
(g1530
g1516
g1531
S'b'
tRp1592
(I1
(I18
I1
tg1533
I00
S'\x00\x00\x80?\x00\x00\x80?\x00\x00\x80?\x00\x00\x80?\x00\x00\x80?\x00\x00\x80?\x00\x00\x80?\x00\x00\x80?\x00\x00\x80?\x00\x00\x80?\x00\x00\x80?\x00\x00\x80?\x00\x00\x80?\x00\x00\x80?\x00\x00\x80?\x00\x00\x80?\x00\x00\x80?\x00\x00\x80?'
S'\x00\x00\x00\x00\x00\x00\x00\x00\x00\x00\x00\x00\x00\x00\x00\x00\x00\x00'
Ntbsg21
g1515
(g1516
(I0
tS'b'
tRp1593
(I1
(I18
I1
tg1518
I00
(lp1594
S'7'
aS'2'
aS'8'
aS'6'
aS'7'
aS'8'
aS'2'
aS'3'
aS'6'
aS'5'
aS'9'
aS'8'
aS'6'
aS'3'
aS'5'
aS'8'
aS'3'
aS'1'
atbsg1543
g1529
(g1530
g1516
g1531
S'b'
tRp1595
(I1
(I18
I1
tg1533
I00
S'\x00\x00\x00\x00\x00\x00@A\x00\x00\x88A\x00\x00@@\x00\x00 A\x00\x00\xe0@\x00\x00\x00@\x00\x00\x80A\x00\x00`A\x00\x00\xc0@\x00\x000A\x00\x00pA\x00\x00PA\x00\x00\x80@\x00\x00\xa0@\x00\x00\x10A\x00\x00\x80?\x00\x00\x00A'
S'\x00\x00\x00\x00\x00\x00\x00\x00\x00\x00\x00\x00\x00\x00\x00\x00\x00\x00'
Ntbsg20
g1529
(g1530
g1516
g1531
S'b'
tRp1596
(I1
(I18
I1
tg1533
I00
S'\x8awG@\x97\xcd,@##\x12@UV\x15@\x82\x89\x08@Nx\x17@\xa6\xee\xde@\xa0\xf3n?\x07\xf5n?\x1a\x12\x11@\xb8\x000@f\xef^@\x1a#\x02@x3\xc3@vD\x9c@\x07Vu@n\x11\x99@\xb7DD@'
S'\x00\x00\x00\x00\x00\x00\x00\x00\x00\x00\x00\x00\x00\x00\x00\x00\x00\x00'
NtbstRp1597
(dp1598
g1548
(dp1599
g1528
I01
sg21
I00
sg20
I01
sg22
I01
sg19
I00
sg23
I01
sg1543
I01
ssg1550
g1583
sg1551
(lp1600
g1528
ag1543
ag19
ag20
ag21
ag22
ag23
asg1553
(lp1601
I18
aI1
asbsg1555
g1556
sg1557
g1515
(g1516
(I0
tS'b'
tRp1602
(I1
(I18
I1
tg1518
I00
(lp1603
I0
aI16
aI6
aI3
aI13
aI14
aI9
aI5
aI17
aI15
aI4
aI10
aI1
aI12
aI8
aI11
aI7
aI2
atbsg1560
I01
sg1561
I1
sg1562
I-1
sg1563
(lp1604
g1
(g1565
g1513
(dp1605
g55
g128
sVY
L5L
sg57
L2L
sg58
g129
sg59
L7L
sg60
L7L
sg56
g131
sVX
L3L
sg61
L0L
sg62
g133
sg63
L0L
sg64
g134
stRp1606
ag1
(g1565
g1513
(dp1607
g55
g242
sVY
L4L
sg57
L2L
sg58
g243
sg59
L2L
sg60
L2L
sg56
g131
sVX
L9L
sg61
L0L
sg62
g246
sg63
L0L
sg64
g134
stRp1608
ag1
(g1565
g1513
(dp1609
g55
g283
sVY
L3L
sg57
L2L
sg58
g284
sg59
L8L
sg60
L8L
sg56
g146
sVX
L3L
sg61
L0L
sg62
g131
sg63
L0L
sg64
g167
stRp1610
ag1
(g1565
g1513
(dp1611
g55
g163
sVY
L8L
sg57
L2L
sg58
g164
sg59
L6L
sg60
L6L
sg56
g133
sVX
L4L
sg61
L0L
sg62
g143
sg63
L0L
sg64
g167
stRp1612
ag1
(g1565
g1513
(dp1613
g55
g225
sVY
L5L
sg57
L3L
sg58
g226
sg59
L7L
sg60
L7L
sg56
g157
sVX
L2L
sg61
g131
sg62
g133
sg63
L0L
sg64
g204
stRp1614
ag1
(g1565
g1513
(dp1615
g55
g199
sVY
L2L
sg57
L3L
sg58
g200
sg59
L8L
sg60
L8L
sg56
g202
sVX
L4L
sg61
g143
sg62
g133
sg63
L0L
sg64
g204
stRp1616
ag1
(g1565
g1513
(dp1617
g55
g152
sVY
L3L
sg57
L3L
sg58
g153
sg59
L2L
sg60
L2L
sg56
g155
sVX
L3L
sg61
g145
sg62
g157
sg63
L0L
sg64
g158
stRp1618
ag1
(g1565
g1513
(dp1619
g55
g275
sVY
L3L
sg57
L3L
sg58
g276
sg59
L5L
sg60
L5L
sg56
g133
sVX
L2L
sg61
g143
sg62
g145
sg63
L0L
sg64
g158
stRp1620
ag1
(g1565
g1513
(dp1621
g55
g259
sVY
L4L
sg57
L3L
sg58
g260
sg59
L6L
sg60
L6L
sg56
g141
sVX
L5L
sg61
g133
sg62
g157
sg63
L0L
sg64
g194
stRp1622
ag1
(g1565
g1513
(dp1623
g55
g190
sVY
L3L
sg57
L3L
sg58
g191
sg59
L5L
sg60
L5L
sg56
g145
sVX
L3L
sg61
g146
sg62
g143
sg63
L0L
sg64
g194
stRp1624
ag1
(g1565
g1513
(dp1625
g55
g233
sVY
L4L
sg57
L4L
sg58
g234
sg59
L9L
sg60
L9L
sg56
g131
sVX
L9L
sg61
g141
sg62
g133
sg63
g157
sg64
g237
stRp1626
ag1
(g1565
g1513
(dp1627
g55
g267
sVY
L2L
sg57
L4L
sg58
g268
sg59
L8L
sg60
L8L
sg56
g202
sVX
L2L
sg61
g157
sg62
g133
sg63
g131
sg64
g237
stRp1628
ag1
(g1565
g1513
(dp1629
g55
g251
sVY
L6L
sg57
L4L
sg58
g252
sg59
L6L
sg60
L6L
sg56
g133
sVX
L6L
sg61
g141
sg62
g131
sg63
g143
sg64
g176
stRp1630
ag1
(g1565
g1513
(dp1631
g55
g172
sVY
L2L
sg57
L4L
sg58
g173
sg59
L3L
sg60
L3L
sg56
g155
sVX
L9L
sg61
g157
sg62
g131
sg63
g141
sg64
g176
stRp1632
ag1
(g1565
g1513
(dp1633
g55
g181
sVY
L3L
sg57
L4L
sg58
g182
sg59
L5L
sg60
L5L
sg56
g157
sVX
L3L
sg61
g146
sg62
g131
sg63
g141
sg64
g185
stRp1634
ag1
(g1565
g1513
(dp1635
g55
g217
sVY
L3L
sg57
L4L
sg58
g218
sg59
L8L
sg60
L8L
sg56
g202
sVX
L3L
sg61
g155
sg62
g131
sg63
g157
sg64
g185
stRp1636
ag1
(g1565
g1513
(dp1637
g55
g139
sVY
L4L
sg57
L4L
sg58
g140
sg59
L3L
sg60
L3L
sg56
g143
sVX
L3L
sg61
g141
sg62
g145
sg63
g146
sg64
g147
stRp1638
ag1
(g1565
g1513
(dp1639
g55
g209
sVY
L2L
sg57
L4L
sg58
g210
sg59
L1L
sg60
L1L
sg56
g143
sVX
L7L
sg61
g145
sg62
g141
sg63
g155
sg64
g147
stRp1640
asg1578
Nsg1579
I2
sg1580
I18
sg1581
I0
sg1582
I18
sbag1
(g1501
g3
NtRp1641
(dp1642
g1504
Nsg1505
(lp1643
sg1507
I363008208
sg10
g1586
sg6
g1509
sg1510
I1
sg24
I01
sg25
g26
sg1511
g1
(g1512
g1513
(dp1644
g22
g1529
(g1530
g1516
g1531
S'b'
tRp1645
(I1
(I18
I1
tg1533
I00
S'\x00\x00\x80?\x00\x00\x80?\x00\x00\x80?\x00\x00\x80?\x00\x00\x80?\x00\x00\x80?\x00\x00\x80?\x00\x00\x80?\x00\x00\x80?\x00\x00\x80?\x00\x00\x80?\x00\x00\x80?\x00\x00\x80?\x00\x00\x80?\x00\x00\x80?\x00\x00\x80?\x00\x00\x80?\x00\x00\x00\x00'
S'\x00\x00\x00\x00\x00\x00\x00\x00\x00\x00\x00\x00\x00\x00\x00\x00\x00\x00'
Ntbsg19
g1515
(g1516
(I0
tS'b'
tRp1646
(I1
(I18
I1
tg1518
I00
(lp1647
g365
ag418
ag356
ag399
ag459
ag390
ag298
ag382
ag339
ag348
ag316
ag426
ag408
ag434
ag451
ag442
ag374
ag327
atbsg23
g1529
(g1530
g1516
g1531
S'b'
tRp1648
(I1
(I18
I1
tg1533
I00
S'\x9a\x02\xe0?[\xbe\xfb?:\xae\x8a?\x7f\xabj@\xb6\xee\x12AE"\xaa@\xc5\xcc\x9c@\tw\x1bA\x89\xee\xf6@*\xab\x12A\x08\xbc\x93@\xa7U\x9d@\xc9e\xee@\x1a\xab\x92@\x81U\xd5@c\x89H@]\xbb#A\xa8\x87|A'
S'\x00\x00\x00\x00\x00\x00\x00\x00\x00\x00\x00\x00\x00\x00\x00\x00\x00\x00'
Ntbsg1528
g1529
(g1530
g1516
g1531
S'b'
tRp1649
(I1
(I18
I1
tg1533
I00
S'\x00\x00\x80?\x00\x00\x80?\x00\x00\x80?\x00\x00\x80?\x00\x00\x80?\x00\x00\x80?\x00\x00\x80?\x00\x00\x80?\x00\x00\x80?\x00\x00\x80?\x00\x00\x80?\x00\x00\x80?\x00\x00\x80?\x00\x00\x80?\x00\x00\x80?\x00\x00\x80?\x00\x00\x80?\x00\x00\x80?'
S'\x00\x00\x00\x00\x00\x00\x00\x00\x00\x00\x00\x00\x00\x00\x00\x00\x00\x00'
Ntbsg21
g1515
(g1516
(I0
tS'b'
tRp1650
(I1
(I18
I1
tg1518
I00
(lp1651
S'8'
aS'2'
aS'2'
aS'8'
aS'1'
aS'2'
aS'1'
aS'2'
aS'8'
aS'6'
aS'7'
aS'1'
aS'9'
aS'7'
aS'3'
aS'6'
aS'5'
aS'6'
atbsg1543
g1529
(g1530
g1516
g1531
S'b'
tRp1652
(I1
(I18
I1
tg1533
I00
S'\x00\x00\xc0@\x00\x00@A\x00\x00\xa0@\x00\x00 A\x00\x00\x88A\x00\x00\x10A\x00\x00\x00\x00\x00\x00\x00A\x00\x00@@\x00\x00\x80@\x00\x00\x80?\x00\x00PA\x00\x000A\x00\x00`A\x00\x00\x80A\x00\x00pA\x00\x00\xe0@\x00\x00\x00@'
S'\x00\x00\x00\x00\x00\x00\x00\x00\x00\x00\x00\x00\x00\x00\x00\x00\x00\x00'
Ntbsg20
g1529
(g1530
g1516
g1531
S'b'
tRp1653
(I1
(I18
I1
tg1533
I00
S'\xda\x88x@\xcf(b?\xda\xdd]@\xc3\xb2*?\xe8\xff\xbf?\xd7y\xb7?2\x00\x80@\xad\xcd,@\xbcg\x06@>X\xd5?sE\x04@\xe633@\xaeE\x14@\xbf\x9b\xd9?D\xabZ@\xa3E\x14@\x1b\x888A\xc73\x13@'
S'\x00\x00\x00\x00\x00\x00\x00\x00\x00\x00\x00\x00\x00\x00\x00\x00\x00\x00'
NtbstRp1654
(dp1655
g1548
(dp1656
g1528
I01
sg21
I00
sg20
I01
sg22
I01
sg19
I00
sg23
I01
sg1543
I01
ssg1550
g1641
sg1551
(lp1657
g1528
ag1543
ag19
ag20
ag21
ag22
ag23
asg1553
(lp1658
I18
aI1
asbsg1555
g1556
sg1557
g1515
(g1516
(I0
tS'b'
tRp1659
(I1
(I18
I1
tg1518
I00
(lp1660
I6
aI10
aI17
aI8
aI9
aI2
aI0
aI16
aI7
aI5
aI3
aI12
aI1
aI11
aI13
aI15
aI14
aI4
atbsg1560
I01
sg1561
I1
sg1562
I-1
sg1563
(lp1661
g1
(g1565
g1513
(dp1662
g291
g363
sVY
L4L
sg293
L2L
sg294
g364
sg302
L8L
sg299
L8L
sg300
g330
sVX
L2L
sg296
L0L
sg304
g319
sg306
L0L
sg307
g367
stRp1663
ag1
(g1565
g1513
(dp1664
g291
g416
sVY
L6L
sg293
L2L
sg294
g417
sg302
L2L
sg299
L2L
sg300
g330
sVX
L6L
sg296
L0L
sg304
g331
sg306
L0L
sg307
g367
stRp1665
ag1
(g1565
g1513
(dp1666
g291
g354
sVY
L7L
sg293
L2L
sg294
g355
sg302
L2L
sg299
L2L
sg300
g301
sVX
L8L
sg296
L0L
sg304
g330
sg306
L0L
sg307
g358
stRp1667
ag1
(g1565
g1513
(dp1668
g291
g397
sVY
L4L
sg293
L2L
sg294
g398
sg302
L8L
sg299
L8L
sg300
g400
sVX
L4L
sg296
L0L
sg304
g305
sg306
L0L
sg307
g358
stRp1669
ag1
(g1565
g1513
(dp1670
g291
g457
sVY
L4L
sg293
L3L
sg294
g458
sg302
L1L
sg299
L1L
sg300
g330
sVX
L6L
sg296
g317
sg304
g331
sg306
L0L
sg307
g392
stRp1671
ag1
(g1565
g1513
(dp1672
g291
g388
sVY
L4L
sg293
L3L
sg294
g389
sg302
L2L
sg299
L2L
sg300
g305
sVX
L4L
sg296
g297
sg304
g301
sg306
L0L
sg307
g392
stRp1673
ag1
(g1565
g1513
(dp1674
g291
g292
sVY
L7L
sg293
L3L
sg294
g295
sg302
L1L
sg299
L1L
sg300
g301
sVX
L3L
sg296
g297
sg304
g305
sg306
L0L
sg307
g308
stRp1675
ag1
(g1565
g1513
(dp1676
g291
g380
sVY
L3L
sg293
L3L
sg294
g381
sg302
L2L
sg299
L2L
sg300
g331
sVX
L9L
sg296
g317
sg304
g315
sg306
L0L
sg307
g308
stRp1677
ag1
(g1565
g1513
(dp1678
g291
g337
sVY
L2L
sg293
L3L
sg294
g338
sg302
L8L
sg299
L8L
sg300
g328
sVX
L7L
sg296
g301
sg304
g330
sg306
L0L
sg307
g341
stRp1679
ag1
(g1565
g1513
(dp1680
g291
g346
sVY
L3L
sg293
L3L
sg294
g347
sg302
L6L
sg299
L6L
sg300
g297
sVX
L4L
sg296
g301
sg304
g330
sg306
L0L
sg307
g341
stRp1681
ag1
(g1565
g1513
(dp1682
g291
g313
sVY
L6L
sg293
L4L
sg294
g314
sg302
L7L
sg299
L7L
sg300
g317
sVX
L4L
sg296
g315
sg304
g319
sg306
g305
sg307
g320
stRp1683
ag1
(g1565
g1513
(dp1684
g291
g424
sVY
L5L
sg293
L4L
sg294
g425
sg302
L1L
sg299
L1L
sg300
g315
sVX
L6L
sg296
g330
sg304
g331
sg306
g317
sg307
g320
stRp1685
ag1
(g1565
g1513
(dp1686
g291
g406
sVY
L4L
sg293
L4L
sg294
g407
sg302
L9L
sg299
L9L
sg300
g319
sVX
L9L
sg296
g330
sg304
g410
sg306
g317
sg307
g411
stRp1687
ag1
(g1565
g1513
(dp1688
g291
g432
sVY
L4L
sg293
L4L
sg294
g433
sg302
L7L
sg299
L7L
sg300
g400
sVX
L3L
sg296
g330
sg304
g328
sg306
g317
sg307
g411
stRp1689
ag1
(g1565
g1513
(dp1690
g291
g449
sVY
L6L
sg293
L4L
sg294
g450
sg302
L3L
sg299
L3L
sg300
g317
sVX
L4L
sg296
g400
sg304
g328
sg306
g305
sg307
g444
stRp1691
ag1
(g1565
g1513
(dp1692
g291
g440
sVY
L8L
sg293
L4L
sg294
g441
sg302
L6L
sg299
L6L
sg300
g297
sVX
L9L
sg296
g331
sg304
g330
sg306
g328
sg307
g444
stRp1693
ag1
(g1565
g1513
(dp1694
g291
g372
sVY
L2L
sg293
L4L
sg294
g373
sg302
L5L
sg299
L5L
sg300
g305
sVX
L8L
sg296
g297
sg304
g328
sg306
g331
sg307
g332
stRp1695
ag1
(g1565
g1513
(dp1696
g291
g325
sVY
L4L
sg293
L4L
sg294
g326
sg302
L4L
sg299
L4L
sg300
g328
sVX
L4L
sg296
g297
sg304
g330
sg306
g331
sg307
g332
stRp1697
asg1578
Nsg1579
I4
sg1580
I18
sg1581
I0
sg1582
I18
sbag1
(g1501
g3
NtRp1698
(dp1699
g1504
Nsg1505
(lp1700
sg1507
I363008208
sg10
g1586
sg6
g1509
sg1510
I1
sg24
I01
sg25
g26
sg1511
g1
(g1512
g1513
(dp1701
g22
g1529
(g1530
g1516
g1531
S'b'
tRp1702
(I1
(I18
I1
tg1533
I00
S'\x00\x00\x80?\x00\x00\x80?\x00\x00\x80?\x00\x00\x80?\x00\x00\x80?\x00\x00\x80?\x00\x00\x80?\x00\x00\x80?\x00\x00\x80?\x00\x00\x80?\x00\x00\x80?\x00\x00\x00\x00\x00\x00\x80?\x00\x00\x80?\x00\x00\x00\x00\x00\x00\x80?\x00\x00\x80?\x00\x00\x80?'
S'\x00\x00\x00\x00\x00\x00\x00\x00\x00\x00\x00\x00\x00\x00\x00\x00\x00\x00'
Ntbsg19
g1515
(g1516
(I0
tS'b'
tRp1703
(I1
(I18
I1
tg1518
I00
(lp1704
g616
ag607
ag511
ag590
ag529
ag520
ag556
ag565
ag632
ag598
ag573
ag547
ag537
ag582
ag472
ag503
ag624
ag491
atbsg23
g1529
(g1530
g1516
g1531
S'b'
tRp1705
(I1
(I18
I1
tg1533
I00
S'Cj\xe6?\xa5\x01\x00@vg&@%xW@0ET@\x11\x11\x99@\x9f\xee\xf6@k\xaa\xf2@N\xef^@\xe6w\x87@\xebT\x15A\xcaf\xa6@\x90\x10\xd1@!\xcd\x9c@\xf8C(A\x03\x00\xc8@\xf8T\x19A\x0f\x88\x98A'
S'\x00\x00\x00\x00\x00\x00\x00\x00\x00\x00\x00\x00\x00\x00\x00\x00\x00\x00'
Ntbsg1528
g1529
(g1530
g1516
g1531
S'b'
tRp1706
(I1
(I18
I1
tg1533
I00
S'\x00\x00\x80?\x00\x00\x80?\x00\x00\x80?\x00\x00\x80?\x00\x00\x80?\x00\x00\x80?\x00\x00\x80?\x00\x00\x80?\x00\x00\x80?\x00\x00\x80?\x00\x00\x80?\x00\x00\x80?\x00\x00\x80?\x00\x00\x80?\x00\x00\x80?\x00\x00\x80?\x00\x00\x80?\x00\x00\x80?'
S'\x00\x00\x00\x00\x00\x00\x00\x00\x00\x00\x00\x00\x00\x00\x00\x00\x00\x00'
Ntbsg21
g1515
(g1516
(I0
tS'b'
tRp1707
(I1
(I18
I1
tg1518
I00
(lp1708
S'4'
aS'6'
aS'3'
aS'1'
aS'9'
aS'5'
aS'5'
aS'5'
aS'8'
aS'3'
aS'3'
aS'7'
aS'4'
aS'3'
aS'6'
aS'6'
aS'1'
aS'6'
atbsg1543
g1529
(g1530
g1516
g1531
S'b'
tRp1709
(I1
(I18
I1
tg1533
I00
S'\x00\x00pA\x00\x00`A\x00\x00@@\x00\x00@A\x00\x00\xa0@\x00\x00\x80@\x00\x00\x00A\x00\x00\x10A\x00\x00\x88A\x00\x00PA\x00\x00 A\x00\x00\xe0@\x00\x00\xc0@\x00\x000A\x00\x00\x00\x00\x00\x00\x00@\x00\x00\x80A\x00\x00\x80?'
S'\x00\x00\x00\x00\x00\x00\x00\x00\x00\x00\x00\x00\x00\x00\x00\x00\x00\x00'
Ntbsg20
g1529
(g1530
g1516
g1531
S'b'
tRp1710
(I1
(I18
I1
tg1533
I00
S'\xd2\xf4n?\x0e\x9c\x19?\x94\x02\x80?\xa2\xc0;?\xc4h\xa6?\xbcA\xe4?\xe4\x02\xa0?\x90G\xa4?\x92\x9cY?@\x04\x80?\x86U\x8d@\x92E\x04@\x08\xde\x8d@\x0e\xbck@\x96\x88\x90@\x04#\x12@\x1e\xf0.@\x0e\xde\xa5@'
S'\x00\x00\x00\x00\x00\x00\x00\x00\x00\x00\x00\x00\x00\x00\x00\x00\x00\x00'
NtbstRp1711
(dp1712
g1548
(dp1713
g1528
I01
sg21
I00
sg20
I01
sg22
I01
sg19
I00
sg23
I01
sg1543
I01
ssg1550
g1698
sg1551
(lp1714
g1528
ag1543
ag19
ag20
ag21
ag22
ag23
asg1553
(lp1715
I18
aI1
asbsg1555
g1556
sg1557
g1515
(g1516
(I0
tS'b'
tRp1716
(I1
(I18
I1
tg1518
I00
(lp1717
I14
aI17
aI15
aI2
aI5
aI4
aI12
aI11
aI6
aI7
aI10
aI13
aI3
aI9
aI1
aI0
aI16
aI8
atbsg1560
I01
sg1561
I1
sg1562
I-1
sg1563
(lp1718
g1
(g1565
g1513
(dp1719
g465
g614
sVY
L2L
sg467
L2L
sg468
g615
sg476
L4L
sg473
L4L
sg474
g492
sVX
L3L
sg470
L0L
sg478
g495
sg480
L0L
sg482
g609
stRp1720
ag1
(g1565
g1513
(dp1721
g465
g605
sVY
L2L
sg467
L2L
sg468
g606
sg476
L6L
sg473
L6L
sg474
g481
sVX
L2L
sg470
L0L
sg478
g495
sg480
L0L
sg482
g609
stRp1722
ag1
(g1565
g1513
(dp1723
g465
g509
sVY
L5L
sg467
L2L
sg468
g510
sg476
L3L
sg473
L3L
sg474
g471
sVX
L4L
sg470
L0L
sg478
g479
sg480
L0L
sg482
g513
stRp1724
ag1
(g1565
g1513
(dp1725
g465
g588
sVY
L2L
sg467
L2L
sg468
g589
sg476
L1L
sg473
L1L
sg474
g575
sVX
L5L
sg470
L0L
sg478
g479
sg480
L0L
sg482
g513
stRp1726
ag1
(g1565
g1513
(dp1727
g465
g527
sVY
L3L
sg467
L3L
sg468
g528
sg476
L9L
sg473
L9L
sg474
g492
sVX
L8L
sg470
g490
sg478
g495
sg480
L0L
sg482
g522
stRp1728
ag1
(g1565
g1513
(dp1729
g465
g518
sVY
L5L
sg467
L3L
sg468
g519
sg476
L5L
sg473
L5L
sg474
g479
sVX
L6L
sg470
g490
sg478
g495
sg480
L0L
sg482
g522
stRp1730
ag1
(g1565
g1513
(dp1731
g465
g554
sVY
L7L
sg467
L3L
sg468
g555
sg476
L5L
sg473
L5L
sg474
g471
sVX
L7L
sg470
g481
sg478
g479
sg480
L0L
sg482
g558
stRp1732
ag1
(g1565
g1513
(dp1733
g465
g563
sVY
L5L
sg467
L3L
sg468
g564
sg476
L5L
sg473
L5L
sg474
g495
sVX
L4L
sg470
g492
sg478
g479
sg480
L0L
sg482
g558
stRp1734
ag1
(g1565
g1513
(dp1735
g465
g630
sVY
L5L
sg467
L3L
sg468
g631
sg476
L8L
sg473
L8L
sg474
g492
sVX
L5L
sg470
g495
sg478
g479
sg480
L0L
sg482
g600
stRp1736
ag1
(g1565
g1513
(dp1737
g465
g596
sVY
L2L
sg467
L3L
sg468
g597
sg476
L3L
sg473
L3L
sg474
g490
sVX
L4L
sg470
g538
sg478
g494
sg480
L0L
sg482
g600
stRp1738
ag1
(g1565
g1513
(dp1739
g465
g571
sVY
L5L
sg467
L4L
sg468
g572
sg476
L3L
sg473
L3L
sg474
g490
sVX
L5L
sg470
g481
sg478
g575
sg480
g494
sg482
g549
stRp1740
ag1
(g1565
g1513
(dp1741
g465
g545
sVY
L3L
sg467
L4L
sg468
g546
sg476
L9L
sg473
L9L
sg474
g481
sVX
L3L
sg470
g479
sg478
g495
sg480
g475
sg482
g549
stRp1742
ag1
(g1565
g1513
(dp1743
g465
g535
sVY
L6L
sg467
L4L
sg468
g536
sg476
L4L
sg473
L4L
sg474
g538
sVX
L3L
sg470
g494
sg478
g481
sg480
g475
sg482
g540
stRp1744
ag1
(g1565
g1513
(dp1745
g465
g580
sVY
L3L
sg467
L4L
sg468
g581
sg476
L3L
sg473
L3L
sg474
g575
sVX
L3L
sg470
g475
sg478
g494
sg480
g492
sg482
g540
stRp1746
ag1
(g1565
g1513
(dp1747
g465
g466
sVY
L2L
sg467
L4L
sg468
g469
sg476
L8L
sg473
L8L
sg474
g475
sVX
L9L
sg470
g471
sg478
g479
sg480
g481
sg482
g483
stRp1748
ag1
(g1565
g1513
(dp1749
g465
g501
sVY
L3L
sg467
L4L
sg468
g502
sg476
L6L
sg473
L6L
sg474
g490
sVX
L2L
sg470
g471
sg478
g494
sg480
g492
sg482
g483
stRp1750
ag1
(g1565
g1513
(dp1751
g465
g622
sVY
L2L
sg467
L4L
sg468
g623
sg476
L1L
sg473
L1L
sg474
g481
sVX
L8L
sg470
g490
sg478
g479
sg480
g538
sg482
g496
stRp1752
ag1
(g1565
g1513
(dp1753
g465
g488
sVY
L2L
sg467
L4L
sg468
g489
sg476
L6L
sg473
L6L
sg474
g492
sVX
L3L
sg470
g490
sg478
g494
sg480
g495
sg482
g496
stRp1754
asg1578
Nsg1579
I8
sg1580
I18
sg1581
I0
sg1582
I18
sbag1
(g1501
g3
NtRp1755
(dp1756
g1504
Nsg1505
(lp1757
sg1507
I363008208
sg10
g1586
sg6
g1509
sg1510
I1
sg24
I01
sg25
g26
sg1511
g1
(g1512
g1513
(dp1758
g22
g1529
(g1530
g1516
g1531
S'b'
tRp1759
(I1
(I18
I1
tg1533
I00
S'\x00\x00\x80?\x00\x00\x80?\x00\x00\x80?\x00\x00\x80?\x00\x00\x80?\x00\x00\x80?\x00\x00\x80?\x00\x00\x80?\x00\x00\x80?\x00\x00\x80?\x00\x00\x80?\x00\x00\x80?\x00\x00\x80?\x00\x00\x80?\x00\x00\x80?\x00\x00\x80?\x00\x00\x80?\x00\x00\x00\x00'
S'\x00\x00\x00\x00\x00\x00\x00\x00\x00\x00\x00\x00\x00\x00\x00\x00\x00\x00'
Ntbsg19
g1515
(g1516
(I0
tS'b'
tRp1760
(I1
(I18
I1
tg1518
I00
(lp1761
g780
ag789
ag797
ag693
ag805
ag712
ag663
ag721
ag756
ag645
ag772
ag747
ag730
ag764
ag702
ag739
ag673
ag683
atbsg23
g1529
(g1530
g1516
g1531
S'b'
tRp1762
(I1
(I18
I1
tg1533
I00
S'\xb3$\xe2?\xfc\x00`@\xa2\x99\t@\x87U\x8d@\xb3\x89(@ID\x9c@\x95\x11q@\xf6\xde}@\xc6w\x87@\xda\xcb\xac@\x17!\xb2@\xfa\x87\\A\xea\xbb\xbb@\x0c\xbc\x9b@\xbf\xdd\xcd@\xfb\xaa\xb2@f\x88\xe0@S\xdd\x95A'
S'\x00\x00\x00\x00\x00\x00\x00\x00\x00\x00\x00\x00\x00\x00\x00\x00\x00\x00'
Ntbsg1528
g1529
(g1530
g1516
g1531
S'b'
tRp1763
(I1
(I18
I1
tg1533
I00
S'\x00\x00\x80?\x00\x00\x80?\x00\x00\x80?\x00\x00\x80?\x00\x00\x80?\x00\x00\x80?\x00\x00\x80?\x00\x00\x80?\x00\x00\x80?\x00\x00\x80?\x00\x00\x80?\x00\x00\x80?\x00\x00\x80?\x00\x00\x80?\x00\x00\x80?\x00\x00\x80?\x00\x00\x80?\x00\x00\x80?'
S'\x00\x00\x00\x00\x00\x00\x00\x00\x00\x00\x00\x00\x00\x00\x00\x00\x00\x00'
Ntbsg21
g1515
(g1516
(I0
tS'b'
tRp1764
(I1
(I18
I1
tg1518
I00
(lp1765
S'2'
aS'3'
aS'1'
aS'6'
aS'9'
aS'4'
aS'6'
aS'3'
aS'7'
aS'1'
aS'8'
aS'8'
aS'8'
aS'2'
aS'8'
aS'1'
aS'6'
aS'9'
atbsg1543
g1529
(g1530
g1516
g1531
S'b'
tRp1766
(I1
(I18
I1
tg1533
I00
S'\x00\x00`A\x00\x00pA\x00\x00\x80A\x00\x00\x80@\x00\x00\x88A\x00\x00\xc0@\x00\x00\x80?\x00\x00\xe0@\x00\x000A\x00\x00\x00\x00\x00\x00PA\x00\x00 A\x00\x00\x00A\x00\x00@A\x00\x00\xa0@\x00\x00\x10A\x00\x00\x00@\x00\x00@@'
S'\x00\x00\x00\x00\x00\x00\x00\x00\x00\x00\x00\x00\x00\x00\x00\x00\x00\x00'
Ntbsg20
g1529
(g1530
g1516
g1531
S'b'
tRp1767
(I1
(I18
I1
tg1533
I00
S'\xac\xe3\x1d?\xf6F\x84?XF\x84?\x85m&?(X\x95?p$\xe2?\x87\xbc+@\xa2\x9a\t@sD\xa4@\n\xef\x86@\xdcfF@$gv@.\x99\xf1@\xc3!\xfa@\xebe\x1eA\xbc\x98)@\xc2\xaa\x9a@v\xefN@'
S'\x00\x00\x00\x00\x00\x00\x00\x00\x00\x00\x00\x00\x00\x00\x00\x00\x00\x00'
NtbstRp1768
(dp1769
g1548
(dp1770
g1528
I01
sg21
I00
sg20
I01
sg22
I01
sg19
I00
sg23
I01
sg1543
I01
ssg1550
g1755
sg1551
(lp1771
g1528
ag1543
ag19
ag20
ag21
ag22
ag23
asg1553
(lp1772
I18
aI1
asbsg1555
g1556
sg1557
g1515
(g1516
(I0
tS'b'
tRp1773
(I1
(I18
I1
tg1518
I00
(lp1774
I9
aI6
aI16
aI17
aI3
aI14
aI5
aI7
aI12
aI15
aI11
aI8
aI13
aI10
aI0
aI1
aI2
aI4
atbsg1560
I01
sg1561
I1
sg1562
I-1
sg1563
(lp1775
g1
(g1565
g1513
(dp1776
g638
g778
sVY
L2L
sg640
L2L
sg641
g779
sg649
L2L
sg646
L2L
sg647
g672
sVX
L3L
sg643
L0L
sg651
g675
sg653
L0L
sg654
g782
stRp1777
ag1
(g1565
g1513
(dp1778
g638
g787
sVY
L2L
sg640
L2L
sg641
g788
sg649
L3L
sg646
L3L
sg647
g704
sVX
L6L
sg643
L0L
sg651
g722
sg653
L0L
sg654
g782
stRp1779
ag1
(g1565
g1513
(dp1780
g638
g795
sVY
L4L
sg640
L2L
sg641
g796
sg649
L1L
sg646
L1L
sg647
g675
sVX
L8L
sg643
L0L
sg651
g704
sg653
L0L
sg654
g695
stRp1781
ag1
(g1565
g1513
(dp1782
g638
g691
sVY
L2L
sg640
L2L
sg641
g692
sg649
L6L
sg646
L6L
sg647
g644
sVX
L3L
sg643
L0L
sg651
g672
sg653
L0L
sg654
g695
stRp1783
ag1
(g1565
g1513
(dp1784
g638
g803
sVY
L8L
sg640
L3L
sg641
g804
sg649
L9L
sg646
L9L
sg647
g648
sVX
L6L
sg643
g652
sg651
g644
sg653
L0L
sg654
g714
stRp1785
ag1
(g1565
g1513
(dp1786
g638
g710
sVY
L2L
sg640
L3L
sg641
g711
sg649
L4L
sg646
L4L
sg647
g704
sVX
L3L
sg643
g662
sg651
g675
sg653
L0L
sg654
g714
stRp1787
ag1
(g1565
g1513
(dp1788
g638
g660
sVY
L3L
sg640
L3L
sg641
g661
sg649
L6L
sg646
L6L
sg647
g644
sVX
L3L
sg643
g662
sg651
g648
sg653
L0L
sg654
g665
stRp1789
ag1
(g1565
g1513
(dp1790
g638
g719
sVY
L2L
sg640
L3L
sg641
g720
sg649
L3L
sg646
L3L
sg647
g722
sVX
L8L
sg643
g648
sg651
g672
sg653
L0L
sg654
g665
stRp1791
ag1
(g1565
g1513
(dp1792
g638
g754
sVY
L3L
sg640
L3L
sg641
g755
sg649
L7L
sg646
L7L
sg647
g662
sVX
L6L
sg643
g675
sg651
g672
sg653
L0L
sg654
g655
stRp1793
ag1
(g1565
g1513
(dp1794
g638
g639
sVY
L3L
sg640
L3L
sg641
g642
sg649
L1L
sg646
L1L
sg647
g648
sVX
L3L
sg643
g644
sg651
g652
sg653
L0L
sg654
g655
stRp1795
ag1
(g1565
g1513
(dp1796
g638
g770
sVY
L6L
sg640
L4L
sg641
g771
sg649
L8L
sg646
L8L
sg647
g684
sVX
L6L
sg643
g704
sg651
g644
sg653
g652
sg654
g749
stRp1797
ag1
(g1565
g1513
(dp1798
g638
g745
sVY
L9L
sg640
L4L
sg641
g746
sg649
L8L
sg646
L8L
sg647
g704
sVX
L3L
sg643
g662
sg651
g722
sg653
g684
sg654
g749
stRp1799
ag1
(g1565
g1513
(dp1800
g638
g728
sVY
L2L
sg640
L4L
sg641
g729
sg649
L8L
sg646
L8L
sg647
g644
sVX
L3L
sg643
g672
sg651
g684
sg653
g652
sg654
g732
stRp1801
ag1
(g1565
g1513
(dp1802
g638
g762
sVY
L3L
sg640
L4L
sg641
g763
sg649
L2L
sg646
L2L
sg647
g686
sVX
L2L
sg643
g684
sg651
g652
sg653
g704
sg654
g732
stRp1803
ag1
(g1565
g1513
(dp1804
g638
g700
sVY
L7L
sg640
L4L
sg641
g701
sg649
L8L
sg646
L8L
sg647
g684
sVX
L6L
sg643
g644
sg651
g652
sg653
g704
sg654
g705
stRp1805
ag1
(g1565
g1513
(dp1806
g638
g737
sVY
L9L
sg640
L4L
sg641
g738
sg649
L1L
sg646
L1L
sg647
g672
sVX
L9L
sg643
g675
sg651
g652
sg653
g684
sg654
g705
stRp1807
ag1
(g1565
g1513
(dp1808
g638
g670
sVY
L3L
sg640
L4L
sg641
g671
sg649
L6L
sg646
L6L
sg647
g662
sVX
L9L
sg643
g672
sg651
g648
sg653
g675
sg654
g676
stRp1809
ag1
(g1565
g1513
(dp1810
g638
g681
sVY
L4L
sg640
L4L
sg641
g682
sg649
L6L
sg646
L6L
sg647
g684
sVX
L2L
sg643
g672
sg651
g652
sg653
g686
sg654
g676
stRp1811
asg1578
Nsg1579
I4
sg1580
I18
sg1581
I0
sg1582
I18
sbag1
(g1501
g3
NtRp1812
(dp1813
g1504
Nsg1505
(lp1814
sg1507
I363008208
sg10
g1586
sg6
g1509
sg1510
I1
sg24
I01
sg25
g26
sg1511
g1
(g1512
g1513
(dp1815
g22
g1529
(g1530
g1516
g1531
S'b'
tRp1816
(I1
(I18
I1
tg1533
I00
S'\x00\x00\x80?\x00\x00\x80?\x00\x00\x80?\x00\x00\x80?\x00\x00\x80?\x00\x00\x00\x00\x00\x00\x80?\x00\x00\x80?\x00\x00\x80?\x00\x00\x80?\x00\x00\x80?\x00\x00\x80?\x00\x00\x80?\x00\x00\x80?\x00\x00\x80?\x00\x00\x80?\x00\x00\x80?\x00\x00\x80?'
S'\x00\x00\x00\x00\x00\x00\x00\x00\x00\x00\x00\x00\x00\x00\x00\x00\x00\x00'
Ntbsg19
g1515
(g1516
(I0
tS'b'
tRp1817
(I1
(I18
I1
tg1518
I00
(lp1818
g857
ag921
ag937
ag912
ag887
ag836
ag868
ag929
ag961
ag970
ag945
ag847
ag895
ag877
ag903
ag978
ag953
ag818
atbsg23
g1529
(g1530
g1516
g1531
S'b'
tRp1819
(I1
(I18
I1
tg1533
I00
S'\xb7FT@\xe4\x9c\xf9?*\x89x@o\x9c\xf9?\x88\xcdl@\xc7\x00p@0\x00\xa0@<\xaez@\x004s@\xb3\xcc\xb4@.\x11\xb9@\xd6\x87lA.xg@\x1bD\x18A\x1c#r@LD\xc4@\x12"\xda@\xa2D\x8c@'
S'\x00\x00\x00\x00\x00\x00\x00\x00\x00\x00\x00\x00\x00\x00\x00\x00\x00\x00'
Ntbsg1528
g1529
(g1530
g1516
g1531
S'b'
tRp1820
(I1
(I18
I1
tg1533
I00
S'\x00\x00\x80?\x00\x00\x80?\x00\x00\x80?\x00\x00\x80?\x00\x00\x80?\x00\x00\x80?\x00\x00\x80?\x00\x00\x80?\x00\x00\x80?\x00\x00\x80?\x00\x00\x80?\x00\x00\x80?\x00\x00\x80?\x00\x00\x80?\x00\x00\x80?\x00\x00\x80?\x00\x00\x80?\x00\x00\x80?'
S'\x00\x00\x00\x00\x00\x00\x00\x00\x00\x00\x00\x00\x00\x00\x00\x00\x00\x00'
Ntbsg21
g1515
(g1516
(I0
tS'b'
tRp1821
(I1
(I18
I1
tg1518
I00
(lp1822
S'1'
aS'8'
aS'4'
aS'1'
aS'3'
aS'6'
aS'1'
aS'6'
aS'6'
aS'8'
aS'8'
aS'1'
aS'6'
aS'7'
aS'5'
aS'5'
aS'5'
aS'3'
atbsg1543
g1529
(g1530
g1516
g1531
S'b'
tRp1823
(I1
(I18
I1
tg1533
I00
S'\x00\x00@@\x00\x00 A\x00\x00@A\x00\x00\x10A\x00\x00\xc0@\x00\x00\x80?\x00\x00\x80@\x00\x000A\x00\x00pA\x00\x00\x80A\x00\x00PA\x00\x00\x00@\x00\x00\xe0@\x00\x00\xa0@\x00\x00\x00A\x00\x00\x88A\x00\x00`A\x00\x00\x00\x00'
S'\x00\x00\x00\x00\x00\x00\x00\x00\x00\x00\x00\x00\x00\x00\x00\x00\x00\x00'
Ntbsg20
g1529
(g1530
g1516
g1531
S'b'
tRp1824
(I1
(I18
I1
tg1533
I00
S'\t\x17Q?\xa5\x0eQ?\xd6\x8b\xa8?:\x95Y?\x9d\x9a\t@i\xdc\xdd?\xa65\xd3?\x9dlf?N\xa9\x8a?\xb0\xe6]?\x04\xbc\x83@sf\x96@\xdd\xde\x1d@m\x00p@\x1e\xef\x96@\xf8\xde\r@\x94w\x8f@\xcd\xee\xd6@'
S'\x00\x00\x00\x00\x00\x00\x00\x00\x00\x00\x00\x00\x00\x00\x00\x00\x00\x00'
NtbstRp1825
(dp1826
g1548
(dp1827
g1528
I01
sg21
I00
sg20
I01
sg22
I01
sg19
I00
sg23
I01
sg1543
I01
ssg1550
g1812
sg1551
(lp1828
g1528
ag1543
ag19
ag20
ag21
ag22
ag23
asg1553
(lp1829
I18
aI1
asbsg1555
g1556
sg1557
g1515
(g1516
(I0
tS'b'
tRp1830
(I1
(I18
I1
tg1518
I00
(lp1831
I17
aI5
aI11
aI0
aI6
aI13
aI4
aI12
aI14
aI3
aI1
aI7
aI2
aI10
aI16
aI8
aI9
aI15
atbsg1560
I01
sg1561
I1
sg1562
I-1
sg1563
(lp1832
g1
(g1565
g1513
(dp1833
g811
g855
sVY
L3L
sg813
L2L
sg814
g856
sg822
L1L
sg819
L1L
sg820
g858
sVX
L9L
sg816
L0L
sg824
g860
sg826
L0L
sg828
g861
stRp1834
ag1
(g1565
g1513
(dp1835
g811
g919
sVY
L2L
sg813
L2L
sg814
g920
sg822
L8L
sg819
L8L
sg820
g849
sVX
L2L
sg816
L0L
sg824
g838
sg826
L0L
sg828
g861
stRp1836
ag1
(g1565
g1513
(dp1837
g811
g935
sVY
L3L
sg813
L2L
sg814
g936
sg822
L4L
sg819
L4L
sg820
g827
sVX
L6L
sg816
L0L
sg824
g817
sg826
L0L
sg828
g914
stRp1838
ag1
(g1565
g1513
(dp1839
g811
g910
sVY
L2L
sg813
L2L
sg814
g911
sg822
L1L
sg819
L1L
sg820
g860
sVX
L6L
sg816
L0L
sg824
g858
sg826
L0L
sg828
g914
stRp1840
ag1
(g1565
g1513
(dp1841
g811
g885
sVY
L9L
sg813
L3L
sg814
g886
sg822
L3L
sg819
L3L
sg820
g821
sVX
L5L
sg816
g846
sg824
g827
sg826
L0L
sg828
g839
stRp1842
ag1
(g1565
g1513
(dp1843
g811
g834
sVY
L3L
sg813
L3L
sg814
g835
sg822
L9L
sg819
L9L
sg820
g825
sVX
L5L
sg816
g817
sg824
g838
sg826
L0L
sg828
g839
stRp1844
ag1
(g1565
g1513
(dp1845
g811
g866
sVY
L2L
sg813
L3L
sg814
g867
sg822
L1L
sg819
L1L
sg820
g860
sVX
L7L
sg816
g846
sg824
g858
sg826
L0L
sg828
g870
stRp1846
ag1
(g1565
g1513
(dp1847
g811
g927
sVY
L6L
sg813
L3L
sg814
g928
sg822
L6L
sg819
L6L
sg820
g838
sVX
L6L
sg816
g825
sg824
g858
sg826
L0L
sg828
g870
stRp1848
ag1
(g1565
g1513
(dp1849
g811
g959
sVY
L2L
sg813
L3L
sg814
g960
sg822
L6L
sg819
L6L
sg820
g846
sVX
L2L
sg816
g878
sg824
g849
sg826
L0L
sg828
g963
stRp1850
ag1
(g1565
g1513
(dp1851
g811
g968
sVY
L6L
sg813
L3L
sg814
g969
sg822
L8L
sg819
L8L
sg820
g858
sVX
L2L
sg816
g838
sg824
g849
sg826
L0L
sg828
g963
stRp1852
ag1
(g1565
g1513
(dp1853
g811
g943
sVY
L4L
sg813
L4L
sg814
g944
sg822
L8L
sg819
L8L
sg820
g849
sVX
L3L
sg816
g821
sg824
g827
sg826
g846
sg828
g850
stRp1854
ag1
(g1565
g1513
(dp1855
g811
g844
sVY
L8L
sg813
L4L
sg814
g845
sg822
L1L
sg819
L1L
sg820
g821
sVX
L2L
sg816
g846
sg824
g827
sg826
g849
sg828
g850
stRp1856
ag1
(g1565
g1513
(dp1857
g811
g893
sVY
L5L
sg813
L4L
sg814
g894
sg822
L6L
sg819
L6L
sg820
g860
sVX
L4L
sg816
g821
sg824
g849
sg826
g817
sg828
g880
stRp1858
ag1
(g1565
g1513
(dp1859
g811
g875
sVY
L3L
sg813
L4L
sg814
g876
sg822
L7L
sg819
L7L
sg820
g878
sVX
L2L
sg816
g825
sg824
g817
sg826
g821
sg828
g880
stRp1860
ag1
(g1565
g1513
(dp1861
g811
g901
sVY
L3L
sg813
L4L
sg814
g902
sg822
L5L
sg819
L5L
sg820
g821
sVX
L3L
sg816
g860
sg824
g846
sg826
g849
sg828
g905
stRp1862
ag1
(g1565
g1513
(dp1863
g811
g976
sVY
L4L
sg813
L4L
sg814
g977
sg822
L5L
sg819
L5L
sg820
g846
sVX
L8L
sg816
g838
sg824
g858
sg826
g825
sg828
g905
stRp1864
ag1
(g1565
g1513
(dp1865
g811
g951
sVY
L2L
sg813
L4L
sg814
g952
sg822
L5L
sg819
L5L
sg820
g821
sVX
L6L
sg816
g825
sg824
g846
sg826
g827
sg828
g829
stRp1866
ag1
(g1565
g1513
(dp1867
g811
g812
sVY
L2L
sg813
L4L
sg814
g815
sg822
L3L
sg819
L3L
sg820
g821
sVX
L3L
sg816
g817
sg824
g825
sg826
g827
sg828
g829
stRp1868
asg1578
Nsg1579
I15
sg1580
I18
sg1581
I0
sg1582
I18
sbag1
(g1501
g3
NtRp1869
(dp1870
g1504
Nsg1505
(lp1871
sg1507
I363008208
sg10
g1586
sg6
g1509
sg1510
I1
sg24
I01
sg25
g26
sg1511
g1
(g1512
g1513
(dp1872
g22
g1529
(g1530
g1516
g1531
S'b'
tRp1873
(I1
(I18
I1
tg1533
I00
S'\x00\x00\x80?\x00\x00\x80?\x00\x00\x80?\x00\x00\x80?\x00\x00\x80?\x00\x00\x00\x00\x00\x00\x80?\x00\x00\x80?\x00\x00\x80?\x00\x00\x80?\x00\x00\x80?\x00\x00\x80?\x00\x00\x80?\x00\x00\x80?\x00\x00\x80?\x00\x00\x80?\x00\x00\x80?\x00\x00\x80?'
S'\x00\x00\x00\x00\x00\x00\x00\x00\x00\x00\x00\x00\x00\x00\x00\x00\x00\x00'
Ntbsg19
g1515
(g1516
(I0
tS'b'
tRp1874
(I1
(I18
I1
tg1518
I00
(lp1875
g1102
ag1093
ag1049
ag1126
ag1010
ag1021
ag1118
ag1067
ag1030
ag1085
ag1040
ag1110
ag1143
ag1058
ag991
ag1077
ag1151
ag1134
atbsg23
g1529
(g1530
g1516
g1531
S'b'
tRp1876
(I1
(I18
I1
tg1533
I00
S'\xd1\x9c\xb9?\xc9\x9d\x99??\x14\xf1?E\xd1L@\x12ET@\xf4\x10\x01A\xbc\x89(@\xfe\x99i@\xd1\xab:@\xcaE\x04@\xc9\xff\x0fAk\xddEA\xad\xcc\xc4@\xd9\x99\xb9@\x86f\xae@Q\x89\x18@L3\xb3@\x07\xde\x85@'
S'\x00\x00\x00\x00\x00\x00\x00\x00\x00\x00\x00\x00\x00\x00\x00\x00\x00\x00'
Ntbsg1528
g1529
(g1530
g1516
g1531
S'b'
tRp1877
(I1
(I18
I1
tg1533
I00
S'\x00\x00\x80?\x00\x00\x80?\x00\x00\x80?\x00\x00\x80?\x00\x00\x80?\x00\x00\x80?\x00\x00\x80?\x00\x00\x80?\x00\x00\x80?\x00\x00\x80?\x00\x00\x80?\x00\x00\x80?\x00\x00\x80?\x00\x00\x80?\x00\x00\x80?\x00\x00\x80?\x00\x00\x80?\x00\x00\x80?'
S'\x00\x00\x00\x00\x00\x00\x00\x00\x00\x00\x00\x00\x00\x00\x00\x00\x00\x00'
Ntbsg21
g1515
(g1516
(I0
tS'b'
tRp1878
(I1
(I18
I1
tg1518
I00
(lp1879
S'7'
aS'2'
aS'8'
aS'8'
aS'4'
aS'9'
aS'9'
aS'2'
aS'5'
aS'1'
aS'2'
aS'8'
aS'3'
aS'4'
aS'7'
aS'6'
aS'8'
aS'3'
atbsg1543
g1529
(g1530
g1516
g1531
S'b'
tRp1880
(I1
(I18
I1
tg1533
I00
S'\x00\x000A\x00\x00 A\x00\x00\xa0@\x00\x00`A\x00\x00\x80?\x00\x00\x00@\x00\x00PA\x00\x00\xe0@\x00\x00@@\x00\x00\x10A\x00\x00\x80@\x00\x00@A\x00\x00\x80A\x00\x00\xc0@\x00\x00\x00\x00\x00\x00\x00A\x00\x00\x88A\x00\x00pA'
S'\x00\x00\x00\x00\x00\x00\x00\x00\x00\x00\x00\x00\x00\x00\x00\x00\x00\x00'
Ntbsg20
g1529
(g1530
g1516
g1531
S'b'
tRp1881
(I1
(I18
I1
tg1533
I00
S'\xc8\xb2*?~93?\xea\x05@?\xb3l&?.i\x86?\x93\x8b\xe8?\xdel&?)!"@\x1fz\xb7?\xfb\xde\r@\xcf\xde\x1d@\x02VE@h\x02\xe0?-\x14\xd1?\xbb\xff\xdf@\r4\x13@\xa4x\x17@\xa7\xde]@'
S'\x00\x00\x00\x00\x00\x00\x00\x00\x00\x00\x00\x00\x00\x00\x00\x00\x00\x00'
NtbstRp1882
(dp1883
g1548
(dp1884
g1528
I01
sg21
I00
sg20
I01
sg22
I01
sg19
I00
sg23
I01
sg1543
I01
ssg1550
g1869
sg1551
(lp1885
g1528
ag1543
ag19
ag20
ag21
ag22
ag23
asg1553
(lp1886
I18
aI1
asbsg1555
g1556
sg1557
g1515
(g1516
(I0
tS'b'
tRp1887
(I1
(I18
I1
tg1518
I00
(lp1888
I14
aI4
aI5
aI8
aI10
aI2
aI13
aI7
aI15
aI9
aI1
aI0
aI11
aI6
aI3
aI17
aI12
aI16
atbsg1560
I01
sg1561
I1
sg1562
I-1
sg1563
(lp1889
g1
(g1565
g1513
(dp1890
g984
g1100
sVY
L6L
sg986
L2L
sg987
g1101
sg995
L7L
sg992
L7L
sg993
g998
sVX
L3L
sg989
L0L
sg997
g990
sg999
L0L
sg1001
g1095
stRp1891
ag1
(g1565
g1513
(dp1892
g984
g1091
sVY
L4L
sg986
L2L
sg987
g1092
sg995
L2L
sg992
L2L
sg993
g994
sVX
L5L
sg989
L0L
sg997
g1068
sg999
L0L
sg1001
g1095
stRp1893
ag1
(g1565
g1513
(dp1894
g984
g1047
sVY
L2L
sg986
L2L
sg987
g1048
sg995
L8L
sg992
L8L
sg993
g990
sVX
L2L
sg989
L0L
sg997
g1000
sg999
L0L
sg1001
g1051
stRp1895
ag1
(g1565
g1513
(dp1896
g984
g1124
sVY
L2L
sg986
L2L
sg987
g1125
sg995
L8L
sg992
L8L
sg993
g1023
sVX
L2L
sg989
L0L
sg997
g1000
sg999
L0L
sg1001
g1051
stRp1897
ag1
(g1565
g1513
(dp1898
g984
g1007
sVY
L3L
sg986
L3L
sg987
g1008
sg995
L4L
sg992
L4L
sg993
g1011
sVX
L8L
sg989
g1009
sg997
g1013
sg999
L0L
sg1001
g1014
stRp1899
ag1
(g1565
g1513
(dp1900
g984
g1019
sVY
L2L
sg986
L3L
sg987
g1020
sg995
L4L
sg992
L4L
sg993
g998
sVX
L3L
sg989
g1000
sg997
g1023
sg999
L0L
sg1001
g1014
stRp1901
ag1
(g1565
g1513
(dp1902
g984
g1116
sVY
L2L
sg986
L3L
sg987
g1117
sg995
L9L
sg992
L9L
sg993
g990
sVX
L2L
sg989
g1011
sg997
g994
sg999
L0L
sg1001
g1070
stRp1903
ag1
(g1565
g1513
(dp1904
g984
g1065
sVY
L2L
sg986
L3L
sg987
g1066
sg995
L2L
sg992
L2L
sg993
g1068
sVX
L9L
sg989
g998
sg997
g994
sg999
L0L
sg1001
g1070
stRp1905
ag1
(g1565
g1513
(dp1906
g984
g1028
sVY
L4L
sg986
L3L
sg987
g1029
sg995
L5L
sg992
L5L
sg993
g1011
sVX
L8L
sg989
g1013
sg997
g1032
sg999
L0L
sg1001
g1033
stRp1907
ag1
(g1565
g1513
(dp1908
g984
g1083
sVY
L6L
sg986
L3L
sg987
g1084
sg995
L1L
sg992
L1L
sg993
g994
sVX
L8L
sg989
g1068
sg997
g998
sg999
L0L
sg1001
g1033
stRp1909
ag1
(g1565
g1513
(dp1910
g984
g1038
sVY
L3L
sg986
L4L
sg987
g1039
sg995
L2L
sg992
L2L
sg993
g1000
sVX
L6L
sg989
g994
sg997
g1013
sg999
g998
sg1001
g1042
stRp1911
ag1
(g1565
g1513
(dp1912
g984
g1108
sVY
L2L
sg986
L4L
sg987
g1109
sg995
L8L
sg992
L8L
sg993
g994
sVX
L2L
sg989
g1009
sg997
g1023
sg999
g1011
sg1001
g1042
stRp1913
ag1
(g1565
g1513
(dp1914
g984
g1141
sVY
L3L
sg986
L4L
sg987
g1142
sg995
L3L
sg992
L3L
sg993
g1013
sVX
L4L
sg989
g1011
sg997
g994
sg999
g1009
sg1001
g1060
stRp1915
ag1
(g1565
g1513
(dp1916
g984
g1056
sVY
L3L
sg986
L4L
sg987
g1057
sg995
L4L
sg992
L4L
sg993
g1023
sVX
L7L
sg989
g1009
sg997
g998
sg999
g994
sg1001
g1060
stRp1917
ag1
(g1565
g1513
(dp1918
g984
g985
sVY
L4L
sg986
L4L
sg987
g988
sg995
L7L
sg992
L7L
sg993
g994
sVX
L8L
sg989
g990
sg997
g998
sg999
g1000
sg1001
g1002
stRp1919
ag1
(g1565
g1513
(dp1920
g984
g1075
sVY
L3L
sg986
L4L
sg987
g1076
sg995
L6L
sg992
L6L
sg993
g1000
sVX
L5L
sg989
g1068
sg997
g1011
sg999
g1032
sg1001
g1002
stRp1921
ag1
(g1565
g1513
(dp1922
g984
g1149
sVY
L2L
sg986
L4L
sg987
g1150
sg995
L8L
sg992
L8L
sg993
g1011
sVX
L4L
sg989
g1009
sg997
g1032
sg999
g990
sg1001
g1136
stRp1923
ag1
(g1565
g1513
(dp1924
g984
g1132
sVY
L5L
sg986
L4L
sg987
g1133
sg995
L3L
sg992
L3L
sg993
g1032
sVX
L9L
sg989
g1009
sg997
g1011
sg999
g1068
sg1001
g1136
stRp1925
asg1578
Nsg1579
I16
sg1580
I18
sg1581
I0
sg1582
I18
sbag1
(g1501
g3
NtRp1926
(dp1927
g1504
Nsg1505
(lp1928
sg1507
I363008208
sg10
g1586
sg6
g1509
sg1510
I1
sg24
I01
sg25
g26
sg1511
g1
(g1512
g1513
(dp1929
g22
g1529
(g1530
g1516
g1531
S'b'
tRp1930
(I1
(I18
I1
tg1533
I00
S'\x00\x00\x80?\x00\x00\x80?\x00\x00\x80?\x00\x00\x80?\x00\x00\x80?\x00\x00\x80?\x00\x00\x80?\x00\x00\x80?\x00\x00\x80?\x00\x00\x80?\x00\x00\x80?\x00\x00\x80?\x00\x00\x80?\x00\x00\x80?\x00\x00\x80?\x00\x00\x80?\x00\x00\x80?\x00\x00\x80?'
S'\x00\x00\x00\x00\x00\x00\x00\x00\x00\x00\x00\x00\x00\x00\x00\x00\x00\x00'
Ntbsg19
g1515
(g1516
(I0
tS'b'
tRp1931
(I1
(I18
I1
tg1518
I00
(lp1932
g1276
ag1223
ag1232
ag1268
ag1259
ag1300
ag1292
ag1164
ag1324
ag1192
ag1181
ag1213
ag1308
ag1241
ag1316
ag1250
ag1201
ag1284
atbsg23
g1529
(g1530
g1516
g1531
S'b'
tRp1933
(I1
(I18
I1
tg1533
I00
S'\x1d\xce\x0c@)#R@\xa6\xcb\\@\xa1g\x06@\x85\xbb\xd3@\xad3s@|\xee2A~\x00\x80@\x82\xaa\xf2@\x9f\xff#Apf\xbe@\xa2\xff/A\rD\x08A\xfd2\x03A\x92=\xd3?\xa83\x8b@\xf4\xcc\x94@nU\xdd@'
S'\x00\x00\x00\x00\x00\x00\x00\x00\x00\x00\x00\x00\x00\x00\x00\x00\x00\x00'
Ntbsg1528
g1529
(g1530
g1516
g1531
S'b'
tRp1934
(I1
(I18
I1
tg1533
I00
S'\x00\x00\x80?\x00\x00\x80?\x00\x00\x80?\x00\x00\x80?\x00\x00\x80?\x00\x00\x80?\x00\x00\x80?\x00\x00\x80?\x00\x00\x80?\x00\x00\x80?\x00\x00\x80?\x00\x00\x80?\x00\x00\x80?\x00\x00\x80?\x00\x00\x80?\x00\x00\x80?\x00\x00\x80?\x00\x00\x80?'
S'\x00\x00\x00\x00\x00\x00\x00\x00\x00\x00\x00\x00\x00\x00\x00\x00\x00\x00'
Ntbsg21
g1515
(g1516
(I0
tS'b'
tRp1935
(I1
(I18
I1
tg1518
I00
(lp1936
S'7'
aS'9'
aS'2'
aS'5'
aS'9'
aS'3'
aS'8'
aS'3'
aS'9'
aS'6'
aS'5'
aS'9'
aS'5'
aS'7'
aS'6'
aS'9'
aS'5'
aS'5'
atbsg1543
g1529
(g1530
g1516
g1531
S'b'
tRp1937
(I1
(I18
I1
tg1533
I00
S'\x00\x000A\x00\x00\xa0@\x00\x00\xc0@\x00\x00 A\x00\x00\x10A\x00\x00`A\x00\x00PA\x00\x00\x00\x00\x00\x00\x88A\x00\x00\x00@\x00\x00\x80?\x00\x00\x80@\x00\x00pA\x00\x00\xe0@\x00\x00\x80A\x00\x00\x00A\x00\x00@@\x00\x00@A'
S'\x00\x00\x00\x00\x00\x00\x00\x00\x00\x00\x00\x00\x00\x00\x00\x00\x00\x00'
Ntbsg20
g1529
(g1530
g1516
g1531
S'b'
tRp1938
(I1
(I18
I1
tg1533
I00
S'\xb3\x16Q?\x8fJD?\xbf\xf5.?\xa5\xaf*?\xf4$\xe2?+\x9c\x99?J&b?\xab\xaa\xb2@\x98$\xc2?\xb4h\x86?\x1b\x00\xa0@\xa033@\xc5\xee\xbe@\xf3\xef\x0e@\xc4\xdf\x85@\x81\x9bY@\x9d\xd0\x1c@\x9du\xd7?'
S'\x00\x00\x00\x00\x00\x00\x00\x00\x00\x00\x00\x00\x00\x00\x00\x00\x00\x00'
NtbstRp1939
(dp1940
g1548
(dp1941
g1528
I01
sg21
I00
sg20
I01
sg22
I01
sg19
I00
sg23
I01
sg1543
I01
ssg1550
g1926
sg1551
(lp1942
g1528
ag1543
ag19
ag20
ag21
ag22
ag23
asg1553
(lp1943
I18
aI1
asbsg1555
g1556
sg1557
g1515
(g1516
(I0
tS'b'
tRp1944
(I1
(I18
I1
tg1518
I00
(lp1945
I7
aI10
aI9
aI16
aI11
aI1
aI2
aI13
aI15
aI4
aI3
aI0
aI17
aI6
aI5
aI12
aI14
aI8
atbsg1560
I01
sg1561
I1
sg1562
I-1
sg1563
(lp1946
g1
(g1565
g1513
(dp1947
g1157
g1274
sVY
L5L
sg1159
L2L
sg1160
g1275
sg1168
L7L
sg1165
L7L
sg1166
g1214
sVX
L4L
sg1162
L0L
sg1170
g1205
sg1172
L0L
sg1173
g1225
stRp1948
ag1
(g1565
g1513
(dp1949
g1157
g1221
sVY
L3L
sg1159
L2L
sg1160
g1222
sg1168
L9L
sg1165
L9L
sg1166
g1163
sVX
L4L
sg1162
L0L
sg1170
g1191
sg1172
L0L
sg1173
g1225
stRp1950
ag1
(g1565
g1513
(dp1951
g1157
g1230
sVY
L8L
sg1159
L2L
sg1160
g1231
sg1168
L2L
sg1165
L2L
sg1166
g1167
sVX
L8L
sg1162
L0L
sg1170
g1182
sg1172
L0L
sg1173
g1234
stRp1952
ag1
(g1565
g1513
(dp1953
g1157
g1266
sVY
L2L
sg1159
L2L
sg1160
g1267
sg1168
L5L
sg1165
L5L
sg1166
g1167
sVX
L8L
sg1162
L0L
sg1170
g1171
sg1172
L0L
sg1173
g1234
stRp1954
ag1
(g1565
g1513
(dp1955
g1157
g1257
sVY
L2L
sg1159
L3L
sg1160
g1258
sg1168
L9L
sg1165
L9L
sg1166
g1163
sVX
L7L
sg1162
g1204
sg1170
g1167
sg1172
L0L
sg1173
g1261
stRp1956
ag1
(g1565
g1513
(dp1957
g1157
g1298
sVY
L2L
sg1159
L3L
sg1160
g1299
sg1168
L3L
sg1165
L3L
sg1166
g1171
sVX
L8L
sg1162
g1214
sg1170
g1191
sg1172
L0L
sg1173
g1261
stRp1958
ag1
(g1565
g1513
(dp1959
g1157
g1290
sVY
L2L
sg1159
L3L
sg1160
g1291
sg1168
L8L
sg1165
L8L
sg1166
g1216
sVX
L9L
sg1162
g1204
sg1170
g1214
sg1172
L0L
sg1173
g1174
stRp1960
ag1
(g1565
g1513
(dp1961
g1157
g1158
sVY
L3L
sg1159
L3L
sg1160
g1161
sg1168
L3L
sg1165
L3L
sg1166
g1167
sVX
L2L
sg1162
g1163
sg1170
g1171
sg1172
L0L
sg1173
g1174
stRp1962
ag1
(g1565
g1513
(dp1963
g1157
g1322
sVY
L3L
sg1159
L3L
sg1160
g1323
sg1168
L9L
sg1165
L9L
sg1166
g1214
sVX
L3L
sg1162
g1205
sg1170
g1163
sg1172
L0L
sg1173
g1194
stRp1964
ag1
(g1565
g1513
(dp1965
g1157
g1189
sVY
L2L
sg1159
L3L
sg1160
g1190
sg1168
L6L
sg1165
L6L
sg1166
g1171
sVX
L3L
sg1162
g1191
sg1170
g1163
sg1172
L0L
sg1173
g1194
stRp1966
ag1
(g1565
g1513
(dp1967
g1157
g1179
sVY
L4L
sg1159
L4L
sg1160
g1180
sg1168
L5L
sg1165
L5L
sg1166
g1182
sVX
L3L
sg1162
g1171
sg1170
g1167
sg1172
g1163
sg1173
g1184
stRp1968
ag1
(g1565
g1513
(dp1969
g1157
g1211
sVY
L9L
sg1159
L4L
sg1160
g1212
sg1168
L9L
sg1165
L9L
sg1166
g1214
sVX
L3L
sg1162
g1171
sg1170
g1216
sg1172
g1202
sg1173
g1184
stRp1970
ag1
(g1565
g1513
(dp1971
g1157
g1306
sVY
L4L
sg1159
L4L
sg1160
g1307
sg1168
L5L
sg1165
L5L
sg1166
g1191
sVX
L5L
sg1162
g1204
sg1170
g1214
sg1172
g1163
sg1173
g1243
stRp1972
ag1
(g1565
g1513
(dp1973
g1157
g1239
sVY
L2L
sg1159
L4L
sg1160
g1240
sg1168
L7L
sg1165
L7L
sg1166
g1216
sVX
L2L
sg1162
g1163
sg1170
g1171
sg1172
g1214
sg1173
g1243
stRp1974
ag1
(g1565
g1513
(dp1975
g1157
g1314
sVY
L4L
sg1159
L4L
sg1160
g1315
sg1168
L6L
sg1165
L6L
sg1166
g1182
sVX
L4L
sg1162
g1191
sg1170
g1163
sg1172
g1171
sg1173
g1252
stRp1976
ag1
(g1565
g1513
(dp1977
g1157
g1248
sVY
L8L
sg1159
L4L
sg1160
g1249
sg1168
L9L
sg1165
L9L
sg1166
g1171
sVX
L8L
sg1162
g1167
sg1170
g1163
sg1172
g1182
sg1173
g1252
stRp1978
ag1
(g1565
g1513
(dp1979
g1157
g1199
sVY
L4L
sg1159
L4L
sg1160
g1200
sg1168
L5L
sg1165
L5L
sg1166
g1202
sVX
L5L
sg1162
g1182
sg1170
g1204
sg1172
g1205
sg1173
g1206
stRp1980
ag1
(g1565
g1513
(dp1981
g1157
g1282
sVY
L4L
sg1159
L4L
sg1160
g1283
sg1168
L5L
sg1165
L5L
sg1166
g1171
sVX
L7L
sg1162
g1214
sg1170
g1202
sg1172
g1216
sg1173
g1206
stRp1982
asg1578
Nsg1579
I8
sg1580
I18
sg1581
I0
sg1582
I18
sbag1
(g1501
g3
NtRp1983
(dp1984
g1504
Nsg1505
(lp1985
sg1507
I363008208
sg10
g1586
sg6
g1509
sg1510
I1
sg24
I01
sg25
g26
sg1511
g1
(g1512
g1513
(dp1986
g22
g1529
(g1530
g1516
g1531
S'b'
tRp1987
(I1
(I18
I1
tg1533
I00
S'\x00\x00\x80?\x00\x00\x80?\x00\x00\x80?\x00\x00\x80?\x00\x00\x00\x00\x00\x00\x80?\x00\x00\x80?\x00\x00\x80?\x00\x00\x80?\x00\x00\x80?\x00\x00\x80?\x00\x00\x00\x00\x00\x00\x80?\x00\x00\x00\x00\x00\x00\x00\x00\x00\x00\x80?\x00\x00\x80?\x00\x00\x80?'
S'\x00\x00\x00\x00\x00\x00\x00\x00\x00\x00\x00\x00\x00\x00\x00\x00\x00\x00'
Ntbsg19
g1515
(g1516
(I0
tS'b'
tRp1988
(I1
(I18
I1
tg1518
I00
(lp1989
g1438
ag1463
ag1376
ag1336
ag1471
ag1421
ag1386
ag1354
ag1455
ag1394
ag1403
ag1480
ag1365
ag1447
ag1430
ag1412
ag1488
ag1497
atbsg23
g1529
(g1530
g1516
g1531
S'b'
tRp1990
(I1
(I18
I1
tg1533
I00
S"\xbay\x87@I\xbf\x9b?fg\x16@4\xcd\x94@\xf1\x98\xc9@Yw\xd7@\xc8\xbc;@w\x01 @'xW@\xd4\xaa\xaa@Z\x88\xe0@\x00\x00\x00\x00\xbd\x88\x90@Gw\x07A\xc5TAA63\xbb@\xe52#A\xe8!\x06A"
S'\x00\x00\x00\x00\x00\x00\x00\x00\x00\x00\x00\x01\x00\x00\x00\x00\x00\x00'
Ntbsg1528
g1529
(g1530
g1516
g1531
S'b'
tRp1991
(I1
(I18
I1
tg1533
I00
S'\x00\x00\x80?\x00\x00\x80?\x00\x00\x80?\x00\x00\x80?\x00\x00\x80?\x00\x00\x80?\x00\x00\x80?\x00\x00\x80?\x00\x00\x80?\x00\x00\x80?\x00\x00\x80?\x00\x00\x80?\x00\x00\x80?\x00\x00\x80?\x00\x00\x80?\x00\x00\x80?\x00\x00\x80?\x00\x00\x80?'
S'\x00\x00\x00\x00\x00\x00\x00\x00\x00\x00\x00\x00\x00\x00\x00\x00\x00\x00'
Ntbsg21
g1515
(g1516
(I0
tS'b'
tRp1992
(I1
(I18
I1
tg1518
I00
(lp1993
S'1'
aS'4'
aS'9'
aS'6'
aS'5'
aS'7'
aS'8'
aS'2'
aS'1'
aS'9'
aS'1'
aNaS'1'
aS'6'
aS'5'
aS'1'
aS'5'
aS'7'
atbsg1543
g1529
(g1530
g1516
g1531
S'b'
tRp1994
(I1
(I18
I1
tg1533
I00
S'\x00\x00 A\x00\x00PA\x00\x00@@\x00\x00\x00\x00\x00\x00`A\x00\x00\x00A\x00\x00\x80@\x00\x00\x80?\x00\x00@A\x00\x00\xa0@\x00\x00\xc0@\x00\x00pA\x00\x00\x00@\x00\x000A\x00\x00\x10A\x00\x00\xe0@\x00\x00\x80A\x00\x00\x88A'
S'\x00\x00\x00\x00\x00\x00\x00\x00\x00\x00\x00\x00\x00\x00\x00\x00\x00\x00'
Ntbsg20
g1529
(g1530
g1516
g1531
S'b'
tRp1995
(I1
(I18
I1
tg1533
I00
S'\x06\xfe.?\x02n&?\xd0\xf4.?\x99\xe2]?\xf5W\xb5?\xc6\x8eH?S"\x9a@A%\x82?\xac\xcaL?\xe5\xf1\xae?\x1a\x12\x11@\x9a\xf1\xce?bx7@\xdbv\x13AX\x11\x89@\x0bV\x05@~\xf0>@""\x9a@'
S'\x00\x00\x00\x00\x00\x00\x00\x00\x00\x00\x00\x00\x00\x00\x00\x00\x00\x00'
NtbstRp1996
(dp1997
g1548
(dp1998
g1528
I01
sg21
I00
sg20
I01
sg22
I01
sg19
I00
sg23
I01
sg1543
I01
ssg1550
g1983
sg1551
(lp1999
g1528
ag1543
ag19
ag20
ag21
ag22
ag23
asg1553
(lp2000
I18
aI1
asbsg1555
g1556
sg1557
g1515
(g1516
(I0
tS'b'
tRp2001
(I1
(I18
I1
tg1518
I00
(lp2002
I3
aI7
aI12
aI2
aI6
aI9
aI10
aI15
aI5
aI14
aI0
aI13
aI8
aI1
aI4
aI11
aI16
aI17
atbsg1560
I01
sg1561
I1
sg1562
I-1
sg1563
(lp2003
g1
(g1565
g1513
(dp2004
g1330
g1436
sVY
L2L
sg1332
L2L
sg1333
g1437
sg1340
L1L
sg1337
L1L
sg1338
g1385
sVX
L9L
sg1335
L0L
sg1342
g1339
sg1344
L0L
sg1345
g1440
stRp2005
ag1
(g1565
g1513
(dp2006
g1330
g1461
sVY
L4L
sg1332
L2L
sg1333
g1462
sg1340
L4L
sg1337
L4L
sg1338
g1385
sVX
L3L
sg1335
L0L
sg1342
g1377
sg1344
L0L
sg1345
g1440
stRp2007
ag1
(g1565
g1513
(dp2008
g1330
g1374
sVY
L4L
sg1332
L2L
sg1333
g1375
sg1340
L9L
sg1337
L9L
sg1338
g1377
sVX
L2L
sg1335
L0L
sg1342
g1357
sg1344
L0L
sg1345
g1346
stRp2009
ag1
(g1565
g1513
(dp2010
g1330
g1331
sVY
L6L
sg1332
L2L
sg1333
g1334
sg1340
L6L
sg1337
L6L
sg1338
g1339
sVX
L8L
sg1335
L0L
sg1342
g1343
sg1344
L0L
sg1345
g1346
stRp2011
ag1
(g1565
g1513
(dp2012
g1330
g1469
sVY
L4L
sg1332
L3L
sg1333
g1470
sg1340
L6L
sg1337
L6L
sg1338
g1367
sVX
L6L
sg1335
g1353
sg1342
g1473
sg1344
L0L
sg1345
g1423
stRp2013
ag1
(g1565
g1513
(dp2014
g1330
g1419
sVY
L9L
sg1332
L3L
sg1333
g1420
sg1340
L7L
sg1337
L7L
sg1338
g1368
sVX
L9L
sg1335
g1367
sg1342
g1339
sg1344
L0L
sg1345
g1423
stRp2015
ag1
(g1565
g1513
(dp2016
g1330
g1383
sVY
L4L
sg1332
L3L
sg1333
g1384
sg1340
L8L
sg1337
L8L
sg1338
g1377
sVX
L3L
sg1335
g1385
sg1342
g1368
sg1344
L0L
sg1345
g1358
stRp2017
ag1
(g1565
g1513
(dp2018
g1330
g1351
sVY
L2L
sg1332
L3L
sg1333
g1352
sg1340
L2L
sg1337
L2L
sg1338
g1355
sVX
L4L
sg1335
g1353
sg1342
g1357
sg1344
L0L
sg1345
g1358
stRp2019
ag1
(g1565
g1513
(dp2020
g1330
g1453
sVY
L2L
sg1332
L3L
sg1333
g1454
sg1340
L1L
sg1337
L1L
sg1338
g1353
sVX
L8L
sg1335
g1355
sg1342
g1367
sg1344
L0L
sg1345
g1396
stRp2021
ag1
(g1565
g1513
(dp2022
g1330
g1392
sVY
L3L
sg1332
L3L
sg1333
g1393
sg1340
L9L
sg1337
L9L
sg1338
g1353
sVX
L2L
sg1335
g1377
sg1342
g1343
sg1344
L0L
sg1345
g1396
stRp2023
ag1
(g1565
g1513
(dp2024
g1330
g1401
sVY
L3L
sg1332
L4L
sg1333
g1402
sg1340
L1L
sg1337
L1L
sg1338
g1367
sVX
L6L
sg1335
g1385
sg1342
g1355
sg1344
g1368
sg1345
g1405
stRp2025
ag1
(g1565
g1513
(dp2026
g1330
g1478
sVY
L2L
sg1332
L4L
sg1333
g1479
sg1340
L2L
sg1337
L2L
sg1338
g1367
sVX
L3L
sg1335
g1385
sg1342
g1377
sg1344
g1368
sg1345
g1405
stRp2027
ag1
(g1565
g1513
(dp2028
g1330
g1363
sVY
L9L
sg1332
L4L
sg1333
g1364
sg1340
L1L
sg1337
L1L
sg1338
g1355
sVX
L3L
sg1335
g1343
sg1342
g1367
sg1344
g1368
sg1345
g1369
stRp2029
ag1
(g1565
g1513
(dp2030
g1330
g1445
sVY
L3L
sg1332
L4L
sg1333
g1446
sg1340
L3L
sg1337
L3L
sg1338
g1339
sVX
L6L
sg1335
g1357
sg1342
g1343
sg1344
g1353
sg1345
g1369
stRp2031
ag1
(g1565
g1513
(dp2032
g1330
g1428
sVY
L2L
sg1332
L4L
sg1333
g1429
sg1340
L7L
sg1337
L7L
sg1338
g1353
sVX
L2L
sg1335
g1377
sg1342
g1357
sg1344
g1343
sg1345
g1414
stRp2033
ag1
(g1565
g1513
(dp2034
g1330
g1410
sVY
L2L
sg1332
L4L
sg1333
g1411
sg1340
L1L
sg1337
L1L
sg1338
g1357
sVX
L8L
sg1335
g1339
sg1342
g1385
sg1344
g1353
sg1345
g1414
stRp2035
ag1
(g1565
g1513
(dp2036
g1330
g1486
sVY
L2L
sg1332
L4L
sg1333
g1487
sg1340
L5L
sg1337
L5L
sg1338
g1353
sVX
L2L
sg1335
g1343
sg1342
g1367
sg1344
g1473
sg1345
g1490
stRp2037
ag1
(g1565
g1513
(dp2038
g1330
g1495
sVY
L2L
sg1332
L4L
sg1333
g1496
sg1340
L7L
sg1337
L7L
sg1338
g1343
sVX
L2L
sg1335
g1353
sg1342
g1357
sg1344
g1473
sg1345
g1490
stRp2039
asg1578
Nsg1579
I17
sg1580
I18
sg1581
I0
sg1582
I18
sbasS'savePickle'
p2040
I00
sb.