ccopy_reg
_reconstructor
p1
(cpsychopy.data
ExperimentHandler
p2
c__builtin__
object
p3
NtRp4
(dp5
S'originPath'
p6
NsS'dataFileName'
p7
VC:\u005cUsers\u005cexperimenter\u005cDesktop\u005cExperiments\u005cKRITL\u005cdata/31052_KRITL_2017_May_12_0920
p8
sS'runtimeInfo'
p9
NsS'name'
p10
S'KRITL'
p11
sS'dataNames'
p12
(lp13
S'practice_encoding.keys'
p14
aS'practice_encoding.rt'
p15
aS'practice_execution.keys'
p16
aS'practice_execution.corr'
p17
aS'practice_execution.rt'
p18
aS'encoding.keys'
p19
aS'encoding.rt'
p20
aS'execution.keys'
p21
aS'execution.corr'
p22
aS'execution.rt'
p23
asS'autoLog'
p24
I01
sS'extraInfo'
p25
(dp26
S'date'
p27
V2017_May_12_0920
p28
sS'frameRate'
p29
cnumpy.core.multiarray
scalar
p30
(cnumpy
dtype
p31
(S'f8'
I0
I1
tRp32
(I3
S'<'
NNNI-1
I-1
I0
tbS'\xfc*\xa4\x90*\xb1q@'
tRp33
sS'expName'
p34
g11
sVsession
p35
V002
p36
sVparticipant
p37
V31052
p38
ssS'loopsUnfinished'
p39
(lp40
sS'saveWideText'
p41
I00
sS'thisEntry'
p42
(dp43
sS'version'
p44
S''
sS'_paramNamesSoFar'
p45
(lp46
Voperationc
p47
aVoperationb
p48
aVoperationa
p49
aVcorrectresponse
p50
aVvaluey
p51
aVoperationd
p52
aVcondition
p53
aVvaluex
p54
aVRule
p55
aVOperatora
p56
aVLength
p57
aVIntermediate
p58
aVCorrectResponse
p59
aVResult
p60
aVY
aVX
aVOperatorc
p61
aVOperatorb
p62
aVOperatord
p63
aVStructure
p64
asS'entries'
p65
(lp66
(dp67
g18
F2.5954684787429869
sg29
g33
sg17
I1
sg47
I0
sg48
VADD
p68
sg49
Vdecrease
p69
sg35
g36
sg50
I7
sS'practice_trials.thisTrialN'
p70
I0
sg52
I0
sS'practice_trials.thisRepN'
p71
I0
sg37
g38
sg53
I2
sg27
g28
sg16
S'7'
sg14
(lp72
S'space'
p73
asS'practice_trials.thisIndex'
p74
I0
sS'practice_trials.thisN'
p75
I0
sg34
g11
sg15
(lp76
F2.6171433910785709
asg51
I5
sg54
I3
sa(dp77
g18
F3.4448993176047225
sg29
g33
sg17
I1
sg47
Vincrease
p78
sg48
VDIVIDE
p79
sg49
Vtriple
p80
sg35
g36
sg50
I3
sS'practice_trials.thisTrialN'
p81
I1
sg52
I0
sS'practice_trials.thisRepN'
p82
I0
sg37
g38
sg53
I3
sg27
g28
sg16
S'3'
sg14
(lp83
S'space'
p84
asS'practice_trials.thisIndex'
p85
I4
sS'practice_trials.thisN'
p86
I1
sg34
g11
sg15
(lp87
F3.0973203040193766
asg51
I3
sg54
I2
sa(dp88
g18
F7.2042099759273697
sg29
g33
sg17
I1
sg47
g78
sg48
g79
sg49
Vdouble
p89
sg35
g36
sg50
I9
sS'practice_trials.thisTrialN'
p90
I2
sg52
g80
sS'practice_trials.thisRepN'
p91
I0
sg37
g38
sg53
I4
sg27
g28
sg16
S'9'
sg14
(lp92
S'space'
p93
asS'practice_trials.thisIndex'
p94
I5
sS'practice_trials.thisN'
p95
I2
sg34
g11
sg15
(lp96
F3.9340398138156161
asg51
I8
sg54
I8
sa(dp97
g18
F1.7195276489364915
sg29
g33
sg17
I1
sg47
I0
sg48
g69
sg49
VTIMES
p98
sg35
g36
sg50
I8
sS'practice_trials.thisTrialN'
p99
I3
sg52
I0
sS'practice_trials.thisRepN'
p100
I0
sg37
g38
sg53
I2
sg27
g28
sg16
S'8'
sg14
(lp101
S'space'
p102
asS'practice_trials.thisIndex'
p103
I1
sS'practice_trials.thisN'
p104
I3
sg34
g11
sg15
(lp105
F2.7449926525587216
asg51
I3
sg54
I3
sa(dp106
g18
F2.2763039506098721
sg29
g33
sg17
I1
sg47
I0
sg48
g68
sg49
Vhalf
p107
sg35
g36
sg50
I7
sS'practice_trials.thisTrialN'
p108
I4
sg52
I0
sS'practice_trials.thisRepN'
p109
I0
sg37
g38
sg53
I2
sg27
g28
sg16
S'7'
sg14
(lp110
S'space'
p111
asS'practice_trials.thisIndex'
p112
I2
sS'practice_trials.thisN'
p113
I4
sg34
g11
sg15
(lp114
F2.8901545468543191
asg51
I5
sg54
I4
sa(dp115
g18
F3.0903760029468685
sg29
g33
sg17
I1
sg47
g68
sg48
Vtriple 
p116
sg49
g107
sg35
g36
sg50
I8
sS'practice_trials.thisTrialN'
p117
I5
sg52
I0
sS'practice_trials.thisRepN'
p118
I0
sg37
g38
sg53
I3
sg27
g28
sg16
S'8'
sg14
(lp119
S'space'
p120
asS'practice_trials.thisIndex'
p121
I3
sS'practice_trials.thisN'
p122
I5
sg34
g11
sg15
(lp123
F2.8960514108475763
asg51
I2
sg54
I4
sa(dp124
S'block.thisTrialN'
p125
I0
sS'block.thisRepN'
p126
I0
sg29
g33
sS'block.thisN'
p127
I0
sg55
(S'DIVIDE'
S'THIRD'
S'x'
S'y'
tp128
sg27
g28
sg57
I2
sg58
(I3
I1
tp129
sg22
I1
sg20
F4.562102027295623
sg23
F4.2120365318551194
sVY
I3
sVX
I9
sg61
I0
sg35
g36
sg37
g38
sg21
S'1'
sg19
S'space'
p130
sg34
g11
sg60
I1
sg56
Vthird
p131
sg59
I1
sS'block.thisIndex'
p132
I0
sg62
VDIVIDE
p133
sg63
I0
sg64
VBUxy
p134
sa(dp135
S'block.thisTrialN'
p136
I1
sS'block.thisRepN'
p137
I0
sg29
g33
sS'block.thisN'
p138
I1
sg55
(S'THIRD'
S'TIMES'
S'HALF'
S'x'
S'y'
tp139
sg27
g28
sg57
I3
sg58
(I3
I18
I6
tp140
sg22
I1
sg20
F3.8484509445552249
sg23
F11.027982982050162
sVY
I6
sVX
I6
sg61
Vhalf
p141
sg35
g36
sg37
g38
sg21
S'6'
sg19
S'space'
p142
sg34
g11
sg60
I6
sg56
VTIMES
p143
sg59
I6
sS'block.thisIndex'
p144
I7
sg62
g131
sg63
I0
sg64
VUBUxy
p145
sa(dp146
S'block.thisTrialN'
p147
I2
sS'block.thisRepN'
p148
I0
sg29
g33
sS'block.thisN'
p149
I2
sg55
(S'DOUBLE'
S'THIRD'
S'TIMES'
S'x'
S'y'
tp150
sg27
g28
sg57
I3
sg58
(I12
I4
I8
tp151
sg22
I1
sg20
F7.9100722986913752
sg23
F4.9184311472054105
sVY
I6
sVX
I2
sg61
g143
sg35
g36
sg37
g38
sg21
S'8'
sg19
S'space'
p152
sg34
g11
sg60
I8
sg56
g131
sg59
I8
sS'block.thisIndex'
p153
I9
sg62
Vdouble
p154
sg63
I0
sg64
VUUBxy
p155
sa(dp156
S'block.thisTrialN'
p157
I3
sS'block.thisRepN'
p158
I0
sg29
g33
sS'block.thisN'
p159
I3
sg55
(S'THIRD'
S'DECREASE'
S'TIMES'
S'HALF'
S'x'
S'y'
tp160
sg27
g28
sg57
I4
sg58
(I4
I16
I15
I5
tp161
sg22
I1
sg20
F6.6965890228748322
sg23
F7.1556509630463552
sVY
I4
sVX
I8
sg61
g143
sg35
g36
sg37
g38
sg21
S'5'
sg19
S'space'
p162
sg34
g11
sg60
I5
sg56
Vdecrease
p163
sg59
I5
sS'block.thisIndex'
p164
I15
sg62
g131
sg63
g141
sg64
VUUBUxy
p165
sa(dp166
S'block.thisTrialN'
p167
I4
sS'block.thisRepN'
p168
I0
sg29
g33
sS'block.thisN'
p169
I4
sg55
(S'DECREASE'
S'TRIPLE'
S'HALF'
S'SUBTRACT'
S'x'
S'y'
tp170
sg27
g28
sg57
I4
sg58
(I4
I2
I6
I5
tp171
sg22
I1
sg20
F8.0075623343873303
sg23
F4.1115305214188993
sVY
I2
sVX
I6
sg61
g141
sg35
g36
sg37
g38
sg21
S'5'
sg19
S'space'
p172
sg34
g11
sg60
I5
sg56
Vtriple
p173
sg59
I5
sS'block.thisIndex'
p174
I16
sg62
g163
sg63
VSUBTRACT
p175
sg64
VUUUBxy
p176
sa(dp177
S'block.thisTrialN'
p178
I5
sS'block.thisRepN'
p179
I0
sg29
g33
sS'block.thisN'
p180
I5
sg55
(S'SUBTRACT'
S'DOUBLE'
S'TRIPLE'
S'DECREASE'
S'x'
S'y'
tp181
sg27
g28
sg57
I4
sg58
(I2
I6
I12
I8
tp182
sg22
I0
sg20
F9.1574389201996382
sg23
F14.178146186925005
sVY
I4
sVX
I3
sg61
g173
sg35
g36
sg37
g38
sg21
S'1'
sg19
S'space'
p183
sg34
g11
sg60
I8
sg56
g154
sg59
I8
sS'block.thisIndex'
p184
I10
sg62
g175
sg63
g163
sg64
VBUUUxy
p185
sa(dp186
S'block.thisTrialN'
p187
I6
sS'block.thisRepN'
p188
I0
sg29
g33
sS'block.thisN'
p189
I6
sg55
(S'TIMES'
S'DOUBLE'
S'x'
S'y'
tp190
sg27
g28
sg57
I2
sg58
(I4
I8
tp191
sg22
I1
sg20
F3.3974164386454504
sg23
F2.083780964196194
sVY
I2
sVX
I2
sg61
I0
sg35
g36
sg37
g38
sg21
S'8'
sg19
S'space'
p192
sg34
g11
sg60
I8
sg56
g154
sg59
I8
sS'block.thisIndex'
p193
I1
sg62
g143
sg63
I0
sg64
g134
sa(dp194
S'block.thisTrialN'
p195
I7
sS'block.thisRepN'
p196
I0
sg29
g33
sS'block.thisN'
p197
I7
sg55
(S'SUBTRACT'
S'TRIPLE'
S'DECREASE'
S'DOUBLE'
S'x'
S'y'
tp198
sg27
g28
sg57
I4
sg58
(I4
I3
I9
I1
tp199
sg22
I1
sg20
F5.7474395886238199
sg23
F9.1518927183933556
sVY
I8
sVX
I2
sg61
g163
sg35
g36
sg37
g38
sg21
S'1'
sg19
S'space'
p200
sg34
g11
sg60
I1
sg56
g173
sg59
I1
sS'block.thisIndex'
p201
I11
sg62
g175
sg63
g154
sg64
g185
sa(dp202
S'block.thisTrialN'
p203
I8
sS'block.thisRepN'
p204
I0
sg29
g33
sS'block.thisN'
p205
I8
sg55
(S'TIMES'
S'HALF'
S'INCREASE'
S'x'
S'y'
tp206
sg27
g28
sg57
I3
sg58
(I6
I3
I9
tp207
sg22
I1
sg20
F3.1420006852131337
sg23
F11.701708270760719
sVY
I3
sVX
I5
sg61
Vincrease
p208
sg35
g36
sg37
g38
sg21
S'9'
sg19
S'space'
p209
sg34
g11
sg60
I9
sg56
g141
sg59
I9
sS'block.thisIndex'
p210
I5
sg62
g143
sg63
I0
sg64
VBUUxy
p211
sa(dp212
S'block.thisTrialN'
p213
I9
sS'block.thisRepN'
p214
I0
sg29
g33
sS'block.thisN'
p215
I9
sg55
(S'SUBTRACT'
S'TRIPLE'
S'DECREASE'
S'x'
S'y'
tp216
sg27
g28
sg57
I3
sg58
(I4
I12
I3
tp217
sg22
I1
sg20
F3.6218269359669648
sg23
F7.843980176752666
sVY
I9
sVX
I5
sg61
g163
sg35
g36
sg37
g38
sg21
S'3'
sg19
S'space'
p218
sg34
g11
sg60
I3
sg56
g173
sg59
I3
sS'block.thisIndex'
p219
I4
sg62
g175
sg63
I0
sg64
g211
sa(dp220
S'block.thisTrialN'
p221
I10
sS'block.thisRepN'
p222
I0
sg29
g33
sS'block.thisN'
p223
I10
sg55
(S'DOUBLE'
S'DECREASE'
S'ADD'
S'x'
S'y'
tp224
sg27
g28
sg57
I3
sg58
(I4
I3
I6
tp225
sg22
I1
sg20
F4.0036207095254213
sg23
F3.1744691334897652
sVY
I2
sVX
I2
sg61
VADD
p226
sg35
g36
sg37
g38
sg21
S'6'
sg19
S'space'
p227
sg34
g11
sg60
I6
sg56
g163
sg59
I6
sS'block.thisIndex'
p228
I8
sg62
g154
sg63
I0
sg64
g155
sa(dp229
S'block.thisTrialN'
p230
I11
sS'block.thisRepN'
p231
I0
sg29
g33
sS'block.thisN'
p232
I11
sg55
(S'INCREASE'
S'ADD'
S'HALF'
S'TRIPLE'
S'x'
S'y'
tp233
sg27
g28
sg57
I4
sg58
(I6
I3
I6
I7
tp234
sg22
I1
sg20
F3.3501655846484937
sg23
F6.4995060282817576
sVY
I3
sVX
I2
sg61
g141
sg35
g36
sg37
g38
sg21
S'7'
sg19
S'space'
p235
sg34
g11
sg60
I7
sg56
g226
sg59
I7
sS'block.thisIndex'
p236
I13
sg62
g208
sg63
g173
sg64
VUBUUxy
p237
sa(dp238
S'block.thisTrialN'
p239
I12
sS'block.thisRepN'
p240
I0
sg29
g33
sS'block.thisN'
p241
I12
sg55
(S'INCREASE'
S'SUBTRACT'
S'x'
S'y'
tp242
sg27
g28
sg57
I2
sg58
(I3
I4
tp243
sg22
I1
sg20
F2.3081543655425776
sg23
F2.5544119566620793
sVY
I3
sVX
I6
sg61
I0
sg35
g36
sg37
g38
sg21
S'4'
sg19
S'space'
p244
sg34
g11
sg60
I4
sg56
g175
sg59
I4
sS'block.thisIndex'
p245
I2
sg62
g208
sg63
I0
sg64
VUBxy
p246
sa(dp247
S'block.thisTrialN'
p248
I13
sS'block.thisRepN'
p249
I0
sg29
g33
sS'block.thisN'
p250
I13
sg55
(S'THIRD'
S'DIVIDE'
S'x'
S'y'
tp251
sg27
g28
sg57
I2
sg58
(I3
I1
tp252
sg22
I1
sg20
F3.8255462648521643
sg23
F3.1722668209986296
sVY
I2
sVX
I6
sg61
I0
sg35
g36
sg37
g38
sg21
S'1'
sg19
S'space'
p253
sg34
g11
sg60
I1
sg56
g133
sg59
I1
sS'block.thisIndex'
p254
I3
sg62
g131
sg63
I0
sg64
g246
sa(dp255
S'block.thisTrialN'
p256
I14
sS'block.thisRepN'
p257
I0
sg29
g33
sS'block.thisN'
p258
I14
sg55
(S'DOUBLE'
S'DIVIDE'
S'TRIPLE'
S'INCREASE'
S'x'
S'y'
tp259
sg27
g28
sg57
I4
sg58
(I5
I15
I3
I6
tp260
sg22
I1
sg20
F2.6613989181350917
sg23
F6.900590421340894
sVY
I5
sVX
I4
sg61
g173
sg35
g36
sg37
g38
sg21
S'6'
sg19
S'space'
p261
sg34
g11
sg60
I6
sg56
g133
sg59
I6
sS'block.thisIndex'
p262
I12
sg62
g154
sg63
g208
sg64
g237
sa(dp263
S'block.thisTrialN'
p264
I15
sS'block.thisRepN'
p265
I0
sg29
g33
sS'block.thisN'
p266
I15
sg55
(S'THIRD'
S'DIVIDE'
S'DECREASE'
S'x'
S'y'
tp267
sg27
g28
sg57
I3
sg58
(I6
I3
I1
tp268
sg22
I1
sg20
F4.62657767359633
sg23
F5.7007966190867592
sVY
I2
sVX
I7
sg61
g163
sg35
g36
sg37
g38
sg21
S'1'
sg19
S'space'
p269
sg34
g11
sg60
I1
sg56
g133
sg59
I1
sS'block.thisIndex'
p270
I6
sg62
g131
sg63
I0
sg64
g145
sa(dp271
S'block.thisTrialN'
p272
I16
sS'block.thisRepN'
p273
I0
sg29
g33
sS'block.thisN'
p274
I16
sg55
(S'HALF'
S'TRIPLE'
S'INCREASE'
S'SUBTRACT'
S'x'
S'y'
tp275
sg27
g28
sg57
I4
sg58
(I1
I2
I6
I3
tp276
sg22
I1
sg20
F4.9053712557069957
sg23
F7.3129362498293631
sVY
I2
sVX
I3
sg61
g208
sg35
g36
sg37
g38
sg21
S'3'
sg19
S'space'
p277
sg34
g11
sg60
I3
sg56
g173
sg59
I3
sS'block.thisIndex'
p278
I17
sg62
g141
sg63
g175
sg64
g176
sa(dp279
S'block.thisTrialN'
p280
I17
sS'block.thisRepN'
p281
I0
sg29
g33
sS'block.thisN'
p282
I17
sg55
(S'DECREASE'
S'TRIPLE'
S'DIVIDE'
S'DOUBLE'
S'x'
S'y'
tp283
sg27
g28
sg57
I4
sg58
(I6
I2
I6
I5
tp284
sg22
I0
sg20
F3.3163042865635362
sg23
F5.1389938095235266
sVY
I3
sVX
I3
sg61
g133
sg35
g36
sg37
g38
sg21
S'9'
sg19
S'space'
p285
sg34
g11
sg60
I5
sg56
g173
sg59
I5
sS'block.thisIndex'
p286
I14
sg62
g163
sg63
g154
sg64
g165
sa(dp287
S'block.thisTrialN'
p288
I0
sS'block.thisRepN'
p289
I0
sg29
g33
sS'block.thisN'
p290
I0
sVRule
p291
(S'TRIPLE'
S'SUBTRACT'
S'DOUBLE'
S'DECREASE'
S'x'
S'y'
tp292
sg27
g28
sVLength
p293
I4
sVIntermediate
p294
(I2
I4
I1
I3
tp295
sg22
I1
sg20
F3.3286954002105631
sg23
F7.3340928680845536
sVY
I3
sVX
I3
sVOperatorc
p296
Vdouble
p297
sg35
g36
sg37
g38
sg21
S'3'
sg19
S'space'
p298
sg34
g11
sVResult
p299
I3
sVOperatora
p300
VSUBTRACT
p301
sVCorrectResponse
p302
I3
sS'block.thisIndex'
p303
I13
sVOperatorb
p304
Vtriple
p305
sVOperatord
p306
Vdecrease
p307
sVStructure
p308
VUBUUxy
p309
sa(dp310
S'block.thisTrialN'
p311
I1
sS'block.thisRepN'
p312
I0
sg29
g33
sS'block.thisN'
p313
I1
sg291
(S'TIMES'
S'THIRD'
S'HALF'
S'x'
S'y'
tp314
sg27
g28
sg293
I3
sg294
(I3
I1
I5
tp315
sg22
I1
sg20
F2.7916590695676859
sg23
F6.7619052785157692
sVY
I5
sVX
I6
sg296
Vhalf
p316
sg35
g36
sg37
g38
sg21
S'5'
sg19
S'space'
p317
sg34
g11
sg299
I5
sg300
Vthird
p318
sg302
I5
sS'block.thisIndex'
p319
I5
sg304
VTIMES
p320
sg306
I0
sg308
VBUUxy
p321
sa(dp322
S'block.thisTrialN'
p323
I2
sS'block.thisRepN'
p324
I0
sg29
g33
sS'block.thisN'
p325
I2
sg291
(S'THIRD'
S'TIMES'
S'DECREASE'
S'x'
S'y'
tp326
sg27
g28
sg293
I3
sg294
(I3
I15
I5
tp327
sg22
I1
sg20
F4.1937702518771403
sg23
F3.6316836229234468
sVY
I5
sVX
I4
sg296
g307
sg35
g36
sg37
g38
sg21
S'5'
sg19
S'space'
p328
sg34
g11
sg299
I5
sg300
g320
sg302
I5
sS'block.thisIndex'
p329
I7
sg304
g318
sg306
I0
sg308
VUBUxy
p330
sa(dp331
S'block.thisTrialN'
p332
I3
sS'block.thisRepN'
p333
I0
sg29
g33
sS'block.thisN'
p334
I3
sg291
(S'THIRD'
S'INCREASE'
S'HALF'
S'DIVIDE'
S'x'
S'y'
tp335
sg27
g28
sg293
I4
sg294
(I4
I2
I3
I1
tp336
sg22
I1
sg20
F6.0807653394585941
sg23
F6.1965311040985398
sVY
I2
sVX
I8
sg296
g316
sg35
g36
sg37
g38
sg21
S'1'
sg19
S'space'
p337
sg34
g11
sg299
I1
sg300
Vincrease
p338
sg302
I1
sS'block.thisIndex'
p339
I16
sg304
g318
sg306
VDIVIDE
p340
sg308
VUUUBxy
p341
sa(dp342
S'block.thisTrialN'
p343
I4
sS'block.thisRepN'
p344
I0
sg29
g33
sS'block.thisN'
p345
I4
sg291
(S'SUBTRACT'
S'HALF'
S'INCREASE'
S'TRIPLE'
S'x'
S'y'
tp346
sg27
g28
sg293
I4
sg294
(I15
I16
I8
I3
tp347
sg22
I1
sg20
F4.579264176369179
sg23
F8.1471227328293025
sVY
I5
sVX
I5
sg296
g338
sg35
g36
sg37
g38
sg21
S'3'
sg19
S'space'
p348
sg34
g11
sg299
I3
sg300
g316
sg302
I3
sS'block.thisIndex'
p349
I10
sg304
g301
sg306
g305
sg308
VBUUUxy
p350
sa(dp351
S'block.thisTrialN'
p352
I5
sS'block.thisRepN'
p353
I0
sg29
g33
sS'block.thisN'
p354
I5
sg291
(S'TRIPLE'
S'HALF'
S'ADD'
S'DECREASE'
S'x'
S'y'
tp355
sg27
g28
sg293
I4
sg294
(I1
I4
I2
I6
tp356
sg22
I0
sg20
F3.1752575984573923
sg23
F12.402581531583564
sVY
I3
sVX
I2
sg296
VADD
p357
sg35
g36
sg37
g38
sg21
S'8'
sg19
S'space'
p358
sg34
g11
sg299
I6
sg300
g316
sg302
I6
sS'block.thisIndex'
p359
I15
sg304
g305
sg306
g307
sg308
VUUBUxy
p360
sa(dp361
S'block.thisTrialN'
p362
I6
sS'block.thisRepN'
p363
I0
sg29
g33
sS'block.thisN'
p364
I6
sg291
(S'TIMES'
S'DECREASE'
S'x'
S'y'
tp365
sg27
g28
sg293
I2
sg294
(I2
I4
tp366
sg22
I1
sg20
F1.9878871063701808
sg23
F2.0503231726470403
sVY
I2
sVX
I3
sg296
I0
sg35
g36
sg37
g38
sg21
S'4'
sg19
S'space'
p367
sg34
g11
sg299
I4
sg300
g307
sg302
I4
sS'block.thisIndex'
p368
I0
sg304
g320
sg306
I0
sg308
VBUxy
p369
sa(dp370
S'block.thisTrialN'
p371
I7
sS'block.thisRepN'
p372
I0
sg29
g33
sS'block.thisN'
p373
I7
sg291
(S'TRIPLE'
S'HALF'
S'DIVIDE'
S'x'
S'y'
tp374
sg27
g28
sg293
I3
sg294
(I2
I1
I3
tp375
sg22
I1
sg20
F1.9739425102889072
sg23
F6.0697352290444542
sVY
I2
sVX
I4
sg296
g340
sg35
g36
sg37
g38
sg21
S'3'
sg19
S'space'
p376
sg34
g11
sg299
I3
sg300
g316
sg302
I3
sS'block.thisIndex'
p377
I9
sg304
g305
sg306
I0
sg308
VUUBxy
p378
sa(dp379
S'block.thisTrialN'
p380
I8
sS'block.thisRepN'
p381
I0
sg29
g33
sS'block.thisN'
p382
I8
sg291
(S'THIRD'
S'DECREASE'
S'TIMES'
S'x'
S'y'
tp383
sg27
g28
sg293
I3
sg294
(I25
I24
I8
tp384
sg22
I1
sg20
F4.3028559369849972
sg23
F11.477252978278557
sVY
I5
sVX
I5
sg296
g320
sg35
g36
sg37
g38
sg21
S'8'
sg19
S'space'
p385
sg34
g11
sg299
I8
sg300
g307
sg302
I8
sS'block.thisIndex'
p386
I8
sg304
g318
sg306
I0
sg308
g378
sa(dp387
S'block.thisTrialN'
p388
I9
sS'block.thisRepN'
p389
I0
sg29
g33
sS'block.thisN'
p390
I9
sg291
(S'TIMES'
S'INCREASE'
S'THIRD'
S'DOUBLE'
S'x'
S'y'
tp391
sg27
g28
sg293
I4
sg294
(I6
I2
I3
I9
tp392
sg22
I1
sg20
F3.2221924365439918
sg23
F13.39403930286062
sVY
I3
sVX
I3
sg296
g318
sg35
g36
sg37
g38
sg21
S'9'
sg19
S'space'
p393
sg34
g11
sg299
I9
sg300
g338
sg302
I9
sS'block.thisIndex'
p394
I11
sg304
g320
sg306
g297
sg308
g350
sa(dp395
S'block.thisTrialN'
p396
I10
sS'block.thisRepN'
p397
I0
sg29
g33
sS'block.thisN'
p398
I10
sg291
(S'TIMES'
S'DECREASE'
S'HALF'
S'x'
S'y'
tp399
sg27
g28
sg293
I3
sg294
(I4
I3
I9
tp400
sg22
I1
sg20
F3.2057624085282441
sg23
F3.2984849084168673
sVY
I3
sVX
I8
sg296
g316
sg35
g36
sg37
g38
sg21
S'9'
sg19
S'space'
p401
sg34
g11
sg299
I9
sg300
g307
sg302
I9
sS'block.thisIndex'
p402
I4
sg304
g320
sg306
I0
sg308
g321
sa(dp403
S'block.thisTrialN'
p404
I11
sS'block.thisRepN'
p405
I0
sg29
g33
sS'block.thisN'
p406
I11
sg291
(S'THIRD'
S'SUBTRACT'
S'x'
S'y'
tp407
sg27
g28
sg293
I2
sg294
(I3
I1
tp408
sg22
I1
sg20
F1.907090270309709
sg23
F2.3067972119315527
sVY
I2
sVX
I5
sg296
I0
sg35
g36
sg37
g38
sg21
S'1'
sg19
S'space'
p409
sg34
g11
sg299
I1
sg300
g301
sg302
I1
sS'block.thisIndex'
p410
I3
sg304
g318
sg306
I0
sg308
VUBxy
p411
sa(dp412
S'block.thisTrialN'
p413
I12
sS'block.thisRepN'
p414
I0
sg29
g33
sS'block.thisN'
p415
I12
sg291
(S'THIRD'
S'ADD'
S'x'
S'y'
tp416
sg27
g28
sg293
I2
sg294
(I9
I3
tp417
sg22
I1
sg20
F1.2501827677770052
sg23
F2.1329275637690444
sVY
I5
sVX
I4
sg296
I0
sg35
g36
sg37
g38
sg21
S'3'
sg19
S'space'
p418
sg34
g11
sg299
I3
sg300
g357
sg302
I3
sS'block.thisIndex'
p419
I2
sg304
g318
sg306
I0
sg308
g411
sa(dp420
S'block.thisTrialN'
p421
I13
sS'block.thisRepN'
p422
I0
sg29
g33
sS'block.thisN'
p423
I13
sg291
(S'THIRD'
S'DOUBLE'
S'ADD'
S'INCREASE'
S'x'
S'y'
tp424
sg27
g28
sg293
I4
sg294
(I10
I12
I24
I8
tp425
sg22
I1
sg20
F3.7683498334663454
sg23
F18.830741454527015
sVY
I2
sVX
I9
sg296
g357
sg35
g36
sg37
g38
sg21
S'8'
sg19
S'space'
p426
sg34
g11
sg299
I8
sg300
g297
sg302
I8
sS'block.thisIndex'
p427
I14
sg304
g318
sg306
g338
sg308
g360
sa(dp428
S'block.thisTrialN'
p429
I14
sS'block.thisRepN'
p430
I0
sg29
g33
sS'block.thisN'
p431
I14
sg291
(S'THIRD'
S'ADD'
S'INCREASE'
S'x'
S'y'
tp432
sg27
g28
sg293
I3
sg294
(I8
I15
I5
tp433
sg22
I1
sg20
F2.0859104845731054
sg23
F5.6036047512316145
sVY
I7
sVX
I7
sg296
g338
sg35
g36
sg37
g38
sg21
S'5'
sg19
S'space'
p434
sg34
g11
sg299
I5
sg300
g357
sg302
I5
sS'block.thisIndex'
p435
I6
sg304
g318
sg306
I0
sg308
g330
sa(dp436
S'block.thisTrialN'
p437
I15
sS'block.thisRepN'
p438
I0
sg29
g33
sS'block.thisN'
p439
I15
sg291
(S'INCREASE'
S'DIVIDE'
S'TRIPLE'
S'DOUBLE'
S'x'
S'y'
tp440
sg27
g28
sg293
I4
sg294
(I6
I18
I3
I4
tp441
sg22
I1
sg20
F4.8044610388751607
sg23
F8.9327617516391911
sVY
I6
sVX
I3
sg296
g305
sg35
g36
sg37
g38
sg21
S'4'
sg19
S'space'
p442
sg34
g11
sg299
I4
sg300
g340
sg302
I4
sS'block.thisIndex'
p443
I12
sg304
g338
sg306
g297
sg308
g309
sa(dp444
S'block.thisTrialN'
p445
I16
sS'block.thisRepN'
p446
I0
sg29
g33
sS'block.thisN'
p447
I16
sg291
(S'TRIPLE'
S'DECREASE'
S'HALF'
S'TIMES'
S'x'
S'y'
tp448
sg27
g28
sg293
I4
sg294
(I6
I3
I2
I6
tp449
sg22
I0
sg20
F5.5427148182061501
sg23
F10.038794366031652
sVY
I2
sVX
I3
sg296
g316
sg35
g36
sg37
g38
sg21
S'5'
sg19
S'space'
p450
sg34
g11
sg299
I6
sg300
g307
sg302
I6
sS'block.thisIndex'
p451
I17
sg304
g305
sg306
g320
sg308
g341
sa(dp452
S'block.thisTrialN'
p453
I17
sS'block.thisRepN'
p454
I0
sg29
g33
sS'block.thisN'
p455
I17
sg291
(S'TIMES'
S'INCREASE'
S'x'
S'y'
tp456
sg27
g28
sg293
I2
sg294
(I3
I6
tp457
sg22
I1
sg20
F2.5490036399569362
sg23
F2.3861721513385419
sVY
I2
sVX
I2
sg296
I0
sg35
g36
sg37
g38
sg21
S'6'
sg19
S'space'
p458
sg34
g11
sg299
I6
sg300
g338
sg302
I6
sS'block.thisIndex'
p459
I1
sg304
g320
sg306
I0
sg308
g369
sa(dp460
S'block.thisTrialN'
p461
I0
sS'block.thisRepN'
p462
I0
sg29
g33
sS'block.thisN'
p463
I0
sVRule
p464
(S'ADD'
S'THIRD'
S'x'
S'y'
tp465
sg27
g28
sVLength
p466
I2
sVIntermediate
p467
(I1
I7
tp468
sg22
I1
sg20
F2.6682396303513087
sg23
F4.5343902659951709
sVY
I6
sVX
I3
sVOperatorc
p469
I0
sg35
g36
sg37
g38
sg21
S'7'
sg19
S'space'
p470
sg34
g11
sVResult
p471
I7
sVOperatora
p472
Vthird
p473
sVCorrectResponse
p474
I7
sS'block.thisIndex'
p475
I0
sVOperatorb
p476
VADD
p477
sVOperatord
p478
I0
sVStructure
p479
VBUxy
p480
sa(dp481
S'block.thisTrialN'
p482
I1
sS'block.thisRepN'
p483
I0
sg29
g33
sS'block.thisN'
p484
I1
sg464
(S'TIMES'
S'INCREASE'
S'HALF'
S'TRIPLE'
S'x'
S'y'
tp485
sg27
g28
sg466
I4
sg467
(I6
I3
I4
I8
tp486
sg22
I0
sg20
F2.4191168982360978
sg23
F9.1882191505865194
sVY
I2
sVX
I2
sg469
Vhalf
p487
sg35
g36
sg37
g38
sg21
S'1'
sg19
S'space'
p488
sg34
g11
sg471
I8
sg472
Vincrease
p489
sg474
I8
sS'block.thisIndex'
p490
I11
sg476
VTIMES
p491
sg478
Vtriple
p492
sg479
VBUUUxy
p493
sa(dp494
S'block.thisTrialN'
p495
I2
sS'block.thisRepN'
p496
I0
sg29
g33
sS'block.thisN'
p497
I2
sg464
(S'SUBTRACT'
S'INCREASE'
S'x'
S'y'
tp498
sg27
g28
sg466
I2
sg467
(I6
I2
tp499
sg22
I1
sg20
F3.5052783057326451
sg23
F4.1652220808027778
sVY
I4
sVX
I5
sg469
I0
sg35
g36
sg37
g38
sg21
S'2'
sg19
S'space'
p500
sg34
g11
sg471
I2
sg472
g489
sg474
I2
sS'block.thisIndex'
p501
I1
sg476
VSUBTRACT
p502
sg478
I0
sg479
g480
sa(dp503
S'block.thisTrialN'
p504
I3
sS'block.thisRepN'
p505
I0
sg29
g33
sS'block.thisN'
p506
I3
sg464
(S'THIRD'
S'INCREASE'
S'ADD'
S'DOUBLE'
S'x'
S'y'
tp507
sg27
g28
sg466
I4
sg467
(I16
I20
I21
I7
tp508
sg22
I1
sg20
F2.9144167301710695
sg23
F8.6451494706270751
sVY
I4
sVX
I8
sg469
g477
sg35
g36
sg37
g38
sg21
S'7'
sg19
S'space'
p509
sg34
g11
sg471
I7
sg472
g489
sg474
I7
sS'block.thisIndex'
p510
I14
sg476
g473
sg478
Vdouble
p511
sg479
VUUBUxy
p512
sa(dp513
S'block.thisTrialN'
p514
I4
sS'block.thisRepN'
p515
I0
sg29
g33
sS'block.thisN'
p516
I4
sg464
(S'INCREASE'
S'ADD'
S'TRIPLE'
S'x'
S'y'
tp517
sg27
g28
sg466
I3
sg467
(I6
I8
I9
tp518
sg22
I1
sg20
F1.9414180680469144
sg23
F5.8157014765893109
sVY
I2
sVX
I2
sg469
g492
sg35
g36
sg37
g38
sg21
S'9'
sg19
S'space'
p519
sg34
g11
sg471
I9
sg472
g477
sg474
I9
sS'block.thisIndex'
p520
I6
sg476
g489
sg478
I0
sg479
VUBUxy
p521
sa(dp522
S'block.thisTrialN'
p523
I5
sS'block.thisRepN'
p524
I0
sg29
g33
sS'block.thisN'
p525
I5
sg464
(S'TRIPLE'
S'DOUBLE'
S'SUBTRACT'
S'DECREASE'
S'x'
S'y'
tp526
sg27
g28
sg466
I4
sg467
(I4
I1
I2
I6
tp527
sg22
I1
sg20
F3.9552454267977737
sg23
F9.9595979073783383
sVY
I3
sVX
I5
sg469
g502
sg35
g36
sg37
g38
sg21
S'6'
sg19
S'space'
p528
sg34
g11
sg471
I6
sg472
g511
sg474
I6
sS'block.thisIndex'
p529
I15
sg476
g492
sg478
Vdecrease
p530
sg479
g512
sa(dp531
S'block.thisTrialN'
p532
I6
sS'block.thisRepN'
p533
I0
sg29
g33
sS'block.thisN'
p534
I6
sg464
(S'INCREASE'
S'DIVIDE'
S'TRIPLE'
S'HALF'
S'x'
S'y'
tp535
sg27
g28
sg466
I4
sg467
(I2
I6
I2
I3
tp536
sg22
I1
sg20
F3.0285688188450877
sg23
F5.381131994916359
sVY
I3
sVX
I4
sg469
g492
sg35
g36
sg37
g38
sg21
S'3'
sg19
S'space'
p537
sg34
g11
sg471
I3
sg472
VDIVIDE
p538
sg474
I3
sS'block.thisIndex'
p539
I12
sg476
g489
sg478
g487
sg479
VUBUUxy
p540
sa(dp541
S'block.thisTrialN'
p542
I7
sS'block.thisRepN'
p543
I0
sg29
g33
sS'block.thisN'
p544
I7
sg464
(S'TRIPLE'
S'DECREASE'
S'HALF'
S'SUBTRACT'
S'x'
S'y'
tp545
sg27
g28
sg466
I4
sg467
(I4
I2
I1
I3
tp546
sg22
I1
sg20
F4.451173790905159
sg23
F6.5987346764595713
sVY
I5
sVX
I9
sg469
g487
sg35
g36
sg37
g38
sg21
S'3'
sg19
S'space'
p547
sg34
g11
sg471
I3
sg472
g530
sg474
I3
sS'block.thisIndex'
p548
I17
sg476
g492
sg478
g502
sg479
VUUUBxy
p549
sa(dp550
S'block.thisTrialN'
p551
I8
sS'block.thisRepN'
p552
I0
sg29
g33
sS'block.thisN'
p553
I8
sg464
(S'DIVIDE'
S'TRIPLE'
S'HALF'
S'x'
S'y'
tp554
sg27
g28
sg466
I3
sg467
(I4
I12
I4
tp555
sg22
I1
sg20
F3.48743583005853
sg23
F5.043021910067182
sVY
I3
sVX
I8
sg469
g487
sg35
g36
sg37
g38
sg21
S'4'
sg19
S'space'
p556
sg34
g11
sg471
I4
sg472
g492
sg474
I4
sS'block.thisIndex'
p557
I4
sg476
g538
sg478
I0
sg479
VBUUxy
p558
sa(dp559
S'block.thisTrialN'
p560
I9
sS'block.thisRepN'
p561
I0
sg29
g33
sS'block.thisN'
p562
I9
sg464
(S'DECREASE'
S'TRIPLE'
S'DIVIDE'
S'x'
S'y'
tp563
sg27
g28
sg466
I3
sg467
(I2
I6
I5
tp564
sg22
I1
sg20
F2.9961283675802406
sg23
F5.8125994111469481
sVY
I4
sVX
I8
sg469
g538
sg35
g36
sg37
g38
sg21
S'5'
sg19
S'space'
p565
sg34
g11
sg471
I5
sg472
g492
sg474
I5
sS'block.thisIndex'
p566
I8
sg476
g530
sg478
I0
sg479
VUUBxy
p567
sa(dp568
S'block.thisTrialN'
p569
I10
sS'block.thisRepN'
p570
I0
sg29
g33
sS'block.thisN'
p571
I10
sg464
(S'DECREASE'
S'TRIPLE'
S'HALF'
S'ADD'
S'x'
S'y'
tp572
sg27
g28
sg466
I4
sg467
(I6
I3
I9
I8
tp573
sg22
I1
sg20
F4.6755909375206102
sg23
F4.1970105524233077
sVY
I2
sVX
I4
sg469
g487
sg35
g36
sg37
g38
sg21
S'8'
sg19
S'space'
p574
sg34
g11
sg471
I8
sg472
g492
sg474
I8
sS'block.thisIndex'
p575
I16
sg476
g530
sg478
g477
sg479
g549
sa(dp576
S'block.thisTrialN'
p577
I11
sS'block.thisRepN'
p578
I0
sg29
g33
sS'block.thisN'
p579
I11
sg464
(S'TIMES'
S'THIRD'
S'DOUBLE'
S'x'
S'y'
tp580
sg27
g28
sg466
I3
sg467
(I6
I2
I4
tp581
sg22
I1
sg20
F3.0763607145054266
sg23
F3.5555517837346997
sVY
I2
sVX
I3
sg469
g511
sg35
g36
sg37
g38
sg21
S'4'
sg19
S'space'
p582
sg34
g11
sg471
I4
sg472
g473
sg474
I4
sS'block.thisIndex'
p583
I5
sg476
g491
sg478
I0
sg479
g558
sa(dp584
S'block.thisTrialN'
p585
I12
sS'block.thisRepN'
p586
I0
sg29
g33
sS'block.thisN'
p587
I12
sg464
(S'DIVIDE'
S'DOUBLE'
S'INCREASE'
S'THIRD'
S'x'
S'y'
tp588
sg27
g28
sg466
I4
sg467
(I2
I3
I6
I2
tp589
sg22
I1
sg20
F3.6400557699962519
sg23
F6.8498220966721419
sVY
I3
sVX
I6
sg469
g489
sg35
g36
sg37
g38
sg21
S'2'
sg19
S'space'
p590
sg34
g11
sg471
I2
sg472
g511
sg474
I2
sS'block.thisIndex'
p591
I10
sg476
g538
sg478
g473
sg479
g493
sa(dp592
S'block.thisTrialN'
p593
I13
sS'block.thisRepN'
p594
I0
sg29
g33
sS'block.thisN'
p595
I13
sg464
(S'THIRD'
S'INCREASE'
S'SUBTRACT'
S'x'
S'y'
tp596
sg27
g28
sg466
I3
sg467
(I2
I3
I1
tp597
sg22
I1
sg20
F2.5024604096543044
sg23
F2.9210495648148935
sVY
I6
sVX
I8
sg469
g502
sg35
g36
sg37
g38
sg21
S'1'
sg19
S'space'
p598
sg34
g11
sg471
I1
sg472
g489
sg474
I1
sS'block.thisIndex'
p599
I9
sg476
g473
sg478
I0
sg479
g567
sa(dp600
S'block.thisTrialN'
p601
I14
sS'block.thisRepN'
p602
I0
sg29
g33
sS'block.thisN'
p603
I14
sg464
(S'INCREASE'
S'SUBTRACT'
S'THIRD'
S'x'
S'y'
tp604
sg27
g28
sg466
I3
sg467
(I3
I1
I2
tp605
sg22
I1
sg20
F3.6326558180735447
sg23
F8.292689883382991
sVY
I2
sVX
I9
sg469
g473
sg35
g36
sg37
g38
sg21
S'2'
sg19
S'space'
p606
sg34
g11
sg471
I2
sg472
g502
sg474
I2
sS'block.thisIndex'
p607
I7
sg476
g489
sg478
I0
sg479
g521
sa(dp608
S'block.thisTrialN'
p609
I15
sS'block.thisRepN'
p610
I0
sg29
g33
sS'block.thisN'
p611
I15
sg464
(S'THIRD'
S'TIMES'
S'HALF'
S'INCREASE'
S'x'
S'y'
tp612
sg27
g28
sg466
I4
sg467
(I8
I4
I12
I4
tp613
sg22
I1
sg20
F2.9456354632275179
sg23
F8.0571092907630373
sVY
I3
sVX
I7
sg469
g487
sg35
g36
sg37
g38
sg21
S'4'
sg19
S'space'
p614
sg34
g11
sg471
I4
sg472
g491
sg474
I4
sS'block.thisIndex'
p615
I13
sg476
g473
sg478
g489
sg479
g540
sa(dp616
S'block.thisTrialN'
p617
I16
sS'block.thisRepN'
p618
I0
sg29
g33
sS'block.thisN'
p619
I16
sg464
(S'DOUBLE'
S'TIMES'
S'x'
S'y'
tp620
sg27
g28
sg466
I2
sg467
(I4
I8
tp621
sg22
I1
sg20
F2.4822763364936691
sg23
F2.4852090202039108
sVY
I2
sVX
I2
sg469
I0
sg35
g36
sg37
g38
sg21
S'8'
sg19
S'space'
p622
sg34
g11
sg471
I8
sg472
g491
sg474
I8
sS'block.thisIndex'
p623
I3
sg476
g511
sg478
I0
sg479
VUBxy
p624
sa(dp625
S'block.thisTrialN'
p626
I17
sS'block.thisRepN'
p627
I0
sg29
g33
sS'block.thisN'
p628
I17
sg464
(S'DOUBLE'
S'ADD'
S'x'
S'y'
tp629
sg27
g28
sg466
I2
sg467
(I4
I8
tp630
sg22
I1
sg20
F1.4765128080907743
sg23
F2.5356630787428003
sVY
I2
sVX
I2
sg469
I0
sg35
g36
sg37
g38
sg21
S'8'
sg19
S'space'
p631
sg34
g11
sg471
I8
sg472
g477
sg474
I8
sS'block.thisIndex'
p632
I2
sg476
g511
sg478
I0
sg479
g624
sa(dp633
S'block.thisTrialN'
p634
I0
sS'block.thisRepN'
p635
I0
sg29
g33
sS'block.thisN'
p636
I0
sVRule
p637
(S'ADD'
S'TRIPLE'
S'DOUBLE'
S'DECREASE'
S'x'
S'y'
tp638
sg27
g28
sVLength
p639
I4
sVIntermediate
p640
(I1
I2
I6
I8
tp641
sg22
I1
sg20
F3.5220012521604076
sg23
F7.4781905271520372
sVY
I2
sVX
I2
sVOperatorc
p642
Vdouble
p643
sg35
g36
sg37
g38
sg21
S'8'
sg19
S'space'
p644
sg34
g11
sVResult
p645
I8
sVOperatora
p646
Vtriple
p647
sVCorrectResponse
p648
I8
sS'block.thisIndex'
p649
I11
sVOperatorb
p650
VADD
p651
sVOperatord
p652
Vdecrease
p653
sVStructure
p654
VBUUUxy
p655
sa(dp656
S'block.thisTrialN'
p657
I1
sS'block.thisRepN'
p658
I0
sg29
g33
sS'block.thisN'
p659
I1
sg637
(S'ADD'
S'TRIPLE'
S'HALF'
S'x'
S'y'
tp660
sg27
g28
sg639
I3
sg640
(I2
I6
I8
tp661
sg22
I1
sg20
F2.5954992753977422
sg23
F2.9480939480708912
sVY
I2
sVX
I4
sg642
Vhalf
p662
sg35
g36
sg37
g38
sg21
S'8'
sg19
S'space'
p663
sg34
g11
sg645
I8
sg646
g647
sg648
I8
sS'block.thisIndex'
p664
I5
sg650
g651
sg652
I0
sg654
VBUUxy
p665
sa(dp666
S'block.thisTrialN'
p667
I2
sS'block.thisRepN'
p668
I0
sg29
g33
sS'block.thisN'
p669
I2
sg637
(S'DECREASE'
S'TRIPLE'
S'SUBTRACT'
S'DOUBLE'
S'x'
S'y'
tp670
sg27
g28
sg639
I4
sg640
(I6
I3
I9
I8
tp671
sg22
I0
sg20
F3.7215406318427995
sg23
F10.850308894179761
sVY
I3
sVX
I3
sg642
VSUBTRACT
p672
sg35
g36
sg37
g38
sg21
S'5'
sg19
S'space'
p673
sg34
g11
sg645
I8
sg646
g647
sg648
I8
sS'block.thisIndex'
p674
I15
sg650
g653
sg652
g643
sg654
VUUBUxy
p675
sa(dp676
S'block.thisTrialN'
p677
I3
sS'block.thisRepN'
p678
I0
sg29
g33
sS'block.thisN'
p679
I3
sg637
(S'HALF'
S'INCREASE'
S'TIMES'
S'x'
S'y'
tp680
sg27
g28
sg639
I3
sg640
(I9
I10
I5
tp681
sg22
I1
sg20
F2.3693806122755632
sg23
F4.3287132482801098
sVY
I3
sVX
I3
sg642
VTIMES
p682
sg35
g36
sg37
g38
sg21
S'5'
sg19
S'space'
p683
sg34
g11
sg645
I5
sg646
Vincrease
p684
sg648
I5
sS'block.thisIndex'
p685
I9
sg650
g662
sg652
I0
sg654
VUUBxy
p686
sa(dp687
S'block.thisTrialN'
p688
I4
sS'block.thisRepN'
p689
I0
sg29
g33
sS'block.thisN'
p690
I4
sg637
(S'DECREASE'
S'SUBTRACT'
S'DOUBLE'
S'THIRD'
S'x'
S'y'
tp691
sg27
g28
sg639
I4
sg640
(I3
I6
I4
I3
tp692
sg22
I0
sg20
F4.4637885304109659
sg23
F7.7963499636389315
sVY
I2
sVX
I9
sg642
g643
sg35
g36
sg37
g38
sg21
S'5'
sg19
S'space'
p693
sg34
g11
sg645
I3
sg646
g672
sg648
I3
sS'block.thisIndex'
p694
I13
sg650
g653
sg652
Vthird
p695
sg654
VUBUUxy
p696
sa(dp697
S'block.thisTrialN'
p698
I5
sS'block.thisRepN'
p699
I0
sg29
g33
sS'block.thisN'
p700
I5
sg637
(S'ADD'
S'DECREASE'
S'THIRD'
S'DOUBLE'
S'x'
S'y'
tp701
sg27
g28
sg639
I4
sg640
(I18
I6
I5
I9
tp702
sg22
I1
sg20
F5.7203462106408551
sg23
F6.321166312234709
sVY
I4
sVX
I9
sg642
g695
sg35
g36
sg37
g38
sg21
S'9'
sg19
S'space'
p703
sg34
g11
sg645
I9
sg646
g653
sg648
I9
sS'block.thisIndex'
p704
I10
sg650
g651
sg652
g643
sg654
g655
sa(dp705
S'block.thisTrialN'
p706
I6
sS'block.thisRepN'
p707
I0
sg29
g33
sS'block.thisN'
p708
I6
sg637
(S'INCREASE'
S'HALF'
S'THIRD'
S'TIMES'
S'x'
S'y'
tp709
sg27
g28
sg639
I4
sg640
(I12
I4
I2
I3
tp710
sg22
I1
sg20
F3.1728628067357931
sg23
F7.9548657177074347
sVY
I4
sVX
I3
sg642
g695
sg35
g36
sg37
g38
sg21
S'3'
sg19
S'space'
p711
sg34
g11
sg645
I3
sg646
g662
sg648
I3
sS'block.thisIndex'
p712
I16
sg650
g684
sg652
g682
sg654
VUUUBxy
p713
sa(dp714
S'block.thisTrialN'
p715
I7
sS'block.thisRepN'
p716
I0
sg29
g33
sS'block.thisN'
p717
I7
sg637
(S'DIVIDE'
S'DECREASE'
S'x'
S'y'
tp718
sg27
g28
sg639
I2
sg640
(I8
I2
tp719
sg22
I1
sg20
F1.5393348827492446
sg23
F2.3253924564342014
sVY
I4
sVX
I9
sg642
I0
sg35
g36
sg37
g38
sg21
S'2'
sg19
S'space'
p720
sg34
g11
sg645
I2
sg646
g653
sg648
I2
sS'block.thisIndex'
p721
I1
sg650
VDIVIDE
p722
sg652
I0
sg654
VBUxy
p723
sa(dp724
S'block.thisTrialN'
p725
I8
sS'block.thisRepN'
p726
I0
sg29
g33
sS'block.thisN'
p727
I8
sg637
(S'ADD'
S'DECREASE'
S'x'
S'y'
tp728
sg27
g28
sg639
I2
sg640
(I2
I7
tp729
sg22
I1
sg20
F1.172998942056438
sg23
F2.8572783925337717
sVY
I5
sVX
I3
sg642
I0
sg35
g36
sg37
g38
sg21
S'7'
sg19
S'space'
p730
sg34
g11
sg645
I7
sg646
g653
sg648
I7
sS'block.thisIndex'
p731
I0
sg650
g651
sg652
I0
sg654
g723
sa(dp732
S'block.thisTrialN'
p733
I9
sS'block.thisRepN'
p734
I0
sg29
g33
sS'block.thisN'
p735
I9
sg637
(S'INCREASE'
S'ADD'
S'HALF'
S'x'
S'y'
tp736
sg27
g28
sg639
I3
sg640
(I1
I4
I5
tp737
sg22
I1
sg20
F2.0497936797619332
sg23
F3.0953584155940916
sVY
I3
sVX
I2
sg642
g662
sg35
g36
sg37
g38
sg21
S'5'
sg19
S'space'
p738
sg34
g11
sg645
I5
sg646
g651
sg648
I5
sS'block.thisIndex'
p739
I7
sg650
g684
sg652
I0
sg654
VUBUxy
p740
sa(dp741
S'block.thisTrialN'
p742
I10
sS'block.thisRepN'
p743
I0
sg29
g33
sS'block.thisN'
p744
I10
sg637
(S'THIRD'
S'HALF'
S'INCREASE'
S'SUBTRACT'
S'x'
S'y'
tp745
sg27
g28
sg639
I4
sg640
(I5
I6
I3
I1
tp746
sg22
I1
sg20
F4.0354060314421076
sg23
F8.1321488977409899
sVY
I2
sVX
I7
sg642
g684
sg35
g36
sg37
g38
sg21
S'1'
sg19
S'space'
p747
sg34
g11
sg645
I1
sg646
g662
sg648
I1
sS'block.thisIndex'
p748
I17
sg650
g695
sg652
g672
sg654
g713
sa(dp749
S'block.thisTrialN'
p750
I11
sS'block.thisRepN'
p751
I0
sg29
g33
sS'block.thisN'
p752
I11
sg637
(S'DECREASE'
S'ADD'
S'THIRD'
S'HALF'
S'x'
S'y'
tp753
sg27
g28
sg639
I4
sg640
(I3
I1
I7
I6
tp754
sg22
I1
sg20
F3.0735939129081089
sg23
F6.1023905571782961
sVY
I6
sVX
I6
sg642
g695
sg35
g36
sg37
g38
sg21
S'6'
sg19
S'space'
p755
sg34
g11
sg645
I6
sg646
g651
sg648
I6
sS'block.thisIndex'
p756
I12
sg650
g653
sg652
g662
sg654
g696
sa(dp757
S'block.thisTrialN'
p758
I12
sS'block.thisRepN'
p759
I0
sg29
g33
sS'block.thisN'
p760
I12
sg637
(S'DOUBLE'
S'SUBTRACT'
S'INCREASE'
S'x'
S'y'
tp761
sg27
g28
sg639
I3
sg640
(I4
I1
I2
tp762
sg22
I1
sg20
F2.3691195404389873
sg23
F3.3156645555864088
sVY
I3
sVX
I3
sg642
g684
sg35
g36
sg37
g38
sg21
S'2'
sg19
S'space'
p763
sg34
g11
sg645
I2
sg646
g672
sg648
I2
sS'block.thisIndex'
p764
I6
sg650
g643
sg652
I0
sg654
g740
sa(dp765
S'block.thisTrialN'
p766
I13
sS'block.thisRepN'
p767
I0
sg29
g33
sS'block.thisN'
p768
I13
sg637
(S'DECREASE'
S'TIMES'
S'x'
S'y'
tp769
sg27
g28
sg639
I2
sg640
(I9
I8
tp770
sg22
I1
sg20
F1.2875016929465346
sg23
F2.9440063889196608
sVY
I3
sVX
I3
sg642
I0
sg35
g36
sg37
g38
sg21
S'8'
sg19
S'space'
p771
sg34
g11
sg645
I8
sg646
g682
sg648
I8
sS'block.thisIndex'
p772
I2
sg650
g653
sg652
I0
sg654
VUBxy
p773
sa(dp774
S'block.thisTrialN'
p775
I14
sS'block.thisRepN'
p776
I0
sg29
g33
sS'block.thisN'
p777
I14
sg637
(S'ADD'
S'DOUBLE'
S'DECREASE'
S'x'
S'y'
tp778
sg27
g28
sg639
I3
sg640
(I1
I2
I7
tp779
sg22
I1
sg20
F2.9038041247113142
sg23
F6.9512082622095477
sVY
I5
sVX
I2
sg642
g653
sg35
g36
sg37
g38
sg21
S'7'
sg19
S'space'
p780
sg34
g11
sg645
I7
sg646
g643
sg648
I7
sS'block.thisIndex'
p781
I4
sg650
g651
sg652
I0
sg654
g665
sa(dp782
S'block.thisTrialN'
p783
I15
sS'block.thisRepN'
p784
I0
sg29
g33
sS'block.thisN'
p785
I15
sg637
(S'DOUBLE'
S'THIRD'
S'ADD'
S'x'
S'y'
tp786
sg27
g28
sg639
I3
sg640
(I9
I3
I6
tp787
sg22
I1
sg20
F3.0280673229426611
sg23
F4.248667081235908
sVY
I4
sVX
I5
sg642
g651
sg35
g36
sg37
g38
sg21
S'6'
sg19
S'space'
p788
sg34
g11
sg645
I6
sg646
g695
sg648
I6
sS'block.thisIndex'
p789
I8
sg650
g643
sg652
I0
sg654
g686
sa(dp790
S'block.thisTrialN'
p791
I16
sS'block.thisRepN'
p792
I0
sg29
g33
sS'block.thisN'
p793
I16
sg637
(S'DECREASE'
S'DOUBLE'
S'TIMES'
S'THIRD'
S'x'
S'y'
tp794
sg27
g28
sg639
I4
sg640
(I1
I3
I6
I5
tp795
sg22
I0
sg20
F4.4356711628497578
sg23
F5.7185712021018844
sVY
I3
sVX
I3
sg642
g682
sg35
g36
sg37
g38
sg21
S'6'
sg19
S'space'
p796
sg34
g11
sg645
I5
sg646
g643
sg648
I5
sS'block.thisIndex'
p797
I14
sg650
g653
sg652
g695
sg654
g675
sa(dp798
S'block.thisTrialN'
p799
I17
sS'block.thisRepN'
p800
I0
sg29
g33
sS'block.thisN'
p801
I17
sg637
(S'HALF'
S'ADD'
S'x'
S'y'
tp802
sg27
g28
sg639
I2
sg640
(I12
I6
tp803
sg22
I1
sg20
F1.6051893803232815
sg23
F2.8233278541010804
sVY
I8
sVX
I4
sg642
I0
sg35
g36
sg37
g38
sg21
S'6'
sg19
S'space'
p804
sg34
g11
sg645
I6
sg646
g651
sg648
I6
sS'block.thisIndex'
p805
I3
sg650
g662
sg652
I0
sg654
g773
sa(dp806
S'block.thisTrialN'
p807
I0
sS'block.thisRepN'
p808
I0
sg29
g33
sS'block.thisN'
p809
I0
sVRule
p810
(S'DIVIDE'
S'DOUBLE'
S'INCREASE'
S'TRIPLE'
S'x'
S'y'
tp811
sg27
g28
sVLength
p812
I4
sVIntermediate
p813
(I9
I10
I20
I5
tp814
sg22
I1
sg20
F3.8691396632930264
sg23
F11.795064202335197
sVY
I4
sVX
I3
sVOperatorc
p815
Vincrease
p816
sg35
g36
sg37
g38
sg21
S'5'
sg19
S'space'
p817
sg34
g11
sVResult
p818
I5
sVOperatora
p819
Vdouble
p820
sVCorrectResponse
p821
I5
sS'block.thisIndex'
p822
I10
sVOperatorb
p823
VDIVIDE
p824
sVOperatord
p825
Vtriple
p826
sVStructure
p827
VBUUUxy
p828
sa(dp829
S'block.thisTrialN'
p830
I1
sS'block.thisRepN'
p831
I0
sg29
g33
sS'block.thisN'
p832
I1
sg810
(S'HALF'
S'TIMES'
S'DECREASE'
S'x'
S'y'
tp833
sg27
g28
sg812
I3
sg813
(I8
I16
I8
tp834
sg22
I1
sg20
F2.6775902718945872
sg23
F4.2112606655573472
sVY
I2
sVX
I9
sg815
Vdecrease
p835
sg35
g36
sg37
g38
sg21
S'8'
sg19
S'space'
p836
sg34
g11
sg818
I8
sg819
VTIMES
p837
sg821
I8
sS'block.thisIndex'
p838
I6
sg823
Vhalf
p839
sg825
I0
sg827
VUBUxy
p840
sa(dp841
S'block.thisTrialN'
p842
I2
sS'block.thisRepN'
p843
I0
sg29
g33
sS'block.thisN'
p844
I2
sg810
(S'DECREASE'
S'THIRD'
S'DOUBLE'
S'ADD'
S'x'
S'y'
tp845
sg27
g28
sg812
I4
sg813
(I9
I18
I6
I5
tp846
sg22
I1
sg20
F4.8528905657294672
sg23
F8.2466201520292088
sVY
I4
sVX
I5
sg815
g820
sg35
g36
sg37
g38
sg21
S'5'
sg19
S'space'
p847
sg34
g11
sg818
I5
sg819
Vthird
p848
sg821
I5
sS'block.thisIndex'
p849
I16
sg823
g835
sg825
VADD
p850
sg827
VUUUBxy
p851
sa(dp852
S'block.thisTrialN'
p853
I3
sS'block.thisRepN'
p854
I0
sg29
g33
sS'block.thisN'
p855
I3
sg810
(S'ADD'
S'HALF'
S'x'
S'y'
tp856
sg27
g28
sg812
I2
sg813
(I2
I7
tp857
sg22
I1
sg20
F1.5855774954543449
sg23
F2.4355392270663287
sVY
I5
sVX
I4
sg815
I0
sg35
g36
sg37
g38
sg21
S'7'
sg19
S'space'
p858
sg34
g11
sg818
I7
sg819
g839
sg821
I7
sS'block.thisIndex'
p859
I0
sg823
g850
sg825
I0
sg827
VBUxy
p860
sa(dp861
S'block.thisTrialN'
p862
I4
sS'block.thisRepN'
p863
I0
sg29
g33
sS'block.thisN'
p864
I4
sg810
(S'INCREASE'
S'TIMES'
S'TRIPLE'
S'HALF'
S'x'
S'y'
tp865
sg27
g28
sg812
I4
sg813
(I1
I3
I6
I7
tp866
sg22
I1
sg20
F2.1482426120492164
sg23
F4.3235803518618923
sVY
I2
sVX
I2
sg815
g826
sg35
g36
sg37
g38
sg21
S'7'
sg19
S'space'
p867
sg34
g11
sg818
I7
sg819
g837
sg821
I7
sS'block.thisIndex'
p868
I13
sg823
g816
sg825
g839
sg827
VUBUUxy
p869
sa(dp870
S'block.thisTrialN'
p871
I5
sS'block.thisRepN'
p872
I0
sg29
g33
sS'block.thisN'
p873
I5
sg810
(S'DIVIDE'
S'TRIPLE'
S'DECREASE'
S'x'
S'y'
tp874
sg27
g28
sg812
I3
sg813
(I6
I18
I9
tp875
sg22
I1
sg20
F3.3934412173694
sg23
F5.2371939186414238
sVY
I2
sVX
I7
sg815
g835
sg35
g36
sg37
g38
sg21
S'9'
sg19
S'space'
p876
sg34
g11
sg818
I9
sg819
g826
sg821
I9
sS'block.thisIndex'
p877
I4
sg823
g824
sg825
I0
sg827
VBUUxy
p878
sa(dp879
S'block.thisTrialN'
p880
I6
sS'block.thisRepN'
p881
I0
sg29
g33
sS'block.thisN'
p882
I6
sg810
(S'SUBTRACT'
S'INCREASE'
S'HALF'
S'x'
S'y'
tp883
sg27
g28
sg812
I3
sg813
(I4
I5
I3
tp884
sg22
I1
sg20
F2.9631076788355131
sg23
F3.1736278242315166
sVY
I2
sVX
I8
sg815
g839
sg35
g36
sg37
g38
sg21
S'3'
sg19
S'space'
p885
sg34
g11
sg818
I3
sg819
g816
sg821
I3
sS'block.thisIndex'
p886
I5
sg823
VSUBTRACT
p887
sg825
I0
sg827
g878
sa(dp888
S'block.thisTrialN'
p889
I7
sS'block.thisRepN'
p890
I0
sg29
g33
sS'block.thisN'
p891
I7
sg810
(S'TIMES'
S'HALF'
S'INCREASE'
S'THIRD'
S'x'
S'y'
tp892
sg27
g28
sg812
I4
sg813
(I1
I2
I1
I9
tp893
sg22
I0
sg20
F6.2466831452038605
sg23
F9.0923809367232025
sVY
I9
sVX
I3
sg815
g816
sg35
g36
sg37
g38
sg21
S'6'
sg19
S'space'
p894
sg34
g11
sg818
I9
sg819
g839
sg821
I9
sS'block.thisIndex'
p895
I11
sg823
g837
sg825
g848
sg827
g828
sa(dp896
S'block.thisTrialN'
p897
I8
sS'block.thisRepN'
p898
I0
sg29
g33
sS'block.thisN'
p899
I8
sg810
(S'TRIPLE'
S'HALF'
S'ADD'
S'x'
S'y'
tp900
sg27
g28
sg812
I3
sg813
(I6
I3
I9
tp901
sg22
I1
sg20
F3.4732770570553839
sg23
F3.8773788246908225
sVY
I3
sVX
I3
sg815
g850
sg35
g36
sg37
g38
sg21
S'9'
sg19
S'space'
p902
sg34
g11
sg818
I9
sg819
g839
sg821
I9
sS'block.thisIndex'
p903
I8
sg823
g826
sg825
I0
sg827
VUUBxy
p904
sa(dp905
S'block.thisTrialN'
p906
I9
sS'block.thisRepN'
p907
I0
sg29
g33
sS'block.thisN'
p908
I9
sg810
(S'INCREASE'
S'DIVIDE'
S'x'
S'y'
tp909
sg27
g28
sg812
I2
sg813
(I4
I5
tp910
sg22
I1
sg20
F2.1311879013956059
sg23
F1.462523066875292
sVY
I2
sVX
I8
sg815
I0
sg35
g36
sg37
g38
sg21
S'5'
sg19
S'space'
p911
sg34
g11
sg818
I5
sg819
g824
sg821
I5
sS'block.thisIndex'
p912
I3
sg823
g816
sg825
I0
sg827
VUBxy
p913
sa(dp914
S'block.thisTrialN'
p915
I10
sS'block.thisRepN'
p916
I0
sg29
g33
sS'block.thisN'
p917
I10
sg810
(S'TRIPLE'
S'INCREASE'
S'DIVIDE'
S'DOUBLE'
S'x'
S'y'
tp918
sg27
g28
sg812
I4
sg813
(I16
I2
I3
I9
tp919
sg22
I1
sg20
F4.3386304786836263
sg23
F6.8863375085056759
sVY
I8
sVX
I8
sg815
g824
sg35
g36
sg37
g38
sg21
S'9'
sg19
S'space'
p920
sg34
g11
sg818
I9
sg819
g816
sg821
I9
sS'block.thisIndex'
p921
I15
sg823
g826
sg825
g820
sg827
VUUBUxy
p922
sa(dp923
S'block.thisTrialN'
p924
I11
sS'block.thisRepN'
p925
I0
sg29
g33
sS'block.thisN'
p926
I11
sg810
(S'INCREASE'
S'DIVIDE'
S'TRIPLE'
S'x'
S'y'
tp927
sg27
g28
sg812
I3
sg813
(I6
I2
I3
tp928
sg22
I1
sg20
F1.9238202159758657
sg23
F4.2262859450711403
sVY
I3
sVX
I2
sg815
g826
sg35
g36
sg37
g38
sg21
S'3'
sg19
S'space'
p929
sg34
g11
sg818
I3
sg819
g824
sg821
I3
sS'block.thisIndex'
p930
I7
sg823
g816
sg825
I0
sg827
g840
sa(dp931
S'block.thisTrialN'
p932
I12
sS'block.thisRepN'
p933
I0
sg29
g33
sS'block.thisN'
p934
I12
sg810
(S'TRIPLE'
S'INCREASE'
S'SUBTRACT'
S'x'
S'y'
tp935
sg27
g28
sg812
I3
sg813
(I1
I2
I6
tp936
sg22
I1
sg20
F4.1115319212840404
sg23
F3.4451754378387704
sVY
I2
sVX
I3
sg815
g887
sg35
g36
sg37
g38
sg21
S'6'
sg19
S'space'
p937
sg34
g11
sg818
I6
sg819
g816
sg821
I6
sS'block.thisIndex'
p938
I9
sg823
g826
sg825
I0
sg827
g904
sa(dp939
S'block.thisTrialN'
p940
I13
sS'block.thisRepN'
p941
I0
sg29
g33
sS'block.thisN'
p942
I13
sg810
(S'THIRD'
S'INCREASE'
S'HALF'
S'TIMES'
S'x'
S'y'
tp943
sg27
g28
sg812
I4
sg813
(I28
I14
I15
I5
tp944
sg22
I1
sg20
F4.2463324830459896
sg23
F8.1485155825794209
sVY
I4
sVX
I7
sg815
g839
sg35
g36
sg37
g38
sg21
S'5'
sg19
S'space'
p945
sg34
g11
sg818
I5
sg819
g816
sg821
I5
sS'block.thisIndex'
p946
I17
sg823
g848
sg825
g837
sg827
g851
sa(dp947
S'block.thisTrialN'
p948
I14
sS'block.thisRepN'
p949
I0
sg29
g33
sS'block.thisN'
p950
I14
sg810
(S'TRIPLE'
S'DOUBLE'
S'SUBTRACT'
S'INCREASE'
S'x'
S'y'
tp951
sg27
g28
sg812
I4
sg813
(I5
I1
I2
I6
tp952
sg22
I1
sg20
F4.790102787403157
sg23
F3.9091095525363926
sVY
I4
sVX
I4
sg815
g887
sg35
g36
sg37
g38
sg21
S'6'
sg19
S'space'
p953
sg34
g11
sg818
I6
sg819
g820
sg821
I6
sS'block.thisIndex'
p954
I14
sg823
g826
sg825
g816
sg827
g922
sa(dp955
S'block.thisTrialN'
p956
I15
sS'block.thisRepN'
p957
I0
sg29
g33
sS'block.thisN'
p958
I15
sg810
(S'DOUBLE'
S'DIVIDE'
S'x'
S'y'
tp959
sg27
g28
sg812
I2
sg813
(I1
I2
tp960
sg22
I1
sg20
F1.5431375725893304
sg23
F2.1452770318719558
sVY
I8
sVX
I8
sg815
I0
sg35
g36
sg37
g38
sg21
S'2'
sg19
S'space'
p961
sg34
g11
sg818
I2
sg819
g824
sg821
I2
sS'block.thisIndex'
p962
I2
sg823
g820
sg825
I0
sg827
g913
sa(dp963
S'block.thisTrialN'
p964
I16
sS'block.thisRepN'
p965
I0
sg29
g33
sS'block.thisN'
p966
I16
sg810
(S'SUBTRACT'
S'TRIPLE'
S'x'
S'y'
tp967
sg27
g28
sg812
I2
sg813
(I12
I9
tp968
sg22
I1
sg20
F1.3186717812495772
sg23
F3.2050428861111868
sVY
I3
sVX
I4
sg815
I0
sg35
g36
sg37
g38
sg21
S'9'
sg19
S'space'
p969
sg34
g11
sg818
I9
sg819
g826
sg821
I9
sS'block.thisIndex'
p970
I1
sg823
g887
sg825
I0
sg827
g860
sa(dp971
S'block.thisTrialN'
p972
I17
sS'block.thisRepN'
p973
I0
sg29
g33
sS'block.thisN'
p974
I17
sg810
(S'HALF'
S'SUBTRACT'
S'DECREASE'
S'TRIPLE'
S'x'
S'y'
tp975
sg27
g28
sg812
I4
sg813
(I15
I14
I10
I5
tp976
sg22
I1
sg20
F2.6119499512133189
sg23
F7.3810504537250381
sVY
I4
sVX
I5
sg815
g835
sg35
g36
sg37
g38
sg21
S'5'
sg19
S'space'
p977
sg34
g11
sg818
I5
sg819
g887
sg821
I5
sS'block.thisIndex'
p978
I12
sg823
g839
sg825
g826
sg827
g869
sa(dp979
S'block.thisTrialN'
p980
I0
sS'block.thisRepN'
p981
I0
sg29
g33
sS'block.thisN'
p982
I0
sVRule
p983
(S'TRIPLE'
S'SUBTRACT'
S'INCREASE'
S'HALF'
S'x'
S'y'
tp984
sg27
g28
sVLength
p985
I4
sVIntermediate
p986
(I3
I4
I1
I3
tp987
sg22
I0
sg20
F3.3462453074462246
sg23
F8.4331248374946881
sVY
I3
sVX
I6
sVOperatorc
p988
Vincrease
p989
sg35
g36
sg37
g38
sg21
S'9'
sg19
S'space'
p990
sg34
g11
sVResult
p991
I3
sVOperatora
p992
VSUBTRACT
p993
sVCorrectResponse
p994
I3
sS'block.thisIndex'
p995
I13
sVOperatorb
p996
Vtriple
p997
sVOperatord
p998
Vhalf
p999
sVStructure
p1000
VUBUUxy
p1001
sa(dp1002
S'block.thisTrialN'
p1003
I1
sS'block.thisRepN'
p1004
I0
sg29
g33
sS'block.thisN'
p1005
I1
sg983
(S'INCREASE'
S'DIVIDE'
S'HALF'
S'x'
S'y'
tp1006
sg27
g28
sg985
I3
sg986
(I2
I1
I2
tp1007
sg22
I1
sg20
F2.5321876035595778
sg23
F4.6631126833090093
sVY
I2
sVX
I4
sg988
g999
sg35
g36
sg37
g38
sg21
S'2'
sg19
S'space'
p1008
sg34
g11
sg991
I2
sg992
VDIVIDE
p1009
sg994
I2
sS'block.thisIndex'
p1010
I7
sg996
g989
sg998
I0
sg1000
VUBUxy
p1011
sa(dp1012
S'block.thisTrialN'
p1013
I2
sS'block.thisRepN'
p1014
I0
sg29
g33
sS'block.thisN'
p1015
I2
sg983
(S'DECREASE'
S'DIVIDE'
S'TRIPLE'
S'DOUBLE'
S'x'
S'y'
tp1016
sg27
g28
sg985
I4
sg986
(I6
I18
I2
I1
tp1017
sg22
I0
sg20
F2.2620331897342112
sg23
F9.430509569530841
sVY
I9
sVX
I3
sg988
g997
sg35
g36
sg37
g38
sg21
S'3'
sg19
S'space'
p1018
sg34
g11
sg991
I1
sg992
g1009
sg994
I1
sS'block.thisIndex'
p1019
I12
sg996
Vdecrease
p1020
sg998
Vdouble
p1021
sg1000
g1001
sa(dp1022
S'block.thisTrialN'
p1023
I3
sS'block.thisRepN'
p1024
I0
sg29
g33
sS'block.thisN'
p1025
I3
sg983
(S'SUBTRACT'
S'DOUBLE'
S'DECREASE'
S'x'
S'y'
tp1026
sg27
g28
sg985
I3
sg986
(I8
I16
I7
tp1027
sg22
I1
sg20
F3.311721880803816
sg23
F6.5455649108043872
sVY
I9
sVX
I9
sg988
g1020
sg35
g36
sg37
g38
sg21
S'7'
sg19
S'space'
p1028
sg34
g11
sg991
I7
sg992
g1021
sg994
I7
sS'block.thisIndex'
p1029
I5
sg996
g993
sg998
I0
sg1000
VBUUxy
p1030
sa(dp1031
S'block.thisTrialN'
p1032
I4
sS'block.thisRepN'
p1033
I0
sg29
g33
sS'block.thisN'
p1034
I4
sg983
(S'INCREASE'
S'TRIPLE'
S'HALF'
S'ADD'
S'x'
S'y'
tp1035
sg27
g28
sg985
I4
sg986
(I4
I2
I6
I7
tp1036
sg22
I1
sg20
F3.9080642152694054
sg23
F4.8985620400926564
sVY
I2
sVX
I2
sg988
g999
sg35
g36
sg37
g38
sg21
S'7'
sg19
S'space'
p1037
sg34
g11
sg991
I7
sg992
g997
sg994
I7
sS'block.thisIndex'
p1038
I17
sg996
g989
sg998
VADD
p1039
sg1000
VUUUBxy
p1040
sa(dp1041
S'block.thisTrialN'
p1042
I5
sS'block.thisRepN'
p1043
I0
sg29
g33
sS'block.thisN'
p1044
I5
sg983
(S'TRIPLE'
S'SUBTRACT'
S'x'
S'y'
tp1045
sg27
g28
sg985
I2
sg986
(I2
I6
tp1046
sg22
I1
sg20
F1.5595021576737054
sg23
F1.8304474862234201
sVY
I6
sVX
I8
sg988
I0
sg35
g36
sg37
g38
sg21
S'6'
sg19
S'space'
p1047
sg34
g11
sg991
I6
sg992
g993
sg994
I6
sS'block.thisIndex'
p1048
I3
sg996
g997
sg998
I0
sg1000
VUBxy
p1049
sa(dp1050
S'block.thisTrialN'
p1051
I6
sS'block.thisRepN'
p1052
I0
sg29
g33
sS'block.thisN'
p1053
I6
sg983
(S'SUBTRACT'
S'THIRD'
S'x'
S'y'
tp1054
sg27
g28
sg985
I2
sg986
(I3
I1
tp1055
sg22
I1
sg20
F1.5565554754866753
sg23
F2.1151081855641678
sVY
I2
sVX
I9
sg988
I0
sg35
g36
sg37
g38
sg21
S'1'
sg19
S'space'
p1056
sg34
g11
sg991
I1
sg992
Vthird
p1057
sg994
I1
sS'block.thisIndex'
p1058
I0
sg996
g993
sg998
I0
sg1000
VBUxy
p1059
sa(dp1060
S'block.thisTrialN'
p1061
I7
sS'block.thisRepN'
p1062
I0
sg29
g33
sS'block.thisN'
p1063
I7
sg983
(S'ADD'
S'DECREASE'
S'HALF'
S'x'
S'y'
tp1064
sg27
g28
sg985
I3
sg986
(I3
I2
I6
tp1065
sg22
I1
sg20
F1.8443759840738494
sg23
F3.0443482670525555
sVY
I4
sVX
I6
sg988
g999
sg35
g36
sg37
g38
sg21
S'6'
sg19
S'space'
p1066
sg34
g11
sg991
I6
sg992
g1020
sg994
I6
sS'block.thisIndex'
p1067
I4
sg996
g1039
sg998
I0
sg1000
g1030
sa(dp1068
S'block.thisTrialN'
p1069
I8
sS'block.thisRepN'
p1070
I0
sg29
g33
sS'block.thisN'
p1071
I8
sg983
(S'DECREASE'
S'HALF'
S'DIVIDE'
S'x'
S'y'
tp1072
sg27
g28
sg985
I3
sg986
(I4
I2
I1
tp1073
sg22
I1
sg20
F1.8278973112755921
sg23
F2.9339803202310577
sVY
I2
sVX
I8
sg988
g1009
sg35
g36
sg37
g38
sg21
S'1'
sg19
S'space'
p1074
sg34
g11
sg991
I1
sg992
g999
sg994
I1
sS'block.thisIndex'
p1075
I8
sg996
g1020
sg998
I0
sg1000
VUUBxy
p1076
sa(dp1077
S'block.thisTrialN'
p1078
I9
sS'block.thisRepN'
p1079
I0
sg29
g33
sS'block.thisN'
p1080
I9
sg983
(S'INCREASE'
S'HALF'
S'TIMES'
S'TRIPLE'
S'x'
S'y'
tp1081
sg27
g28
sg985
I4
sg986
(I6
I12
I6
I7
tp1082
sg22
I1
sg20
F3.1738511001458392
sg23
F9.1260214085923508
sVY
I2
sVX
I2
sg988
VTIMES
p1083
sg35
g36
sg37
g38
sg21
S'7'
sg19
S'space'
p1084
sg34
g11
sg991
I7
sg992
g999
sg994
I7
sS'block.thisIndex'
p1085
I14
sg996
g989
sg998
g997
sg1000
VUUBUxy
p1086
sa(dp1087
S'block.thisTrialN'
p1088
I10
sS'block.thisRepN'
p1089
I0
sg29
g33
sS'block.thisN'
p1090
I10
sg983
(S'DECREASE'
S'HALF'
S'TRIPLE'
S'ADD'
S'x'
S'y'
tp1091
sg27
g28
sg985
I4
sg986
(I4
I12
I6
I5
tp1092
sg22
I1
sg20
F3.2633532473701052
sg23
F6.5364263464289252
sVY
I2
sVX
I2
sg988
g997
sg35
g36
sg37
g38
sg21
S'5'
sg19
S'space'
p1093
sg34
g11
sg991
I5
sg992
g999
sg994
I5
sS'block.thisIndex'
p1094
I16
sg996
g1020
sg998
g1039
sg1000
g1040
sa(dp1095
S'block.thisTrialN'
p1096
I11
sS'block.thisRepN'
p1097
I0
sg29
g33
sS'block.thisN'
p1098
I11
sg983
(S'THIRD'
S'INCREASE'
S'SUBTRACT'
S'HALF'
S'x'
S'y'
tp1099
sg27
g28
sg985
I4
sg986
(I4
I2
I3
I1
tp1100
sg22
I0
sg20
F4.5296391783922445
sg23
F6.3275625723763369
sVY
I2
sVX
I8
sg988
g993
sg35
g36
sg37
g38
sg21
S'3'
sg19
S'space'
p1101
sg34
g11
sg991
I1
sg992
g989
sg994
I1
sS'block.thisIndex'
p1102
I15
sg996
g1057
sg998
g999
sg1000
g1086
sa(dp1103
S'block.thisTrialN'
p1104
I12
sS'block.thisRepN'
p1105
I0
sg29
g33
sS'block.thisN'
p1106
I12
sg983
(S'TIMES'
S'THIRD'
S'x'
S'y'
tp1107
sg27
g28
sg985
I2
sg986
(I1
I4
tp1108
sg22
I1
sg20
F1.5906557977723423
sg23
F3.7028421484865248
sVY
I4
sVX
I3
sg988
I0
sg35
g36
sg37
g38
sg21
S'4'
sg19
S'space'
p1109
sg34
g11
sg991
I4
sg992
g1057
sg994
I4
sS'block.thisIndex'
p1110
I1
sg996
g1083
sg998
I0
sg1000
g1059
sa(dp1111
S'block.thisTrialN'
p1112
I13
sS'block.thisRepN'
p1113
I0
sg29
g33
sS'block.thisN'
p1114
I13
sg983
(S'TIMES'
S'DECREASE'
S'THIRD'
S'DOUBLE'
S'x'
S'y'
tp1115
sg27
g28
sg985
I4
sg986
(I6
I2
I1
I2
tp1116
sg22
I1
sg20
F3.4880885096790735
sg23
F6.0535694225400221
sVY
I2
sVX
I3
sg988
g1057
sg35
g36
sg37
g38
sg21
S'2'
sg19
S'space'
p1117
sg34
g11
sg991
I2
sg992
g1020
sg994
I2
sS'block.thisIndex'
p1118
I11
sg996
g1083
sg998
g1021
sg1000
VBUUUxy
p1119
sa(dp1120
S'block.thisTrialN'
p1121
I14
sS'block.thisRepN'
p1122
I0
sg29
g33
sS'block.thisN'
p1123
I14
sg983
(S'INCREASE'
S'TIMES'
S'x'
S'y'
tp1124
sg27
g28
sg985
I2
sg986
(I8
I9
tp1125
sg22
I1
sg20
F3.8818159961374477
sg23
F1.4416229709750041
sVY
I4
sVX
I2
sg988
I0
sg35
g36
sg37
g38
sg21
S'9'
sg19
S'space'
p1126
sg34
g11
sg991
I9
sg992
g1083
sg994
I9
sS'block.thisIndex'
p1127
I2
sg996
g989
sg998
I0
sg1000
g1049
sa(dp1128
S'block.thisTrialN'
p1129
I15
sS'block.thisRepN'
p1130
I0
sg29
g33
sS'block.thisN'
p1131
I15
sg983
(S'DOUBLE'
S'TIMES'
S'THIRD'
S'x'
S'y'
tp1132
sg27
g28
sg985
I3
sg986
(I1
I4
I8
tp1133
sg22
I1
sg20
F1.7969802456791513
sg23
F4.2500305341964122
sVY
I4
sVX
I3
sg988
g1057
sg35
g36
sg37
g38
sg21
S'8'
sg19
S'space'
p1134
sg34
g11
sg991
I8
sg992
g1083
sg994
I8
sS'block.thisIndex'
p1135
I6
sg996
g1021
sg998
I0
sg1000
g1011
sa(dp1136
S'block.thisTrialN'
p1137
I16
sS'block.thisRepN'
p1138
I0
sg29
g33
sS'block.thisN'
p1139
I16
sg983
(S'TRIPLE'
S'HALF'
S'TIMES'
S'x'
S'y'
tp1140
sg27
g28
sg985
I3
sg986
(I6
I3
I9
tp1141
sg22
I1
sg20
F2.7904989446979016
sg23
F4.707238374336157
sVY
I3
sVX
I2
sg988
g1083
sg35
g36
sg37
g38
sg21
S'9'
sg19
S'space'
p1142
sg34
g11
sg991
I9
sg992
g999
sg994
I9
sS'block.thisIndex'
p1143
I9
sg996
g997
sg998
I0
sg1000
g1076
sa(dp1144
S'block.thisTrialN'
p1145
I17
sS'block.thisRepN'
p1146
I0
sg29
g33
sS'block.thisN'
p1147
I17
sg983
(S'DIVIDE'
S'DECREASE'
S'THIRD'
S'DOUBLE'
S'x'
S'y'
tp1148
sg27
g28
sg985
I4
sg986
(I12
I4
I3
I1
tp1149
sg22
I1
sg20
F3.8932293152320199
sg23
F10.535784515639534
sVY
I3
sVX
I6
sg988
g1057
sg35
g36
sg37
g38
sg21
S'1'
sg19
S'space'
p1150
sg34
g11
sg991
I1
sg992
g1020
sg994
I1
sS'block.thisIndex'
p1151
I10
sg996
g1009
sg998
g1021
sg1000
g1119
sa(dp1152
S'block.thisTrialN'
p1153
I0
sS'block.thisRepN'
p1154
I0
sg29
g33
sS'block.thisN'
p1155
I0
sVRule
p1156
(S'INCREASE'
S'SUBTRACT'
S'HALF'
S'x'
S'y'
tp1157
sg27
g28
sVLength
p1158
I3
sVIntermediate
p1159
(I4
I2
I3
tp1160
sg22
I1
sg20
F3.8854804509319365
sg23
F3.9883294586907141
sVY
I2
sVX
I8
sVOperatorc
p1161
Vhalf
p1162
sg35
g36
sg37
g38
sg21
S'3'
sg19
S'space'
p1163
sg34
g11
sVResult
p1164
I3
sVOperatora
p1165
VSUBTRACT
p1166
sVCorrectResponse
p1167
I3
sS'block.thisIndex'
p1168
I7
sVOperatorb
p1169
Vincrease
p1170
sVOperatord
p1171
I0
sVStructure
p1172
VUBUxy
p1173
sa(dp1174
S'block.thisTrialN'
p1175
I1
sS'block.thisRepN'
p1176
I0
sg29
g33
sS'block.thisN'
p1177
I1
sg1156
(S'ADD'
S'DOUBLE'
S'DECREASE'
S'THIRD'
S'x'
S'y'
tp1178
sg27
g28
sg1158
I4
sg1159
(I2
I1
I2
I8
tp1179
sg22
I1
sg20
F3.5265938068623655
sg23
F5.1864724889455829
sVY
I6
sVX
I6
sg1161
Vdecrease
p1180
sg35
g36
sg37
g38
sg21
S'8'
sg19
S'space'
p1181
sg34
g11
sg1164
I8
sg1165
Vdouble
p1182
sg1167
I8
sS'block.thisIndex'
p1183
I10
sg1169
VADD
p1184
sg1171
Vthird
p1185
sg1172
VBUUUxy
p1186
sa(dp1187
S'block.thisTrialN'
p1188
I2
sS'block.thisRepN'
p1189
I0
sg29
g33
sS'block.thisN'
p1190
I2
sg1156
(S'ADD'
S'HALF'
S'THIRD'
S'x'
S'y'
tp1191
sg27
g28
sg1158
I3
sg1159
(I2
I1
I9
tp1192
sg22
I1
sg20
F2.6133438508841209
sg23
F3.2649910706968512
sVY
I8
sVX
I6
sg1161
g1185
sg35
g36
sg37
g38
sg21
S'9'
sg19
S'space'
p1193
sg34
g11
sg1164
I9
sg1165
g1162
sg1167
I9
sS'block.thisIndex'
p1194
I4
sg1169
g1184
sg1171
I0
sg1172
VBUUxy
p1195
sa(dp1196
S'block.thisTrialN'
p1197
I3
sS'block.thisRepN'
p1198
I0
sg29
g33
sS'block.thisN'
p1199
I3
sg1156
(S'HALF'
S'TRIPLE'
S'INCREASE'
S'DIVIDE'
S'x'
S'y'
tp1200
sg27
g28
sg1158
I4
sg1159
(I3
I4
I12
I6
tp1201
sg22
I1
sg20
F3.2994746016629506
sg23
F6.7404298446199391
sVY
I3
sVX
I9
sg1161
g1170
sg35
g36
sg37
g38
sg21
S'6'
sg19
S'space'
p1202
sg34
g11
sg1164
I6
sg1165
Vtriple
p1203
sg1167
I6
sS'block.thisIndex'
p1204
I16
sg1169
g1162
sg1171
VDIVIDE
p1205
sg1172
VUUUBxy
p1206
sa(dp1207
S'block.thisTrialN'
p1208
I4
sS'block.thisRepN'
p1209
I0
sg29
g33
sS'block.thisN'
p1210
I4
sg1156
(S'THIRD'
S'DOUBLE'
S'INCREASE'
S'TIMES'
S'x'
S'y'
tp1211
sg27
g28
sg1158
I4
sg1159
(I8
I9
I18
I6
tp1212
sg22
I0
sg20
F4.1806466672569513
sg23
F11.064023845043266
sVY
I4
sVX
I2
sg1161
g1170
sg35
g36
sg37
g38
sg21
S'5'
sg19
S'space'
p1213
sg34
g11
sg1164
I6
sg1165
g1182
sg1167
I6
sS'block.thisIndex'
p1214
I17
sg1169
g1185
sg1171
VTIMES
p1215
sg1172
g1206
sa(dp1216
S'block.thisTrialN'
p1217
I5
sS'block.thisRepN'
p1218
I0
sg29
g33
sS'block.thisN'
p1219
I5
sg1156
(S'HALF'
S'ADD'
S'TRIPLE'
S'x'
S'y'
tp1220
sg27
g28
sg1158
I3
sg1159
(I9
I12
I6
tp1221
sg22
I1
sg20
F6.1338959093263838
sg23
F3.8915001517161727
sVY
I3
sVX
I3
sg1161
g1203
sg35
g36
sg37
g38
sg21
S'6'
sg19
S'space'
p1222
sg34
g11
sg1164
I6
sg1165
g1184
sg1167
I6
sS'block.thisIndex'
p1223
I6
sg1169
g1162
sg1171
I0
sg1172
g1173
sa(dp1224
S'block.thisTrialN'
p1225
I6
sS'block.thisRepN'
p1226
I0
sg29
g33
sS'block.thisN'
p1227
I6
sg1156
(S'DOUBLE'
S'ADD'
S'INCREASE'
S'THIRD'
S'x'
S'y'
tp1228
sg27
g28
sg1158
I4
sg1159
(I1
I2
I4
I8
tp1229
sg22
I1
sg20
F2.3080115809570998
sg23
F5.4657350204652175
sVY
I2
sVX
I3
sg1161
g1170
sg35
g36
sg37
g38
sg21
S'8'
sg19
S'space'
p1230
sg34
g11
sg1164
I8
sg1165
g1184
sg1167
I8
sS'block.thisIndex'
p1231
I12
sg1169
g1182
sg1171
g1185
sg1172
VUBUUxy
p1232
sa(dp1233
S'block.thisTrialN'
p1234
I7
sS'block.thisRepN'
p1235
I0
sg29
g33
sS'block.thisN'
p1236
I7
sg1156
(S'INCREASE'
S'TRIPLE'
S'DIVIDE'
S'x'
S'y'
tp1237
sg27
g28
sg1158
I3
sg1159
(I2
I6
I7
tp1238
sg22
I1
sg20
F1.2948190537572373
sg23
F2.9172178280423395
sVY
I3
sVX
I6
sg1161
g1205
sg35
g36
sg37
g38
sg21
S'7'
sg19
S'space'
p1239
sg34
g11
sg1164
I7
sg1165
g1203
sg1167
I7
sS'block.thisIndex'
p1240
I8
sg1169
g1170
sg1171
I0
sg1172
VUUBxy
p1241
sa(dp1242
S'block.thisTrialN'
p1243
I8
sS'block.thisRepN'
p1244
I0
sg29
g33
sS'block.thisN'
p1245
I8
sg1156
(S'SUBTRACT'
S'DECREASE'
S'TRIPLE'
S'DOUBLE'
S'x'
S'y'
tp1246
sg27
g28
sg1158
I4
sg1159
(I6
I18
I17
I8
tp1247
sg22
I0
sg20
F2.6934281637950335
sg23
F10.310525009874254
sVY
I9
sVX
I3
sg1161
g1203
sg35
g36
sg37
g38
sg21
S'4'
sg19
S'space'
p1248
sg34
g11
sg1164
I8
sg1165
g1180
sg1167
I8
sS'block.thisIndex'
p1249
I11
sg1169
g1166
sg1171
g1182
sg1172
g1186
sa(dp1250
S'block.thisTrialN'
p1251
I9
sS'block.thisRepN'
p1252
I0
sg29
g33
sS'block.thisN'
p1253
I9
sg1156
(S'DECREASE'
S'DIVIDE'
S'x'
S'y'
tp1254
sg27
g28
sg1158
I2
sg1159
(I2
I1
tp1255
sg22
I1
sg20
F4.7100870671274606
sg23
F2.8213162710308097
sVY
I4
sVX
I8
sg1161
I0
sg35
g36
sg37
g38
sg21
S'1'
sg19
S'space'
p1256
sg34
g11
sg1164
I1
sg1165
g1205
sg1167
I1
sS'block.thisIndex'
p1257
I2
sg1169
g1180
sg1171
I0
sg1172
VUBxy
p1258
sa(dp1259
S'block.thisTrialN'
p1260
I10
sS'block.thisRepN'
p1261
I0
sg29
g33
sS'block.thisN'
p1262
I10
sg1156
(S'THIRD'
S'DOUBLE'
S'ADD'
S'DECREASE'
S'x'
S'y'
tp1263
sg27
g28
sg1158
I4
sg1159
(I5
I12
I24
I8
tp1264
sg22
I0
sg20
F3.9701517191133462
sg23
F5.771348310081521
sVY
I7
sVX
I6
sg1161
g1184
sg35
g36
sg37
g38
sg21
S'6'
sg19
S'space'
p1265
sg34
g11
sg1164
I8
sg1165
g1182
sg1167
I8
sS'block.thisIndex'
p1266
I14
sg1169
g1185
sg1171
g1180
sg1172
VUUBUxy
p1267
sa(dp1268
S'block.thisTrialN'
p1269
I11
sS'block.thisRepN'
p1270
I0
sg29
g33
sS'block.thisN'
p1271
I11
sg1156
(S'SUBTRACT'
S'DECREASE'
S'x'
S'y'
tp1272
sg27
g28
sg1158
I2
sg1159
(I5
I3
tp1273
sg22
I1
sg20
F2.1263909687404521
sg23
F2.9226047970878426
sVY
I2
sVX
I6
sg1161
I0
sg35
g36
sg37
g38
sg21
S'3'
sg19
S'space'
p1274
sg34
g11
sg1164
I3
sg1165
g1180
sg1167
I3
sS'block.thisIndex'
p1275
I1
sg1169
g1166
sg1171
I0
sg1172
VBUxy
p1276
sa(dp1277
S'block.thisTrialN'
p1278
I12
sS'block.thisRepN'
p1279
I0
sg29
g33
sS'block.thisN'
p1280
I12
sg1156
(S'THIRD'
S'INCREASE'
S'DIVIDE'
S'DOUBLE'
S'x'
S'y'
tp1281
sg27
g28
sg1158
I4
sg1159
(I18
I2
I3
I1
tp1282
sg22
I1
sg20
F2.0079773896432016
sg23
F5.3772918590693735
sVY
I9
sVX
I9
sg1161
g1205
sg35
g36
sg37
g38
sg21
S'1'
sg19
S'space'
p1283
sg34
g11
sg1164
I1
sg1165
g1170
sg1167
I1
sS'block.thisIndex'
p1284
I15
sg1169
g1185
sg1171
g1182
sg1172
g1267
sa(dp1285
S'block.thisTrialN'
p1286
I13
sS'block.thisRepN'
p1287
I0
sg29
g33
sS'block.thisN'
p1288
I13
sg1156
(S'DIVIDE'
S'DECREASE'
S'TRIPLE'
S'x'
S'y'
tp1289
sg27
g28
sg1158
I3
sg1159
(I9
I8
I4
tp1290
sg22
I1
sg20
F2.0668945854122285
sg23
F2.7908548562845681
sVY
I2
sVX
I3
sg1161
g1203
sg35
g36
sg37
g38
sg21
S'4'
sg19
S'space'
p1291
sg34
g11
sg1164
I4
sg1165
g1180
sg1167
I4
sS'block.thisIndex'
p1292
I5
sg1169
g1205
sg1171
I0
sg1172
g1195
sa(dp1293
S'block.thisTrialN'
p1294
I14
sS'block.thisRepN'
p1295
I0
sg29
g33
sS'block.thisN'
p1296
I14
sg1156
(S'THIRD'
S'HALF'
S'ADD'
S'x'
S'y'
tp1297
sg27
g28
sg1158
I3
sg1159
(I6
I3
I1
tp1298
sg22
I1
sg20
F2.1356376714829821
sg23
F3.5055733238987159
sVY
I3
sVX
I3
sg1161
g1184
sg35
g36
sg37
g38
sg21
S'1'
sg19
S'space'
p1299
sg34
g11
sg1164
I1
sg1165
g1162
sg1167
I1
sS'block.thisIndex'
p1300
I9
sg1169
g1185
sg1171
I0
sg1172
g1241
sa(dp1301
S'block.thisTrialN'
p1302
I15
sS'block.thisRepN'
p1303
I0
sg29
g33
sS'block.thisN'
p1304
I15
sg1156
(S'THIRD'
S'TIMES'
S'DOUBLE'
S'DECREASE'
S'x'
S'y'
tp1305
sg27
g28
sg1158
I4
sg1159
(I1
I2
I6
I2
tp1306
sg22
I1
sg20
F2.4221993657993153
sg23
F6.4998262437584344
sVY
I3
sVX
I2
sg1161
g1182
sg35
g36
sg37
g38
sg21
S'2'
sg19
S'space'
p1307
sg34
g11
sg1164
I2
sg1165
g1215
sg1167
I2
sS'block.thisIndex'
p1308
I13
sg1169
g1185
sg1171
g1180
sg1172
g1232
sa(dp1309
S'block.thisTrialN'
p1310
I16
sS'block.thisRepN'
p1311
I0
sg29
g33
sS'block.thisN'
p1312
I16
sg1156
(S'INCREASE'
S'ADD'
S'x'
S'y'
tp1313
sg27
g28
sg1158
I2
sg1159
(I5
I6
tp1314
sg22
I1
sg20
F1.0926091120927595
sg23
F2.0691157958644908
sVY
I2
sVX
I3
sg1161
I0
sg35
g36
sg37
g38
sg21
S'6'
sg19
S'space'
p1315
sg34
g11
sg1164
I6
sg1165
g1184
sg1167
I6
sS'block.thisIndex'
p1316
I3
sg1169
g1170
sg1171
I0
sg1172
g1258
sa(dp1317
S'block.thisTrialN'
p1318
I17
sS'block.thisRepN'
p1319
I0
sg29
g33
sS'block.thisN'
p1320
I17
sg1156
(S'DIVIDE'
S'INCREASE'
S'x'
S'y'
tp1321
sg27
g28
sg1158
I2
sg1159
(I4
I2
tp1322
sg22
I1
sg20
F0.91812493023462594
sg23
F1.6979405771126039
sVY
I2
sVX
I3
sg1161
I0
sg35
g36
sg37
g38
sg21
S'2'
sg19
S'space'
p1323
sg34
g11
sg1164
I2
sg1165
g1170
sg1167
I2
sS'block.thisIndex'
p1324
I0
sg1169
g1205
sg1171
I0
sg1172
g1276
sa(dp1325
S'block.thisTrialN'
p1326
I0
sS'block.thisRepN'
p1327
I0
sg29
g33
sS'block.thisN'
p1328
I0
sVRule
p1329
(S'DIVIDE'
S'DOUBLE'
S'THIRD'
S'x'
S'y'
tp1330
sg27
g28
sVLength
p1331
I3
sVIntermediate
p1332
(I2
I4
I1
tp1333
sg22
I1
sg20
F1.9367824680230115
sg23
F2.8558694444654975
sVY
I4
sVX
I6
sVOperatorc
p1334
Vthird
p1335
sg35
g36
sg37
g38
sg21
S'1'
sg19
S'space'
p1336
sg34
g11
sVResult
p1337
I1
sVOperatora
p1338
Vdouble
p1339
sVCorrectResponse
p1340
I1
sS'block.thisIndex'
p1341
I4
sVOperatorb
p1342
VDIVIDE
p1343
sVOperatord
p1344
I0
sVStructure
p1345
VBUUxy
p1346
sa(dp1347
S'block.thisTrialN'
p1348
I1
sS'block.thisRepN'
p1349
I0
sg29
g33
sS'block.thisN'
p1350
I1
sg1329
(S'DECREASE'
S'THIRD'
S'TIMES'
S'HALF'
S'x'
S'y'
tp1351
sg27
g28
sg1331
I4
sg1332
(I2
I12
I4
I3
tp1352
sg22
I1
sg20
F1.8481527767144144
sg23
F5.168943579425104
sVY
I6
sVX
I4
sg1334
VTIMES
p1353
sg35
g36
sg37
g38
sg21
S'3'
sg19
S'space'
p1354
sg34
g11
sg1337
I3
sg1338
g1335
sg1340
I3
sS'block.thisIndex'
p1355
I14
sg1342
Vdecrease
p1356
sg1344
Vhalf
p1357
sg1345
VUUBUxy
p1358
sa(dp1359
S'block.thisTrialN'
p1360
I2
sS'block.thisRepN'
p1361
I0
sg29
g33
sS'block.thisN'
p1362
I2
sg1329
(S'ADD'
S'THIRD'
S'INCREASE'
S'HALF'
S'x'
S'y'
tp1363
sg27
g28
sg1331
I4
sg1332
(I2
I3
I1
I7
tp1364
sg22
I0
sg20
F1.4778514137142338
sg23
F8.4068363727128599
sVY
I6
sVX
I4
sg1334
Vincrease
p1365
sg35
g36
sg37
g38
sg21
S'6'
sg19
S'space'
p1366
sg34
g11
sg1337
I7
sg1338
g1335
sg1340
I7
sS'block.thisIndex'
p1367
I10
sg1342
VADD
p1368
sg1344
g1357
sg1345
VBUUUxy
p1369
sa(dp1370
S'block.thisTrialN'
p1371
I3
sS'block.thisRepN'
p1372
I0
sg29
g33
sS'block.thisN'
p1373
I3
sg1329
(S'DOUBLE'
S'TRIPLE'
S'SUBTRACT'
S'x'
S'y'
tp1374
sg27
g28
sg1331
I3
sg1332
(I1
I3
I6
tp1375
sg22
I1
sg20
F2.738558946410194
sg23
F3.2744057553645689
sVY
I3
sVX
I4
sg1334
VSUBTRACT
p1376
sg35
g36
sg37
g38
sg21
S'6'
sg19
S'space'
p1377
sg34
g11
sg1337
I6
sg1338
Vtriple
p1378
sg1340
I6
sS'block.thisIndex'
p1379
I9
sg1342
g1339
sg1344
I0
sg1345
VUUBxy
p1380
sa(dp1381
S'block.thisTrialN'
p1382
I4
sS'block.thisRepN'
p1383
I0
sg29
g33
sS'block.thisN'
p1384
I4
sg1329
(S'DOUBLE'
S'DECREASE'
S'SUBTRACT'
S'x'
S'y'
tp1385
sg27
g28
sg1331
I3
sg1332
(I5
I4
I8
tp1386
sg22
I1
sg20
F2.0481730045285076
sg23
F4.1506993470829912
sVY
I2
sVX
I7
sg1334
g1376
sg35
g36
sg37
g38
sg21
S'8'
sg19
S'space'
p1387
sg34
g11
sg1337
I8
sg1338
g1356
sg1340
I8
sS'block.thisIndex'
p1388
I8
sg1342
g1339
sg1344
I0
sg1345
g1380
sa(dp1389
S'block.thisTrialN'
p1390
I5
sS'block.thisRepN'
p1391
I0
sg29
g33
sS'block.thisN'
p1392
I5
sg1329
(S'HALF'
S'SUBTRACT'
S'TRIPLE'
S'x'
S'y'
tp1393
sg27
g28
sg1331
I3
sg1332
(I9
I2
I1
tp1394
sg22
I1
sg20
F1.7808427861018572
sg23
F4.5964956179377623
sVY
I7
sVX
I3
sg1334
g1378
sg35
g36
sg37
g38
sg21
S'1'
sg19
S'space'
p1395
sg34
g11
sg1337
I1
sg1338
g1376
sg1340
I1
sS'block.thisIndex'
p1396
I6
sg1342
g1357
sg1344
I0
sg1345
VUBUxy
p1397
sa(dp1398
S'block.thisTrialN'
p1399
I6
sS'block.thisRepN'
p1400
I0
sg29
g33
sS'block.thisN'
p1401
I6
sg1329
(S'DIVIDE'
S'INCREASE'
S'DOUBLE'
S'THIRD'
S'x'
S'y'
tp1402
sg27
g28
sg1331
I4
sg1332
(I2
I4
I5
I1
tp1403
sg22
I1
sg20
F3.4113050407613628
sg23
F6.1180170718580484
sVY
I5
sVX
I6
sg1334
g1339
sg35
g36
sg37
g38
sg21
S'1'
sg19
S'space'
p1404
sg34
g11
sg1337
I1
sg1338
g1365
sg1340
I1
sS'block.thisIndex'
p1405
I11
sg1342
g1343
sg1344
g1335
sg1345
g1369
sa(dp1406
S'block.thisTrialN'
p1407
I7
sS'block.thisRepN'
p1408
I0
sg29
g33
sS'block.thisN'
p1409
I7
sg1329
(S'DOUBLE'
S'DECREASE'
S'TRIPLE'
S'DIVIDE'
S'x'
S'y'
tp1410
sg27
g28
sg1331
I4
sg1332
(I1
I3
I2
I4
tp1411
sg22
I1
sg20
F3.5063561894639861
sg23
F4.6165631536568981
sVY
I4
sVX
I4
sg1334
g1378
sg35
g36
sg37
g38
sg21
S'4'
sg19
S'space'
p1412
sg34
g11
sg1337
I4
sg1338
g1356
sg1340
I4
sS'block.thisIndex'
p1413
I17
sg1342
g1339
sg1344
g1343
sg1345
VUUUBxy
p1414
sa(dp1415
S'block.thisTrialN'
p1416
I8
sS'block.thisRepN'
p1417
I0
sg29
g33
sS'block.thisN'
p1418
I8
sg1329
(S'DECREASE'
S'HALF'
S'TRIPLE'
S'DIVIDE'
S'x'
S'y'
tp1419
sg27
g28
sg1331
I4
sg1332
(I4
I12
I6
I5
tp1420
sg22
I1
sg20
F3.42508200489101
sg23
F5.6870948968280572
sVY
I2
sVX
I8
sg1334
g1378
sg35
g36
sg37
g38
sg21
S'5'
sg19
S'space'
p1421
sg34
g11
sg1337
I5
sg1338
g1357
sg1340
I5
sS'block.thisIndex'
p1422
I16
sg1342
g1356
sg1344
g1343
sg1345
g1414
sa(dp1423
S'block.thisTrialN'
p1424
I9
sS'block.thisRepN'
p1425
I0
sg29
g33
sS'block.thisN'
p1426
I9
sg1329
(S'HALF'
S'TIMES'
S'x'
S'y'
tp1427
sg27
g28
sg1331
I2
sg1332
(I16
I8
tp1428
sg22
I1
sg20
F1.6197726575192064
sg23
F3.4939160811481997
sVY
I4
sVX
I4
sg1334
I0
sg35
g36
sg37
g38
sg21
S'8'
sg19
S'space'
p1429
sg34
g11
sg1337
I8
sg1338
g1353
sg1340
I8
sS'block.thisIndex'
p1430
I3
sg1342
g1357
sg1344
I0
sg1345
VUBxy
p1431
sa(dp1432
S'block.thisTrialN'
p1433
I10
sS'block.thisRepN'
p1434
I0
sg29
g33
sS'block.thisN'
p1435
I10
sg1329
(S'DIVIDE'
S'DOUBLE'
S'x'
S'y'
tp1436
sg27
g28
sg1331
I2
sg1332
(I12
I2
tp1437
sg22
I1
sg20
F2.3412194994743913
sg23
F2.5188064467220102
sVY
I6
sVX
I6
sg1334
I0
sg35
g36
sg37
g38
sg21
S'2'
sg19
S'space'
p1438
sg34
g11
sg1337
I2
sg1338
g1339
sg1340
I2
sS'block.thisIndex'
p1439
I1
sg1342
g1343
sg1344
I0
sg1345
VBUxy
p1440
sa(dp1441
S'block.thisTrialN'
p1442
I11
sS'block.thisRepN'
p1443
I0
sg29
g33
sS'block.thisN'
p1444
I11
sg1329
(S'DECREASE'
S'TIMES'
S'DOUBLE'
S'THIRD'
S'x'
S'y'
tp1445
sg27
g28
sg1331
I4
sg1332
(I1
I2
I8
I7
tp1446
sg22
I1
sg20
F2.7431644496973604
sg23
F5.7971926727623213
sVY
I4
sVX
I3
sg1334
g1339
sg35
g36
sg37
g38
sg21
S'7'
sg19
S'space'
p1447
sg34
g11
sg1337
I7
sg1338
g1353
sg1340
I7
sS'block.thisIndex'
p1448
I13
sg1342
g1356
sg1344
g1335
sg1345
VUBUUxy
p1449
sa(dp1450
S'block.thisTrialN'
p1451
I12
sS'block.thisRepN'
p1452
I0
sg29
g33
sS'block.thisN'
p1453
I12
sg1329
(S'ADD'
S'DOUBLE'
S'x'
S'y'
tp1454
sg27
g28
sg1331
I2
sg1332
(I4
I8
tp1455
sg22
I1
sg20
F1.2369874409050681
sg23
F1.9736996364954393
sVY
I4
sVX
I2
sg1334
I0
sg35
g36
sg37
g38
sg21
S'8'
sg19
S'space'
p1456
sg34
g11
sg1337
I8
sg1338
g1339
sg1340
I8
sS'block.thisIndex'
p1457
I0
sg1342
g1368
sg1344
I0
sg1345
g1440
sa(dp1458
S'block.thisTrialN'
p1459
I13
sS'block.thisRepN'
p1460
I0
sg29
g33
sS'block.thisN'
p1461
I13
sg1329
(S'DOUBLE'
S'SUBTRACT'
S'x'
S'y'
tp1462
sg27
g28
sg1331
I2
sg1332
(I1
I2
tp1463
sg22
I1
sg20
F0.85076594489510171
sg23
F3.2378053027205169
sVY
I7
sVX
I8
sg1334
I0
sg35
g36
sg37
g38
sg21
S'2'
sg19
S'space'
p1464
sg34
g11
sg1337
I2
sg1338
g1376
sg1340
I2
sS'block.thisIndex'
p1465
I2
sg1342
g1339
sg1344
I0
sg1345
g1431
sa(dp1466
S'block.thisTrialN'
p1467
I14
sS'block.thisRepN'
p1468
I0
sg29
g33
sS'block.thisN'
p1469
I14
sg1329
(S'SUBTRACT'
S'HALF'
S'TRIPLE'
S'x'
S'y'
tp1470
sg27
g28
sg1331
I3
sg1332
(I12
I6
I2
tp1471
sg22
I1
sg20
F1.2223520193365403
sg23
F3.2812576663563959
sVY
I4
sVX
I4
sg1334
g1378
sg35
g36
sg37
g38
sg21
S'2'
sg19
S'space'
p1472
sg34
g11
sg1337
I2
sg1338
g1357
sg1340
I2
sS'block.thisIndex'
p1473
I5
sg1342
g1376
sg1344
I0
sg1345
g1346
sa(dp1474
S'block.thisTrialN'
p1475
I15
sS'block.thisRepN'
p1476
I0
sg29
g33
sS'block.thisN'
p1477
I15
sg1329
(S'DOUBLE'
S'TRIPLE'
S'DIVIDE'
S'DECREASE'
S'x'
S'y'
tp1478
sg27
g28
sg1331
I4
sg1332
(I8
I1
I3
I6
tp1479
sg22
I1
sg20
F2.0855664716509636
sg23
F5.6983444335637614
sVY
I8
sVX
I9
sg1334
g1343
sg35
g36
sg37
g38
sg21
S'6'
sg19
S'space'
p1480
sg34
g11
sg1337
I6
sg1338
g1378
sg1340
I6
sS'block.thisIndex'
p1481
I15
sg1342
g1339
sg1344
g1356
sg1345
g1358
sa(dp1482
S'block.thisTrialN'
p1483
I16
sS'block.thisRepN'
p1484
I0
sg29
g33
sS'block.thisN'
p1485
I16
sg1329
(S'DECREASE'
S'ADD'
S'DOUBLE'
S'THIRD'
S'x'
S'y'
tp1486
sg27
g28
sg1331
I4
sg1332
(I3
I6
I10
I9
tp1487
sg22
I1
sg20
F2.2947847574541811
sg23
F4.3737897867686115
sVY
I4
sVX
I9
sg1334
g1339
sg35
g36
sg37
g38
sg21
S'9'
sg19
S'space'
p1488
sg34
g11
sg1337
I9
sg1338
g1368
sg1340
I9
sS'block.thisIndex'
p1489
I12
sg1342
Vdecrease 
p1490
sg1344
g1335
sg1345
g1449
sa(dp1491
S'block.thisTrialN'
p1492
I17
sS'block.thisRepN'
p1493
I0
sg29
g33
sS'block.thisN'
p1494
I17
sg1329
(S'INCREASE'
S'DIVIDE'
S'THIRD'
S'x'
S'y'
tp1495
sg27
g28
sg1331
I3
sg1332
(I3
I1
I2
tp1496
sg22
I1
sg20
F1.8782953758200165
sg23
F2.8495025811425876
sVY
I3
sVX
I9
sg1334
g1335
sg35
g36
sg37
g38
sg21
S'2'
sg19
S'space'
p1497
sg34
g11
sg1337
I2
sg1338
g1343
sg1340
I2
sS'block.thisIndex'
p1498
I7
sg1342
g1365
sg1344
I0
sg1345
g1397
sasS'loops'
p1499
(lp1500
g1
(cpsychopy.data
TrialHandler
p1501
g3
NtRp1502
(dp1503
S'origin'
p1504
NsS'thisTrial'
p1505
(lp1506
sS'_exp'
p1507
I154442768
sg10
S'practice_trials'
p1508
sg6
S'C:\\Users\\experimenter\\Desktop\\Experiments\\KRITL\\2. kritl_experimenter.py'
p1509
sS'thisRepN'
p1510
I1
sg24
I01
sg25
g26
sS'data'
p1511
g1
(cpsychopy.data
DataHandler
p1512
c__builtin__
dict
p1513
(dp1514
g15
cnumpy.core.multiarray
_reconstruct
p1515
(cnumpy
ndarray
p1516
(I0
tS'b'
tRp1517
(I1
(I6
I1
tg31
(S'O4'
I0
I1
tRp1518
(I3
S'|'
NNNI-1
I-1
I63
tbI00
(lp1519
(lp1520
F2.6171433910785709
aa(lp1521
F2.7449926525587216
aa(lp1522
F2.8901545468543191
aa(lp1523
F2.8960514108475763
aa(lp1524
F3.0973203040193766
aa(lp1525
F3.9340398138156161
aatbsg16
g1515
(g1516
(I0
tS'b'
tRp1526
(I1
(I6
I1
tg1518
I00
(lp1527
S'7'
aS'8'
aS'7'
aS'8'
aS'3'
aS'9'
atbsS'ran'
p1528
cnumpy.ma.core
_mareconstruct
p1529
(cnumpy.ma.core
MaskedArray
p1530
g1516
(I0
tp1531
S'b'
tRp1532
(I1
(I6
I1
tg31
(S'f4'
I0
I1
tRp1533
(I3
S'<'
NNNI-1
I-1
I0
tbI00
S'\x00\x00\x80?\x00\x00\x80?\x00\x00\x80?\x00\x00\x80?\x00\x00\x80?\x00\x00\x80?'
S'\x00\x00\x00\x00\x00\x00'
Ntbsg18
g1529
(g1530
g1516
g1531
S'b'
tRp1534
(I1
(I6
I1
tg1533
I00
S'(\x1c&@{\x19\xdc?\xf7\xae\x11@\xb8\xc8E@;y\\@\xe3\x88\xe6@'
S'\x00\x00\x00\x00\x00\x00'
Ntbsg14
g1515
(g1516
(I0
tS'b'
tRp1535
(I1
(I6
I1
tg1518
I00
(lp1536
(lp1537
g73
aa(lp1538
g102
aa(lp1539
g111
aa(lp1540
g120
aa(lp1541
g84
aa(lp1542
g93
aatbsS'order'
p1543
g1529
(g1530
g1516
g1531
S'b'
tRp1544
(I1
(I6
I1
tg1533
I00
S'\x00\x00\x00\x00\x00\x00@@\x00\x00\x80@\x00\x00\xa0@\x00\x00\x80?\x00\x00\x00@'
S'\x00\x00\x00\x00\x00\x00'
Ntbsg17
g1529
(g1530
g1516
g1531
S'b'
tRp1545
(I1
(I6
I1
tg1533
I00
S'\x00\x00\x80?\x00\x00\x80?\x00\x00\x80?\x00\x00\x80?\x00\x00\x80?\x00\x00\x80?'
S'\x00\x00\x00\x00\x00\x00'
NtbstRp1546
(dp1547
S'isNumeric'
p1548
(dp1549
g16
I00
sg1528
I01
sg18
I01
sg14
I00
sg17
I01
sg1543
I01
sg15
I00
ssS'trials'
p1550
g1502
sS'dataTypes'
p1551
(lp1552
g1528
ag1543
ag14
ag15
ag16
ag17
ag18
asS'dataShape'
p1553
(lp1554
I6
aI1
asbsS'method'
p1555
S'fullRandom'
p1556
sS'sequenceIndices'
p1557
g1515
(g1516
(I0
tS'b'
tRp1558
(I1
(I6
I1
tg1518
I00
(lp1559
I0
aI4
aI5
aI1
aI2
aI3
atbsS'finished'
p1560
I01
sS'nReps'
p1561
I1
sS'nRemaining'
p1562
I-1
sS'trialList'
p1563
(lp1564
g1
(cpsychopy.data
TrialType
p1565
g1513
(dp1566
g47
I0
sg48
g68
sg49
g69
sg50
I7
sg53
I2
sg52
I0
sg51
I5
sg54
I3
stRp1567
ag1
(g1565
g1513
(dp1568
g47
I0
sg48
g69
sg49
g98
sg50
I8
sg53
I2
sg52
I0
sg51
I3
sg54
I3
stRp1569
ag1
(g1565
g1513
(dp1570
g47
I0
sg48
g68
sg49
g107
sg50
I7
sg53
I2
sg52
I0
sg51
I5
sg54
I4
stRp1571
ag1
(g1565
g1513
(dp1572
g47
g68
sg48
g116
sg49
g107
sg50
I8
sg53
I3
sg52
I0
sg51
I2
sg54
I4
stRp1573
ag1
(g1565
g1513
(dp1574
g47
g78
sg48
g79
sg49
g80
sg50
I3
sg53
I3
sg52
I0
sg51
I3
sg54
I2
stRp1575
ag1
(g1565
g1513
(dp1576
g47
g78
sg48
g79
sg49
g89
sg50
I9
sg53
I4
sg52
g80
sg51
I8
sg54
I8
stRp1577
asS'seed'
p1578
NsS'thisIndex'
p1579
I3
sS'thisN'
p1580
I6
sS'thisTrialN'
p1581
I0
sS'nTotal'
p1582
I6
sS'_warnUseOfNext'
p1583
I01
sbag1
(g1501
g3
NtRp1584
(dp1585
g1504
Nsg1505
(lp1586
sg1507
I154442768
sg10
S'block'
p1587
sg6
g1509
sg1510
I1
sg24
I01
sg25
g26
sg1511
g1
(g1512
g1513
(dp1588
g22
g1529
(g1530
g1516
g1531
S'b'
tRp1589
(I1
(I18
I1
tg1533
I00
S'\x00\x00\x80?\x00\x00\x80?\x00\x00\x80?\x00\x00\x80?\x00\x00\x80?\x00\x00\x80?\x00\x00\x80?\x00\x00\x80?\x00\x00\x80?\x00\x00\x80?\x00\x00\x00\x00\x00\x00\x80?\x00\x00\x80?\x00\x00\x80?\x00\x00\x00\x00\x00\x00\x80?\x00\x00\x80?\x00\x00\x80?'
S'\x00\x00\x00\x00\x00\x00\x00\x00\x00\x00\x00\x00\x00\x00\x00\x00\x00\x00'
Ntbsg19
g1515
(g1516
(I0
tS'b'
tRp1590
(I1
(I18
I1
tg1518
I00
(lp1591
g130
ag192
ag244
ag253
ag218
ag209
ag269
ag142
ag227
ag152
ag183
ag200
ag261
ag235
ag285
ag162
ag172
ag277
atbsg23
g1529
(g1530
g1516
g1531
S'b'
tRp1592
(I1
(I18
I1
tg1533
I00
S"\x01\xc9\x86@\xab\\\x05@|{#@k\x06K@\xe3\x01\xfb@2:;A\xedl\xb6@\x9er0A\x81*K@\xcac\x9d@\xb0\xd9bA'n\x12A\xa3\xd1\xdc@\xf4\xfb\xcf@\xa3r\xa4@\x18\xfb\xe4@\xa8\x91\x83@\x93\x03\xea@"
S'\x00\x00\x00\x00\x00\x00\x00\x00\x00\x00\x00\x00\x00\x00\x00\x00\x00\x00'
Ntbsg1528
g1529
(g1530
g1516
g1531
S'b'
tRp1593
(I1
(I18
I1
tg1533
I00
S'\x00\x00\x80?\x00\x00\x80?\x00\x00\x80?\x00\x00\x80?\x00\x00\x80?\x00\x00\x80?\x00\x00\x80?\x00\x00\x80?\x00\x00\x80?\x00\x00\x80?\x00\x00\x80?\x00\x00\x80?\x00\x00\x80?\x00\x00\x80?\x00\x00\x80?\x00\x00\x80?\x00\x00\x80?\x00\x00\x80?'
S'\x00\x00\x00\x00\x00\x00\x00\x00\x00\x00\x00\x00\x00\x00\x00\x00\x00\x00'
Ntbsg21
g1515
(g1516
(I0
tS'b'
tRp1594
(I1
(I18
I1
tg1518
I00
(lp1595
S'1'
aS'8'
aS'4'
aS'1'
aS'3'
aS'9'
aS'1'
aS'6'
aS'6'
aS'8'
aS'1'
aS'1'
aS'6'
aS'7'
aS'9'
aS'5'
aS'5'
aS'3'
atbsg1543
g1529
(g1530
g1516
g1531
S'b'
tRp1596
(I1
(I18
I1
tg1533
I00
S'\x00\x00\x00\x00\x00\x00\xc0@\x00\x00@A\x00\x00PA\x00\x00\x10A\x00\x00\x00A\x00\x00pA\x00\x00\x80?\x00\x00 A\x00\x00\x00@\x00\x00\xa0@\x00\x00\xe0@\x00\x00`A\x00\x000A\x00\x00\x88A\x00\x00@@\x00\x00\x80@\x00\x00\x80A'
S'\x00\x00\x00\x00\x00\x00\x00\x00\x00\x00\x00\x00\x00\x00\x00\x00\x00\x00'
Ntbsg20
g1529
(g1530
g1516
g1531
S'b'
tRp1597
(I1
(I18
I1
tg1533
I00
S'\xbd\xfc\x91@EoY@\xcd\xb8\x13@\xc0\xd5t@\x03\xccg@\x8a\x16I@\xed\x0c\x94@\x05Mv@\xa9\x1d\x80@P\x1f\xfd@\xdf\x84\x12A\x06\xeb\xb7@\\T*@\x1diV@T>T@uJ\xd6@\xfa\x1e\x00A\xcd\xf8\x9c@'
S'\x00\x00\x00\x00\x00\x00\x00\x00\x00\x00\x00\x00\x00\x00\x00\x00\x00\x00'
NtbstRp1598
(dp1599
g1548
(dp1600
g1528
I01
sg21
I00
sg20
I01
sg22
I01
sg19
I00
sg23
I01
sg1543
I01
ssg1550
g1584
sg1551
(lp1601
g1528
ag1543
ag19
ag20
ag21
ag22
ag23
asg1553
(lp1602
I18
aI1
asbsg1555
g1556
sg1557
g1515
(g1516
(I0
tS'b'
tRp1603
(I1
(I18
I1
tg1518
I00
(lp1604
I0
aI7
aI9
aI15
aI16
aI10
aI1
aI11
aI5
aI4
aI8
aI13
aI2
aI3
aI12
aI6
aI17
aI14
atbsg1560
I01
sg1561
I1
sg1562
I-1
sg1563
(lp1605
g1
(g1565
g1513
(dp1606
g55
g128
sVY
I3
sg57
I2
sg58
g129
sg59
I1
sg60
I1
sg56
g131
sVX
I9
sg61
I0
sg62
g133
sg63
I0
sg64
g134
stRp1607
ag1
(g1565
g1513
(dp1608
g55
g190
sVY
I2
sg57
I2
sg58
g191
sg59
I8
sg60
I8
sg56
g154
sVX
I2
sg61
I0
sg62
g143
sg63
I0
sg64
g134
stRp1609
ag1
(g1565
g1513
(dp1610
g55
g242
sVY
I3
sg57
I2
sg58
g243
sg59
I4
sg60
I4
sg56
g175
sVX
I6
sg61
I0
sg62
g208
sg63
I0
sg64
g246
stRp1611
ag1
(g1565
g1513
(dp1612
g55
g251
sVY
I2
sg57
I2
sg58
g252
sg59
I1
sg60
I1
sg56
g133
sVX
I6
sg61
I0
sg62
g131
sg63
I0
sg64
g246
stRp1613
ag1
(g1565
g1513
(dp1614
g55
g216
sVY
I9
sg57
I3
sg58
g217
sg59
I3
sg60
I3
sg56
g173
sVX
I5
sg61
g163
sg62
g175
sg63
I0
sg64
g211
stRp1615
ag1
(g1565
g1513
(dp1616
g55
g206
sVY
I3
sg57
I3
sg58
g207
sg59
I9
sg60
I9
sg56
g141
sVX
I5
sg61
g208
sg62
g143
sg63
I0
sg64
g211
stRp1617
ag1
(g1565
g1513
(dp1618
g55
g267
sVY
I2
sg57
I3
sg58
g268
sg59
I1
sg60
I1
sg56
g133
sVX
I7
sg61
g163
sg62
g131
sg63
I0
sg64
g145
stRp1619
ag1
(g1565
g1513
(dp1620
g55
g139
sVY
I6
sg57
I3
sg58
g140
sg59
I6
sg60
I6
sg56
g143
sVX
I6
sg61
g141
sg62
g131
sg63
I0
sg64
g145
stRp1621
ag1
(g1565
g1513
(dp1622
g55
g224
sVY
I2
sg57
I3
sg58
g225
sg59
I6
sg60
I6
sg56
g163
sVX
I2
sg61
g226
sg62
g154
sg63
I0
sg64
g155
stRp1623
ag1
(g1565
g1513
(dp1624
g55
g150
sVY
I6
sg57
I3
sg58
g151
sg59
I8
sg60
I8
sg56
g131
sVX
I2
sg61
g143
sg62
g154
sg63
I0
sg64
g155
stRp1625
ag1
(g1565
g1513
(dp1626
g55
g181
sVY
I4
sg57
I4
sg58
g182
sg59
I8
sg60
I8
sg56
g154
sVX
I3
sg61
g173
sg62
g175
sg63
g163
sg64
g185
stRp1627
ag1
(g1565
g1513
(dp1628
g55
g198
sVY
I8
sg57
I4
sg58
g199
sg59
I1
sg60
I1
sg56
g173
sVX
I2
sg61
g163
sg62
g175
sg63
g154
sg64
g185
stRp1629
ag1
(g1565
g1513
(dp1630
g55
g259
sVY
I5
sg57
I4
sg58
g260
sg59
I6
sg60
I6
sg56
g133
sVX
I4
sg61
g173
sg62
g154
sg63
g208
sg64
g237
stRp1631
ag1
(g1565
g1513
(dp1632
g55
g233
sVY
I3
sg57
I4
sg58
g234
sg59
I7
sg60
I7
sg56
g226
sVX
I2
sg61
g141
sg62
g208
sg63
g173
sg64
g237
stRp1633
ag1
(g1565
g1513
(dp1634
g55
g283
sVY
I3
sg57
I4
sg58
g284
sg59
I5
sg60
I5
sg56
g173
sVX
I3
sg61
g133
sg62
g163
sg63
g154
sg64
g165
stRp1635
ag1
(g1565
g1513
(dp1636
g55
g160
sVY
I4
sg57
I4
sg58
g161
sg59
I5
sg60
I5
sg56
g163
sVX
I8
sg61
g143
sg62
g131
sg63
g141
sg64
g165
stRp1637
ag1
(g1565
g1513
(dp1638
g55
g170
sVY
I2
sg57
I4
sg58
g171
sg59
I5
sg60
I5
sg56
g173
sVX
I6
sg61
g141
sg62
g163
sg63
g175
sg64
g176
stRp1639
ag1
(g1565
g1513
(dp1640
g55
g275
sVY
I2
sg57
I4
sg58
g276
sg59
I3
sg60
I3
sg56
g173
sVX
I3
sg61
g208
sg62
g141
sg63
g175
sg64
g176
stRp1641
asg1578
Nsg1579
I14
sg1580
I18
sg1581
I0
sg1582
I18
sg1583
I01
sbag1
(g1501
g3
NtRp1642
(dp1643
g1504
Nsg1505
(lp1644
sg1507
I154442768
sg10
g1587
sg6
g1509
sg1510
I1
sg24
I01
sg25
g26
sg1511
g1
(g1512
g1513
(dp1645
g22
g1529
(g1530
g1516
g1531
S'b'
tRp1646
(I1
(I18
I1
tg1533
I00
S'\x00\x00\x80?\x00\x00\x80?\x00\x00\x80?\x00\x00\x80?\x00\x00\x80?\x00\x00\x80?\x00\x00\x80?\x00\x00\x80?\x00\x00\x80?\x00\x00\x80?\x00\x00\x80?\x00\x00\x80?\x00\x00\x80?\x00\x00\x80?\x00\x00\x80?\x00\x00\x00\x00\x00\x00\x80?\x00\x00\x00\x00'
S'\x00\x00\x00\x00\x00\x00\x00\x00\x00\x00\x00\x00\x00\x00\x00\x00\x00\x00'
Ntbsg19
g1515
(g1516
(I0
tS'b'
tRp1647
(I1
(I18
I1
tg1518
I00
(lp1648
g367
ag458
ag418
ag409
ag401
ag317
ag434
ag328
ag385
ag376
ag348
ag393
ag442
ag298
ag426
ag358
ag337
ag450
atbsg23
g1529
(g1530
g1516
g1531
S'b'
tRp1649
(I1
(I18
I1
tg1533
I00
S'\x7f8\x03@\x0b\xb7\x18@\xe3\x81\x08@\x91\xa2\x13@`\x1aS@\x87a\xd8@\xbbP\xb3@\x81mh@\xd4\xa27AE;\xc2@\x9dZ\x02A\xfcMVA\x98\xec\x0eA\xe4\xb0\xea@\\\xa5\x96A\xf9pFA\xfcI\xc6@\xe7\x9e A'
S'\x00\x00\x00\x00\x00\x00\x00\x00\x00\x00\x00\x00\x00\x00\x00\x00\x00\x00'
Ntbsg1528
g1529
(g1530
g1516
g1531
S'b'
tRp1650
(I1
(I18
I1
tg1533
I00
S'\x00\x00\x80?\x00\x00\x80?\x00\x00\x80?\x00\x00\x80?\x00\x00\x80?\x00\x00\x80?\x00\x00\x80?\x00\x00\x80?\x00\x00\x80?\x00\x00\x80?\x00\x00\x80?\x00\x00\x80?\x00\x00\x80?\x00\x00\x80?\x00\x00\x80?\x00\x00\x80?\x00\x00\x80?\x00\x00\x80?'
S'\x00\x00\x00\x00\x00\x00\x00\x00\x00\x00\x00\x00\x00\x00\x00\x00\x00\x00'
Ntbsg21
g1515
(g1516
(I0
tS'b'
tRp1651
(I1
(I18
I1
tg1518
I00
(lp1652
S'4'
aS'6'
aS'3'
aS'1'
aS'9'
aS'5'
aS'5'
aS'5'
aS'8'
aS'3'
aS'3'
aS'9'
aS'4'
aS'3'
aS'8'
aS'8'
aS'1'
aS'5'
atbsg1543
g1529
(g1530
g1516
g1531
S'b'
tRp1653
(I1
(I18
I1
tg1533
I00
S'\x00\x00\xc0@\x00\x00\x88A\x00\x00@A\x00\x000A\x00\x00 A\x00\x00\x80?\x00\x00`A\x00\x00\x00@\x00\x00\x00A\x00\x00\xe0@\x00\x00\x80@\x00\x00\x10A\x00\x00pA\x00\x00\x00\x00\x00\x00PA\x00\x00\xa0@\x00\x00@@\x00\x00\x80A'
S'\x00\x00\x00\x00\x00\x00\x00\x00\x00\x00\x00\x00\x00\x00\x00\x00\x00\x00'
Ntbsg20
g1529
(g1530
g1516
g1531
S'b'
tRp1654
(I1
(I18
I1
tg1533
I00
S'\x16s\xfe?\xe0"#@\xfd\x05\xa0?\x89\x1b\xf4?6+M@\x8b\xaa2@\x8f\x7f\x05@^3\x86@\xff\xb0\x89@&\xaa\xfc?U\x89\x92@g8N@%\xbe\x99@X\tU@\xa5,q@l7K@\xa1\x95\xc2@\xeb]\xb1@'
S'\x00\x00\x00\x00\x00\x00\x00\x00\x00\x00\x00\x00\x00\x00\x00\x00\x00\x00'
NtbstRp1655
(dp1656
g1548
(dp1657
g1528
I01
sg21
I00
sg20
I01
sg22
I01
sg19
I00
sg23
I01
sg1543
I01
ssg1550
g1642
sg1551
(lp1658
g1528
ag1543
ag19
ag20
ag21
ag22
ag23
asg1553
(lp1659
I18
aI1
asbsg1555
g1556
sg1557
g1515
(g1516
(I0
tS'b'
tRp1660
(I1
(I18
I1
tg1518
I00
(lp1661
I13
aI5
aI7
aI16
aI10
aI15
aI0
aI9
aI8
aI11
aI4
aI3
aI2
aI14
aI6
aI12
aI17
aI1
atbsg1560
I01
sg1561
I1
sg1562
I-1
sg1563
(lp1662
g1
(g1565
g1513
(dp1663
g291
g365
sVY
I2
sg293
I2
sg294
g366
sg302
I4
sg299
I4
sg300
g307
sVX
I3
sg296
I0
sg304
g320
sg306
I0
sg308
g369
stRp1664
ag1
(g1565
g1513
(dp1665
g291
g456
sVY
I2
sg293
I2
sg294
g457
sg302
I6
sg299
I6
sg300
g338
sVX
I2
sg296
I0
sg304
g320
sg306
I0
sg308
g369
stRp1666
ag1
(g1565
g1513
(dp1667
g291
g416
sVY
I5
sg293
I2
sg294
g417
sg302
I3
sg299
I3
sg300
g357
sVX
I4
sg296
I0
sg304
g318
sg306
I0
sg308
g411
stRp1668
ag1
(g1565
g1513
(dp1669
g291
g407
sVY
I2
sg293
I2
sg294
g408
sg302
I1
sg299
I1
sg300
g301
sVX
I5
sg296
I0
sg304
g318
sg306
I0
sg308
g411
stRp1670
ag1
(g1565
g1513
(dp1671
g291
g399
sVY
I3
sg293
I3
sg294
g400
sg302
I9
sg299
I9
sg300
g307
sVX
I8
sg296
g316
sg304
g320
sg306
I0
sg308
g321
stRp1672
ag1
(g1565
g1513
(dp1673
g291
g314
sVY
I5
sg293
I3
sg294
g315
sg302
I5
sg299
I5
sg300
g318
sVX
I6
sg296
g316
sg304
g320
sg306
I0
sg308
g321
stRp1674
ag1
(g1565
g1513
(dp1675
g291
g432
sVY
I7
sg293
I3
sg294
g433
sg302
I5
sg299
I5
sg300
g357
sVX
I7
sg296
g338
sg304
g318
sg306
I0
sg308
g330
stRp1676
ag1
(g1565
g1513
(dp1677
g291
g326
sVY
I5
sg293
I3
sg294
g327
sg302
I5
sg299
I5
sg300
g320
sVX
I4
sg296
g307
sg304
g318
sg306
I0
sg308
g330
stRp1678
ag1
(g1565
g1513
(dp1679
g291
g383
sVY
I5
sg293
I3
sg294
g384
sg302
I8
sg299
I8
sg300
g307
sVX
I5
sg296
g320
sg304
g318
sg306
I0
sg308
g378
stRp1680
ag1
(g1565
g1513
(dp1681
g291
g374
sVY
I2
sg293
I3
sg294
g375
sg302
I3
sg299
I3
sg300
g316
sVX
I4
sg296
g340
sg304
g305
sg306
I0
sg308
g378
stRp1682
ag1
(g1565
g1513
(dp1683
g291
g346
sVY
I5
sg293
I4
sg294
g347
sg302
I3
sg299
I3
sg300
g316
sVX
I5
sg296
g338
sg304
g301
sg306
g305
sg308
g350
stRp1684
ag1
(g1565
g1513
(dp1685
g291
g391
sVY
I3
sg293
I4
sg294
g392
sg302
I9
sg299
I9
sg300
g338
sVX
I3
sg296
g318
sg304
g320
sg306
g297
sg308
g350
stRp1686
ag1
(g1565
g1513
(dp1687
g291
g440
sVY
I6
sg293
I4
sg294
g441
sg302
I4
sg299
I4
sg300
g340
sVX
I3
sg296
g305
sg304
g338
sg306
g297
sg308
g309
stRp1688
ag1
(g1565
g1513
(dp1689
g291
g292
sVY
I3
sg293
I4
sg294
g295
sg302
I3
sg299
I3
sg300
g301
sVX
I3
sg296
g297
sg304
g305
sg306
g307
sg308
g309
stRp1690
ag1
(g1565
g1513
(dp1691
g291
g424
sVY
I2
sg293
I4
sg294
g425
sg302
I8
sg299
I8
sg300
g297
sVX
I9
sg296
g357
sg304
g318
sg306
g338
sg308
g360
stRp1692
ag1
(g1565
g1513
(dp1693
g291
g355
sVY
I3
sg293
I4
sg294
g356
sg302
I6
sg299
I6
sg300
g316
sVX
I2
sg296
g357
sg304
g305
sg306
g307
sg308
g360
stRp1694
ag1
(g1565
g1513
(dp1695
g291
g335
sVY
I2
sg293
I4
sg294
g336
sg302
I1
sg299
I1
sg300
g338
sVX
I8
sg296
g316
sg304
g318
sg306
g340
sg308
g341
stRp1696
ag1
(g1565
g1513
(dp1697
g291
g448
sVY
I2
sg293
I4
sg294
g449
sg302
I6
sg299
I6
sg300
g307
sVX
I3
sg296
g316
sg304
g305
sg306
g320
sg308
g341
stRp1698
asg1578
Nsg1579
I1
sg1580
I18
sg1581
I0
sg1582
I18
sg1583
I01
sbag1
(g1501
g3
NtRp1699
(dp1700
g1504
Nsg1505
(lp1701
sg1507
I154442768
sg10
g1587
sg6
g1509
sg1510
I1
sg24
I01
sg25
g26
sg1511
g1
(g1512
g1513
(dp1702
g22
g1529
(g1530
g1516
g1531
S'b'
tRp1703
(I1
(I18
I1
tg1533
I00
S'\x00\x00\x80?\x00\x00\x80?\x00\x00\x80?\x00\x00\x80?\x00\x00\x80?\x00\x00\x80?\x00\x00\x80?\x00\x00\x80?\x00\x00\x80?\x00\x00\x80?\x00\x00\x80?\x00\x00\x00\x00\x00\x00\x80?\x00\x00\x80?\x00\x00\x80?\x00\x00\x80?\x00\x00\x80?\x00\x00\x80?'
S'\x00\x00\x00\x00\x00\x00\x00\x00\x00\x00\x00\x00\x00\x00\x00\x00\x00\x00'
Ntbsg19
g1515
(g1516
(I0
tS'b'
tRp1704
(I1
(I18
I1
tg1518
I00
(lp1705
g470
ag500
ag631
ag622
ag556
ag582
ag519
ag606
ag565
ag598
ag590
ag488
ag537
ag614
ag509
ag528
ag574
ag547
atbsg23
g1529
(g1530
g1516
g1531
S'b'
tRp1706
(I1
(I18
I1
tg1533
I00
S'\xba\x19\x91@\x80I\x85@NH"@\xaa\r\x1f@o`\xa1@)\x8ec@:\x1a\xba@\xdc\xae\x04A\xd0\x00\xba@z\xf2:@\xbe1\xdb@\xf2\x02\x13A<2\xac@\xeb\xe9\x00A\x88R\nA\x83Z\x1fA\xe9M\x86@\xd6(\xd3@'
S'\x00\x00\x00\x00\x00\x00\x00\x00\x00\x00\x00\x00\x00\x00\x00\x00\x00\x00'
Ntbsg1528
g1529
(g1530
g1516
g1531
S'b'
tRp1707
(I1
(I18
I1
tg1533
I00
S'\x00\x00\x80?\x00\x00\x80?\x00\x00\x80?\x00\x00\x80?\x00\x00\x80?\x00\x00\x80?\x00\x00\x80?\x00\x00\x80?\x00\x00\x80?\x00\x00\x80?\x00\x00\x80?\x00\x00\x80?\x00\x00\x80?\x00\x00\x80?\x00\x00\x80?\x00\x00\x80?\x00\x00\x80?\x00\x00\x80?'
S'\x00\x00\x00\x00\x00\x00\x00\x00\x00\x00\x00\x00\x00\x00\x00\x00\x00\x00'
Ntbsg21
g1515
(g1516
(I0
tS'b'
tRp1708
(I1
(I18
I1
tg1518
I00
(lp1709
S'7'
aS'2'
aS'8'
aS'8'
aS'4'
aS'4'
aS'9'
aS'2'
aS'5'
aS'1'
aS'2'
aS'1'
aS'3'
aS'4'
aS'7'
aS'6'
aS'8'
aS'3'
atbsg1543
g1529
(g1530
g1516
g1531
S'b'
tRp1710
(I1
(I18
I1
tg1533
I00
S'\x00\x00\x00\x00\x00\x00\x00@\x00\x00\x88A\x00\x00\x80A\x00\x00\x00A\x00\x000A\x00\x00\x80@\x00\x00`A\x00\x00\x10A\x00\x00PA\x00\x00@A\x00\x00\x80?\x00\x00\xc0@\x00\x00pA\x00\x00@@\x00\x00\xa0@\x00\x00 A\x00\x00\xe0@'
S'\x00\x00\x00\x00\x00\x00\x00\x00\x00\x00\x00\x00\x00\x00\x00\x00\x00\x00'
Ntbsg20
g1529
(g1530
g1516
g1531
S'b'
tRp1711
(I1
(I18
I1
tg1533
I00
S'p\xc4*@{V`@_\xfe\xbc?\x9e\xdd\x1e@&2_@\x18\xe3D@c\x80\xf8?o}h@\x91\xc0?@P( @\xac\xf6h@\xd0\xd2\x1a@\x12\xd4A@K\x85<@\xce\x85:@\xbe"}@q\x9e\x95@\x04p\x8e@'
S'\x00\x00\x00\x00\x00\x00\x00\x00\x00\x00\x00\x00\x00\x00\x00\x00\x00\x00'
NtbstRp1712
(dp1713
g1548
(dp1714
g1528
I01
sg21
I00
sg20
I01
sg22
I01
sg19
I00
sg23
I01
sg1543
I01
ssg1550
g1699
sg1551
(lp1715
g1528
ag1543
ag19
ag20
ag21
ag22
ag23
asg1553
(lp1716
I18
aI1
asbsg1555
g1556
sg1557
g1515
(g1516
(I0
tS'b'
tRp1717
(I1
(I18
I1
tg1518
I00
(lp1718
I0
aI11
aI1
aI14
aI6
aI15
aI12
aI17
aI4
aI8
aI16
aI5
aI10
aI9
aI7
aI13
aI3
aI2
atbsg1560
I01
sg1561
I1
sg1562
I-1
sg1563
(lp1719
g1
(g1565
g1513
(dp1720
g464
g465
sVY
I6
sg466
I2
sg467
g468
sg474
I7
sg471
I7
sg472
g473
sVX
I3
sg469
I0
sg476
g477
sg478
I0
sg479
g480
stRp1721
ag1
(g1565
g1513
(dp1722
g464
g498
sVY
I4
sg466
I2
sg467
g499
sg474
I2
sg471
I2
sg472
g489
sVX
I5
sg469
I0
sg476
g502
sg478
I0
sg479
g480
stRp1723
ag1
(g1565
g1513
(dp1724
g464
g629
sVY
I2
sg466
I2
sg467
g630
sg474
I8
sg471
I8
sg472
g477
sVX
I2
sg469
I0
sg476
g511
sg478
I0
sg479
g624
stRp1725
ag1
(g1565
g1513
(dp1726
g464
g620
sVY
I2
sg466
I2
sg467
g621
sg474
I8
sg471
I8
sg472
g491
sVX
I2
sg469
I0
sg476
g511
sg478
I0
sg479
g624
stRp1727
ag1
(g1565
g1513
(dp1728
g464
g554
sVY
I3
sg466
I3
sg467
g555
sg474
I4
sg471
I4
sg472
g492
sVX
I8
sg469
g487
sg476
g538
sg478
I0
sg479
g558
stRp1729
ag1
(g1565
g1513
(dp1730
g464
g580
sVY
I2
sg466
I3
sg467
g581
sg474
I4
sg471
I4
sg472
g473
sVX
I3
sg469
g511
sg476
g491
sg478
I0
sg479
g558
stRp1731
ag1
(g1565
g1513
(dp1732
g464
g517
sVY
I2
sg466
I3
sg467
g518
sg474
I9
sg471
I9
sg472
g477
sVX
I2
sg469
g492
sg476
g489
sg478
I0
sg479
g521
stRp1733
ag1
(g1565
g1513
(dp1734
g464
g604
sVY
I2
sg466
I3
sg467
g605
sg474
I2
sg471
I2
sg472
g502
sVX
I9
sg469
g473
sg476
g489
sg478
I0
sg479
g521
stRp1735
ag1
(g1565
g1513
(dp1736
g464
g563
sVY
I4
sg466
I3
sg467
g564
sg474
I5
sg471
I5
sg472
g492
sVX
I8
sg469
g538
sg476
g530
sg478
I0
sg479
g567
stRp1737
ag1
(g1565
g1513
(dp1738
g464
g596
sVY
I6
sg466
I3
sg467
g597
sg474
I1
sg471
I1
sg472
g489
sVX
I8
sg469
g502
sg476
g473
sg478
I0
sg479
g567
stRp1739
ag1
(g1565
g1513
(dp1740
g464
g588
sVY
I3
sg466
I4
sg467
g589
sg474
I2
sg471
I2
sg472
g511
sVX
I6
sg469
g489
sg476
g538
sg478
g473
sg479
g493
stRp1741
ag1
(g1565
g1513
(dp1742
g464
g485
sVY
I2
sg466
I4
sg467
g486
sg474
I8
sg471
I8
sg472
g489
sVX
I2
sg469
g487
sg476
g491
sg478
g492
sg479
g493
stRp1743
ag1
(g1565
g1513
(dp1744
g464
g535
sVY
I3
sg466
I4
sg467
g536
sg474
I3
sg471
I3
sg472
g538
sVX
I4
sg469
g492
sg476
g489
sg478
g487
sg479
g540
stRp1745
ag1
(g1565
g1513
(dp1746
g464
g612
sVY
I3
sg466
I4
sg467
g613
sg474
I4
sg471
I4
sg472
g491
sVX
I7
sg469
g487
sg476
g473
sg478
g489
sg479
g540
stRp1747
ag1
(g1565
g1513
(dp1748
g464
g507
sVY
I4
sg466
I4
sg467
g508
sg474
I7
sg471
I7
sg472
g489
sVX
I8
sg469
g477
sg476
g473
sg478
g511
sg479
g512
stRp1749
ag1
(g1565
g1513
(dp1750
g464
g526
sVY
I3
sg466
I4
sg467
g527
sg474
I6
sg471
I6
sg472
g511
sVX
I5
sg469
g502
sg476
g492
sg478
g530
sg479
g512
stRp1751
ag1
(g1565
g1513
(dp1752
g464
g572
sVY
I2
sg466
I4
sg467
g573
sg474
I8
sg471
I8
sg472
g492
sVX
I4
sg469
g487
sg476
g530
sg478
g477
sg479
g549
stRp1753
ag1
(g1565
g1513
(dp1754
g464
g545
sVY
I5
sg466
I4
sg467
g546
sg474
I3
sg471
I3
sg472
g530
sVX
I9
sg469
g487
sg476
g492
sg478
g502
sg479
g549
stRp1755
asg1578
Nsg1579
I2
sg1580
I18
sg1581
I0
sg1582
I18
sg1583
I01
sbag1
(g1501
g3
NtRp1756
(dp1757
g1504
Nsg1505
(lp1758
sg1507
I154442768
sg10
g1587
sg6
g1509
sg1510
I1
sg24
I01
sg25
g26
sg1511
g1
(g1512
g1513
(dp1759
g22
g1529
(g1530
g1516
g1531
S'b'
tRp1760
(I1
(I18
I1
tg1533
I00
S'\x00\x00\x80?\x00\x00\x80?\x00\x00\x80?\x00\x00\x80?\x00\x00\x80?\x00\x00\x80?\x00\x00\x80?\x00\x00\x80?\x00\x00\x80?\x00\x00\x80?\x00\x00\x80?\x00\x00\x80?\x00\x00\x80?\x00\x00\x00\x00\x00\x00\x00\x00\x00\x00\x00\x00\x00\x00\x80?\x00\x00\x80?'
S'\x00\x00\x00\x00\x00\x00\x00\x00\x00\x00\x00\x00\x00\x00\x00\x00\x00\x00'
Ntbsg19
g1515
(g1516
(I0
tS'b'
tRp1761
(I1
(I18
I1
tg1518
I00
(lp1762
g730
ag720
ag771
ag804
ag780
ag663
ag763
ag738
ag788
ag683
ag703
ag644
ag755
ag693
ag796
ag673
ag711
ag747
atbsg23
g1529
(g1530
g1516
g1531
S'b'
tRp1763
(I1
(I18
I1
tg1533
I00
S'\xa6\xdd6@;\xd3\x14@\x9aj<@g\xb14@Lp\xde@\x92\xad<@\xd93T@Z\x1aF@\x15\xf5\x87@\xd2\x84\x8a@\xffF\xca@VM\xef@\xc9F\xc3@\xb3{\xf9@\x89\xfe\xb6@\xdd\x9a-AC\x8e\xfe@H\x1d\x02A'
S'\x00\x00\x00\x00\x00\x00\x00\x00\x00\x00\x00\x00\x00\x00\x00\x00\x00\x00'
Ntbsg1528
g1529
(g1530
g1516
g1531
S'b'
tRp1764
(I1
(I18
I1
tg1533
I00
S'\x00\x00\x80?\x00\x00\x80?\x00\x00\x80?\x00\x00\x80?\x00\x00\x80?\x00\x00\x80?\x00\x00\x80?\x00\x00\x80?\x00\x00\x80?\x00\x00\x80?\x00\x00\x80?\x00\x00\x80?\x00\x00\x80?\x00\x00\x80?\x00\x00\x80?\x00\x00\x80?\x00\x00\x80?\x00\x00\x80?'
S'\x00\x00\x00\x00\x00\x00\x00\x00\x00\x00\x00\x00\x00\x00\x00\x00\x00\x00'
Ntbsg21
g1515
(g1516
(I0
tS'b'
tRp1765
(I1
(I18
I1
tg1518
I00
(lp1766
S'7'
aS'2'
aS'8'
aS'6'
aS'7'
aS'8'
aS'2'
aS'5'
aS'6'
aS'5'
aS'9'
aS'8'
aS'6'
aS'5'
aS'6'
aS'5'
aS'3'
aS'1'
atbsg1543
g1529
(g1530
g1516
g1531
S'b'
tRp1767
(I1
(I18
I1
tg1533
I00
S'\x00\x00\x00A\x00\x00\xe0@\x00\x00PA\x00\x00\x88A\x00\x00`A\x00\x00\x80?\x00\x00@A\x00\x00\x10A\x00\x00pA\x00\x00@@\x00\x00\xa0@\x00\x00\x00\x00\x00\x000A\x00\x00\x80@\x00\x00\x80A\x00\x00\x00@\x00\x00\xc0@\x00\x00 A'
S'\x00\x00\x00\x00\x00\x00\x00\x00\x00\x00\x00\x00\x00\x00\x00\x00\x00\x00'
Ntbsg20
g1529
(g1530
g1516
g1531
S'b'
tRp1768
(I1
(I18
I1
tg1533
I00
S'\xd4$\x96?\xed\x08\xc5?\xdb\xcc\xa4?\xd8v\xcd?\xed\xd79@\xa9\x1c&@\xa8\x9f\x17@\xd2/\x03@\xdb\xcbA@\xef\xa3\x17@\x13\r\xb7@xha@\xc3\xb5D@[\xd7\x8e@\x05\xf1\x8d@\xb9-n@/\x10K@\x0c"\x81@'
S'\x00\x00\x00\x00\x00\x00\x00\x00\x00\x00\x00\x00\x00\x00\x00\x00\x00\x00'
NtbstRp1769
(dp1770
g1548
(dp1771
g1528
I01
sg21
I00
sg20
I01
sg22
I01
sg19
I00
sg23
I01
sg1543
I01
ssg1550
g1756
sg1551
(lp1772
g1528
ag1543
ag19
ag20
ag21
ag22
ag23
asg1553
(lp1773
I18
aI1
asbsg1555
g1556
sg1557
g1515
(g1516
(I0
tS'b'
tRp1774
(I1
(I18
I1
tg1518
I00
(lp1775
I11
aI5
aI15
aI9
aI13
aI10
aI16
aI1
aI0
aI7
aI17
aI12
aI6
aI2
aI4
aI8
aI14
aI3
atbsg1560
I01
sg1561
I1
sg1562
I-1
sg1563
(lp1776
g1
(g1565
g1513
(dp1777
g637
g728
sVY
I5
sg639
I2
sg640
g729
sg648
I7
sg645
I7
sg646
g653
sVX
I3
sg642
I0
sg650
g651
sg652
I0
sg654
g723
stRp1778
ag1
(g1565
g1513
(dp1779
g637
g718
sVY
I4
sg639
I2
sg640
g719
sg648
I2
sg645
I2
sg646
g653
sVX
I9
sg642
I0
sg650
g722
sg652
I0
sg654
g723
stRp1780
ag1
(g1565
g1513
(dp1781
g637
g769
sVY
I3
sg639
I2
sg640
g770
sg648
I8
sg645
I8
sg646
g682
sVX
I3
sg642
I0
sg650
g653
sg652
I0
sg654
g773
stRp1782
ag1
(g1565
g1513
(dp1783
g637
g802
sVY
I8
sg639
I2
sg640
g803
sg648
I6
sg645
I6
sg646
g651
sVX
I4
sg642
I0
sg650
g662
sg652
I0
sg654
g773
stRp1784
ag1
(g1565
g1513
(dp1785
g637
g778
sVY
I5
sg639
I3
sg640
g779
sg648
I7
sg645
I7
sg646
g643
sVX
I2
sg642
g653
sg650
g651
sg652
I0
sg654
g665
stRp1786
ag1
(g1565
g1513
(dp1787
g637
g660
sVY
I2
sg639
I3
sg640
g661
sg648
I8
sg645
I8
sg646
g647
sVX
I4
sg642
g662
sg650
g651
sg652
I0
sg654
g665
stRp1788
ag1
(g1565
g1513
(dp1789
g637
g761
sVY
I3
sg639
I3
sg640
g762
sg648
I2
sg645
I2
sg646
g672
sVX
I3
sg642
g684
sg650
g643
sg652
I0
sg654
g740
stRp1790
ag1
(g1565
g1513
(dp1791
g637
g736
sVY
I3
sg639
I3
sg640
g737
sg648
I5
sg645
I5
sg646
g651
sVX
I2
sg642
g662
sg650
g684
sg652
I0
sg654
g740
stRp1792
ag1
(g1565
g1513
(dp1793
g637
g786
sVY
I4
sg639
I3
sg640
g787
sg648
I6
sg645
I6
sg646
g695
sVX
I5
sg642
g651
sg650
g643
sg652
I0
sg654
g686
stRp1794
ag1
(g1565
g1513
(dp1795
g637
g680
sVY
I3
sg639
I3
sg640
g681
sg648
I5
sg645
I5
sg646
g684
sVX
I3
sg642
g682
sg650
g662
sg652
I0
sg654
g686
stRp1796
ag1
(g1565
g1513
(dp1797
g637
g701
sVY
I4
sg639
I4
sg640
g702
sg648
I9
sg645
I9
sg646
g653
sVX
I9
sg642
g695
sg650
g651
sg652
g643
sg654
g655
stRp1798
ag1
(g1565
g1513
(dp1799
g637
g638
sVY
I2
sg639
I4
sg640
g641
sg648
I8
sg645
I8
sg646
g647
sVX
I2
sg642
g643
sg650
g651
sg652
g653
sg654
g655
stRp1800
ag1
(g1565
g1513
(dp1801
g637
g753
sVY
I6
sg639
I4
sg640
g754
sg648
I6
sg645
I6
sg646
g651
sVX
I6
sg642
g695
sg650
g653
sg652
g662
sg654
g696
stRp1802
ag1
(g1565
g1513
(dp1803
g637
g691
sVY
I2
sg639
I4
sg640
g692
sg648
I3
sg645
I3
sg646
g672
sVX
I9
sg642
g643
sg650
g653
sg652
g695
sg654
g696
stRp1804
ag1
(g1565
g1513
(dp1805
g637
g794
sVY
I3
sg639
I4
sg640
g795
sg648
I5
sg645
I5
sg646
g643
sVX
I3
sg642
g682
sg650
g653
sg652
g695
sg654
g675
stRp1806
ag1
(g1565
g1513
(dp1807
g637
g670
sVY
I3
sg639
I4
sg640
g671
sg648
I8
sg645
I8
sg646
g647
sVX
I3
sg642
g672
sg650
g653
sg652
g643
sg654
g675
stRp1808
ag1
(g1565
g1513
(dp1809
g637
g709
sVY
I4
sg639
I4
sg640
g710
sg648
I3
sg645
I3
sg646
g662
sVX
I3
sg642
g695
sg650
g684
sg652
g682
sg654
g713
stRp1810
ag1
(g1565
g1513
(dp1811
g637
g745
sVY
I2
sg639
I4
sg640
g746
sg648
I1
sg645
I1
sg646
g662
sVX
I7
sg642
g684
sg650
g695
sg652
g672
sg654
g713
stRp1812
asg1578
Nsg1579
I3
sg1580
I18
sg1581
I0
sg1582
I18
sg1583
I01
sbag1
(g1501
g3
NtRp1813
(dp1814
g1504
Nsg1505
(lp1815
sg1507
I154442768
sg10
g1587
sg6
g1509
sg1510
I1
sg24
I01
sg25
g26
sg1511
g1
(g1512
g1513
(dp1816
g22
g1529
(g1530
g1516
g1531
S'b'
tRp1817
(I1
(I18
I1
tg1533
I00
S'\x00\x00\x80?\x00\x00\x80?\x00\x00\x80?\x00\x00\x80?\x00\x00\x80?\x00\x00\x80?\x00\x00\x80?\x00\x00\x80?\x00\x00\x80?\x00\x00\x80?\x00\x00\x80?\x00\x00\x00\x00\x00\x00\x80?\x00\x00\x80?\x00\x00\x80?\x00\x00\x80?\x00\x00\x80?\x00\x00\x80?'
S'\x00\x00\x00\x00\x00\x00\x00\x00\x00\x00\x00\x00\x00\x00\x00\x00\x00\x00'
Ntbsg19
g1515
(g1516
(I0
tS'b'
tRp1818
(I1
(I18
I1
tg1518
I00
(lp1819
g858
ag969
ag961
ag911
ag876
ag885
ag836
ag929
ag902
ag937
ag817
ag894
ag977
ag867
ag953
ag920
ag847
ag945
atbsg23
g1529
(g1530
g1516
g1531
S'b'
tRp1820
(I1
(I18
I1
tg1533
I00
S'\xe0\xdf\x1b@l\x1fM@8L\t@\xf53\xbb?\x18\x97\xa7@\xb8\x1cK@\xa6\xc2\x86@\xbc=\x87@\xfa&x@\xc1}\\@\x95\xb8<Adz\x11A\x911\xec@\xc5Z\x8a@\xda.z@\xe0\\\xdc@(\xf2\x03AR`\x02A'
S'\x00\x00\x00\x00\x00\x00\x00\x00\x00\x00\x00\x00\x00\x00\x00\x00\x00\x00'
Ntbsg1528
g1529
(g1530
g1516
g1531
S'b'
tRp1821
(I1
(I18
I1
tg1533
I00
S'\x00\x00\x80?\x00\x00\x80?\x00\x00\x80?\x00\x00\x80?\x00\x00\x80?\x00\x00\x80?\x00\x00\x80?\x00\x00\x80?\x00\x00\x80?\x00\x00\x80?\x00\x00\x80?\x00\x00\x80?\x00\x00\x80?\x00\x00\x80?\x00\x00\x80?\x00\x00\x80?\x00\x00\x80?\x00\x00\x80?'
S'\x00\x00\x00\x00\x00\x00\x00\x00\x00\x00\x00\x00\x00\x00\x00\x00\x00\x00'
Ntbsg21
g1515
(g1516
(I0
tS'b'
tRp1822
(I1
(I18
I1
tg1518
I00
(lp1823
S'7'
aS'9'
aS'2'
aS'5'
aS'9'
aS'3'
aS'8'
aS'3'
aS'9'
aS'6'
aS'5'
aS'6'
aS'5'
aS'7'
aS'6'
aS'9'
aS'5'
aS'5'
atbsg1543
g1529
(g1530
g1516
g1531
S'b'
tRp1824
(I1
(I18
I1
tg1533
I00
S'\x00\x00@@\x00\x00\x80A\x00\x00pA\x00\x00\x10A\x00\x00\xa0@\x00\x00\xc0@\x00\x00\x80?\x00\x000A\x00\x00\x00A\x00\x00@A\x00\x00\x00\x00\x00\x00\xe0@\x00\x00\x88A\x00\x00\x80@\x00\x00`A\x00\x00 A\x00\x00\x00@\x00\x00PA'
S'\x00\x00\x00\x00\x00\x00\x00\x00\x00\x00\x00\x00\x00\x00\x00\x00\x00\x00'
Ntbsg20
g1529
(g1530
g1516
g1531
S'b'
tRp1825
(I1
(I18
I1
tg1533
I00
S"4\xf4\xca?=\xca\xa8?\x88\x85\xc5?be\x08@$.Y@\x8e\xa3=@\xa4]+@\xbe?\xf6?,J^@\xab\x91\x83@\xfc\x9fw@\xd4\xe4\xc7@0*'@\xcf|\t@\x86H\x99@\x10\xd6\x8a@\xe1J\x9b@\xf5\xe1\x87@"
S'\x00\x00\x00\x00\x00\x00\x00\x00\x00\x00\x00\x00\x00\x00\x00\x00\x00\x00'
NtbstRp1826
(dp1827
g1548
(dp1828
g1528
I01
sg21
I00
sg20
I01
sg22
I01
sg19
I00
sg23
I01
sg1543
I01
ssg1550
g1813
sg1551
(lp1829
g1528
ag1543
ag19
ag20
ag21
ag22
ag23
asg1553
(lp1830
I18
aI1
asbsg1555
g1556
sg1557
g1515
(g1516
(I0
tS'b'
tRp1831
(I1
(I18
I1
tg1518
I00
(lp1832
I10
aI6
aI16
aI0
aI13
aI4
aI5
aI11
aI8
aI3
aI15
aI7
aI9
aI17
aI14
aI2
aI1
aI12
atbsg1560
I01
sg1561
I1
sg1562
I-1
sg1563
(lp1833
g1
(g1565
g1513
(dp1834
g810
g856
sVY
I5
sg812
I2
sg813
g857
sg821
I7
sg818
I7
sg819
g839
sVX
I4
sg815
I0
sg823
g850
sg825
I0
sg827
g860
stRp1835
ag1
(g1565
g1513
(dp1836
g810
g967
sVY
I3
sg812
I2
sg813
g968
sg821
I9
sg818
I9
sg819
g826
sVX
I4
sg815
I0
sg823
g887
sg825
I0
sg827
g860
stRp1837
ag1
(g1565
g1513
(dp1838
g810
g959
sVY
I8
sg812
I2
sg813
g960
sg821
I2
sg818
I2
sg819
g824
sVX
I8
sg815
I0
sg823
g820
sg825
I0
sg827
g913
stRp1839
ag1
(g1565
g1513
(dp1840
g810
g909
sVY
I2
sg812
I2
sg813
g910
sg821
I5
sg818
I5
sg819
g824
sVX
I8
sg815
I0
sg823
g816
sg825
I0
sg827
g913
stRp1841
ag1
(g1565
g1513
(dp1842
g810
g874
sVY
I2
sg812
I3
sg813
g875
sg821
I9
sg818
I9
sg819
g826
sVX
I7
sg815
g835
sg823
g824
sg825
I0
sg827
g878
stRp1843
ag1
(g1565
g1513
(dp1844
g810
g883
sVY
I2
sg812
I3
sg813
g884
sg821
I3
sg818
I3
sg819
g816
sVX
I8
sg815
g839
sg823
g887
sg825
I0
sg827
g878
stRp1845
ag1
(g1565
g1513
(dp1846
g810
g833
sVY
I2
sg812
I3
sg813
g834
sg821
I8
sg818
I8
sg819
g837
sVX
I9
sg815
g835
sg823
g839
sg825
I0
sg827
g840
stRp1847
ag1
(g1565
g1513
(dp1848
g810
g927
sVY
I3
sg812
I3
sg813
g928
sg821
I3
sg818
I3
sg819
g824
sVX
I2
sg815
g826
sg823
g816
sg825
I0
sg827
g840
stRp1849
ag1
(g1565
g1513
(dp1850
g810
g900
sVY
I3
sg812
I3
sg813
g901
sg821
I9
sg818
I9
sg819
g839
sVX
I3
sg815
g850
sg823
g826
sg825
I0
sg827
g904
stRp1851
ag1
(g1565
g1513
(dp1852
g810
g935
sVY
I2
sg812
I3
sg813
g936
sg821
I6
sg818
I6
sg819
g816
sVX
I3
sg815
g887
sg823
g826
sg825
I0
sg827
g904
stRp1853
ag1
(g1565
g1513
(dp1854
g810
g811
sVY
I4
sg812
I4
sg813
g814
sg821
I5
sg818
I5
sg819
g820
sVX
I3
sg815
g816
sg823
g824
sg825
g826
sg827
g828
stRp1855
ag1
(g1565
g1513
(dp1856
g810
g892
sVY
I9
sg812
I4
sg813
g893
sg821
I9
sg818
I9
sg819
g839
sVX
I3
sg815
g816
sg823
g837
sg825
g848
sg827
g828
stRp1857
ag1
(g1565
g1513
(dp1858
g810
g975
sVY
I4
sg812
I4
sg813
g976
sg821
I5
sg818
I5
sg819
g887
sVX
I5
sg815
g835
sg823
g839
sg825
g826
sg827
g869
stRp1859
ag1
(g1565
g1513
(dp1860
g810
g865
sVY
I2
sg812
I4
sg813
g866
sg821
I7
sg818
I7
sg819
g837
sVX
I2
sg815
g826
sg823
g816
sg825
g839
sg827
g869
stRp1861
ag1
(g1565
g1513
(dp1862
g810
g951
sVY
I4
sg812
I4
sg813
g952
sg821
I6
sg818
I6
sg819
g820
sVX
I4
sg815
g887
sg823
g826
sg825
g816
sg827
g922
stRp1863
ag1
(g1565
g1513
(dp1864
g810
g918
sVY
I8
sg812
I4
sg813
g919
sg821
I9
sg818
I9
sg819
g816
sVX
I8
sg815
g824
sg823
g826
sg825
g820
sg827
g922
stRp1865
ag1
(g1565
g1513
(dp1866
g810
g845
sVY
I4
sg812
I4
sg813
g846
sg821
I5
sg818
I5
sg819
g848
sVX
I5
sg815
g820
sg823
g835
sg825
g850
sg827
g851
stRp1867
ag1
(g1565
g1513
(dp1868
g810
g943
sVY
I4
sg812
I4
sg813
g944
sg821
I5
sg818
I5
sg819
g816
sVX
I7
sg815
g839
sg823
g848
sg825
g837
sg827
g851
stRp1869
asg1578
Nsg1579
I12
sg1580
I18
sg1581
I0
sg1582
I18
sg1583
I01
sbag1
(g1501
g3
NtRp1870
(dp1871
g1504
Nsg1505
(lp1872
sg1507
I154442768
sg10
g1587
sg6
g1509
sg1510
I1
sg24
I01
sg25
g26
sg1511
g1
(g1512
g1513
(dp1873
g22
g1529
(g1530
g1516
g1531
S'b'
tRp1874
(I1
(I18
I1
tg1533
I00
S'\x00\x00\x80?\x00\x00\x80?\x00\x00\x80?\x00\x00\x80?\x00\x00\x80?\x00\x00\x80?\x00\x00\x80?\x00\x00\x80?\x00\x00\x80?\x00\x00\x80?\x00\x00\x80?\x00\x00\x80?\x00\x00\x00\x00\x00\x00\x00\x00\x00\x00\x80?\x00\x00\x00\x00\x00\x00\x80?\x00\x00\x80?'
S'\x00\x00\x00\x00\x00\x00\x00\x00\x00\x00\x00\x00\x00\x00\x00\x00\x00\x00'
Ntbsg19
g1515
(g1516
(I0
tS'b'
tRp1875
(I1
(I18
I1
tg1518
I00
(lp1876
g1056
ag1109
ag1126
ag1047
ag1066
ag1028
ag1134
ag1008
ag1074
ag1142
ag1150
ag1117
ag1018
ag990
ag1084
ag1101
ag1093
ag1037
atbsg23
g1529
(g1530
g1516
g1531
S'b'
tRp1877
(I1
(I18
I1
tg1533
I00
S'\xef]\x07@^\xfbl@\x1a\x87\xb8?\x1aL\xea?\x9a\xd6B@Eu\xd1@@\x00\x88@88\x95@U\xc6;@\xb2\xa1\x96@\x93\x92(A\xd7\xb6\xc1@^\xe3\x16A\x14\xee\x06A/\x04\x12Ae{\xca@h*\xd1@\x05\xc1\x9c@'
S'\x00\x00\x00\x00\x00\x00\x00\x00\x00\x00\x00\x00\x00\x00\x00\x00\x00\x00'
Ntbsg1528
g1529
(g1530
g1516
g1531
S'b'
tRp1878
(I1
(I18
I1
tg1533
I00
S'\x00\x00\x80?\x00\x00\x80?\x00\x00\x80?\x00\x00\x80?\x00\x00\x80?\x00\x00\x80?\x00\x00\x80?\x00\x00\x80?\x00\x00\x80?\x00\x00\x80?\x00\x00\x80?\x00\x00\x80?\x00\x00\x80?\x00\x00\x80?\x00\x00\x80?\x00\x00\x80?\x00\x00\x80?\x00\x00\x80?'
S'\x00\x00\x00\x00\x00\x00\x00\x00\x00\x00\x00\x00\x00\x00\x00\x00\x00\x00'
Ntbsg21
g1515
(g1516
(I0
tS'b'
tRp1879
(I1
(I18
I1
tg1518
I00
(lp1880
S'1'
aS'4'
aS'9'
aS'6'
aS'6'
aS'7'
aS'8'
aS'2'
aS'1'
aS'9'
aS'1'
aS'2'
aS'3'
aS'9'
aS'7'
aS'3'
aS'5'
aS'7'
atbsg1543
g1529
(g1530
g1516
g1531
S'b'
tRp1881
(I1
(I18
I1
tg1533
I00
S'\x00\x00\xc0@\x00\x00@A\x00\x00`A\x00\x00\xa0@\x00\x00\xe0@\x00\x00@@\x00\x00pA\x00\x00\x80?\x00\x00\x00A\x00\x00\x80A\x00\x00\x88A\x00\x00PA\x00\x00\x00@\x00\x00\x00\x00\x00\x00\x10A\x00\x000A\x00\x00 A\x00\x00\x80@'
S'\x00\x00\x00\x00\x00\x00\x00\x00\x00\x00\x00\x00\x00\x00\x00\x00\x00\x00'
Ntbsg20
g1529
(g1530
g1516
g1531
S'b'
tRp1882
(I1
(I18
I1
tg1533
I00
S'6=\xc7?\x9c\x9a\xcb?\xacox@\xc4\x9d\xc7?\x83\x14\xec?@\xf3S@s\x03\xe6?]\x0f"@\x8a\xf8\xe9?\x89\x972@\xab*y@\xd8<_@\'\xc5\x10@\xe2(V@` K@\xce\xf2\x90@\xc8\xdaP@\xb9\x1dz@'
S'\x00\x00\x00\x00\x00\x00\x00\x00\x00\x00\x00\x00\x00\x00\x00\x00\x00\x00'
NtbstRp1883
(dp1884
g1548
(dp1885
g1528
I01
sg21
I00
sg20
I01
sg22
I01
sg19
I00
sg23
I01
sg1543
I01
ssg1550
g1870
sg1551
(lp1886
g1528
ag1543
ag19
ag20
ag21
ag22
ag23
asg1553
(lp1887
I18
aI1
asbsg1555
g1556
sg1557
g1515
(g1516
(I0
tS'b'
tRp1888
(I1
(I18
I1
tg1518
I00
(lp1889
I13
aI7
aI12
aI5
aI17
aI3
aI0
aI4
aI8
aI14
aI16
aI15
aI1
aI11
aI2
aI6
aI9
aI10
atbsg1560
I01
sg1561
I1
sg1562
I-1
sg1563
(lp1890
g1
(g1565
g1513
(dp1891
g983
g1054
sVY
I2
sg985
I2
sg986
g1055
sg994
I1
sg991
I1
sg992
g1057
sVX
I9
sg988
I0
sg996
g993
sg998
I0
sg1000
g1059
stRp1892
ag1
(g1565
g1513
(dp1893
g983
g1107
sVY
I4
sg985
I2
sg986
g1108
sg994
I4
sg991
I4
sg992
g1057
sVX
I3
sg988
I0
sg996
g1083
sg998
I0
sg1000
g1059
stRp1894
ag1
(g1565
g1513
(dp1895
g983
g1124
sVY
I4
sg985
I2
sg986
g1125
sg994
I9
sg991
I9
sg992
g1083
sVX
I2
sg988
I0
sg996
g989
sg998
I0
sg1000
g1049
stRp1896
ag1
(g1565
g1513
(dp1897
g983
g1045
sVY
I6
sg985
I2
sg986
g1046
sg994
I6
sg991
I6
sg992
g993
sVX
I8
sg988
I0
sg996
g997
sg998
I0
sg1000
g1049
stRp1898
ag1
(g1565
g1513
(dp1899
g983
g1064
sVY
I4
sg985
I3
sg986
g1065
sg994
I6
sg991
I6
sg992
g1020
sVX
I6
sg988
g999
sg996
g1039
sg998
I0
sg1000
g1030
stRp1900
ag1
(g1565
g1513
(dp1901
g983
g1026
sVY
I9
sg985
I3
sg986
g1027
sg994
I7
sg991
I7
sg992
g1021
sVX
I9
sg988
g1020
sg996
g993
sg998
I0
sg1000
g1030
stRp1902
ag1
(g1565
g1513
(dp1903
g983
g1132
sVY
I4
sg985
I3
sg986
g1133
sg994
I8
sg991
I8
sg992
g1083
sVX
I3
sg988
g1057
sg996
g1021
sg998
I0
sg1000
g1011
stRp1904
ag1
(g1565
g1513
(dp1905
g983
g1006
sVY
I2
sg985
I3
sg986
g1007
sg994
I2
sg991
I2
sg992
g1009
sVX
I4
sg988
g999
sg996
g989
sg998
I0
sg1000
g1011
stRp1906
ag1
(g1565
g1513
(dp1907
g983
g1072
sVY
I2
sg985
I3
sg986
g1073
sg994
I1
sg991
I1
sg992
g999
sVX
I8
sg988
g1009
sg996
g1020
sg998
I0
sg1000
g1076
stRp1908
ag1
(g1565
g1513
(dp1909
g983
g1140
sVY
I3
sg985
I3
sg986
g1141
sg994
I9
sg991
I9
sg992
g999
sVX
I2
sg988
g1083
sg996
g997
sg998
I0
sg1000
g1076
stRp1910
ag1
(g1565
g1513
(dp1911
g983
g1148
sVY
I3
sg985
I4
sg986
g1149
sg994
I1
sg991
I1
sg992
g1020
sVX
I6
sg988
g1057
sg996
g1009
sg998
g1021
sg1000
g1119
stRp1912
ag1
(g1565
g1513
(dp1913
g983
g1115
sVY
I2
sg985
I4
sg986
g1116
sg994
I2
sg991
I2
sg992
g1020
sVX
I3
sg988
g1057
sg996
g1083
sg998
g1021
sg1000
g1119
stRp1914
ag1
(g1565
g1513
(dp1915
g983
g1016
sVY
I9
sg985
I4
sg986
g1017
sg994
I1
sg991
I1
sg992
g1009
sVX
I3
sg988
g997
sg996
g1020
sg998
g1021
sg1000
g1001
stRp1916
ag1
(g1565
g1513
(dp1917
g983
g984
sVY
I3
sg985
I4
sg986
g987
sg994
I3
sg991
I3
sg992
g993
sVX
I6
sg988
g989
sg996
g997
sg998
g999
sg1000
g1001
stRp1918
ag1
(g1565
g1513
(dp1919
g983
g1081
sVY
I2
sg985
I4
sg986
g1082
sg994
I7
sg991
I7
sg992
g999
sVX
I2
sg988
g1083
sg996
g989
sg998
g997
sg1000
g1086
stRp1920
ag1
(g1565
g1513
(dp1921
g983
g1099
sVY
I2
sg985
I4
sg986
g1100
sg994
I1
sg991
I1
sg992
g989
sVX
I8
sg988
g993
sg996
g1057
sg998
g999
sg1000
g1086
stRp1922
ag1
(g1565
g1513
(dp1923
g983
g1091
sVY
I2
sg985
I4
sg986
g1092
sg994
I5
sg991
I5
sg992
g999
sVX
I2
sg988
g997
sg996
g1020
sg998
g1039
sg1000
g1040
stRp1924
ag1
(g1565
g1513
(dp1925
g983
g1035
sVY
I2
sg985
I4
sg986
g1036
sg994
I7
sg991
I7
sg992
g997
sVX
I2
sg988
g999
sg996
g989
sg998
g1039
sg1000
g1040
stRp1926
asg1578
Nsg1579
I10
sg1580
I18
sg1581
I0
sg1582
I18
sg1583
I01
sbag1
(g1501
g3
NtRp1927
(dp1928
g1504
Nsg1505
(lp1929
sg1507
I154442768
sg10
g1587
sg6
g1509
sg1510
I1
sg24
I01
sg25
g26
sg1511
g1
(g1512
g1513
(dp1930
g22
g1529
(g1530
g1516
g1531
S'b'
tRp1931
(I1
(I18
I1
tg1533
I00
S'\x00\x00\x80?\x00\x00\x80?\x00\x00\x80?\x00\x00\x80?\x00\x00\x80?\x00\x00\x80?\x00\x00\x80?\x00\x00\x80?\x00\x00\x80?\x00\x00\x80?\x00\x00\x80?\x00\x00\x00\x00\x00\x00\x80?\x00\x00\x80?\x00\x00\x00\x00\x00\x00\x80?\x00\x00\x80?\x00\x00\x00\x00'
S'\x00\x00\x00\x00\x00\x00\x00\x00\x00\x00\x00\x00\x00\x00\x00\x00\x00\x00'
Ntbsg19
g1515
(g1516
(I0
tS'b'
tRp1932
(I1
(I18
I1
tg1518
I00
(lp1933
g1323
ag1274
ag1256
ag1315
ag1193
ag1291
ag1222
ag1163
ag1239
ag1299
ag1181
ag1248
ag1230
ag1307
ag1265
ag1283
ag1202
ag1213
atbsg23
g1529
(g1530
g1516
g1531
S'b'
tRp1934
(I1
(I18
I1
tg1533
I00
S'\x1eV\xd9?\xf5\x0b;@r\x904@el\x04@\x9d\xf5P@^\x9d2@W\x0ey@\xca@\x7f@\xb2\xb3:@P[`@\x95\xf7\xa5@\xe9\xf7$AM\xe7\xae@\x94\xfe\xcf@\xe3\xae\xb8@\xc6\x12\xac@\x9a\xb1\xd7@>\x061A'
S'\x00\x00\x00\x00\x00\x00\x00\x00\x00\x00\x00\x00\x00\x00\x00\x00\x00\x00'
Ntbsg1528
g1529
(g1530
g1516
g1531
S'b'
tRp1935
(I1
(I18
I1
tg1533
I00
S'\x00\x00\x80?\x00\x00\x80?\x00\x00\x80?\x00\x00\x80?\x00\x00\x80?\x00\x00\x80?\x00\x00\x80?\x00\x00\x80?\x00\x00\x80?\x00\x00\x80?\x00\x00\x80?\x00\x00\x80?\x00\x00\x80?\x00\x00\x80?\x00\x00\x80?\x00\x00\x80?\x00\x00\x80?\x00\x00\x80?'
S'\x00\x00\x00\x00\x00\x00\x00\x00\x00\x00\x00\x00\x00\x00\x00\x00\x00\x00'
Ntbsg21
g1515
(g1516
(I0
tS'b'
tRp1936
(I1
(I18
I1
tg1518
I00
(lp1937
S'2'
aS'3'
aS'1'
aS'6'
aS'9'
aS'4'
aS'6'
aS'3'
aS'7'
aS'1'
aS'8'
aS'4'
aS'8'
aS'2'
aS'6'
aS'1'
aS'6'
aS'5'
atbsg1543
g1529
(g1530
g1516
g1531
S'b'
tRp1938
(I1
(I18
I1
tg1533
I00
S'\x00\x00\x88A\x00\x000A\x00\x00\x10A\x00\x00\x80A\x00\x00\x00@\x00\x00PA\x00\x00\xa0@\x00\x00\x00\x00\x00\x00\xe0@\x00\x00`A\x00\x00\x80?\x00\x00\x00A\x00\x00\xc0@\x00\x00pA\x00\x00 A\x00\x00@A\x00\x00@@\x00\x00\x80@'
S'\x00\x00\x00\x00\x00\x00\x00\x00\x00\x00\x00\x00\x00\x00\x00\x00\x00\x00'
Ntbsg20
g1529
(g1530
g1516
g1531
S'b'
tRp1939
(I1
(I18
I1
tg1533
I00
S"<\nk?\xca\x16\x08@\t\xb9\x96@\x9e\xda\x8b?\x07A'@\x00H\x04@\xe0H\xc4@\xb6\xabx@\xa1\xbc\xa5?J\xae\x08@\xb7\xb3a@!a,@v\xb6\x13@P\x05\x1b@\xf7\x16~@\xb4\x82\x00@\x98*S@\xdc\xc7\x85@"
S'\x00\x00\x00\x00\x00\x00\x00\x00\x00\x00\x00\x00\x00\x00\x00\x00\x00\x00'
NtbstRp1940
(dp1941
g1548
(dp1942
g1528
I01
sg21
I00
sg20
I01
sg22
I01
sg19
I00
sg23
I01
sg1543
I01
ssg1550
g1927
sg1551
(lp1943
g1528
ag1543
ag19
ag20
ag21
ag22
ag23
asg1553
(lp1944
I18
aI1
asbsg1555
g1556
sg1557
g1515
(g1516
(I0
tS'b'
tRp1945
(I1
(I18
I1
tg1518
I00
(lp1946
I7
aI10
aI4
aI16
aI17
aI6
aI12
aI8
aI11
aI2
aI14
aI1
aI15
aI5
aI9
aI13
aI3
aI0
atbsg1560
I01
sg1561
I1
sg1562
I-1
sg1563
(lp1947
g1
(g1565
g1513
(dp1948
g1156
g1321
sVY
I2
sg1158
I2
sg1159
g1322
sg1167
I2
sg1164
I2
sg1165
g1170
sVX
I3
sg1161
I0
sg1169
g1205
sg1171
I0
sg1172
g1276
stRp1949
ag1
(g1565
g1513
(dp1950
g1156
g1272
sVY
I2
sg1158
I2
sg1159
g1273
sg1167
I3
sg1164
I3
sg1165
g1180
sVX
I6
sg1161
I0
sg1169
g1166
sg1171
I0
sg1172
g1276
stRp1951
ag1
(g1565
g1513
(dp1952
g1156
g1254
sVY
I4
sg1158
I2
sg1159
g1255
sg1167
I1
sg1164
I1
sg1165
g1205
sVX
I8
sg1161
I0
sg1169
g1180
sg1171
I0
sg1172
g1258
stRp1953
ag1
(g1565
g1513
(dp1954
g1156
g1313
sVY
I2
sg1158
I2
sg1159
g1314
sg1167
I6
sg1164
I6
sg1165
g1184
sVX
I3
sg1161
I0
sg1169
g1170
sg1171
I0
sg1172
g1258
stRp1955
ag1
(g1565
g1513
(dp1956
g1156
g1191
sVY
I8
sg1158
I3
sg1159
g1192
sg1167
I9
sg1164
I9
sg1165
g1162
sVX
I6
sg1161
g1185
sg1169
g1184
sg1171
I0
sg1172
g1195
stRp1957
ag1
(g1565
g1513
(dp1958
g1156
g1289
sVY
I2
sg1158
I3
sg1159
g1290
sg1167
I4
sg1164
I4
sg1165
g1180
sVX
I3
sg1161
g1203
sg1169
g1205
sg1171
I0
sg1172
g1195
stRp1959
ag1
(g1565
g1513
(dp1960
g1156
g1220
sVY
I3
sg1158
I3
sg1159
g1221
sg1167
I6
sg1164
I6
sg1165
g1184
sVX
I3
sg1161
g1203
sg1169
g1162
sg1171
I0
sg1172
g1173
stRp1961
ag1
(g1565
g1513
(dp1962
g1156
g1157
sVY
I2
sg1158
I3
sg1159
g1160
sg1167
I3
sg1164
I3
sg1165
g1166
sVX
I8
sg1161
g1162
sg1169
g1170
sg1171
I0
sg1172
g1173
stRp1963
ag1
(g1565
g1513
(dp1964
g1156
g1237
sVY
I3
sg1158
I3
sg1159
g1238
sg1167
I7
sg1164
I7
sg1165
g1203
sVX
I6
sg1161
g1205
sg1169
g1170
sg1171
I0
sg1172
g1241
stRp1965
ag1
(g1565
g1513
(dp1966
g1156
g1297
sVY
I3
sg1158
I3
sg1159
g1298
sg1167
I1
sg1164
I1
sg1165
g1162
sVX
I3
sg1161
g1184
sg1169
g1185
sg1171
I0
sg1172
g1241
stRp1967
ag1
(g1565
g1513
(dp1968
g1156
g1178
sVY
I6
sg1158
I4
sg1159
g1179
sg1167
I8
sg1164
I8
sg1165
g1182
sVX
I6
sg1161
g1180
sg1169
g1184
sg1171
g1185
sg1172
g1186
stRp1969
ag1
(g1565
g1513
(dp1970
g1156
g1246
sVY
I9
sg1158
I4
sg1159
g1247
sg1167
I8
sg1164
I8
sg1165
g1180
sVX
I3
sg1161
g1203
sg1169
g1166
sg1171
g1182
sg1172
g1186
stRp1971
ag1
(g1565
g1513
(dp1972
g1156
g1228
sVY
I2
sg1158
I4
sg1159
g1229
sg1167
I8
sg1164
I8
sg1165
g1184
sVX
I3
sg1161
g1170
sg1169
g1182
sg1171
g1185
sg1172
g1232
stRp1973
ag1
(g1565
g1513
(dp1974
g1156
g1305
sVY
I3
sg1158
I4
sg1159
g1306
sg1167
I2
sg1164
I2
sg1165
g1215
sVX
I2
sg1161
g1182
sg1169
g1185
sg1171
g1180
sg1172
g1232
stRp1975
ag1
(g1565
g1513
(dp1976
g1156
g1263
sVY
I7
sg1158
I4
sg1159
g1264
sg1167
I8
sg1164
I8
sg1165
g1182
sVX
I6
sg1161
g1184
sg1169
g1185
sg1171
g1180
sg1172
g1267
stRp1977
ag1
(g1565
g1513
(dp1978
g1156
g1281
sVY
I9
sg1158
I4
sg1159
g1282
sg1167
I1
sg1164
I1
sg1165
g1170
sVX
I9
sg1161
g1205
sg1169
g1185
sg1171
g1182
sg1172
g1267
stRp1979
ag1
(g1565
g1513
(dp1980
g1156
g1200
sVY
I3
sg1158
I4
sg1159
g1201
sg1167
I6
sg1164
I6
sg1165
g1203
sVX
I9
sg1161
g1170
sg1169
g1162
sg1171
g1205
sg1172
g1206
stRp1981
ag1
(g1565
g1513
(dp1982
g1156
g1211
sVY
I4
sg1158
I4
sg1159
g1212
sg1167
I6
sg1164
I6
sg1165
g1182
sVX
I2
sg1161
g1170
sg1169
g1185
sg1171
g1215
sg1172
g1206
stRp1983
asg1578
Nsg1579
I0
sg1580
I18
sg1581
I0
sg1582
I18
sg1583
I01
sbag1
(g1501
g3
NtRp1984
(dp1985
g1504
Nsg1505
(lp1986
sg1507
I154442768
sg10
g1587
sg6
g1509
sg1510
I1
sg24
I01
sg25
g26
sg1511
g1
(g1512
g1513
(dp1987
g22
g1529
(g1530
g1516
g1531
S'b'
tRp1988
(I1
(I18
I1
tg1533
I00
S'\x00\x00\x80?\x00\x00\x80?\x00\x00\x80?\x00\x00\x80?\x00\x00\x80?\x00\x00\x80?\x00\x00\x80?\x00\x00\x80?\x00\x00\x80?\x00\x00\x80?\x00\x00\x00\x00\x00\x00\x80?\x00\x00\x80?\x00\x00\x80?\x00\x00\x80?\x00\x00\x80?\x00\x00\x80?\x00\x00\x80?'
S'\x00\x00\x00\x00\x00\x00\x00\x00\x00\x00\x00\x00\x00\x00\x00\x00\x00\x00'
Ntbsg19
g1515
(g1516
(I0
tS'b'
tRp1989
(I1
(I18
I1
tg1518
I00
(lp1990
g1456
ag1438
ag1464
ag1429
ag1336
ag1472
ag1395
ag1497
ag1387
ag1377
ag1366
ag1404
ag1488
ag1447
ag1354
ag1480
ag1421
ag1412
atbsg23
g1529
(g1530
g1516
g1531
S'b'
tRp1991
(I1
(I18
I1
tg1533
I00
S'1\xa2\xfc? 4!@48O@R\x9c_@\x91\xc66@ \x00R@~\x16\x93@@^6@\x87\xd2\x84@\xdd\x8fQ@g\x82\x06A\xcc\xc6\xc3@\x16\xf6\x8b@\x9a\x82\xb9@\xfcg\xa5@\xd6X\xb6@\xae\xfc\xb5@\xe3\xba\x93@'
S'\x00\x00\x00\x00\x00\x00\x00\x00\x00\x00\x00\x00\x00\x00\x00\x00\x00\x00'
Ntbsg1528
g1529
(g1530
g1516
g1531
S'b'
tRp1992
(I1
(I18
I1
tg1533
I00
S'\x00\x00\x80?\x00\x00\x80?\x00\x00\x80?\x00\x00\x80?\x00\x00\x80?\x00\x00\x80?\x00\x00\x80?\x00\x00\x80?\x00\x00\x80?\x00\x00\x80?\x00\x00\x80?\x00\x00\x80?\x00\x00\x80?\x00\x00\x80?\x00\x00\x80?\x00\x00\x80?\x00\x00\x80?\x00\x00\x80?'
S'\x00\x00\x00\x00\x00\x00\x00\x00\x00\x00\x00\x00\x00\x00\x00\x00\x00\x00'
Ntbsg21
g1515
(g1516
(I0
tS'b'
tRp1993
(I1
(I18
I1
tg1518
I00
(lp1994
S'8'
aS'2'
aS'2'
aS'8'
aS'1'
aS'2'
aS'1'
aS'2'
aS'8'
aS'6'
aS'6'
aS'1'
aS'9'
aS'7'
aS'3'
aS'6'
aS'5'
aS'4'
atbsg1543
g1529
(g1530
g1516
g1531
S'b'
tRp1995
(I1
(I18
I1
tg1533
I00
S'\x00\x00@A\x00\x00 A\x00\x00PA\x00\x00\x10A\x00\x00\x00\x00\x00\x00`A\x00\x00\xa0@\x00\x00\x88A\x00\x00\x80@\x00\x00@@\x00\x00\x00@\x00\x00\xc0@\x00\x00\x80A\x00\x000A\x00\x00\x80?\x00\x00pA\x00\x00\x00A\x00\x00\xe0@'
S'\x00\x00\x00\x00\x00\x00\x00\x00\x00\x00\x00\x00\x00\x00\x00\x00\x00\x00'
Ntbsg20
g1529
(g1530
g1516
g1531
S'b'
tRp1996
(I1
(I18
I1
tg1533
I00
S'\x9bU\x9e?\x8a\xd6\x15@\xcc\xcbY?\xb6T\xcf?}\xe8\xf7?\x08v\x9c?\xa8\xf2\xe3?\xfck\xf0?D\x15\x03@\x8dD/@<*\xbd?\xd2RZ@\xc1\xdd\x12@\x02\x90/@E\x90\xec?\xecy\x05@\x8b4[@$h`@'
S'\x00\x00\x00\x00\x00\x00\x00\x00\x00\x00\x00\x00\x00\x00\x00\x00\x00\x00'
NtbstRp1997
(dp1998
g1548
(dp1999
g1528
I01
sg21
I00
sg20
I01
sg22
I01
sg19
I00
sg23
I01
sg1543
I01
ssg1550
g1984
sg1551
(lp2000
g1528
ag1543
ag19
ag20
ag21
ag22
ag23
asg1553
(lp2001
I18
aI1
asbsg1555
g1556
sg1557
g1515
(g1516
(I0
tS'b'
tRp2002
(I1
(I18
I1
tg1518
I00
(lp2003
I4
aI14
aI10
aI9
aI8
aI6
aI11
aI17
aI16
aI3
aI1
aI13
aI0
aI2
aI5
aI15
aI12
aI7
atbsg1560
I01
sg1561
I1
sg1562
I-1
sg1563
(lp2004
g1
(g1565
g1513
(dp2005
g1329
g1454
sVY
I4
sg1331
I2
sg1332
g1455
sg1340
I8
sg1337
I8
sg1338
g1339
sVX
I2
sg1334
I0
sg1342
g1368
sg1344
I0
sg1345
g1440
stRp2006
ag1
(g1565
g1513
(dp2007
g1329
g1436
sVY
I6
sg1331
I2
sg1332
g1437
sg1340
I2
sg1337
I2
sg1338
g1339
sVX
I6
sg1334
I0
sg1342
g1343
sg1344
I0
sg1345
g1440
stRp2008
ag1
(g1565
g1513
(dp2009
g1329
g1462
sVY
I7
sg1331
I2
sg1332
g1463
sg1340
I2
sg1337
I2
sg1338
g1376
sVX
I8
sg1334
I0
sg1342
g1339
sg1344
I0
sg1345
g1431
stRp2010
ag1
(g1565
g1513
(dp2011
g1329
g1427
sVY
I4
sg1331
I2
sg1332
g1428
sg1340
I8
sg1337
I8
sg1338
g1353
sVX
I4
sg1334
I0
sg1342
g1357
sg1344
I0
sg1345
g1431
stRp2012
ag1
(g1565
g1513
(dp2013
g1329
g1330
sVY
I4
sg1331
I3
sg1332
g1333
sg1340
I1
sg1337
I1
sg1338
g1339
sVX
I6
sg1334
g1335
sg1342
g1343
sg1344
I0
sg1345
g1346
stRp2014
ag1
(g1565
g1513
(dp2015
g1329
g1470
sVY
I4
sg1331
I3
sg1332
g1471
sg1340
I2
sg1337
I2
sg1338
g1357
sVX
I4
sg1334
g1378
sg1342
g1376
sg1344
I0
sg1345
g1346
stRp2016
ag1
(g1565
g1513
(dp2017
g1329
g1393
sVY
I7
sg1331
I3
sg1332
g1394
sg1340
I1
sg1337
I1
sg1338
g1376
sVX
I3
sg1334
g1378
sg1342
g1357
sg1344
I0
sg1345
g1397
stRp2018
ag1
(g1565
g1513
(dp2019
g1329
g1495
sVY
I3
sg1331
I3
sg1332
g1496
sg1340
I2
sg1337
I2
sg1338
g1343
sVX
I9
sg1334
g1335
sg1342
g1365
sg1344
I0
sg1345
g1397
stRp2020
ag1
(g1565
g1513
(dp2021
g1329
g1385
sVY
I2
sg1331
I3
sg1332
g1386
sg1340
I8
sg1337
I8
sg1338
g1356
sVX
I7
sg1334
g1376
sg1342
g1339
sg1344
I0
sg1345
g1380
stRp2022
ag1
(g1565
g1513
(dp2023
g1329
g1374
sVY
I3
sg1331
I3
sg1332
g1375
sg1340
I6
sg1337
I6
sg1338
g1378
sVX
I4
sg1334
g1376
sg1342
g1339
sg1344
I0
sg1345
g1380
stRp2024
ag1
(g1565
g1513
(dp2025
g1329
g1363
sVY
I6
sg1331
I4
sg1332
g1364
sg1340
I7
sg1337
I7
sg1338
g1335
sVX
I4
sg1334
g1365
sg1342
g1368
sg1344
g1357
sg1345
g1369
stRp2026
ag1
(g1565
g1513
(dp2027
g1329
g1402
sVY
I5
sg1331
I4
sg1332
g1403
sg1340
I1
sg1337
I1
sg1338
g1365
sVX
I6
sg1334
g1339
sg1342
g1343
sg1344
g1335
sg1345
g1369
stRp2028
ag1
(g1565
g1513
(dp2029
g1329
g1486
sVY
I4
sg1331
I4
sg1332
g1487
sg1340
I9
sg1337
I9
sg1338
g1368
sVX
I9
sg1334
g1339
sg1342
g1490
sg1344
g1335
sg1345
g1449
stRp2030
ag1
(g1565
g1513
(dp2031
g1329
g1445
sVY
I4
sg1331
I4
sg1332
g1446
sg1340
I7
sg1337
I7
sg1338
g1353
sVX
I3
sg1334
g1339
sg1342
g1356
sg1344
g1335
sg1345
g1449
stRp2032
ag1
(g1565
g1513
(dp2033
g1329
g1351
sVY
I6
sg1331
I4
sg1332
g1352
sg1340
I3
sg1337
I3
sg1338
g1335
sVX
I4
sg1334
g1353
sg1342
g1356
sg1344
g1357
sg1345
g1358
stRp2034
ag1
(g1565
g1513
(dp2035
g1329
g1478
sVY
I8
sg1331
I4
sg1332
g1479
sg1340
I6
sg1337
I6
sg1338
g1378
sVX
I9
sg1334
g1343
sg1342
g1339
sg1344
g1356
sg1345
g1358
stRp2036
ag1
(g1565
g1513
(dp2037
g1329
g1419
sVY
I2
sg1331
I4
sg1332
g1420
sg1340
I5
sg1337
I5
sg1338
g1357
sVX
I8
sg1334
g1378
sg1342
g1356
sg1344
g1343
sg1345
g1414
stRp2038
ag1
(g1565
g1513
(dp2039
g1329
g1410
sVY
I4
sg1331
I4
sg1332
g1411
sg1340
I4
sg1337
I4
sg1338
g1356
sVX
I4
sg1334
g1378
sg1342
g1339
sg1344
g1343
sg1345
g1414
stRp2040
asg1578
Nsg1579
I7
sg1580
I18
sg1581
I0
sg1582
I18
sg1583
I01
sbasS'savePickle'
p2041
I00
sb.