ccopy_reg
_reconstructor
p1
(cpsychopy.data
ExperimentHandler
p2
c__builtin__
object
p3
NtRp4
(dp5
S'originPath'
p6
NsS'dataFileName'
p7
VC:\u005cUsers\u005cexperimenter\u005cDesktop\u005cExperiments\u005cKRITL\u005cdata/31056_KRITL_2017_May_19_0918
p8
sS'runtimeInfo'
p9
NsS'name'
p10
S'KRITL'
p11
sS'dataNames'
p12
(lp13
S'practice_encoding.keys'
p14
aS'practice_encoding.rt'
p15
aS'practice_execution.keys'
p16
aS'practice_execution.corr'
p17
aS'practice_execution.rt'
p18
aS'encoding.keys'
p19
aS'encoding.rt'
p20
aS'execution.keys'
p21
aS'execution.corr'
p22
aS'execution.rt'
p23
asS'autoLog'
p24
I01
sS'extraInfo'
p25
(dp26
S'date'
p27
V2017_May_19_0918
p28
sS'frameRate'
p29
NsS'expName'
p30
g11
sVsession
p31
V001
p32
sVparticipant
p33
V31056
p34
ssS'loopsUnfinished'
p35
(lp36
sS'saveWideText'
p37
I00
sS'thisEntry'
p38
(dp39
sS'version'
p40
S''
sS'_paramNamesSoFar'
p41
(lp42
Voperationc
p43
aVoperationb
p44
aVoperationa
p45
aVcorrectresponse
p46
aVvaluey
p47
aVoperationd
p48
aVcondition
p49
aVvaluex
p50
aVRule
p51
aVOperatora
p52
aVLength
p53
aVIntermediate
p54
aVCorrectResponse
p55
aVResult
p56
aVY
aVX
aVOperatorc
p57
aVOperatorb
p58
aVOperatord
p59
aVStructure
p60
asS'entries'
p61
(lp62
(dp63
g18
F14.639798897667788
sg29
Nsg17
I1
sg43
VADD
p64
sg44
Vtriple 
p65
sg45
Vhalf
p66
sg31
g32
sg46
I8
sS'practice_trials.thisTrialN'
p67
I0
sg48
I0
sS'practice_trials.thisRepN'
p68
I0
sg33
g34
sg49
I3
sg27
g28
sg16
S'8'
sg14
(lp69
S'space'
p70
asS'practice_trials.thisIndex'
p71
I3
sS'practice_trials.thisN'
p72
I0
sg30
g11
sg15
(lp73
F4.7975317862583324
asg47
I2
sg50
I4
sa(dp74
g18
F1.8309164356905967
sg29
Nsg17
I1
sg43
I0
sg44
g64
sg45
Vdecrease
p75
sg31
g32
sg46
I7
sS'practice_trials.thisTrialN'
p76
I1
sg48
I0
sS'practice_trials.thisRepN'
p77
I0
sg33
g34
sg49
I2
sg27
g28
sg16
S'7'
sg14
(lp78
S'space'
p79
asS'practice_trials.thisIndex'
p80
I0
sS'practice_trials.thisN'
p81
I1
sg30
g11
sg15
(lp82
F3.3287422951543704
asg47
I5
sg50
I3
sa(dp83
g18
F7.4874872744549066
sg29
Nsg17
I1
sg43
Vincrease
p84
sg44
VDIVIDE
p85
sg45
Vdouble
p86
sg31
g32
sg46
I9
sS'practice_trials.thisTrialN'
p87
I2
sg48
Vtriple
p88
sS'practice_trials.thisRepN'
p89
I0
sg33
g34
sg49
I4
sg27
g28
sg16
S'9'
sg14
(lp90
S'space'
p91
asS'practice_trials.thisIndex'
p92
I5
sS'practice_trials.thisN'
p93
I2
sg30
g11
sg15
(lp94
F8.0780818288912997
asg47
I8
sg50
I8
sa(dp95
g18
F3.0932295951060951
sg29
Nsg17
I1
sg43
g84
sg44
g85
sg45
g88
sg31
g32
sg46
I3
sS'practice_trials.thisTrialN'
p96
I3
sg48
I0
sS'practice_trials.thisRepN'
p97
I0
sg33
g34
sg49
I3
sg27
g28
sg16
S'3'
sg14
(lp98
S'space'
p99
asS'practice_trials.thisIndex'
p100
I4
sS'practice_trials.thisN'
p101
I3
sg30
g11
sg15
(lp102
F4.0606491590151563
asg47
I3
sg50
I2
sa(dp103
g18
F1.4288944937288761
sg29
Nsg17
I1
sg43
I0
sg44
g75
sg45
VTIMES
p104
sg31
g32
sg46
I8
sS'practice_trials.thisTrialN'
p105
I4
sg48
I0
sS'practice_trials.thisRepN'
p106
I0
sg33
g34
sg49
I2
sg27
g28
sg16
S'8'
sg14
(lp107
S'space'
p108
asS'practice_trials.thisIndex'
p109
I1
sS'practice_trials.thisN'
p110
I4
sg30
g11
sg15
(lp111
F1.9954056955175474
asg47
I3
sg50
I3
sa(dp112
g18
F3.6985708591528237
sg29
Nsg17
I1
sg43
I0
sg44
g64
sg45
g66
sg31
g32
sg46
I7
sS'practice_trials.thisTrialN'
p113
I5
sg48
I0
sS'practice_trials.thisRepN'
p114
I0
sg33
g34
sg49
I2
sg27
g28
sg16
S'7'
sg14
(lp115
S'space'
p116
asS'practice_trials.thisIndex'
p117
I2
sS'practice_trials.thisN'
p118
I5
sg30
g11
sg15
(lp119
F1.9356657384196296
asg47
I5
sg50
I4
sa(dp120
S'block.thisTrialN'
p121
I0
sS'block.thisRepN'
p122
I0
sg29
NsS'block.thisN'
p123
I0
sg51
(S'DECREASE'
S'THIRD'
S'TIMES'
S'HALF'
S'x'
S'y'
tp124
sg27
g28
sg53
I4
sg54
(I2
I12
I4
I3
tp125
sg22
I1
sg20
F6.3862004982074723
sg23
F15.679705093731172
sVY
I6
sVX
I4
sg57
VTIMES
p126
sg31
g32
sg33
g34
sg21
S'3'
sg19
S'space'
p127
sg30
g11
sg56
I3
sg52
Vthird
p128
sg55
I3
sS'block.thisIndex'
p129
I14
sg58
Vdecrease
p130
sg59
Vhalf
p131
sg60
VUUBUxy
p132
sa(dp133
S'block.thisTrialN'
p134
I1
sS'block.thisRepN'
p135
I0
sg29
NsS'block.thisN'
p136
I1
sg51
(S'ADD'
S'DOUBLE'
S'x'
S'y'
tp137
sg27
g28
sg53
I2
sg54
(I4
I8
tp138
sg22
I1
sg20
F6.5497704072622582
sg23
F2.0684746650513262
sVY
I4
sVX
I2
sg57
I0
sg31
g32
sg33
g34
sg21
S'8'
sg19
S'space'
p139
sg30
g11
sg56
I8
sg52
Vdouble
p140
sg55
I8
sS'block.thisIndex'
p141
I0
sg58
VADD
p142
sg59
I0
sg60
VBUxy
p143
sa(dp144
S'block.thisTrialN'
p145
I2
sS'block.thisRepN'
p146
I0
sg29
NsS'block.thisN'
p147
I2
sg51
(S'DOUBLE'
S'DECREASE'
S'SUBTRACT'
S'x'
S'y'
tp148
sg27
g28
sg53
I3
sg54
(I5
I4
I8
tp149
sg22
I1
sg20
F6.0903546552872285
sg23
F10.241252780891955
sVY
I2
sVX
I7
sg57
VSUBTRACT
p150
sg31
g32
sg33
g34
sg21
S'8'
sg19
S'space'
p151
sg30
g11
sg56
I8
sg52
g130
sg55
I8
sS'block.thisIndex'
p152
I8
sg58
g140
sg59
I0
sg60
VUUBxy
p153
sa(dp154
S'block.thisTrialN'
p155
I3
sS'block.thisRepN'
p156
I0
sg29
NsS'block.thisN'
p157
I3
sg51
(S'ADD'
S'THIRD'
S'INCREASE'
S'HALF'
S'x'
S'y'
tp158
sg27
g28
sg53
I4
sg54
(I2
I3
I1
I7
tp159
sg22
I1
sg20
F7.5634668801212683
sg23
F15.425737834186293
sVY
I6
sVX
I4
sg57
Vincrease
p160
sg31
g32
sg33
g34
sg21
S'7'
sg19
S'space'
p161
sg30
g11
sg56
I7
sg52
g128
sg55
I7
sS'block.thisIndex'
p162
I10
sg58
g142
sg59
g131
sg60
VBUUUxy
p163
sa(dp164
S'block.thisTrialN'
p165
I4
sS'block.thisRepN'
p166
I0
sg29
NsS'block.thisN'
p167
I4
sg51
(S'DIVIDE'
S'INCREASE'
S'DOUBLE'
S'THIRD'
S'x'
S'y'
tp168
sg27
g28
sg53
I4
sg54
(I2
I4
I5
I1
tp169
sg22
I0
sg20
F10.597485311212949
sVY
I5
sVX
I6
sg57
g140
sg31
g32
sg33
g34
sg21
Nsg19
S'space'
p170
sg30
g11
sg56
I1
sg52
g160
sg55
I1
sS'block.thisIndex'
p171
I11
sg58
VDIVIDE
p172
sg59
g128
sg60
g163
sa(dp173
S'block.thisTrialN'
p174
I5
sS'block.thisRepN'
p175
I0
sg29
NsS'block.thisN'
p176
I5
sg51
(S'INCREASE'
S'DIVIDE'
S'THIRD'
S'x'
S'y'
tp177
sg27
g28
sg53
I3
sg54
(I3
I1
I2
tp178
sg22
I1
sg20
F8.9037302826764062
sg23
F4.4557446478866041
sVY
I3
sVX
I9
sg57
g128
sg31
g32
sg33
g34
sg21
S'2'
sg19
S'space'
p179
sg30
g11
sg56
I2
sg52
g172
sg55
I2
sS'block.thisIndex'
p180
I7
sg58
g160
sg59
I0
sg60
VUBUxy
p181
sa(dp182
S'block.thisTrialN'
p183
I6
sS'block.thisRepN'
p184
I0
sg29
NsS'block.thisN'
p185
I6
sg51
(S'DECREASE'
S'ADD'
S'DOUBLE'
S'THIRD'
S'x'
S'y'
tp186
sg27
g28
sg53
I4
sg54
(I3
I6
I10
I9
tp187
sg22
I1
sg20
F16.050386165850796
sg23
F6.7244757652515545
sVY
I4
sVX
I9
sg57
g140
sg31
g32
sg33
g34
sg21
S'9'
sg19
S'space'
p188
sg30
g11
sg56
I9
sg52
g142
sg55
I9
sS'block.thisIndex'
p189
I12
sg58
Vdecrease 
p190
sg59
g128
sg60
VUBUUxy
p191
sa(dp192
S'block.thisTrialN'
p193
I7
sS'block.thisRepN'
p194
I0
sg29
NsS'block.thisN'
p195
I7
sg51
(S'DECREASE'
S'HALF'
S'TRIPLE'
S'DIVIDE'
S'x'
S'y'
tp196
sg27
g28
sg53
I4
sg54
(I4
I12
I6
I5
tp197
sg22
I1
sg20
F7.6680576499784365
sg23
F4.3248598137870431
sVY
I2
sVX
I8
sg57
Vtriple
p198
sg31
g32
sg33
g34
sg21
S'5'
sg19
S'space'
p199
sg30
g11
sg56
I5
sg52
g131
sg55
I5
sS'block.thisIndex'
p200
I16
sg58
g130
sg59
g172
sg60
VUUUBxy
p201
sa(dp202
S'block.thisTrialN'
p203
I8
sS'block.thisRepN'
p204
I0
sg29
NsS'block.thisN'
p205
I8
sg51
(S'DOUBLE'
S'SUBTRACT'
S'x'
S'y'
tp206
sg27
g28
sg53
I2
sg54
(I1
I2
tp207
sg22
I1
sg20
F2.8554249923909083
sg23
F2.3746937392279506
sVY
I7
sVX
I8
sg57
I0
sg31
g32
sg33
g34
sg21
S'2'
sg19
S'space'
p208
sg30
g11
sg56
I2
sg52
g150
sg55
I2
sS'block.thisIndex'
p209
I2
sg58
g140
sg59
I0
sg60
VUBxy
p210
sa(dp211
S'block.thisTrialN'
p212
I9
sS'block.thisRepN'
p213
I0
sg29
NsS'block.thisN'
p214
I9
sg51
(S'DIVIDE'
S'DOUBLE'
S'THIRD'
S'x'
S'y'
tp215
sg27
g28
sg53
I3
sg54
(I2
I4
I1
tp216
sg22
I1
sg20
F2.3384103524731472
sg23
F2.8072526877513155
sVY
I4
sVX
I6
sg57
g128
sg31
g32
sg33
g34
sg21
S'1'
sg19
S'space'
p217
sg30
g11
sg56
I1
sg52
g140
sg55
I1
sS'block.thisIndex'
p218
I4
sg58
g172
sg59
I0
sg60
VBUUxy
p219
sa(dp220
S'block.thisTrialN'
p221
I10
sS'block.thisRepN'
p222
I0
sg29
NsS'block.thisN'
p223
I10
sg51
(S'DIVIDE'
S'DOUBLE'
S'x'
S'y'
tp224
sg27
g28
sg53
I2
sg54
(I12
I2
tp225
sg22
I1
sg20
F1.7629695137729868
sg23
F1.5749592906795442
sVY
I6
sVX
I6
sg57
I0
sg31
g32
sg33
g34
sg21
S'2'
sg19
S'space'
p226
sg30
g11
sg56
I2
sg52
g140
sg55
I2
sS'block.thisIndex'
p227
I1
sg58
g172
sg59
I0
sg60
g143
sa(dp228
S'block.thisTrialN'
p229
I11
sS'block.thisRepN'
p230
I0
sg29
NsS'block.thisN'
p231
I11
sg51
(S'DOUBLE'
S'DECREASE'
S'TRIPLE'
S'DIVIDE'
S'x'
S'y'
tp232
sg27
g28
sg53
I4
sg54
(I1
I3
I2
I4
tp233
sg22
I0
sg20
F4.0865943108219653
sg23
F14.932884588488378
sVY
I4
sVX
I4
sg57
g198
sg31
g32
sg33
g34
sg21
S'2'
sg19
S'space'
p234
sg30
g11
sg56
I4
sg52
g130
sg55
I4
sS'block.thisIndex'
p235
I17
sg58
g140
sg59
g172
sg60
g201
sa(dp236
S'block.thisTrialN'
p237
I12
sS'block.thisRepN'
p238
I0
sg29
NsS'block.thisN'
p239
I12
sg51
(S'DOUBLE'
S'TRIPLE'
S'SUBTRACT'
S'x'
S'y'
tp240
sg27
g28
sg53
I3
sg54
(I1
I3
I6
tp241
sg22
I1
sg20
F6.212875391356647
sg23
F1.6567206226754934
sVY
I3
sVX
I4
sg57
g150
sg31
g32
sg33
g34
sg21
S'6'
sg19
S'space'
p242
sg30
g11
sg56
I6
sg52
g198
sg55
I6
sS'block.thisIndex'
p243
I9
sg58
g140
sg59
I0
sg60
g153
sa(dp244
S'block.thisTrialN'
p245
I13
sS'block.thisRepN'
p246
I0
sg29
NsS'block.thisN'
p247
I13
sg51
(S'DECREASE'
S'TIMES'
S'DOUBLE'
S'THIRD'
S'x'
S'y'
tp248
sg27
g28
sg53
I4
sg54
(I1
I2
I8
I7
tp249
sg22
I1
sg20
F7.1077670273371041
sg23
F4.2753275559516624
sVY
I4
sVX
I3
sg57
g140
sg31
g32
sg33
g34
sg21
S'7'
sg19
S'space'
p250
sg30
g11
sg56
I7
sg52
g126
sg55
I7
sS'block.thisIndex'
p251
I13
sg58
g130
sg59
g128
sg60
g191
sa(dp252
S'block.thisTrialN'
p253
I14
sS'block.thisRepN'
p254
I0
sg29
NsS'block.thisN'
p255
I14
sg51
(S'DOUBLE'
S'TRIPLE'
S'DIVIDE'
S'DECREASE'
S'x'
S'y'
tp256
sg27
g28
sg53
I4
sg54
(I8
I1
I3
I6
tp257
sg22
I1
sg20
F13.075098750647157
sg23
F3.8987545192940161
sVY
I8
sVX
I9
sg57
g172
sg31
g32
sg33
g34
sg21
S'6'
sg19
S'space'
p258
sg30
g11
sg56
I6
sg52
g198
sg55
I6
sS'block.thisIndex'
p259
I15
sg58
g140
sg59
g130
sg60
g132
sa(dp260
S'block.thisTrialN'
p261
I15
sS'block.thisRepN'
p262
I0
sg29
NsS'block.thisN'
p263
I15
sg51
(S'HALF'
S'SUBTRACT'
S'TRIPLE'
S'x'
S'y'
tp264
sg27
g28
sg53
I3
sg54
(I9
I2
I1
tp265
sg22
I1
sg20
F5.6496989800361916
sg23
F2.9670783506007865
sVY
I7
sVX
I3
sg57
g198
sg31
g32
sg33
g34
sg21
S'1'
sg19
S'space'
p266
sg30
g11
sg56
I1
sg52
g150
sg55
I1
sS'block.thisIndex'
p267
I6
sg58
g131
sg59
I0
sg60
g181
sa(dp268
S'block.thisTrialN'
p269
I16
sS'block.thisRepN'
p270
I0
sg29
NsS'block.thisN'
p271
I16
sg51
(S'SUBTRACT'
S'HALF'
S'TRIPLE'
S'x'
S'y'
tp272
sg27
g28
sg53
I3
sg54
(I12
I6
I2
tp273
sg22
I1
sg20
F8.0857229047687724
sg23
F4.2617525199893862
sVY
I4
sVX
I4
sg57
g198
sg31
g32
sg33
g34
sg21
S'2'
sg19
S'space'
p274
sg30
g11
sg56
I2
sg52
g131
sg55
I2
sS'block.thisIndex'
p275
I5
sg58
g150
sg59
I0
sg60
g219
sa(dp276
S'block.thisTrialN'
p277
I17
sS'block.thisRepN'
p278
I0
sg29
NsS'block.thisN'
p279
I17
sg51
(S'HALF'
S'TIMES'
S'x'
S'y'
tp280
sg27
g28
sg53
I2
sg54
(I16
I8
tp281
sg22
I1
sg20
F2.738111694692634
sg23
F1.9085713105741888
sVY
I4
sVX
I4
sg57
I0
sg31
g32
sg33
g34
sg21
S'8'
sg19
S'space'
p282
sg30
g11
sg56
I8
sg52
g126
sg55
I8
sS'block.thisIndex'
p283
I3
sg58
g131
sg59
I0
sg60
g210
sa(dp284
S'block.thisTrialN'
p285
I0
sS'block.thisRepN'
p286
I0
sg29
NsS'block.thisN'
p287
I0
sVRule
p288
(S'DECREASE'
S'TRIPLE'
S'SUBTRACT'
S'DOUBLE'
S'x'
S'y'
tp289
sg27
g28
sVLength
p290
I4
sVIntermediate
p291
(I6
I3
I9
I8
tp292
sg22
I1
sg20
F4.9171261378796771
sg23
F5.1906615371117368
sVY
I3
sVX
I3
sVOperatorc
p293
VSUBTRACT
p294
sg31
g32
sg33
g34
sg21
S'8'
sg19
S'space'
p295
sg30
g11
sVResult
p296
I8
sVOperatora
p297
Vtriple
p298
sVCorrectResponse
p299
I8
sS'block.thisIndex'
p300
I15
sVOperatorb
p301
Vdecrease
p302
sVOperatord
p303
Vdouble
p304
sVStructure
p305
VUUBUxy
p306
sa(dp307
S'block.thisTrialN'
p308
I1
sS'block.thisRepN'
p309
I0
sg29
NsS'block.thisN'
p310
I1
sg288
(S'ADD'
S'DOUBLE'
S'DECREASE'
S'x'
S'y'
tp311
sg27
g28
sg290
I3
sg291
(I1
I2
I7
tp312
sg22
I1
sg20
F6.6931992884492502
sg23
F3.0009099019225687
sVY
I5
sVX
I2
sg293
g302
sg31
g32
sg33
g34
sg21
S'7'
sg19
S'space'
p313
sg30
g11
sg296
I7
sg297
g304
sg299
I7
sS'block.thisIndex'
p314
I4
sg301
VADD
p315
sg303
I0
sg305
VBUUxy
p316
sa(dp317
S'block.thisTrialN'
p318
I2
sS'block.thisRepN'
p319
I0
sg29
NsS'block.thisN'
p320
I2
sg288
(S'DOUBLE'
S'SUBTRACT'
S'INCREASE'
S'x'
S'y'
tp321
sg27
g28
sg290
I3
sg291
(I4
I1
I2
tp322
sg22
I1
sg20
F4.2568023038329557
sg23
F2.9978890276979655
sVY
I3
sVX
I3
sg293
Vincrease
p323
sg31
g32
sg33
g34
sg21
S'2'
sg19
S'space'
p324
sg30
g11
sg296
I2
sg297
g294
sg299
I2
sS'block.thisIndex'
p325
I6
sg301
g304
sg303
I0
sg305
VUBUxy
p326
sa(dp327
S'block.thisTrialN'
p328
I3
sS'block.thisRepN'
p329
I0
sg29
NsS'block.thisN'
p330
I3
sg288
(S'DECREASE'
S'DOUBLE'
S'TIMES'
S'THIRD'
S'x'
S'y'
tp331
sg27
g28
sg290
I4
sg291
(I1
I3
I6
I5
tp332
sg22
I1
sg20
F10.58136499975808
sg23
F3.9738665685290471
sVY
I3
sVX
I3
sg293
VTIMES
p333
sg31
g32
sg33
g34
sg21
S'5'
sg19
S'space'
p334
sg30
g11
sg296
I5
sg297
g304
sg299
I5
sS'block.thisIndex'
p335
I14
sg301
g302
sg303
Vthird
p336
sg305
g306
sa(dp337
S'block.thisTrialN'
p338
I4
sS'block.thisRepN'
p339
I0
sg29
NsS'block.thisN'
p340
I4
sg288
(S'ADD'
S'TRIPLE'
S'HALF'
S'x'
S'y'
tp341
sg27
g28
sg290
I3
sg291
(I2
I6
I8
tp342
sg22
I1
sg20
F3.7167279508430511
sg23
F4.6473241361090913
sVY
I2
sVX
I4
sg293
Vhalf
p343
sg31
g32
sg33
g34
sg21
S'8'
sg19
S'space'
p344
sg30
g11
sg296
I8
sg297
g298
sg299
I8
sS'block.thisIndex'
p345
I5
sg301
g315
sg303
I0
sg305
g316
sa(dp346
S'block.thisTrialN'
p347
I5
sS'block.thisRepN'
p348
I0
sg29
NsS'block.thisN'
p349
I5
sg288
(S'THIRD'
S'HALF'
S'INCREASE'
S'SUBTRACT'
S'x'
S'y'
tp350
sg27
g28
sg290
I4
sg291
(I5
I6
I3
I1
tp351
sg22
I1
sg20
F9.0298017358873039
sg23
F3.2667244337499142
sVY
I2
sVX
I7
sg293
g323
sg31
g32
sg33
g34
sg21
S'1'
sg19
S'space'
p352
sg30
g11
sg296
I1
sg297
g343
sg299
I1
sS'block.thisIndex'
p353
I17
sg301
g336
sg303
g294
sg305
VUUUBxy
p354
sa(dp355
S'block.thisTrialN'
p356
I6
sS'block.thisRepN'
p357
I0
sg29
NsS'block.thisN'
p358
I6
sg288
(S'DOUBLE'
S'THIRD'
S'ADD'
S'x'
S'y'
tp359
sg27
g28
sg290
I3
sg291
(I9
I3
I6
tp360
sg22
I1
sg20
F5.2821521698497236
sg23
F2.5003735846839845
sVY
I4
sVX
I5
sg293
g315
sg31
g32
sg33
g34
sg21
S'6'
sg19
S'space'
p361
sg30
g11
sg296
I6
sg297
g336
sg299
I6
sS'block.thisIndex'
p362
I8
sg301
g304
sg303
I0
sg305
VUUBxy
p363
sa(dp364
S'block.thisTrialN'
p365
I7
sS'block.thisRepN'
p366
I0
sg29
NsS'block.thisN'
p367
I7
sg288
(S'DECREASE'
S'ADD'
S'THIRD'
S'HALF'
S'x'
S'y'
tp368
sg27
g28
sg290
I4
sg291
(I3
I1
I7
I6
tp369
sg22
I1
sg20
F7.316595105221495
sg23
F5.4786850238451734
sVY
I6
sVX
I6
sg293
g336
sg31
g32
sg33
g34
sg21
S'6'
sg19
S'space'
p370
sg30
g11
sg296
I6
sg297
g315
sg299
I6
sS'block.thisIndex'
p371
I12
sg301
g302
sg303
g343
sg305
VUBUUxy
p372
sa(dp373
S'block.thisTrialN'
p374
I8
sS'block.thisRepN'
p375
I0
sg29
NsS'block.thisN'
p376
I8
sg288
(S'DECREASE'
S'SUBTRACT'
S'DOUBLE'
S'THIRD'
S'x'
S'y'
tp377
sg27
g28
sg290
I4
sg291
(I3
I6
I4
I3
tp378
sg22
I1
sg20
F7.4771007447270676
sg23
F10.32421868306119
sVY
I2
sVX
I9
sg293
g304
sg31
g32
sg33
g34
sg21
S'3'
sg19
S'space'
p379
sg30
g11
sg296
I3
sg297
g294
sg299
I3
sS'block.thisIndex'
p380
I13
sg301
g302
sg303
g336
sg305
g372
sa(dp381
S'block.thisTrialN'
p382
I9
sS'block.thisRepN'
p383
I0
sg29
NsS'block.thisN'
p384
I9
sg288
(S'INCREASE'
S'ADD'
S'HALF'
S'x'
S'y'
tp385
sg27
g28
sg290
I3
sg291
(I1
I4
I5
tp386
sg22
I1
sg20
F7.0811341996304691
sg23
F9.6026525039924309
sVY
I3
sVX
I2
sg293
g343
sg31
g32
sg33
g34
sg21
S'5'
sg19
S'space'
p387
sg30
g11
sg296
I5
sg297
g315
sg299
I5
sS'block.thisIndex'
p388
I7
sg301
g323
sg303
I0
sg305
g326
sa(dp389
S'block.thisTrialN'
p390
I10
sS'block.thisRepN'
p391
I0
sg29
NsS'block.thisN'
p392
I10
sg288
(S'ADD'
S'DECREASE'
S'THIRD'
S'DOUBLE'
S'x'
S'y'
tp393
sg27
g28
sg290
I4
sg291
(I18
I6
I5
I9
tp394
sg22
I1
sg20
F7.0427492895396426
sg23
F3.6701955694006756
sVY
I4
sVX
I9
sg293
g336
sg31
g32
sg33
g34
sg21
S'9'
sg19
S'space'
p395
sg30
g11
sg296
I9
sg297
g302
sg299
I9
sS'block.thisIndex'
p396
I10
sg301
g315
sg303
g304
sg305
VBUUUxy
p397
sa(dp398
S'block.thisTrialN'
p399
I11
sS'block.thisRepN'
p400
I0
sg29
NsS'block.thisN'
p401
I11
sg288
(S'DECREASE'
S'TIMES'
S'x'
S'y'
tp402
sg27
g28
sg290
I2
sg291
(I9
I8
tp403
sg22
I1
sg20
F5.5381292627425864
sg23
F1.6040453537134454
sVY
I3
sVX
I3
sg293
I0
sg31
g32
sg33
g34
sg21
S'8'
sg19
S'space'
p404
sg30
g11
sg296
I8
sg297
g333
sg299
I8
sS'block.thisIndex'
p405
I2
sg301
g302
sg303
I0
sg305
VUBxy
p406
sa(dp407
S'block.thisTrialN'
p408
I12
sS'block.thisRepN'
p409
I0
sg29
NsS'block.thisN'
p410
I12
sg288
(S'HALF'
S'ADD'
S'x'
S'y'
tp411
sg27
g28
sg290
I2
sg291
(I12
I6
tp412
sg22
I1
sg20
F1.7154687867732719
sg23
F5.3013811960117891
sVY
I8
sVX
I4
sg293
I0
sg31
g32
sg33
g34
sg21
S'6'
sg19
S'space'
p413
sg30
g11
sg296
I6
sg297
g315
sg299
I6
sS'block.thisIndex'
p414
I3
sg301
g343
sg303
I0
sg305
g406
sa(dp415
S'block.thisTrialN'
p416
I13
sS'block.thisRepN'
p417
I0
sg29
NsS'block.thisN'
p418
I13
sg288
(S'DIVIDE'
S'DECREASE'
S'x'
S'y'
tp419
sg27
g28
sg290
I2
sg291
(I8
I2
tp420
sg22
I1
sg20
F4.5515338671393692
sg23
F1.7943583284504712
sVY
I4
sVX
I9
sg293
I0
sg31
g32
sg33
g34
sg21
S'2'
sg19
S'space'
p421
sg30
g11
sg296
I2
sg297
g302
sg299
I2
sS'block.thisIndex'
p422
I1
sg301
VDIVIDE
p423
sg303
I0
sg305
VBUxy
p424
sa(dp425
S'block.thisTrialN'
p426
I14
sS'block.thisRepN'
p427
I0
sg29
NsS'block.thisN'
p428
I14
sg288
(S'INCREASE'
S'HALF'
S'THIRD'
S'TIMES'
S'x'
S'y'
tp429
sg27
g28
sg290
I4
sg291
(I12
I4
I2
I3
tp430
sg22
I1
sg20
F8.1819030317710713
sg23
F3.6203287475509569
sVY
I4
sVX
I3
sg293
g336
sg31
g32
sg33
g34
sg21
S'3'
sg19
S'space'
p431
sg30
g11
sg296
I3
sg297
g343
sg299
I3
sS'block.thisIndex'
p432
I16
sg301
g323
sg303
g333
sg305
g354
sa(dp433
S'block.thisTrialN'
p434
I15
sS'block.thisRepN'
p435
I0
sg29
NsS'block.thisN'
p436
I15
sg288
(S'ADD'
S'TRIPLE'
S'DOUBLE'
S'DECREASE'
S'x'
S'y'
tp437
sg27
g28
sg290
I4
sg291
(I1
I2
I6
I8
tp438
sg22
I1
sg20
F7.6883635099511594
sg23
F6.2896294634556398
sVY
I2
sVX
I2
sg293
g304
sg31
g32
sg33
g34
sg21
S'8'
sg19
S'space'
p439
sg30
g11
sg296
I8
sg297
g298
sg299
I8
sS'block.thisIndex'
p440
I11
sg301
g315
sg303
g302
sg305
g397
sa(dp441
S'block.thisTrialN'
p442
I16
sS'block.thisRepN'
p443
I0
sg29
NsS'block.thisN'
p444
I16
sg288
(S'ADD'
S'DECREASE'
S'x'
S'y'
tp445
sg27
g28
sg290
I2
sg291
(I2
I7
tp446
sg22
I1
sg20
F2.20834303018637
sg23
F1.9565434367395937
sVY
I5
sVX
I3
sg293
I0
sg31
g32
sg33
g34
sg21
S'7'
sg19
S'space'
p447
sg30
g11
sg296
I7
sg297
g302
sg299
I7
sS'block.thisIndex'
p448
I0
sg301
g315
sg303
I0
sg305
g424
sa(dp449
S'block.thisTrialN'
p450
I17
sS'block.thisRepN'
p451
I0
sg29
NsS'block.thisN'
p452
I17
sg288
(S'HALF'
S'INCREASE'
S'TIMES'
S'x'
S'y'
tp453
sg27
g28
sg290
I3
sg291
(I9
I10
I5
tp454
sg22
I1
sg20
F6.2256693115923554
sg23
F2.3105859033530578
sVY
I3
sVX
I3
sg293
g333
sg31
g32
sg33
g34
sg21
S'5'
sg19
S'space'
p455
sg30
g11
sg296
I5
sg297
g323
sg299
I5
sS'block.thisIndex'
p456
I9
sg301
g343
sg303
I0
sg305
g363
sa(dp457
S'block.thisTrialN'
p458
I0
sS'block.thisRepN'
p459
I0
sg29
NsS'block.thisN'
p460
I0
sVRule
p461
(S'THIRD'
S'INCREASE'
S'HALF'
S'TIMES'
S'x'
S'y'
tp462
sg27
g28
sVLength
p463
I4
sVIntermediate
p464
(I28
I14
I15
I5
tp465
sg22
I1
sg20
F10.542701869620942
sg23
F5.6175203004386276
sVY
I4
sVX
I7
sVOperatorc
p466
Vhalf
p467
sg31
g32
sg33
g34
sg21
S'5'
sg19
S'space'
p468
sg30
g11
sVResult
p469
I5
sVOperatora
p470
Vincrease
p471
sVCorrectResponse
p472
I5
sS'block.thisIndex'
p473
I17
sVOperatorb
p474
Vthird
p475
sVOperatord
p476
VTIMES
p477
sVStructure
p478
VUUUBxy
p479
sa(dp480
S'block.thisTrialN'
p481
I1
sS'block.thisRepN'
p482
I0
sg29
NsS'block.thisN'
p483
I1
sg461
(S'TRIPLE'
S'INCREASE'
S'SUBTRACT'
S'x'
S'y'
tp484
sg27
g28
sg463
I3
sg464
(I1
I2
I6
tp485
sg22
I1
sg20
F5.1110031283460557
sg23
F4.4192043887451291
sVY
I2
sVX
I3
sg466
VSUBTRACT
p486
sg31
g32
sg33
g34
sg21
S'6'
sg19
S'space'
p487
sg30
g11
sg469
I6
sg470
g471
sg472
I6
sS'block.thisIndex'
p488
I9
sg474
Vtriple
p489
sg476
I0
sg478
VUUBxy
p490
sa(dp491
S'block.thisTrialN'
p492
I2
sS'block.thisRepN'
p493
I0
sg29
NsS'block.thisN'
p494
I2
sg461
(S'TRIPLE'
S'INCREASE'
S'DIVIDE'
S'DOUBLE'
S'x'
S'y'
tp495
sg27
g28
sg463
I4
sg464
(I16
I2
I3
I9
tp496
sg22
I1
sg20
F6.1948288877028972
sg23
F5.7021135269897059
sVY
I8
sVX
I8
sg466
VDIVIDE
p497
sg31
g32
sg33
g34
sg21
S'9'
sg19
S'space'
p498
sg30
g11
sg469
I9
sg470
g471
sg472
I9
sS'block.thisIndex'
p499
I15
sg474
g489
sg476
Vdouble
p500
sg478
VUUBUxy
p501
sa(dp502
S'block.thisTrialN'
p503
I3
sS'block.thisRepN'
p504
I0
sg29
NsS'block.thisN'
p505
I3
sg461
(S'HALF'
S'TIMES'
S'DECREASE'
S'x'
S'y'
tp506
sg27
g28
sg463
I3
sg464
(I8
I16
I8
tp507
sg22
I1
sg20
F4.8358729510800913
sg23
F4.3412915916414931
sVY
I2
sVX
I9
sg466
Vdecrease
p508
sg31
g32
sg33
g34
sg21
S'8'
sg19
S'space'
p509
sg30
g11
sg469
I8
sg470
g477
sg472
I8
sS'block.thisIndex'
p510
I6
sg474
g467
sg476
I0
sg478
VUBUxy
p511
sa(dp512
S'block.thisTrialN'
p513
I4
sS'block.thisRepN'
p514
I0
sg29
NsS'block.thisN'
p515
I4
sg461
(S'TRIPLE'
S'DOUBLE'
S'SUBTRACT'
S'INCREASE'
S'x'
S'y'
tp516
sg27
g28
sg463
I4
sg464
(I5
I1
I2
I6
tp517
sg22
I1
sg20
F8.2117352143395692
sg23
F12.660871875006706
sVY
I4
sVX
I4
sg466
g486
sg31
g32
sg33
g34
sg21
S'6'
sg19
S'space'
p518
sg30
g11
sg469
I6
sg470
g500
sg472
I6
sS'block.thisIndex'
p519
I14
sg474
g489
sg476
g471
sg478
g501
sa(dp520
S'block.thisTrialN'
p521
I5
sS'block.thisRepN'
p522
I0
sg29
NsS'block.thisN'
p523
I5
sg461
(S'DIVIDE'
S'DOUBLE'
S'INCREASE'
S'TRIPLE'
S'x'
S'y'
tp524
sg27
g28
sg463
I4
sg464
(I9
I10
I20
I5
tp525
sg22
I1
sg20
F8.8056925560813397
sg23
F10.101248980266973
sVY
I4
sVX
I3
sg466
g471
sg31
g32
sg33
g34
sg21
S'5'
sg19
S'space'
p526
sg30
g11
sg469
I5
sg470
g500
sg472
I5
sS'block.thisIndex'
p527
I10
sg474
g497
sg476
g489
sg478
VBUUUxy
p528
sa(dp529
S'block.thisTrialN'
p530
I6
sS'block.thisRepN'
p531
I0
sg29
NsS'block.thisN'
p532
I6
sg461
(S'ADD'
S'HALF'
S'x'
S'y'
tp533
sg27
g28
sg463
I2
sg464
(I2
I7
tp534
sg22
I1
sg20
F1.9859658136265352
sg23
F1.926572319236584
sVY
I5
sVX
I4
sg466
I0
sg31
g32
sg33
g34
sg21
S'7'
sg19
S'space'
p535
sg30
g11
sg469
I7
sg470
g467
sg472
I7
sS'block.thisIndex'
p536
I0
sg474
VADD
p537
sg476
I0
sg478
VBUxy
p538
sa(dp539
S'block.thisTrialN'
p540
I7
sS'block.thisRepN'
p541
I0
sg29
NsS'block.thisN'
p542
I7
sg461
(S'DECREASE'
S'THIRD'
S'DOUBLE'
S'ADD'
S'x'
S'y'
tp543
sg27
g28
sg463
I4
sg464
(I9
I18
I6
I5
tp544
sg22
I1
sg20
F8.340667259064503
sg23
F2.8172028147382662
sVY
I4
sVX
I5
sg466
g500
sg31
g32
sg33
g34
sg21
S'5'
sg19
S'space'
p545
sg30
g11
sg469
I5
sg470
g475
sg472
I5
sS'block.thisIndex'
p546
I16
sg474
g508
sg476
g537
sg478
g479
sa(dp547
S'block.thisTrialN'
p548
I8
sS'block.thisRepN'
p549
I0
sg29
NsS'block.thisN'
p550
I8
sg461
(S'HALF'
S'SUBTRACT'
S'DECREASE'
S'TRIPLE'
S'x'
S'y'
tp551
sg27
g28
sg463
I4
sg464
(I15
I14
I10
I5
tp552
sg22
I1
sg20
F10.787367132375948
sg23
F5.5455372637370601
sVY
I4
sVX
I5
sg466
g508
sg31
g32
sg33
g34
sg21
S'5'
sg19
S'space'
p553
sg30
g11
sg469
I5
sg470
g486
sg472
I5
sS'block.thisIndex'
p554
I12
sg474
g467
sg476
g489
sg478
VUBUUxy
p555
sa(dp556
S'block.thisTrialN'
p557
I9
sS'block.thisRepN'
p558
I0
sg29
NsS'block.thisN'
p559
I9
sg461
(S'TRIPLE'
S'HALF'
S'ADD'
S'x'
S'y'
tp560
sg27
g28
sg463
I3
sg464
(I6
I3
I9
tp561
sg22
I1
sg20
F5.4253486761590466
sg23
F4.645031183375977
sVY
I3
sVX
I3
sg466
g537
sg31
g32
sg33
g34
sg21
S'9'
sg19
S'space'
p562
sg30
g11
sg469
I9
sg470
g467
sg472
I9
sS'block.thisIndex'
p563
I8
sg474
g489
sg476
I0
sg478
g490
sa(dp564
S'block.thisTrialN'
p565
I10
sS'block.thisRepN'
p566
I0
sg29
NsS'block.thisN'
p567
I10
sg461
(S'TIMES'
S'HALF'
S'INCREASE'
S'THIRD'
S'x'
S'y'
tp568
sg27
g28
sg463
I4
sg464
(I1
I2
I1
I9
tp569
sg22
I0
sg20
F7.4630368115613237
sVY
I9
sVX
I3
sg466
g471
sg31
g32
sg33
g34
sg21
Nsg19
S'space'
p570
sg30
g11
sg469
I9
sg470
g467
sg472
I9
sS'block.thisIndex'
p571
I11
sg474
g477
sg476
g475
sg478
g528
sa(dp572
S'block.thisTrialN'
p573
I11
sS'block.thisRepN'
p574
I0
sg29
NsS'block.thisN'
p575
I11
sg461
(S'SUBTRACT'
S'TRIPLE'
S'x'
S'y'
tp576
sg27
g28
sg463
I2
sg464
(I12
I9
tp577
sg22
I1
sg20
F3.7035165256820619
sg23
F2.9164388120407239
sVY
I3
sVX
I4
sg466
I0
sg31
g32
sg33
g34
sg21
S'9'
sg19
S'space'
p578
sg30
g11
sg469
I9
sg470
g489
sg472
I9
sS'block.thisIndex'
p579
I1
sg474
g486
sg476
I0
sg478
g538
sa(dp580
S'block.thisTrialN'
p581
I12
sS'block.thisRepN'
p582
I0
sg29
NsS'block.thisN'
p583
I12
sg461
(S'INCREASE'
S'TIMES'
S'TRIPLE'
S'HALF'
S'x'
S'y'
tp584
sg27
g28
sg463
I4
sg464
(I1
I3
I6
I7
tp585
sg22
I1
sg20
F13.048835133085959
sg23
F7.6831606210907921
sVY
I2
sVX
I2
sg466
g489
sg31
g32
sg33
g34
sg21
S'7'
sg19
S'space'
p586
sg30
g11
sg469
I7
sg470
g477
sg472
I7
sS'block.thisIndex'
p587
I13
sg474
g471
sg476
g467
sg478
g555
sa(dp588
S'block.thisTrialN'
p589
I13
sS'block.thisRepN'
p590
I0
sg29
NsS'block.thisN'
p591
I13
sg461
(S'DOUBLE'
S'DIVIDE'
S'x'
S'y'
tp592
sg27
g28
sg463
I2
sg464
(I1
I2
tp593
sg22
I1
sg20
F1.7461566270794719
sg23
F3.7810979086207226
sVY
I8
sVX
I8
sg466
I0
sg31
g32
sg33
g34
sg21
S'2'
sg19
S'space'
p594
sg30
g11
sg469
I2
sg470
g497
sg472
I2
sS'block.thisIndex'
p595
I2
sg474
g500
sg476
I0
sg478
VUBxy
p596
sa(dp597
S'block.thisTrialN'
p598
I14
sS'block.thisRepN'
p599
I0
sg29
NsS'block.thisN'
p600
I14
sg461
(S'INCREASE'
S'DIVIDE'
S'TRIPLE'
S'x'
S'y'
tp601
sg27
g28
sg463
I3
sg464
(I6
I2
I3
tp602
sg22
I1
sg20
F7.7945354093099013
sg23
F5.9732565842568874
sVY
I3
sVX
I2
sg466
g489
sg31
g32
sg33
g34
sg21
S'3'
sg19
S'space'
p603
sg30
g11
sg469
I3
sg470
g497
sg472
I3
sS'block.thisIndex'
p604
I7
sg474
g471
sg476
I0
sg478
g511
sa(dp605
S'block.thisTrialN'
p606
I15
sS'block.thisRepN'
p607
I0
sg29
NsS'block.thisN'
p608
I15
sg461
(S'INCREASE'
S'DIVIDE'
S'x'
S'y'
tp609
sg27
g28
sg463
I2
sg464
(I4
I5
tp610
sg22
I1
sg20
F3.9917209428967908
sg23
F1.6509794917656109
sVY
I2
sVX
I8
sg466
I0
sg31
g32
sg33
g34
sg21
S'5'
sg19
S'space'
p611
sg30
g11
sg469
I5
sg470
g497
sg472
I5
sS'block.thisIndex'
p612
I3
sg474
g471
sg476
I0
sg478
g596
sa(dp613
S'block.thisTrialN'
p614
I16
sS'block.thisRepN'
p615
I0
sg29
NsS'block.thisN'
p616
I16
sg461
(S'SUBTRACT'
S'INCREASE'
S'HALF'
S'x'
S'y'
tp617
sg27
g28
sg463
I3
sg464
(I4
I5
I3
tp618
sg22
I1
sg20
F4.849966281093657
sg23
F2.2440279815346003
sVY
I2
sVX
I8
sg466
g467
sg31
g32
sg33
g34
sg21
S'3'
sg19
S'space'
p619
sg30
g11
sg469
I3
sg470
g471
sg472
I3
sS'block.thisIndex'
p620
I5
sg474
g486
sg476
I0
sg478
VBUUxy
p621
sa(dp622
S'block.thisTrialN'
p623
I17
sS'block.thisRepN'
p624
I0
sg29
NsS'block.thisN'
p625
I17
sg461
(S'DIVIDE'
S'TRIPLE'
S'DECREASE'
S'x'
S'y'
tp626
sg27
g28
sg463
I3
sg464
(I6
I18
I9
tp627
sg22
I1
sg20
F3.3791361602488905
sg23
F4.3895916325272992
sVY
I2
sVX
I7
sg466
g508
sg31
g32
sg33
g34
sg21
S'9'
sg19
S'space'
p628
sg30
g11
sg469
I9
sg470
g489
sg472
I9
sS'block.thisIndex'
p629
I4
sg474
g497
sg476
I0
sg478
g621
sa(dp630
S'block.thisTrialN'
p631
I0
sS'block.thisRepN'
p632
I0
sg29
NsS'block.thisN'
p633
I0
sVRule
p634
(S'THIRD'
S'INCREASE'
S'HALF'
S'DIVIDE'
S'x'
S'y'
tp635
sg27
g28
sVLength
p636
I4
sVIntermediate
p637
(I4
I2
I3
I1
tp638
sg22
I0
sg20
F4.9148177868919447
sg23
F3.8460673516383395
sVY
I2
sVX
I8
sVOperatorc
p639
Vhalf
p640
sg31
g32
sg33
g34
sg21
S'9'
sg19
S'space'
p641
sg30
g11
sVResult
p642
I1
sVOperatora
p643
Vincrease
p644
sVCorrectResponse
p645
I1
sS'block.thisIndex'
p646
I16
sVOperatorb
p647
Vthird
p648
sVOperatord
p649
VDIVIDE
p650
sVStructure
p651
VUUUBxy
p652
sa(dp653
S'block.thisTrialN'
p654
I1
sS'block.thisRepN'
p655
I0
sg29
NsS'block.thisN'
p656
I1
sg634
(S'THIRD'
S'TIMES'
S'DECREASE'
S'x'
S'y'
tp657
sg27
g28
sg636
I3
sg637
(I3
I15
I5
tp658
sg22
I1
sg20
F5.0737282984191552
sg23
F5.6071600177092478
sVY
I5
sVX
I4
sg639
Vdecrease
p659
sg31
g32
sg33
g34
sg21
S'5'
sg19
S'space'
p660
sg30
g11
sg642
I5
sg643
VTIMES
p661
sg645
I5
sS'block.thisIndex'
p662
I7
sg647
g648
sg649
I0
sg651
VUBUxy
p663
sa(dp664
S'block.thisTrialN'
p665
I2
sS'block.thisRepN'
p666
I0
sg29
NsS'block.thisN'
p667
I2
sg634
(S'TIMES'
S'DECREASE'
S'HALF'
S'x'
S'y'
tp668
sg27
g28
sg636
I3
sg637
(I4
I3
I9
tp669
sg22
I1
sg20
F3.892318713478744
sg23
F3.0256805804092437
sVY
I3
sVX
I8
sg639
g640
sg31
g32
sg33
g34
sg21
S'9'
sg19
S'space'
p670
sg30
g11
sg642
I9
sg643
g659
sg645
I9
sS'block.thisIndex'
p671
I4
sg647
g661
sg649
I0
sg651
VBUUxy
p672
sa(dp673
S'block.thisTrialN'
p674
I3
sS'block.thisRepN'
p675
I0
sg29
NsS'block.thisN'
p676
I3
sg634
(S'THIRD'
S'DOUBLE'
S'ADD'
S'INCREASE'
S'x'
S'y'
tp677
sg27
g28
sg636
I4
sg637
(I10
I12
I24
I8
tp678
sg22
I1
sg20
F10.211302311043255
sg23
F8.5509802267188206
sVY
I2
sVX
I9
sg639
VADD
p679
sg31
g32
sg33
g34
sg21
S'8'
sg19
S'space'
p680
sg30
g11
sg642
I8
sg643
Vdouble
p681
sg645
I8
sS'block.thisIndex'
p682
I14
sg647
g648
sg649
g644
sg651
VUUBUxy
p683
sa(dp684
S'block.thisTrialN'
p685
I4
sS'block.thisRepN'
p686
I0
sg29
NsS'block.thisN'
p687
I4
sg634
(S'TIMES'
S'DECREASE'
S'x'
S'y'
tp688
sg27
g28
sg636
I2
sg637
(I2
I4
tp689
sg22
I1
sg20
F3.0274279417935759
sg23
F2.2299930951558053
sVY
I2
sVX
I3
sg639
I0
sg31
g32
sg33
g34
sg21
S'4'
sg19
S'space'
p690
sg30
g11
sg642
I4
sg643
g659
sg645
I4
sS'block.thisIndex'
p691
I0
sg647
g661
sg649
I0
sg651
VBUxy
p692
sa(dp693
S'block.thisTrialN'
p694
I5
sS'block.thisRepN'
p695
I0
sg29
NsS'block.thisN'
p696
I5
sg634
(S'TRIPLE'
S'SUBTRACT'
S'DOUBLE'
S'DECREASE'
S'x'
S'y'
tp697
sg27
g28
sg636
I4
sg637
(I2
I4
I1
I3
tp698
sg22
I1
sg20
F6.9985690043540671
sg23
F5.6973925362108275
sVY
I3
sVX
I3
sg639
g681
sg31
g32
sg33
g34
sg21
S'3'
sg19
S'space'
p699
sg30
g11
sg642
I3
sg643
VSUBTRACT
p700
sg645
I3
sS'block.thisIndex'
p701
I13
sg647
Vtriple
p702
sg649
g659
sg651
VUBUUxy
p703
sa(dp704
S'block.thisTrialN'
p705
I6
sS'block.thisRepN'
p706
I0
sg29
NsS'block.thisN'
p707
I6
sg634
(S'TIMES'
S'THIRD'
S'HALF'
S'x'
S'y'
tp708
sg27
g28
sg636
I3
sg637
(I3
I1
I5
tp709
sg22
I1
sg20
F3.4095310821430758
sg23
F1.4328886129660532
sVY
I5
sVX
I6
sg639
g640
sg31
g32
sg33
g34
sg21
S'5'
sg19
S'space'
p710
sg30
g11
sg642
I5
sg643
g648
sg645
I5
sS'block.thisIndex'
p711
I5
sg647
g661
sg649
I0
sg651
g672
sa(dp712
S'block.thisTrialN'
p713
I7
sS'block.thisRepN'
p714
I0
sg29
NsS'block.thisN'
p715
I7
sg634
(S'TRIPLE'
S'HALF'
S'ADD'
S'DECREASE'
S'x'
S'y'
tp716
sg27
g28
sg636
I4
sg637
(I1
I4
I2
I6
tp717
sg22
I0
sg20
F5.6671767949592322
sVY
I3
sVX
I2
sg639
g679
sg31
g32
sg33
g34
sg21
Nsg19
S'space'
p718
sg30
g11
sg642
I6
sg643
g640
sg645
I6
sS'block.thisIndex'
p719
I15
sg647
g702
sg649
g659
sg651
g683
sa(dp720
S'block.thisTrialN'
p721
I8
sS'block.thisRepN'
p722
I0
sg29
NsS'block.thisN'
p723
I8
sg634
(S'THIRD'
S'ADD'
S'x'
S'y'
tp724
sg27
g28
sg636
I2
sg637
(I9
I3
tp725
sg22
I1
sg20
F3.4983291052049026
sg23
F1.7513224199647084
sVY
I5
sVX
I4
sg639
I0
sg31
g32
sg33
g34
sg21
S'3'
sg19
S'space'
p726
sg30
g11
sg642
I3
sg643
g679
sg645
I3
sS'block.thisIndex'
p727
I2
sg647
g648
sg649
I0
sg651
VUBxy
p728
sa(dp729
S'block.thisTrialN'
p730
I9
sS'block.thisRepN'
p731
I0
sg29
NsS'block.thisN'
p732
I9
sg634
(S'TIMES'
S'INCREASE'
S'x'
S'y'
tp733
sg27
g28
sg636
I2
sg637
(I3
I6
tp734
sg22
I1
sg20
F6.1959393179276958
sg23
F3.2887468585977331
sVY
I2
sVX
I2
sg639
I0
sg31
g32
sg33
g34
sg21
S'6'
sg19
S'space'
p735
sg30
g11
sg642
I6
sg643
g644
sg645
I6
sS'block.thisIndex'
p736
I1
sg647
g661
sg649
I0
sg651
g692
sa(dp737
S'block.thisTrialN'
p738
I10
sS'block.thisRepN'
p739
I0
sg29
NsS'block.thisN'
p740
I10
sg634
(S'INCREASE'
S'DIVIDE'
S'TRIPLE'
S'DOUBLE'
S'x'
S'y'
tp741
sg27
g28
sg636
I4
sg637
(I6
I18
I3
I4
tp742
sg22
I1
sg20
F9.8732485701330006
sg23
F3.157987661077641
sVY
I6
sVX
I3
sg639
g702
sg31
g32
sg33
g34
sg21
S'4'
sg19
S'space'
p743
sg30
g11
sg642
I4
sg643
g650
sg645
I4
sS'block.thisIndex'
p744
I12
sg647
g644
sg649
g681
sg651
g703
sa(dp745
S'block.thisTrialN'
p746
I11
sS'block.thisRepN'
p747
I0
sg29
NsS'block.thisN'
p748
I11
sg634
(S'TIMES'
S'INCREASE'
S'THIRD'
S'DOUBLE'
S'x'
S'y'
tp749
sg27
g28
sg636
I4
sg637
(I6
I2
I3
I9
tp750
sg22
I1
sg20
F9.8456358481198549
sg23
F2.8678381536155939
sVY
I3
sVX
I3
sg639
g648
sg31
g32
sg33
g34
sg21
S'9'
sg19
S'space'
p751
sg30
g11
sg642
I9
sg643
g644
sg645
I9
sS'block.thisIndex'
p752
I11
sg647
g661
sg649
g681
sg651
VBUUUxy
p753
sa(dp754
S'block.thisTrialN'
p755
I12
sS'block.thisRepN'
p756
I0
sg29
NsS'block.thisN'
p757
I12
sg634
(S'SUBTRACT'
S'HALF'
S'INCREASE'
S'TRIPLE'
S'x'
S'y'
tp758
sg27
g28
sg636
I4
sg637
(I15
I16
I8
I3
tp759
sg22
I1
sg20
F8.6451893663033843
sg23
F7.8278493664693087
sVY
I5
sVX
I5
sg639
g644
sg31
g32
sg33
g34
sg21
S'3'
sg19
S'space'
p760
sg30
g11
sg642
I3
sg643
g640
sg645
I3
sS'block.thisIndex'
p761
I10
sg647
g700
sg649
g702
sg651
g753
sa(dp762
S'block.thisTrialN'
p763
I13
sS'block.thisRepN'
p764
I0
sg29
NsS'block.thisN'
p765
I13
sg634
(S'THIRD'
S'SUBTRACT'
S'x'
S'y'
tp766
sg27
g28
sg636
I2
sg637
(I3
I1
tp767
sg22
I1
sg20
F1.7016977719031274
sg23
F1.587426346144639
sVY
I2
sVX
I5
sg639
I0
sg31
g32
sg33
g34
sg21
S'1'
sg19
S'space'
p768
sg30
g11
sg642
I1
sg643
g700
sg645
I1
sS'block.thisIndex'
p769
I3
sg647
g648
sg649
I0
sg651
g728
sa(dp770
S'block.thisTrialN'
p771
I14
sS'block.thisRepN'
p772
I0
sg29
NsS'block.thisN'
p773
I14
sg634
(S'TRIPLE'
S'HALF'
S'DIVIDE'
S'x'
S'y'
tp774
sg27
g28
sg636
I3
sg637
(I2
I1
I3
tp775
sg22
I1
sg20
F5.7777291719103232
sg23
F3.0294125778600574
sVY
I2
sVX
I4
sg639
g650
sg31
g32
sg33
g34
sg21
S'3'
sg19
S'space'
p776
sg30
g11
sg642
I3
sg643
g640
sg645
I3
sS'block.thisIndex'
p777
I9
sg647
g702
sg649
I0
sg651
VUUBxy
p778
sa(dp779
S'block.thisTrialN'
p780
I15
sS'block.thisRepN'
p781
I0
sg29
NsS'block.thisN'
p782
I15
sg634
(S'THIRD'
S'DECREASE'
S'TIMES'
S'x'
S'y'
tp783
sg27
g28
sg636
I3
sg637
(I25
I24
I8
tp784
sg22
I0
sg20
F5.6870560509851202
sg23
F4.1917863158741966
sVY
I5
sVX
I5
sg639
g661
sg31
g32
sg33
g34
sg21
S'3'
sg19
S'space'
p785
sg30
g11
sg642
I8
sg643
g659
sg645
I8
sS'block.thisIndex'
p786
I8
sg647
g648
sg649
I0
sg651
g778
sa(dp787
S'block.thisTrialN'
p788
I16
sS'block.thisRepN'
p789
I0
sg29
NsS'block.thisN'
p790
I16
sg634
(S'THIRD'
S'ADD'
S'INCREASE'
S'x'
S'y'
tp791
sg27
g28
sg636
I3
sg637
(I8
I15
I5
tp792
sg22
I1
sg20
F5.3820817924570292
sg23
F6.6452807064633816
sVY
I7
sVX
I7
sg639
g644
sg31
g32
sg33
g34
sg21
S'5'
sg19
S'space'
p793
sg30
g11
sg642
I5
sg643
g679
sg645
I5
sS'block.thisIndex'
p794
I6
sg647
g648
sg649
I0
sg651
g663
sa(dp795
S'block.thisTrialN'
p796
I17
sS'block.thisRepN'
p797
I0
sg29
NsS'block.thisN'
p798
I17
sg634
(S'TRIPLE'
S'DECREASE'
S'HALF'
S'TIMES'
S'x'
S'y'
tp799
sg27
g28
sg636
I4
sg637
(I6
I3
I2
I6
tp800
sg22
I1
sg20
F7.1718230688711628
sg23
F4.866919502732344
sVY
I2
sVX
I3
sg639
g640
sg31
g32
sg33
g34
sg21
S'6'
sg19
S'space'
p801
sg30
g11
sg642
I6
sg643
g659
sg645
I6
sS'block.thisIndex'
p802
I17
sg647
g702
sg649
g661
sg651
g652
sa(dp803
S'block.thisTrialN'
p804
I0
sS'block.thisRepN'
p805
I0
sg29
NsS'block.thisN'
p806
I0
sVRule
p807
(S'INCREASE'
S'DIVIDE'
S'TRIPLE'
S'HALF'
S'x'
S'y'
tp808
sg27
g28
sVLength
p809
I4
sVIntermediate
p810
(I2
I6
I2
I3
tp811
sg22
I1
sg20
F7.134239572333172
sg23
F4.9973185891285539
sVY
I3
sVX
I4
sVOperatorc
p812
Vtriple
p813
sg31
g32
sg33
g34
sg21
S'3'
sg19
S'space'
p814
sg30
g11
sVResult
p815
I3
sVOperatora
p816
VDIVIDE
p817
sVCorrectResponse
p818
I3
sS'block.thisIndex'
p819
I12
sVOperatorb
p820
Vincrease
p821
sVOperatord
p822
Vhalf
p823
sVStructure
p824
VUBUUxy
p825
sa(dp826
S'block.thisTrialN'
p827
I1
sS'block.thisRepN'
p828
I0
sg29
NsS'block.thisN'
p829
I1
sg807
(S'SUBTRACT'
S'INCREASE'
S'x'
S'y'
tp830
sg27
g28
sg809
I2
sg810
(I6
I2
tp831
sg22
I1
sg20
F5.6564140557311475
sg23
F1.9759267963236198
sVY
I4
sVX
I5
sg812
I0
sg31
g32
sg33
g34
sg21
S'2'
sg19
S'space'
p832
sg30
g11
sg815
I2
sg816
g821
sg818
I2
sS'block.thisIndex'
p833
I1
sg820
VSUBTRACT
p834
sg822
I0
sg824
VBUxy
p835
sa(dp836
S'block.thisTrialN'
p837
I2
sS'block.thisRepN'
p838
I0
sg29
NsS'block.thisN'
p839
I2
sg807
(S'TIMES'
S'INCREASE'
S'HALF'
S'TRIPLE'
S'x'
S'y'
tp840
sg27
g28
sg809
I4
sg810
(I6
I3
I4
I8
tp841
sg22
I1
sg20
F8.3021896088030189
sg23
F2.9167467788793147
sVY
I2
sVX
I2
sg812
g823
sg31
g32
sg33
g34
sg21
S'8'
sg19
S'space'
p842
sg30
g11
sg815
I8
sg816
g821
sg818
I8
sS'block.thisIndex'
p843
I11
sg820
VTIMES
p844
sg822
g813
sg824
VBUUUxy
p845
sa(dp846
S'block.thisTrialN'
p847
I3
sS'block.thisRepN'
p848
I0
sg29
NsS'block.thisN'
p849
I3
sg807
(S'TRIPLE'
S'DECREASE'
S'HALF'
S'SUBTRACT'
S'x'
S'y'
tp850
sg27
g28
sg809
I4
sg810
(I4
I2
I1
I3
tp851
sg22
I1
sg20
F9.2479108127299696
sg23
F11.860555089195259
sVY
I5
sVX
I9
sg812
g823
sg31
g32
sg33
g34
sg21
S'3'
sg19
S'space'
p852
sg30
g11
sg815
I3
sg816
Vdecrease
p853
sg818
I3
sS'block.thisIndex'
p854
I17
sg820
g813
sg822
g834
sg824
VUUUBxy
p855
sa(dp856
S'block.thisTrialN'
p857
I4
sS'block.thisRepN'
p858
I0
sg29
NsS'block.thisN'
p859
I4
sg807
(S'DOUBLE'
S'ADD'
S'x'
S'y'
tp860
sg27
g28
sg809
I2
sg810
(I4
I8
tp861
sg22
I1
sg20
F1.8147639277158305
sg23
F1.8444414269179106
sVY
I2
sVX
I2
sg812
I0
sg31
g32
sg33
g34
sg21
S'8'
sg19
S'space'
p862
sg30
g11
sg815
I8
sg816
VADD
p863
sg818
I8
sS'block.thisIndex'
p864
I2
sg820
Vdouble
p865
sg822
I0
sg824
VUBxy
p866
sa(dp867
S'block.thisTrialN'
p868
I5
sS'block.thisRepN'
p869
I0
sg29
NsS'block.thisN'
p870
I5
sg807
(S'TIMES'
S'THIRD'
S'DOUBLE'
S'x'
S'y'
tp871
sg27
g28
sg809
I3
sg810
(I6
I2
I4
tp872
sg22
I1
sg20
F6.1837466330034658
sg23
F3.4440251118503511
sVY
I2
sVX
I3
sg812
g865
sg31
g32
sg33
g34
sg21
S'4'
sg19
S'space'
p873
sg30
g11
sg815
I4
sg816
Vthird
p874
sg818
I4
sS'block.thisIndex'
p875
I5
sg820
g844
sg822
I0
sg824
VBUUxy
p876
sa(dp877
S'block.thisTrialN'
p878
I6
sS'block.thisRepN'
p879
I0
sg29
NsS'block.thisN'
p880
I6
sg807
(S'DIVIDE'
S'TRIPLE'
S'HALF'
S'x'
S'y'
tp881
sg27
g28
sg809
I3
sg810
(I4
I12
I4
tp882
sg22
I1
sg20
F5.5568679918069392
sg23
F4.3705113403266296
sVY
I3
sVX
I8
sg812
g823
sg31
g32
sg33
g34
sg21
S'4'
sg19
S'space'
p883
sg30
g11
sg815
I4
sg816
g813
sg818
I4
sS'block.thisIndex'
p884
I4
sg820
g817
sg822
I0
sg824
g876
sa(dp885
S'block.thisTrialN'
p886
I7
sS'block.thisRepN'
p887
I0
sg29
NsS'block.thisN'
p888
I7
sg807
(S'DECREASE'
S'TRIPLE'
S'HALF'
S'ADD'
S'x'
S'y'
tp889
sg27
g28
sg809
I4
sg810
(I6
I3
I9
I8
tp890
sg22
I1
sg20
F8.0839139499003068
sg23
F4.0079682905925438
sVY
I2
sVX
I4
sg812
g823
sg31
g32
sg33
g34
sg21
S'8'
sg19
S'space'
p891
sg30
g11
sg815
I8
sg816
g813
sg818
I8
sS'block.thisIndex'
p892
I16
sg820
g853
sg822
g863
sg824
g855
sa(dp893
S'block.thisTrialN'
p894
I8
sS'block.thisRepN'
p895
I0
sg29
NsS'block.thisN'
p896
I8
sg807
(S'THIRD'
S'INCREASE'
S'SUBTRACT'
S'x'
S'y'
tp897
sg27
g28
sg809
I3
sg810
(I2
I3
I1
tp898
sg22
I1
sg20
F7.6057916653808206
sg23
F2.3365391042316332
sVY
I6
sVX
I8
sg812
g834
sg31
g32
sg33
g34
sg21
S'1'
sg19
S'space'
p899
sg30
g11
sg815
I1
sg816
g821
sg818
I1
sS'block.thisIndex'
p900
I9
sg820
g874
sg822
I0
sg824
VUUBxy
p901
sa(dp902
S'block.thisTrialN'
p903
I9
sS'block.thisRepN'
p904
I0
sg29
NsS'block.thisN'
p905
I9
sg807
(S'INCREASE'
S'ADD'
S'TRIPLE'
S'x'
S'y'
tp906
sg27
g28
sg809
I3
sg810
(I6
I8
I9
tp907
sg22
I1
sg20
F5.7392046268796548
sg23
F3.6991066513583064
sVY
I2
sVX
I2
sg812
g813
sg31
g32
sg33
g34
sg21
S'9'
sg19
S'space'
p908
sg30
g11
sg815
I9
sg816
g863
sg818
I9
sS'block.thisIndex'
p909
I6
sg820
g821
sg822
I0
sg824
VUBUxy
p910
sa(dp911
S'block.thisTrialN'
p912
I10
sS'block.thisRepN'
p913
I0
sg29
NsS'block.thisN'
p914
I10
sg807
(S'THIRD'
S'INCREASE'
S'ADD'
S'DOUBLE'
S'x'
S'y'
tp915
sg27
g28
sg809
I4
sg810
(I16
I20
I21
I7
tp916
sg22
I1
sg20
F8.1629151296801865
sg23
F11.142963781370781
sVY
I4
sVX
I8
sg812
g863
sg31
g32
sg33
g34
sg21
S'7'
sg19
S'space'
p917
sg30
g11
sg815
I7
sg816
g821
sg818
I7
sS'block.thisIndex'
p918
I14
sg820
g874
sg822
g865
sg824
VUUBUxy
p919
sa(dp920
S'block.thisTrialN'
p921
I11
sS'block.thisRepN'
p922
I0
sg29
NsS'block.thisN'
p923
I11
sg807
(S'INCREASE'
S'SUBTRACT'
S'THIRD'
S'x'
S'y'
tp924
sg27
g28
sg809
I3
sg810
(I3
I1
I2
tp925
sg22
I1
sg20
F5.9712275031488389
sg23
F3.0613623820245266
sVY
I2
sVX
I9
sg812
g874
sg31
g32
sg33
g34
sg21
S'2'
sg19
S'space'
p926
sg30
g11
sg815
I2
sg816
g834
sg818
I2
sS'block.thisIndex'
p927
I7
sg820
g821
sg822
I0
sg824
g910
sa(dp928
S'block.thisTrialN'
p929
I12
sS'block.thisRepN'
p930
I0
sg29
NsS'block.thisN'
p931
I12
sg807
(S'DIVIDE'
S'DOUBLE'
S'INCREASE'
S'THIRD'
S'x'
S'y'
tp932
sg27
g28
sg809
I4
sg810
(I2
I3
I6
I2
tp933
sg22
I1
sg20
F6.1521940358215943
sg23
F6.5113977456931025
sVY
I3
sVX
I6
sg812
g821
sg31
g32
sg33
g34
sg21
S'2'
sg19
S'space'
p934
sg30
g11
sg815
I2
sg816
g865
sg818
I2
sS'block.thisIndex'
p935
I10
sg820
g817
sg822
g874
sg824
g845
sa(dp936
S'block.thisTrialN'
p937
I13
sS'block.thisRepN'
p938
I0
sg29
NsS'block.thisN'
p939
I13
sg807
(S'DOUBLE'
S'TIMES'
S'x'
S'y'
tp940
sg27
g28
sg809
I2
sg810
(I4
I8
tp941
sg22
I1
sg20
F3.7150456822710112
sg23
F3.73610606091097
sVY
I2
sVX
I2
sg812
I0
sg31
g32
sg33
g34
sg21
S'8'
sg19
S'space'
p942
sg30
g11
sg815
I8
sg816
g844
sg818
I8
sS'block.thisIndex'
p943
I3
sg820
g865
sg822
I0
sg824
g866
sa(dp944
S'block.thisTrialN'
p945
I14
sS'block.thisRepN'
p946
I0
sg29
NsS'block.thisN'
p947
I14
sg807
(S'DECREASE'
S'TRIPLE'
S'DIVIDE'
S'x'
S'y'
tp948
sg27
g28
sg809
I3
sg810
(I2
I6
I5
tp949
sg22
I1
sg20
F5.4136039428412914
sg23
F6.0221669593593106
sVY
I4
sVX
I8
sg812
g817
sg31
g32
sg33
g34
sg21
S'5'
sg19
S'space'
p950
sg30
g11
sg815
I5
sg816
g813
sg818
I5
sS'block.thisIndex'
p951
I8
sg820
g853
sg822
I0
sg824
g901
sa(dp952
S'block.thisTrialN'
p953
I15
sS'block.thisRepN'
p954
I0
sg29
NsS'block.thisN'
p955
I15
sg807
(S'TRIPLE'
S'DOUBLE'
S'SUBTRACT'
S'DECREASE'
S'x'
S'y'
tp956
sg27
g28
sg809
I4
sg810
(I4
I1
I2
I6
tp957
sg22
I1
sg20
F7.0631251418963075
sg23
F2.2308774498524144
sVY
I3
sVX
I5
sg812
g834
sg31
g32
sg33
g34
sg21
S'6'
sg19
S'space'
p958
sg30
g11
sg815
I6
sg816
g865
sg818
I6
sS'block.thisIndex'
p959
I15
sg820
g813
sg822
g853
sg824
g919
sa(dp960
S'block.thisTrialN'
p961
I16
sS'block.thisRepN'
p962
I0
sg29
NsS'block.thisN'
p963
I16
sg807
(S'ADD'
S'THIRD'
S'x'
S'y'
tp964
sg27
g28
sg809
I2
sg810
(I1
I7
tp965
sg22
I1
sg20
F3.5701879052212462
sg23
F2.4519391583744437
sVY
I6
sVX
I3
sg812
I0
sg31
g32
sg33
g34
sg21
S'7'
sg19
S'space'
p966
sg30
g11
sg815
I7
sg816
g874
sg818
I7
sS'block.thisIndex'
p967
I0
sg820
g863
sg822
I0
sg824
g835
sa(dp968
S'block.thisTrialN'
p969
I17
sS'block.thisRepN'
p970
I0
sg29
NsS'block.thisN'
p971
I17
sg807
(S'THIRD'
S'TIMES'
S'HALF'
S'INCREASE'
S'x'
S'y'
tp972
sg27
g28
sg809
I4
sg810
(I8
I4
I12
I4
tp973
sg22
I1
sg20
F6.9959096411475912
sg23
F4.7287638527341187
sVY
I3
sVX
I7
sg812
g823
sg31
g32
sg33
g34
sg21
S'4'
sg19
S'space'
p974
sg30
g11
sg815
I4
sg816
g844
sg818
I4
sS'block.thisIndex'
p975
I13
sg820
g874
sg822
g821
sg824
g825
sa(dp976
S'block.thisTrialN'
p977
I0
sS'block.thisRepN'
p978
I0
sg29
NsS'block.thisN'
p979
I0
sVRule
p980
(S'DECREASE'
S'TRIPLE'
S'HALF'
S'SUBTRACT'
S'x'
S'y'
tp981
sg27
g28
sVLength
p982
I4
sVIntermediate
p983
(I4
I2
I6
I5
tp984
sg22
I1
sg20
F6.6066368242027238
sg23
F4.6777236075140536
sVY
I2
sVX
I6
sVOperatorc
p985
Vhalf
p986
sg31
g32
sg33
g34
sg21
S'5'
sg19
S'space'
p987
sg30
g11
sVResult
p988
I5
sVOperatora
p989
Vtriple
p990
sVCorrectResponse
p991
I5
sS'block.thisIndex'
p992
I16
sVOperatorb
p993
Vdecrease
p994
sVOperatord
p995
VSUBTRACT
p996
sVStructure
p997
VUUUBxy
p998
sa(dp999
S'block.thisTrialN'
p1000
I1
sS'block.thisRepN'
p1001
I0
sg29
NsS'block.thisN'
p1002
I1
sg980
(S'TIMES'
S'DOUBLE'
S'x'
S'y'
tp1003
sg27
g28
sg982
I2
sg983
(I4
I8
tp1004
sg22
I1
sg20
F3.3445395914604887
sg23
F4.2441658667521551
sVY
I2
sVX
I2
sg985
I0
sg31
g32
sg33
g34
sg21
S'8'
sg19
S'space'
p1005
sg30
g11
sg988
I8
sg989
Vdouble
p1006
sg991
I8
sS'block.thisIndex'
p1007
I1
sg993
VTIMES
p1008
sg995
I0
sg997
VBUxy
p1009
sa(dp1010
S'block.thisTrialN'
p1011
I2
sS'block.thisRepN'
p1012
I0
sg29
NsS'block.thisN'
p1013
I2
sg980
(S'SUBTRACT'
S'TRIPLE'
S'DECREASE'
S'x'
S'y'
tp1014
sg27
g28
sg982
I3
sg983
(I4
I12
I3
tp1015
sg22
I1
sg20
F5.1227846076944843
sg23
F5.7171839516377077
sVY
I9
sVX
I5
sg985
g994
sg31
g32
sg33
g34
sg21
S'3'
sg19
S'space'
p1016
sg30
g11
sg988
I3
sg989
g990
sg991
I3
sS'block.thisIndex'
p1017
I4
sg993
g996
sg995
I0
sg997
VBUUxy
p1018
sa(dp1019
S'block.thisTrialN'
p1020
I3
sS'block.thisRepN'
p1021
I0
sg29
NsS'block.thisN'
p1022
I3
sg980
(S'DOUBLE'
S'DIVIDE'
S'TRIPLE'
S'INCREASE'
S'x'
S'y'
tp1023
sg27
g28
sg982
I4
sg983
(I5
I15
I3
I6
tp1024
sg22
I1
sg20
F5.7837586716050282
sg23
F5.4746006142813712
sVY
I5
sVX
I4
sg985
g990
sg31
g32
sg33
g34
sg21
S'6'
sg19
S'space'
p1025
sg30
g11
sg988
I6
sg989
VDIVIDE
p1026
sg991
I6
sS'block.thisIndex'
p1027
I12
sg993
g1006
sg995
Vincrease
p1028
sg997
VUBUUxy
p1029
sa(dp1030
S'block.thisTrialN'
p1031
I4
sS'block.thisRepN'
p1032
I0
sg29
NsS'block.thisN'
p1033
I4
sg980
(S'INCREASE'
S'SUBTRACT'
S'x'
S'y'
tp1034
sg27
g28
sg982
I2
sg983
(I3
I4
tp1035
sg22
I1
sg20
F2.3580453348113224
sg23
F6.6477489902172238
sVY
I3
sVX
I6
sg985
I0
sg31
g32
sg33
g34
sg21
S'4'
sg19
S'space'
p1036
sg30
g11
sg988
I4
sg989
g996
sg991
I4
sS'block.thisIndex'
p1037
I2
sg993
g1028
sg995
I0
sg997
VUBxy
p1038
sa(dp1039
S'block.thisTrialN'
p1040
I5
sS'block.thisRepN'
p1041
I0
sg29
NsS'block.thisN'
p1042
I5
sg980
(S'SUBTRACT'
S'DOUBLE'
S'TRIPLE'
S'DECREASE'
S'x'
S'y'
tp1043
sg27
g28
sg982
I4
sg983
(I2
I6
I12
I8
tp1044
sg22
I1
sg20
F10.420687528792769
sg23
F7.6852180492132902
sVY
I4
sVX
I3
sg985
g990
sg31
g32
sg33
g34
sg21
S'8'
sg19
S'space'
p1045
sg30
g11
sg988
I8
sg989
g1006
sg991
I8
sS'block.thisIndex'
p1046
I10
sg993
g996
sg995
g994
sg997
VBUUUxy
p1047
sa(dp1048
S'block.thisTrialN'
p1049
I6
sS'block.thisRepN'
p1050
I0
sg29
NsS'block.thisN'
p1051
I6
sg980
(S'DECREASE'
S'TRIPLE'
S'DIVIDE'
S'DOUBLE'
S'x'
S'y'
tp1052
sg27
g28
sg982
I4
sg983
(I6
I2
I6
I5
tp1053
sg22
I1
sg20
F8.959704645909369
sg23
F5.6698956517502666
sVY
I3
sVX
I3
sg985
g1026
sg31
g32
sg33
g34
sg21
S'5'
sg19
S'space'
p1054
sg30
g11
sg988
I5
sg989
g990
sg991
I5
sS'block.thisIndex'
p1055
I14
sg993
g994
sg995
g1006
sg997
VUUBUxy
p1056
sa(dp1057
S'block.thisTrialN'
p1058
I7
sS'block.thisRepN'
p1059
I0
sg29
NsS'block.thisN'
p1060
I7
sg980
(S'DIVIDE'
S'THIRD'
S'x'
S'y'
tp1061
sg27
g28
sg982
I2
sg983
(I3
I1
tp1062
sg22
I1
sg20
F2.6108349714195356
sg23
F2.2625014393124729
sVY
I3
sVX
I9
sg985
I0
sg31
g32
sg33
g34
sg21
S'1'
sg19
S'space'
p1063
sg30
g11
sg988
I1
sg989
Vthird
p1064
sg991
I1
sS'block.thisIndex'
p1065
I0
sg993
g1026
sg995
I0
sg997
g1009
sa(dp1066
S'block.thisTrialN'
p1067
I8
sS'block.thisRepN'
p1068
I0
sg29
NsS'block.thisN'
p1069
I8
sg980
(S'SUBTRACT'
S'TRIPLE'
S'DECREASE'
S'DOUBLE'
S'x'
S'y'
tp1070
sg27
g28
sg982
I4
sg983
(I4
I3
I9
I1
tp1071
sg22
I1
sg20
F8.4005489507690072
sg23
F2.9977815891616046
sVY
I8
sVX
I2
sg985
g994
sg31
g32
sg33
g34
sg21
S'1'
sg19
S'space'
p1072
sg30
g11
sg988
I1
sg989
g990
sg991
I1
sS'block.thisIndex'
p1073
I11
sg993
g996
sg995
g1006
sg997
g1047
sa(dp1074
S'block.thisTrialN'
p1075
I9
sS'block.thisRepN'
p1076
I0
sg29
NsS'block.thisN'
p1077
I9
sg980
(S'TIMES'
S'HALF'
S'INCREASE'
S'x'
S'y'
tp1078
sg27
g28
sg982
I3
sg983
(I6
I3
I9
tp1079
sg22
I1
sg20
F2.6778765410417691
sg23
F2.8541539295110852
sVY
I3
sVX
I5
sg985
g1028
sg31
g32
sg33
g34
sg21
S'9'
sg19
S'space'
p1080
sg30
g11
sg988
I9
sg989
g986
sg991
I9
sS'block.thisIndex'
p1081
I5
sg993
g1008
sg995
I0
sg997
g1018
sa(dp1082
S'block.thisTrialN'
p1083
I10
sS'block.thisRepN'
p1084
I0
sg29
NsS'block.thisN'
p1085
I10
sg980
(S'THIRD'
S'DIVIDE'
S'DECREASE'
S'x'
S'y'
tp1086
sg27
g28
sg982
I3
sg983
(I6
I3
I1
tp1087
sg22
I1
sg20
F6.4991704144049436
sg23
F3.512559620430693
sVY
I2
sVX
I7
sg985
g994
sg31
g32
sg33
g34
sg21
S'1'
sg19
S'space'
p1088
sg30
g11
sg988
I1
sg989
g1026
sg991
I1
sS'block.thisIndex'
p1089
I6
sg993
g1064
sg995
I0
sg997
VUBUxy
p1090
sa(dp1091
S'block.thisTrialN'
p1092
I11
sS'block.thisRepN'
p1093
I0
sg29
NsS'block.thisN'
p1094
I11
sg980
(S'DOUBLE'
S'THIRD'
S'TIMES'
S'x'
S'y'
tp1095
sg27
g28
sg982
I3
sg983
(I12
I4
I8
tp1096
sg22
I1
sg20
F5.3484525193925947
sg23
F6.437789834337309
sVY
I6
sVX
I2
sg985
g1008
sg31
g32
sg33
g34
sg21
S'8'
sg19
S'space'
p1097
sg30
g11
sg988
I8
sg989
g1064
sg991
I8
sS'block.thisIndex'
p1098
I9
sg993
g1006
sg995
I0
sg997
VUUBxy
p1099
sa(dp1100
S'block.thisTrialN'
p1101
I12
sS'block.thisRepN'
p1102
I0
sg29
NsS'block.thisN'
p1103
I12
sg980
(S'HALF'
S'TRIPLE'
S'INCREASE'
S'SUBTRACT'
S'x'
S'y'
tp1104
sg27
g28
sg982
I4
sg983
(I1
I2
I6
I3
tp1105
sg22
I1
sg20
F8.6921634002355859
sg23
F3.4001237467164174
sVY
I2
sVX
I3
sg985
g1028
sg31
g32
sg33
g34
sg21
S'3'
sg19
S'space'
p1106
sg30
g11
sg988
I3
sg989
g990
sg991
I3
sS'block.thisIndex'
p1107
I17
sg993
g986
sg995
g996
sg997
g998
sa(dp1108
S'block.thisTrialN'
p1109
I13
sS'block.thisRepN'
p1110
I0
sg29
NsS'block.thisN'
p1111
I13
sg980
(S'INCREASE'
S'ADD'
S'HALF'
S'TRIPLE'
S'x'
S'y'
tp1112
sg27
g28
sg982
I4
sg983
(I6
I3
I6
I7
tp1113
sg22
I1
sg20
F6.7726200728211552
sg23
F2.9989469635766
sVY
I3
sVX
I2
sg985
g986
sg31
g32
sg33
g34
sg21
S'7'
sg19
S'space'
p1114
sg30
g11
sg988
I7
sg989
VADD
p1115
sg991
I7
sS'block.thisIndex'
p1116
I13
sg993
g1028
sg995
g990
sg997
g1029
sa(dp1117
S'block.thisTrialN'
p1118
I14
sS'block.thisRepN'
p1119
I0
sg29
NsS'block.thisN'
p1120
I14
sg980
(S'THIRD'
S'DIVIDE'
S'x'
S'y'
tp1121
sg27
g28
sg982
I2
sg983
(I3
I1
tp1122
sg22
I1
sg20
F2.6274494295939803
sg23
F3.0621008024318144
sVY
I2
sVX
I6
sg985
I0
sg31
g32
sg33
g34
sg21
S'1'
sg19
S'space'
p1123
sg30
g11
sg988
I1
sg989
g1026
sg991
I1
sS'block.thisIndex'
p1124
I3
sg993
g1064
sg995
I0
sg997
g1038
sa(dp1125
S'block.thisTrialN'
p1126
I15
sS'block.thisRepN'
p1127
I0
sg29
NsS'block.thisN'
p1128
I15
sg980
(S'THIRD'
S'DECREASE'
S'TIMES'
S'HALF'
S'x'
S'y'
tp1129
sg27
g28
sg982
I4
sg983
(I4
I16
I15
I5
tp1130
sg22
I1
sg20
F11.815272072912194
sg23
F7.4149191010510549
sVY
I4
sVX
I8
sg985
g1008
sg31
g32
sg33
g34
sg21
S'5'
sg19
S'space'
p1131
sg30
g11
sg988
I5
sg989
g994
sg991
I5
sS'block.thisIndex'
p1132
I15
sg993
g1064
sg995
g986
sg997
g1056
sa(dp1133
S'block.thisTrialN'
p1134
I16
sS'block.thisRepN'
p1135
I0
sg29
NsS'block.thisN'
p1136
I16
sg980
(S'DOUBLE'
S'DECREASE'
S'ADD'
S'x'
S'y'
tp1137
sg27
g28
sg982
I3
sg983
(I4
I3
I6
tp1138
sg22
I1
sg20
F3.5897136994171888
sg23
F3.1881169616244733
sVY
I2
sVX
I2
sg985
g1115
sg31
g32
sg33
g34
sg21
S'6'
sg19
S'space'
p1139
sg30
g11
sg988
I6
sg989
g994
sg991
I6
sS'block.thisIndex'
p1140
I8
sg993
g1006
sg995
I0
sg997
g1099
sa(dp1141
S'block.thisTrialN'
p1142
I17
sS'block.thisRepN'
p1143
I0
sg29
NsS'block.thisN'
p1144
I17
sg980
(S'THIRD'
S'TIMES'
S'HALF'
S'x'
S'y'
tp1145
sg27
g28
sg982
I3
sg983
(I3
I18
I6
tp1146
sg22
I1
sg20
F4.9675896454136819
sg23
F1.8254944704240188
sVY
I6
sVX
I6
sg985
g986
sg31
g32
sg33
g34
sg21
S'6'
sg19
S'space'
p1147
sg30
g11
sg988
I6
sg989
g1008
sg991
I6
sS'block.thisIndex'
p1148
I7
sg993
g1064
sg995
I0
sg997
g1090
sa(dp1149
S'block.thisTrialN'
p1150
I0
sS'block.thisRepN'
p1151
I0
sg29
NsS'block.thisN'
p1152
I0
sVRule
p1153
(S'INCREASE'
S'SUBTRACT'
S'HALF'
S'x'
S'y'
tp1154
sg27
g28
sVLength
p1155
I3
sVIntermediate
p1156
(I4
I2
I3
tp1157
sg22
I1
sg20
F6.1853694079909474
sg23
F5.9559023058973253
sVY
I2
sVX
I8
sVOperatorc
p1158
Vhalf
p1159
sg31
g32
sg33
g34
sg21
S'3'
sg19
S'space'
p1160
sg30
g11
sVResult
p1161
I3
sVOperatora
p1162
VSUBTRACT
p1163
sVCorrectResponse
p1164
I3
sS'block.thisIndex'
p1165
I7
sVOperatorb
p1166
Vincrease
p1167
sVOperatord
p1168
I0
sVStructure
p1169
VUBUxy
p1170
sa(dp1171
S'block.thisTrialN'
p1172
I1
sS'block.thisRepN'
p1173
I0
sg29
NsS'block.thisN'
p1174
I1
sg1153
(S'THIRD'
S'TIMES'
S'DOUBLE'
S'DECREASE'
S'x'
S'y'
tp1175
sg27
g28
sg1155
I4
sg1156
(I1
I2
I6
I2
tp1176
sg22
I0
sg20
F6.9036613401258364
sVY
I3
sVX
I2
sg1158
Vdouble
p1177
sg31
g32
sg33
g34
sg21
Nsg19
S'space'
p1178
sg30
g11
sg1161
I2
sg1162
VTIMES
p1179
sg1164
I2
sS'block.thisIndex'
p1180
I13
sg1166
Vthird
p1181
sg1168
Vdecrease
p1182
sg1169
VUBUUxy
p1183
sa(dp1184
S'block.thisTrialN'
p1185
I2
sS'block.thisRepN'
p1186
I0
sg29
NsS'block.thisN'
p1187
I2
sg1153
(S'HALF'
S'TRIPLE'
S'INCREASE'
S'DIVIDE'
S'x'
S'y'
tp1188
sg27
g28
sg1155
I4
sg1156
(I3
I4
I12
I6
tp1189
sg22
I1
sg20
F10.29106500861235
sg23
F3.0455874834442511
sVY
I3
sVX
I9
sg1158
g1167
sg31
g32
sg33
g34
sg21
S'6'
sg19
S'space'
p1190
sg30
g11
sg1161
I6
sg1162
Vtriple
p1191
sg1164
I6
sS'block.thisIndex'
p1192
I16
sg1166
g1159
sg1168
VDIVIDE
p1193
sg1169
VUUUBxy
p1194
sa(dp1195
S'block.thisTrialN'
p1196
I3
sS'block.thisRepN'
p1197
I0
sg29
NsS'block.thisN'
p1198
I3
sg1153
(S'ADD'
S'HALF'
S'THIRD'
S'x'
S'y'
tp1199
sg27
g28
sg1155
I3
sg1156
(I2
I1
I9
tp1200
sg22
I1
sg20
F2.3678645758191124
sg23
F1.5102523192763329
sVY
I8
sVX
I6
sg1158
g1181
sg31
g32
sg33
g34
sg21
S'9'
sg19
S'space'
p1201
sg30
g11
sg1161
I9
sg1162
g1159
sg1164
I9
sS'block.thisIndex'
p1202
I4
sg1166
VADD
p1203
sg1168
I0
sg1169
VBUUxy
p1204
sa(dp1205
S'block.thisTrialN'
p1206
I4
sS'block.thisRepN'
p1207
I0
sg29
NsS'block.thisN'
p1208
I4
sg1153
(S'THIRD'
S'DOUBLE'
S'ADD'
S'DECREASE'
S'x'
S'y'
tp1209
sg27
g28
sg1155
I4
sg1156
(I5
I12
I24
I8
tp1210
sg22
I1
sg20
F9.9584951762808487
sg23
F9.5742908627726138
sVY
I7
sVX
I6
sg1158
g1203
sg31
g32
sg33
g34
sg21
S'8'
sg19
S'space'
p1211
sg30
g11
sg1161
I8
sg1162
g1177
sg1164
I8
sS'block.thisIndex'
p1212
I14
sg1166
g1181
sg1168
g1182
sg1169
VUUBUxy
p1213
sa(dp1214
S'block.thisTrialN'
p1215
I5
sS'block.thisRepN'
p1216
I0
sg29
NsS'block.thisN'
p1217
I5
sg1153
(S'INCREASE'
S'ADD'
S'x'
S'y'
tp1218
sg27
g28
sg1155
I2
sg1156
(I5
I6
tp1219
sg22
I1
sg20
F2.3554563140496612
sg23
F1.6041174458805472
sVY
I2
sVX
I3
sg1158
I0
sg31
g32
sg33
g34
sg21
S'6'
sg19
S'space'
p1220
sg30
g11
sg1161
I6
sg1162
g1203
sg1164
I6
sS'block.thisIndex'
p1221
I3
sg1166
g1167
sg1168
I0
sg1169
VUBxy
p1222
sa(dp1223
S'block.thisTrialN'
p1224
I6
sS'block.thisRepN'
p1225
I0
sg29
NsS'block.thisN'
p1226
I6
sg1153
(S'SUBTRACT'
S'DECREASE'
S'x'
S'y'
tp1227
sg27
g28
sg1155
I2
sg1156
(I5
I3
tp1228
sg22
I1
sg20
F2.9316562209278345
sg23
F2.8526084962068126
sVY
I2
sVX
I6
sg1158
I0
sg31
g32
sg33
g34
sg21
S'3'
sg19
S'space'
p1229
sg30
g11
sg1161
I3
sg1162
g1182
sg1164
I3
sS'block.thisIndex'
p1230
I1
sg1166
g1163
sg1168
I0
sg1169
VBUxy
p1231
sa(dp1232
S'block.thisTrialN'
p1233
I7
sS'block.thisRepN'
p1234
I0
sg29
NsS'block.thisN'
p1235
I7
sg1153
(S'THIRD'
S'HALF'
S'ADD'
S'x'
S'y'
tp1236
sg27
g28
sg1155
I3
sg1156
(I6
I3
I1
tp1237
sg22
I1
sg20
F5.1143718649400398
sg23
F2.9782270982395858
sVY
I3
sVX
I3
sg1158
g1203
sg31
g32
sg33
g34
sg21
S'1'
sg19
S'space'
p1238
sg30
g11
sg1161
I1
sg1162
g1159
sg1164
I1
sS'block.thisIndex'
p1239
I9
sg1166
g1181
sg1168
I0
sg1169
VUUBxy
p1240
sa(dp1241
S'block.thisTrialN'
p1242
I8
sS'block.thisRepN'
p1243
I0
sg29
NsS'block.thisN'
p1244
I8
sg1153
(S'SUBTRACT'
S'DECREASE'
S'TRIPLE'
S'DOUBLE'
S'x'
S'y'
tp1245
sg27
g28
sg1155
I4
sg1156
(I6
I18
I17
I8
tp1246
sg22
I1
sg20
F6.357993540354073
sg23
F7.7335180900990963
sVY
I9
sVX
I3
sg1158
g1191
sg31
g32
sg33
g34
sg21
S'8'
sg19
S'space'
p1247
sg30
g11
sg1161
I8
sg1162
g1182
sg1164
I8
sS'block.thisIndex'
p1248
I11
sg1166
g1163
sg1168
g1177
sg1169
VBUUUxy
p1249
sa(dp1250
S'block.thisTrialN'
p1251
I9
sS'block.thisRepN'
p1252
I0
sg29
NsS'block.thisN'
p1253
I9
sg1153
(S'HALF'
S'ADD'
S'TRIPLE'
S'x'
S'y'
tp1254
sg27
g28
sg1155
I3
sg1156
(I9
I12
I6
tp1255
sg22
I1
sg20
F2.7390982382930815
sg23
F7.5946124709444121
sVY
I3
sVX
I3
sg1158
g1191
sg31
g32
sg33
g34
sg21
S'6'
sg19
S'space'
p1256
sg30
g11
sg1161
I6
sg1162
g1203
sg1164
I6
sS'block.thisIndex'
p1257
I6
sg1166
g1159
sg1168
I0
sg1169
g1170
sa(dp1258
S'block.thisTrialN'
p1259
I10
sS'block.thisRepN'
p1260
I0
sg29
NsS'block.thisN'
p1261
I10
sg1153
(S'THIRD'
S'INCREASE'
S'DIVIDE'
S'DOUBLE'
S'x'
S'y'
tp1262
sg27
g28
sg1155
I4
sg1156
(I18
I2
I3
I1
tp1263
sg22
I1
sg20
F7.6006286722840741
sg23
F4.6938869642326608
sVY
I9
sVX
I9
sg1158
g1193
sg31
g32
sg33
g34
sg21
S'1'
sg19
S'space'
p1264
sg30
g11
sg1161
I1
sg1162
g1167
sg1164
I1
sS'block.thisIndex'
p1265
I15
sg1166
g1181
sg1168
g1177
sg1169
g1213
sa(dp1266
S'block.thisTrialN'
p1267
I11
sS'block.thisRepN'
p1268
I0
sg29
NsS'block.thisN'
p1269
I11
sg1153
(S'ADD'
S'DOUBLE'
S'DECREASE'
S'THIRD'
S'x'
S'y'
tp1270
sg27
g28
sg1155
I4
sg1156
(I2
I1
I2
I8
tp1271
sg22
I1
sg20
F8.5529652127297595
sg23
F9.7140699876472354
sVY
I6
sVX
I6
sg1158
g1182
sg31
g32
sg33
g34
sg21
S'8'
sg19
S'space'
p1272
sg30
g11
sg1161
I8
sg1162
g1177
sg1164
I8
sS'block.thisIndex'
p1273
I10
sg1166
g1203
sg1168
g1181
sg1169
g1249
sa(dp1274
S'block.thisTrialN'
p1275
I12
sS'block.thisRepN'
p1276
I0
sg29
NsS'block.thisN'
p1277
I12
sg1153
(S'INCREASE'
S'TRIPLE'
S'DIVIDE'
S'x'
S'y'
tp1278
sg27
g28
sg1155
I3
sg1156
(I2
I6
I7
tp1279
sg22
I1
sg20
F5.3616222989512607
sg23
F7.156743545201607
sVY
I3
sVX
I6
sg1158
g1193
sg31
g32
sg33
g34
sg21
S'7'
sg19
S'space'
p1280
sg30
g11
sg1161
I7
sg1162
g1191
sg1164
I7
sS'block.thisIndex'
p1281
I8
sg1166
g1167
sg1168
I0
sg1169
g1240
sa(dp1282
S'block.thisTrialN'
p1283
I13
sS'block.thisRepN'
p1284
I0
sg29
NsS'block.thisN'
p1285
I13
sg1153
(S'THIRD'
S'DOUBLE'
S'INCREASE'
S'TIMES'
S'x'
S'y'
tp1286
sg27
g28
sg1155
I4
sg1156
(I8
I9
I18
I6
tp1287
sg22
I1
sg20
F10.806409278768115
sg23
F3.55542614730075
sVY
I4
sVX
I2
sg1158
g1167
sg31
g32
sg33
g34
sg21
S'6'
sg19
S'space'
p1288
sg30
g11
sg1161
I6
sg1162
g1177
sg1164
I6
sS'block.thisIndex'
p1289
I17
sg1166
g1181
sg1168
g1179
sg1169
g1194
sa(dp1290
S'block.thisTrialN'
p1291
I14
sS'block.thisRepN'
p1292
I0
sg29
NsS'block.thisN'
p1293
I14
sg1153
(S'DIVIDE'
S'INCREASE'
S'x'
S'y'
tp1294
sg27
g28
sg1155
I2
sg1156
(I4
I2
tp1295
sg22
I1
sg20
F2.5985841926885769
sg23
F1.7692285887897015
sVY
I2
sVX
I3
sg1158
I0
sg31
g32
sg33
g34
sg21
S'2'
sg19
S'space'
p1296
sg30
g11
sg1161
I2
sg1162
g1167
sg1164
I2
sS'block.thisIndex'
p1297
I0
sg1166
g1193
sg1168
I0
sg1169
g1231
sa(dp1298
S'block.thisTrialN'
p1299
I15
sS'block.thisRepN'
p1300
I0
sg29
NsS'block.thisN'
p1301
I15
sg1153
(S'DECREASE'
S'DIVIDE'
S'x'
S'y'
tp1302
sg27
g28
sg1155
I2
sg1156
(I2
I1
tp1303
sg22
I1
sg20
F1.8111327192746103
sg23
F4.9486752353841439
sVY
I4
sVX
I8
sg1158
I0
sg31
g32
sg33
g34
sg21
S'1'
sg19
S'space'
p1304
sg30
g11
sg1161
I1
sg1162
g1193
sg1164
I1
sS'block.thisIndex'
p1305
I2
sg1166
g1182
sg1168
I0
sg1169
g1222
sa(dp1306
S'block.thisTrialN'
p1307
I16
sS'block.thisRepN'
p1308
I0
sg29
NsS'block.thisN'
p1309
I16
sg1153
(S'DOUBLE'
S'ADD'
S'INCREASE'
S'THIRD'
S'x'
S'y'
tp1310
sg27
g28
sg1155
I4
sg1156
(I1
I2
I4
I8
tp1311
sg22
I1
sg20
F7.3025728175416589
sg23
F7.9093286289134994
sVY
I2
sVX
I3
sg1158
g1167
sg31
g32
sg33
g34
sg21
S'8'
sg19
S'space'
p1312
sg30
g11
sg1161
I8
sg1162
g1203
sg1164
I8
sS'block.thisIndex'
p1313
I12
sg1166
g1177
sg1168
g1181
sg1169
g1183
sa(dp1314
S'block.thisTrialN'
p1315
I17
sS'block.thisRepN'
p1316
I0
sg29
NsS'block.thisN'
p1317
I17
sg1153
(S'DIVIDE'
S'DECREASE'
S'TRIPLE'
S'x'
S'y'
tp1318
sg27
g28
sg1155
I3
sg1156
(I9
I8
I4
tp1319
sg22
I1
sg20
F10.52023044321686
sg23
F3.0746973439818248
sVY
I2
sVX
I3
sg1158
g1191
sg31
g32
sg33
g34
sg21
S'4'
sg19
S'space'
p1320
sg30
g11
sg1161
I4
sg1162
g1182
sg1164
I4
sS'block.thisIndex'
p1321
I5
sg1166
g1193
sg1168
I0
sg1169
g1204
sa(dp1322
S'block.thisTrialN'
p1323
I0
sS'block.thisRepN'
p1324
I0
sg29
NsS'block.thisN'
p1325
I0
sVRule
p1326
(S'DECREASE'
S'DIVIDE'
S'TRIPLE'
S'DOUBLE'
S'x'
S'y'
tp1327
sg27
g28
sVLength
p1328
I4
sVIntermediate
p1329
(I6
I18
I2
I1
tp1330
sg22
I0
sg20
F5.240588552551344
sg23
F8.7073528119362891
sVY
I9
sVX
I3
sVOperatorc
p1331
Vtriple
p1332
sg31
g32
sg33
g34
sg21
S'3'
sg19
S'space'
p1333
sg30
g11
sVResult
p1334
I1
sVOperatora
p1335
VDIVIDE
p1336
sVCorrectResponse
p1337
I1
sS'block.thisIndex'
p1338
I12
sVOperatorb
p1339
Vdecrease
p1340
sVOperatord
p1341
Vdouble
p1342
sVStructure
p1343
VUBUUxy
p1344
sa(dp1345
S'block.thisTrialN'
p1346
I1
sS'block.thisRepN'
p1347
I0
sg29
NsS'block.thisN'
p1348
I1
sg1326
(S'TRIPLE'
S'SUBTRACT'
S'INCREASE'
S'HALF'
S'x'
S'y'
tp1349
sg27
g28
sg1328
I4
sg1329
(I3
I4
I1
I3
tp1350
sg22
I1
sg20
F6.5516679026186466
sg23
F3.5880723763257265
sVY
I3
sVX
I6
sg1331
Vincrease
p1351
sg31
g32
sg33
g34
sg21
S'3'
sg19
S'space'
p1352
sg30
g11
sg1334
I3
sg1335
VSUBTRACT
p1353
sg1337
I3
sS'block.thisIndex'
p1354
I13
sg1339
g1332
sg1341
Vhalf
p1355
sg1343
g1344
sa(dp1356
S'block.thisTrialN'
p1357
I2
sS'block.thisRepN'
p1358
I0
sg29
NsS'block.thisN'
p1359
I2
sg1326
(S'INCREASE'
S'TRIPLE'
S'HALF'
S'ADD'
S'x'
S'y'
tp1360
sg27
g28
sg1328
I4
sg1329
(I4
I2
I6
I7
tp1361
sg22
I1
sg20
F9.203708830056712
sg23
F3.6720902650849894
sVY
I2
sVX
I2
sg1331
g1355
sg31
g32
sg33
g34
sg21
S'7'
sg19
S'space'
p1362
sg30
g11
sg1334
I7
sg1335
g1332
sg1337
I7
sS'block.thisIndex'
p1363
I17
sg1339
g1351
sg1341
VADD
p1364
sg1343
VUUUBxy
p1365
sa(dp1366
S'block.thisTrialN'
p1367
I3
sS'block.thisRepN'
p1368
I0
sg29
NsS'block.thisN'
p1369
I3
sg1326
(S'THIRD'
S'INCREASE'
S'SUBTRACT'
S'HALF'
S'x'
S'y'
tp1370
sg27
g28
sg1328
I4
sg1329
(I4
I2
I3
I1
tp1371
sg22
I1
sg20
F5.8562638519797474
sg23
F4.4234312329208478
sVY
I2
sVX
I8
sg1331
g1353
sg31
g32
sg33
g34
sg21
S'1'
sg19
S'space'
p1372
sg30
g11
sg1334
I1
sg1335
g1351
sg1337
I1
sS'block.thisIndex'
p1373
I15
sg1339
Vthird
p1374
sg1341
g1355
sg1343
VUUBUxy
p1375
sa(dp1376
S'block.thisTrialN'
p1377
I4
sS'block.thisRepN'
p1378
I0
sg29
NsS'block.thisN'
p1379
I4
sg1326
(S'INCREASE'
S'HALF'
S'TIMES'
S'TRIPLE'
S'x'
S'y'
tp1380
sg27
g28
sg1328
I4
sg1329
(I6
I12
I6
I7
tp1381
sg22
I1
sg20
F5.3272668542340398
sg23
F7.185439050430432
sVY
I2
sVX
I2
sg1331
VTIMES
p1382
sg31
g32
sg33
g34
sg21
S'7'
sg19
S'space'
p1383
sg30
g11
sg1334
I7
sg1335
g1355
sg1337
I7
sS'block.thisIndex'
p1384
I14
sg1339
g1351
sg1341
g1332
sg1343
g1375
sa(dp1385
S'block.thisTrialN'
p1386
I5
sS'block.thisRepN'
p1387
I0
sg29
NsS'block.thisN'
p1388
I5
sg1326
(S'INCREASE'
S'DIVIDE'
S'HALF'
S'x'
S'y'
tp1389
sg27
g28
sg1328
I3
sg1329
(I2
I1
I2
tp1390
sg22
I1
sg20
F4.4514751083916053
sg23
F3.874849297455512
sVY
I2
sVX
I4
sg1331
g1355
sg31
g32
sg33
g34
sg21
S'2'
sg19
S'space'
p1391
sg30
g11
sg1334
I2
sg1335
g1336
sg1337
I2
sS'block.thisIndex'
p1392
I7
sg1339
g1351
sg1341
I0
sg1343
VUBUxy
p1393
sa(dp1394
S'block.thisTrialN'
p1395
I6
sS'block.thisRepN'
p1396
I0
sg29
NsS'block.thisN'
p1397
I6
sg1326
(S'TIMES'
S'THIRD'
S'x'
S'y'
tp1398
sg27
g28
sg1328
I2
sg1329
(I1
I4
tp1399
sg22
I1
sg20
F2.6295789499999955
sg23
F1.7343037553364411
sVY
I4
sVX
I3
sg1331
I0
sg31
g32
sg33
g34
sg21
S'4'
sg19
S'space'
p1400
sg30
g11
sg1334
I4
sg1335
g1374
sg1337
I4
sS'block.thisIndex'
p1401
I1
sg1339
g1382
sg1341
I0
sg1343
VBUxy
p1402
sa(dp1403
S'block.thisTrialN'
p1404
I7
sS'block.thisRepN'
p1405
I0
sg29
NsS'block.thisN'
p1406
I7
sg1326
(S'TIMES'
S'DECREASE'
S'THIRD'
S'DOUBLE'
S'x'
S'y'
tp1407
sg27
g28
sg1328
I4
sg1329
(I6
I2
I1
I2
tp1408
sg22
I1
sg20
F6.9139481306774542
sg23
F5.5405289540067315
sVY
I2
sVX
I3
sg1331
g1374
sg31
g32
sg33
g34
sg21
S'2'
sg19
S'space'
p1409
sg30
g11
sg1334
I2
sg1335
g1340
sg1337
I2
sS'block.thisIndex'
p1410
I11
sg1339
g1382
sg1341
g1342
sg1343
VBUUUxy
p1411
sa(dp1412
S'block.thisTrialN'
p1413
I8
sS'block.thisRepN'
p1414
I0
sg29
NsS'block.thisN'
p1415
I8
sg1326
(S'TRIPLE'
S'HALF'
S'TIMES'
S'x'
S'y'
tp1416
sg27
g28
sg1328
I3
sg1329
(I6
I3
I9
tp1417
sg22
I1
sg20
F5.6201628653798252
sg23
F7.0597147597000003
sVY
I3
sVX
I2
sg1331
g1382
sg31
g32
sg33
g34
sg21
S'9'
sg19
S'space'
p1418
sg30
g11
sg1334
I9
sg1335
g1355
sg1337
I9
sS'block.thisIndex'
p1419
I9
sg1339
g1332
sg1341
I0
sg1343
VUUBxy
p1420
sa(dp1421
S'block.thisTrialN'
p1422
I9
sS'block.thisRepN'
p1423
I0
sg29
NsS'block.thisN'
p1424
I9
sg1326
(S'TRIPLE'
S'SUBTRACT'
S'x'
S'y'
tp1425
sg27
g28
sg1328
I2
sg1329
(I2
I6
tp1426
sg22
I1
sg20
F2.6947492712642998
sg23
F3.5075611096108332
sVY
I6
sVX
I8
sg1331
I0
sg31
g32
sg33
g34
sg21
S'6'
sg19
S'space'
p1427
sg30
g11
sg1334
I6
sg1335
g1353
sg1337
I6
sS'block.thisIndex'
p1428
I3
sg1339
g1332
sg1341
I0
sg1343
VUBxy
p1429
sa(dp1430
S'block.thisTrialN'
p1431
I10
sS'block.thisRepN'
p1432
I0
sg29
NsS'block.thisN'
p1433
I10
sg1326
(S'DECREASE'
S'HALF'
S'DIVIDE'
S'x'
S'y'
tp1434
sg27
g28
sg1328
I3
sg1329
(I4
I2
I1
tp1435
sg22
I1
sg20
F6.8692537510069087
sg23
F3.3806367982178926
sVY
I2
sVX
I8
sg1331
g1336
sg31
g32
sg33
g34
sg21
S'1'
sg19
S'space'
p1436
sg30
g11
sg1334
I1
sg1335
g1355
sg1337
I1
sS'block.thisIndex'
p1437
I8
sg1339
g1340
sg1341
I0
sg1343
g1420
sa(dp1438
S'block.thisTrialN'
p1439
I11
sS'block.thisRepN'
p1440
I0
sg29
NsS'block.thisN'
p1441
I11
sg1326
(S'INCREASE'
S'TIMES'
S'x'
S'y'
tp1442
sg27
g28
sg1328
I2
sg1329
(I8
I9
tp1443
sg22
I1
sg20
F2.0545059215510264
sg23
F1.5878816470503807
sVY
I4
sVX
I2
sg1331
I0
sg31
g32
sg33
g34
sg21
S'9'
sg19
S'space'
p1444
sg30
g11
sg1334
I9
sg1335
g1382
sg1337
I9
sS'block.thisIndex'
p1445
I2
sg1339
g1351
sg1341
I0
sg1343
g1429
sa(dp1446
S'block.thisTrialN'
p1447
I12
sS'block.thisRepN'
p1448
I0
sg29
NsS'block.thisN'
p1449
I12
sg1326
(S'DOUBLE'
S'TIMES'
S'THIRD'
S'x'
S'y'
tp1450
sg27
g28
sg1328
I3
sg1329
(I1
I4
I8
tp1451
sg22
I1
sg20
F4.7576777344802395
sg23
F1.7844033020082861
sVY
I4
sVX
I3
sg1331
g1374
sg31
g32
sg33
g34
sg21
S'8'
sg19
S'space'
p1452
sg30
g11
sg1334
I8
sg1335
g1382
sg1337
I8
sS'block.thisIndex'
p1453
I6
sg1339
g1342
sg1341
I0
sg1343
g1393
sa(dp1454
S'block.thisTrialN'
p1455
I13
sS'block.thisRepN'
p1456
I0
sg29
NsS'block.thisN'
p1457
I13
sg1326
(S'DECREASE'
S'HALF'
S'TRIPLE'
S'ADD'
S'x'
S'y'
tp1458
sg27
g28
sg1328
I4
sg1329
(I4
I12
I6
I5
tp1459
sg22
I1
sg20
F9.4271572810830548
sg23
F7.4004866575123742
sVY
I2
sVX
I2
sg1331
g1332
sg31
g32
sg33
g34
sg21
S'5'
sg19
S'space'
p1460
sg30
g11
sg1334
I5
sg1335
g1355
sg1337
I5
sS'block.thisIndex'
p1461
I16
sg1339
g1340
sg1341
g1364
sg1343
g1365
sa(dp1462
S'block.thisTrialN'
p1463
I14
sS'block.thisRepN'
p1464
I0
sg29
NsS'block.thisN'
p1465
I14
sg1326
(S'SUBTRACT'
S'THIRD'
S'x'
S'y'
tp1466
sg27
g28
sg1328
I2
sg1329
(I3
I1
tp1467
sg22
I1
sg20
F2.1939585315994918
sg23
F1.9411237497115508
sVY
I2
sVX
I9
sg1331
I0
sg31
g32
sg33
g34
sg21
S'1'
sg19
S'space'
p1468
sg30
g11
sg1334
I1
sg1335
g1374
sg1337
I1
sS'block.thisIndex'
p1469
I0
sg1339
g1353
sg1341
I0
sg1343
g1402
sa(dp1470
S'block.thisTrialN'
p1471
I15
sS'block.thisRepN'
p1472
I0
sg29
NsS'block.thisN'
p1473
I15
sg1326
(S'SUBTRACT'
S'DOUBLE'
S'DECREASE'
S'x'
S'y'
tp1474
sg27
g28
sg1328
I3
sg1329
(I8
I16
I7
tp1475
sg22
I1
sg20
F4.5335934018949047
sg23
F5.2977314396994188
sVY
I9
sVX
I9
sg1331
g1340
sg31
g32
sg33
g34
sg21
S'7'
sg19
S'space'
p1476
sg30
g11
sg1334
I7
sg1335
g1342
sg1337
I7
sS'block.thisIndex'
p1477
I5
sg1339
g1353
sg1341
I0
sg1343
VBUUxy
p1478
sa(dp1479
S'block.thisTrialN'
p1480
I16
sS'block.thisRepN'
p1481
I0
sg29
NsS'block.thisN'
p1482
I16
sg1326
(S'DIVIDE'
S'DECREASE'
S'THIRD'
S'DOUBLE'
S'x'
S'y'
tp1483
sg27
g28
sg1328
I4
sg1329
(I12
I4
I3
I1
tp1484
sg22
I1
sg20
F6.7437387377722189
sg23
F3.4440079637570307
sVY
I3
sVX
I6
sg1331
g1374
sg31
g32
sg33
g34
sg21
S'1'
sg19
S'space'
p1485
sg30
g11
sg1334
I1
sg1335
g1340
sg1337
I1
sS'block.thisIndex'
p1486
I10
sg1339
g1336
sg1341
g1342
sg1343
g1411
sa(dp1487
S'block.thisTrialN'
p1488
I17
sS'block.thisRepN'
p1489
I0
sg29
NsS'block.thisN'
p1490
I17
sg1326
(S'ADD'
S'DECREASE'
S'HALF'
S'x'
S'y'
tp1491
sg27
g28
sg1328
I3
sg1329
(I3
I2
I6
tp1492
sg22
I1
sg20
F2.1343330121599138
sg23
F4.7756906417198479
sVY
I4
sVX
I6
sg1331
g1355
sg31
g32
sg33
g34
sg21
S'6'
sg19
S'space'
p1493
sg30
g11
sg1334
I6
sg1335
g1340
sg1337
I6
sS'block.thisIndex'
p1494
I4
sg1339
g1364
sg1341
I0
sg1343
g1478
sasS'loops'
p1495
(lp1496
g1
(cpsychopy.data
TrialHandler
p1497
g3
NtRp1498
(dp1499
S'origin'
p1500
NsS'thisTrial'
p1501
(lp1502
sS'_exp'
p1503
I151231504
sg10
S'practice_trials'
p1504
sg6
S'C:\\Users\\experimenter\\Desktop\\Experiments\\KRITL\\2. kritl_experimenter.py'
p1505
sS'thisRepN'
p1506
I1
sg24
I01
sg25
g26
sS'data'
p1507
g1
(cpsychopy.data
DataHandler
p1508
c__builtin__
dict
p1509
(dp1510
g15
cnumpy.core.multiarray
_reconstruct
p1511
(cnumpy
ndarray
p1512
(I0
tS'b'
tRp1513
(I1
(I6
I1
tcnumpy
dtype
p1514
(S'O4'
I0
I1
tRp1515
(I3
S'|'
NNNI-1
I-1
I63
tbI00
(lp1516
(lp1517
F3.3287422951543704
aa(lp1518
F1.9954056955175474
aa(lp1519
F1.9356657384196296
aa(lp1520
F4.7975317862583324
aa(lp1521
F4.0606491590151563
aa(lp1522
F8.0780818288912997
aatbsg16
g1511
(g1512
(I0
tS'b'
tRp1523
(I1
(I6
I1
tg1515
I00
(lp1524
S'7'
aS'8'
aS'7'
aS'8'
aS'3'
aS'9'
atbsS'ran'
p1525
cnumpy.ma.core
_mareconstruct
p1526
(cnumpy.ma.core
MaskedArray
p1527
g1512
(I0
tp1528
S'b'
tRp1529
(I1
(I6
I1
tg1514
(S'f4'
I0
I1
tRp1530
(I3
S'<'
NNNI-1
I-1
I0
tbI00
S'\x00\x00\x80?\x00\x00\x80?\x00\x00\x80?\x00\x00\x80?\x00\x00\x80?\x00\x00\x80?'
S'\x00\x00\x00\x00\x00\x00'
Ntbsg18
g1526
(g1527
g1512
g1528
S'b'
tRp1531
(I1
(I6
I1
tg1530
I00
S'x[\xea?\x04\xe6\xb6?c\xb5l@\x9e<jAy\xf7E@\x7f\x99\xef@'
S'\x00\x00\x00\x00\x00\x00'
Ntbsg14
g1511
(g1512
(I0
tS'b'
tRp1532
(I1
(I6
I1
tg1515
I00
(lp1533
(lp1534
g79
aa(lp1535
g108
aa(lp1536
g116
aa(lp1537
g70
aa(lp1538
g99
aa(lp1539
g91
aatbsS'order'
p1540
g1526
(g1527
g1512
g1528
S'b'
tRp1541
(I1
(I6
I1
tg1530
I00
S'\x00\x00\x80?\x00\x00\x80@\x00\x00\xa0@\x00\x00\x00\x00\x00\x00@@\x00\x00\x00@'
S'\x00\x00\x00\x00\x00\x00'
Ntbsg17
g1526
(g1527
g1512
g1528
S'b'
tRp1542
(I1
(I6
I1
tg1530
I00
S'\x00\x00\x80?\x00\x00\x80?\x00\x00\x80?\x00\x00\x80?\x00\x00\x80?\x00\x00\x80?'
S'\x00\x00\x00\x00\x00\x00'
NtbstRp1543
(dp1544
S'isNumeric'
p1545
(dp1546
g16
I00
sg1525
I01
sg18
I01
sg14
I00
sg17
I01
sg1540
I01
sg15
I00
ssS'trials'
p1547
g1498
sS'dataTypes'
p1548
(lp1549
g1525
ag1540
ag14
ag15
ag16
ag17
ag18
asS'dataShape'
p1550
(lp1551
I6
aI1
asbsS'method'
p1552
S'fullRandom'
p1553
sS'sequenceIndices'
p1554
g1511
(g1512
(I0
tS'b'
tRp1555
(I1
(I6
I1
tg1515
I00
(lp1556
I3
aI0
aI5
aI4
aI1
aI2
atbsS'finished'
p1557
I01
sS'nReps'
p1558
I1
sS'nRemaining'
p1559
I-1
sS'trialList'
p1560
(lp1561
g1
(cpsychopy.data
TrialType
p1562
g1509
(dp1563
g43
I0
sg44
g64
sg45
g75
sg46
I7
sg49
I2
sg48
I0
sg47
I5
sg50
I3
stRp1564
ag1
(g1562
g1509
(dp1565
g43
I0
sg44
g75
sg45
g104
sg46
I8
sg49
I2
sg48
I0
sg47
I3
sg50
I3
stRp1566
ag1
(g1562
g1509
(dp1567
g43
I0
sg44
g64
sg45
g66
sg46
I7
sg49
I2
sg48
I0
sg47
I5
sg50
I4
stRp1568
ag1
(g1562
g1509
(dp1569
g43
g64
sg44
g65
sg45
g66
sg46
I8
sg49
I3
sg48
I0
sg47
I2
sg50
I4
stRp1570
ag1
(g1562
g1509
(dp1571
g43
g84
sg44
g85
sg45
g88
sg46
I3
sg49
I3
sg48
I0
sg47
I3
sg50
I2
stRp1572
ag1
(g1562
g1509
(dp1573
g43
g84
sg44
g85
sg45
g86
sg46
I9
sg49
I4
sg48
g88
sg47
I8
sg50
I8
stRp1574
asS'seed'
p1575
NsS'thisIndex'
p1576
I2
sS'thisN'
p1577
I6
sS'thisTrialN'
p1578
I0
sS'nTotal'
p1579
I6
sS'_warnUseOfNext'
p1580
I01
sbag1
(g1497
g3
NtRp1581
(dp1582
g1500
Nsg1501
(lp1583
sg1503
I151231504
sg10
S'block'
p1584
sg6
g1505
sg1506
I1
sg24
I01
sg25
g26
sg1507
g1
(g1508
g1509
(dp1585
g22
g1526
(g1527
g1512
g1528
S'b'
tRp1586
(I1
(I18
I1
tg1530
I00
S'\x00\x00\x80?\x00\x00\x80?\x00\x00\x80?\x00\x00\x80?\x00\x00\x80?\x00\x00\x80?\x00\x00\x80?\x00\x00\x80?\x00\x00\x80?\x00\x00\x80?\x00\x00\x80?\x00\x00\x00\x00\x00\x00\x80?\x00\x00\x80?\x00\x00\x80?\x00\x00\x80?\x00\x00\x80?\x00\x00\x00\x00'
S'\x00\x00\x00\x00\x00\x00\x00\x00\x00\x00\x00\x00\x00\x00\x00\x00\x00\x00'
Ntbsg19
g1511
(g1512
(I0
tS'b'
tRp1587
(I1
(I18
I1
tg1515
I00
(lp1588
g139
ag226
ag208
ag282
ag217
ag274
ag266
ag179
ag151
ag242
ag161
ag170
ag188
ag250
ag127
ag258
ag199
ag234
atbsg23
g1526
(g1527
g1512
g1528
S'b'
tRp1589
(I1
(I18
I1
tg1530
I00
S'\xe4a\x04@D\x98\xc9?\xfb\xfa\x17@\x11L\xf4?\x07\xaa3@G`\x88@\x9d\xe4=@v\x95\x8e@,\xdc#Al\x0f\xd4?\xd2\xcfvA\x00\x00\x00\x00\xe8.\xd7@|\xcf\x88@\x12\xe0zA2\x85y@@e\x8a@\x18\xednA'
S'\x00\x00\x00\x00\x00\x00\x00\x00\x00\x00\x00\x01\x00\x00\x00\x00\x00\x00'
Ntbsg1525
g1526
(g1527
g1512
g1528
S'b'
tRp1590
(I1
(I18
I1
tg1530
I00
S'\x00\x00\x80?\x00\x00\x80?\x00\x00\x80?\x00\x00\x80?\x00\x00\x80?\x00\x00\x80?\x00\x00\x80?\x00\x00\x80?\x00\x00\x80?\x00\x00\x80?\x00\x00\x80?\x00\x00\x80?\x00\x00\x80?\x00\x00\x80?\x00\x00\x80?\x00\x00\x80?\x00\x00\x80?\x00\x00\x80?'
S'\x00\x00\x00\x00\x00\x00\x00\x00\x00\x00\x00\x00\x00\x00\x00\x00\x00\x00'
Ntbsg21
g1511
(g1512
(I0
tS'b'
tRp1591
(I1
(I18
I1
tg1515
I00
(lp1592
S'8'
aS'2'
aS'2'
aS'8'
aS'1'
aS'2'
aS'1'
aS'2'
aS'8'
aS'6'
aS'7'
aNaS'9'
aS'7'
aS'3'
aS'6'
aS'5'
aS'2'
atbsg1540
g1526
(g1527
g1512
g1528
S'b'
tRp1593
(I1
(I18
I1
tg1530
I00
S'\x00\x00\x80?\x00\x00 A\x00\x00\x00A\x00\x00\x88A\x00\x00\x10A\x00\x00\x80A\x00\x00pA\x00\x00\xa0@\x00\x00\x00@\x00\x00@A\x00\x00@@\x00\x00\x80@\x00\x00\xc0@\x00\x00PA\x00\x00\x00\x00\x00\x00`A\x00\x00\xe0@\x00\x000A'
S'\x00\x00\x00\x00\x00\x00\x00\x00\x00\x00\x00\x00\x00\x00\x00\x00\x00\x00'
Ntbsg20
g1526
(g1527
g1512
g1528
S'b'
tRp1594
(I1
(I18
I1
tg1530
I00
S'\xb8\x97\xd1@\xfc\xa8\xe1?H\xbf6@9=/@\x84\xa8\x15@\x1f_\x01AV\xca\xb4@\xaeu\x0eA/\xe4\xc2@\xe0\xcf\xc6@\xec\x07\xf2@M\x8f)A1g\x80A\xd4r\xe3@\xc1[\xcc@\x9b3QA\xba`\xf5@a\xc5\x82@'
S'\x00\x00\x00\x00\x00\x00\x00\x00\x00\x00\x00\x00\x00\x00\x00\x00\x00\x00'
NtbstRp1595
(dp1596
g1545
(dp1597
g1525
I01
sg21
I00
sg20
I01
sg22
I01
sg19
I00
sg23
I01
sg1540
I01
ssg1547
g1581
sg1548
(lp1598
g1525
ag1540
ag19
ag20
ag21
ag22
ag23
asg1550
(lp1599
I18
aI1
asbsg1552
g1553
sg1554
g1511
(g1512
(I0
tS'b'
tRp1600
(I1
(I18
I1
tg1515
I00
(lp1601
I14
aI0
aI8
aI10
aI11
aI7
aI12
aI16
aI2
aI4
aI1
aI17
aI9
aI13
aI15
aI6
aI5
aI3
atbsg1557
I01
sg1558
I1
sg1559
I-1
sg1560
(lp1602
g1
(g1562
g1509
(dp1603
g51
g137
sVY
I4
sg53
I2
sg54
g138
sg55
I8
sg56
I8
sg52
g140
sVX
I2
sg57
I0
sg58
g142
sg59
I0
sg60
g143
stRp1604
ag1
(g1562
g1509
(dp1605
g51
g224
sVY
I6
sg53
I2
sg54
g225
sg55
I2
sg56
I2
sg52
g140
sVX
I6
sg57
I0
sg58
g172
sg59
I0
sg60
g143
stRp1606
ag1
(g1562
g1509
(dp1607
g51
g206
sVY
I7
sg53
I2
sg54
g207
sg55
I2
sg56
I2
sg52
g150
sVX
I8
sg57
I0
sg58
g140
sg59
I0
sg60
g210
stRp1608
ag1
(g1562
g1509
(dp1609
g51
g280
sVY
I4
sg53
I2
sg54
g281
sg55
I8
sg56
I8
sg52
g126
sVX
I4
sg57
I0
sg58
g131
sg59
I0
sg60
g210
stRp1610
ag1
(g1562
g1509
(dp1611
g51
g215
sVY
I4
sg53
I3
sg54
g216
sg55
I1
sg56
I1
sg52
g140
sVX
I6
sg57
g128
sg58
g172
sg59
I0
sg60
g219
stRp1612
ag1
(g1562
g1509
(dp1613
g51
g272
sVY
I4
sg53
I3
sg54
g273
sg55
I2
sg56
I2
sg52
g131
sVX
I4
sg57
g198
sg58
g150
sg59
I0
sg60
g219
stRp1614
ag1
(g1562
g1509
(dp1615
g51
g264
sVY
I7
sg53
I3
sg54
g265
sg55
I1
sg56
I1
sg52
g150
sVX
I3
sg57
g198
sg58
g131
sg59
I0
sg60
g181
stRp1616
ag1
(g1562
g1509
(dp1617
g51
g177
sVY
I3
sg53
I3
sg54
g178
sg55
I2
sg56
I2
sg52
g172
sVX
I9
sg57
g128
sg58
g160
sg59
I0
sg60
g181
stRp1618
ag1
(g1562
g1509
(dp1619
g51
g148
sVY
I2
sg53
I3
sg54
g149
sg55
I8
sg56
I8
sg52
g130
sVX
I7
sg57
g150
sg58
g140
sg59
I0
sg60
g153
stRp1620
ag1
(g1562
g1509
(dp1621
g51
g240
sVY
I3
sg53
I3
sg54
g241
sg55
I6
sg56
I6
sg52
g198
sVX
I4
sg57
g150
sg58
g140
sg59
I0
sg60
g153
stRp1622
ag1
(g1562
g1509
(dp1623
g51
g158
sVY
I6
sg53
I4
sg54
g159
sg55
I7
sg56
I7
sg52
g128
sVX
I4
sg57
g160
sg58
g142
sg59
g131
sg60
g163
stRp1624
ag1
(g1562
g1509
(dp1625
g51
g168
sVY
I5
sg53
I4
sg54
g169
sg55
I1
sg56
I1
sg52
g160
sVX
I6
sg57
g140
sg58
g172
sg59
g128
sg60
g163
stRp1626
ag1
(g1562
g1509
(dp1627
g51
g186
sVY
I4
sg53
I4
sg54
g187
sg55
I9
sg56
I9
sg52
g142
sVX
I9
sg57
g140
sg58
g190
sg59
g128
sg60
g191
stRp1628
ag1
(g1562
g1509
(dp1629
g51
g248
sVY
I4
sg53
I4
sg54
g249
sg55
I7
sg56
I7
sg52
g126
sVX
I3
sg57
g140
sg58
g130
sg59
g128
sg60
g191
stRp1630
ag1
(g1562
g1509
(dp1631
g51
g124
sVY
I6
sg53
I4
sg54
g125
sg55
I3
sg56
I3
sg52
g128
sVX
I4
sg57
g126
sg58
g130
sg59
g131
sg60
g132
stRp1632
ag1
(g1562
g1509
(dp1633
g51
g256
sVY
I8
sg53
I4
sg54
g257
sg55
I6
sg56
I6
sg52
g198
sVX
I9
sg57
g172
sg58
g140
sg59
g130
sg60
g132
stRp1634
ag1
(g1562
g1509
(dp1635
g51
g196
sVY
I2
sg53
I4
sg54
g197
sg55
I5
sg56
I5
sg52
g131
sVX
I8
sg57
g198
sg58
g130
sg59
g172
sg60
g201
stRp1636
ag1
(g1562
g1509
(dp1637
g51
g232
sVY
I4
sg53
I4
sg54
g233
sg55
I4
sg56
I4
sg52
g130
sVX
I4
sg57
g198
sg58
g140
sg59
g172
sg60
g201
stRp1638
asg1575
Nsg1576
I3
sg1577
I18
sg1578
I0
sg1579
I18
sg1580
I01
sbag1
(g1497
g3
NtRp1639
(dp1640
g1500
Nsg1501
(lp1641
sg1503
I151231504
sg10
g1584
sg6
g1505
sg1506
I1
sg24
I01
sg25
g26
sg1507
g1
(g1508
g1509
(dp1642
g22
g1526
(g1527
g1512
g1528
S'b'
tRp1643
(I1
(I18
I1
tg1530
I00
S'\x00\x00\x80?\x00\x00\x80?\x00\x00\x80?\x00\x00\x80?\x00\x00\x80?\x00\x00\x80?\x00\x00\x80?\x00\x00\x80?\x00\x00\x80?\x00\x00\x80?\x00\x00\x80?\x00\x00\x80?\x00\x00\x80?\x00\x00\x80?\x00\x00\x80?\x00\x00\x80?\x00\x00\x80?\x00\x00\x80?'
S'\x00\x00\x00\x00\x00\x00\x00\x00\x00\x00\x00\x00\x00\x00\x00\x00\x00\x00'
Ntbsg19
g1511
(g1512
(I0
tS'b'
tRp1644
(I1
(I18
I1
tg1515
I00
(lp1645
g447
ag421
ag404
ag413
ag313
ag344
ag324
ag387
ag361
ag455
ag395
ag439
ag370
ag379
ag334
ag295
ag431
ag352
atbsg23
g1526
(g1527
g1512
g1528
S'b'
tRp1646
(I1
(I18
I1
tg1530
I00
S'\x04p\xfa?\x89\xad\xe5?\\Q\xcd?\xea\xa4\xa9@\xe8\x0e@@\xe1\xb6\x94@j\xdd?@w\xa4\x19A\x1f\x06 @\xa4\xe0\x13@|\xe4j@\xa5D\xc9@cQ\xaf@\x000%A\xd4S~@\xe6\x19\xa6@w\xb3g@\x03\x12Q@'
S'\x00\x00\x00\x00\x00\x00\x00\x00\x00\x00\x00\x00\x00\x00\x00\x00\x00\x00'
Ntbsg1525
g1526
(g1527
g1512
g1528
S'b'
tRp1647
(I1
(I18
I1
tg1530
I00
S'\x00\x00\x80?\x00\x00\x80?\x00\x00\x80?\x00\x00\x80?\x00\x00\x80?\x00\x00\x80?\x00\x00\x80?\x00\x00\x80?\x00\x00\x80?\x00\x00\x80?\x00\x00\x80?\x00\x00\x80?\x00\x00\x80?\x00\x00\x80?\x00\x00\x80?\x00\x00\x80?\x00\x00\x80?\x00\x00\x80?'
S'\x00\x00\x00\x00\x00\x00\x00\x00\x00\x00\x00\x00\x00\x00\x00\x00\x00\x00'
Ntbsg21
g1511
(g1512
(I0
tS'b'
tRp1648
(I1
(I18
I1
tg1515
I00
(lp1649
S'7'
aS'2'
aS'8'
aS'6'
aS'7'
aS'8'
aS'2'
aS'5'
aS'6'
aS'5'
aS'9'
aS'8'
aS'6'
aS'3'
aS'5'
aS'8'
aS'3'
aS'1'
atbsg1540
g1526
(g1527
g1512
g1528
S'b'
tRp1650
(I1
(I18
I1
tg1530
I00
S'\x00\x00\x80A\x00\x00PA\x00\x000A\x00\x00@A\x00\x00\x80?\x00\x00\x80@\x00\x00\x00@\x00\x00\x10A\x00\x00\xc0@\x00\x00\x88A\x00\x00 A\x00\x00pA\x00\x00\xe0@\x00\x00\x00A\x00\x00@@\x00\x00\x00\x00\x00\x00`A\x00\x00\xa0@'
S'\x00\x00\x00\x00\x00\x00\x00\x00\x00\x00\x00\x00\x00\x00\x00\x00\x00\x00'
Ntbsg20
g1526
(g1527
g1512
g1528
S'b'
tRp1651
(I1
(I18
I1
tg1530
I00
S'~U\r@*\xa6\x91@[8\xb1@{\x94\xdb?\xb0.\xd6@\xdf\xdem@\xb97\x88@\xa7\x98\xe2@d\x07\xa9@\xaf8\xc7@4^\xe1@\x13\x07\xf6@\x8c!\xea@iD\xef@EM)A\x19Y\x9d@\x13\xe9\x02A\x11z\x10A'
S'\x00\x00\x00\x00\x00\x00\x00\x00\x00\x00\x00\x00\x00\x00\x00\x00\x00\x00'
NtbstRp1652
(dp1653
g1545
(dp1654
g1525
I01
sg21
I00
sg20
I01
sg22
I01
sg19
I00
sg23
I01
sg1540
I01
ssg1547
g1639
sg1548
(lp1655
g1525
ag1540
ag19
ag20
ag21
ag22
ag23
asg1550
(lp1656
I18
aI1
asbsg1552
g1553
sg1554
g1511
(g1512
(I0
tS'b'
tRp1657
(I1
(I18
I1
tg1515
I00
(lp1658
I15
aI4
aI6
aI14
aI5
aI17
aI8
aI12
aI13
aI7
aI10
aI2
aI3
aI1
aI16
aI11
aI0
aI9
atbsg1557
I01
sg1558
I1
sg1559
I-1
sg1560
(lp1659
g1
(g1562
g1509
(dp1660
g288
g445
sVY
I5
sg290
I2
sg291
g446
sg299
I7
sg296
I7
sg297
g302
sVX
I3
sg293
I0
sg301
g315
sg303
I0
sg305
g424
stRp1661
ag1
(g1562
g1509
(dp1662
g288
g419
sVY
I4
sg290
I2
sg291
g420
sg299
I2
sg296
I2
sg297
g302
sVX
I9
sg293
I0
sg301
g423
sg303
I0
sg305
g424
stRp1663
ag1
(g1562
g1509
(dp1664
g288
g402
sVY
I3
sg290
I2
sg291
g403
sg299
I8
sg296
I8
sg297
g333
sVX
I3
sg293
I0
sg301
g302
sg303
I0
sg305
g406
stRp1665
ag1
(g1562
g1509
(dp1666
g288
g411
sVY
I8
sg290
I2
sg291
g412
sg299
I6
sg296
I6
sg297
g315
sVX
I4
sg293
I0
sg301
g343
sg303
I0
sg305
g406
stRp1667
ag1
(g1562
g1509
(dp1668
g288
g311
sVY
I5
sg290
I3
sg291
g312
sg299
I7
sg296
I7
sg297
g304
sVX
I2
sg293
g302
sg301
g315
sg303
I0
sg305
g316
stRp1669
ag1
(g1562
g1509
(dp1670
g288
g341
sVY
I2
sg290
I3
sg291
g342
sg299
I8
sg296
I8
sg297
g298
sVX
I4
sg293
g343
sg301
g315
sg303
I0
sg305
g316
stRp1671
ag1
(g1562
g1509
(dp1672
g288
g321
sVY
I3
sg290
I3
sg291
g322
sg299
I2
sg296
I2
sg297
g294
sVX
I3
sg293
g323
sg301
g304
sg303
I0
sg305
g326
stRp1673
ag1
(g1562
g1509
(dp1674
g288
g385
sVY
I3
sg290
I3
sg291
g386
sg299
I5
sg296
I5
sg297
g315
sVX
I2
sg293
g343
sg301
g323
sg303
I0
sg305
g326
stRp1675
ag1
(g1562
g1509
(dp1676
g288
g359
sVY
I4
sg290
I3
sg291
g360
sg299
I6
sg296
I6
sg297
g336
sVX
I5
sg293
g315
sg301
g304
sg303
I0
sg305
g363
stRp1677
ag1
(g1562
g1509
(dp1678
g288
g453
sVY
I3
sg290
I3
sg291
g454
sg299
I5
sg296
I5
sg297
g323
sVX
I3
sg293
g333
sg301
g343
sg303
I0
sg305
g363
stRp1679
ag1
(g1562
g1509
(dp1680
g288
g393
sVY
I4
sg290
I4
sg291
g394
sg299
I9
sg296
I9
sg297
g302
sVX
I9
sg293
g336
sg301
g315
sg303
g304
sg305
g397
stRp1681
ag1
(g1562
g1509
(dp1682
g288
g437
sVY
I2
sg290
I4
sg291
g438
sg299
I8
sg296
I8
sg297
g298
sVX
I2
sg293
g304
sg301
g315
sg303
g302
sg305
g397
stRp1683
ag1
(g1562
g1509
(dp1684
g288
g368
sVY
I6
sg290
I4
sg291
g369
sg299
I6
sg296
I6
sg297
g315
sVX
I6
sg293
g336
sg301
g302
sg303
g343
sg305
g372
stRp1685
ag1
(g1562
g1509
(dp1686
g288
g377
sVY
I2
sg290
I4
sg291
g378
sg299
I3
sg296
I3
sg297
g294
sVX
I9
sg293
g304
sg301
g302
sg303
g336
sg305
g372
stRp1687
ag1
(g1562
g1509
(dp1688
g288
g331
sVY
I3
sg290
I4
sg291
g332
sg299
I5
sg296
I5
sg297
g304
sVX
I3
sg293
g333
sg301
g302
sg303
g336
sg305
g306
stRp1689
ag1
(g1562
g1509
(dp1690
g288
g289
sVY
I3
sg290
I4
sg291
g292
sg299
I8
sg296
I8
sg297
g298
sVX
I3
sg293
g294
sg301
g302
sg303
g304
sg305
g306
stRp1691
ag1
(g1562
g1509
(dp1692
g288
g429
sVY
I4
sg290
I4
sg291
g430
sg299
I3
sg296
I3
sg297
g343
sVX
I3
sg293
g336
sg301
g323
sg303
g333
sg305
g354
stRp1693
ag1
(g1562
g1509
(dp1694
g288
g350
sVY
I2
sg290
I4
sg291
g351
sg299
I1
sg296
I1
sg297
g343
sVX
I7
sg293
g323
sg301
g336
sg303
g294
sg305
g354
stRp1695
asg1575
Nsg1576
I9
sg1577
I18
sg1578
I0
sg1579
I18
sg1580
I01
sbag1
(g1497
g3
NtRp1696
(dp1697
g1500
Nsg1501
(lp1698
sg1503
I151231504
sg10
g1584
sg6
g1505
sg1506
I1
sg24
I01
sg25
g26
sg1507
g1
(g1508
g1509
(dp1699
g22
g1526
(g1527
g1512
g1528
S'b'
tRp1700
(I1
(I18
I1
tg1530
I00
S'\x00\x00\x80?\x00\x00\x80?\x00\x00\x80?\x00\x00\x80?\x00\x00\x80?\x00\x00\x80?\x00\x00\x80?\x00\x00\x80?\x00\x00\x80?\x00\x00\x80?\x00\x00\x80?\x00\x00\x00\x00\x00\x00\x80?\x00\x00\x80?\x00\x00\x80?\x00\x00\x80?\x00\x00\x80?\x00\x00\x80?'
S'\x00\x00\x00\x00\x00\x00\x00\x00\x00\x00\x00\x00\x00\x00\x00\x00\x00\x00'
Ntbsg19
g1511
(g1512
(I0
tS'b'
tRp1701
(I1
(I18
I1
tg1515
I00
(lp1702
g535
ag578
ag594
ag611
ag628
ag619
ag509
ag603
ag562
ag487
ag526
ag570
ag553
ag586
ag518
ag498
ag545
ag468
atbsg23
g1526
(g1527
g1512
g1528
S'b'
tRp1703
(I1
(I18
I1
tg1530
I00
S'\xec\x99\xf6?\xef\xa6:@\x82\xfdq@LS\xd3?\x89w\x8c@(\x9e\x0f@\xdc\xeb\x8a@\xeb$\xbf@\x18\xa4\x94@\x1fj\x8d@\xb7\x9e!A\x00\x00\x00\x00\x0bu\xb1@t\xdc\xf5@\xee\x92JA\xb7w\xb6@\rM4@\xba\xc2\xb3@'
S'\x00\x00\x00\x00\x00\x00\x00\x00\x00\x00\x00\x01\x00\x00\x00\x00\x00\x00'
Ntbsg1525
g1526
(g1527
g1512
g1528
S'b'
tRp1704
(I1
(I18
I1
tg1530
I00
S'\x00\x00\x80?\x00\x00\x80?\x00\x00\x80?\x00\x00\x80?\x00\x00\x80?\x00\x00\x80?\x00\x00\x80?\x00\x00\x80?\x00\x00\x80?\x00\x00\x80?\x00\x00\x80?\x00\x00\x80?\x00\x00\x80?\x00\x00\x80?\x00\x00\x80?\x00\x00\x80?\x00\x00\x80?\x00\x00\x80?'
S'\x00\x00\x00\x00\x00\x00\x00\x00\x00\x00\x00\x00\x00\x00\x00\x00\x00\x00'
Ntbsg21
g1511
(g1512
(I0
tS'b'
tRp1705
(I1
(I18
I1
tg1515
I00
(lp1706
S'7'
aS'9'
aS'2'
aS'5'
aS'9'
aS'3'
aS'8'
aS'3'
aS'9'
aS'6'
aS'5'
aNaS'5'
aS'7'
aS'6'
aS'9'
aS'5'
aS'5'
atbsg1540
g1526
(g1527
g1512
g1528
S'b'
tRp1707
(I1
(I18
I1
tg1530
I00
S'\x00\x00\xc0@\x00\x000A\x00\x00PA\x00\x00pA\x00\x00\x88A\x00\x00\x80A\x00\x00@@\x00\x00`A\x00\x00\x10A\x00\x00\x80?\x00\x00\xa0@\x00\x00 A\x00\x00\x00A\x00\x00@A\x00\x00\x80@\x00\x00\x00@\x00\x00\xe0@\x00\x00\x00\x00'
S'\x00\x00\x00\x00\x00\x00\x00\x00\x00\x00\x00\x00\x00\x00\x00\x00\x00\x00'
Ntbsg20
g1526
(g1527
g1512
g1528
S'b'
tRp1708
(I1
(I18
I1
tg1530
I00
S'!4\xfe?j\x06m@\x0f\x82\xdf?[x\x7f@\xc4CX@\xec2\x9b@y\xbf\x9a@\xd6l\xf9@u\x9c\xad@V\x8d\xa3@\x1e\xe4\x0cA3\xd1\xee@\x0e\x99,A\x07\xc8PADc\x03A\n<\xc6@`s\x05A\xe8\xae(A'
S'\x00\x00\x00\x00\x00\x00\x00\x00\x00\x00\x00\x00\x00\x00\x00\x00\x00\x00'
NtbstRp1709
(dp1710
g1545
(dp1711
g1525
I01
sg21
I00
sg20
I01
sg22
I01
sg19
I00
sg23
I01
sg1540
I01
ssg1547
g1696
sg1548
(lp1712
g1525
ag1540
ag19
ag20
ag21
ag22
ag23
asg1550
(lp1713
I18
aI1
asbsg1552
g1553
sg1554
g1511
(g1512
(I0
tS'b'
tRp1714
(I1
(I18
I1
tg1515
I00
(lp1715
I17
aI9
aI15
aI6
aI14
aI10
aI0
aI16
aI12
aI8
aI11
aI1
aI13
aI2
aI7
aI3
aI5
aI4
atbsg1557
I01
sg1558
I1
sg1559
I-1
sg1560
(lp1716
g1
(g1562
g1509
(dp1717
g461
g533
sVY
I5
sg463
I2
sg464
g534
sg472
I7
sg469
I7
sg470
g467
sVX
I4
sg466
I0
sg474
g537
sg476
I0
sg478
g538
stRp1718
ag1
(g1562
g1509
(dp1719
g461
g576
sVY
I3
sg463
I2
sg464
g577
sg472
I9
sg469
I9
sg470
g489
sVX
I4
sg466
I0
sg474
g486
sg476
I0
sg478
g538
stRp1720
ag1
(g1562
g1509
(dp1721
g461
g592
sVY
I8
sg463
I2
sg464
g593
sg472
I2
sg469
I2
sg470
g497
sVX
I8
sg466
I0
sg474
g500
sg476
I0
sg478
g596
stRp1722
ag1
(g1562
g1509
(dp1723
g461
g609
sVY
I2
sg463
I2
sg464
g610
sg472
I5
sg469
I5
sg470
g497
sVX
I8
sg466
I0
sg474
g471
sg476
I0
sg478
g596
stRp1724
ag1
(g1562
g1509
(dp1725
g461
g626
sVY
I2
sg463
I3
sg464
g627
sg472
I9
sg469
I9
sg470
g489
sVX
I7
sg466
g508
sg474
g497
sg476
I0
sg478
g621
stRp1726
ag1
(g1562
g1509
(dp1727
g461
g617
sVY
I2
sg463
I3
sg464
g618
sg472
I3
sg469
I3
sg470
g471
sVX
I8
sg466
g467
sg474
g486
sg476
I0
sg478
g621
stRp1728
ag1
(g1562
g1509
(dp1729
g461
g506
sVY
I2
sg463
I3
sg464
g507
sg472
I8
sg469
I8
sg470
g477
sVX
I9
sg466
g508
sg474
g467
sg476
I0
sg478
g511
stRp1730
ag1
(g1562
g1509
(dp1731
g461
g601
sVY
I3
sg463
I3
sg464
g602
sg472
I3
sg469
I3
sg470
g497
sVX
I2
sg466
g489
sg474
g471
sg476
I0
sg478
g511
stRp1732
ag1
(g1562
g1509
(dp1733
g461
g560
sVY
I3
sg463
I3
sg464
g561
sg472
I9
sg469
I9
sg470
g467
sVX
I3
sg466
g537
sg474
g489
sg476
I0
sg478
g490
stRp1734
ag1
(g1562
g1509
(dp1735
g461
g484
sVY
I2
sg463
I3
sg464
g485
sg472
I6
sg469
I6
sg470
g471
sVX
I3
sg466
g486
sg474
g489
sg476
I0
sg478
g490
stRp1736
ag1
(g1562
g1509
(dp1737
g461
g524
sVY
I4
sg463
I4
sg464
g525
sg472
I5
sg469
I5
sg470
g500
sVX
I3
sg466
g471
sg474
g497
sg476
g489
sg478
g528
stRp1738
ag1
(g1562
g1509
(dp1739
g461
g568
sVY
I9
sg463
I4
sg464
g569
sg472
I9
sg469
I9
sg470
g467
sVX
I3
sg466
g471
sg474
g477
sg476
g475
sg478
g528
stRp1740
ag1
(g1562
g1509
(dp1741
g461
g551
sVY
I4
sg463
I4
sg464
g552
sg472
I5
sg469
I5
sg470
g486
sVX
I5
sg466
g508
sg474
g467
sg476
g489
sg478
g555
stRp1742
ag1
(g1562
g1509
(dp1743
g461
g584
sVY
I2
sg463
I4
sg464
g585
sg472
I7
sg469
I7
sg470
g477
sVX
I2
sg466
g489
sg474
g471
sg476
g467
sg478
g555
stRp1744
ag1
(g1562
g1509
(dp1745
g461
g516
sVY
I4
sg463
I4
sg464
g517
sg472
I6
sg469
I6
sg470
g500
sVX
I4
sg466
g486
sg474
g489
sg476
g471
sg478
g501
stRp1746
ag1
(g1562
g1509
(dp1747
g461
g495
sVY
I8
sg463
I4
sg464
g496
sg472
I9
sg469
I9
sg470
g471
sVX
I8
sg466
g497
sg474
g489
sg476
g500
sg478
g501
stRp1748
ag1
(g1562
g1509
(dp1749
g461
g543
sVY
I4
sg463
I4
sg464
g544
sg472
I5
sg469
I5
sg470
g475
sVX
I5
sg466
g500
sg474
g508
sg476
g537
sg478
g479
stRp1750
ag1
(g1562
g1509
(dp1751
g461
g462
sVY
I4
sg463
I4
sg464
g465
sg472
I5
sg469
I5
sg470
g471
sVX
I7
sg466
g467
sg474
g475
sg476
g477
sg478
g479
stRp1752
asg1575
Nsg1576
I4
sg1577
I18
sg1578
I0
sg1579
I18
sg1580
I01
sbag1
(g1497
g3
NtRp1753
(dp1754
g1500
Nsg1501
(lp1755
sg1503
I151231504
sg10
g1584
sg6
g1505
sg1506
I1
sg24
I01
sg25
g26
sg1507
g1
(g1508
g1509
(dp1756
g22
g1526
(g1527
g1512
g1528
S'b'
tRp1757
(I1
(I18
I1
tg1530
I00
S'\x00\x00\x80?\x00\x00\x80?\x00\x00\x80?\x00\x00\x80?\x00\x00\x80?\x00\x00\x80?\x00\x00\x80?\x00\x00\x80?\x00\x00\x00\x00\x00\x00\x80?\x00\x00\x80?\x00\x00\x80?\x00\x00\x80?\x00\x00\x80?\x00\x00\x80?\x00\x00\x00\x00\x00\x00\x00\x00\x00\x00\x80?'
S'\x00\x00\x00\x00\x00\x00\x00\x00\x00\x00\x00\x00\x00\x00\x00\x00\x00\x00'
Ntbsg19
g1511
(g1512
(I0
tS'b'
tRp1758
(I1
(I18
I1
tg1515
I00
(lp1759
g690
ag735
ag726
ag768
ag670
ag710
ag793
ag660
ag785
ag776
ag760
ag751
ag743
ag699
ag680
ag718
ag641
ag801
atbsg23
g1526
(g1527
g1512
g1528
S'b'
tRp1760
(I1
(I18
I1
tg1530
I00
S'5\xb8\x0e@\xd4zR@U+\xe0?\xc90\xcb?\xc0\xa4A@\xe5h\xb7?$\xa6\xd4@\xdbm\xb3@\x1d#\x86@\xe5\xe1A@\xbe}\xfa@\xa9\x8a7@x\x1cJ@\nQ\xb6@\xd1\xd0\x08A\x00\x00\x00\x00\xf8%v@\xce\xbd\x9b@'
S'\x00\x00\x00\x00\x00\x00\x00\x00\x00\x00\x00\x00\x00\x00\x00\x01\x00\x00'
Ntbsg1525
g1526
(g1527
g1512
g1528
S'b'
tRp1761
(I1
(I18
I1
tg1530
I00
S'\x00\x00\x80?\x00\x00\x80?\x00\x00\x80?\x00\x00\x80?\x00\x00\x80?\x00\x00\x80?\x00\x00\x80?\x00\x00\x80?\x00\x00\x80?\x00\x00\x80?\x00\x00\x80?\x00\x00\x80?\x00\x00\x80?\x00\x00\x80?\x00\x00\x80?\x00\x00\x80?\x00\x00\x80?\x00\x00\x80?'
S'\x00\x00\x00\x00\x00\x00\x00\x00\x00\x00\x00\x00\x00\x00\x00\x00\x00\x00'
Ntbsg21
g1511
(g1512
(I0
tS'b'
tRp1762
(I1
(I18
I1
tg1515
I00
(lp1763
S'4'
aS'6'
aS'3'
aS'1'
aS'9'
aS'5'
aS'5'
aS'5'
aS'3'
aS'3'
aS'3'
aS'9'
aS'4'
aS'3'
aS'8'
aNaS'9'
aS'6'
atbsg1540
g1526
(g1527
g1512
g1528
S'b'
tRp1764
(I1
(I18
I1
tg1530
I00
S'\x00\x00\x80@\x00\x00\x10A\x00\x00\x00A\x00\x00PA\x00\x00\x00@\x00\x00\xc0@\x00\x00\x80A\x00\x00\x80?\x00\x00pA\x00\x00`A\x00\x00@A\x00\x000A\x00\x00 A\x00\x00\xa0@\x00\x00@@\x00\x00\xe0@\x00\x00\x00\x00\x00\x00\x88A'
S'\x00\x00\x00\x00\x00\x00\x00\x00\x00\x00\x00\x00\x00\x00\x00\x00\x00\x00'
Ntbsg20
g1526
(g1527
g1512
g1528
S'b'
tRp1765
(I1
(I18
I1
tg1530
I00
S'a\xc1A@#E\xc6@\xa0\xe4_@<\xd1\xd9?\xc0\x1by@\xc25Z@\x04:\xac@\xfb[\xa2@]\xfc\xb5@(\xe3\xb8@\xb2R\nA\xb9\x87\x1dA\xd3\xf8\x1dAG\xf4\xdf@\x7fa#A\x83Y\xb5@0F\x9d@\x93\x7f\xe5@'
S'\x00\x00\x00\x00\x00\x00\x00\x00\x00\x00\x00\x00\x00\x00\x00\x00\x00\x00'
NtbstRp1766
(dp1767
g1545
(dp1768
g1525
I01
sg21
I00
sg20
I01
sg22
I01
sg19
I00
sg23
I01
sg1540
I01
ssg1547
g1753
sg1548
(lp1769
g1525
ag1540
ag19
ag20
ag21
ag22
ag23
asg1550
(lp1770
I18
aI1
asbsg1552
g1553
sg1554
g1511
(g1512
(I0
tS'b'
tRp1771
(I1
(I18
I1
tg1515
I00
(lp1772
I16
aI7
aI4
aI14
aI0
aI13
aI5
aI15
aI2
aI1
aI12
aI11
aI10
aI3
aI9
aI8
aI6
aI17
atbsg1557
I01
sg1558
I1
sg1559
I-1
sg1560
(lp1773
g1
(g1562
g1509
(dp1774
g634
g688
sVY
I2
sg636
I2
sg637
g689
sg645
I4
sg642
I4
sg643
g659
sVX
I3
sg639
I0
sg647
g661
sg649
I0
sg651
g692
stRp1775
ag1
(g1562
g1509
(dp1776
g634
g733
sVY
I2
sg636
I2
sg637
g734
sg645
I6
sg642
I6
sg643
g644
sVX
I2
sg639
I0
sg647
g661
sg649
I0
sg651
g692
stRp1777
ag1
(g1562
g1509
(dp1778
g634
g724
sVY
I5
sg636
I2
sg637
g725
sg645
I3
sg642
I3
sg643
g679
sVX
I4
sg639
I0
sg647
g648
sg649
I0
sg651
g728
stRp1779
ag1
(g1562
g1509
(dp1780
g634
g766
sVY
I2
sg636
I2
sg637
g767
sg645
I1
sg642
I1
sg643
g700
sVX
I5
sg639
I0
sg647
g648
sg649
I0
sg651
g728
stRp1781
ag1
(g1562
g1509
(dp1782
g634
g668
sVY
I3
sg636
I3
sg637
g669
sg645
I9
sg642
I9
sg643
g659
sVX
I8
sg639
g640
sg647
g661
sg649
I0
sg651
g672
stRp1783
ag1
(g1562
g1509
(dp1784
g634
g708
sVY
I5
sg636
I3
sg637
g709
sg645
I5
sg642
I5
sg643
g648
sVX
I6
sg639
g640
sg647
g661
sg649
I0
sg651
g672
stRp1785
ag1
(g1562
g1509
(dp1786
g634
g791
sVY
I7
sg636
I3
sg637
g792
sg645
I5
sg642
I5
sg643
g679
sVX
I7
sg639
g644
sg647
g648
sg649
I0
sg651
g663
stRp1787
ag1
(g1562
g1509
(dp1788
g634
g657
sVY
I5
sg636
I3
sg637
g658
sg645
I5
sg642
I5
sg643
g661
sVX
I4
sg639
g659
sg647
g648
sg649
I0
sg651
g663
stRp1789
ag1
(g1562
g1509
(dp1790
g634
g783
sVY
I5
sg636
I3
sg637
g784
sg645
I8
sg642
I8
sg643
g659
sVX
I5
sg639
g661
sg647
g648
sg649
I0
sg651
g778
stRp1791
ag1
(g1562
g1509
(dp1792
g634
g774
sVY
I2
sg636
I3
sg637
g775
sg645
I3
sg642
I3
sg643
g640
sVX
I4
sg639
g650
sg647
g702
sg649
I0
sg651
g778
stRp1793
ag1
(g1562
g1509
(dp1794
g634
g758
sVY
I5
sg636
I4
sg637
g759
sg645
I3
sg642
I3
sg643
g640
sVX
I5
sg639
g644
sg647
g700
sg649
g702
sg651
g753
stRp1795
ag1
(g1562
g1509
(dp1796
g634
g749
sVY
I3
sg636
I4
sg637
g750
sg645
I9
sg642
I9
sg643
g644
sVX
I3
sg639
g648
sg647
g661
sg649
g681
sg651
g753
stRp1797
ag1
(g1562
g1509
(dp1798
g634
g741
sVY
I6
sg636
I4
sg637
g742
sg645
I4
sg642
I4
sg643
g650
sVX
I3
sg639
g702
sg647
g644
sg649
g681
sg651
g703
stRp1799
ag1
(g1562
g1509
(dp1800
g634
g697
sVY
I3
sg636
I4
sg637
g698
sg645
I3
sg642
I3
sg643
g700
sVX
I3
sg639
g681
sg647
g702
sg649
g659
sg651
g703
stRp1801
ag1
(g1562
g1509
(dp1802
g634
g677
sVY
I2
sg636
I4
sg637
g678
sg645
I8
sg642
I8
sg643
g681
sVX
I9
sg639
g679
sg647
g648
sg649
g644
sg651
g683
stRp1803
ag1
(g1562
g1509
(dp1804
g634
g716
sVY
I3
sg636
I4
sg637
g717
sg645
I6
sg642
I6
sg643
g640
sVX
I2
sg639
g679
sg647
g702
sg649
g659
sg651
g683
stRp1805
ag1
(g1562
g1509
(dp1806
g634
g635
sVY
I2
sg636
I4
sg637
g638
sg645
I1
sg642
I1
sg643
g644
sVX
I8
sg639
g640
sg647
g648
sg649
g650
sg651
g652
stRp1807
ag1
(g1562
g1509
(dp1808
g634
g799
sVY
I2
sg636
I4
sg637
g800
sg645
I6
sg642
I6
sg643
g659
sVX
I3
sg639
g640
sg647
g702
sg649
g661
sg651
g652
stRp1809
asg1575
Nsg1576
I17
sg1577
I18
sg1578
I0
sg1579
I18
sg1580
I01
sbag1
(g1497
g3
NtRp1810
(dp1811
g1500
Nsg1501
(lp1812
sg1503
I151231504
sg10
g1584
sg6
g1505
sg1506
I1
sg24
I01
sg25
g26
sg1507
g1
(g1508
g1509
(dp1813
g22
g1526
(g1527
g1512
g1528
S'b'
tRp1814
(I1
(I18
I1
tg1530
I00
S'\x00\x00\x80?\x00\x00\x80?\x00\x00\x80?\x00\x00\x80?\x00\x00\x80?\x00\x00\x80?\x00\x00\x80?\x00\x00\x80?\x00\x00\x80?\x00\x00\x80?\x00\x00\x80?\x00\x00\x80?\x00\x00\x80?\x00\x00\x80?\x00\x00\x80?\x00\x00\x80?\x00\x00\x80?\x00\x00\x80?'
S'\x00\x00\x00\x00\x00\x00\x00\x00\x00\x00\x00\x00\x00\x00\x00\x00\x00\x00'
Ntbsg19
g1511
(g1512
(I0
tS'b'
tRp1815
(I1
(I18
I1
tg1515
I00
(lp1816
g966
ag832
ag862
ag942
ag883
ag873
ag908
ag926
ag950
ag899
ag934
ag842
ag814
ag974
ag917
ag958
ag891
ag852
atbsg23
g1526
(g1527
g1512
g1528
S'b'
tRp1817
(I1
(I18
I1
tg1530
I00
S'\x92\xec\x1c@+\xeb\xfc?\xa8\x16\xec?]\x1co@;\xdb\x8b@\xe8j\\@*\xbel@\\\xedC@\x97\xb5\xc0@\xdb\x89\x15@_]\xd0@\xfb\xab:@\t\xea\x9f@\tR\x97@\x94I2A\xb2\xc6\x0e@GA\x80@\xd5\xc4=A'
S'\x00\x00\x00\x00\x00\x00\x00\x00\x00\x00\x00\x00\x00\x00\x00\x00\x00\x00'
Ntbsg1525
g1526
(g1527
g1512
g1528
S'b'
tRp1818
(I1
(I18
I1
tg1530
I00
S'\x00\x00\x80?\x00\x00\x80?\x00\x00\x80?\x00\x00\x80?\x00\x00\x80?\x00\x00\x80?\x00\x00\x80?\x00\x00\x80?\x00\x00\x80?\x00\x00\x80?\x00\x00\x80?\x00\x00\x80?\x00\x00\x80?\x00\x00\x80?\x00\x00\x80?\x00\x00\x80?\x00\x00\x80?\x00\x00\x80?'
S'\x00\x00\x00\x00\x00\x00\x00\x00\x00\x00\x00\x00\x00\x00\x00\x00\x00\x00'
Ntbsg21
g1511
(g1512
(I0
tS'b'
tRp1819
(I1
(I18
I1
tg1515
I00
(lp1820
S'7'
aS'2'
aS'8'
aS'8'
aS'4'
aS'4'
aS'9'
aS'2'
aS'5'
aS'1'
aS'2'
aS'8'
aS'3'
aS'4'
aS'7'
aS'6'
aS'8'
aS'3'
atbsg1540
g1526
(g1527
g1512
g1528
S'b'
tRp1821
(I1
(I18
I1
tg1530
I00
S'\x00\x00\x80A\x00\x00\x80?\x00\x00\x80@\x00\x00PA\x00\x00\xc0@\x00\x00\xa0@\x00\x00\x10A\x00\x000A\x00\x00`A\x00\x00\x00A\x00\x00@A\x00\x00\x00@\x00\x00\x00\x00\x00\x00\x88A\x00\x00 A\x00\x00pA\x00\x00\xe0@\x00\x00@@'
S'\x00\x00\x00\x00\x00\x00\x00\x00\x00\x00\x00\x00\x00\x00\x00\x00\x00\x00'
Ntbsg20
g1526
(g1527
g1512
g1528
S'b'
tRp1822
(I1
(I18
I1
tg1530
I00
S'\xf5}d@X\x01\xb5@/J\xe8?O\xc3m@\xdd\xd1\xb1@A\xe1\xc5@\x90\xa7\xb7@L\x14\xbf@><\xad@\xa5b\xf3@\xc6\xde\xc4@\xc5\xd5\x04A\xb1K\xe4@~\xde\xdf@M\x9b\x02A\x1f\x05\xe2@\xb6W\x01Aq\xf7\x13A'
S'\x00\x00\x00\x00\x00\x00\x00\x00\x00\x00\x00\x00\x00\x00\x00\x00\x00\x00'
NtbstRp1823
(dp1824
g1545
(dp1825
g1525
I01
sg21
I00
sg20
I01
sg22
I01
sg19
I00
sg23
I01
sg1540
I01
ssg1547
g1810
sg1548
(lp1826
g1525
ag1540
ag19
ag20
ag21
ag22
ag23
asg1550
(lp1827
I18
aI1
asbsg1552
g1553
sg1554
g1511
(g1512
(I0
tS'b'
tRp1828
(I1
(I18
I1
tg1515
I00
(lp1829
I12
aI1
aI11
aI17
aI2
aI5
aI4
aI16
aI9
aI6
aI14
aI7
aI10
aI3
aI8
aI15
aI0
aI13
atbsg1557
I01
sg1558
I1
sg1559
I-1
sg1560
(lp1830
g1
(g1562
g1509
(dp1831
g807
g964
sVY
I6
sg809
I2
sg810
g965
sg818
I7
sg815
I7
sg816
g874
sVX
I3
sg812
I0
sg820
g863
sg822
I0
sg824
g835
stRp1832
ag1
(g1562
g1509
(dp1833
g807
g830
sVY
I4
sg809
I2
sg810
g831
sg818
I2
sg815
I2
sg816
g821
sVX
I5
sg812
I0
sg820
g834
sg822
I0
sg824
g835
stRp1834
ag1
(g1562
g1509
(dp1835
g807
g860
sVY
I2
sg809
I2
sg810
g861
sg818
I8
sg815
I8
sg816
g863
sVX
I2
sg812
I0
sg820
g865
sg822
I0
sg824
g866
stRp1836
ag1
(g1562
g1509
(dp1837
g807
g940
sVY
I2
sg809
I2
sg810
g941
sg818
I8
sg815
I8
sg816
g844
sVX
I2
sg812
I0
sg820
g865
sg822
I0
sg824
g866
stRp1838
ag1
(g1562
g1509
(dp1839
g807
g881
sVY
I3
sg809
I3
sg810
g882
sg818
I4
sg815
I4
sg816
g813
sVX
I8
sg812
g823
sg820
g817
sg822
I0
sg824
g876
stRp1840
ag1
(g1562
g1509
(dp1841
g807
g871
sVY
I2
sg809
I3
sg810
g872
sg818
I4
sg815
I4
sg816
g874
sVX
I3
sg812
g865
sg820
g844
sg822
I0
sg824
g876
stRp1842
ag1
(g1562
g1509
(dp1843
g807
g906
sVY
I2
sg809
I3
sg810
g907
sg818
I9
sg815
I9
sg816
g863
sVX
I2
sg812
g813
sg820
g821
sg822
I0
sg824
g910
stRp1844
ag1
(g1562
g1509
(dp1845
g807
g924
sVY
I2
sg809
I3
sg810
g925
sg818
I2
sg815
I2
sg816
g834
sVX
I9
sg812
g874
sg820
g821
sg822
I0
sg824
g910
stRp1846
ag1
(g1562
g1509
(dp1847
g807
g948
sVY
I4
sg809
I3
sg810
g949
sg818
I5
sg815
I5
sg816
g813
sVX
I8
sg812
g817
sg820
g853
sg822
I0
sg824
g901
stRp1848
ag1
(g1562
g1509
(dp1849
g807
g897
sVY
I6
sg809
I3
sg810
g898
sg818
I1
sg815
I1
sg816
g821
sVX
I8
sg812
g834
sg820
g874
sg822
I0
sg824
g901
stRp1850
ag1
(g1562
g1509
(dp1851
g807
g932
sVY
I3
sg809
I4
sg810
g933
sg818
I2
sg815
I2
sg816
g865
sVX
I6
sg812
g821
sg820
g817
sg822
g874
sg824
g845
stRp1852
ag1
(g1562
g1509
(dp1853
g807
g840
sVY
I2
sg809
I4
sg810
g841
sg818
I8
sg815
I8
sg816
g821
sVX
I2
sg812
g823
sg820
g844
sg822
g813
sg824
g845
stRp1854
ag1
(g1562
g1509
(dp1855
g807
g808
sVY
I3
sg809
I4
sg810
g811
sg818
I3
sg815
I3
sg816
g817
sVX
I4
sg812
g813
sg820
g821
sg822
g823
sg824
g825
stRp1856
ag1
(g1562
g1509
(dp1857
g807
g972
sVY
I3
sg809
I4
sg810
g973
sg818
I4
sg815
I4
sg816
g844
sVX
I7
sg812
g823
sg820
g874
sg822
g821
sg824
g825
stRp1858
ag1
(g1562
g1509
(dp1859
g807
g915
sVY
I4
sg809
I4
sg810
g916
sg818
I7
sg815
I7
sg816
g821
sVX
I8
sg812
g863
sg820
g874
sg822
g865
sg824
g919
stRp1860
ag1
(g1562
g1509
(dp1861
g807
g956
sVY
I3
sg809
I4
sg810
g957
sg818
I6
sg815
I6
sg816
g865
sVX
I5
sg812
g834
sg820
g813
sg822
g853
sg824
g919
stRp1862
ag1
(g1562
g1509
(dp1863
g807
g889
sVY
I2
sg809
I4
sg810
g890
sg818
I8
sg815
I8
sg816
g813
sVX
I4
sg812
g823
sg820
g853
sg822
g863
sg824
g855
stRp1864
ag1
(g1562
g1509
(dp1865
g807
g850
sVY
I5
sg809
I4
sg810
g851
sg818
I3
sg815
I3
sg816
g853
sVX
I9
sg812
g823
sg820
g813
sg822
g834
sg824
g855
stRp1866
asg1575
Nsg1576
I13
sg1577
I18
sg1578
I0
sg1579
I18
sg1580
I01
sbag1
(g1497
g3
NtRp1867
(dp1868
g1500
Nsg1501
(lp1869
sg1503
I151231504
sg10
g1584
sg6
g1505
sg1506
I1
sg24
I01
sg25
g26
sg1507
g1
(g1508
g1509
(dp1870
g22
g1526
(g1527
g1512
g1528
S'b'
tRp1871
(I1
(I18
I1
tg1530
I00
S'\x00\x00\x80?\x00\x00\x80?\x00\x00\x80?\x00\x00\x80?\x00\x00\x80?\x00\x00\x80?\x00\x00\x80?\x00\x00\x80?\x00\x00\x80?\x00\x00\x80?\x00\x00\x80?\x00\x00\x80?\x00\x00\x80?\x00\x00\x80?\x00\x00\x80?\x00\x00\x80?\x00\x00\x80?\x00\x00\x80?'
S'\x00\x00\x00\x00\x00\x00\x00\x00\x00\x00\x00\x00\x00\x00\x00\x00\x00\x00'
Ntbsg19
g1511
(g1512
(I0
tS'b'
tRp1872
(I1
(I18
I1
tg1515
I00
(lp1873
g1063
ag1005
ag1036
ag1123
ag1016
ag1080
ag1088
ag1147
ag1139
ag1097
ag1045
ag1072
ag1025
ag1114
ag1054
ag1131
ag987
ag1106
atbsg23
g1526
(g1527
g1512
g1528
S'b'
tRp1874
(I1
(I18
I1
tg1530
I00
S'\xd3\xcc\x10@5\xd0\x87@\\\xba\xd4@v\xf9C@,\xf3\xb6@u\xaa6@\xc7\xcd`@\xce\xa9\xe9?\x1c\nL@`\x02\xce@N\xed\xf5@\xa7\xdb?@\xee/\xaf@\xbf\xee?@\xc9o\xb5@\x04G\xed@\xe9\xaf\x95@\xa1\x9bY@'
S'\x00\x00\x00\x00\x00\x00\x00\x00\x00\x00\x00\x00\x00\x00\x00\x00\x00\x00'
Ntbsg1525
g1526
(g1527
g1512
g1528
S'b'
tRp1875
(I1
(I18
I1
tg1530
I00
S'\x00\x00\x80?\x00\x00\x80?\x00\x00\x80?\x00\x00\x80?\x00\x00\x80?\x00\x00\x80?\x00\x00\x80?\x00\x00\x80?\x00\x00\x80?\x00\x00\x80?\x00\x00\x80?\x00\x00\x80?\x00\x00\x80?\x00\x00\x80?\x00\x00\x80?\x00\x00\x80?\x00\x00\x80?\x00\x00\x80?'
S'\x00\x00\x00\x00\x00\x00\x00\x00\x00\x00\x00\x00\x00\x00\x00\x00\x00\x00'
Ntbsg21
g1511
(g1512
(I0
tS'b'
tRp1876
(I1
(I18
I1
tg1515
I00
(lp1877
S'1'
aS'8'
aS'4'
aS'1'
aS'3'
aS'9'
aS'1'
aS'6'
aS'6'
aS'8'
aS'8'
aS'1'
aS'6'
aS'7'
aS'5'
aS'5'
aS'5'
aS'3'
atbsg1540
g1526
(g1527
g1512
g1528
S'b'
tRp1878
(I1
(I18
I1
tg1530
I00
S'\x00\x00\xe0@\x00\x00\x80?\x00\x00\x80@\x00\x00`A\x00\x00\x00@\x00\x00\x10A\x00\x00 A\x00\x00\x88A\x00\x00\x80A\x00\x000A\x00\x00\xa0@\x00\x00\x00A\x00\x00@@\x00\x00PA\x00\x00\xc0@\x00\x00pA\x00\x00\x00\x00\x00\x00@A'
S'\x00\x00\x00\x00\x00\x00\x00\x00\x00\x00\x00\x00\x00\x00\x00\x00\x00\x00'
Ntbsg20
g1526
(g1527
g1512
g1528
S'b'
tRp1879
(I1
(I18
I1
tg1530
I00
S'\xec\x17\'@\xf0\x0cV@7\xea\x16@"((@\xda\xed\xa3@Tb+@4\xf9\xcf@\x7f\xf6\x9e@\xdf\xbde@\x86&\xab@#\xbb&A\xa6h\x06A\x8d\x14\xb9@N\xb9\xd8@\xf3Z\x0fA[\x0b=A\x92i\xd3@\x1a\x13\x0bA'
S'\x00\x00\x00\x00\x00\x00\x00\x00\x00\x00\x00\x00\x00\x00\x00\x00\x00\x00'
NtbstRp1880
(dp1881
g1545
(dp1882
g1525
I01
sg21
I00
sg20
I01
sg22
I01
sg19
I00
sg23
I01
sg1540
I01
ssg1547
g1867
sg1548
(lp1883
g1525
ag1540
ag19
ag20
ag21
ag22
ag23
asg1550
(lp1884
I18
aI1
asbsg1552
g1553
sg1554
g1511
(g1512
(I0
tS'b'
tRp1885
(I1
(I18
I1
tg1515
I00
(lp1886
I16
aI1
aI4
aI12
aI2
aI10
aI14
aI0
aI11
aI5
aI6
aI9
aI17
aI13
aI3
aI15
aI8
aI7
atbsg1557
I01
sg1558
I1
sg1559
I-1
sg1560
(lp1887
g1
(g1562
g1509
(dp1888
g980
g1061
sVY
I3
sg982
I2
sg983
g1062
sg991
I1
sg988
I1
sg989
g1064
sVX
I9
sg985
I0
sg993
g1026
sg995
I0
sg997
g1009
stRp1889
ag1
(g1562
g1509
(dp1890
g980
g1003
sVY
I2
sg982
I2
sg983
g1004
sg991
I8
sg988
I8
sg989
g1006
sVX
I2
sg985
I0
sg993
g1008
sg995
I0
sg997
g1009
stRp1891
ag1
(g1562
g1509
(dp1892
g980
g1034
sVY
I3
sg982
I2
sg983
g1035
sg991
I4
sg988
I4
sg989
g996
sVX
I6
sg985
I0
sg993
g1028
sg995
I0
sg997
g1038
stRp1893
ag1
(g1562
g1509
(dp1894
g980
g1121
sVY
I2
sg982
I2
sg983
g1122
sg991
I1
sg988
I1
sg989
g1026
sVX
I6
sg985
I0
sg993
g1064
sg995
I0
sg997
g1038
stRp1895
ag1
(g1562
g1509
(dp1896
g980
g1014
sVY
I9
sg982
I3
sg983
g1015
sg991
I3
sg988
I3
sg989
g990
sVX
I5
sg985
g994
sg993
g996
sg995
I0
sg997
g1018
stRp1897
ag1
(g1562
g1509
(dp1898
g980
g1078
sVY
I3
sg982
I3
sg983
g1079
sg991
I9
sg988
I9
sg989
g986
sVX
I5
sg985
g1028
sg993
g1008
sg995
I0
sg997
g1018
stRp1899
ag1
(g1562
g1509
(dp1900
g980
g1086
sVY
I2
sg982
I3
sg983
g1087
sg991
I1
sg988
I1
sg989
g1026
sVX
I7
sg985
g994
sg993
g1064
sg995
I0
sg997
g1090
stRp1901
ag1
(g1562
g1509
(dp1902
g980
g1145
sVY
I6
sg982
I3
sg983
g1146
sg991
I6
sg988
I6
sg989
g1008
sVX
I6
sg985
g986
sg993
g1064
sg995
I0
sg997
g1090
stRp1903
ag1
(g1562
g1509
(dp1904
g980
g1137
sVY
I2
sg982
I3
sg983
g1138
sg991
I6
sg988
I6
sg989
g994
sVX
I2
sg985
g1115
sg993
g1006
sg995
I0
sg997
g1099
stRp1905
ag1
(g1562
g1509
(dp1906
g980
g1095
sVY
I6
sg982
I3
sg983
g1096
sg991
I8
sg988
I8
sg989
g1064
sVX
I2
sg985
g1008
sg993
g1006
sg995
I0
sg997
g1099
stRp1907
ag1
(g1562
g1509
(dp1908
g980
g1043
sVY
I4
sg982
I4
sg983
g1044
sg991
I8
sg988
I8
sg989
g1006
sVX
I3
sg985
g990
sg993
g996
sg995
g994
sg997
g1047
stRp1909
ag1
(g1562
g1509
(dp1910
g980
g1070
sVY
I8
sg982
I4
sg983
g1071
sg991
I1
sg988
I1
sg989
g990
sVX
I2
sg985
g994
sg993
g996
sg995
g1006
sg997
g1047
stRp1911
ag1
(g1562
g1509
(dp1912
g980
g1023
sVY
I5
sg982
I4
sg983
g1024
sg991
I6
sg988
I6
sg989
g1026
sVX
I4
sg985
g990
sg993
g1006
sg995
g1028
sg997
g1029
stRp1913
ag1
(g1562
g1509
(dp1914
g980
g1112
sVY
I3
sg982
I4
sg983
g1113
sg991
I7
sg988
I7
sg989
g1115
sVX
I2
sg985
g986
sg993
g1028
sg995
g990
sg997
g1029
stRp1915
ag1
(g1562
g1509
(dp1916
g980
g1052
sVY
I3
sg982
I4
sg983
g1053
sg991
I5
sg988
I5
sg989
g990
sVX
I3
sg985
g1026
sg993
g994
sg995
g1006
sg997
g1056
stRp1917
ag1
(g1562
g1509
(dp1918
g980
g1129
sVY
I4
sg982
I4
sg983
g1130
sg991
I5
sg988
I5
sg989
g994
sVX
I8
sg985
g1008
sg993
g1064
sg995
g986
sg997
g1056
stRp1919
ag1
(g1562
g1509
(dp1920
g980
g981
sVY
I2
sg982
I4
sg983
g984
sg991
I5
sg988
I5
sg989
g990
sVX
I6
sg985
g986
sg993
g994
sg995
g996
sg997
g998
stRp1921
ag1
(g1562
g1509
(dp1922
g980
g1104
sVY
I2
sg982
I4
sg983
g1105
sg991
I3
sg988
I3
sg989
g990
sVX
I3
sg985
g1028
sg993
g986
sg995
g996
sg997
g998
stRp1923
asg1575
Nsg1576
I7
sg1577
I18
sg1578
I0
sg1579
I18
sg1580
I01
sbag1
(g1497
g3
NtRp1924
(dp1925
g1500
Nsg1501
(lp1926
sg1503
I151231504
sg10
g1584
sg6
g1505
sg1506
I1
sg24
I01
sg25
g26
sg1507
g1
(g1508
g1509
(dp1927
g22
g1526
(g1527
g1512
g1528
S'b'
tRp1928
(I1
(I18
I1
tg1530
I00
S'\x00\x00\x80?\x00\x00\x80?\x00\x00\x80?\x00\x00\x80?\x00\x00\x80?\x00\x00\x80?\x00\x00\x80?\x00\x00\x80?\x00\x00\x80?\x00\x00\x80?\x00\x00\x80?\x00\x00\x80?\x00\x00\x80?\x00\x00\x00\x00\x00\x00\x80?\x00\x00\x80?\x00\x00\x80?\x00\x00\x80?'
S'\x00\x00\x00\x00\x00\x00\x00\x00\x00\x00\x00\x00\x00\x00\x00\x00\x00\x00'
Ntbsg19
g1511
(g1512
(I0
tS'b'
tRp1929
(I1
(I18
I1
tg1515
I00
(lp1930
g1296
ag1229
ag1304
ag1220
ag1201
ag1320
ag1256
ag1160
ag1280
ag1238
ag1272
ag1247
ag1312
ag1178
ag1211
ag1264
ag1190
ag1288
atbsg23
g1526
(g1527
g1512
g1528
S'b'
tRp1931
(I1
(I18
I1
tg1530
I00
S'\x15v\xe2?#\x916@\x8c[\x9e@\xb8S\xcd?\xf3O\xc1?\xd7\xc7D@\x11\x07\xf3@\xc0\x96\xbe@\x0b\x04\xe5@F\x9b>@\xd5l\x1bA\xfbx\xf7@8\x19\xfd@\x00\x00\x00\x00L0\x19AR4\x96@\xe8\xeaB@\x1a\x8cc@'
S'\x00\x00\x00\x00\x00\x00\x00\x00\x00\x00\x00\x00\x00\x01\x00\x00\x00\x00'
Ntbsg1525
g1526
(g1527
g1512
g1528
S'b'
tRp1932
(I1
(I18
I1
tg1530
I00
S'\x00\x00\x80?\x00\x00\x80?\x00\x00\x80?\x00\x00\x80?\x00\x00\x80?\x00\x00\x80?\x00\x00\x80?\x00\x00\x80?\x00\x00\x80?\x00\x00\x80?\x00\x00\x80?\x00\x00\x80?\x00\x00\x80?\x00\x00\x80?\x00\x00\x80?\x00\x00\x80?\x00\x00\x80?\x00\x00\x80?'
S'\x00\x00\x00\x00\x00\x00\x00\x00\x00\x00\x00\x00\x00\x00\x00\x00\x00\x00'
Ntbsg21
g1511
(g1512
(I0
tS'b'
tRp1933
(I1
(I18
I1
tg1515
I00
(lp1934
S'2'
aS'3'
aS'1'
aS'6'
aS'9'
aS'4'
aS'6'
aS'3'
aS'7'
aS'1'
aS'8'
aS'8'
aS'8'
aNaS'8'
aS'1'
aS'6'
aS'6'
atbsg1540
g1526
(g1527
g1512
g1528
S'b'
tRp1935
(I1
(I18
I1
tg1530
I00
S'\x00\x00`A\x00\x00\xc0@\x00\x00pA\x00\x00\xa0@\x00\x00@@\x00\x00\x88A\x00\x00\x10A\x00\x00\x00\x00\x00\x00@A\x00\x00\xe0@\x00\x000A\x00\x00\x00A\x00\x00\x80A\x00\x00\x80?\x00\x00\x80@\x00\x00 A\x00\x00\x00@\x00\x00PA'
S'\x00\x00\x00\x00\x00\x00\x00\x00\x00\x00\x00\x00\x00\x00\x00\x00\x00\x00'
Ntbsg20
g1526
(g1527
g1512
g1528
S'b'
tRp1936
(I1
(I18
I1
tg1530
I00
S'4O&@A\xa0;@2\xd3\xe7?\xcc\xbf\x16@\x18\x8b\x17@\xddR(AcM/@\x8c\xee\xc5@i\x92\xab@\xef\xa8\xa3@\xf2\xd8\x08A\xaft\xcb@\xad\xae\xe9@\xcb\xea\xdc@\xffU\x1fAZ8\xf3@4\xa8$A\r\xe7,A'
S'\x00\x00\x00\x00\x00\x00\x00\x00\x00\x00\x00\x00\x00\x00\x00\x00\x00\x00'
NtbstRp1937
(dp1938
g1545
(dp1939
g1525
I01
sg21
I00
sg20
I01
sg22
I01
sg19
I00
sg23
I01
sg1540
I01
ssg1547
g1924
sg1548
(lp1940
g1525
ag1540
ag19
ag20
ag21
ag22
ag23
asg1550
(lp1941
I18
aI1
asbsg1552
g1553
sg1554
g1511
(g1512
(I0
tS'b'
tRp1942
(I1
(I18
I1
tg1515
I00
(lp1943
I7
aI13
aI16
aI4
aI14
aI3
aI1
aI9
aI11
aI6
aI15
aI10
aI8
aI17
aI0
aI2
aI12
aI5
atbsg1557
I01
sg1558
I1
sg1559
I-1
sg1560
(lp1944
g1
(g1562
g1509
(dp1945
g1153
g1294
sVY
I2
sg1155
I2
sg1156
g1295
sg1164
I2
sg1161
I2
sg1162
g1167
sVX
I3
sg1158
I0
sg1166
g1193
sg1168
I0
sg1169
g1231
stRp1946
ag1
(g1562
g1509
(dp1947
g1153
g1227
sVY
I2
sg1155
I2
sg1156
g1228
sg1164
I3
sg1161
I3
sg1162
g1182
sVX
I6
sg1158
I0
sg1166
g1163
sg1168
I0
sg1169
g1231
stRp1948
ag1
(g1562
g1509
(dp1949
g1153
g1302
sVY
I4
sg1155
I2
sg1156
g1303
sg1164
I1
sg1161
I1
sg1162
g1193
sVX
I8
sg1158
I0
sg1166
g1182
sg1168
I0
sg1169
g1222
stRp1950
ag1
(g1562
g1509
(dp1951
g1153
g1218
sVY
I2
sg1155
I2
sg1156
g1219
sg1164
I6
sg1161
I6
sg1162
g1203
sVX
I3
sg1158
I0
sg1166
g1167
sg1168
I0
sg1169
g1222
stRp1952
ag1
(g1562
g1509
(dp1953
g1153
g1199
sVY
I8
sg1155
I3
sg1156
g1200
sg1164
I9
sg1161
I9
sg1162
g1159
sVX
I6
sg1158
g1181
sg1166
g1203
sg1168
I0
sg1169
g1204
stRp1954
ag1
(g1562
g1509
(dp1955
g1153
g1318
sVY
I2
sg1155
I3
sg1156
g1319
sg1164
I4
sg1161
I4
sg1162
g1182
sVX
I3
sg1158
g1191
sg1166
g1193
sg1168
I0
sg1169
g1204
stRp1956
ag1
(g1562
g1509
(dp1957
g1153
g1254
sVY
I3
sg1155
I3
sg1156
g1255
sg1164
I6
sg1161
I6
sg1162
g1203
sVX
I3
sg1158
g1191
sg1166
g1159
sg1168
I0
sg1169
g1170
stRp1958
ag1
(g1562
g1509
(dp1959
g1153
g1154
sVY
I2
sg1155
I3
sg1156
g1157
sg1164
I3
sg1161
I3
sg1162
g1163
sVX
I8
sg1158
g1159
sg1166
g1167
sg1168
I0
sg1169
g1170
stRp1960
ag1
(g1562
g1509
(dp1961
g1153
g1278
sVY
I3
sg1155
I3
sg1156
g1279
sg1164
I7
sg1161
I7
sg1162
g1191
sVX
I6
sg1158
g1193
sg1166
g1167
sg1168
I0
sg1169
g1240
stRp1962
ag1
(g1562
g1509
(dp1963
g1153
g1236
sVY
I3
sg1155
I3
sg1156
g1237
sg1164
I1
sg1161
I1
sg1162
g1159
sVX
I3
sg1158
g1203
sg1166
g1181
sg1168
I0
sg1169
g1240
stRp1964
ag1
(g1562
g1509
(dp1965
g1153
g1270
sVY
I6
sg1155
I4
sg1156
g1271
sg1164
I8
sg1161
I8
sg1162
g1177
sVX
I6
sg1158
g1182
sg1166
g1203
sg1168
g1181
sg1169
g1249
stRp1966
ag1
(g1562
g1509
(dp1967
g1153
g1245
sVY
I9
sg1155
I4
sg1156
g1246
sg1164
I8
sg1161
I8
sg1162
g1182
sVX
I3
sg1158
g1191
sg1166
g1163
sg1168
g1177
sg1169
g1249
stRp1968
ag1
(g1562
g1509
(dp1969
g1153
g1310
sVY
I2
sg1155
I4
sg1156
g1311
sg1164
I8
sg1161
I8
sg1162
g1203
sVX
I3
sg1158
g1167
sg1166
g1177
sg1168
g1181
sg1169
g1183
stRp1970
ag1
(g1562
g1509
(dp1971
g1153
g1175
sVY
I3
sg1155
I4
sg1156
g1176
sg1164
I2
sg1161
I2
sg1162
g1179
sVX
I2
sg1158
g1177
sg1166
g1181
sg1168
g1182
sg1169
g1183
stRp1972
ag1
(g1562
g1509
(dp1973
g1153
g1209
sVY
I7
sg1155
I4
sg1156
g1210
sg1164
I8
sg1161
I8
sg1162
g1177
sVX
I6
sg1158
g1203
sg1166
g1181
sg1168
g1182
sg1169
g1213
stRp1974
ag1
(g1562
g1509
(dp1975
g1153
g1262
sVY
I9
sg1155
I4
sg1156
g1263
sg1164
I1
sg1161
I1
sg1162
g1167
sVX
I9
sg1158
g1193
sg1166
g1181
sg1168
g1177
sg1169
g1213
stRp1976
ag1
(g1562
g1509
(dp1977
g1153
g1188
sVY
I3
sg1155
I4
sg1156
g1189
sg1164
I6
sg1161
I6
sg1162
g1191
sVX
I9
sg1158
g1167
sg1166
g1159
sg1168
g1193
sg1169
g1194
stRp1978
ag1
(g1562
g1509
(dp1979
g1153
g1286
sVY
I4
sg1155
I4
sg1156
g1287
sg1164
I6
sg1161
I6
sg1162
g1177
sVX
I2
sg1158
g1167
sg1166
g1181
sg1168
g1179
sg1169
g1194
stRp1980
asg1575
Nsg1576
I5
sg1577
I18
sg1578
I0
sg1579
I18
sg1580
I01
sbag1
(g1497
g3
NtRp1981
(dp1982
g1500
Nsg1501
(lp1983
sg1503
I151231504
sg10
g1584
sg6
g1505
sg1506
I1
sg24
I01
sg25
g26
sg1507
g1
(g1508
g1509
(dp1984
g22
g1526
(g1527
g1512
g1528
S'b'
tRp1985
(I1
(I18
I1
tg1530
I00
S'\x00\x00\x80?\x00\x00\x80?\x00\x00\x80?\x00\x00\x80?\x00\x00\x80?\x00\x00\x80?\x00\x00\x80?\x00\x00\x80?\x00\x00\x80?\x00\x00\x80?\x00\x00\x80?\x00\x00\x80?\x00\x00\x00\x00\x00\x00\x80?\x00\x00\x80?\x00\x00\x80?\x00\x00\x80?\x00\x00\x80?'
S'\x00\x00\x00\x00\x00\x00\x00\x00\x00\x00\x00\x00\x00\x00\x00\x00\x00\x00'
Ntbsg19
g1511
(g1512
(I0
tS'b'
tRp1986
(I1
(I18
I1
tg1515
I00
(lp1987
g1468
ag1400
ag1444
ag1427
ag1493
ag1476
ag1452
ag1391
ag1436
ag1418
ag1485
ag1409
ag1333
ag1352
ag1383
ag1372
ag1460
ag1362
atbsg23
g1526
(g1527
g1512
g1528
S'b'
tRp1988
(I1
(I18
I1
tg1530
I00
S'\xbev\xf8?\xaa\xfd\xdd?\xb5?\xcb?\xe2{`@u\xd2\x98@\x04\x87\xa9@Tg\xe4?\x88\xfdw@Z\\X@/\xe9\xe1@\xa0j\\@\x03L\xb1@QQ\x0bA\xfa\xa2e@\x1e\xef\xe5@\xc0\x8c\x8d@\xc9\xd0\xec@\x87\x03k@'
S'\x00\x00\x00\x00\x00\x00\x00\x00\x00\x00\x00\x00\x00\x00\x00\x00\x00\x00'
Ntbsg1525
g1526
(g1527
g1512
g1528
S'b'
tRp1989
(I1
(I18
I1
tg1530
I00
S'\x00\x00\x80?\x00\x00\x80?\x00\x00\x80?\x00\x00\x80?\x00\x00\x80?\x00\x00\x80?\x00\x00\x80?\x00\x00\x80?\x00\x00\x80?\x00\x00\x80?\x00\x00\x80?\x00\x00\x80?\x00\x00\x80?\x00\x00\x80?\x00\x00\x80?\x00\x00\x80?\x00\x00\x80?\x00\x00\x80?'
S'\x00\x00\x00\x00\x00\x00\x00\x00\x00\x00\x00\x00\x00\x00\x00\x00\x00\x00'
Ntbsg21
g1511
(g1512
(I0
tS'b'
tRp1990
(I1
(I18
I1
tg1515
I00
(lp1991
S'1'
aS'4'
aS'9'
aS'6'
aS'6'
aS'7'
aS'8'
aS'2'
aS'1'
aS'9'
aS'1'
aS'2'
aS'3'
aS'3'
aS'7'
aS'1'
aS'5'
aS'7'
atbsg1540
g1526
(g1527
g1512
g1528
S'b'
tRp1992
(I1
(I18
I1
tg1530
I00
S'\x00\x00`A\x00\x00\xc0@\x00\x000A\x00\x00\x10A\x00\x00\x88A\x00\x00pA\x00\x00@A\x00\x00\xa0@\x00\x00 A\x00\x00\x00A\x00\x00\x80A\x00\x00\xe0@\x00\x00\x00\x00\x00\x00\x80?\x00\x00\x80@\x00\x00@@\x00\x00PA\x00\x00\x00@'
S'\x00\x00\x00\x00\x00\x00\x00\x00\x00\x00\x00\x00\x00\x00\x00\x00\x00\x00'
Ntbsg20
g1526
(g1527
g1512
g1528
S'b'
tRp1993
(I1
(I18
I1
tg1530
I00
S'\xd1i\x0c@\x06K(@\x06}\x03@\xc6v,@\xe9\x98\x08@2\x13\x91@\xe5>\x98@|r\x8e@\xed\xd0\xdb@`\xd8\xb3@\xb5\xcc\xd7@\x10?\xdd@\xe7\xb2\xa7@C\xa7\xd1@\xf8x\xaa@\x83f\xbb@\xa3\xd5\x16AdB\x13A'
S'\x00\x00\x00\x00\x00\x00\x00\x00\x00\x00\x00\x00\x00\x00\x00\x00\x00\x00'
NtbstRp1994
(dp1995
g1545
(dp1996
g1525
I01
sg21
I00
sg20
I01
sg22
I01
sg19
I00
sg23
I01
sg1540
I01
ssg1547
g1981
sg1548
(lp1997
g1525
ag1540
ag19
ag20
ag21
ag22
ag23
asg1550
(lp1998
I18
aI1
asbsg1552
g1553
sg1554
g1511
(g1512
(I0
tS'b'
tRp1999
(I1
(I18
I1
tg1515
I00
(lp2000
I12
aI13
aI17
aI15
aI14
aI7
aI1
aI11
aI9
aI3
aI8
aI2
aI6
aI16
aI0
aI5
aI10
aI4
atbsg1557
I01
sg1558
I1
sg1559
I-1
sg1560
(lp2001
g1
(g1562
g1509
(dp2002
g1326
g1466
sVY
I2
sg1328
I2
sg1329
g1467
sg1337
I1
sg1334
I1
sg1335
g1374
sVX
I9
sg1331
I0
sg1339
g1353
sg1341
I0
sg1343
g1402
stRp2003
ag1
(g1562
g1509
(dp2004
g1326
g1398
sVY
I4
sg1328
I2
sg1329
g1399
sg1337
I4
sg1334
I4
sg1335
g1374
sVX
I3
sg1331
I0
sg1339
g1382
sg1341
I0
sg1343
g1402
stRp2005
ag1
(g1562
g1509
(dp2006
g1326
g1442
sVY
I4
sg1328
I2
sg1329
g1443
sg1337
I9
sg1334
I9
sg1335
g1382
sVX
I2
sg1331
I0
sg1339
g1351
sg1341
I0
sg1343
g1429
stRp2007
ag1
(g1562
g1509
(dp2008
g1326
g1425
sVY
I6
sg1328
I2
sg1329
g1426
sg1337
I6
sg1334
I6
sg1335
g1353
sVX
I8
sg1331
I0
sg1339
g1332
sg1341
I0
sg1343
g1429
stRp2009
ag1
(g1562
g1509
(dp2010
g1326
g1491
sVY
I4
sg1328
I3
sg1329
g1492
sg1337
I6
sg1334
I6
sg1335
g1340
sVX
I6
sg1331
g1355
sg1339
g1364
sg1341
I0
sg1343
g1478
stRp2011
ag1
(g1562
g1509
(dp2012
g1326
g1474
sVY
I9
sg1328
I3
sg1329
g1475
sg1337
I7
sg1334
I7
sg1335
g1342
sVX
I9
sg1331
g1340
sg1339
g1353
sg1341
I0
sg1343
g1478
stRp2013
ag1
(g1562
g1509
(dp2014
g1326
g1450
sVY
I4
sg1328
I3
sg1329
g1451
sg1337
I8
sg1334
I8
sg1335
g1382
sVX
I3
sg1331
g1374
sg1339
g1342
sg1341
I0
sg1343
g1393
stRp2015
ag1
(g1562
g1509
(dp2016
g1326
g1389
sVY
I2
sg1328
I3
sg1329
g1390
sg1337
I2
sg1334
I2
sg1335
g1336
sVX
I4
sg1331
g1355
sg1339
g1351
sg1341
I0
sg1343
g1393
stRp2017
ag1
(g1562
g1509
(dp2018
g1326
g1434
sVY
I2
sg1328
I3
sg1329
g1435
sg1337
I1
sg1334
I1
sg1335
g1355
sVX
I8
sg1331
g1336
sg1339
g1340
sg1341
I0
sg1343
g1420
stRp2019
ag1
(g1562
g1509
(dp2020
g1326
g1416
sVY
I3
sg1328
I3
sg1329
g1417
sg1337
I9
sg1334
I9
sg1335
g1355
sVX
I2
sg1331
g1382
sg1339
g1332
sg1341
I0
sg1343
g1420
stRp2021
ag1
(g1562
g1509
(dp2022
g1326
g1483
sVY
I3
sg1328
I4
sg1329
g1484
sg1337
I1
sg1334
I1
sg1335
g1340
sVX
I6
sg1331
g1374
sg1339
g1336
sg1341
g1342
sg1343
g1411
stRp2023
ag1
(g1562
g1509
(dp2024
g1326
g1407
sVY
I2
sg1328
I4
sg1329
g1408
sg1337
I2
sg1334
I2
sg1335
g1340
sVX
I3
sg1331
g1374
sg1339
g1382
sg1341
g1342
sg1343
g1411
stRp2025
ag1
(g1562
g1509
(dp2026
g1326
g1327
sVY
I9
sg1328
I4
sg1329
g1330
sg1337
I1
sg1334
I1
sg1335
g1336
sVX
I3
sg1331
g1332
sg1339
g1340
sg1341
g1342
sg1343
g1344
stRp2027
ag1
(g1562
g1509
(dp2028
g1326
g1349
sVY
I3
sg1328
I4
sg1329
g1350
sg1337
I3
sg1334
I3
sg1335
g1353
sVX
I6
sg1331
g1351
sg1339
g1332
sg1341
g1355
sg1343
g1344
stRp2029
ag1
(g1562
g1509
(dp2030
g1326
g1380
sVY
I2
sg1328
I4
sg1329
g1381
sg1337
I7
sg1334
I7
sg1335
g1355
sVX
I2
sg1331
g1382
sg1339
g1351
sg1341
g1332
sg1343
g1375
stRp2031
ag1
(g1562
g1509
(dp2032
g1326
g1370
sVY
I2
sg1328
I4
sg1329
g1371
sg1337
I1
sg1334
I1
sg1335
g1351
sVX
I8
sg1331
g1353
sg1339
g1374
sg1341
g1355
sg1343
g1375
stRp2033
ag1
(g1562
g1509
(dp2034
g1326
g1458
sVY
I2
sg1328
I4
sg1329
g1459
sg1337
I5
sg1334
I5
sg1335
g1355
sVX
I2
sg1331
g1332
sg1339
g1340
sg1341
g1364
sg1343
g1365
stRp2035
ag1
(g1562
g1509
(dp2036
g1326
g1360
sVY
I2
sg1328
I4
sg1329
g1361
sg1337
I7
sg1334
I7
sg1335
g1332
sVX
I2
sg1331
g1355
sg1339
g1351
sg1341
g1364
sg1343
g1365
stRp2037
asg1575
Nsg1576
I4
sg1577
I18
sg1578
I0
sg1579
I18
sg1580
I01
sbasS'savePickle'
p2038
I00
sb.