ccopy_reg
_reconstructor
p1
(cpsychopy.data
ExperimentHandler
p2
c__builtin__
object
p3
NtRp4
(dp5
S'originPath'
p6
NsS'dataFileName'
p7
VC:\u005cUsers\u005cexperimenter\u005cDesktop\u005cExperiments\u005cKRITL\u005cdata/31051_KRITL_2017_May_12_0918
p8
sS'runtimeInfo'
p9
NsS'name'
p10
S'KRITL'
p11
sS'dataNames'
p12
(lp13
S'practice_encoding.keys'
p14
aS'practice_encoding.rt'
p15
aS'practice_execution.keys'
p16
aS'practice_execution.corr'
p17
aS'practice_execution.rt'
p18
aS'encoding.keys'
p19
aS'encoding.rt'
p20
aS'execution.keys'
p21
aS'execution.corr'
p22
aS'execution.rt'
p23
asS'autoLog'
p24
I01
sS'extraInfo'
p25
(dp26
S'date'
p27
V2017_May_12_0918
p28
sS'frameRate'
p29
cnumpy.core.multiarray
scalar
p30
(cnumpy
dtype
p31
(S'f8'
I0
I1
tRp32
(I3
S'<'
NNNI-1
I-1
I0
tbS'\xb3\x9a$\xff\xcb\xddq@'
tRp33
sS'expName'
p34
g11
sVsession
p35
V002
p36
sVparticipant
p37
V31051
p38
ssS'loopsUnfinished'
p39
(lp40
sS'saveWideText'
p41
I00
sS'thisEntry'
p42
(dp43
sS'version'
p44
S''
sS'_paramNamesSoFar'
p45
(lp46
Voperationc
p47
aVoperationb
p48
aVoperationa
p49
aVcorrectresponse
p50
aVvaluey
p51
aVoperationd
p52
aVcondition
p53
aVvaluex
p54
aVRule
p55
aVOperatora
p56
aVLength
p57
aVIntermediate
p58
aVCorrectResponse
p59
aVResult
p60
aVY
aVX
aVOperatorc
p61
aVOperatorb
p62
aVOperatord
p63
aVStructure
p64
asS'entries'
p65
(lp66
(dp67
g18
F2.6773330496216659
sg29
g33
sg17
I1
sg47
L0L
sg48
VADD
p68
sg49
Vhalf
p69
sg35
g36
sg50
L7L
sS'practice_trials.thisTrialN'
p70
I0
sg52
L0L
sS'practice_trials.thisRepN'
p71
I0
sg37
g38
sg53
L2L
sg27
g28
sg16
S'7'
sg14
(lp72
S'space'
p73
asS'practice_trials.thisIndex'
p74
I2
sS'practice_trials.thisN'
p75
I0
sg34
g11
sg15
(lp76
F2.9673380226013251
asg51
L5L
sg54
L4L
sa(dp77
g18
F10.10331025798223
sg29
g33
sg17
I1
sg47
g68
sg48
Vtriple 
p78
sg49
g69
sg35
g36
sg50
L8L
sS'practice_trials.thisTrialN'
p79
I1
sg52
L0L
sS'practice_trials.thisRepN'
p80
I0
sg37
g38
sg53
L3L
sg27
g28
sg16
S'8'
sg14
(lp81
S'space'
p82
asS'practice_trials.thisIndex'
p83
I3
sS'practice_trials.thisN'
p84
I1
sg34
g11
sg15
(lp85
F5.4502141943958122
asg51
L2L
sg54
L4L
sa(dp86
g18
F11.649735726008657
sg29
g33
sg17
I0
sg47
Vincrease
p87
sg48
VDIVIDE
p88
sg49
Vdouble
p89
sg35
g36
sg50
L9L
sS'practice_trials.thisTrialN'
p90
I2
sg52
Vtriple
p91
sS'practice_trials.thisRepN'
p92
I0
sg37
g38
sg53
L4L
sg27
g28
sg16
S'6'
sg14
(lp93
S'space'
p94
asS'practice_trials.thisIndex'
p95
I5
sS'practice_trials.thisN'
p96
I2
sg34
g11
sg15
(lp97
F15.416950281913159
asg51
L8L
sg54
L8L
sa(dp98
g18
F1.8624438354163431
sg29
g33
sg17
I1
sg47
L0L
sg48
g68
sg49
Vdecrease
p99
sg35
g36
sg50
L7L
sS'practice_trials.thisTrialN'
p100
I3
sg52
L0L
sS'practice_trials.thisRepN'
p101
I0
sg37
g38
sg53
L2L
sg27
g28
sg16
S'7'
sg14
(lp102
S'space'
p103
asS'practice_trials.thisIndex'
p104
I0
sS'practice_trials.thisN'
p105
I3
sg34
g11
sg15
(lp106
F6.9065852747880854
asg51
L5L
sg54
L3L
sa(dp107
g18
F4.9021082076069433
sg29
g33
sg17
I1
sg47
g87
sg48
g88
sg49
g91
sg35
g36
sg50
L3L
sS'practice_trials.thisTrialN'
p108
I4
sg52
L0L
sS'practice_trials.thisRepN'
p109
I0
sg37
g38
sg53
L3L
sg27
g28
sg16
S'3'
sg14
(lp110
S'space'
p111
asS'practice_trials.thisIndex'
p112
I4
sS'practice_trials.thisN'
p113
I4
sg34
g11
sg15
(lp114
F5.49573063547723
asg51
L3L
sg54
L2L
sa(dp115
g18
F2.5680069404479582
sg29
g33
sg17
I1
sg47
L0L
sg48
g99
sg49
VTIMES
p116
sg35
g36
sg50
L8L
sS'practice_trials.thisTrialN'
p117
I5
sg52
L0L
sS'practice_trials.thisRepN'
p118
I0
sg37
g38
sg53
L2L
sg27
g28
sg16
S'8'
sg14
(lp119
S'space'
p120
asS'practice_trials.thisIndex'
p121
I1
sS'practice_trials.thisN'
p122
I5
sg34
g11
sg15
(lp123
F2.8121269620896783
asg51
L3L
sg54
L3L
sa(dp124
S'block.thisTrialN'
p125
I0
sS'block.thisRepN'
p126
I0
sg29
g33
sS'block.thisN'
p127
I0
sg55
(S'DOUBLE'
S'TRIPLE'
S'DIVIDE'
S'DECREASE'
S'x'
S'y'
tp128
sg27
g28
sg57
L4L
sg58
(I8
I1
I3
I6
tp129
sg22
I1
sg20
F14.236110785452183
sg23
F6.1205640971602406
sVY
L8L
sVX
L9L
sg61
VDIVIDE
p130
sg35
g36
sg37
g38
sg21
S'6'
sg19
S'space'
p131
sg34
g11
sg60
L6L
sg56
Vtriple
p132
sg59
L6L
sS'block.thisIndex'
p133
I15
sg62
Vdouble
p134
sg63
Vdecrease
p135
sg64
VUUBUxy
p136
sa(dp137
S'block.thisTrialN'
p138
I1
sS'block.thisRepN'
p139
I0
sg29
g33
sS'block.thisN'
p140
I1
sg55
(S'ADD'
S'DOUBLE'
S'x'
S'y'
tp141
sg27
g28
sg57
L2L
sg58
(I4
I8
tp142
sg22
I1
sg20
F4.5442462530336343
sg23
F1.7321297898015473
sVY
L4L
sVX
L2L
sg61
L0L
sg35
g36
sg37
g38
sg21
S'8'
sg19
S'space'
p143
sg34
g11
sg60
L8L
sg56
g134
sg59
L8L
sS'block.thisIndex'
p144
I0
sg62
VADD
p145
sg63
L0L
sg64
VBUxy
p146
sa(dp147
S'block.thisTrialN'
p148
I2
sS'block.thisRepN'
p149
I0
sg29
g33
sS'block.thisN'
p150
I2
sg55
(S'ADD'
S'THIRD'
S'INCREASE'
S'HALF'
S'x'
S'y'
tp151
sg27
g28
sg57
L4L
sg58
(I2
I3
I1
I7
tp152
sg22
I1
sg20
F8.498610124894185
sg23
F3.910854814312188
sVY
L6L
sVX
L4L
sg61
Vincrease
p153
sg35
g36
sg37
g38
sg21
S'7'
sg19
S'space'
p154
sg34
g11
sg60
L7L
sg56
Vthird
p155
sg59
L7L
sS'block.thisIndex'
p156
I10
sg62
g145
sg63
Vhalf
p157
sg64
VBUUUxy
p158
sa(dp159
S'block.thisTrialN'
p160
I3
sS'block.thisRepN'
p161
I0
sg29
g33
sS'block.thisN'
p162
I3
sg55
(S'DOUBLE'
S'DECREASE'
S'SUBTRACT'
S'x'
S'y'
tp163
sg27
g28
sg57
L3L
sg58
(I5
I4
I8
tp164
sg22
I0
sg20
F6.1666285790852271
sg23
F18.038607836118899
sVY
L2L
sVX
L7L
sg61
VSUBTRACT
p165
sg35
g36
sg37
g38
sg21
S'2'
sg19
S'space'
p166
sg34
g11
sg60
L8L
sg56
g135
sg59
L8L
sS'block.thisIndex'
p167
I8
sg62
g134
sg63
L0L
sg64
VUUBxy
p168
sa(dp169
S'block.thisTrialN'
p170
I4
sS'block.thisRepN'
p171
I0
sg29
g33
sS'block.thisN'
p172
I4
sg55
(S'INCREASE'
S'DIVIDE'
S'THIRD'
S'x'
S'y'
tp173
sg27
g28
sg57
L3L
sg58
(I3
I1
I2
tp174
sg22
I1
sg20
F6.0516897752531804
sg23
F4.6948388616438024
sVY
L3L
sVX
L9L
sg61
g155
sg35
g36
sg37
g38
sg21
S'2'
sg19
S'space'
p175
sg34
g11
sg60
L2L
sg56
g130
sg59
L2L
sS'block.thisIndex'
p176
I7
sg62
g153
sg63
L0L
sg64
VUBUxy
p177
sa(dp178
S'block.thisTrialN'
p179
I5
sS'block.thisRepN'
p180
I0
sg29
g33
sS'block.thisN'
p181
I5
sg55
(S'DIVIDE'
S'INCREASE'
S'DOUBLE'
S'THIRD'
S'x'
S'y'
tp182
sg27
g28
sg57
L4L
sg58
(I2
I4
I5
I1
tp183
sg22
I0
sVY
L5L
sVX
L6L
sg61
g134
sg35
g36
sg37
g38
sg21
Nsg19
Nsg34
g11
sg60
L1L
sg56
g153
sg59
L1L
sS'block.thisIndex'
p184
I11
sg62
g130
sg63
g155
sg64
g158
sa(dp185
S'block.thisTrialN'
p186
I6
sS'block.thisRepN'
p187
I0
sg29
g33
sS'block.thisN'
p188
I6
sg55
(S'DIVIDE'
S'DOUBLE'
S'THIRD'
S'x'
S'y'
tp189
sg27
g28
sg57
L3L
sg58
(I2
I4
I1
tp190
sg22
I1
sg20
F4.2382955998473335
sg23
F5.4492675465007778
sVY
L4L
sVX
L6L
sg61
g155
sg35
g36
sg37
g38
sg21
S'1'
sg19
S'space'
p191
sg34
g11
sg60
L1L
sg56
g134
sg59
L1L
sS'block.thisIndex'
p192
I4
sg62
g130
sg63
L0L
sg64
VBUUxy
p193
sa(dp194
S'block.thisTrialN'
p195
I7
sS'block.thisRepN'
p196
I0
sg29
g33
sS'block.thisN'
p197
I7
sg55
(S'HALF'
S'SUBTRACT'
S'TRIPLE'
S'x'
S'y'
tp198
sg27
g28
sg57
L3L
sg58
(I9
I2
I1
tp199
sg22
I0
sg20
F6.0521373769734055
sg23
F12.726405457156943
sVY
L7L
sVX
L3L
sg61
g132
sg35
g36
sg37
g38
sg21
S'3'
sg19
S'space'
p200
sg34
g11
sg60
L1L
sg56
g165
sg59
L1L
sS'block.thisIndex'
p201
I6
sg62
g157
sg63
L0L
sg64
g177
sa(dp202
S'block.thisTrialN'
p203
I8
sS'block.thisRepN'
p204
I0
sg29
g33
sS'block.thisN'
p205
I8
sg55
(S'DECREASE'
S'HALF'
S'TRIPLE'
S'DIVIDE'
S'x'
S'y'
tp206
sg27
g28
sg57
L4L
sg58
(I4
I12
I6
I5
tp207
sg22
I1
sg20
F12.513564012129791
sg23
F5.2200769147020765
sVY
L2L
sVX
L8L
sg61
g132
sg35
g36
sg37
g38
sg21
S'5'
sg19
S'space'
p208
sg34
g11
sg60
L5L
sg56
g157
sg59
L5L
sS'block.thisIndex'
p209
I16
sg62
g135
sg63
g130
sg64
VUUUBxy
p210
sa(dp211
S'block.thisTrialN'
p212
I9
sS'block.thisRepN'
p213
I0
sg29
g33
sS'block.thisN'
p214
I9
sg55
(S'DECREASE'
S'TIMES'
S'DOUBLE'
S'THIRD'
S'x'
S'y'
tp215
sg27
g28
sg57
L4L
sg58
(I1
I2
I8
I7
tp216
sg22
I1
sg20
F10.611711976875085
sg23
F6.421441347541986
sVY
L4L
sVX
L3L
sg61
g134
sg35
g36
sg37
g38
sg21
S'7'
sg19
S'space'
p217
sg34
g11
sg60
L7L
sg56
VTIMES
p218
sg59
L7L
sS'block.thisIndex'
p219
I13
sg62
g135
sg63
g155
sg64
VUBUUxy
p220
sa(dp221
S'block.thisTrialN'
p222
I10
sS'block.thisRepN'
p223
I0
sg29
g33
sS'block.thisN'
p224
I10
sg55
(S'SUBTRACT'
S'HALF'
S'TRIPLE'
S'x'
S'y'
tp225
sg27
g28
sg57
L3L
sg58
(I12
I6
I2
tp226
sg22
I1
sg20
F4.1337639735429548
sg23
F3.8132275934040081
sVY
L4L
sVX
L4L
sg61
g132
sg35
g36
sg37
g38
sg21
S'2'
sg19
S'space'
p227
sg34
g11
sg60
L2L
sg56
g157
sg59
L2L
sS'block.thisIndex'
p228
I5
sg62
g165
sg63
L0L
sg64
g193
sa(dp229
S'block.thisTrialN'
p230
I11
sS'block.thisRepN'
p231
I0
sg29
g33
sS'block.thisN'
p232
I11
sg55
(S'DIVIDE'
S'DOUBLE'
S'x'
S'y'
tp233
sg27
g28
sg57
L2L
sg58
(I12
I2
tp234
sg22
I1
sg20
F2.5338464246888179
sg23
F2.040752404864179
sVY
L6L
sVX
L6L
sg61
L0L
sg35
g36
sg37
g38
sg21
S'2'
sg19
S'space'
p235
sg34
g11
sg60
L2L
sg56
g134
sg59
L2L
sS'block.thisIndex'
p236
I1
sg62
g130
sg63
L0L
sg64
g146
sa(dp237
S'block.thisTrialN'
p238
I12
sS'block.thisRepN'
p239
I0
sg29
g33
sS'block.thisN'
p240
I12
sg55
(S'HALF'
S'TIMES'
S'x'
S'y'
tp241
sg27
g28
sg57
L2L
sg58
(I16
I8
tp242
sg22
I0
sg20
F1.4589580013707746
sg23
F9.6687873213086277
sVY
L4L
sVX
L4L
sg61
L0L
sg35
g36
sg37
g38
sg21
S'6'
sg19
S'space'
p243
sg34
g11
sg60
L8L
sg56
g218
sg59
L8L
sS'block.thisIndex'
p244
I3
sg62
g157
sg63
L0L
sg64
VUBxy
p245
sa(dp246
S'block.thisTrialN'
p247
I13
sS'block.thisRepN'
p248
I0
sg29
g33
sS'block.thisN'
p249
I13
sg55
(S'DECREASE'
S'ADD'
S'DOUBLE'
S'THIRD'
S'x'
S'y'
tp250
sg27
g28
sg57
L4L
sg58
(I3
I6
I10
I9
tp251
sg22
I1
sg20
F10.129733458248666
sg23
F8.7896040912019089
sVY
L4L
sVX
L9L
sg61
g134
sg35
g36
sg37
g38
sg21
S'9'
sg19
S'space'
p252
sg34
g11
sg60
L9L
sg56
g145
sg59
L9L
sS'block.thisIndex'
p253
I12
sg62
Vdecrease 
p254
sg63
g155
sg64
g220
sa(dp255
S'block.thisTrialN'
p256
I14
sS'block.thisRepN'
p257
I0
sg29
g33
sS'block.thisN'
p258
I14
sg55
(S'DOUBLE'
S'TRIPLE'
S'SUBTRACT'
S'x'
S'y'
tp259
sg27
g28
sg57
L3L
sg58
(I1
I3
I6
tp260
sg22
I1
sg20
F3.4009825540415477
sg23
F5.6525459229305852
sVY
L3L
sVX
L4L
sg61
g165
sg35
g36
sg37
g38
sg21
S'6'
sg19
S'space'
p261
sg34
g11
sg60
L6L
sg56
g132
sg59
L6L
sS'block.thisIndex'
p262
I9
sg62
g134
sg63
L0L
sg64
g168
sa(dp263
S'block.thisTrialN'
p264
I15
sS'block.thisRepN'
p265
I0
sg29
g33
sS'block.thisN'
p266
I15
sg55
(S'DOUBLE'
S'DECREASE'
S'TRIPLE'
S'DIVIDE'
S'x'
S'y'
tp267
sg27
g28
sg57
L4L
sg58
(I1
I3
I2
I4
tp268
sg22
I1
sg20
F10.994453798164614
sg23
F9.6878259679651819
sVY
L4L
sVX
L4L
sg61
g132
sg35
g36
sg37
g38
sg21
S'4'
sg19
S'space'
p269
sg34
g11
sg60
L4L
sg56
g135
sg59
L4L
sS'block.thisIndex'
p270
I17
sg62
g134
sg63
g130
sg64
g210
sa(dp271
S'block.thisTrialN'
p272
I16
sS'block.thisRepN'
p273
I0
sg29
g33
sS'block.thisN'
p274
I16
sg55
(S'DOUBLE'
S'SUBTRACT'
S'x'
S'y'
tp275
sg27
g28
sg57
L2L
sg58
(I1
I2
tp276
sg22
I1
sg20
F1.424911573267309
sg23
F1.8479483987612184
sVY
L7L
sVX
L8L
sg61
L0L
sg35
g36
sg37
g38
sg21
S'2'
sg19
S'space'
p277
sg34
g11
sg60
L2L
sg56
g165
sg59
L2L
sS'block.thisIndex'
p278
I2
sg62
g134
sg63
L0L
sg64
g245
sa(dp279
S'block.thisTrialN'
p280
I17
sS'block.thisRepN'
p281
I0
sg29
g33
sS'block.thisN'
p282
I17
sg55
(S'DECREASE'
S'THIRD'
S'TIMES'
S'HALF'
S'x'
S'y'
tp283
sg27
g28
sg57
L4L
sg58
(I2
I12
I4
I3
tp284
sg22
I1
sg20
F10.180424441234209
sg23
F7.0483927808236331
sVY
L6L
sVX
L4L
sg61
g218
sg35
g36
sg37
g38
sg21
S'3'
sg19
S'space'
p285
sg34
g11
sg60
L3L
sg56
g155
sg59
L3L
sS'block.thisIndex'
p286
I14
sg62
g135
sg63
g157
sg64
g136
sa(dp287
S'block.thisTrialN'
p288
I0
sS'block.thisRepN'
p289
I0
sg29
g33
sS'block.thisN'
p290
I0
sVRule
p291
(S'DIVIDE'
S'DOUBLE'
S'INCREASE'
S'THIRD'
S'x'
S'y'
tp292
sg27
g28
sVLength
p293
L4L
sVIntermediate
p294
(I2
I3
I6
I2
tp295
sg22
I0
sg20
F11.825797537720064
sg23
F16.771897750819335
sVY
L3L
sVX
L6L
sVOperatorc
p296
Vincrease
p297
sg35
g36
sg37
g38
sg21
S'7'
sg19
S'space'
p298
sg34
g11
sVResult
p299
L2L
sVOperatora
p300
Vdouble
p301
sVCorrectResponse
p302
L2L
sS'block.thisIndex'
p303
I10
sVOperatorb
p304
VDIVIDE
p305
sVOperatord
p306
Vthird
p307
sVStructure
p308
VBUUUxy
p309
sa(dp310
S'block.thisTrialN'
p311
I1
sS'block.thisRepN'
p312
I0
sg29
g33
sS'block.thisN'
p313
I1
sg291
(S'DOUBLE'
S'TIMES'
S'x'
S'y'
tp314
sg27
g28
sg293
L2L
sg294
(I4
I8
tp315
sg22
I1
sg20
F1.2538874682504684
sg23
F2.3111647408804856
sVY
L2L
sVX
L2L
sg296
L0L
sg35
g36
sg37
g38
sg21
S'8'
sg19
S'space'
p316
sg34
g11
sg299
L8L
sg300
VTIMES
p317
sg302
L8L
sS'block.thisIndex'
p318
I3
sg304
g301
sg306
L0L
sg308
VUBxy
p319
sa(dp320
S'block.thisTrialN'
p321
I2
sS'block.thisRepN'
p322
I0
sg29
g33
sS'block.thisN'
p323
I2
sg291
(S'THIRD'
S'TIMES'
S'HALF'
S'INCREASE'
S'x'
S'y'
tp324
sg27
g28
sg293
L4L
sg294
(I8
I4
I12
I4
tp325
sg22
I0
sg20
F12.674371669010725
sg23
F11.319147029978922
sVY
L3L
sVX
L7L
sg296
Vhalf
p326
sg35
g36
sg37
g38
sg21
S'6'
sg19
S'space'
p327
sg34
g11
sg299
L4L
sg300
g317
sg302
L4L
sS'block.thisIndex'
p328
I13
sg304
g307
sg306
g297
sg308
VUBUUxy
p329
sa(dp330
S'block.thisTrialN'
p331
I3
sS'block.thisRepN'
p332
I0
sg29
g33
sS'block.thisN'
p333
I3
sg291
(S'INCREASE'
S'DIVIDE'
S'TRIPLE'
S'HALF'
S'x'
S'y'
tp334
sg27
g28
sg293
L4L
sg294
(I2
I6
I2
I3
tp335
sg22
I1
sg20
F12.209961255692178
sg23
F14.715196166100213
sVY
L3L
sVX
L4L
sg296
Vtriple
p336
sg35
g36
sg37
g38
sg21
S'3'
sg19
S'space'
p337
sg34
g11
sg299
L3L
sg300
g305
sg302
L3L
sS'block.thisIndex'
p338
I12
sg304
g297
sg306
g326
sg308
g329
sa(dp339
S'block.thisTrialN'
p340
I4
sS'block.thisRepN'
p341
I0
sg29
g33
sS'block.thisN'
p342
I4
sg291
(S'DIVIDE'
S'TRIPLE'
S'HALF'
S'x'
S'y'
tp343
sg27
g28
sg293
L3L
sg294
(I4
I12
I4
tp344
sg22
I1
sg20
F6.2092669305566233
sg23
F7.809790264145704
sVY
L3L
sVX
L8L
sg296
g326
sg35
g36
sg37
g38
sg21
S'4'
sg19
S'space'
p345
sg34
g11
sg299
L4L
sg300
g336
sg302
L4L
sS'block.thisIndex'
p346
I4
sg304
g305
sg306
L0L
sg308
VBUUxy
p347
sa(dp348
S'block.thisTrialN'
p349
I5
sS'block.thisRepN'
p350
I0
sg29
g33
sS'block.thisN'
p351
I5
sg291
(S'TRIPLE'
S'DOUBLE'
S'SUBTRACT'
S'DECREASE'
S'x'
S'y'
tp352
sg27
g28
sg293
L4L
sg294
(I4
I1
I2
I6
tp353
sg22
I1
sg20
F4.2115542838873807
sg23
F15.686783080425812
sVY
L3L
sVX
L5L
sg296
VSUBTRACT
p354
sg35
g36
sg37
g38
sg21
S'6'
sg19
S'space'
p355
sg34
g11
sg299
L6L
sg300
g301
sg302
L6L
sS'block.thisIndex'
p356
I15
sg304
g336
sg306
Vdecrease
p357
sg308
VUUBUxy
p358
sa(dp359
S'block.thisTrialN'
p360
I6
sS'block.thisRepN'
p361
I0
sg29
g33
sS'block.thisN'
p362
I6
sg291
(S'TRIPLE'
S'DECREASE'
S'HALF'
S'SUBTRACT'
S'x'
S'y'
tp363
sg27
g28
sg293
L4L
sg294
(I4
I2
I1
I3
tp364
sg22
I1
sg20
F4.8338239220902324
sg23
F5.0931302059034351
sVY
L5L
sVX
L9L
sg296
g326
sg35
g36
sg37
g38
sg21
S'3'
sg19
S'space'
p365
sg34
g11
sg299
L3L
sg300
g357
sg302
L3L
sS'block.thisIndex'
p366
I17
sg304
g336
sg306
g354
sg308
VUUUBxy
p367
sa(dp368
S'block.thisTrialN'
p369
I7
sS'block.thisRepN'
p370
I0
sg29
g33
sS'block.thisN'
p371
I7
sg291
(S'INCREASE'
S'ADD'
S'TRIPLE'
S'x'
S'y'
tp372
sg27
g28
sg293
L3L
sg294
(I6
I8
I9
tp373
sg22
I1
sg20
F4.5672510219737887
sg23
F3.811273754137801
sVY
L2L
sVX
L2L
sg296
g336
sg35
g36
sg37
g38
sg21
S'9'
sg19
S'space'
p374
sg34
g11
sg299
L9L
sg300
VADD
p375
sg302
L9L
sS'block.thisIndex'
p376
I6
sg304
g297
sg306
L0L
sg308
VUBUxy
p377
sa(dp378
S'block.thisTrialN'
p379
I8
sS'block.thisRepN'
p380
I0
sg29
g33
sS'block.thisN'
p381
I8
sg291
(S'SUBTRACT'
S'INCREASE'
S'x'
S'y'
tp382
sg27
g28
sg293
L2L
sg294
(I6
I2
tp383
sg22
I1
sg20
F1.5062725484895054
sg23
F6.6795511104282923
sVY
L4L
sVX
L5L
sg296
L0L
sg35
g36
sg37
g38
sg21
S'2'
sg19
S'space'
p384
sg34
g11
sg299
L2L
sg300
g297
sg302
L2L
sS'block.thisIndex'
p385
I1
sg304
g354
sg306
L0L
sg308
VBUxy
p386
sa(dp387
S'block.thisTrialN'
p388
I9
sS'block.thisRepN'
p389
I0
sg29
g33
sS'block.thisN'
p390
I9
sg291
(S'DOUBLE'
S'ADD'
S'x'
S'y'
tp391
sg27
g28
sg293
L2L
sg294
(I4
I8
tp392
sg22
I1
sg20
F1.170082006661687
sg23
F2.0432696833449882
sVY
L2L
sVX
L2L
sg296
L0L
sg35
g36
sg37
g38
sg21
S'8'
sg19
S'space'
p393
sg34
g11
sg299
L8L
sg300
g375
sg302
L8L
sS'block.thisIndex'
p394
I2
sg304
g301
sg306
L0L
sg308
g319
sa(dp395
S'block.thisTrialN'
p396
I10
sS'block.thisRepN'
p397
I0
sg29
g33
sS'block.thisN'
p398
I10
sg291
(S'DECREASE'
S'TRIPLE'
S'DIVIDE'
S'x'
S'y'
tp399
sg27
g28
sg293
L3L
sg294
(I2
I6
I5
tp400
sg22
I1
sg20
F1.4737012113328092
sg23
F11.76336987054674
sVY
L4L
sVX
L8L
sg296
g305
sg35
g36
sg37
g38
sg21
S'5'
sg19
S'space'
p401
sg34
g11
sg299
L5L
sg300
g336
sg302
L5L
sS'block.thisIndex'
p402
I8
sg304
g357
sg306
L0L
sg308
VUUBxy
p403
sa(dp404
S'block.thisTrialN'
p405
I11
sS'block.thisRepN'
p406
I0
sg29
g33
sS'block.thisN'
p407
I11
sg291
(S'THIRD'
S'INCREASE'
S'SUBTRACT'
S'x'
S'y'
tp408
sg27
g28
sg293
L3L
sg294
(I2
I3
I1
tp409
sg22
I1
sg20
F2.8821946552779991
sg23
F7.5624764869280625
sVY
L6L
sVX
L8L
sg296
g354
sg35
g36
sg37
g38
sg21
S'1'
sg19
S'space'
p410
sg34
g11
sg299
L1L
sg300
g297
sg302
L1L
sS'block.thisIndex'
p411
I9
sg304
g307
sg306
L0L
sg308
g403
sa(dp412
S'block.thisTrialN'
p413
I12
sS'block.thisRepN'
p414
I0
sg29
g33
sS'block.thisN'
p415
I12
sg291
(S'INCREASE'
S'SUBTRACT'
S'THIRD'
S'x'
S'y'
tp416
sg27
g28
sg293
L3L
sg294
(I3
I1
I2
tp417
sg22
I1
sg20
F3.4574965589854401
sg23
F3.911712571803946
sVY
L2L
sVX
L9L
sg296
g307
sg35
g36
sg37
g38
sg21
S'2'
sg19
S'space'
p418
sg34
g11
sg299
L2L
sg300
g354
sg302
L2L
sS'block.thisIndex'
p419
I7
sg304
g297
sg306
L0L
sg308
g377
sa(dp420
S'block.thisTrialN'
p421
I13
sS'block.thisRepN'
p422
I0
sg29
g33
sS'block.thisN'
p423
I13
sg291
(S'TIMES'
S'THIRD'
S'DOUBLE'
S'x'
S'y'
tp424
sg27
g28
sg293
L3L
sg294
(I6
I2
I4
tp425
sg22
I1
sg20
F5.4749355282110628
sg23
F4.1371015635959338
sVY
L2L
sVX
L3L
sg296
g301
sg35
g36
sg37
g38
sg21
S'4'
sg19
S'space'
p426
sg34
g11
sg299
L4L
sg300
g307
sg302
L4L
sS'block.thisIndex'
p427
I5
sg304
g317
sg306
L0L
sg308
g347
sa(dp428
S'block.thisTrialN'
p429
I14
sS'block.thisRepN'
p430
I0
sg29
g33
sS'block.thisN'
p431
I14
sg291
(S'DECREASE'
S'TRIPLE'
S'HALF'
S'ADD'
S'x'
S'y'
tp432
sg27
g28
sg293
L4L
sg294
(I6
I3
I9
I8
tp433
sg22
I1
sg20
F10.789700330817141
sg23
F8.179349007201381
sVY
L2L
sVX
L4L
sg296
g326
sg35
g36
sg37
g38
sg21
S'8'
sg19
S'space'
p434
sg34
g11
sg299
L8L
sg300
g336
sg302
L8L
sS'block.thisIndex'
p435
I16
sg304
g357
sg306
g375
sg308
g367
sa(dp436
S'block.thisTrialN'
p437
I15
sS'block.thisRepN'
p438
I0
sg29
g33
sS'block.thisN'
p439
I15
sg291
(S'THIRD'
S'INCREASE'
S'ADD'
S'DOUBLE'
S'x'
S'y'
tp440
sg27
g28
sg293
L4L
sg294
(I16
I20
I21
I7
tp441
sg22
I0
sg20
F8.8093262141919695
sg23
F16.754501477029407
sVY
L4L
sVX
L8L
sg296
g375
sg35
g36
sg37
g38
sg21
S'9'
sg19
S'space'
p442
sg34
g11
sg299
L7L
sg300
g297
sg302
L7L
sS'block.thisIndex'
p443
I14
sg304
g307
sg306
g301
sg308
g358
sa(dp444
S'block.thisTrialN'
p445
I16
sS'block.thisRepN'
p446
I0
sg29
g33
sS'block.thisN'
p447
I16
sg291
(S'TIMES'
S'INCREASE'
S'HALF'
S'TRIPLE'
S'x'
S'y'
tp448
sg27
g28
sg293
L4L
sg294
(I6
I3
I4
I8
tp449
sg22
I0
sg20
F7.4102446550969034
sg23
F9.5077098434849177
sVY
L2L
sVX
L2L
sg296
g326
sg35
g36
sg37
g38
sg21
S'6'
sg19
S'space'
p450
sg34
g11
sg299
L8L
sg300
g297
sg302
L8L
sS'block.thisIndex'
p451
I11
sg304
g317
sg306
g336
sg308
g309
sa(dp452
S'block.thisTrialN'
p453
I17
sS'block.thisRepN'
p454
I0
sg29
g33
sS'block.thisN'
p455
I17
sg291
(S'ADD'
S'THIRD'
S'x'
S'y'
tp456
sg27
g28
sg293
L2L
sg294
(I1
I7
tp457
sg22
I1
sg20
F2.3379088565416168
sg23
F2.6681766371475533
sVY
L6L
sVX
L3L
sg296
L0L
sg35
g36
sg37
g38
sg21
S'7'
sg19
S'space'
p458
sg34
g11
sg299
L7L
sg300
g307
sg302
L7L
sS'block.thisIndex'
p459
I0
sg304
g375
sg306
L0L
sg308
g386
sa(dp460
S'block.thisTrialN'
p461
I0
sS'block.thisRepN'
p462
I0
sg29
g33
sS'block.thisN'
p463
I0
sVRule
p464
(S'SUBTRACT'
S'HALF'
S'INCREASE'
S'TRIPLE'
S'x'
S'y'
tp465
sg27
g28
sVLength
p466
L4L
sVIntermediate
p467
(I15
I16
I8
I3
tp468
sg22
I1
sg20
F7.1024420016037766
sg23
F6.7084803903999273
sVY
L5L
sVX
L5L
sVOperatorc
p469
Vincrease
p470
sg35
g36
sg37
g38
sg21
S'3'
sg19
S'space'
p471
sg34
g11
sVResult
p472
L3L
sVOperatora
p473
Vhalf
p474
sVCorrectResponse
p475
L3L
sS'block.thisIndex'
p476
I10
sVOperatorb
p477
VSUBTRACT
p478
sVOperatord
p479
Vtriple
p480
sVStructure
p481
VBUUUxy
p482
sa(dp483
S'block.thisTrialN'
p484
I1
sS'block.thisRepN'
p485
I0
sg29
g33
sS'block.thisN'
p486
I1
sg464
(S'TRIPLE'
S'HALF'
S'ADD'
S'DECREASE'
S'x'
S'y'
tp487
sg27
g28
sg466
L4L
sg467
(I1
I4
I2
I6
tp488
sg22
I1
sg20
F7.7349907312600408
sg23
F5.2973048356652725
sVY
L3L
sVX
L2L
sg469
VADD
p489
sg35
g36
sg37
g38
sg21
S'6'
sg19
S'space'
p490
sg34
g11
sg472
L6L
sg473
g474
sg475
L6L
sS'block.thisIndex'
p491
I15
sg477
g480
sg479
Vdecrease
p492
sg481
VUUBUxy
p493
sa(dp494
S'block.thisTrialN'
p495
I2
sS'block.thisRepN'
p496
I0
sg29
g33
sS'block.thisN'
p497
I2
sg464
(S'TIMES'
S'DECREASE'
S'HALF'
S'x'
S'y'
tp498
sg27
g28
sg466
L3L
sg467
(I4
I3
I9
tp499
sg22
I0
sg20
F4.7884075702459086
sg23
F11.606733763765078
sVY
L3L
sVX
L8L
sg469
g474
sg35
g36
sg37
g38
sg21
S'5'
sg19
S'space'
p500
sg34
g11
sg472
L9L
sg473
g492
sg475
L9L
sS'block.thisIndex'
p501
I4
sg477
VTIMES
p502
sg479
L0L
sg481
VBUUxy
p503
sa(dp504
S'block.thisTrialN'
p505
I3
sS'block.thisRepN'
p506
I0
sg29
g33
sS'block.thisN'
p507
I3
sg464
(S'TIMES'
S'INCREASE'
S'x'
S'y'
tp508
sg27
g28
sg466
L2L
sg467
(I3
I6
tp509
sg22
I1
sg20
F2.0072659163561184
sg23
F2.0190291976905428
sVY
L2L
sVX
L2L
sg469
L0L
sg35
g36
sg37
g38
sg21
S'6'
sg19
S'space'
p510
sg34
g11
sg472
L6L
sg473
g470
sg475
L6L
sS'block.thisIndex'
p511
I1
sg477
g502
sg479
L0L
sg481
VBUxy
p512
sa(dp513
S'block.thisTrialN'
p514
I4
sS'block.thisRepN'
p515
I0
sg29
g33
sS'block.thisN'
p516
I4
sg464
(S'THIRD'
S'TIMES'
S'DECREASE'
S'x'
S'y'
tp517
sg27
g28
sg466
L3L
sg467
(I3
I15
I5
tp518
sg22
I1
sg20
F1.5743171098874882
sg23
F4.9473299804376438
sVY
L5L
sVX
L4L
sg469
g492
sg35
g36
sg37
g38
sg21
S'5'
sg19
S'space'
p519
sg34
g11
sg472
L5L
sg473
g502
sg475
L5L
sS'block.thisIndex'
p520
I7
sg477
Vthird
p521
sg479
L0L
sg481
VUBUxy
p522
sa(dp523
S'block.thisTrialN'
p524
I5
sS'block.thisRepN'
p525
I0
sg29
g33
sS'block.thisN'
p526
I5
sg464
(S'TIMES'
S'THIRD'
S'HALF'
S'x'
S'y'
tp527
sg27
g28
sg466
L3L
sg467
(I3
I1
I5
tp528
sg22
I1
sg20
F2.0362046453228686
sg23
F4.0403803949593566
sVY
L5L
sVX
L6L
sg469
g474
sg35
g36
sg37
g38
sg21
S'5'
sg19
S'space'
p529
sg34
g11
sg472
L5L
sg473
g521
sg475
L5L
sS'block.thisIndex'
p530
I5
sg477
g502
sg479
L0L
sg481
g503
sa(dp531
S'block.thisTrialN'
p532
I6
sS'block.thisRepN'
p533
I0
sg29
g33
sS'block.thisN'
p534
I6
sg464
(S'THIRD'
S'INCREASE'
S'HALF'
S'DIVIDE'
S'x'
S'y'
tp535
sg27
g28
sg466
L4L
sg467
(I4
I2
I3
I1
tp536
sg22
I1
sg20
F5.714598430582555
sg23
F3.3819617554254364
sVY
L2L
sVX
L8L
sg469
g474
sg35
g36
sg37
g38
sg21
S'1'
sg19
S'space'
p537
sg34
g11
sg472
L1L
sg473
g470
sg475
L1L
sS'block.thisIndex'
p538
I16
sg477
g521
sg479
VDIVIDE
p539
sg481
VUUUBxy
p540
sa(dp541
S'block.thisTrialN'
p542
I7
sS'block.thisRepN'
p543
I0
sg29
g33
sS'block.thisN'
p544
I7
sg464
(S'TIMES'
S'INCREASE'
S'THIRD'
S'DOUBLE'
S'x'
S'y'
tp545
sg27
g28
sg466
L4L
sg467
(I6
I2
I3
I9
tp546
sg22
I0
sg20
F10.679672197351465
sg23
F11.460131074854871
sVY
L3L
sVX
L3L
sg469
g521
sg35
g36
sg37
g38
sg21
S'3'
sg19
S'space'
p547
sg34
g11
sg472
L9L
sg473
g470
sg475
L9L
sS'block.thisIndex'
p548
I11
sg477
g502
sg479
Vdouble
p549
sg481
g482
sa(dp550
S'block.thisTrialN'
p551
I8
sS'block.thisRepN'
p552
I0
sg29
g33
sS'block.thisN'
p553
I8
sg464
(S'TRIPLE'
S'HALF'
S'DIVIDE'
S'x'
S'y'
tp554
sg27
g28
sg466
L3L
sg467
(I2
I1
I3
tp555
sg22
I1
sg20
F2.2629476410802454
sg23
F6.3225192663085181
sVY
L2L
sVX
L4L
sg469
g539
sg35
g36
sg37
g38
sg21
S'3'
sg19
S'space'
p556
sg34
g11
sg472
L3L
sg473
g474
sg475
L3L
sS'block.thisIndex'
p557
I9
sg477
g480
sg479
L0L
sg481
VUUBxy
p558
sa(dp559
S'block.thisTrialN'
p560
I9
sS'block.thisRepN'
p561
I0
sg29
g33
sS'block.thisN'
p562
I9
sg464
(S'TIMES'
S'DECREASE'
S'x'
S'y'
tp563
sg27
g28
sg466
L2L
sg467
(I2
I4
tp564
sg22
I1
sg20
F1.299449054436991
sg23
F2.773965677828528
sVY
L2L
sVX
L3L
sg469
L0L
sg35
g36
sg37
g38
sg21
S'4'
sg19
S'space'
p565
sg34
g11
sg472
L4L
sg473
g492
sg475
L4L
sS'block.thisIndex'
p566
I0
sg477
g502
sg479
L0L
sg481
g512
sa(dp567
S'block.thisTrialN'
p568
I10
sS'block.thisRepN'
p569
I0
sg29
g33
sS'block.thisN'
p570
I10
sg464
(S'TRIPLE'
S'DECREASE'
S'HALF'
S'TIMES'
S'x'
S'y'
tp571
sg27
g28
sg466
L4L
sg467
(I6
I3
I2
I6
tp572
sg22
I0
sg20
F3.5418297636788338
sg23
F7.0422663415956777
sVY
L2L
sVX
L3L
sg469
g474
sg35
g36
sg37
g38
sg21
S'3'
sg19
S'space'
p573
sg34
g11
sg472
L6L
sg473
g492
sg475
L6L
sS'block.thisIndex'
p574
I17
sg477
g480
sg479
g502
sg481
g540
sa(dp575
S'block.thisTrialN'
p576
I11
sS'block.thisRepN'
p577
I0
sg29
g33
sS'block.thisN'
p578
I11
sg464
(S'INCREASE'
S'DIVIDE'
S'TRIPLE'
S'DOUBLE'
S'x'
S'y'
tp579
sg27
g28
sg466
L4L
sg467
(I6
I18
I3
I4
tp580
sg22
I0
sg20
F8.6744374619156588
sg23
F18.067117861355655
sVY
L6L
sVX
L3L
sg469
g480
sg35
g36
sg37
g38
sg21
S'2'
sg19
S'space'
p581
sg34
g11
sg472
L4L
sg473
g539
sg475
L4L
sS'block.thisIndex'
p582
I12
sg477
g470
sg479
g549
sg481
VUBUUxy
p583
sa(dp584
S'block.thisTrialN'
p585
I12
sS'block.thisRepN'
p586
I0
sg29
g33
sS'block.thisN'
p587
I12
sg464
(S'THIRD'
S'ADD'
S'INCREASE'
S'x'
S'y'
tp588
sg27
g28
sg466
L3L
sg467
(I8
I15
I5
tp589
sg22
I1
sg20
F5.1095766821526922
sg23
F4.1486342198040802
sVY
L7L
sVX
L7L
sg469
g470
sg35
g36
sg37
g38
sg21
S'5'
sg19
S'space'
p590
sg34
g11
sg472
L5L
sg473
g489
sg475
L5L
sS'block.thisIndex'
p591
I6
sg477
g521
sg479
L0L
sg481
g522
sa(dp592
S'block.thisTrialN'
p593
I13
sS'block.thisRepN'
p594
I0
sg29
g33
sS'block.thisN'
p595
I13
sg464
(S'THIRD'
S'SUBTRACT'
S'x'
S'y'
tp596
sg27
g28
sg466
L2L
sg467
(I3
I1
tp597
sg22
I1
sg20
F1.8020074535161257
sg23
F2.5942705579218455
sVY
L2L
sVX
L5L
sg469
L0L
sg35
g36
sg37
g38
sg21
S'1'
sg19
S'space'
p598
sg34
g11
sg472
L1L
sg473
g478
sg475
L1L
sS'block.thisIndex'
p599
I3
sg477
g521
sg479
L0L
sg481
VUBxy
p600
sa(dp601
S'block.thisTrialN'
p602
I14
sS'block.thisRepN'
p603
I0
sg29
g33
sS'block.thisN'
p604
I14
sg464
(S'THIRD'
S'DECREASE'
S'TIMES'
S'x'
S'y'
tp605
sg27
g28
sg466
L3L
sg467
(I25
I24
I8
tp606
sg22
I1
sg20
F3.2844773191027343
sg23
F6.6667442416364793
sVY
L5L
sVX
L5L
sg469
g502
sg35
g36
sg37
g38
sg21
S'8'
sg19
S'space'
p607
sg34
g11
sg472
L8L
sg473
g492
sg475
L8L
sS'block.thisIndex'
p608
I8
sg477
g521
sg479
L0L
sg481
g558
sa(dp609
S'block.thisTrialN'
p610
I15
sS'block.thisRepN'
p611
I0
sg29
g33
sS'block.thisN'
p612
I15
sg464
(S'THIRD'
S'ADD'
S'x'
S'y'
tp613
sg27
g28
sg466
L2L
sg467
(I9
I3
tp614
sg22
I1
sg20
F2.4980869313003495
sg23
F2.5985897920909338
sVY
L5L
sVX
L4L
sg469
L0L
sg35
g36
sg37
g38
sg21
S'3'
sg19
S'space'
p615
sg34
g11
sg472
L3L
sg473
g489
sg475
L3L
sS'block.thisIndex'
p616
I2
sg477
g521
sg479
L0L
sg481
g600
sa(dp617
S'block.thisTrialN'
p618
I16
sS'block.thisRepN'
p619
I0
sg29
g33
sS'block.thisN'
p620
I16
sg464
(S'THIRD'
S'DOUBLE'
S'ADD'
S'INCREASE'
S'x'
S'y'
tp621
sg27
g28
sg466
L4L
sg467
(I10
I12
I24
I8
tp622
sg22
I0
sg20
F14.900891388853779
sg23
F6.8709864141128492
sVY
L2L
sVX
L9L
sg469
g489
sg35
g36
sg37
g38
sg21
S'4'
sg19
S'space'
p623
sg34
g11
sg472
L8L
sg473
g549
sg475
L8L
sS'block.thisIndex'
p624
I14
sg477
g521
sg479
g470
sg481
g493
sa(dp625
S'block.thisTrialN'
p626
I17
sS'block.thisRepN'
p627
I0
sg29
g33
sS'block.thisN'
p628
I17
sg464
(S'TRIPLE'
S'SUBTRACT'
S'DOUBLE'
S'DECREASE'
S'x'
S'y'
tp629
sg27
g28
sg466
L4L
sg467
(I2
I4
I1
I3
tp630
sg22
I1
sg20
F10.821043650415959
sg23
F6.4525109966925811
sVY
L3L
sVX
L3L
sg469
g549
sg35
g36
sg37
g38
sg21
S'3'
sg19
S'space'
p631
sg34
g11
sg472
L3L
sg473
g478
sg475
L3L
sS'block.thisIndex'
p632
I13
sg477
g480
sg479
g492
sg481
g583
sa(dp633
S'block.thisTrialN'
p634
I0
sS'block.thisRepN'
p635
I0
sg29
g33
sS'block.thisN'
p636
I0
sVRule
p637
(S'DOUBLE'
S'DECREASE'
S'ADD'
S'x'
S'y'
tp638
sg27
g28
sVLength
p639
L3L
sVIntermediate
p640
(I4
I3
I6
tp641
sg22
I1
sg20
F2.9549171621911228
sg23
F2.4202672241663095
sVY
L2L
sVX
L2L
sVOperatorc
p642
VADD
p643
sg35
g36
sg37
g38
sg21
S'6'
sg19
S'space'
p644
sg34
g11
sVResult
p645
L6L
sVOperatora
p646
Vdecrease
p647
sVCorrectResponse
p648
L6L
sS'block.thisIndex'
p649
I8
sVOperatorb
p650
Vdouble
p651
sVOperatord
p652
L0L
sVStructure
p653
VUUBxy
p654
sa(dp655
S'block.thisTrialN'
p656
I1
sS'block.thisRepN'
p657
I0
sg29
g33
sS'block.thisN'
p658
I1
sg637
(S'DECREASE'
S'TRIPLE'
S'DIVIDE'
S'DOUBLE'
S'x'
S'y'
tp659
sg27
g28
sg639
L4L
sg640
(I6
I2
I6
I5
tp660
sg22
I1
sg20
F8.9646461129304953
sg23
F6.4865591745765414
sVY
L3L
sVX
L3L
sg642
VDIVIDE
p661
sg35
g36
sg37
g38
sg21
S'5'
sg19
S'space'
p662
sg34
g11
sg645
L5L
sg646
Vtriple
p663
sg648
L5L
sS'block.thisIndex'
p664
I14
sg650
g647
sg652
g651
sg653
VUUBUxy
p665
sa(dp666
S'block.thisTrialN'
p667
I2
sS'block.thisRepN'
p668
I0
sg29
g33
sS'block.thisN'
p669
I2
sg637
(S'THIRD'
S'DIVIDE'
S'x'
S'y'
tp670
sg27
g28
sg639
L2L
sg640
(I3
I1
tp671
sg22
I1
sg20
F1.3621440927672666
sg23
F4.3598626888124272
sVY
L2L
sVX
L6L
sg642
L0L
sg35
g36
sg37
g38
sg21
S'1'
sg19
S'space'
p672
sg34
g11
sg645
L1L
sg646
g661
sg648
L1L
sS'block.thisIndex'
p673
I3
sg650
Vthird
p674
sg652
L0L
sg653
VUBxy
p675
sa(dp676
S'block.thisTrialN'
p677
I3
sS'block.thisRepN'
p678
I0
sg29
g33
sS'block.thisN'
p679
I3
sg637
(S'DIVIDE'
S'THIRD'
S'x'
S'y'
tp680
sg27
g28
sg639
L2L
sg640
(I3
I1
tp681
sg22
I1
sg20
F2.5046291257604025
sg23
F2.2763742930546869
sVY
L3L
sVX
L9L
sg642
L0L
sg35
g36
sg37
g38
sg21
S'1'
sg19
S'space'
p682
sg34
g11
sg645
L1L
sg646
g674
sg648
L1L
sS'block.thisIndex'
p683
I0
sg650
g661
sg652
L0L
sg653
VBUxy
p684
sa(dp685
S'block.thisTrialN'
p686
I4
sS'block.thisRepN'
p687
I0
sg29
g33
sS'block.thisN'
p688
I4
sg637
(S'THIRD'
S'DECREASE'
S'TIMES'
S'HALF'
S'x'
S'y'
tp689
sg27
g28
sg639
L4L
sg640
(I4
I16
I15
I5
tp690
sg22
I1
sg20
F6.0368037807347719
sg23
F7.8813946415903047
sVY
L4L
sVX
L8L
sg642
VTIMES
p691
sg35
g36
sg37
g38
sg21
S'5'
sg19
S'space'
p692
sg34
g11
sg645
L5L
sg646
g647
sg648
L5L
sS'block.thisIndex'
p693
I15
sg650
g674
sg652
Vhalf
p694
sg653
g665
sa(dp695
S'block.thisTrialN'
p696
I5
sS'block.thisRepN'
p697
I0
sg29
g33
sS'block.thisN'
p698
I5
sg637
(S'TIMES'
S'DOUBLE'
S'x'
S'y'
tp699
sg27
g28
sg639
L2L
sg640
(I4
I8
tp700
sg22
I1
sg20
F1.6061244794691447
sg23
F2.3249753014242742
sVY
L2L
sVX
L2L
sg642
L0L
sg35
g36
sg37
g38
sg21
S'8'
sg19
S'space'
p701
sg34
g11
sg645
L8L
sg646
g651
sg648
L8L
sS'block.thisIndex'
p702
I1
sg650
g691
sg652
L0L
sg653
g684
sa(dp703
S'block.thisTrialN'
p704
I6
sS'block.thisRepN'
p705
I0
sg29
g33
sS'block.thisN'
p706
I6
sg637
(S'INCREASE'
S'ADD'
S'HALF'
S'TRIPLE'
S'x'
S'y'
tp707
sg27
g28
sg639
L4L
sg640
(I6
I3
I6
I7
tp708
sg22
I1
sg20
F5.6687617740535643
sg23
F7.8449649705435149
sVY
L3L
sVX
L2L
sg642
g694
sg35
g36
sg37
g38
sg21
S'7'
sg19
S'space'
p709
sg34
g11
sg645
L7L
sg646
g643
sg648
L7L
sS'block.thisIndex'
p710
I13
sg650
Vincrease
p711
sg652
g663
sg653
VUBUUxy
p712
sa(dp713
S'block.thisTrialN'
p714
I7
sS'block.thisRepN'
p715
I0
sg29
g33
sS'block.thisN'
p716
I7
sg637
(S'SUBTRACT'
S'TRIPLE'
S'DECREASE'
S'DOUBLE'
S'x'
S'y'
tp717
sg27
g28
sg639
L4L
sg640
(I4
I3
I9
I1
tp718
sg22
I1
sg20
F3.7024806374683976
sg23
F12.646466378588229
sVY
L8L
sVX
L2L
sg642
g647
sg35
g36
sg37
g38
sg21
S'1'
sg19
S'space'
p719
sg34
g11
sg645
L1L
sg646
g663
sg648
L1L
sS'block.thisIndex'
p720
I11
sg650
VSUBTRACT
p721
sg652
g651
sg653
VBUUUxy
p722
sa(dp723
S'block.thisTrialN'
p724
I8
sS'block.thisRepN'
p725
I0
sg29
g33
sS'block.thisN'
p726
I8
sg637
(S'HALF'
S'TRIPLE'
S'INCREASE'
S'SUBTRACT'
S'x'
S'y'
tp727
sg27
g28
sg639
L4L
sg640
(I1
I2
I6
I3
tp728
sg22
I1
sg20
F2.3853672381374054
sg23
F9.5912038386741187
sVY
L2L
sVX
L3L
sg642
g711
sg35
g36
sg37
g38
sg21
S'3'
sg19
S'space'
p729
sg34
g11
sg645
L3L
sg646
g663
sg648
L3L
sS'block.thisIndex'
p730
I17
sg650
g694
sg652
g721
sg653
VUUUBxy
p731
sa(dp732
S'block.thisTrialN'
p733
I9
sS'block.thisRepN'
p734
I0
sg29
g33
sS'block.thisN'
p735
I9
sg637
(S'SUBTRACT'
S'TRIPLE'
S'DECREASE'
S'x'
S'y'
tp736
sg27
g28
sg639
L3L
sg640
(I4
I12
I3
tp737
sg22
I1
sg20
F2.2800677946943324
sg23
F4.9464988200925291
sVY
L9L
sVX
L5L
sg642
g647
sg35
g36
sg37
g38
sg21
S'3'
sg19
S'space'
p738
sg34
g11
sg645
L3L
sg646
g663
sg648
L3L
sS'block.thisIndex'
p739
I4
sg650
g721
sg652
L0L
sg653
VBUUxy
p740
sa(dp741
S'block.thisTrialN'
p742
I10
sS'block.thisRepN'
p743
I0
sg29
g33
sS'block.thisN'
p744
I10
sg637
(S'DECREASE'
S'TRIPLE'
S'HALF'
S'SUBTRACT'
S'x'
S'y'
tp745
sg27
g28
sg639
L4L
sg640
(I4
I2
I6
I5
tp746
sg22
I1
sg20
F2.0226383584667929
sg23
F5.5718565252609551
sVY
L2L
sVX
L6L
sg642
g694
sg35
g36
sg37
g38
sg21
S'5'
sg19
S'space'
p747
sg34
g11
sg645
L5L
sg646
g663
sg648
L5L
sS'block.thisIndex'
p748
I16
sg650
g647
sg652
g721
sg653
g731
sa(dp749
S'block.thisTrialN'
p750
I11
sS'block.thisRepN'
p751
I0
sg29
g33
sS'block.thisN'
p752
I11
sg637
(S'TIMES'
S'HALF'
S'INCREASE'
S'x'
S'y'
tp753
sg27
g28
sg639
L3L
sg640
(I6
I3
I9
tp754
sg22
I0
sg20
F4.1014890543883666
sg23
F4.7000774466723669
sVY
L3L
sVX
L5L
sg642
g711
sg35
g36
sg37
g38
sg21
S'6'
sg19
S'space'
p755
sg34
g11
sg645
L9L
sg646
g694
sg648
L9L
sS'block.thisIndex'
p756
I5
sg650
g691
sg652
L0L
sg653
g740
sa(dp757
S'block.thisTrialN'
p758
I12
sS'block.thisRepN'
p759
I0
sg29
g33
sS'block.thisN'
p760
I12
sg637
(S'INCREASE'
S'SUBTRACT'
S'x'
S'y'
tp761
sg27
g28
sg639
L2L
sg640
(I3
I4
tp762
sg22
I1
sg20
F1.3110695511277299
sg23
F5.9163331234885845
sVY
L3L
sVX
L6L
sg642
L0L
sg35
g36
sg37
g38
sg21
S'4'
sg19
S'space'
p763
sg34
g11
sg645
L4L
sg646
g721
sg648
L4L
sS'block.thisIndex'
p764
I2
sg650
g711
sg652
L0L
sg653
g675
sa(dp765
S'block.thisTrialN'
p766
I13
sS'block.thisRepN'
p767
I0
sg29
g33
sS'block.thisN'
p768
I13
sg637
(S'SUBTRACT'
S'DOUBLE'
S'TRIPLE'
S'DECREASE'
S'x'
S'y'
tp769
sg27
g28
sg639
L4L
sg640
(I2
I6
I12
I8
tp770
sg22
I0
sg20
F3.6516724171233363
sg23
F10.371032784110866
sVY
L4L
sVX
L3L
sg642
g663
sg35
g36
sg37
g38
sg21
S'5'
sg19
S'space'
p771
sg34
g11
sg645
L8L
sg646
g651
sg648
L8L
sS'block.thisIndex'
p772
I10
sg650
g721
sg652
g647
sg653
g722
sa(dp773
S'block.thisTrialN'
p774
I14
sS'block.thisRepN'
p775
I0
sg29
g33
sS'block.thisN'
p776
I14
sg637
(S'THIRD'
S'TIMES'
S'HALF'
S'x'
S'y'
tp777
sg27
g28
sg639
L3L
sg640
(I3
I18
I6
tp778
sg22
I0
sg20
F1.2543714660278056
sg23
F6.7604273878969252
sVY
L6L
sVX
L6L
sg642
g694
sg35
g36
sg37
g38
sg21
S'3'
sg19
S'space'
p779
sg34
g11
sg645
L6L
sg646
g691
sg648
L6L
sS'block.thisIndex'
p780
I7
sg650
g674
sg652
L0L
sg653
VUBUxy
p781
sa(dp782
S'block.thisTrialN'
p783
I15
sS'block.thisRepN'
p784
I0
sg29
g33
sS'block.thisN'
p785
I15
sg637
(S'DOUBLE'
S'THIRD'
S'TIMES'
S'x'
S'y'
tp786
sg27
g28
sg639
L3L
sg640
(I12
I4
I8
tp787
sg22
I1
sg20
F2.0640094965638127
sg23
F4.408650577039225
sVY
L6L
sVX
L2L
sg642
g691
sg35
g36
sg37
g38
sg21
S'8'
sg19
S'space'
p788
sg34
g11
sg645
L8L
sg646
g674
sg648
L8L
sS'block.thisIndex'
p789
I9
sg650
g651
sg652
L0L
sg653
g654
sa(dp790
S'block.thisTrialN'
p791
I16
sS'block.thisRepN'
p792
I0
sg29
g33
sS'block.thisN'
p793
I16
sg637
(S'THIRD'
S'DIVIDE'
S'DECREASE'
S'x'
S'y'
tp794
sg27
g28
sg639
L3L
sg640
(I6
I3
I1
tp795
sg22
I1
sg20
F1.7640855434001423
sg23
F5.1258208802319132
sVY
L2L
sVX
L7L
sg642
g647
sg35
g36
sg37
g38
sg21
S'1'
sg19
S'space'
p796
sg34
g11
sg645
L1L
sg646
g661
sg648
L1L
sS'block.thisIndex'
p797
I6
sg650
g674
sg652
L0L
sg653
g781
sa(dp798
S'block.thisTrialN'
p799
I17
sS'block.thisRepN'
p800
I0
sg29
g33
sS'block.thisN'
p801
I17
sg637
(S'DOUBLE'
S'DIVIDE'
S'TRIPLE'
S'INCREASE'
S'x'
S'y'
tp802
sg27
g28
sg639
L4L
sg640
(I5
I15
I3
I6
tp803
sg22
I1
sg20
F5.6540938059915788
sg23
F4.8654776582552586
sVY
L5L
sVX
L4L
sg642
g663
sg35
g36
sg37
g38
sg21
S'6'
sg19
S'space'
p804
sg34
g11
sg645
L6L
sg646
g661
sg648
L6L
sS'block.thisIndex'
p805
I12
sg650
g651
sg652
g711
sg653
g712
sa(dp806
S'block.thisTrialN'
p807
I0
sS'block.thisRepN'
p808
I0
sg29
g33
sS'block.thisN'
p809
I0
sVRule
p810
(S'TRIPLE'
S'HALF'
S'TIMES'
S'x'
S'y'
tp811
sg27
g28
sVLength
p812
L3L
sVIntermediate
p813
(I6
I3
I9
tp814
sg22
I1
sg20
F4.0161171617510263
sg23
F4.2768764888751321
sVY
L3L
sVX
L2L
sVOperatorc
p815
VTIMES
p816
sg35
g36
sg37
g38
sg21
S'9'
sg19
S'space'
p817
sg34
g11
sVResult
p818
L9L
sVOperatora
p819
Vhalf
p820
sVCorrectResponse
p821
L9L
sS'block.thisIndex'
p822
I9
sVOperatorb
p823
Vtriple
p824
sVOperatord
p825
L0L
sVStructure
p826
VUUBxy
p827
sa(dp828
S'block.thisTrialN'
p829
I1
sS'block.thisRepN'
p830
I0
sg29
g33
sS'block.thisN'
p831
I1
sg810
(S'TRIPLE'
S'SUBTRACT'
S'INCREASE'
S'HALF'
S'x'
S'y'
tp832
sg27
g28
sg812
L4L
sg813
(I3
I4
I1
I3
tp833
sg22
I1
sg20
F5.6034598668338731
sg23
F4.8109276414324995
sVY
L3L
sVX
L6L
sg815
Vincrease
p834
sg35
g36
sg37
g38
sg21
S'3'
sg19
S'space'
p835
sg34
g11
sg818
L3L
sg819
VSUBTRACT
p836
sg821
L3L
sS'block.thisIndex'
p837
I13
sg823
g824
sg825
g820
sg826
VUBUUxy
p838
sa(dp839
S'block.thisTrialN'
p840
I2
sS'block.thisRepN'
p841
I0
sg29
g33
sS'block.thisN'
p842
I2
sg810
(S'INCREASE'
S'DIVIDE'
S'HALF'
S'x'
S'y'
tp843
sg27
g28
sg812
L3L
sg813
(I2
I1
I2
tp844
sg22
I1
sg20
F5.4073777643206995
sg23
F3.499478031299077
sVY
L2L
sVX
L4L
sg815
g820
sg35
g36
sg37
g38
sg21
S'2'
sg19
S'space'
p845
sg34
g11
sg818
L2L
sg819
VDIVIDE
p846
sg821
L2L
sS'block.thisIndex'
p847
I7
sg823
g834
sg825
L0L
sg826
VUBUxy
p848
sa(dp849
S'block.thisTrialN'
p850
I3
sS'block.thisRepN'
p851
I0
sg29
g33
sS'block.thisN'
p852
I3
sg810
(S'SUBTRACT'
S'THIRD'
S'x'
S'y'
tp853
sg27
g28
sg812
L2L
sg813
(I3
I1
tp854
sg22
I1
sg20
F1.1067461874336004
sg23
F3.5734772004652768
sVY
L2L
sVX
L9L
sg815
L0L
sg35
g36
sg37
g38
sg21
S'1'
sg19
S'space'
p855
sg34
g11
sg818
L1L
sg819
Vthird
p856
sg821
L1L
sS'block.thisIndex'
p857
I0
sg823
g836
sg825
L0L
sg826
VBUxy
p858
sa(dp859
S'block.thisTrialN'
p860
I4
sS'block.thisRepN'
p861
I0
sg29
g33
sS'block.thisN'
p862
I4
sg810
(S'DOUBLE'
S'TIMES'
S'THIRD'
S'x'
S'y'
tp863
sg27
g28
sg812
L3L
sg813
(I1
I4
I8
tp864
sg22
I1
sg20
F2.8983702607511077
sg23
F4.1302933978440706
sVY
L4L
sVX
L3L
sg815
g856
sg35
g36
sg37
g38
sg21
S'8'
sg19
S'space'
p865
sg34
g11
sg818
L8L
sg819
g816
sg821
L8L
sS'block.thisIndex'
p866
I6
sg823
Vdouble
p867
sg825
L0L
sg826
g848
sa(dp868
S'block.thisTrialN'
p869
I5
sS'block.thisRepN'
p870
I0
sg29
g33
sS'block.thisN'
p871
I5
sg810
(S'ADD'
S'DECREASE'
S'HALF'
S'x'
S'y'
tp872
sg27
g28
sg812
L3L
sg813
(I3
I2
I6
tp873
sg22
I0
sg20
F4.1169878328801133
sg23
F5.832923819165444
sVY
L4L
sVX
L6L
sg815
g820
sg35
g36
sg37
g38
sg21
S'5'
sg19
S'space'
p874
sg34
g11
sg818
L6L
sg819
Vdecrease
p875
sg821
L6L
sS'block.thisIndex'
p876
I4
sg823
VADD
p877
sg825
L0L
sg826
VBUUxy
p878
sa(dp879
S'block.thisTrialN'
p880
I6
sS'block.thisRepN'
p881
I0
sg29
g33
sS'block.thisN'
p882
I6
sg810
(S'DECREASE'
S'DIVIDE'
S'TRIPLE'
S'DOUBLE'
S'x'
S'y'
tp883
sg27
g28
sg812
L4L
sg813
(I6
I18
I2
I1
tp884
sg22
I0
sg20
F4.8175069318676833
sg23
F10.008156570314895
sVY
L9L
sVX
L3L
sg815
g824
sg35
g36
sg37
g38
sg21
S'2'
sg19
S'space'
p885
sg34
g11
sg818
L1L
sg819
g846
sg821
L1L
sS'block.thisIndex'
p886
I12
sg823
g875
sg825
g867
sg826
g838
sa(dp887
S'block.thisTrialN'
p888
I7
sS'block.thisRepN'
p889
I0
sg29
g33
sS'block.thisN'
p890
I7
sg810
(S'SUBTRACT'
S'DOUBLE'
S'DECREASE'
S'x'
S'y'
tp891
sg27
g28
sg812
L3L
sg813
(I8
I16
I7
tp892
sg22
I0
sg20
F3.0459115484263748
sg23
F10.422405143617652
sVY
L9L
sVX
L9L
sg815
g875
sg35
g36
sg37
g38
sg21
S'8'
sg19
S'space'
p893
sg34
g11
sg818
L7L
sg819
g867
sg821
L7L
sS'block.thisIndex'
p894
I5
sg823
g836
sg825
L0L
sg826
g878
sa(dp895
S'block.thisTrialN'
p896
I8
sS'block.thisRepN'
p897
I0
sg29
g33
sS'block.thisN'
p898
I8
sg810
(S'INCREASE'
S'TIMES'
S'x'
S'y'
tp899
sg27
g28
sg812
L2L
sg813
(I8
I9
tp900
sg22
I0
sg20
F1.0628528713132255
sg23
F2.0230082685593516
sVY
L4L
sVX
L2L
sg815
L0L
sg35
g36
sg37
g38
sg21
S'7'
sg19
S'space'
p901
sg34
g11
sg818
L9L
sg819
g816
sg821
L9L
sS'block.thisIndex'
p902
I2
sg823
g834
sg825
L0L
sg826
VUBxy
p903
sa(dp904
S'block.thisTrialN'
p905
I9
sS'block.thisRepN'
p906
I0
sg29
g33
sS'block.thisN'
p907
I9
sg810
(S'DECREASE'
S'HALF'
S'TRIPLE'
S'ADD'
S'x'
S'y'
tp908
sg27
g28
sg812
L4L
sg813
(I4
I12
I6
I5
tp909
sg22
I1
sg20
F7.0949748569400981
sg23
F5.8119911767425947
sVY
L2L
sVX
L2L
sg815
g824
sg35
g36
sg37
g38
sg21
S'5'
sg19
S'space'
p910
sg34
g11
sg818
L5L
sg819
g820
sg821
L5L
sS'block.thisIndex'
p911
I16
sg823
g875
sg825
g877
sg826
VUUUBxy
p912
sa(dp913
S'block.thisTrialN'
p914
I10
sS'block.thisRepN'
p915
I0
sg29
g33
sS'block.thisN'
p916
I10
sg810
(S'TIMES'
S'THIRD'
S'x'
S'y'
tp917
sg27
g28
sg812
L2L
sg813
(I1
I4
tp918
sg22
I1
sg20
F1.3964739902876318
sg23
F2.6782016559445765
sVY
L4L
sVX
L3L
sg815
L0L
sg35
g36
sg37
g38
sg21
S'4'
sg19
S'space'
p919
sg34
g11
sg818
L4L
sg819
g856
sg821
L4L
sS'block.thisIndex'
p920
I1
sg823
g816
sg825
L0L
sg826
g858
sa(dp921
S'block.thisTrialN'
p922
I11
sS'block.thisRepN'
p923
I0
sg29
g33
sS'block.thisN'
p924
I11
sg810
(S'TIMES'
S'DECREASE'
S'THIRD'
S'DOUBLE'
S'x'
S'y'
tp925
sg27
g28
sg812
L4L
sg813
(I6
I2
I1
I2
tp926
sg22
I0
sg20
F7.1424731342704035
sg23
F12.371335151488893
sVY
L2L
sVX
L3L
sg815
g856
sg35
g36
sg37
g38
sg21
S'4'
sg19
S'space'
p927
sg34
g11
sg818
L2L
sg819
g875
sg821
L2L
sS'block.thisIndex'
p928
I11
sg823
g816
sg825
g867
sg826
VBUUUxy
p929
sa(dp930
S'block.thisTrialN'
p931
I12
sS'block.thisRepN'
p932
I0
sg29
g33
sS'block.thisN'
p933
I12
sg810
(S'DIVIDE'
S'DECREASE'
S'THIRD'
S'DOUBLE'
S'x'
S'y'
tp934
sg27
g28
sg812
L4L
sg813
(I12
I4
I3
I1
tp935
sg22
I0
sg20
F4.5975147080316674
sg23
F8.32292802221491
sVY
L3L
sVX
L6L
sg815
g856
sg35
g36
sg37
g38
sg21
S'2'
sg19
S'space'
p936
sg34
g11
sg818
L1L
sg819
g875
sg821
L1L
sS'block.thisIndex'
p937
I10
sg823
g846
sg825
g867
sg826
g929
sa(dp938
S'block.thisTrialN'
p939
I13
sS'block.thisRepN'
p940
I0
sg29
g33
sS'block.thisN'
p941
I13
sg810
(S'DECREASE'
S'HALF'
S'DIVIDE'
S'x'
S'y'
tp942
sg27
g28
sg812
L3L
sg813
(I4
I2
I1
tp943
sg22
I1
sg20
F1.3763179141096771
sg23
F2.823608873761259
sVY
L2L
sVX
L8L
sg815
g846
sg35
g36
sg37
g38
sg21
S'1'
sg19
S'space'
p944
sg34
g11
sg818
L1L
sg819
g820
sg821
L1L
sS'block.thisIndex'
p945
I8
sg823
g875
sg825
L0L
sg826
g827
sa(dp946
S'block.thisTrialN'
p947
I14
sS'block.thisRepN'
p948
I0
sg29
g33
sS'block.thisN'
p949
I14
sg810
(S'TRIPLE'
S'SUBTRACT'
S'x'
S'y'
tp950
sg27
g28
sg812
L2L
sg813
(I2
I6
tp951
sg22
I0
sg20
F1.4731059255136643
sg23
F3.192678369639907
sVY
L6L
sVX
L8L
sg815
L0L
sg35
g36
sg37
g38
sg21
S'1'
sg19
S'space'
p952
sg34
g11
sg818
L6L
sg819
g836
sg821
L6L
sS'block.thisIndex'
p953
I3
sg823
g824
sg825
L0L
sg826
g903
sa(dp954
S'block.thisTrialN'
p955
I15
sS'block.thisRepN'
p956
I0
sg29
g33
sS'block.thisN'
p957
I15
sg810
(S'INCREASE'
S'HALF'
S'TIMES'
S'TRIPLE'
S'x'
S'y'
tp958
sg27
g28
sg812
L4L
sg813
(I6
I12
I6
I7
tp959
sg22
I0
sg20
F10.527992256014841
sg23
F7.7017968112195376
sVY
L2L
sVX
L2L
sg815
g816
sg35
g36
sg37
g38
sg21
S'3'
sg19
S'space'
p960
sg34
g11
sg818
L7L
sg819
g820
sg821
L7L
sS'block.thisIndex'
p961
I14
sg823
g834
sg825
g824
sg826
VUUBUxy
p962
sa(dp963
S'block.thisTrialN'
p964
I16
sS'block.thisRepN'
p965
I0
sg29
g33
sS'block.thisN'
p966
I16
sg810
(S'THIRD'
S'INCREASE'
S'SUBTRACT'
S'HALF'
S'x'
S'y'
tp967
sg27
g28
sg812
L4L
sg813
(I4
I2
I3
I1
tp968
sg22
I1
sg20
F12.228701034619007
sg23
F9.2570413280918729
sVY
L2L
sVX
L8L
sg815
g836
sg35
g36
sg37
g38
sg21
S'1'
sg19
S'space'
p969
sg34
g11
sg818
L1L
sg819
g834
sg821
L1L
sS'block.thisIndex'
p970
I15
sg823
g856
sg825
g820
sg826
g962
sa(dp971
S'block.thisTrialN'
p972
I17
sS'block.thisRepN'
p973
I0
sg29
g33
sS'block.thisN'
p974
I17
sg810
(S'INCREASE'
S'TRIPLE'
S'HALF'
S'ADD'
S'x'
S'y'
tp975
sg27
g28
sg812
L4L
sg813
(I4
I2
I6
I7
tp976
sg22
I1
sg20
F3.4717694196733646
sg23
F6.1194631159014534
sVY
L2L
sVX
L2L
sg815
g820
sg35
g36
sg37
g38
sg21
S'7'
sg19
S'space'
p977
sg34
g11
sg818
L7L
sg819
g824
sg821
L7L
sS'block.thisIndex'
p978
I17
sg823
g834
sg825
g877
sg826
g912
sa(dp979
S'block.thisTrialN'
p980
I0
sS'block.thisRepN'
p981
I0
sg29
g33
sS'block.thisN'
p982
I0
sVRule
p983
(S'HALF'
S'TIMES'
S'DECREASE'
S'x'
S'y'
tp984
sg27
g28
sVLength
p985
L3L
sVIntermediate
p986
(I8
I16
I8
tp987
sg22
I0
sg20
F5.0674832219374366
sg23
F8.7533161548781209
sVY
L2L
sVX
L9L
sVOperatorc
p988
Vdecrease
p989
sg35
g36
sg37
g38
sg21
S'6'
sg19
S'space'
p990
sg34
g11
sVResult
p991
L8L
sVOperatora
p992
VTIMES
p993
sVCorrectResponse
p994
L8L
sS'block.thisIndex'
p995
I6
sVOperatorb
p996
Vhalf
p997
sVOperatord
p998
L0L
sVStructure
p999
VUBUxy
p1000
sa(dp1001
S'block.thisTrialN'
p1002
I1
sS'block.thisRepN'
p1003
I0
sg29
g33
sS'block.thisN'
p1004
I1
sg983
(S'INCREASE'
S'TIMES'
S'TRIPLE'
S'HALF'
S'x'
S'y'
tp1005
sg27
g28
sg985
L4L
sg986
(I1
I3
I6
I7
tp1006
sg22
I1
sg20
F3.8810142326110508
sg23
F6.3548725769796874
sVY
L2L
sVX
L2L
sg988
Vtriple
p1007
sg35
g36
sg37
g38
sg21
S'7'
sg19
S'space'
p1008
sg34
g11
sg991
L7L
sg992
g993
sg994
L7L
sS'block.thisIndex'
p1009
I13
sg996
Vincrease
p1010
sg998
g997
sg999
VUBUUxy
p1011
sa(dp1012
S'block.thisTrialN'
p1013
I2
sS'block.thisRepN'
p1014
I0
sg29
g33
sS'block.thisN'
p1015
I2
sg983
(S'TRIPLE'
S'HALF'
S'ADD'
S'x'
S'y'
tp1016
sg27
g28
sg985
L3L
sg986
(I6
I3
I9
tp1017
sg22
I1
sg20
F1.9255829758767504
sg23
F11.768406527378829
sVY
L3L
sVX
L3L
sg988
VADD
p1018
sg35
g36
sg37
g38
sg21
S'9'
sg19
S'space'
p1019
sg34
g11
sg991
L9L
sg992
g997
sg994
L9L
sS'block.thisIndex'
p1020
I8
sg996
g1007
sg998
L0L
sg999
VUUBxy
p1021
sa(dp1022
S'block.thisTrialN'
p1023
I3
sS'block.thisRepN'
p1024
I0
sg29
g33
sS'block.thisN'
p1025
I3
sg983
(S'THIRD'
S'INCREASE'
S'HALF'
S'TIMES'
S'x'
S'y'
tp1026
sg27
g28
sg985
L4L
sg986
(I28
I14
I15
I5
tp1027
sg22
I1
sg20
F9.8747789550689049
sg23
F12.596165603550617
sVY
L4L
sVX
L7L
sg988
g997
sg35
g36
sg37
g38
sg21
S'5'
sg19
S'space'
p1028
sg34
g11
sg991
L5L
sg992
g1010
sg994
L5L
sS'block.thisIndex'
p1029
I17
sg996
Vthird
p1030
sg998
g993
sg999
VUUUBxy
p1031
sa(dp1032
S'block.thisTrialN'
p1033
I4
sS'block.thisRepN'
p1034
I0
sg29
g33
sS'block.thisN'
p1035
I4
sg983
(S'SUBTRACT'
S'TRIPLE'
S'x'
S'y'
tp1036
sg27
g28
sg985
L2L
sg986
(I12
I9
tp1037
sg22
I1
sg20
F1.1892151431529783
sg23
F4.1184772722190246
sVY
L3L
sVX
L4L
sg988
L0L
sg35
g36
sg37
g38
sg21
S'9'
sg19
S'space'
p1038
sg34
g11
sg991
L9L
sg992
g1007
sg994
L9L
sS'block.thisIndex'
p1039
I1
sg996
VSUBTRACT
p1040
sg998
L0L
sg999
VBUxy
p1041
sa(dp1042
S'block.thisTrialN'
p1043
I5
sS'block.thisRepN'
p1044
I0
sg29
g33
sS'block.thisN'
p1045
I5
sg983
(S'TRIPLE'
S'INCREASE'
S'DIVIDE'
S'DOUBLE'
S'x'
S'y'
tp1046
sg27
g28
sg985
L4L
sg986
(I16
I2
I3
I9
tp1047
sg22
I1
sg20
F6.3615530065144412
sg23
F4.4825482571613975
sVY
L8L
sVX
L8L
sg988
VDIVIDE
p1048
sg35
g36
sg37
g38
sg21
S'9'
sg19
S'space'
p1049
sg34
g11
sg991
L9L
sg992
g1010
sg994
L9L
sS'block.thisIndex'
p1050
I15
sg996
g1007
sg998
Vdouble
p1051
sg999
VUUBUxy
p1052
sa(dp1053
S'block.thisTrialN'
p1054
I6
sS'block.thisRepN'
p1055
I0
sg29
g33
sS'block.thisN'
p1056
I6
sg983
(S'TRIPLE'
S'INCREASE'
S'SUBTRACT'
S'x'
S'y'
tp1057
sg27
g28
sg985
L3L
sg986
(I1
I2
I6
tp1058
sg22
I1
sg20
F2.6969078384863678
sg23
F4.2588940282585099
sVY
L2L
sVX
L3L
sg988
g1040
sg35
g36
sg37
g38
sg21
S'6'
sg19
S'space'
p1059
sg34
g11
sg991
L6L
sg992
g1010
sg994
L6L
sS'block.thisIndex'
p1060
I9
sg996
g1007
sg998
L0L
sg999
g1021
sa(dp1061
S'block.thisTrialN'
p1062
I7
sS'block.thisRepN'
p1063
I0
sg29
g33
sS'block.thisN'
p1064
I7
sg983
(S'DIVIDE'
S'TRIPLE'
S'DECREASE'
S'x'
S'y'
tp1065
sg27
g28
sg985
L3L
sg986
(I6
I18
I9
tp1066
sg22
I1
sg20
F2.3096056590147782
sg23
F9.5699366323533468
sVY
L2L
sVX
L7L
sg988
g989
sg35
g36
sg37
g38
sg21
S'9'
sg19
S'space'
p1067
sg34
g11
sg991
L9L
sg992
g1007
sg994
L9L
sS'block.thisIndex'
p1068
I4
sg996
g1048
sg998
L0L
sg999
VBUUxy
p1069
sa(dp1070
S'block.thisTrialN'
p1071
I8
sS'block.thisRepN'
p1072
I0
sg29
g33
sS'block.thisN'
p1073
I8
sg983
(S'DECREASE'
S'THIRD'
S'DOUBLE'
S'ADD'
S'x'
S'y'
tp1074
sg27
g28
sg985
L4L
sg986
(I9
I18
I6
I5
tp1075
sg22
I0
sg20
F2.7562477886676788
sg23
F15.378034129011212
sVY
L4L
sVX
L5L
sg988
g1051
sg35
g36
sg37
g38
sg21
S'7'
sg19
S'space'
p1076
sg34
g11
sg991
L5L
sg992
g1030
sg994
L5L
sS'block.thisIndex'
p1077
I16
sg996
g989
sg998
g1018
sg999
g1031
sa(dp1078
S'block.thisTrialN'
p1079
I9
sS'block.thisRepN'
p1080
I0
sg29
g33
sS'block.thisN'
p1081
I9
sg983
(S'TIMES'
S'HALF'
S'INCREASE'
S'THIRD'
S'x'
S'y'
tp1082
sg27
g28
sg985
L4L
sg986
(I1
I2
I1
I9
tp1083
sg22
I1
sg20
F4.5621286244422663
sg23
F5.0755064566328656
sVY
L9L
sVX
L3L
sg988
g1010
sg35
g36
sg37
g38
sg21
S'9'
sg19
S'space'
p1084
sg34
g11
sg991
L9L
sg992
g997
sg994
L9L
sS'block.thisIndex'
p1085
I11
sg996
g993
sg998
g1030
sg999
VBUUUxy
p1086
sa(dp1087
S'block.thisTrialN'
p1088
I10
sS'block.thisRepN'
p1089
I0
sg29
g33
sS'block.thisN'
p1090
I10
sg983
(S'SUBTRACT'
S'INCREASE'
S'HALF'
S'x'
S'y'
tp1091
sg27
g28
sg985
L3L
sg986
(I4
I5
I3
tp1092
sg22
I1
sg20
F5.524976631248137
sg23
F3.1880312208377291
sVY
L2L
sVX
L8L
sg988
g997
sg35
g36
sg37
g38
sg21
S'3'
sg19
S'space'
p1093
sg34
g11
sg991
L3L
sg992
g1010
sg994
L3L
sS'block.thisIndex'
p1094
I5
sg996
g1040
sg998
L0L
sg999
g1069
sa(dp1095
S'block.thisTrialN'
p1096
I11
sS'block.thisRepN'
p1097
I0
sg29
g33
sS'block.thisN'
p1098
I11
sg983
(S'TRIPLE'
S'DOUBLE'
S'SUBTRACT'
S'INCREASE'
S'x'
S'y'
tp1099
sg27
g28
sg985
L4L
sg986
(I5
I1
I2
I6
tp1100
sg22
I1
sg20
F2.2911154032044578
sg23
F5.047719103487907
sVY
L4L
sVX
L4L
sg988
g1040
sg35
g36
sg37
g38
sg21
S'6'
sg19
S'space'
p1101
sg34
g11
sg991
L6L
sg992
g1051
sg994
L6L
sS'block.thisIndex'
p1102
I14
sg996
g1007
sg998
g1010
sg999
g1052
sa(dp1103
S'block.thisTrialN'
p1104
I12
sS'block.thisRepN'
p1105
I0
sg29
g33
sS'block.thisN'
p1106
I12
sg983
(S'HALF'
S'SUBTRACT'
S'DECREASE'
S'TRIPLE'
S'x'
S'y'
tp1107
sg27
g28
sg985
L4L
sg986
(I15
I14
I10
I5
tp1108
sg22
I1
sg20
F3.7139635990315583
sg23
F7.2368656540347729
sVY
L4L
sVX
L5L
sg988
g989
sg35
g36
sg37
g38
sg21
S'5'
sg19
S'space'
p1109
sg34
g11
sg991
L5L
sg992
g1040
sg994
L5L
sS'block.thisIndex'
p1110
I12
sg996
g997
sg998
g1007
sg999
g1011
sa(dp1111
S'block.thisTrialN'
p1112
I13
sS'block.thisRepN'
p1113
I0
sg29
g33
sS'block.thisN'
p1114
I13
sg983
(S'DIVIDE'
S'DOUBLE'
S'INCREASE'
S'TRIPLE'
S'x'
S'y'
tp1115
sg27
g28
sg985
L4L
sg986
(I9
I10
I20
I5
tp1116
sg22
I0
sg20
F3.8291417770378757
sg23
F16.753273459442426
sVY
L4L
sVX
L3L
sg988
g1010
sg35
g36
sg37
g38
sg21
S'6'
sg19
S'space'
p1117
sg34
g11
sg991
L5L
sg992
g1051
sg994
L5L
sS'block.thisIndex'
p1118
I10
sg996
g1048
sg998
g1007
sg999
g1086
sa(dp1119
S'block.thisTrialN'
p1120
I14
sS'block.thisRepN'
p1121
I0
sg29
g33
sS'block.thisN'
p1122
I14
sg983
(S'ADD'
S'HALF'
S'x'
S'y'
tp1123
sg27
g28
sg985
L2L
sg986
(I2
I7
tp1124
sg22
I1
sg20
F1.6681874859787058
sg23
F2.4555031739873812
sVY
L5L
sVX
L4L
sg988
L0L
sg35
g36
sg37
g38
sg21
S'7'
sg19
S'space'
p1125
sg34
g11
sg991
L7L
sg992
g997
sg994
L7L
sS'block.thisIndex'
p1126
I0
sg996
g1018
sg998
L0L
sg999
g1041
sa(dp1127
S'block.thisTrialN'
p1128
I15
sS'block.thisRepN'
p1129
I0
sg29
g33
sS'block.thisN'
p1130
I15
sg983
(S'INCREASE'
S'DIVIDE'
S'x'
S'y'
tp1131
sg27
g28
sg985
L2L
sg986
(I4
I5
tp1132
sg22
I1
sg20
F0.97662567091174424
sg23
F2.7104926733882166
sVY
L2L
sVX
L8L
sg988
L0L
sg35
g36
sg37
g38
sg21
S'5'
sg19
S'space'
p1133
sg34
g11
sg991
L5L
sg992
g1048
sg994
L5L
sS'block.thisIndex'
p1134
I3
sg996
g1010
sg998
L0L
sg999
VUBxy
p1135
sa(dp1136
S'block.thisTrialN'
p1137
I16
sS'block.thisRepN'
p1138
I0
sg29
g33
sS'block.thisN'
p1139
I16
sg983
(S'INCREASE'
S'DIVIDE'
S'TRIPLE'
S'x'
S'y'
tp1140
sg27
g28
sg985
L3L
sg986
(I6
I2
I3
tp1141
sg22
I0
sg20
F2.3878533700190019
sg23
F3.9273747826227918
sVY
L3L
sVX
L2L
sg988
g1007
sg35
g36
sg37
g38
sg21
S'2'
sg19
S'space'
p1142
sg34
g11
sg991
L3L
sg992
g1048
sg994
L3L
sS'block.thisIndex'
p1143
I7
sg996
g1010
sg998
L0L
sg999
g1000
sa(dp1144
S'block.thisTrialN'
p1145
I17
sS'block.thisRepN'
p1146
I0
sg29
g33
sS'block.thisN'
p1147
I17
sg983
(S'DOUBLE'
S'DIVIDE'
S'x'
S'y'
tp1148
sg27
g28
sg985
L2L
sg986
(I1
I2
tp1149
sg22
I1
sg20
F1.0430156107759103
sg23
F11.02690159867052
sVY
L8L
sVX
L8L
sg988
L0L
sg35
g36
sg37
g38
sg21
S'2'
sg19
S'space'
p1150
sg34
g11
sg991
L2L
sg992
g1048
sg994
L2L
sS'block.thisIndex'
p1151
I2
sg996
g1051
sg998
L0L
sg999
g1135
sa(dp1152
S'block.thisTrialN'
p1153
I0
sS'block.thisRepN'
p1154
I0
sg29
g33
sS'block.thisN'
p1155
I0
sVRule
p1156
(S'DIVIDE'
S'DECREASE'
S'x'
S'y'
tp1157
sg27
g28
sVLength
p1158
L2L
sVIntermediate
p1159
(I8
I2
tp1160
sg22
I1
sg20
F2.959261243668152
sg23
F2.8058202922693454
sVY
L4L
sVX
L9L
sVOperatorc
p1161
L0L
sg35
g36
sg37
g38
sg21
S'2'
sg19
S'space'
p1162
sg34
g11
sVResult
p1163
L2L
sVOperatora
p1164
Vdecrease
p1165
sVCorrectResponse
p1166
L2L
sS'block.thisIndex'
p1167
I1
sVOperatorb
p1168
VDIVIDE
p1169
sVOperatord
p1170
L0L
sVStructure
p1171
VBUxy
p1172
sa(dp1173
S'block.thisTrialN'
p1174
I1
sS'block.thisRepN'
p1175
I0
sg29
g33
sS'block.thisN'
p1176
I1
sg1156
(S'DOUBLE'
S'SUBTRACT'
S'INCREASE'
S'x'
S'y'
tp1177
sg27
g28
sg1158
L3L
sg1159
(I4
I1
I2
tp1178
sg22
I1
sg20
F2.085625965235522
sg23
F2.9795769026386552
sVY
L3L
sVX
L3L
sg1161
Vincrease
p1179
sg35
g36
sg37
g38
sg21
S'2'
sg19
S'space'
p1180
sg34
g11
sg1163
L2L
sg1164
VSUBTRACT
p1181
sg1166
L2L
sS'block.thisIndex'
p1182
I6
sg1168
Vdouble
p1183
sg1170
L0L
sg1171
VUBUxy
p1184
sa(dp1185
S'block.thisTrialN'
p1186
I2
sS'block.thisRepN'
p1187
I0
sg29
g33
sS'block.thisN'
p1188
I2
sg1156
(S'ADD'
S'DECREASE'
S'x'
S'y'
tp1189
sg27
g28
sg1158
L2L
sg1159
(I2
I7
tp1190
sg22
I1
sg20
F1.237548430392053
sg23
F3.2412321330921259
sVY
L5L
sVX
L3L
sg1161
L0L
sg35
g36
sg37
g38
sg21
S'7'
sg19
S'space'
p1191
sg34
g11
sg1163
L7L
sg1164
g1165
sg1166
L7L
sS'block.thisIndex'
p1192
I0
sg1168
VADD
p1193
sg1170
L0L
sg1171
g1172
sa(dp1194
S'block.thisTrialN'
p1195
I3
sS'block.thisRepN'
p1196
I0
sg29
g33
sS'block.thisN'
p1197
I3
sg1156
(S'THIRD'
S'HALF'
S'INCREASE'
S'SUBTRACT'
S'x'
S'y'
tp1198
sg27
g28
sg1158
L4L
sg1159
(I5
I6
I3
I1
tp1199
sg22
I1
sg20
F2.3740053635265213
sg23
F6.6426818867621478
sVY
L2L
sVX
L7L
sg1161
g1179
sg35
g36
sg37
g38
sg21
S'1'
sg19
S'space'
p1200
sg34
g11
sg1163
L1L
sg1164
Vhalf
p1201
sg1166
L1L
sS'block.thisIndex'
p1202
I17
sg1168
Vthird
p1203
sg1170
g1181
sg1171
VUUUBxy
p1204
sa(dp1205
S'block.thisTrialN'
p1206
I4
sS'block.thisRepN'
p1207
I0
sg29
g33
sS'block.thisN'
p1208
I4
sg1156
(S'DECREASE'
S'ADD'
S'THIRD'
S'HALF'
S'x'
S'y'
tp1209
sg27
g28
sg1158
L4L
sg1159
(I3
I1
I7
I6
tp1210
sg22
I1
sg20
F3.3296095016121399
sg23
F9.3031107095303014
sVY
L6L
sVX
L6L
sg1161
g1203
sg35
g36
sg37
g38
sg21
S'6'
sg19
S'space'
p1211
sg34
g11
sg1163
L6L
sg1164
g1193
sg1166
L6L
sS'block.thisIndex'
p1212
I12
sg1168
g1165
sg1170
g1201
sg1171
VUBUUxy
p1213
sa(dp1214
S'block.thisTrialN'
p1215
I5
sS'block.thisRepN'
p1216
I0
sg29
g33
sS'block.thisN'
p1217
I5
sg1156
(S'DOUBLE'
S'THIRD'
S'ADD'
S'x'
S'y'
tp1218
sg27
g28
sg1158
L3L
sg1159
(I9
I3
I6
tp1219
sg22
I1
sg20
F4.1641427971771918
sg23
F6.5671890786616132
sVY
L4L
sVX
L5L
sg1161
g1193
sg35
g36
sg37
g38
sg21
S'6'
sg19
S'space'
p1220
sg34
g11
sg1163
L6L
sg1164
g1203
sg1166
L6L
sS'block.thisIndex'
p1221
I8
sg1168
g1183
sg1170
L0L
sg1171
VUUBxy
p1222
sa(dp1223
S'block.thisTrialN'
p1224
I6
sS'block.thisRepN'
p1225
I0
sg29
g33
sS'block.thisN'
p1226
I6
sg1156
(S'ADD'
S'DECREASE'
S'THIRD'
S'DOUBLE'
S'x'
S'y'
tp1227
sg27
g28
sg1158
L4L
sg1159
(I18
I6
I5
I9
tp1228
sg22
I0
sg20
F3.9050562896882184
sVY
L4L
sVX
L9L
sg1161
g1203
sg35
g36
sg37
g38
sg21
Nsg19
S'space'
p1229
sg34
g11
sg1163
L9L
sg1164
g1165
sg1166
L9L
sS'block.thisIndex'
p1230
I10
sg1168
g1193
sg1170
g1183
sg1171
VBUUUxy
p1231
sa(dp1232
S'block.thisTrialN'
p1233
I7
sS'block.thisRepN'
p1234
I0
sg29
g33
sS'block.thisN'
p1235
I7
sg1156
(S'ADD'
S'TRIPLE'
S'HALF'
S'x'
S'y'
tp1236
sg27
g28
sg1158
L3L
sg1159
(I2
I6
I8
tp1237
sg22
I1
sg20
F1.3063436608354095
sg23
F5.2875317896832712
sVY
L2L
sVX
L4L
sg1161
g1201
sg35
g36
sg37
g38
sg21
S'8'
sg19
S'space'
p1238
sg34
g11
sg1163
L8L
sg1164
Vtriple
p1239
sg1166
L8L
sS'block.thisIndex'
p1240
I5
sg1168
g1193
sg1170
L0L
sg1171
VBUUxy
p1241
sa(dp1242
S'block.thisTrialN'
p1243
I8
sS'block.thisRepN'
p1244
I0
sg29
g33
sS'block.thisN'
p1245
I8
sg1156
(S'DECREASE'
S'SUBTRACT'
S'DOUBLE'
S'THIRD'
S'x'
S'y'
tp1246
sg27
g28
sg1158
L4L
sg1159
(I3
I6
I4
I3
tp1247
sg22
I0
sg20
F1.908849880535854
sg23
F7.9096946894132998
sVY
L2L
sVX
L9L
sg1161
g1183
sg35
g36
sg37
g38
sg21
S'4'
sg19
S'space'
p1248
sg34
g11
sg1163
L3L
sg1164
g1181
sg1166
L3L
sS'block.thisIndex'
p1249
I13
sg1168
g1165
sg1170
g1203
sg1171
g1213
sa(dp1250
S'block.thisTrialN'
p1251
I9
sS'block.thisRepN'
p1252
I0
sg29
g33
sS'block.thisN'
p1253
I9
sg1156
(S'DECREASE'
S'TRIPLE'
S'SUBTRACT'
S'DOUBLE'
S'x'
S'y'
tp1254
sg27
g28
sg1158
L4L
sg1159
(I6
I3
I9
I8
tp1255
sg22
I0
sg20
F8.982586928003002
sg23
F8.2293677126872353
sVY
L3L
sVX
L3L
sg1161
g1181
sg35
g36
sg37
g38
sg21
S'3'
sg19
S'space'
p1256
sg34
g11
sg1163
L8L
sg1164
g1239
sg1166
L8L
sS'block.thisIndex'
p1257
I15
sg1168
g1165
sg1170
g1183
sg1171
VUUBUxy
p1258
sa(dp1259
S'block.thisTrialN'
p1260
I10
sS'block.thisRepN'
p1261
I0
sg29
g33
sS'block.thisN'
p1262
I10
sg1156
(S'HALF'
S'INCREASE'
S'TIMES'
S'x'
S'y'
tp1263
sg27
g28
sg1158
L3L
sg1159
(I9
I10
I5
tp1264
sg22
I1
sg20
F1.9912946888653096
sg23
F4.821991348231677
sVY
L3L
sVX
L3L
sg1161
VTIMES
p1265
sg35
g36
sg37
g38
sg21
S'5'
sg19
S'space'
p1266
sg34
g11
sg1163
L5L
sg1164
g1179
sg1166
L5L
sS'block.thisIndex'
p1267
I9
sg1168
g1201
sg1170
L0L
sg1171
g1222
sa(dp1268
S'block.thisTrialN'
p1269
I11
sS'block.thisRepN'
p1270
I0
sg29
g33
sS'block.thisN'
p1271
I11
sg1156
(S'HALF'
S'ADD'
S'x'
S'y'
tp1272
sg27
g28
sg1158
L2L
sg1159
(I12
I6
tp1273
sg22
I1
sg20
F1.0385252450651024
sg23
F2.4243778808449861
sVY
L8L
sVX
L4L
sg1161
L0L
sg35
g36
sg37
g38
sg21
S'6'
sg19
S'space'
p1274
sg34
g11
sg1163
L6L
sg1164
g1193
sg1166
L6L
sS'block.thisIndex'
p1275
I3
sg1168
g1201
sg1170
L0L
sg1171
VUBxy
p1276
sa(dp1277
S'block.thisTrialN'
p1278
I12
sS'block.thisRepN'
p1279
I0
sg29
g33
sS'block.thisN'
p1280
I12
sg1156
(S'DECREASE'
S'DOUBLE'
S'TIMES'
S'THIRD'
S'x'
S'y'
tp1281
sg27
g28
sg1158
L4L
sg1159
(I1
I3
I6
I5
tp1282
sg22
I1
sg20
F3.393487762339646
sg23
F7.654881221067626
sVY
L3L
sVX
L3L
sg1161
g1265
sg35
g36
sg37
g38
sg21
S'5'
sg19
S'space'
p1283
sg34
g11
sg1163
L5L
sg1164
g1183
sg1166
L5L
sS'block.thisIndex'
p1284
I14
sg1168
g1165
sg1170
g1203
sg1171
g1258
sa(dp1285
S'block.thisTrialN'
p1286
I13
sS'block.thisRepN'
p1287
I0
sg29
g33
sS'block.thisN'
p1288
I13
sg1156
(S'DECREASE'
S'TIMES'
S'x'
S'y'
tp1289
sg27
g28
sg1158
L2L
sg1159
(I9
I8
tp1290
sg22
I1
sg20
F0.9470832570514176
sg23
F1.5459887151082512
sVY
L3L
sVX
L3L
sg1161
L0L
sg35
g36
sg37
g38
sg21
S'8'
sg19
S'space'
p1291
sg34
g11
sg1163
L8L
sg1164
g1265
sg1166
L8L
sS'block.thisIndex'
p1292
I2
sg1168
g1165
sg1170
L0L
sg1171
g1276
sa(dp1293
S'block.thisTrialN'
p1294
I14
sS'block.thisRepN'
p1295
I0
sg29
g33
sS'block.thisN'
p1296
I14
sg1156
(S'INCREASE'
S'ADD'
S'HALF'
S'x'
S'y'
tp1297
sg27
g28
sg1158
L3L
sg1159
(I1
I4
I5
tp1298
sg22
I1
sg20
F3.2004090358677786
sg23
F8.434026690229075
sVY
L3L
sVX
L2L
sg1161
g1201
sg35
g36
sg37
g38
sg21
S'5'
sg19
S'space'
p1299
sg34
g11
sg1163
L5L
sg1164
g1193
sg1166
L5L
sS'block.thisIndex'
p1300
I7
sg1168
g1179
sg1170
L0L
sg1171
g1184
sa(dp1301
S'block.thisTrialN'
p1302
I15
sS'block.thisRepN'
p1303
I0
sg29
g33
sS'block.thisN'
p1304
I15
sg1156
(S'ADD'
S'TRIPLE'
S'DOUBLE'
S'DECREASE'
S'x'
S'y'
tp1305
sg27
g28
sg1158
L4L
sg1159
(I1
I2
I6
I8
tp1306
sg22
I0
sg20
F2.9663780761184171
sg23
F7.3528043000551406
sVY
L2L
sVX
L2L
sg1161
g1183
sg35
g36
sg37
g38
sg21
S'4'
sg19
S'space'
p1307
sg34
g11
sg1163
L8L
sg1164
g1239
sg1166
L8L
sS'block.thisIndex'
p1308
I11
sg1168
g1193
sg1170
g1165
sg1171
g1231
sa(dp1309
S'block.thisTrialN'
p1310
I16
sS'block.thisRepN'
p1311
I0
sg29
g33
sS'block.thisN'
p1312
I16
sg1156
(S'INCREASE'
S'HALF'
S'THIRD'
S'TIMES'
S'x'
S'y'
tp1313
sg27
g28
sg1158
L4L
sg1159
(I12
I4
I2
I3
tp1314
sg22
I1
sg20
F3.587098781397799
sg23
F5.06410188661539
sVY
L4L
sVX
L3L
sg1161
g1203
sg35
g36
sg37
g38
sg21
S'3'
sg19
S'space'
p1315
sg34
g11
sg1163
L3L
sg1164
g1201
sg1166
L3L
sS'block.thisIndex'
p1316
I16
sg1168
g1179
sg1170
g1265
sg1171
g1204
sa(dp1317
S'block.thisTrialN'
p1318
I17
sS'block.thisRepN'
p1319
I0
sg29
g33
sS'block.thisN'
p1320
I17
sg1156
(S'ADD'
S'DOUBLE'
S'DECREASE'
S'x'
S'y'
tp1321
sg27
g28
sg1158
L3L
sg1159
(I1
I2
I7
tp1322
sg22
I1
sg20
F1.4923545495548751
sg23
F2.9315375836740714
sVY
L5L
sVX
L2L
sg1161
g1165
sg35
g36
sg37
g38
sg21
S'7'
sg19
S'space'
p1323
sg34
g11
sg1163
L7L
sg1164
g1183
sg1166
L7L
sS'block.thisIndex'
p1324
I4
sg1168
g1193
sg1170
L0L
sg1171
g1241
sa(dp1325
S'block.thisTrialN'
p1326
I0
sS'block.thisRepN'
p1327
I0
sg29
g33
sS'block.thisN'
p1328
I0
sVRule
p1329
(S'THIRD'
S'TIMES'
S'DOUBLE'
S'DECREASE'
S'x'
S'y'
tp1330
sg27
g28
sVLength
p1331
L4L
sVIntermediate
p1332
(I1
I2
I6
I2
tp1333
sg22
I0
sg20
F2.0951424888917245
sg23
F4.6764945400645956
sVY
L3L
sVX
L2L
sVOperatorc
p1334
Vdouble
p1335
sg35
g36
sg37
g38
sg21
S'3'
sg19
S'space'
p1336
sg34
g11
sVResult
p1337
L2L
sVOperatora
p1338
VTIMES
p1339
sVCorrectResponse
p1340
L2L
sS'block.thisIndex'
p1341
I13
sVOperatorb
p1342
Vthird
p1343
sVOperatord
p1344
Vdecrease
p1345
sVStructure
p1346
VUBUUxy
p1347
sa(dp1348
S'block.thisTrialN'
p1349
I1
sS'block.thisRepN'
p1350
I0
sg29
g33
sS'block.thisN'
p1351
I1
sg1329
(S'THIRD'
S'HALF'
S'ADD'
S'x'
S'y'
tp1352
sg27
g28
sg1331
L3L
sg1332
(I6
I3
I1
tp1353
sg22
I1
sg20
F1.8462825784226879
sg23
F6.163269641372608
sVY
L3L
sVX
L3L
sg1334
VADD
p1354
sg35
g36
sg37
g38
sg21
S'1'
sg19
S'space'
p1355
sg34
g11
sg1337
L1L
sg1338
Vhalf
p1356
sg1340
L1L
sS'block.thisIndex'
p1357
I9
sg1342
g1343
sg1344
L0L
sg1346
VUUBxy
p1358
sa(dp1359
S'block.thisTrialN'
p1360
I2
sS'block.thisRepN'
p1361
I0
sg29
g33
sS'block.thisN'
p1362
I2
sg1329
(S'THIRD'
S'INCREASE'
S'DIVIDE'
S'DOUBLE'
S'x'
S'y'
tp1363
sg27
g28
sg1331
L4L
sg1332
(I18
I2
I3
I1
tp1364
sg22
I0
sg20
F1.5721035986498464
sg23
F6.9340079672401771
sVY
L9L
sVX
L9L
sg1334
VDIVIDE
p1365
sg35
g36
sg37
g38
sg21
S'3'
sg19
S'space'
p1366
sg34
g11
sg1337
L1L
sg1338
Vincrease
p1367
sg1340
L1L
sS'block.thisIndex'
p1368
I15
sg1342
g1343
sg1344
g1335
sg1346
VUUBUxy
p1369
sa(dp1370
S'block.thisTrialN'
p1371
I3
sS'block.thisRepN'
p1372
I0
sg29
g33
sS'block.thisN'
p1373
I3
sg1329
(S'SUBTRACT'
S'DECREASE'
S'TRIPLE'
S'DOUBLE'
S'x'
S'y'
tp1374
sg27
g28
sg1331
L4L
sg1332
(I6
I18
I17
I8
tp1375
sg22
I0
sg20
F10.561362557025859
sg23
F12.822932046779897
sVY
L9L
sVX
L3L
sg1334
Vtriple
p1376
sg35
g36
sg37
g38
sg21
S'9'
sg19
S'space'
p1377
sg34
g11
sg1337
L8L
sg1338
g1345
sg1340
L8L
sS'block.thisIndex'
p1378
I11
sg1342
VSUBTRACT
p1379
sg1344
g1335
sg1346
VBUUUxy
p1380
sa(dp1381
S'block.thisTrialN'
p1382
I4
sS'block.thisRepN'
p1383
I0
sg29
g33
sS'block.thisN'
p1384
I4
sg1329
(S'INCREASE'
S'ADD'
S'x'
S'y'
tp1385
sg27
g28
sg1331
L2L
sg1332
(I5
I6
tp1386
sg22
I1
sg20
F0.88357665625517257
sg23
F2.7381092449068092
sVY
L2L
sVX
L3L
sg1334
L0L
sg35
g36
sg37
g38
sg21
S'6'
sg19
S'space'
p1387
sg34
g11
sg1337
L6L
sg1338
g1354
sg1340
L6L
sS'block.thisIndex'
p1388
I3
sg1342
g1367
sg1344
L0L
sg1346
VUBxy
p1389
sa(dp1390
S'block.thisTrialN'
p1391
I5
sS'block.thisRepN'
p1392
I0
sg29
g33
sS'block.thisN'
p1393
I5
sg1329
(S'DIVIDE'
S'DECREASE'
S'TRIPLE'
S'x'
S'y'
tp1394
sg27
g28
sg1331
L3L
sg1332
(I9
I8
I4
tp1395
sg22
I1
sg20
F2.8684729851665907
sg23
F6.3420223128923681
sVY
L2L
sVX
L3L
sg1334
g1376
sg35
g36
sg37
g38
sg21
S'4'
sg19
S'space'
p1396
sg34
g11
sg1337
L4L
sg1338
g1345
sg1340
L4L
sS'block.thisIndex'
p1397
I5
sg1342
g1365
sg1344
L0L
sg1346
VBUUxy
p1398
sa(dp1399
S'block.thisTrialN'
p1400
I6
sS'block.thisRepN'
p1401
I0
sg29
g33
sS'block.thisN'
p1402
I6
sg1329
(S'DOUBLE'
S'ADD'
S'INCREASE'
S'THIRD'
S'x'
S'y'
tp1403
sg27
g28
sg1331
L4L
sg1332
(I1
I2
I4
I8
tp1404
sg22
I1
sg20
F5.5574198822432663
sg23
F4.6792970378010068
sVY
L2L
sVX
L3L
sg1334
g1367
sg35
g36
sg37
g38
sg21
S'8'
sg19
S'space'
p1405
sg34
g11
sg1337
L8L
sg1338
g1354
sg1340
L8L
sS'block.thisIndex'
p1406
I12
sg1342
g1335
sg1344
g1343
sg1346
g1347
sa(dp1407
S'block.thisTrialN'
p1408
I7
sS'block.thisRepN'
p1409
I0
sg29
g33
sS'block.thisN'
p1410
I7
sg1329
(S'SUBTRACT'
S'DECREASE'
S'x'
S'y'
tp1411
sg27
g28
sg1331
L2L
sg1332
(I5
I3
tp1412
sg22
I1
sg20
F0.91447797353612259
sg23
F3.2701239671150688
sVY
L2L
sVX
L6L
sg1334
L0L
sg35
g36
sg37
g38
sg21
S'3'
sg19
S'space'
p1413
sg34
g11
sg1337
L3L
sg1338
g1345
sg1340
L3L
sS'block.thisIndex'
p1414
I1
sg1342
g1379
sg1344
L0L
sg1346
VBUxy
p1415
sa(dp1416
S'block.thisTrialN'
p1417
I8
sS'block.thisRepN'
p1418
I0
sg29
g33
sS'block.thisN'
p1419
I8
sg1329
(S'INCREASE'
S'SUBTRACT'
S'HALF'
S'x'
S'y'
tp1420
sg27
g28
sg1331
L3L
sg1332
(I4
I2
I3
tp1421
sg22
I1
sg20
F2.0251353391795419
sg23
F5.0770410411059856
sVY
L2L
sVX
L8L
sg1334
g1356
sg35
g36
sg37
g38
sg21
S'3'
sg19
S'space'
p1422
sg34
g11
sg1337
L3L
sg1338
g1379
sg1340
L3L
sS'block.thisIndex'
p1423
I7
sg1342
g1367
sg1344
L0L
sg1346
VUBUxy
p1424
sa(dp1425
S'block.thisTrialN'
p1426
I9
sS'block.thisRepN'
p1427
I0
sg29
g33
sS'block.thisN'
p1428
I9
sg1329
(S'DIVIDE'
S'INCREASE'
S'x'
S'y'
tp1429
sg27
g28
sg1331
L2L
sg1332
(I4
I2
tp1430
sg22
I1
sg20
F2.3696917287597898
sg23
F2.2474558618851006
sVY
L2L
sVX
L3L
sg1334
L0L
sg35
g36
sg37
g38
sg21
S'2'
sg19
S'space'
p1431
sg34
g11
sg1337
L2L
sg1338
g1367
sg1340
L2L
sS'block.thisIndex'
p1432
I0
sg1342
g1365
sg1344
L0L
sg1346
g1415
sa(dp1433
S'block.thisTrialN'
p1434
I10
sS'block.thisRepN'
p1435
I0
sg29
g33
sS'block.thisN'
p1436
I10
sg1329
(S'ADD'
S'DOUBLE'
S'DECREASE'
S'THIRD'
S'x'
S'y'
tp1437
sg27
g28
sg1331
L4L
sg1332
(I2
I1
I2
I8
tp1438
sg22
I1
sg20
F2.8706364518438932
sg23
F8.1606165775156114
sVY
L6L
sVX
L6L
sg1334
g1345
sg35
g36
sg37
g38
sg21
S'8'
sg19
S'space'
p1439
sg34
g11
sg1337
L8L
sg1338
g1335
sg1340
L8L
sS'block.thisIndex'
p1440
I10
sg1342
g1354
sg1344
g1343
sg1346
g1380
sa(dp1441
S'block.thisTrialN'
p1442
I11
sS'block.thisRepN'
p1443
I0
sg29
g33
sS'block.thisN'
p1444
I11
sg1329
(S'HALF'
S'ADD'
S'TRIPLE'
S'x'
S'y'
tp1445
sg27
g28
sg1331
L3L
sg1332
(I9
I12
I6
tp1446
sg22
I0
sg20
F1.7523523588024545
sg23
F11.510034292790806
sVY
L3L
sVX
L3L
sg1334
g1376
sg35
g36
sg37
g38
sg21
S'3'
sg19
S'space'
p1447
sg34
g11
sg1337
L6L
sg1338
g1354
sg1340
L6L
sS'block.thisIndex'
p1448
I6
sg1342
g1356
sg1344
L0L
sg1346
g1424
sa(dp1449
S'block.thisTrialN'
p1450
I12
sS'block.thisRepN'
p1451
I0
sg29
g33
sS'block.thisN'
p1452
I12
sg1329
(S'ADD'
S'HALF'
S'THIRD'
S'x'
S'y'
tp1453
sg27
g28
sg1331
L3L
sg1332
(I2
I1
I9
tp1454
sg22
I1
sg20
F3.6178989596082829
sg23
F4.5492006686981767
sVY
L8L
sVX
L6L
sg1334
g1343
sg35
g36
sg37
g38
sg21
S'9'
sg19
S'space'
p1455
sg34
g11
sg1337
L9L
sg1338
g1356
sg1340
L9L
sS'block.thisIndex'
p1456
I4
sg1342
g1354
sg1344
L0L
sg1346
g1398
sa(dp1457
S'block.thisTrialN'
p1458
I13
sS'block.thisRepN'
p1459
I0
sg29
g33
sS'block.thisN'
p1460
I13
sg1329
(S'INCREASE'
S'TRIPLE'
S'DIVIDE'
S'x'
S'y'
tp1461
sg27
g28
sg1331
L3L
sg1332
(I2
I6
I7
tp1462
sg22
I1
sg20
F4.4537859091942664
sg23
F4.2788317280064803
sVY
L3L
sVX
L6L
sg1334
g1365
sg35
g36
sg37
g38
sg21
S'7'
sg19
S'space'
p1463
sg34
g11
sg1337
L7L
sg1338
g1376
sg1340
L7L
sS'block.thisIndex'
p1464
I8
sg1342
g1367
sg1344
L0L
sg1346
g1358
sa(dp1465
S'block.thisTrialN'
p1466
I14
sS'block.thisRepN'
p1467
I0
sg29
g33
sS'block.thisN'
p1468
I14
sg1329
(S'THIRD'
S'DOUBLE'
S'ADD'
S'DECREASE'
S'x'
S'y'
tp1469
sg27
g28
sg1331
L4L
sg1332
(I5
I12
I24
I8
tp1470
sg22
I1
sg20
F7.3948008207371458
sg23
F14.867689419683302
sVY
L7L
sVX
L6L
sg1334
g1354
sg35
g36
sg37
g38
sg21
S'8'
sg19
S'space'
p1471
sg34
g11
sg1337
L8L
sg1338
g1335
sg1340
L8L
sS'block.thisIndex'
p1472
I14
sg1342
g1343
sg1344
g1345
sg1346
g1369
sa(dp1473
S'block.thisTrialN'
p1474
I15
sS'block.thisRepN'
p1475
I0
sg29
g33
sS'block.thisN'
p1476
I15
sg1329
(S'THIRD'
S'DOUBLE'
S'INCREASE'
S'TIMES'
S'x'
S'y'
tp1477
sg27
g28
sg1331
L4L
sg1332
(I8
I9
I18
I6
tp1478
sg22
I0
sg20
F10.085254655277822
sg23
F11.542641326144803
sVY
L4L
sVX
L2L
sg1334
g1367
sg35
g36
sg37
g38
sg21
S'4'
sg19
S'space'
p1479
sg34
g11
sg1337
L6L
sg1338
g1335
sg1340
L6L
sS'block.thisIndex'
p1480
I17
sg1342
g1343
sg1344
g1339
sg1346
VUUUBxy
p1481
sa(dp1482
S'block.thisTrialN'
p1483
I16
sS'block.thisRepN'
p1484
I0
sg29
g33
sS'block.thisN'
p1485
I16
sg1329
(S'DECREASE'
S'DIVIDE'
S'x'
S'y'
tp1486
sg27
g28
sg1331
L2L
sg1332
(I2
I1
tp1487
sg22
I0
sg20
F1.206424537114799
sg23
F3.050434110686183
sVY
L4L
sVX
L8L
sg1334
L0L
sg35
g36
sg37
g38
sg21
S'3'
sg19
S'space'
p1488
sg34
g11
sg1337
L1L
sg1338
g1365
sg1340
L1L
sS'block.thisIndex'
p1489
I2
sg1342
g1345
sg1344
L0L
sg1346
g1389
sa(dp1490
S'block.thisTrialN'
p1491
I17
sS'block.thisRepN'
p1492
I0
sg29
g33
sS'block.thisN'
p1493
I17
sg1329
(S'HALF'
S'TRIPLE'
S'INCREASE'
S'DIVIDE'
S'x'
S'y'
tp1494
sg27
g28
sg1331
L4L
sg1332
(I3
I4
I12
I6
tp1495
sg22
I1
sg20
F4.0026506141293794
sg23
F4.2767561018408742
sVY
L3L
sVX
L9L
sg1334
g1367
sg35
g36
sg37
g38
sg21
S'6'
sg19
S'space'
p1496
sg34
g11
sg1337
L6L
sg1338
g1376
sg1340
L6L
sS'block.thisIndex'
p1497
I16
sg1342
g1356
sg1344
g1365
sg1346
g1481
sasS'loops'
p1498
(lp1499
g1
(cpsychopy.data
TrialHandler
p1500
g3
NtRp1501
(dp1502
S'origin'
p1503
NsS'thisTrial'
p1504
(lp1505
sS'_exp'
p1506
I327701456
sg10
S'practice_trials'
p1507
sg6
S'C:\\Users\\experimenter\\Desktop\\Experiments\\KRITL\\2. kritl_experimenter.py'
p1508
sS'thisRepN'
p1509
I1
sg24
I01
sg25
g26
sS'data'
p1510
g1
(cpsychopy.data
DataHandler
p1511
c__builtin__
dict
p1512
(dp1513
g15
cnumpy.core.multiarray
_reconstruct
p1514
(cnumpy
ndarray
p1515
(I0
tS'b'
tRp1516
(I1
(I6
I1
tg31
(S'O4'
I0
I1
tRp1517
(I3
S'|'
NNNI-1
I-1
I63
tbI00
(lp1518
(lp1519
F6.9065852747880854
aa(lp1520
F2.8121269620896783
aa(lp1521
F2.9673380226013251
aa(lp1522
F5.4502141943958122
aa(lp1523
F5.49573063547723
aa(lp1524
F15.416950281913159
aatbsg16
g1514
(g1515
(I0
tS'b'
tRp1525
(I1
(I6
I1
tg1517
I00
(lp1526
S'7'
aS'8'
aS'7'
aS'8'
aS'3'
aS'6'
atbsS'ran'
p1527
cnumpy.ma.core
_mareconstruct
p1528
(cnumpy.ma.core
MaskedArray
p1529
g1515
(I0
tp1530
S'b'
tRp1531
(I1
(I6
I1
tg31
(S'f4'
I0
I1
tRp1532
(I3
S'<'
NNNI-1
I-1
I0
tbI00
S'\x00\x00\x80?\x00\x00\x80?\x00\x00\x80?\x00\x00\x80?\x00\x00\x80?\x00\x00\x80?'
S'\x00\x00\x00\x00\x00\x00'
Ntbsg18
g1528
(g1529
g1515
g1530
S'b'
tRp1533
(I1
(I6
I1
tg1532
I00
S'\x8fd\xee?:Z$@mY+@)\xa7!A\x12\xde\x9c@Qe:A'
S'\x00\x00\x00\x00\x00\x00'
Ntbsg14
g1514
(g1515
(I0
tS'b'
tRp1534
(I1
(I6
I1
tg1517
I00
(lp1535
(lp1536
g103
aa(lp1537
g120
aa(lp1538
g73
aa(lp1539
g82
aa(lp1540
g111
aa(lp1541
g94
aatbsS'order'
p1542
g1528
(g1529
g1515
g1530
S'b'
tRp1543
(I1
(I6
I1
tg1532
I00
S'\x00\x00@@\x00\x00\xa0@\x00\x00\x00\x00\x00\x00\x80?\x00\x00\x80@\x00\x00\x00@'
S'\x00\x00\x00\x00\x00\x00'
Ntbsg17
g1528
(g1529
g1515
g1530
S'b'
tRp1544
(I1
(I6
I1
tg1532
I00
S'\x00\x00\x80?\x00\x00\x80?\x00\x00\x80?\x00\x00\x80?\x00\x00\x80?\x00\x00\x00\x00'
S'\x00\x00\x00\x00\x00\x00'
NtbstRp1545
(dp1546
S'isNumeric'
p1547
(dp1548
g16
I00
sg1527
I01
sg18
I01
sg14
I00
sg17
I01
sg1542
I01
sg15
I00
ssS'trials'
p1549
g1501
sS'dataTypes'
p1550
(lp1551
g1527
ag1542
ag14
ag15
ag16
ag17
ag18
asS'dataShape'
p1552
(lp1553
I6
aI1
asbsS'method'
p1554
S'fullRandom'
p1555
sS'sequenceIndices'
p1556
g1514
(g1515
(I0
tS'b'
tRp1557
(I1
(I6
I1
tg1517
I00
(lp1558
I2
aI3
aI5
aI0
aI4
aI1
atbsS'finished'
p1559
I01
sS'nReps'
p1560
I1
sS'nRemaining'
p1561
I-1
sS'trialList'
p1562
(lp1563
g1
(cpsychopy.data
TrialType
p1564
g1512
(dp1565
g47
L0L
sg48
g68
sg49
g99
sg50
L7L
sg53
L2L
sg52
L0L
sg51
L5L
sg54
L3L
stRp1566
ag1
(g1564
g1512
(dp1567
g47
L0L
sg48
g99
sg49
g116
sg50
L8L
sg53
L2L
sg52
L0L
sg51
L3L
sg54
L3L
stRp1568
ag1
(g1564
g1512
(dp1569
g47
L0L
sg48
g68
sg49
g69
sg50
L7L
sg53
L2L
sg52
L0L
sg51
L5L
sg54
L4L
stRp1570
ag1
(g1564
g1512
(dp1571
g47
g68
sg48
g78
sg49
g69
sg50
L8L
sg53
L3L
sg52
L0L
sg51
L2L
sg54
L4L
stRp1572
ag1
(g1564
g1512
(dp1573
g47
g87
sg48
g88
sg49
g91
sg50
L3L
sg53
L3L
sg52
L0L
sg51
L3L
sg54
L2L
stRp1574
ag1
(g1564
g1512
(dp1575
g47
g87
sg48
g88
sg49
g89
sg50
L9L
sg53
L4L
sg52
g91
sg51
L8L
sg54
L8L
stRp1576
asS'seed'
p1577
NsS'thisIndex'
p1578
I1
sS'thisN'
p1579
I6
sS'thisTrialN'
p1580
I0
sS'nTotal'
p1581
I6
sbag1
(g1500
g3
NtRp1582
(dp1583
g1503
Nsg1504
(lp1584
sg1506
I327701456
sg10
S'block'
p1585
sg6
g1508
sg1509
I1
sg24
I01
sg25
g26
sg1510
g1
(g1511
g1512
(dp1586
g22
g1528
(g1529
g1515
g1530
S'b'
tRp1587
(I1
(I18
I1
tg1532
I00
S'\x00\x00\x80?\x00\x00\x80?\x00\x00\x80?\x00\x00\x00\x00\x00\x00\x80?\x00\x00\x80?\x00\x00\x00\x00\x00\x00\x80?\x00\x00\x00\x00\x00\x00\x80?\x00\x00\x80?\x00\x00\x00\x00\x00\x00\x80?\x00\x00\x80?\x00\x00\x80?\x00\x00\x80?\x00\x00\x80?\x00\x00\x80?'
S'\x00\x00\x00\x00\x00\x00\x00\x00\x00\x00\x00\x00\x00\x00\x00\x00\x00\x00'
Ntbsg19
g1514
(g1515
(I0
tS'b'
tRp1588
(I1
(I18
I1
tg1517
I00
(lp1589
g143
ag235
ag277
ag243
ag191
ag227
ag200
ag175
ag166
ag261
ag154
aNag252
ag217
ag285
ag131
ag208
ag269
atbsg23
g1528
(g1529
g1515
g1530
S'b'
tRp1590
(I1
(I18
I1
tg1532
I00
S'n\xb6\xdd?\xb0\x9b\x02@\x93\x89\xec?Z\xb3\x1aAf`\xae@\xec\x0bt@[\x9fKA\x1f<\x96@\x12O\x90A\xa8\xe1\xb4@rKz@\x00\x00\x00\x008\xa2\x0cAs|\xcd@o\x8c\xe1@\xa9\xdb\xc3@\xdf\n\xa7@V\x01\x1bA'
S'\x00\x00\x00\x00\x00\x00\x00\x00\x00\x00\x00\x01\x00\x00\x00\x00\x00\x00'
Ntbsg1527
g1528
(g1529
g1515
g1530
S'b'
tRp1591
(I1
(I18
I1
tg1532
I00
S'\x00\x00\x80?\x00\x00\x80?\x00\x00\x80?\x00\x00\x80?\x00\x00\x80?\x00\x00\x80?\x00\x00\x80?\x00\x00\x80?\x00\x00\x80?\x00\x00\x80?\x00\x00\x80?\x00\x00\x80?\x00\x00\x80?\x00\x00\x80?\x00\x00\x80?\x00\x00\x80?\x00\x00\x80?\x00\x00\x80?'
S'\x00\x00\x00\x00\x00\x00\x00\x00\x00\x00\x00\x00\x00\x00\x00\x00\x00\x00'
Ntbsg21
g1514
(g1515
(I0
tS'b'
tRp1592
(I1
(I18
I1
tg1517
I00
(lp1593
S'8'
aS'2'
aS'2'
aS'6'
aS'1'
aS'2'
aS'3'
aS'2'
aS'2'
aS'6'
aS'7'
aNaS'9'
aS'7'
aS'3'
aS'6'
aS'5'
aS'4'
atbsg1542
g1528
(g1529
g1515
g1530
S'b'
tRp1594
(I1
(I18
I1
tg1532
I00
S'\x00\x00\x80?\x00\x000A\x00\x00\x80A\x00\x00@A\x00\x00\xc0@\x00\x00 A\x00\x00\xe0@\x00\x00\x80@\x00\x00@@\x00\x00`A\x00\x00\x00@\x00\x00\xa0@\x00\x00PA\x00\x00\x10A\x00\x00\x88A\x00\x00\x00\x00\x00\x00\x00A\x00\x00pA'
S'\x00\x00\x00\x00\x00\x00\x00\x00\x00\x00\x00\x00\x00\x00\x00\x00\x00\x00'
Ntbsg20
g1528
(g1529
g1515
g1530
S'b'
tRp1595
(I1
(I18
I1
tg1532
I00
S'wj\x91@\x8a*"@\x81c\xb6?#\xbf\xba?\x1e\xa0\x87@\xcbG\x84@\x1c\xab\xc1@q\xa7\xc1@\x05U\xc5@\xb3\xa9Y@O\xfa\x07A\x00\x00\x00\x00c\x13"A\x92\xc9)A\x05\xe3"A\x1c\xc7cA\x8f7HAH\xe9/A'
S'\x00\x00\x00\x00\x00\x00\x00\x00\x00\x00\x00\x01\x00\x00\x00\x00\x00\x00'
NtbstRp1596
(dp1597
g1547
(dp1598
g1527
I01
sg21
I00
sg20
I01
sg22
I01
sg19
I00
sg23
I01
sg1542
I01
ssg1549
g1582
sg1550
(lp1599
g1527
ag1542
ag19
ag20
ag21
ag22
ag23
asg1552
(lp1600
I18
aI1
asbsg1554
g1555
sg1556
g1514
(g1515
(I0
tS'b'
tRp1601
(I1
(I18
I1
tg1517
I00
(lp1602
I15
aI0
aI10
aI8
aI7
aI11
aI4
aI6
aI16
aI13
aI5
aI1
aI3
aI12
aI9
aI17
aI2
aI14
atbsg1559
I01
sg1560
I1
sg1561
I-1
sg1562
(lp1603
g1
(g1564
g1512
(dp1604
g55
g141
sVY
L4L
sg57
L2L
sg58
g142
sg59
L8L
sg60
L8L
sg56
g134
sVX
L2L
sg61
L0L
sg62
g145
sg63
L0L
sg64
g146
stRp1605
ag1
(g1564
g1512
(dp1606
g55
g233
sVY
L6L
sg57
L2L
sg58
g234
sg59
L2L
sg60
L2L
sg56
g134
sVX
L6L
sg61
L0L
sg62
g130
sg63
L0L
sg64
g146
stRp1607
ag1
(g1564
g1512
(dp1608
g55
g275
sVY
L7L
sg57
L2L
sg58
g276
sg59
L2L
sg60
L2L
sg56
g165
sVX
L8L
sg61
L0L
sg62
g134
sg63
L0L
sg64
g245
stRp1609
ag1
(g1564
g1512
(dp1610
g55
g241
sVY
L4L
sg57
L2L
sg58
g242
sg59
L8L
sg60
L8L
sg56
g218
sVX
L4L
sg61
L0L
sg62
g157
sg63
L0L
sg64
g245
stRp1611
ag1
(g1564
g1512
(dp1612
g55
g189
sVY
L4L
sg57
L3L
sg58
g190
sg59
L1L
sg60
L1L
sg56
g134
sVX
L6L
sg61
g155
sg62
g130
sg63
L0L
sg64
g193
stRp1613
ag1
(g1564
g1512
(dp1614
g55
g225
sVY
L4L
sg57
L3L
sg58
g226
sg59
L2L
sg60
L2L
sg56
g157
sVX
L4L
sg61
g132
sg62
g165
sg63
L0L
sg64
g193
stRp1615
ag1
(g1564
g1512
(dp1616
g55
g198
sVY
L7L
sg57
L3L
sg58
g199
sg59
L1L
sg60
L1L
sg56
g165
sVX
L3L
sg61
g132
sg62
g157
sg63
L0L
sg64
g177
stRp1617
ag1
(g1564
g1512
(dp1618
g55
g173
sVY
L3L
sg57
L3L
sg58
g174
sg59
L2L
sg60
L2L
sg56
g130
sVX
L9L
sg61
g155
sg62
g153
sg63
L0L
sg64
g177
stRp1619
ag1
(g1564
g1512
(dp1620
g55
g163
sVY
L2L
sg57
L3L
sg58
g164
sg59
L8L
sg60
L8L
sg56
g135
sVX
L7L
sg61
g165
sg62
g134
sg63
L0L
sg64
g168
stRp1621
ag1
(g1564
g1512
(dp1622
g55
g259
sVY
L3L
sg57
L3L
sg58
g260
sg59
L6L
sg60
L6L
sg56
g132
sVX
L4L
sg61
g165
sg62
g134
sg63
L0L
sg64
g168
stRp1623
ag1
(g1564
g1512
(dp1624
g55
g151
sVY
L6L
sg57
L4L
sg58
g152
sg59
L7L
sg60
L7L
sg56
g155
sVX
L4L
sg61
g153
sg62
g145
sg63
g157
sg64
g158
stRp1625
ag1
(g1564
g1512
(dp1626
g55
g182
sVY
L5L
sg57
L4L
sg58
g183
sg59
L1L
sg60
L1L
sg56
g153
sVX
L6L
sg61
g134
sg62
g130
sg63
g155
sg64
g158
stRp1627
ag1
(g1564
g1512
(dp1628
g55
g250
sVY
L4L
sg57
L4L
sg58
g251
sg59
L9L
sg60
L9L
sg56
g145
sVX
L9L
sg61
g134
sg62
g254
sg63
g155
sg64
g220
stRp1629
ag1
(g1564
g1512
(dp1630
g55
g215
sVY
L4L
sg57
L4L
sg58
g216
sg59
L7L
sg60
L7L
sg56
g218
sVX
L3L
sg61
g134
sg62
g135
sg63
g155
sg64
g220
stRp1631
ag1
(g1564
g1512
(dp1632
g55
g283
sVY
L6L
sg57
L4L
sg58
g284
sg59
L3L
sg60
L3L
sg56
g155
sVX
L4L
sg61
g218
sg62
g135
sg63
g157
sg64
g136
stRp1633
ag1
(g1564
g1512
(dp1634
g55
g128
sVY
L8L
sg57
L4L
sg58
g129
sg59
L6L
sg60
L6L
sg56
g132
sVX
L9L
sg61
g130
sg62
g134
sg63
g135
sg64
g136
stRp1635
ag1
(g1564
g1512
(dp1636
g55
g206
sVY
L2L
sg57
L4L
sg58
g207
sg59
L5L
sg60
L5L
sg56
g157
sVX
L8L
sg61
g132
sg62
g135
sg63
g130
sg64
g210
stRp1637
ag1
(g1564
g1512
(dp1638
g55
g267
sVY
L4L
sg57
L4L
sg58
g268
sg59
L4L
sg60
L4L
sg56
g135
sVX
L4L
sg61
g132
sg62
g134
sg63
g130
sg64
g210
stRp1639
asg1577
Nsg1578
I14
sg1579
I18
sg1580
I0
sg1581
I18
sbag1
(g1500
g3
NtRp1640
(dp1641
g1503
Nsg1504
(lp1642
sg1506
I327701456
sg10
g1585
sg6
g1508
sg1509
I1
sg24
I01
sg25
g26
sg1510
g1
(g1511
g1512
(dp1643
g22
g1528
(g1529
g1515
g1530
S'b'
tRp1644
(I1
(I18
I1
tg1532
I00
S'\x00\x00\x80?\x00\x00\x80?\x00\x00\x80?\x00\x00\x80?\x00\x00\x80?\x00\x00\x80?\x00\x00\x80?\x00\x00\x80?\x00\x00\x80?\x00\x00\x80?\x00\x00\x00\x00\x00\x00\x00\x00\x00\x00\x80?\x00\x00\x00\x00\x00\x00\x00\x00\x00\x00\x80?\x00\x00\x80?\x00\x00\x80?'
S'\x00\x00\x00\x00\x00\x00\x00\x00\x00\x00\x00\x00\x00\x00\x00\x00\x00\x00'
Ntbsg19
g1514
(g1515
(I0
tS'b'
tRp1645
(I1
(I18
I1
tg1517
I00
(lp1646
g458
ag384
ag393
ag316
ag345
ag426
ag374
ag418
ag401
ag410
ag298
ag450
ag337
ag327
ag442
ag355
ag434
ag365
atbsg23
g1528
(g1529
g1515
g1530
S'b'
tRp1647
(I1
(I18
I1
tg1532
I00
S'h\xc3*@\xe2\xbe\xd5@\xee\xc4\x02@ \xea\x13@\xcd\xe9\xf9@#c\x84@\xe9\xebs@\x80Yz@\xc36<A\xcf\xff\xf1@\xd9,\x86A\x94\x1f\x18ArqkA:\x1b5A8\t\x86A\x10\xfdzA\x9d\xde\x02A\xec\xfa\xa2@'
S'\x00\x00\x00\x00\x00\x00\x00\x00\x00\x00\x00\x00\x00\x00\x00\x00\x00\x00'
Ntbsg1527
g1528
(g1529
g1515
g1530
S'b'
tRp1648
(I1
(I18
I1
tg1532
I00
S'\x00\x00\x80?\x00\x00\x80?\x00\x00\x80?\x00\x00\x80?\x00\x00\x80?\x00\x00\x80?\x00\x00\x80?\x00\x00\x80?\x00\x00\x80?\x00\x00\x80?\x00\x00\x80?\x00\x00\x80?\x00\x00\x80?\x00\x00\x80?\x00\x00\x80?\x00\x00\x80?\x00\x00\x80?\x00\x00\x80?'
S'\x00\x00\x00\x00\x00\x00\x00\x00\x00\x00\x00\x00\x00\x00\x00\x00\x00\x00'
Ntbsg21
g1514
(g1515
(I0
tS'b'
tRp1649
(I1
(I18
I1
tg1517
I00
(lp1650
S'7'
aS'2'
aS'8'
aS'8'
aS'4'
aS'4'
aS'9'
aS'2'
aS'5'
aS'1'
aS'7'
aS'6'
aS'3'
aS'6'
aS'9'
aS'6'
aS'8'
aS'3'
atbsg1542
g1528
(g1529
g1515
g1530
S'b'
tRp1651
(I1
(I18
I1
tg1532
I00
S'\x00\x00\x88A\x00\x00\x00A\x00\x00\x10A\x00\x00\x80?\x00\x00\x80@\x00\x00PA\x00\x00\xe0@\x00\x00@A\x00\x00 A\x00\x000A\x00\x00\x00\x00\x00\x00\x80A\x00\x00@@\x00\x00\x00@\x00\x00pA\x00\x00\xa0@\x00\x00`A\x00\x00\xc0@'
S'\x00\x00\x00\x00\x00\x00\x00\x00\x00\x00\x00\x00\x00\x00\x00\x00\x00\x00'
Ntbsg20
g1528
(g1529
g1515
g1530
S'b'
tRp1652
(I1
(I18
I1
tg1532
I00
S'L\xa0\x15@\x8a\xcd\xc0??\xc5\x95?b\x7f\xa0?Q\xb2\xc6@\xac2\xaf@\xec&\x92@\xa0G]@>\xa2\xbc?\xe1u8@w6=A\xb9 \xed@\x00\\CA:\xcaJA\x00\xf3\x0cA\r\xc5\x86@\x9d\xa2,A\xb0\xae\x9a@'
S'\x00\x00\x00\x00\x00\x00\x00\x00\x00\x00\x00\x00\x00\x00\x00\x00\x00\x00'
NtbstRp1653
(dp1654
g1547
(dp1655
g1527
I01
sg21
I00
sg20
I01
sg22
I01
sg19
I00
sg23
I01
sg1542
I01
ssg1549
g1640
sg1550
(lp1656
g1527
ag1542
ag19
ag20
ag21
ag22
ag23
asg1552
(lp1657
I18
aI1
asbsg1554
g1555
sg1556
g1514
(g1515
(I0
tS'b'
tRp1658
(I1
(I18
I1
tg1517
I00
(lp1659
I10
aI3
aI13
aI12
aI4
aI15
aI17
aI6
aI1
aI2
aI8
aI9
aI7
aI5
aI16
aI14
aI11
aI0
atbsg1559
I01
sg1560
I1
sg1561
I-1
sg1562
(lp1660
g1
(g1564
g1512
(dp1661
g291
g456
sVY
L6L
sg293
L2L
sg294
g457
sg302
L7L
sg299
L7L
sg300
g307
sVX
L3L
sg296
L0L
sg304
g375
sg306
L0L
sg308
g386
stRp1662
ag1
(g1564
g1512
(dp1663
g291
g382
sVY
L4L
sg293
L2L
sg294
g383
sg302
L2L
sg299
L2L
sg300
g297
sVX
L5L
sg296
L0L
sg304
g354
sg306
L0L
sg308
g386
stRp1664
ag1
(g1564
g1512
(dp1665
g291
g391
sVY
L2L
sg293
L2L
sg294
g392
sg302
L8L
sg299
L8L
sg300
g375
sVX
L2L
sg296
L0L
sg304
g301
sg306
L0L
sg308
g319
stRp1666
ag1
(g1564
g1512
(dp1667
g291
g314
sVY
L2L
sg293
L2L
sg294
g315
sg302
L8L
sg299
L8L
sg300
g317
sVX
L2L
sg296
L0L
sg304
g301
sg306
L0L
sg308
g319
stRp1668
ag1
(g1564
g1512
(dp1669
g291
g343
sVY
L3L
sg293
L3L
sg294
g344
sg302
L4L
sg299
L4L
sg300
g336
sVX
L8L
sg296
g326
sg304
g305
sg306
L0L
sg308
g347
stRp1670
ag1
(g1564
g1512
(dp1671
g291
g424
sVY
L2L
sg293
L3L
sg294
g425
sg302
L4L
sg299
L4L
sg300
g307
sVX
L3L
sg296
g301
sg304
g317
sg306
L0L
sg308
g347
stRp1672
ag1
(g1564
g1512
(dp1673
g291
g372
sVY
L2L
sg293
L3L
sg294
g373
sg302
L9L
sg299
L9L
sg300
g375
sVX
L2L
sg296
g336
sg304
g297
sg306
L0L
sg308
g377
stRp1674
ag1
(g1564
g1512
(dp1675
g291
g416
sVY
L2L
sg293
L3L
sg294
g417
sg302
L2L
sg299
L2L
sg300
g354
sVX
L9L
sg296
g307
sg304
g297
sg306
L0L
sg308
g377
stRp1676
ag1
(g1564
g1512
(dp1677
g291
g399
sVY
L4L
sg293
L3L
sg294
g400
sg302
L5L
sg299
L5L
sg300
g336
sVX
L8L
sg296
g305
sg304
g357
sg306
L0L
sg308
g403
stRp1678
ag1
(g1564
g1512
(dp1679
g291
g408
sVY
L6L
sg293
L3L
sg294
g409
sg302
L1L
sg299
L1L
sg300
g297
sVX
L8L
sg296
g354
sg304
g307
sg306
L0L
sg308
g403
stRp1680
ag1
(g1564
g1512
(dp1681
g291
g292
sVY
L3L
sg293
L4L
sg294
g295
sg302
L2L
sg299
L2L
sg300
g301
sVX
L6L
sg296
g297
sg304
g305
sg306
g307
sg308
g309
stRp1682
ag1
(g1564
g1512
(dp1683
g291
g448
sVY
L2L
sg293
L4L
sg294
g449
sg302
L8L
sg299
L8L
sg300
g297
sVX
L2L
sg296
g326
sg304
g317
sg306
g336
sg308
g309
stRp1684
ag1
(g1564
g1512
(dp1685
g291
g334
sVY
L3L
sg293
L4L
sg294
g335
sg302
L3L
sg299
L3L
sg300
g305
sVX
L4L
sg296
g336
sg304
g297
sg306
g326
sg308
g329
stRp1686
ag1
(g1564
g1512
(dp1687
g291
g324
sVY
L3L
sg293
L4L
sg294
g325
sg302
L4L
sg299
L4L
sg300
g317
sVX
L7L
sg296
g326
sg304
g307
sg306
g297
sg308
g329
stRp1688
ag1
(g1564
g1512
(dp1689
g291
g440
sVY
L4L
sg293
L4L
sg294
g441
sg302
L7L
sg299
L7L
sg300
g297
sVX
L8L
sg296
g375
sg304
g307
sg306
g301
sg308
g358
stRp1690
ag1
(g1564
g1512
(dp1691
g291
g352
sVY
L3L
sg293
L4L
sg294
g353
sg302
L6L
sg299
L6L
sg300
g301
sVX
L5L
sg296
g354
sg304
g336
sg306
g357
sg308
g358
stRp1692
ag1
(g1564
g1512
(dp1693
g291
g432
sVY
L2L
sg293
L4L
sg294
g433
sg302
L8L
sg299
L8L
sg300
g336
sVX
L4L
sg296
g326
sg304
g357
sg306
g375
sg308
g367
stRp1694
ag1
(g1564
g1512
(dp1695
g291
g363
sVY
L5L
sg293
L4L
sg294
g364
sg302
L3L
sg299
L3L
sg300
g357
sVX
L9L
sg296
g326
sg304
g336
sg306
g354
sg308
g367
stRp1696
asg1577
Nsg1578
I0
sg1579
I18
sg1580
I0
sg1581
I18
sbag1
(g1500
g3
NtRp1697
(dp1698
g1503
Nsg1504
(lp1699
sg1506
I327701456
sg10
g1585
sg6
g1508
sg1509
I1
sg24
I01
sg25
g26
sg1510
g1
(g1511
g1512
(dp1700
g22
g1528
(g1529
g1515
g1530
S'b'
tRp1701
(I1
(I18
I1
tg1532
I00
S'\x00\x00\x80?\x00\x00\x80?\x00\x00\x80?\x00\x00\x80?\x00\x00\x00\x00\x00\x00\x80?\x00\x00\x80?\x00\x00\x80?\x00\x00\x80?\x00\x00\x80?\x00\x00\x80?\x00\x00\x00\x00\x00\x00\x00\x00\x00\x00\x80?\x00\x00\x00\x00\x00\x00\x80?\x00\x00\x80?\x00\x00\x00\x00'
S'\x00\x00\x00\x00\x00\x00\x00\x00\x00\x00\x00\x00\x00\x00\x00\x00\x00\x00'
Ntbsg19
g1514
(g1515
(I0
tS'b'
tRp1702
(I1
(I18
I1
tg1517
I00
(lp1703
g565
ag510
ag615
ag598
ag500
ag529
ag590
ag519
ag607
ag556
ag471
ag547
ag581
ag631
ag623
ag490
ag537
ag573
atbsg23
g1528
(g1529
g1515
g1530
S'b'
tRp1704
(I1
(I18
I1
tg1532
I00
S'\xa7\x881@\xc67\x01@LO&@\x87\x08&@.\xb59A\xccJ\x81@\x9d\xc1\x84@\x87P\x9e@\xf8U\xd5@\x14R\xca@\xdf\xab\xd6@\xb2\\7Au\x89\x90A\xf8z\xce@\x1f\xdf\xdb@\x85\x83\xa9@\x10rX@?Z\xe1@'
S'\x00\x00\x00\x00\x00\x00\x00\x00\x00\x00\x00\x00\x00\x00\x00\x00\x00\x00'
Ntbsg1527
g1528
(g1529
g1515
g1530
S'b'
tRp1705
(I1
(I18
I1
tg1532
I00
S'\x00\x00\x80?\x00\x00\x80?\x00\x00\x80?\x00\x00\x80?\x00\x00\x80?\x00\x00\x80?\x00\x00\x80?\x00\x00\x80?\x00\x00\x80?\x00\x00\x80?\x00\x00\x80?\x00\x00\x80?\x00\x00\x80?\x00\x00\x80?\x00\x00\x80?\x00\x00\x80?\x00\x00\x80?\x00\x00\x80?'
S'\x00\x00\x00\x00\x00\x00\x00\x00\x00\x00\x00\x00\x00\x00\x00\x00\x00\x00'
Ntbsg21
g1514
(g1515
(I0
tS'b'
tRp1706
(I1
(I18
I1
tg1517
I00
(lp1707
S'4'
aS'6'
aS'3'
aS'1'
aS'5'
aS'5'
aS'5'
aS'5'
aS'8'
aS'3'
aS'3'
aS'3'
aS'2'
aS'3'
aS'4'
aS'6'
aS'1'
aS'3'
atbsg1542
g1528
(g1529
g1515
g1530
S'b'
tRp1708
(I1
(I18
I1
tg1532
I00
S'\x00\x00\x10A\x00\x00@@\x00\x00pA\x00\x00PA\x00\x00\x00@\x00\x00\xa0@\x00\x00@A\x00\x00\x80@\x00\x00`A\x00\x00\x00A\x00\x00\x00\x00\x00\x00\xe0@\x00\x000A\x00\x00\x88A\x00\x00\x80A\x00\x00\x80?\x00\x00\xc0@\x00\x00 A'
S'\x00\x00\x00\x00\x00\x00\x00\x00\x00\x00\x00\x00\x00\x00\x00\x00\x00\x00'
Ntbsg20
g1528
(g1529
g1515
g1530
S'b'
tRp1709
(I1
(I18
I1
tg1532
I00
S'YT\xa6?\x0bw\x00@\xa8\xe0\x1f@.\xa8\xe6?\xa3:\x99@-Q\x02@\xa7\x81\xa3@9\x83\xc9?\xe04R@"\xd4\x10@4G\xe3@\xf0\xdf*A\x7f\xca\nA\xff"-A\rjnA\x0b\x85\xf7@\xfe\xdd\xb6@W\xadb@'
S'\x00\x00\x00\x00\x00\x00\x00\x00\x00\x00\x00\x00\x00\x00\x00\x00\x00\x00'
NtbstRp1710
(dp1711
g1547
(dp1712
g1527
I01
sg21
I00
sg20
I01
sg22
I01
sg19
I00
sg23
I01
sg1542
I01
ssg1549
g1697
sg1550
(lp1713
g1527
ag1542
ag19
ag20
ag21
ag22
ag23
asg1552
(lp1714
I18
aI1
asbsg1554
g1555
sg1556
g1514
(g1515
(I0
tS'b'
tRp1715
(I1
(I18
I1
tg1517
I00
(lp1716
I10
aI15
aI4
aI1
aI7
aI5
aI16
aI11
aI9
aI0
aI17
aI12
aI6
aI3
aI8
aI2
aI14
aI13
atbsg1559
I01
sg1560
I1
sg1561
I-1
sg1562
(lp1717
g1
(g1564
g1512
(dp1718
g464
g563
sVY
L2L
sg466
L2L
sg467
g564
sg475
L4L
sg472
L4L
sg473
g492
sVX
L3L
sg469
L0L
sg477
g502
sg479
L0L
sg481
g512
stRp1719
ag1
(g1564
g1512
(dp1720
g464
g508
sVY
L2L
sg466
L2L
sg467
g509
sg475
L6L
sg472
L6L
sg473
g470
sVX
L2L
sg469
L0L
sg477
g502
sg479
L0L
sg481
g512
stRp1721
ag1
(g1564
g1512
(dp1722
g464
g613
sVY
L5L
sg466
L2L
sg467
g614
sg475
L3L
sg472
L3L
sg473
g489
sVX
L4L
sg469
L0L
sg477
g521
sg479
L0L
sg481
g600
stRp1723
ag1
(g1564
g1512
(dp1724
g464
g596
sVY
L2L
sg466
L2L
sg467
g597
sg475
L1L
sg472
L1L
sg473
g478
sVX
L5L
sg469
L0L
sg477
g521
sg479
L0L
sg481
g600
stRp1725
ag1
(g1564
g1512
(dp1726
g464
g498
sVY
L3L
sg466
L3L
sg467
g499
sg475
L9L
sg472
L9L
sg473
g492
sVX
L8L
sg469
g474
sg477
g502
sg479
L0L
sg481
g503
stRp1727
ag1
(g1564
g1512
(dp1728
g464
g527
sVY
L5L
sg466
L3L
sg467
g528
sg475
L5L
sg472
L5L
sg473
g521
sVX
L6L
sg469
g474
sg477
g502
sg479
L0L
sg481
g503
stRp1729
ag1
(g1564
g1512
(dp1730
g464
g588
sVY
L7L
sg466
L3L
sg467
g589
sg475
L5L
sg472
L5L
sg473
g489
sVX
L7L
sg469
g470
sg477
g521
sg479
L0L
sg481
g522
stRp1731
ag1
(g1564
g1512
(dp1732
g464
g517
sVY
L5L
sg466
L3L
sg467
g518
sg475
L5L
sg472
L5L
sg473
g502
sVX
L4L
sg469
g492
sg477
g521
sg479
L0L
sg481
g522
stRp1733
ag1
(g1564
g1512
(dp1734
g464
g605
sVY
L5L
sg466
L3L
sg467
g606
sg475
L8L
sg472
L8L
sg473
g492
sVX
L5L
sg469
g502
sg477
g521
sg479
L0L
sg481
g558
stRp1735
ag1
(g1564
g1512
(dp1736
g464
g554
sVY
L2L
sg466
L3L
sg467
g555
sg475
L3L
sg472
L3L
sg473
g474
sVX
L4L
sg469
g539
sg477
g480
sg479
L0L
sg481
g558
stRp1737
ag1
(g1564
g1512
(dp1738
g464
g465
sVY
L5L
sg466
L4L
sg467
g468
sg475
L3L
sg472
L3L
sg473
g474
sVX
L5L
sg469
g470
sg477
g478
sg479
g480
sg481
g482
stRp1739
ag1
(g1564
g1512
(dp1740
g464
g545
sVY
L3L
sg466
L4L
sg467
g546
sg475
L9L
sg472
L9L
sg473
g470
sVX
L3L
sg469
g521
sg477
g502
sg479
g549
sg481
g482
stRp1741
ag1
(g1564
g1512
(dp1742
g464
g579
sVY
L6L
sg466
L4L
sg467
g580
sg475
L4L
sg472
L4L
sg473
g539
sVX
L3L
sg469
g480
sg477
g470
sg479
g549
sg481
g583
stRp1743
ag1
(g1564
g1512
(dp1744
g464
g629
sVY
L3L
sg466
L4L
sg467
g630
sg475
L3L
sg472
L3L
sg473
g478
sVX
L3L
sg469
g549
sg477
g480
sg479
g492
sg481
g583
stRp1745
ag1
(g1564
g1512
(dp1746
g464
g621
sVY
L2L
sg466
L4L
sg467
g622
sg475
L8L
sg472
L8L
sg473
g549
sVX
L9L
sg469
g489
sg477
g521
sg479
g470
sg481
g493
stRp1747
ag1
(g1564
g1512
(dp1748
g464
g487
sVY
L3L
sg466
L4L
sg467
g488
sg475
L6L
sg472
L6L
sg473
g474
sVX
L2L
sg469
g489
sg477
g480
sg479
g492
sg481
g493
stRp1749
ag1
(g1564
g1512
(dp1750
g464
g535
sVY
L2L
sg466
L4L
sg467
g536
sg475
L1L
sg472
L1L
sg473
g470
sVX
L8L
sg469
g474
sg477
g521
sg479
g539
sg481
g540
stRp1751
ag1
(g1564
g1512
(dp1752
g464
g571
sVY
L2L
sg466
L4L
sg467
g572
sg475
L6L
sg472
L6L
sg473
g492
sVX
L3L
sg469
g474
sg477
g480
sg479
g502
sg481
g540
stRp1753
asg1577
Nsg1578
I13
sg1579
I18
sg1580
I0
sg1581
I18
sbag1
(g1500
g3
NtRp1754
(dp1755
g1503
Nsg1504
(lp1756
sg1506
I327701456
sg10
g1585
sg6
g1508
sg1509
I1
sg24
I01
sg25
g26
sg1510
g1
(g1511
g1512
(dp1757
g22
g1528
(g1529
g1515
g1530
S'b'
tRp1758
(I1
(I18
I1
tg1532
I00
S'\x00\x00\x80?\x00\x00\x80?\x00\x00\x80?\x00\x00\x80?\x00\x00\x80?\x00\x00\x00\x00\x00\x00\x80?\x00\x00\x00\x00\x00\x00\x80?\x00\x00\x80?\x00\x00\x00\x00\x00\x00\x80?\x00\x00\x80?\x00\x00\x80?\x00\x00\x80?\x00\x00\x80?\x00\x00\x80?\x00\x00\x80?'
S'\x00\x00\x00\x00\x00\x00\x00\x00\x00\x00\x00\x00\x00\x00\x00\x00\x00\x00'
Ntbsg19
g1514
(g1515
(I0
tS'b'
tRp1759
(I1
(I18
I1
tg1517
I00
(lp1760
g682
ag701
ag763
ag672
ag738
ag755
ag796
ag779
ag644
ag788
ag771
ag719
ag804
ag709
ag662
ag692
ag747
ag729
atbsg23
g1528
(g1529
g1515
g1530
S'b'
tRp1761
(I1
(I18
I1
tg1532
I00
S'\x1e\xb0\x11@e\xcc\x14@\x9aR\xbd@\xff\x83\x8b@\xb8I\x9e@\tg\x96@\xba\x06\xa4@lU\xd8@\xa8\xe5\x1a@\xaa\x13\x8d@\xc0\xef%A\xedWJA\xfe\xb1\x9b@\xf4\t\xfb@\xe5\x91\xcf@c4\xfc@\xa6L\xb2@\x92u\x19A'
S'\x00\x00\x00\x00\x00\x00\x00\x00\x00\x00\x00\x00\x00\x00\x00\x00\x00\x00'
Ntbsg1527
g1528
(g1529
g1515
g1530
S'b'
tRp1762
(I1
(I18
I1
tg1532
I00
S'\x00\x00\x80?\x00\x00\x80?\x00\x00\x80?\x00\x00\x80?\x00\x00\x80?\x00\x00\x80?\x00\x00\x80?\x00\x00\x80?\x00\x00\x80?\x00\x00\x80?\x00\x00\x80?\x00\x00\x80?\x00\x00\x80?\x00\x00\x80?\x00\x00\x80?\x00\x00\x80?\x00\x00\x80?\x00\x00\x80?'
S'\x00\x00\x00\x00\x00\x00\x00\x00\x00\x00\x00\x00\x00\x00\x00\x00\x00\x00'
Ntbsg21
g1514
(g1515
(I0
tS'b'
tRp1763
(I1
(I18
I1
tg1517
I00
(lp1764
S'1'
aS'8'
aS'4'
aS'1'
aS'3'
aS'6'
aS'1'
aS'3'
aS'6'
aS'8'
aS'5'
aS'1'
aS'6'
aS'7'
aS'5'
aS'5'
aS'5'
aS'3'
atbsg1542
g1528
(g1529
g1515
g1530
S'b'
tRp1765
(I1
(I18
I1
tg1532
I00
S'\x00\x00@@\x00\x00\xa0@\x00\x00@A\x00\x00\x00@\x00\x00\x10A\x00\x000A\x00\x00\x80A\x00\x00`A\x00\x00\x00\x00\x00\x00pA\x00\x00PA\x00\x00\xe0@\x00\x00\x88A\x00\x00\xc0@\x00\x00\x80?\x00\x00\x80@\x00\x00 A\x00\x00\x00A'
S'\x00\x00\x00\x00\x00\x00\x00\x00\x00\x00\x00\x00\x00\x00\x00\x00\x00\x00'
Ntbsg20
g1528
(g1529
g1515
g1530
S'b'
tRp1766
(I1
(I18
I1
tg1532
I00
S'\xd8K @}\x95\xcd?!\xd1\xa7?\xbdZ\xae?\xa1\xec\x11@f?\x83@\x8e\xcd\xe1??\x8f\xa0?]\x1d=@\xbb\x18\x04@\x00\xb5i@q\xf5l@V\xee\xb4@\x7ff\xb5@1o\x0fA\x7f-\xc1@\xe8r\x01@\xdb\xa9\x18@'
S'\x00\x00\x00\x00\x00\x00\x00\x00\x00\x00\x00\x00\x00\x00\x00\x00\x00\x00'
NtbstRp1767
(dp1768
g1547
(dp1769
g1527
I01
sg21
I00
sg20
I01
sg22
I01
sg19
I00
sg23
I01
sg1542
I01
ssg1549
g1754
sg1550
(lp1770
g1527
ag1542
ag19
ag20
ag21
ag22
ag23
asg1552
(lp1771
I18
aI1
asbsg1554
g1555
sg1556
g1514
(g1515
(I0
tS'b'
tRp1772
(I1
(I18
I1
tg1517
I00
(lp1773
I8
aI14
aI3
aI0
aI15
aI1
aI13
aI11
aI17
aI4
aI16
aI5
aI2
aI10
aI7
aI9
aI6
aI12
atbsg1559
I01
sg1560
I1
sg1561
I-1
sg1562
(lp1774
g1
(g1564
g1512
(dp1775
g637
g680
sVY
L3L
sg639
L2L
sg640
g681
sg648
L1L
sg645
L1L
sg646
g674
sVX
L9L
sg642
L0L
sg650
g661
sg652
L0L
sg653
g684
stRp1776
ag1
(g1564
g1512
(dp1777
g637
g699
sVY
L2L
sg639
L2L
sg640
g700
sg648
L8L
sg645
L8L
sg646
g651
sVX
L2L
sg642
L0L
sg650
g691
sg652
L0L
sg653
g684
stRp1778
ag1
(g1564
g1512
(dp1779
g637
g761
sVY
L3L
sg639
L2L
sg640
g762
sg648
L4L
sg645
L4L
sg646
g721
sVX
L6L
sg642
L0L
sg650
g711
sg652
L0L
sg653
g675
stRp1780
ag1
(g1564
g1512
(dp1781
g637
g670
sVY
L2L
sg639
L2L
sg640
g671
sg648
L1L
sg645
L1L
sg646
g661
sVX
L6L
sg642
L0L
sg650
g674
sg652
L0L
sg653
g675
stRp1782
ag1
(g1564
g1512
(dp1783
g637
g736
sVY
L9L
sg639
L3L
sg640
g737
sg648
L3L
sg645
L3L
sg646
g663
sVX
L5L
sg642
g647
sg650
g721
sg652
L0L
sg653
g740
stRp1784
ag1
(g1564
g1512
(dp1785
g637
g753
sVY
L3L
sg639
L3L
sg640
g754
sg648
L9L
sg645
L9L
sg646
g694
sVX
L5L
sg642
g711
sg650
g691
sg652
L0L
sg653
g740
stRp1786
ag1
(g1564
g1512
(dp1787
g637
g794
sVY
L2L
sg639
L3L
sg640
g795
sg648
L1L
sg645
L1L
sg646
g661
sVX
L7L
sg642
g647
sg650
g674
sg652
L0L
sg653
g781
stRp1788
ag1
(g1564
g1512
(dp1789
g637
g777
sVY
L6L
sg639
L3L
sg640
g778
sg648
L6L
sg645
L6L
sg646
g691
sVX
L6L
sg642
g694
sg650
g674
sg652
L0L
sg653
g781
stRp1790
ag1
(g1564
g1512
(dp1791
g637
g638
sVY
L2L
sg639
L3L
sg640
g641
sg648
L6L
sg645
L6L
sg646
g647
sVX
L2L
sg642
g643
sg650
g651
sg652
L0L
sg653
g654
stRp1792
ag1
(g1564
g1512
(dp1793
g637
g786
sVY
L6L
sg639
L3L
sg640
g787
sg648
L8L
sg645
L8L
sg646
g674
sVX
L2L
sg642
g691
sg650
g651
sg652
L0L
sg653
g654
stRp1794
ag1
(g1564
g1512
(dp1795
g637
g769
sVY
L4L
sg639
L4L
sg640
g770
sg648
L8L
sg645
L8L
sg646
g651
sVX
L3L
sg642
g663
sg650
g721
sg652
g647
sg653
g722
stRp1796
ag1
(g1564
g1512
(dp1797
g637
g717
sVY
L8L
sg639
L4L
sg640
g718
sg648
L1L
sg645
L1L
sg646
g663
sVX
L2L
sg642
g647
sg650
g721
sg652
g651
sg653
g722
stRp1798
ag1
(g1564
g1512
(dp1799
g637
g802
sVY
L5L
sg639
L4L
sg640
g803
sg648
L6L
sg645
L6L
sg646
g661
sVX
L4L
sg642
g663
sg650
g651
sg652
g711
sg653
g712
stRp1800
ag1
(g1564
g1512
(dp1801
g637
g707
sVY
L3L
sg639
L4L
sg640
g708
sg648
L7L
sg645
L7L
sg646
g643
sVX
L2L
sg642
g694
sg650
g711
sg652
g663
sg653
g712
stRp1802
ag1
(g1564
g1512
(dp1803
g637
g659
sVY
L3L
sg639
L4L
sg640
g660
sg648
L5L
sg645
L5L
sg646
g663
sVX
L3L
sg642
g661
sg650
g647
sg652
g651
sg653
g665
stRp1804
ag1
(g1564
g1512
(dp1805
g637
g689
sVY
L4L
sg639
L4L
sg640
g690
sg648
L5L
sg645
L5L
sg646
g647
sVX
L8L
sg642
g691
sg650
g674
sg652
g694
sg653
g665
stRp1806
ag1
(g1564
g1512
(dp1807
g637
g745
sVY
L2L
sg639
L4L
sg640
g746
sg648
L5L
sg645
L5L
sg646
g663
sVX
L6L
sg642
g694
sg650
g647
sg652
g721
sg653
g731
stRp1808
ag1
(g1564
g1512
(dp1809
g637
g727
sVY
L2L
sg639
L4L
sg640
g728
sg648
L3L
sg645
L3L
sg646
g663
sVX
L3L
sg642
g711
sg650
g694
sg652
g721
sg653
g731
stRp1810
asg1577
Nsg1578
I12
sg1579
I18
sg1580
I0
sg1581
I18
sbag1
(g1500
g3
NtRp1811
(dp1812
g1503
Nsg1504
(lp1813
sg1506
I327701456
sg10
g1585
sg6
g1508
sg1509
I1
sg24
I01
sg25
g26
sg1510
g1
(g1511
g1512
(dp1814
g22
g1528
(g1529
g1515
g1530
S'b'
tRp1815
(I1
(I18
I1
tg1532
I00
S'\x00\x00\x80?\x00\x00\x80?\x00\x00\x00\x00\x00\x00\x00\x00\x00\x00\x00\x00\x00\x00\x00\x00\x00\x00\x80?\x00\x00\x80?\x00\x00\x80?\x00\x00\x80?\x00\x00\x00\x00\x00\x00\x00\x00\x00\x00\x00\x00\x00\x00\x80?\x00\x00\x00\x00\x00\x00\x80?\x00\x00\x80?\x00\x00\x80?'
S'\x00\x00\x00\x00\x00\x00\x00\x00\x00\x00\x00\x00\x00\x00\x00\x00\x00\x00'
Ntbsg19
g1514
(g1515
(I0
tS'b'
tRp1816
(I1
(I18
I1
tg1517
I00
(lp1817
g855
ag919
ag901
ag952
ag874
ag893
ag865
ag845
ag944
ag817
ag936
ag927
ag885
ag835
ag960
ag969
ag910
ag977
atbsg23
g1528
(g1529
g1515
g1530
S'b'
tRp1818
(I1
(I18
I1
tg1532
I00
S'\xda\xb3d@\xa8g+@\xf8x\x01@\xd8TL@P\xa7\xba@,\xc2&A]+\x84@s\xf7_@\x02\xb64@,\xdc\x88@\xb7*\x05A\xfd\xf0EAi! A\x1f\xf3\x99@\x1fu\xf6@\xd7\x1c\x14A\xd5\xfb\xb9@\xa4\xd2\xc3@'
S'\x00\x00\x00\x00\x00\x00\x00\x00\x00\x00\x00\x00\x00\x00\x00\x00\x00\x00'
Ntbsg1527
g1528
(g1529
g1515
g1530
S'b'
tRp1819
(I1
(I18
I1
tg1532
I00
S'\x00\x00\x80?\x00\x00\x80?\x00\x00\x80?\x00\x00\x80?\x00\x00\x80?\x00\x00\x80?\x00\x00\x80?\x00\x00\x80?\x00\x00\x80?\x00\x00\x80?\x00\x00\x80?\x00\x00\x80?\x00\x00\x80?\x00\x00\x80?\x00\x00\x80?\x00\x00\x80?\x00\x00\x80?\x00\x00\x80?'
S'\x00\x00\x00\x00\x00\x00\x00\x00\x00\x00\x00\x00\x00\x00\x00\x00\x00\x00'
Ntbsg21
g1514
(g1515
(I0
tS'b'
tRp1820
(I1
(I18
I1
tg1517
I00
(lp1821
S'1'
aS'4'
aS'7'
aS'1'
aS'5'
aS'8'
aS'8'
aS'2'
aS'1'
aS'9'
aS'2'
aS'4'
aS'2'
aS'3'
aS'3'
aS'1'
aS'5'
aS'7'
atbsg1542
g1528
(g1529
g1515
g1530
S'b'
tRp1822
(I1
(I18
I1
tg1532
I00
S'\x00\x00@@\x00\x00 A\x00\x00\x00A\x00\x00`A\x00\x00\xa0@\x00\x00\xe0@\x00\x00\x80@\x00\x00\x00@\x00\x00PA\x00\x00\x00\x00\x00\x00@A\x00\x000A\x00\x00\xc0@\x00\x00\x80?\x00\x00pA\x00\x00\x80A\x00\x00\x10A\x00\x00\x88A'
S'\x00\x00\x00\x00\x00\x00\x00\x00\x00\x00\x00\x00\x00\x00\x00\x00\x00\x00'
Ntbsg20
g1528
(g1529
g1515
g1530
S'b'
tRp1823
(I1
(I18
I1
tg1532
I00
S'\xdc\xa9\x8d?\xa9\xbf\xb2?\x90\x0b\x88?\xbc\x8e\xbc?]\xbe\x83@7\xf0B@\xe6~9@=\t\xad@/+\xb0?\x08\x84\x80@\xd7\x1e\x93@$\x8f\xe4@\x04)\x9a@\x8bO\xb3@\xa8r(A\xc2\xa8CA\t\n\xe3@x1^@'
S'\x00\x00\x00\x00\x00\x00\x00\x00\x00\x00\x00\x00\x00\x00\x00\x00\x00\x00'
NtbstRp1824
(dp1825
g1547
(dp1826
g1527
I01
sg21
I00
sg20
I01
sg22
I01
sg19
I00
sg23
I01
sg1542
I01
ssg1549
g1811
sg1550
(lp1827
g1527
ag1542
ag19
ag20
ag21
ag22
ag23
asg1552
(lp1828
I18
aI1
asbsg1554
g1555
sg1556
g1514
(g1515
(I0
tS'b'
tRp1829
(I1
(I18
I1
tg1517
I00
(lp1830
I9
aI13
aI7
aI0
aI6
aI4
aI12
aI5
aI2
aI16
aI1
aI11
aI10
aI8
aI3
aI14
aI15
aI17
atbsg1559
I01
sg1560
I1
sg1561
I-1
sg1562
(lp1831
g1
(g1564
g1512
(dp1832
g810
g853
sVY
L2L
sg812
L2L
sg813
g854
sg821
L1L
sg818
L1L
sg819
g856
sVX
L9L
sg815
L0L
sg823
g836
sg825
L0L
sg826
g858
stRp1833
ag1
(g1564
g1512
(dp1834
g810
g917
sVY
L4L
sg812
L2L
sg813
g918
sg821
L4L
sg818
L4L
sg819
g856
sVX
L3L
sg815
L0L
sg823
g816
sg825
L0L
sg826
g858
stRp1835
ag1
(g1564
g1512
(dp1836
g810
g899
sVY
L4L
sg812
L2L
sg813
g900
sg821
L9L
sg818
L9L
sg819
g816
sVX
L2L
sg815
L0L
sg823
g834
sg825
L0L
sg826
g903
stRp1837
ag1
(g1564
g1512
(dp1838
g810
g950
sVY
L6L
sg812
L2L
sg813
g951
sg821
L6L
sg818
L6L
sg819
g836
sVX
L8L
sg815
L0L
sg823
g824
sg825
L0L
sg826
g903
stRp1839
ag1
(g1564
g1512
(dp1840
g810
g872
sVY
L4L
sg812
L3L
sg813
g873
sg821
L6L
sg818
L6L
sg819
g875
sVX
L6L
sg815
g820
sg823
g877
sg825
L0L
sg826
g878
stRp1841
ag1
(g1564
g1512
(dp1842
g810
g891
sVY
L9L
sg812
L3L
sg813
g892
sg821
L7L
sg818
L7L
sg819
g867
sVX
L9L
sg815
g875
sg823
g836
sg825
L0L
sg826
g878
stRp1843
ag1
(g1564
g1512
(dp1844
g810
g863
sVY
L4L
sg812
L3L
sg813
g864
sg821
L8L
sg818
L8L
sg819
g816
sVX
L3L
sg815
g856
sg823
g867
sg825
L0L
sg826
g848
stRp1845
ag1
(g1564
g1512
(dp1846
g810
g843
sVY
L2L
sg812
L3L
sg813
g844
sg821
L2L
sg818
L2L
sg819
g846
sVX
L4L
sg815
g820
sg823
g834
sg825
L0L
sg826
g848
stRp1847
ag1
(g1564
g1512
(dp1848
g810
g942
sVY
L2L
sg812
L3L
sg813
g943
sg821
L1L
sg818
L1L
sg819
g820
sVX
L8L
sg815
g846
sg823
g875
sg825
L0L
sg826
g827
stRp1849
ag1
(g1564
g1512
(dp1850
g810
g811
sVY
L3L
sg812
L3L
sg813
g814
sg821
L9L
sg818
L9L
sg819
g820
sVX
L2L
sg815
g816
sg823
g824
sg825
L0L
sg826
g827
stRp1851
ag1
(g1564
g1512
(dp1852
g810
g934
sVY
L3L
sg812
L4L
sg813
g935
sg821
L1L
sg818
L1L
sg819
g875
sVX
L6L
sg815
g856
sg823
g846
sg825
g867
sg826
g929
stRp1853
ag1
(g1564
g1512
(dp1854
g810
g925
sVY
L2L
sg812
L4L
sg813
g926
sg821
L2L
sg818
L2L
sg819
g875
sVX
L3L
sg815
g856
sg823
g816
sg825
g867
sg826
g929
stRp1855
ag1
(g1564
g1512
(dp1856
g810
g883
sVY
L9L
sg812
L4L
sg813
g884
sg821
L1L
sg818
L1L
sg819
g846
sVX
L3L
sg815
g824
sg823
g875
sg825
g867
sg826
g838
stRp1857
ag1
(g1564
g1512
(dp1858
g810
g832
sVY
L3L
sg812
L4L
sg813
g833
sg821
L3L
sg818
L3L
sg819
g836
sVX
L6L
sg815
g834
sg823
g824
sg825
g820
sg826
g838
stRp1859
ag1
(g1564
g1512
(dp1860
g810
g958
sVY
L2L
sg812
L4L
sg813
g959
sg821
L7L
sg818
L7L
sg819
g820
sVX
L2L
sg815
g816
sg823
g834
sg825
g824
sg826
g962
stRp1861
ag1
(g1564
g1512
(dp1862
g810
g967
sVY
L2L
sg812
L4L
sg813
g968
sg821
L1L
sg818
L1L
sg819
g834
sVX
L8L
sg815
g836
sg823
g856
sg825
g820
sg826
g962
stRp1863
ag1
(g1564
g1512
(dp1864
g810
g908
sVY
L2L
sg812
L4L
sg813
g909
sg821
L5L
sg818
L5L
sg819
g820
sVX
L2L
sg815
g824
sg823
g875
sg825
g877
sg826
g912
stRp1865
ag1
(g1564
g1512
(dp1866
g810
g975
sVY
L2L
sg812
L4L
sg813
g976
sg821
L7L
sg818
L7L
sg819
g824
sVX
L2L
sg815
g820
sg823
g834
sg825
g877
sg826
g912
stRp1867
asg1577
Nsg1578
I17
sg1579
I18
sg1580
I0
sg1581
I18
sbag1
(g1500
g3
NtRp1868
(dp1869
g1503
Nsg1504
(lp1870
sg1506
I327701456
sg10
g1585
sg6
g1508
sg1509
I1
sg24
I01
sg25
g26
sg1510
g1
(g1511
g1512
(dp1871
g22
g1528
(g1529
g1515
g1530
S'b'
tRp1872
(I1
(I18
I1
tg1532
I00
S'\x00\x00\x80?\x00\x00\x80?\x00\x00\x80?\x00\x00\x80?\x00\x00\x80?\x00\x00\x80?\x00\x00\x00\x00\x00\x00\x00\x00\x00\x00\x80?\x00\x00\x80?\x00\x00\x00\x00\x00\x00\x80?\x00\x00\x80?\x00\x00\x80?\x00\x00\x80?\x00\x00\x80?\x00\x00\x00\x00\x00\x00\x80?'
S'\x00\x00\x00\x00\x00\x00\x00\x00\x00\x00\x00\x00\x00\x00\x00\x00\x00\x00'
Ntbsg19
g1514
(g1515
(I0
tS'b'
tRp1873
(I1
(I18
I1
tg1517
I00
(lp1874
g1125
ag1038
ag1150
ag1133
ag1067
ag1093
ag990
ag1142
ag1019
ag1059
ag1117
ag1084
ag1109
ag1008
ag1101
ag1049
ag1076
ag1028
atbsg23
g1528
(g1529
g1515
g1530
S'b'
tRp1875
(I1
(I18
I1
tg1532
I00
S'\xf7&\x1d@\x91\xca\x83@0n0A\xb6x-@v\x1e\x19A\xb4\x08L@\x95\r\x0cA\x1cZ{@eK<A\xdcH\x88@\xb4\x06\x86A\x8dj\xa2@g\x94\xe7@\x1e[\xcb@\xea\x86\xa1@\tq\x8f@n\x0cvA\xe5\x89IA'
S'\x00\x00\x00\x00\x00\x00\x00\x00\x00\x00\x00\x00\x00\x00\x00\x00\x00\x00'
Ntbsg1527
g1528
(g1529
g1515
g1530
S'b'
tRp1876
(I1
(I18
I1
tg1532
I00
S'\x00\x00\x80?\x00\x00\x80?\x00\x00\x80?\x00\x00\x80?\x00\x00\x80?\x00\x00\x80?\x00\x00\x80?\x00\x00\x80?\x00\x00\x80?\x00\x00\x80?\x00\x00\x80?\x00\x00\x80?\x00\x00\x80?\x00\x00\x80?\x00\x00\x80?\x00\x00\x80?\x00\x00\x80?\x00\x00\x80?'
S'\x00\x00\x00\x00\x00\x00\x00\x00\x00\x00\x00\x00\x00\x00\x00\x00\x00\x00'
Ntbsg21
g1514
(g1515
(I0
tS'b'
tRp1877
(I1
(I18
I1
tg1517
I00
(lp1878
S'7'
aS'9'
aS'2'
aS'5'
aS'9'
aS'3'
aS'6'
aS'2'
aS'9'
aS'6'
aS'6'
aS'9'
aS'5'
aS'7'
aS'6'
aS'9'
aS'7'
aS'5'
atbsg1542
g1528
(g1529
g1515
g1530
S'b'
tRp1879
(I1
(I18
I1
tg1532
I00
S'\x00\x00`A\x00\x00\x80@\x00\x00\x88A\x00\x00pA\x00\x00\xe0@\x00\x00 A\x00\x00\x00\x00\x00\x00\x80A\x00\x00\x00@\x00\x00\xc0@\x00\x00PA\x00\x00\x10A\x00\x00@A\x00\x00\x80?\x00\x000A\x00\x00\xa0@\x00\x00\x00A\x00\x00@@'
S'\x00\x00\x00\x00\x00\x00\x00\x00\x00\x00\x00\x00\x00\x00\x00\x00\x00\x00'
Ntbsg20
g1528
(g1529
g1515
g1530
S'b'
tRp1880
(I1
(I18
I1
tg1532
I00
S'+\x87\xd5?48\x98?\x89\x81\x85?$\x04z?\x94\xd0\x13@\x9c\xcc\xb0@\xd3(\xa2@\x97\xd2\x18@\x81y\xf6?#\x9a,@\xa9\x10u@\xf5\xfc\x91@\x94\xb1m@\x8abx@\xa3\xa1\x12@\xd8\x91\xcb@]f0@\x18\xff\x1dA'
S'\x00\x00\x00\x00\x00\x00\x00\x00\x00\x00\x00\x00\x00\x00\x00\x00\x00\x00'
NtbstRp1881
(dp1882
g1547
(dp1883
g1527
I01
sg21
I00
sg20
I01
sg22
I01
sg19
I00
sg23
I01
sg1542
I01
ssg1549
g1868
sg1550
(lp1884
g1527
ag1542
ag19
ag20
ag21
ag22
ag23
asg1552
(lp1885
I18
aI1
asbsg1554
g1555
sg1556
g1514
(g1515
(I0
tS'b'
tRp1886
(I1
(I18
I1
tg1517
I00
(lp1887
I6
aI13
aI8
aI17
aI1
aI15
aI9
aI4
aI16
aI11
aI5
aI14
aI12
aI10
aI0
aI3
aI7
aI2
atbsg1559
I01
sg1560
I1
sg1561
I-1
sg1562
(lp1888
g1
(g1564
g1512
(dp1889
g983
g1123
sVY
L5L
sg985
L2L
sg986
g1124
sg994
L7L
sg991
L7L
sg992
g997
sVX
L4L
sg988
L0L
sg996
g1018
sg998
L0L
sg999
g1041
stRp1890
ag1
(g1564
g1512
(dp1891
g983
g1036
sVY
L3L
sg985
L2L
sg986
g1037
sg994
L9L
sg991
L9L
sg992
g1007
sVX
L4L
sg988
L0L
sg996
g1040
sg998
L0L
sg999
g1041
stRp1892
ag1
(g1564
g1512
(dp1893
g983
g1148
sVY
L8L
sg985
L2L
sg986
g1149
sg994
L2L
sg991
L2L
sg992
g1048
sVX
L8L
sg988
L0L
sg996
g1051
sg998
L0L
sg999
g1135
stRp1894
ag1
(g1564
g1512
(dp1895
g983
g1131
sVY
L2L
sg985
L2L
sg986
g1132
sg994
L5L
sg991
L5L
sg992
g1048
sVX
L8L
sg988
L0L
sg996
g1010
sg998
L0L
sg999
g1135
stRp1896
ag1
(g1564
g1512
(dp1897
g983
g1065
sVY
L2L
sg985
L3L
sg986
g1066
sg994
L9L
sg991
L9L
sg992
g1007
sVX
L7L
sg988
g989
sg996
g1048
sg998
L0L
sg999
g1069
stRp1898
ag1
(g1564
g1512
(dp1899
g983
g1091
sVY
L2L
sg985
L3L
sg986
g1092
sg994
L3L
sg991
L3L
sg992
g1010
sVX
L8L
sg988
g997
sg996
g1040
sg998
L0L
sg999
g1069
stRp1900
ag1
(g1564
g1512
(dp1901
g983
g984
sVY
L2L
sg985
L3L
sg986
g987
sg994
L8L
sg991
L8L
sg992
g993
sVX
L9L
sg988
g989
sg996
g997
sg998
L0L
sg999
g1000
stRp1902
ag1
(g1564
g1512
(dp1903
g983
g1140
sVY
L3L
sg985
L3L
sg986
g1141
sg994
L3L
sg991
L3L
sg992
g1048
sVX
L2L
sg988
g1007
sg996
g1010
sg998
L0L
sg999
g1000
stRp1904
ag1
(g1564
g1512
(dp1905
g983
g1016
sVY
L3L
sg985
L3L
sg986
g1017
sg994
L9L
sg991
L9L
sg992
g997
sVX
L3L
sg988
g1018
sg996
g1007
sg998
L0L
sg999
g1021
stRp1906
ag1
(g1564
g1512
(dp1907
g983
g1057
sVY
L2L
sg985
L3L
sg986
g1058
sg994
L6L
sg991
L6L
sg992
g1010
sVX
L3L
sg988
g1040
sg996
g1007
sg998
L0L
sg999
g1021
stRp1908
ag1
(g1564
g1512
(dp1909
g983
g1115
sVY
L4L
sg985
L4L
sg986
g1116
sg994
L5L
sg991
L5L
sg992
g1051
sVX
L3L
sg988
g1010
sg996
g1048
sg998
g1007
sg999
g1086
stRp1910
ag1
(g1564
g1512
(dp1911
g983
g1082
sVY
L9L
sg985
L4L
sg986
g1083
sg994
L9L
sg991
L9L
sg992
g997
sVX
L3L
sg988
g1010
sg996
g993
sg998
g1030
sg999
g1086
stRp1912
ag1
(g1564
g1512
(dp1913
g983
g1107
sVY
L4L
sg985
L4L
sg986
g1108
sg994
L5L
sg991
L5L
sg992
g1040
sVX
L5L
sg988
g989
sg996
g997
sg998
g1007
sg999
g1011
stRp1914
ag1
(g1564
g1512
(dp1915
g983
g1005
sVY
L2L
sg985
L4L
sg986
g1006
sg994
L7L
sg991
L7L
sg992
g993
sVX
L2L
sg988
g1007
sg996
g1010
sg998
g997
sg999
g1011
stRp1916
ag1
(g1564
g1512
(dp1917
g983
g1099
sVY
L4L
sg985
L4L
sg986
g1100
sg994
L6L
sg991
L6L
sg992
g1051
sVX
L4L
sg988
g1040
sg996
g1007
sg998
g1010
sg999
g1052
stRp1918
ag1
(g1564
g1512
(dp1919
g983
g1046
sVY
L8L
sg985
L4L
sg986
g1047
sg994
L9L
sg991
L9L
sg992
g1010
sVX
L8L
sg988
g1048
sg996
g1007
sg998
g1051
sg999
g1052
stRp1920
ag1
(g1564
g1512
(dp1921
g983
g1074
sVY
L4L
sg985
L4L
sg986
g1075
sg994
L5L
sg991
L5L
sg992
g1030
sVX
L5L
sg988
g1051
sg996
g989
sg998
g1018
sg999
g1031
stRp1922
ag1
(g1564
g1512
(dp1923
g983
g1026
sVY
L4L
sg985
L4L
sg986
g1027
sg994
L5L
sg991
L5L
sg992
g1010
sVX
L7L
sg988
g997
sg996
g1030
sg998
g993
sg999
g1031
stRp1924
asg1577
Nsg1578
I2
sg1579
I18
sg1580
I0
sg1581
I18
sbag1
(g1500
g3
NtRp1925
(dp1926
g1503
Nsg1504
(lp1927
sg1506
I327701456
sg10
g1585
sg6
g1508
sg1509
I1
sg24
I01
sg25
g26
sg1510
g1
(g1511
g1512
(dp1928
g22
g1528
(g1529
g1515
g1530
S'b'
tRp1929
(I1
(I18
I1
tg1532
I00
S'\x00\x00\x80?\x00\x00\x80?\x00\x00\x80?\x00\x00\x80?\x00\x00\x80?\x00\x00\x80?\x00\x00\x80?\x00\x00\x80?\x00\x00\x80?\x00\x00\x80?\x00\x00\x00\x00\x00\x00\x00\x00\x00\x00\x80?\x00\x00\x00\x00\x00\x00\x80?\x00\x00\x00\x00\x00\x00\x80?\x00\x00\x80?'
S'\x00\x00\x00\x00\x00\x00\x00\x00\x00\x00\x00\x00\x00\x00\x00\x00\x00\x00'
Ntbsg19
g1514
(g1515
(I0
tS'b'
tRp1930
(I1
(I18
I1
tg1517
I00
(lp1931
g1191
ag1162
ag1291
ag1274
ag1323
ag1238
ag1180
ag1299
ag1220
ag1266
ag1229
ag1307
ag1211
ag1248
ag1283
ag1256
ag1315
ag1200
atbsg23
g1528
(g1529
g1515
g1530
S'b'
tRp1932
(I1
(I18
I1
tg1532
I00
S'YpO@\x8f\x923@\xf5\xe2\xc5?\x02)\x1b@P\x9e;@v3\xa9@c\xb1>@\xc6\xf1\x06Aj&\xd2@\xc1M\x9a@\x00\x00\x00\x00,J\xeb@\x8b\xd9\x14A8\x1c\xfd@\xc9\xf4\xf4@}\xab\x03A\x1f\r\xa2@\xda\x90\xd4@'
S'\x00\x00\x00\x00\x00\x00\x00\x00\x00\x00\x01\x00\x00\x00\x00\x00\x00\x00'
Ntbsg1527
g1528
(g1529
g1515
g1530
S'b'
tRp1933
(I1
(I18
I1
tg1532
I00
S'\x00\x00\x80?\x00\x00\x80?\x00\x00\x80?\x00\x00\x80?\x00\x00\x80?\x00\x00\x80?\x00\x00\x80?\x00\x00\x80?\x00\x00\x80?\x00\x00\x80?\x00\x00\x80?\x00\x00\x80?\x00\x00\x80?\x00\x00\x80?\x00\x00\x80?\x00\x00\x80?\x00\x00\x80?\x00\x00\x80?'
S'\x00\x00\x00\x00\x00\x00\x00\x00\x00\x00\x00\x00\x00\x00\x00\x00\x00\x00'
Ntbsg21
g1514
(g1515
(I0
tS'b'
tRp1934
(I1
(I18
I1
tg1517
I00
(lp1935
S'7'
aS'2'
aS'8'
aS'6'
aS'7'
aS'8'
aS'2'
aS'5'
aS'6'
aS'5'
aNaS'4'
aS'6'
aS'4'
aS'5'
aS'3'
aS'3'
aS'1'
atbsg1542
g1528
(g1529
g1515
g1530
S'b'
tRp1936
(I1
(I18
I1
tg1532
I00
S'\x00\x00\x00@\x00\x00\x00\x00\x00\x00PA\x00\x000A\x00\x00\x88A\x00\x00\xe0@\x00\x00\x80?\x00\x00`A\x00\x00\xa0@\x00\x00 A\x00\x00\xc0@\x00\x00pA\x00\x00\x80@\x00\x00\x00A\x00\x00@A\x00\x00\x10A\x00\x00\x80A\x00\x00@@'
S'\x00\x00\x00\x00\x00\x00\x00\x00\x00\x00\x00\x00\x00\x00\x00\x00\x00\x00'
Ntbsg20
g1528
(g1529
g1515
g1530
S'b'
tRp1937
(I1
(I18
I1
tg1532
I00
S'\xfdg\x9e?\x89d=@\x0ctr?e\xee\x84?y\x05\xbf?E6\xa7?\xe5z\x05@\x80\xd3L@\xa8@\x85@\xbf\xe2\xfe?q\xecy@#\xd9=@R\x18U@1U\xf4?\xe7.Y@\xad\xb8\x0fA\x07\x93e@\xb4\xef\x17@'
S'\x00\x00\x00\x00\x00\x00\x00\x00\x00\x00\x00\x00\x00\x00\x00\x00\x00\x00'
NtbstRp1938
(dp1939
g1547
(dp1940
g1527
I01
sg21
I00
sg20
I01
sg22
I01
sg19
I00
sg23
I01
sg1542
I01
ssg1549
g1925
sg1550
(lp1941
g1527
ag1542
ag19
ag20
ag21
ag22
ag23
asg1552
(lp1942
I18
aI1
asbsg1554
g1555
sg1556
g1514
(g1515
(I0
tS'b'
tRp1943
(I1
(I18
I1
tg1517
I00
(lp1944
I1
aI6
aI0
aI17
aI12
aI8
aI10
aI5
aI13
aI15
aI9
aI3
aI14
aI2
aI7
aI11
aI16
aI4
atbsg1559
I01
sg1560
I1
sg1561
I-1
sg1562
(lp1945
g1
(g1564
g1512
(dp1946
g1156
g1189
sVY
L5L
sg1158
L2L
sg1159
g1190
sg1166
L7L
sg1163
L7L
sg1164
g1165
sVX
L3L
sg1161
L0L
sg1168
g1193
sg1170
L0L
sg1171
g1172
stRp1947
ag1
(g1564
g1512
(dp1948
g1156
g1157
sVY
L4L
sg1158
L2L
sg1159
g1160
sg1166
L2L
sg1163
L2L
sg1164
g1165
sVX
L9L
sg1161
L0L
sg1168
g1169
sg1170
L0L
sg1171
g1172
stRp1949
ag1
(g1564
g1512
(dp1950
g1156
g1289
sVY
L3L
sg1158
L2L
sg1159
g1290
sg1166
L8L
sg1163
L8L
sg1164
g1265
sVX
L3L
sg1161
L0L
sg1168
g1165
sg1170
L0L
sg1171
g1276
stRp1951
ag1
(g1564
g1512
(dp1952
g1156
g1272
sVY
L8L
sg1158
L2L
sg1159
g1273
sg1166
L6L
sg1163
L6L
sg1164
g1193
sVX
L4L
sg1161
L0L
sg1168
g1201
sg1170
L0L
sg1171
g1276
stRp1953
ag1
(g1564
g1512
(dp1954
g1156
g1321
sVY
L5L
sg1158
L3L
sg1159
g1322
sg1166
L7L
sg1163
L7L
sg1164
g1183
sVX
L2L
sg1161
g1165
sg1168
g1193
sg1170
L0L
sg1171
g1241
stRp1955
ag1
(g1564
g1512
(dp1956
g1156
g1236
sVY
L2L
sg1158
L3L
sg1159
g1237
sg1166
L8L
sg1163
L8L
sg1164
g1239
sVX
L4L
sg1161
g1201
sg1168
g1193
sg1170
L0L
sg1171
g1241
stRp1957
ag1
(g1564
g1512
(dp1958
g1156
g1177
sVY
L3L
sg1158
L3L
sg1159
g1178
sg1166
L2L
sg1163
L2L
sg1164
g1181
sVX
L3L
sg1161
g1179
sg1168
g1183
sg1170
L0L
sg1171
g1184
stRp1959
ag1
(g1564
g1512
(dp1960
g1156
g1297
sVY
L3L
sg1158
L3L
sg1159
g1298
sg1166
L5L
sg1163
L5L
sg1164
g1193
sVX
L2L
sg1161
g1201
sg1168
g1179
sg1170
L0L
sg1171
g1184
stRp1961
ag1
(g1564
g1512
(dp1962
g1156
g1218
sVY
L4L
sg1158
L3L
sg1159
g1219
sg1166
L6L
sg1163
L6L
sg1164
g1203
sVX
L5L
sg1161
g1193
sg1168
g1183
sg1170
L0L
sg1171
g1222
stRp1963
ag1
(g1564
g1512
(dp1964
g1156
g1263
sVY
L3L
sg1158
L3L
sg1159
g1264
sg1166
L5L
sg1163
L5L
sg1164
g1179
sVX
L3L
sg1161
g1265
sg1168
g1201
sg1170
L0L
sg1171
g1222
stRp1965
ag1
(g1564
g1512
(dp1966
g1156
g1227
sVY
L4L
sg1158
L4L
sg1159
g1228
sg1166
L9L
sg1163
L9L
sg1164
g1165
sVX
L9L
sg1161
g1203
sg1168
g1193
sg1170
g1183
sg1171
g1231
stRp1967
ag1
(g1564
g1512
(dp1968
g1156
g1305
sVY
L2L
sg1158
L4L
sg1159
g1306
sg1166
L8L
sg1163
L8L
sg1164
g1239
sVX
L2L
sg1161
g1183
sg1168
g1193
sg1170
g1165
sg1171
g1231
stRp1969
ag1
(g1564
g1512
(dp1970
g1156
g1209
sVY
L6L
sg1158
L4L
sg1159
g1210
sg1166
L6L
sg1163
L6L
sg1164
g1193
sVX
L6L
sg1161
g1203
sg1168
g1165
sg1170
g1201
sg1171
g1213
stRp1971
ag1
(g1564
g1512
(dp1972
g1156
g1246
sVY
L2L
sg1158
L4L
sg1159
g1247
sg1166
L3L
sg1163
L3L
sg1164
g1181
sVX
L9L
sg1161
g1183
sg1168
g1165
sg1170
g1203
sg1171
g1213
stRp1973
ag1
(g1564
g1512
(dp1974
g1156
g1281
sVY
L3L
sg1158
L4L
sg1159
g1282
sg1166
L5L
sg1163
L5L
sg1164
g1183
sVX
L3L
sg1161
g1265
sg1168
g1165
sg1170
g1203
sg1171
g1258
stRp1975
ag1
(g1564
g1512
(dp1976
g1156
g1254
sVY
L3L
sg1158
L4L
sg1159
g1255
sg1166
L8L
sg1163
L8L
sg1164
g1239
sVX
L3L
sg1161
g1181
sg1168
g1165
sg1170
g1183
sg1171
g1258
stRp1977
ag1
(g1564
g1512
(dp1978
g1156
g1313
sVY
L4L
sg1158
L4L
sg1159
g1314
sg1166
L3L
sg1163
L3L
sg1164
g1201
sVX
L3L
sg1161
g1203
sg1168
g1179
sg1170
g1265
sg1171
g1204
stRp1979
ag1
(g1564
g1512
(dp1980
g1156
g1198
sVY
L2L
sg1158
L4L
sg1159
g1199
sg1166
L1L
sg1163
L1L
sg1164
g1201
sVX
L7L
sg1161
g1179
sg1168
g1203
sg1170
g1181
sg1171
g1204
stRp1981
asg1577
Nsg1578
I4
sg1579
I18
sg1580
I0
sg1581
I18
sbag1
(g1500
g3
NtRp1982
(dp1983
g1503
Nsg1504
(lp1984
sg1506
I327701456
sg10
g1585
sg6
g1508
sg1509
I1
sg24
I01
sg25
g26
sg1510
g1
(g1511
g1512
(dp1985
g22
g1528
(g1529
g1515
g1530
S'b'
tRp1986
(I1
(I18
I1
tg1532
I00
S'\x00\x00\x80?\x00\x00\x80?\x00\x00\x00\x00\x00\x00\x80?\x00\x00\x80?\x00\x00\x80?\x00\x00\x00\x00\x00\x00\x80?\x00\x00\x80?\x00\x00\x80?\x00\x00\x80?\x00\x00\x00\x00\x00\x00\x80?\x00\x00\x00\x00\x00\x00\x80?\x00\x00\x00\x00\x00\x00\x80?\x00\x00\x00\x00'
S'\x00\x00\x00\x00\x00\x00\x00\x00\x00\x00\x00\x00\x00\x00\x00\x00\x00\x00'
Ntbsg19
g1514
(g1515
(I0
tS'b'
tRp1987
(I1
(I18
I1
tg1517
I00
(lp1988
g1431
ag1413
ag1488
ag1387
ag1455
ag1396
ag1447
ag1422
ag1463
ag1355
ag1439
ag1377
ag1405
ag1336
ag1471
ag1366
ag1496
ag1479
atbsg23
g1528
(g1529
g1515
g1530
S'b'
tRp1989
(I1
(I18
I1
tg1532
I00
S'Q\xd6\x0f@\xb6IQ@P:C@/=/@\r\x93\x91@\xd9\xf1\xca@\x1a)8A\x1fw\xa2@1\xec\x88@\x819\xc5@\xe3\x91\x02A\xbb*MA\xcd\xbc\x95@\xd8\xa5\x95@\x0e\xe2mAe\xe3\xdd@0\xdb\x88@\xa9\xae8A'
S'\x00\x00\x00\x00\x00\x00\x00\x00\x00\x00\x00\x00\x00\x00\x00\x00\x00\x00'
Ntbsg1527
g1528
(g1529
g1515
g1530
S'b'
tRp1990
(I1
(I18
I1
tg1532
I00
S'\x00\x00\x80?\x00\x00\x80?\x00\x00\x80?\x00\x00\x80?\x00\x00\x80?\x00\x00\x80?\x00\x00\x80?\x00\x00\x80?\x00\x00\x80?\x00\x00\x80?\x00\x00\x80?\x00\x00\x80?\x00\x00\x80?\x00\x00\x80?\x00\x00\x80?\x00\x00\x80?\x00\x00\x80?\x00\x00\x80?'
S'\x00\x00\x00\x00\x00\x00\x00\x00\x00\x00\x00\x00\x00\x00\x00\x00\x00\x00'
Ntbsg21
g1514
(g1515
(I0
tS'b'
tRp1991
(I1
(I18
I1
tg1517
I00
(lp1992
S'2'
aS'3'
aS'3'
aS'6'
aS'9'
aS'4'
aS'3'
aS'3'
aS'7'
aS'1'
aS'8'
aS'9'
aS'8'
aS'3'
aS'8'
aS'3'
aS'6'
aS'4'
atbsg1542
g1528
(g1529
g1515
g1530
S'b'
tRp1993
(I1
(I18
I1
tg1532
I00
S'\x00\x00\x10A\x00\x00\xe0@\x00\x00\x80A\x00\x00\x80@\x00\x00@A\x00\x00\xa0@\x00\x000A\x00\x00\x00A\x00\x00PA\x00\x00\x80?\x00\x00 A\x00\x00@@\x00\x00\xc0@\x00\x00\x00\x00\x00\x00`A\x00\x00\x00@\x00\x00\x88A\x00\x00pA'
S'\x00\x00\x00\x00\x00\x00\x00\x00\x00\x00\x00\x00\x00\x00\x00\x00\x00\x00'
Ntbsg20
g1528
(g1529
g1515
g1530
S'b'
tRp1994
(I1
(I18
I1
tg1532
I00
S'\x07\xa9\x17@:\x1bj?\x1fl\x9a?\x142b?\xa8\x8bg@\x10\x957@\x15M\xe0?\xd1\x9b\x01@j\x85\x8e@\xfdR\xec?\x82\xb87@W\xfb(Ab\xd6\xb1@\xd1\x16\x06@5\xa2\xec@\xb1:\xc9?\xb7\x15\x80@4]!A'
S'\x00\x00\x00\x00\x00\x00\x00\x00\x00\x00\x00\x00\x00\x00\x00\x00\x00\x00'
NtbstRp1995
(dp1996
g1547
(dp1997
g1527
I01
sg21
I00
sg20
I01
sg22
I01
sg19
I00
sg23
I01
sg1542
I01
ssg1549
g1982
sg1550
(lp1998
g1527
ag1542
ag19
ag20
ag21
ag22
ag23
asg1552
(lp1999
I18
aI1
asbsg1554
g1555
sg1556
g1514
(g1515
(I0
tS'b'
tRp2000
(I1
(I18
I1
tg1517
I00
(lp2001
I13
aI9
aI15
aI11
aI3
aI5
aI12
aI1
aI7
aI0
aI10
aI6
aI4
aI8
aI14
aI17
aI2
aI16
atbsg1559
I01
sg1560
I1
sg1561
I-1
sg1562
(lp2002
g1
(g1564
g1512
(dp2003
g1329
g1429
sVY
L2L
sg1331
L2L
sg1332
g1430
sg1340
L2L
sg1337
L2L
sg1338
g1367
sVX
L3L
sg1334
L0L
sg1342
g1365
sg1344
L0L
sg1346
g1415
stRp2004
ag1
(g1564
g1512
(dp2005
g1329
g1411
sVY
L2L
sg1331
L2L
sg1332
g1412
sg1340
L3L
sg1337
L3L
sg1338
g1345
sVX
L6L
sg1334
L0L
sg1342
g1379
sg1344
L0L
sg1346
g1415
stRp2006
ag1
(g1564
g1512
(dp2007
g1329
g1486
sVY
L4L
sg1331
L2L
sg1332
g1487
sg1340
L1L
sg1337
L1L
sg1338
g1365
sVX
L8L
sg1334
L0L
sg1342
g1345
sg1344
L0L
sg1346
g1389
stRp2008
ag1
(g1564
g1512
(dp2009
g1329
g1385
sVY
L2L
sg1331
L2L
sg1332
g1386
sg1340
L6L
sg1337
L6L
sg1338
g1354
sVX
L3L
sg1334
L0L
sg1342
g1367
sg1344
L0L
sg1346
g1389
stRp2010
ag1
(g1564
g1512
(dp2011
g1329
g1453
sVY
L8L
sg1331
L3L
sg1332
g1454
sg1340
L9L
sg1337
L9L
sg1338
g1356
sVX
L6L
sg1334
g1343
sg1342
g1354
sg1344
L0L
sg1346
g1398
stRp2012
ag1
(g1564
g1512
(dp2013
g1329
g1394
sVY
L2L
sg1331
L3L
sg1332
g1395
sg1340
L4L
sg1337
L4L
sg1338
g1345
sVX
L3L
sg1334
g1376
sg1342
g1365
sg1344
L0L
sg1346
g1398
stRp2014
ag1
(g1564
g1512
(dp2015
g1329
g1445
sVY
L3L
sg1331
L3L
sg1332
g1446
sg1340
L6L
sg1337
L6L
sg1338
g1354
sVX
L3L
sg1334
g1376
sg1342
g1356
sg1344
L0L
sg1346
g1424
stRp2016
ag1
(g1564
g1512
(dp2017
g1329
g1420
sVY
L2L
sg1331
L3L
sg1332
g1421
sg1340
L3L
sg1337
L3L
sg1338
g1379
sVX
L8L
sg1334
g1356
sg1342
g1367
sg1344
L0L
sg1346
g1424
stRp2018
ag1
(g1564
g1512
(dp2019
g1329
g1461
sVY
L3L
sg1331
L3L
sg1332
g1462
sg1340
L7L
sg1337
L7L
sg1338
g1376
sVX
L6L
sg1334
g1365
sg1342
g1367
sg1344
L0L
sg1346
g1358
stRp2020
ag1
(g1564
g1512
(dp2021
g1329
g1352
sVY
L3L
sg1331
L3L
sg1332
g1353
sg1340
L1L
sg1337
L1L
sg1338
g1356
sVX
L3L
sg1334
g1354
sg1342
g1343
sg1344
L0L
sg1346
g1358
stRp2022
ag1
(g1564
g1512
(dp2023
g1329
g1437
sVY
L6L
sg1331
L4L
sg1332
g1438
sg1340
L8L
sg1337
L8L
sg1338
g1335
sVX
L6L
sg1334
g1345
sg1342
g1354
sg1344
g1343
sg1346
g1380
stRp2024
ag1
(g1564
g1512
(dp2025
g1329
g1374
sVY
L9L
sg1331
L4L
sg1332
g1375
sg1340
L8L
sg1337
L8L
sg1338
g1345
sVX
L3L
sg1334
g1376
sg1342
g1379
sg1344
g1335
sg1346
g1380
stRp2026
ag1
(g1564
g1512
(dp2027
g1329
g1403
sVY
L2L
sg1331
L4L
sg1332
g1404
sg1340
L8L
sg1337
L8L
sg1338
g1354
sVX
L3L
sg1334
g1367
sg1342
g1335
sg1344
g1343
sg1346
g1347
stRp2028
ag1
(g1564
g1512
(dp2029
g1329
g1330
sVY
L3L
sg1331
L4L
sg1332
g1333
sg1340
L2L
sg1337
L2L
sg1338
g1339
sVX
L2L
sg1334
g1335
sg1342
g1343
sg1344
g1345
sg1346
g1347
stRp2030
ag1
(g1564
g1512
(dp2031
g1329
g1469
sVY
L7L
sg1331
L4L
sg1332
g1470
sg1340
L8L
sg1337
L8L
sg1338
g1335
sVX
L6L
sg1334
g1354
sg1342
g1343
sg1344
g1345
sg1346
g1369
stRp2032
ag1
(g1564
g1512
(dp2033
g1329
g1363
sVY
L9L
sg1331
L4L
sg1332
g1364
sg1340
L1L
sg1337
L1L
sg1338
g1367
sVX
L9L
sg1334
g1365
sg1342
g1343
sg1344
g1335
sg1346
g1369
stRp2034
ag1
(g1564
g1512
(dp2035
g1329
g1494
sVY
L3L
sg1331
L4L
sg1332
g1495
sg1340
L6L
sg1337
L6L
sg1338
g1376
sVX
L9L
sg1334
g1367
sg1342
g1356
sg1344
g1365
sg1346
g1481
stRp2036
ag1
(g1564
g1512
(dp2037
g1329
g1477
sVY
L4L
sg1331
L4L
sg1332
g1478
sg1340
L6L
sg1337
L6L
sg1338
g1335
sVX
L2L
sg1334
g1367
sg1342
g1343
sg1344
g1339
sg1346
g1481
stRp2038
asg1577
Nsg1578
I16
sg1579
I18
sg1580
I0
sg1581
I18
sbasS'savePickle'
p2039
I00
sb.